(dp0
I1
F0.0
sI2
F0.0
sI3
F0.0
sI4
F5.307104443807997e-05
sI5
F0.4580822497092716
sI6
F0.6262382217927036
sI7
F0.27400940228341153
sI8
F0.5
sI9
F0.8
sI10
F0.9166666666666666
sI11
F0.8888888888888888
sI12
F0.875
sI13
F0.9090909090909091
sI14
F0.7186267809263446
sI15
F0.4959908361970218
sI16
F0.0
sI17
F0.5602094240837696
sI18
F0.0
sI19
F0.0
sI20
F0.0
sI21
F0.0
sI22
F0.0
sI23
F0.0
sI24
F0.0
sI25
F0.0
sI26
F0.0
sI27
F0.5083467094703049
sI28
F0.0
sI29
F0.5510388437217706
sI30
F0.0
sI31
F0.0
sI32
F0.0
sI33
F0.7320574162679426
sI34
F0.012195121951219523
sI35
F0.582236842105263
sI36
F0.0
sI37
F0.0
sI38
F0.5401459854014599
sI39
F0.024054982817870108
sI40
F0.0
sI41
F0.0
sI42
F0.0
sI43
F0.0
sI44
F0.5217391304347826
sI45
F0.0
sI46
F0.0
sI47
F0.0
sI48
F0.0
sI49
F0.0
sI50
F0.0
sI51
F0.0
sI52
F0.0
sI53
F0.10465116279069764
sI54
F0.02631578947368418
sI55
F0.6249999999999999
sI56
F0.404761904761905
sI57
F0.7592997811816192
sI58
F0.8462017434620175
sI59
F0.5
sI60
F0.0
sI61
F0.0
sI62
F0.0
sI63
F0.0
sI64
F0.6486486486486487
sI65
F0.5
sI66
F0.0
sI67
F0.000611995104039087
sI68
F0.0
sI69
F0.0
sI70
F0.0
sI71
F0.10344827586206895
sI72
F0.0
sI73
F0.0
sI74
F0.0
sI75
F0.0
sI76
F0.0
sI77
F0.0
sI78
F0.0
sI103
F0.0
sI104
F0.06357328099810755
sI105
F0.0
sI106
F0.0
sI107
F0.1428571428571428
sI108
F0.0
s.