(dp0
I1
F0.31913062190660646
sI2
F0.7794253938832252
sI3
F0.49947386881795863
sI4
F0.0
sI5
F0.4115555555555557
sI6
F0.5711711711711711
sI7
F0.8614157527417746
sI8
F0.9165329052969503
sI9
F0.2337127633809638
sI10
F0.7822506861848124
sI11
F0.49947386881795863
sI13
F0.0
sI14
F0.6371951219512195
sI15
F0.8614157527417746
sI16
F0.9094076655052264
sI17
F0.23832450649975945
sI18
F0.7794253938832252
sI19
F0.6767104666968735
sI20
F0.0
sI21
F0.0
sI22
F0.5688405797101449
sI23
F0.31188118811881194
sI24
F0.9094076655052264
sI25
F0.23832450649975945
sI26
F0.807131280388979
sI27
F0.49947386881795863
sI29
F0.4115555555555557
sI30
F0.5757575757575757
sI31
F0.31188118811881194
sI32
F0.9165329052969503
sI33
F0.2337127633809638
sI34
F0.807131280388979
sI35
F0.49947386881795863
sI36
F0.0
sI37
F0.0
sI38
F0.5757575757575757
sI39
F0.0
sI40
F0.9094076655052266
sI41
F0.2337127633809638
sI42
F0.807131280388979
sI43
F0.6749430523917995
sI45
F0.0
sI46
F0.5688405797101449
sI47
F0.7887537993920972
sI48
F0.9094076655052264
sI49
F0.49213483146067427
sI50
F0.8092948717948718
sI51
F0.49947386881795863
sI53
F0.0
sI54
F0.5780141843971631
sI55
F0.8530655391120507
sI56
F0.9165329052969503
sI57
F0.2337127633809638
sI58
F0.8092948717948718
sI59
F0.49947386881795863
sI60
F0.0
sI61
F0.4086645824028584
sI62
F0.5780141843971631
sI63
F0.25268817204301086
sI64
F0.9013282732447818
sI65
F0.2337127633809638
sI66
F0.8092948717948718
sI67
F0.49947386881795863
sI68
F0.0
sI69
F0.0
sI70
F0.5780141843971631
sI71
F0.8708178438661709
sI72
F0.9013282732447818
s.