(dp0
I1
F0.49878248373318435
sI2
F0.0
sI3
F0.5487804878048781
sI4
F0.0
sI5
F0.0
sI6
F0.7322834645669292
sI7
F0.0
sI8
F0.0
sI9
F0.39739930225182374
sI10
F0.0
sI11
F0.0
sI12
F0.0
sI13
F0.0
sI14
F0.0
sI16
F0.5199999999999999
sI17
F0.0
sI18
F0.6666666666666667
sI19
F0.0
sI20
F0.0
sI21
F0.5
sI22
F0.0
sI23
F0.0
sI24
F0.0
sI25
F0.0
sI26
F0.0
sI27
F0.0
sI28
F0.0
sI29
F0.0
sI30
F0.0
sI31
F0.19487939060516302
sI32
F0.0
sI33
F0.0
sI34
F0.0
sI35
F0.34683544303797464
sI37
F0.10020964360587015
sI38
F0.0
sI39
F0.0
sI40
F0.0
sI41
F0.5
sI42
F0.0
sI43
F0.0
sI44
F0.0
sI45
F0.5
sI46
F0.0
sI47
F0.0
sI48
F0.0
sI49
F0.5
sI50
F0.0
sI51
F0.0
sI52
F0.0
sI53
F0.0
sI55
F0.0
sI56
I0
sI57
F0.0
sI108
I0
sI109
I0
sI116
F0.3802816901408451
sI117
F0.0
sI118
I0
sI122
I0
s.