(dp0
I1
(dp1
S'iters'
p2
I2
sS'meta'
p3
(lp4
(dp5
S'objective'
p6
I36
sS'query_time'
p7
F0.04600787162780762
sS'comp_time'
p8
F0.0002410411834716797
sS'exec_cq'
p9
I12
sS'total_cq'
p10
I12
sa(dp11
g6
I37
sg7
F5.602836608886719e-05
sg8
F8.487701416015625e-05
sg9
I10
sg10
I10
sasS'total_cqs'
p12
I12
ssI2
(dp13
S'iters'
p14
I4
sS'meta'
p15
(lp16
(dp17
S'objective'
p18
I250
sS'query_time'
p19
F0.15661883354187012
sS'comp_time'
p20
F0.0011470317840576172
sS'exec_cq'
p21
I27
sS'total_cq'
p22
I27
sa(dp23
g18
I230
sg19
F0.00017905235290527344
sg20
F0.0006091594696044922
sg21
I24
sg22
I24
sa(dp24
g18
I198
sg19
F0.00012683868408203125
sg20
F0.0004589557647705078
sg21
I21
sg22
I21
sa(dp25
g18
I191
sg19
F0.00012183189392089844
sg20
F0.0004131793975830078
sg21
I19
sg22
I19
sasS'total_cqs'
p26
I27
ssI3
(dp27
S'iters'
p28
I4
sS'meta'
p29
(lp30
(dp31
S'objective'
p32
I304
sS'query_time'
p33
F160.80372381210327
sS'comp_time'
p34
F1.533769130706787
sS'exec_cq'
p35
I43
sS'total_cq'
p36
I43
sa(dp37
g32
I41
sg33
F0.34737086296081543
sg34
F1.321202278137207
sg35
I27
sg36
I27
sa(dp38
g32
I34
sg33
F0.04434990882873535
sg34
F0.3649449348449707
sg35
I13
sg36
I13
sa(dp39
g32
I95
sg33
F4.982948303222656e-05
sg34
F0.0021407604217529297
sg35
I7
sg36
I7
sasS'total_cqs'
p40
I43
ssI4
(dp41
S'iters'
p42
I2
sS'meta'
p43
(lp44
(dp45
S'objective'
p46
I32
sS'query_time'
p47
F3.9636380672454834
sS'comp_time'
p48
F0.403684139251709
sS'exec_cq'
p49
I11
sS'total_cq'
p50
I11
sa(dp51
g46
I3
sg47
F0.1233830451965332
sg48
F0.3830392360687256
sg49
I2
sg50
I2
sasS'total_cqs'
p52
I11
ssI5
(dp53
S'iters'
p54
I3
sS'meta'
p55
(lp56
(dp57
S'objective'
p58
I0
sS'query_time'
p59
F27.429288864135742
sS'comp_time'
p60
F2.1955292224884033
sS'exec_cq'
p61
I8
sS'total_cq'
p62
I8
sa(dp63
g58
I2
sg59
F0.011364936828613281
sg60
F0.049817800521850586
sg61
I4
sg62
I4
sa(dp64
g58
I6
sg59
F0.007621049880981445
sg60
F0.03456878662109375
sg61
I2
sg62
I2
sasS'total_cqs'
p65
I8
ssI6
(dp66
S'iters'
p67
I4
sS'meta'
p68
(lp69
(dp70
S'objective'
p71
I27
sS'query_time'
p72
F29.868383169174194
sS'comp_time'
p73
F2.7607250213623047
sS'exec_cq'
p74
I18
sS'total_cq'
p75
I18
sa(dp76
g71
I0
sg72
F0.753554105758667
sg73
F2.5948069095611572
sg74
I7
sg75
I7
sa(dp77
g71
I2
sg72
F0.5161938667297363
sg73
F1.9928257465362549
sg74
I4
sg75
I4
sa(dp78
g71
I13
sg72
F0.28768396377563477
sg73
F1.2878408432006836
sg74
I2
sg75
I2
sasS'total_cqs'
p79
I18
ssI7
(dp80
S'iters'
p81
I3
sS'meta'
p82
(lp83
(dp84
S'objective'
p85
I1
sS'query_time'
p86
F10.082827806472778
sS'comp_time'
p87
F0.886185884475708
sS'exec_cq'
p88
I9
sS'total_cq'
p89
I9
sa(dp90
g85
I1
sg86
F0.00837397575378418
sg87
F0.039955854415893555
sg88
I5
sg89
I5
sa(dp91
g85
I5
sg86
F0.0704960823059082
sg87
F0.03430604934692383
sg88
I2
sg89
I2
sasS'total_cqs'
p92
I9
ssI8
(dp93
S'iters'
p94
I3
sS'meta'
p95
(lp96
(dp97
S'objective'
p98
I200
sS'query_time'
p99
F0.14803504943847656
sS'comp_time'
p100
F0.0011069774627685547
sS'exec_cq'
p101
I27
sS'total_cq'
p102
I27
sa(dp103
g98
I197
sg99
F0.00015687942504882812
sg100
F0.0003528594970703125
sg101
I22
sg102
I22
sa(dp104
g98
I199
sg99
F6.604194641113281e-05
sg100
F8.726119995117188e-05
sg101
I19
sg102
I19
sasS'total_cqs'
p105
I27
ssI9
(dp106
S'iters'
p107
I3
sS'meta'
p108
(lp109
(dp110
S'objective'
p111
I0
sS'query_time'
p112
F0.050743818283081055
sS'comp_time'
p113
F0.0002789497375488281
sS'exec_cq'
p114
I7
sS'total_cq'
p115
I7
sa(dp116
g111
I2
sg112
F3.0994415283203125e-05
sg113
F6.985664367675781e-05
sg114
I4
sg115
I4
sa(dp117
g111
I6
sg112
F1.9073486328125e-05
sg113
F5.412101745605469e-05
sg114
I2
sg115
I2
sasS'total_cqs'
p118
I7
ssI10
(dp119
S'iters'
p120
I5
sS'meta'
p121
(lp122
(dp123
S'objective'
p124
I502
sS'query_time'
p125
F0.44374895095825195
sS'comp_time'
p126
F0.007287263870239258
sS'exec_cq'
p127
I51
sS'total_cq'
p128
I51
sa(dp129
g124
I388
sg125
F0.00046706199645996094
sg126
F0.0015761852264404297
sg127
I37
sg128
I37
sa(dp130
g124
I3
sg125
F0.0017938613891601562
sg126
F0.0005850791931152344
sg127
I12
sg128
I12
sa(dp131
g124
I3
sg125
F0.00011491775512695312
sg126
F0.0003991127014160156
sg127
I7
sg128
I7
sa(dp132
g124
I12
sg125
F4.1961669921875e-05
sg126
F0.00018215179443359375
sg127
I3
sg128
I3
sasS'total_cqs'
p133
I51
ssI11
(dp134
S'iters'
p135
I5
sS'meta'
p136
(lp137
(dp138
S'objective'
p139
I862
sS'query_time'
p140
F0.620560884475708
sS'comp_time'
p141
F0.011029958724975586
sS'exec_cq'
p142
I63
sS'total_cq'
p143
I63
sa(dp144
g139
I823
sg140
F0.0008749961853027344
sg141
F0.003422975540161133
sg142
I47
sg143
I47
sa(dp145
g139
I2
sg140
F0.0012319087982177734
sg141
F0.0007679462432861328
sg142
I9
sg143
I9
sa(dp146
g139
I1
sg140
F0.00011587142944335938
sg141
F0.0006029605865478516
sg142
I5
sg143
I5
sa(dp147
g139
I21
sg140
F2.09808349609375e-05
sg141
F7.295608520507812e-05
sg142
I3
sg143
I3
sasS'total_cqs'
p148
I63
ssI12
(dp149
S'iters'
p150
I5
sS'meta'
p151
(lp152
(dp153
S'objective'
p154
I305
sS'query_time'
p155
F0.40773606300354004
sS'comp_time'
p156
F0.00662994384765625
sS'exec_cq'
p157
I50
sS'total_cq'
p158
I50
sa(dp159
g154
I366
sg155
F0.00043201446533203125
sg156
F0.0016007423400878906
sg157
I33
sg158
I33
sa(dp160
g154
I376
sg155
F0.0001399517059326172
sg156
F0.0004639625549316406
sg157
I26
sg158
I26
sa(dp161
g154
I285
sg155
F0.00011801719665527344
sg156
F0.000324249267578125
sg157
I23
sg158
I23
sa(dp162
g154
I18
sg155
F0.0013849735260009766
sg156
F0.00014591217041015625
sg157
I5
sg158
I5
sasS'total_cqs'
p163
I50
ssI13
(dp164
S'iters'
p165
I4
sS'meta'
p166
(lp167
(dp168
S'objective'
p169
I46
sS'query_time'
p170
F0.14793992042541504
sS'comp_time'
p171
F0.00040411949157714844
sS'exec_cq'
p172
I20
sS'total_cq'
p173
I20
sa(dp174
g169
I6
sg170
F7.295608520507812e-05
sg171
F0.000102996826171875
sg172
I14
sg173
I14
sa(dp175
g169
I13
sg170
F0.0011761188507080078
sg171
F8.606910705566406e-05
sg172
I5
sg173
I5
sa(dp176
g169
I5
sg170
F2.384185791015625e-05
sg171
F6.794929504394531e-05
sg172
I3
sg173
I3
sasS'total_cqs'
p177
I20
ssI14
(dp178
S'iters'
p179
I3
sS'meta'
p180
(lp181
(dp182
S'objective'
p183
I1
sS'query_time'
p184
F27.212249994277954
sS'comp_time'
p185
F0.9124040603637695
sS'exec_cq'
p186
I9
sS'total_cq'
p187
I9
sa(dp188
g183
I2
sg184
F0.0073091983795166016
sg185
F0.03168082237243652
sg186
I4
sg187
I4
sa(dp189
g183
I6
sg184
F0.006767988204956055
sg185
F0.1000521183013916
sg186
I2
sg187
I2
sasS'total_cqs'
p190
I9
ssI15
(dp191
S'iters'
p192
I3
sS'meta'
p193
(lp194
(dp195
S'objective'
p196
I0
sS'query_time'
p197
F3.0203440189361572
sS'comp_time'
p198
F0.1542661190032959
sS'exec_cq'
p199
I11
sS'total_cq'
p200
I11
sa(dp201
g196
I3
sg197
F0.018798828125
sg198
F0.061544179916381836
sg199
I4
sg200
I4
sa(dp202
g196
I2
sg197
F0.0077130794525146484
sg198
F0.03435397148132324
sg199
I2
sg200
I2
sasS'total_cqs'
p203
I11
ssI16
(dp204
S'iters'
p205
I1
sS'meta'
p206
(lp207
(dp208
S'objective'
p209
I22
sS'query_time'
p210
F0.058975934982299805
sS'comp_time'
p211
F0.00013518333435058594
sS'exec_cq'
p212
I8
sS'total_cq'
p213
I8
sasS'total_cqs'
p214
I8
ssI17
(dp215
S'iters'
p216
I2
sS'meta'
p217
(lp218
(dp219
S'objective'
p220
I4
sS'query_time'
p221
F0.9250829219818115
sS'comp_time'
p222
F0.018950939178466797
sS'exec_cq'
p223
I11
sS'total_cq'
p224
I11
sa(dp225
g220
I15
sg221
F0.0001499652862548828
sg222
F0.0007240772247314453
sg223
I5
sg224
I5
sasS'total_cqs'
p226
I11
ssI18
(dp227
S'iters'
p228
I2
sS'meta'
p229
(lp230
(dp231
S'objective'
p232
I24
sS'query_time'
p233
F0.2343740463256836
sS'comp_time'
p234
F0.00442194938659668
sS'exec_cq'
p235
I11
sS'total_cq'
p236
I11
sa(dp237
g232
I25
sg233
F0.00024390220642089844
sg234
F0.0012290477752685547
sg235
I8
sg236
I8
sasS'total_cqs'
p238
I11
ssI19
(dp239
S'iters'
p240
I0
sS'meta'
p241
(lp242
sS'total_cqs'
p243
I1
ssI20
(dp244
S'iters'
p245
I0
sS'meta'
p246
(lp247
sS'total_cqs'
p248
I1
ssI21
(dp249
S'iters'
p250
I0
sS'meta'
p251
(lp252
sS'total_cqs'
p253
I1
ssI22
(dp254
S'iters'
p255
I1
sS'meta'
p256
(lp257
(dp258
S'objective'
p259
I141
sS'query_time'
p260
F0.09133100509643555
sS'comp_time'
p261
F0.00022983551025390625
sS'exec_cq'
p262
I18
sS'total_cq'
p263
I18
sasS'total_cqs'
p264
I18
ssI23
(dp265
S'iters'
p266
I3
sS'meta'
p267
(lp268
(dp269
S'objective'
p270
I108
sS'query_time'
p271
F0.07968497276306152
sS'comp_time'
p272
F0.0006389617919921875
sS'exec_cq'
p273
I16
sS'total_cq'
p274
I16
sa(dp275
g270
I96
sg271
F7.510185241699219e-05
sg272
F9.5367431640625e-05
sg273
I15
sg274
I15
sa(dp276
g270
I83
sg271
F5.602836608886719e-05
sg272
F6.580352783203125e-05
sg273
I13
sg274
I13
sasS'total_cqs'
p277
I16
ssI24
(dp278
S'iters'
p279
I0
sS'meta'
p280
(lp281
sS'total_cqs'
p282
I1
ssI25
(dp283
S'iters'
p284
I0
sS'meta'
p285
(lp286
sS'total_cqs'
p287
I1
ssI26
(dp288
S'iters'
p289
I1
sS'meta'
p290
(lp291
(dp292
S'objective'
p293
I837
sS'query_time'
p294
F0.24888300895690918
sS'comp_time'
p295
F0.000164031982421875
sS'exec_cq'
p296
I42
sS'total_cq'
p297
I42
sasS'total_cqs'
p298
I42
ssI27
(dp299
S'iters'
p300
I3
sS'meta'
p301
(lp302
(dp303
S'objective'
p304
I281
sS'query_time'
p305
F17.462303161621094
sS'comp_time'
p306
F1.9442899227142334
sS'exec_cq'
p307
I30
sS'total_cq'
p308
I30
sa(dp309
g304
I0
sg305
F0.365598201751709
sg306
F1.88972806930542
sg307
I5
sg308
I5
sa(dp310
g304
I2
sg305
F0.258465051651001
sg306
F1.0223808288574219
sg307
I2
sg308
I2
sasS'total_cqs'
p311
I30
ssI28
(dp312
S'iters'
p313
I0
sS'meta'
p314
(lp315
sS'total_cqs'
p316
I1
ssI29
(dp317
S'iters'
p318
I5
sS'meta'
p319
(lp320
(dp321
S'objective'
p322
I361
sS'query_time'
p323
F134.22135996818542
sS'comp_time'
p324
F13.31835412979126
sS'exec_cq'
p325
I49
sS'total_cq'
p326
I49
sa(dp327
g322
I10
sg323
F0.020637989044189453
sg324
F0.04526376724243164
sg325
I17
sg326
I17
sa(dp328
g322
I17
sg323
F0.6194272041320801
sg324
F0.05277705192565918
sg325
I9
sg326
I9
sa(dp329
g322
I23
sg323
F0.0059719085693359375
sg324
F0.0265042781829834
sg325
I5
sg326
I5
sa(dp330
g322
I5
sg323
F0.004503011703491211
sg324
F0.0251767635345459
sg325
I3
sg326
I3
sasS'total_cqs'
p331
I49
ssI30
(dp332
S'iters'
p333
I1
sS'meta'
p334
(lp335
(dp336
S'objective'
p337
I1
sS'query_time'
p338
F0.6345021724700928
sS'comp_time'
p339
F0.02429485321044922
sS'exec_cq'
p340
I2
sS'total_cq'
p341
I2
sasS'total_cqs'
p342
I2
ssI31
(dp343
S'iters'
p344
I0
sS'meta'
p345
(lp346
sS'total_cqs'
p347
I1
ssI32
(dp348
S'iters'
p349
I1
sS'meta'
p350
(lp351
(dp352
S'objective'
p353
I1
sS'query_time'
p354
F0.009033203125
sS'comp_time'
p355
F0.00023698806762695312
sS'exec_cq'
p356
I2
sS'total_cq'
p357
I2
sasS'total_cqs'
p358
I2
ssI33
(dp359
S'iters'
p360
I5
sS'meta'
p361
(lp362
(dp363
S'objective'
p364
I3706
sS'query_time'
p365
F14.891488075256348
sS'comp_time'
p366
F0.1729748249053955
sS'exec_cq'
p367
I103
sS'total_cq'
p368
I103
sa(dp369
g364
I29
sg365
F0.007538795471191406
sg366
F0.03699898719787598
sg367
I16
sg368
I16
sa(dp370
g364
I5
sg365
F0.002290964126586914
sg366
F0.010559320449829102
sg367
I9
sg368
I9
sa(dp371
g364
I23
sg365
F0.0008339881896972656
sg366
F0.0029058456420898438
sg367
I6
sg368
I6
sa(dp372
g364
I41
sg365
F0.0002620220184326172
sg366
F0.0022029876708984375
sg367
I2
sg368
I2
sasS'total_cqs'
p373
I103
ssI34
(dp374
S'iters'
p375
I1
sS'meta'
p376
(lp377
(dp378
S'objective'
p379
I1
sS'query_time'
p380
F0.017625808715820312
sS'comp_time'
p381
F0.0004839897155761719
sS'exec_cq'
p382
I2
sS'total_cq'
p383
I2
sasS'total_cqs'
p384
I2
ssI35
(dp385
S'iters'
p386
I9
sS'meta'
p387
(lp388
(dp389
S'objective'
p390
I2407
sS'query_time'
p391
F51.44039607048035
sS'comp_time'
p392
F3.4588589668273926
sS'exec_cq'
p393
I70
sS'total_cq'
p394
I70
sa(dp395
g390
I2386
sg391
F0.8322689533233643
sg392
F3.8674631118774414
sg393
I69
sg394
I69
sa(dp396
g390
I2360
sg391
F0.8659958839416504
sg392
F3.203989028930664
sg393
I68
sg394
I68
sa(dp397
g390
I2176
sg391
F0.887645959854126
sg392
F3.428542137145996
sg393
I67
sg394
I67
sa(dp398
g390
I2254
sg391
F0.6925787925720215
sg392
F3.38371205329895
sg393
I64
sg394
I64
sa(dp399
g390
I2266
sg391
F0.8027021884918213
sg392
F3.4958558082580566
sg393
I63
sg394
I63
sa(dp400
g390
I1931
sg391
F0.28951215744018555
sg392
F0.2280590534210205
sg393
I62
sg394
I62
sa(dp401
g390
I36
sg391
F0.06608009338378906
sg392
F0.03920912742614746
sg393
I4
sg394
I4
sa(dp402
g390
I6
sg391
F0.031536102294921875
sg392
F0.029427051544189453
sg393
I3
sg394
I3
sasS'total_cqs'
p403
I70
ssI36
(dp404
S'iters'
p405
I4
sS'meta'
p406
(lp407
(dp408
S'objective'
p409
I419
sS'query_time'
p410
F0.7142438888549805
sS'comp_time'
p411
F0.024102210998535156
sS'exec_cq'
p412
I33
sS'total_cq'
p413
I33
sa(dp414
g409
I408
sg410
F0.001934051513671875
sg411
F0.00851583480834961
sg412
I29
sg413
I29
sa(dp415
g409
I389
sg410
F0.0011539459228515625
sg411
F0.0058019161224365234
sg412
I25
sg413
I25
sa(dp416
g409
I367
sg410
F0.0008189678192138672
sg411
F0.004702091217041016
sg412
I24
sg413
I24
sasS'total_cqs'
p417
I33
ssI37
(dp418
S'iters'
p419
I1
sS'meta'
p420
(lp421
(dp422
S'objective'
p423
I1
sS'query_time'
p424
F0.009829998016357422
sS'comp_time'
p425
F0.0003211498260498047
sS'exec_cq'
p426
I2
sS'total_cq'
p427
I2
sasS'total_cqs'
p428
I2
ssI38
(dp429
S'iters'
p430
I2
sS'meta'
p431
(lp432
(dp433
S'objective'
p434
I0
sS'query_time'
p435
F0.024959802627563477
sS'comp_time'
p436
F0.0006697177886962891
sS'exec_cq'
p437
I4
sS'total_cq'
p438
I4
sa(dp439
g434
I3
sg435
F8.20159912109375e-05
sg436
F0.0003631114959716797
sg437
I2
sg438
I2
sasS'total_cqs'
p440
I4
ssI39
(dp441
S'iters'
p442
I2
sS'meta'
p443
(lp444
(dp445
S'objective'
p446
I570
sS'query_time'
p447
F0.19859695434570312
sS'comp_time'
p448
F0.0015730857849121094
sS'exec_cq'
p449
I44
sS'total_cq'
p450
I44
sa(dp451
g446
I712
sg447
F0.00028896331787109375
sg448
F0.004712820053100586
sg449
I37
sg450
I37
sasS'total_cqs'
p452
I44
ssI40
(dp453
S'iters'
p454
I1
sS'meta'
p455
(lp456
(dp457
S'objective'
p458
I14
sS'query_time'
p459
F0.03774094581604004
sS'comp_time'
p460
F7.796287536621094e-05
sS'exec_cq'
p461
I7
sS'total_cq'
p462
I7
sasS'total_cqs'
p463
I7
ssI41
(dp464
S'iters'
p465
I1
sS'meta'
p466
(lp467
(dp468
S'objective'
p469
I58
sS'query_time'
p470
F0.08287906646728516
sS'comp_time'
p471
F0.0001308917999267578
sS'exec_cq'
p472
I12
sS'total_cq'
p473
I12
sasS'total_cqs'
p474
I12
ssI42
(dp475
S'iters'
p476
I2
sS'meta'
p477
(lp478
(dp479
S'objective'
p480
I789
sS'query_time'
p481
F0.1125631332397461
sS'comp_time'
p482
F0.00022792816162109375
sS'exec_cq'
p483
I41
sS'total_cq'
p484
I41
sa(dp485
g480
I761
sg481
F0.0001800060272216797
sg482
F0.00013113021850585938
sg483
I40
sg484
I40
sasS'total_cqs'
p486
I41
ssI43
(dp487
S'iters'
p488
I1
sS'meta'
p489
(lp490
(dp491
S'objective'
p492
I14
sS'query_time'
p493
F0.029265165328979492
sS'comp_time'
p494
F0.00011324882507324219
sS'exec_cq'
p495
I7
sS'total_cq'
p496
I7
sasS'total_cqs'
p497
I7
ssI44
(dp498
S'iters'
p499
I4
sS'meta'
p500
(lp501
(dp502
S'objective'
p503
I734
sS'query_time'
p504
F0.18067288398742676
sS'comp_time'
p505
F0.0009779930114746094
sS'exec_cq'
p506
I47
sS'total_cq'
p507
I47
sa(dp508
g503
I779
sg504
F0.00026416778564453125
sg505
F0.0008161067962646484
sg506
I40
sg507
I40
sa(dp509
g503
I4
sg504
F0.003017902374267578
sg505
F0.004443168640136719
sg506
I3
sg507
I3
sa(dp510
g503
I34
sg504
F3.504753112792969e-05
sg505
F0.000125885009765625
sg506
I2
sg507
I2
sasS'total_cqs'
p511
I47
ssI45
(dp512
S'iters'
p513
I0
sS'meta'
p514
(lp515
sS'total_cqs'
p516
I1
ssI46
(dp517
S'iters'
p518
I1
sS'meta'
p519
(lp520
(dp521
S'objective'
p522
I9
sS'query_time'
p523
F0.020222902297973633
sS'comp_time'
p524
F0.0002651214599609375
sS'exec_cq'
p525
I6
sS'total_cq'
p526
I6
sasS'total_cqs'
p527
I6
ssI47
(dp528
S'iters'
p529
I1
sS'meta'
p530
(lp531
(dp532
S'objective'
p533
I1
sS'query_time'
p534
F0.01373600959777832
sS'comp_time'
p535
F0.0003230571746826172
sS'exec_cq'
p536
I2
sS'total_cq'
p537
I2
sasS'total_cqs'
p538
I2
ssI48
(dp539
S'iters'
p540
I0
sS'meta'
p541
(lp542
sS'total_cqs'
p543
I1
ssI49
(dp544
S'iters'
p545
I0
sS'meta'
p546
(lp547
sS'total_cqs'
p548
I1
ssI50
(dp549
S'iters'
p550
I1
sS'meta'
p551
(lp552
(dp553
S'objective'
p554
I5
sS'query_time'
p555
F0.017165184020996094
sS'comp_time'
p556
F0.00015783309936523438
sS'exec_cq'
p557
I5
sS'total_cq'
p558
I5
sasS'total_cqs'
p559
I5
ssI51
(dp560
S'iters'
p561
I1
sS'meta'
p562
(lp563
(dp564
S'objective'
p565
I1
sS'query_time'
p566
F0.010026931762695312
sS'comp_time'
p567
F0.0001652240753173828
sS'exec_cq'
p568
I2
sS'total_cq'
p569
I2
sasS'total_cqs'
p570
I2
ssI52
(dp571
S'iters'
p572
I1
sS'meta'
p573
(lp574
(dp575
S'objective'
p576
I1
sS'query_time'
p577
F0.018977880477905273
sS'comp_time'
p578
F0.00023102760314941406
sS'exec_cq'
p579
I2
sS'total_cq'
p580
I2
sasS'total_cqs'
p581
I2
ssI53
(dp582
S'iters'
p583
I1
sS'meta'
p584
(lp585
(dp586
S'objective'
p587
I2
sS'query_time'
p588
F0.022980928421020508
sS'comp_time'
p589
F0.0009686946868896484
sS'exec_cq'
p590
I4
sS'total_cq'
p591
I4
sasS'total_cqs'
p592
I4
ssI54
(dp593
S'iters'
p594
I2
sS'meta'
p595
(lp596
(dp597
S'objective'
p598
I0
sS'query_time'
p599
F0.012721061706542969
sS'comp_time'
p600
F0.00026798248291015625
sS'exec_cq'
p601
I3
sS'total_cq'
p602
I3
sa(dp603
g598
I1
sg599
F4.38690185546875e-05
sg600
F0.0002372264862060547
sg601
I2
sg602
I2
sasS'total_cqs'
p604
I3
ssI55
(dp605
S'iters'
p606
I8
sS'meta'
p607
(lp608
(dp609
S'objective'
p610
I4687
sS'query_time'
p611
F2.471363067626953
sS'comp_time'
p612
F0.04017186164855957
sS'exec_cq'
p613
I109
sS'total_cq'
p614
I109
sa(dp615
g610
I4731
sg611
F0.0008440017700195312
sg612
F0.0016210079193115234
sg613
I97
sg614
I97
sa(dp616
g610
I4624
sg611
F0.0002989768981933594
sg612
F0.000827789306640625
sg613
I91
sg614
I91
sa(dp617
g610
I4554
sg611
F0.0002810955047607422
sg612
F0.0007510185241699219
sg613
I87
sg614
I87
sa(dp618
g610
I4418
sg611
F0.0002589225769042969
sg612
F0.0007059574127197266
sg613
I85
sg614
I85
sa(dp619
g610
I4331
sg611
F0.0002460479736328125
sg612
F0.0005028247833251953
sg613
I83
sg614
I83
sa(dp620
g610
I4263
sg611
F0.00023603439331054688
sg612
F0.00043201446533203125
sg613
I81
sg614
I81
sa(dp621
g610
I4187
sg611
F0.0002319812774658203
sg612
F0.0003981590270996094
sg613
I80
sg614
I80
sasS'total_cqs'
p622
I109
ssI56
(dp623
S'iters'
p624
I4
sS'meta'
p625
(lp626
(dp627
S'objective'
p628
I1580
sS'query_time'
p629
F3.394136905670166
sS'comp_time'
p630
F0.14185094833374023
sS'exec_cq'
p631
I76
sS'total_cq'
p632
I76
sa(dp633
g628
I57
sg629
F0.005095958709716797
sg630
F0.010044097900390625
sg631
I16
sg632
I16
sa(dp634
g628
I0
sg629
F0.00043201446533203125
sg630
F0.0018720626831054688
sg631
I7
sg632
I7
sa(dp635
g628
I38
sg629
F0.0001590251922607422
sg630
F0.000865936279296875
sg631
I3
sg632
I3
sasS'total_cqs'
p636
I76
ssI57
(dp637
S'iters'
p638
I5
sS'meta'
p639
(lp640
(dp641
S'objective'
p642
I156
sS'query_time'
p643
F68.29791498184204
sS'comp_time'
p644
F3.627139091491699
sS'exec_cq'
p645
I51
sS'total_cq'
p646
I51
sa(dp647
g642
I57
sg643
F0.014432907104492188
sg644
F0.02894306182861328
sg645
I27
sg646
I27
sa(dp648
g642
I4
sg643
F0.002164125442504883
sg644
F0.005853176116943359
sg645
I12
sg646
I12
sa(dp649
g642
I3
sg643
F0.001394033432006836
sg644
F0.0039501190185546875
sg645
I6
sg646
I6
sa(dp650
g642
I8
sg643
F0.0001938343048095703
sg644
F0.0009729862213134766
sg645
I2
sg646
I2
sasS'total_cqs'
p651
I51
ssI58
(dp652
S'iters'
p653
I8
sS'meta'
p654
(lp655
(dp656
S'objective'
p657
I84945
sS'query_time'
p658
F291.5294599533081
sS'comp_time'
p659
F17.078505039215088
sS'exec_cq'
p660
I486
sS'total_cq'
p661
I486
sa(dp662
g657
I11184
sg658
F0.03559994697570801
sg659
F0.1807117462158203
sg660
I64
sg661
I64
sa(dp663
g657
I6259
sg658
F0.025717973709106445
sg659
F0.9018871784210205
sg660
I52
sg661
I52
sa(dp664
g657
I438
sg658
F0.014606952667236328
sg659
F0.11279916763305664
sg660
I32
sg661
I32
sa(dp665
g657
I879
sg658
F0.010019063949584961
sg659
F0.48305726051330566
sg660
I16
sg661
I16
sa(dp666
g657
I43
sg658
F0.004758119583129883
sg659
F0.011810064315795898
sg660
I6
sg661
I6
sa(dp667
g657
I175
sg658
F0.0022590160369873047
sg659
F0.00882101058959961
sg660
I3
sg661
I3
sa(dp668
g657
I85
sg658
F0.0007059574127197266
sg659
F0.003470897674560547
sg660
I2
sg661
I2
sasS'total_cqs'
p669
I486
ssI59
(dp670
S'iters'
p671
I2
sS'meta'
p672
(lp673
(dp674
S'objective'
p675
I12
sS'query_time'
p676
F0.04733991622924805
sS'comp_time'
p677
F0.0009398460388183594
sS'exec_cq'
p678
I7
sS'total_cq'
p679
I7
sa(dp680
g675
I6
sg676
F0.0001621246337890625
sg677
F0.0008628368377685547
sg678
I2
sg679
I2
sasS'total_cqs'
p681
I7
ssI60
(dp682
S'iters'
p683
I1
sS'meta'
p684
(lp685
(dp686
S'objective'
p687
I5
sS'query_time'
p688
F0.022304058074951172
sS'comp_time'
p689
F0.00038695335388183594
sS'exec_cq'
p690
I5
sS'total_cq'
p691
I5
sasS'total_cqs'
p692
I5
ssI61
(dp693
S'iters'
p694
I0
sS'meta'
p695
(lp696
sS'total_cqs'
p697
I1
ssI62
(dp698
S'iters'
p699
I2
sS'meta'
p700
(lp701
(dp702
S'objective'
p703
I22
sS'query_time'
p704
F0.035687923431396484
sS'comp_time'
p705
F0.00021195411682128906
sS'exec_cq'
p706
I12
sS'total_cq'
p707
I12
sa(dp708
g703
I30
sg704
F5.0067901611328125e-05
sg705
F7.700920104980469e-05
sg706
I9
sg707
I9
sasS'total_cqs'
p709
I12
ssI63
(dp710
S'iters'
p711
I0
sS'meta'
p712
(lp713
sS'total_cqs'
p714
I1
ssI64
(dp715
S'iters'
p716
I3
sS'meta'
p717
(lp718
(dp719
S'objective'
p720
I16
sS'query_time'
p721
F0.12878704071044922
sS'comp_time'
p722
F0.006289005279541016
sS'exec_cq'
p723
I12
sS'total_cq'
p724
I12
sa(dp725
g720
I5
sg721
F0.0001690387725830078
sg722
F0.0008051395416259766
sg723
I4
sg724
I4
sa(dp726
g720
I2
sg721
F4.1961669921875e-05
sg722
F0.00015997886657714844
sg723
I2
sg724
I2
sasS'total_cqs'
p727
I12
ssI65
(dp728
S'iters'
p729
I3
sS'meta'
p730
(lp731
(dp732
S'objective'
p733
I246
sS'query_time'
p734
F0.8282160758972168
sS'comp_time'
p735
F0.044287919998168945
sS'exec_cq'
p736
I27
sS'total_cq'
p737
I27
sa(dp738
g733
I2
sg734
F0.001605987548828125
sg735
F0.005269050598144531
sg736
I7
sg737
I7
sa(dp739
g733
I10
sg734
F0.00019407272338867188
sg735
F0.0009469985961914062
sg736
I3
sg737
I3
sasS'total_cqs'
p740
I27
ssI66
(dp741
S'iters'
p742
I0
sS'meta'
p743
(lp744
sS'total_cqs'
p745
I1
ssI67
(dp746
S'iters'
p747
I2
sS'meta'
p748
(lp749
(dp750
S'objective'
p751
I514
sS'query_time'
p752
F1.431318998336792
sS'comp_time'
p753
F0.010408878326416016
sS'exec_cq'
p754
I35
sS'total_cq'
p755
I35
sa(dp756
g751
I2
sg752
F0.0010499954223632812
sg753
F0.005099058151245117
sg754
I2
sg755
I2
sasS'total_cqs'
p757
I35
ssI68
(dp758
S'iters'
p759
I0
sS'meta'
p760
(lp761
sS'total_cqs'
p762
I1
ssI69
(dp763
S'iters'
p764
I1
sS'meta'
p765
(lp766
(dp767
S'objective'
p768
I1246
sS'query_time'
p769
F0.22445011138916016
sS'comp_time'
p770
F0.00023102760314941406
sS'exec_cq'
p771
I51
sS'total_cq'
p772
I51
sasS'total_cqs'
p773
I51
ssI70
(dp774
S'iters'
p775
I1
sS'meta'
p776
(lp777
(dp778
S'objective'
p779
I9
sS'query_time'
p780
F0.01982402801513672
sS'comp_time'
p781
F0.0002295970916748047
sS'exec_cq'
p782
I6
sS'total_cq'
p783
I6
sasS'total_cqs'
p784
I6
ssI71
(dp785
S'iters'
p786
I6
sS'meta'
p787
(lp788
(dp789
S'objective'
p790
I3227
sS'query_time'
p791
F0.3907620906829834
sS'comp_time'
p792
F0.0008699893951416016
sS'exec_cq'
p793
I85
sS'total_cq'
p794
I85
sa(dp795
g790
I3085
sg791
F0.00036406517028808594
sg792
F0.0006198883056640625
sg793
I81
sg794
I81
sa(dp796
g790
I3023
sg791
F0.00028705596923828125
sg792
F0.0005459785461425781
sg793
I78
sg794
I78
sa(dp797
g790
I2907
sg791
F0.00026297569274902344
sg792
F0.0004680156707763672
sg793
I74
sg794
I74
sa(dp798
g790
I2799
sg791
F0.00025200843811035156
sg792
F0.0003838539123535156
sg793
I72
sg794
I72
sa(dp799
g790
I17
sg791
F0.001878976821899414
sg792
F0.0004210472106933594
sg793
I3
sg794
I3
sasS'total_cqs'
p800
I85
ssI72
(dp801
S'iters'
p802
I3
sS'meta'
p803
(lp804
(dp805
S'objective'
p806
I8
sS'query_time'
p807
F0.3761560916900635
sS'comp_time'
p808
F0.0027587413787841797
sS'exec_cq'
p809
I8
sS'total_cq'
p810
I8
sa(dp811
g806
I2
sg807
F0.0004169940948486328
sg808
F0.002624988555908203
sg809
I6
sg810
I6
sa(dp812
g806
I2
sg807
F4.00543212890625e-05
sg808
F0.00015878677368164062
sg809
I3
sg810
I3
sasS'total_cqs'
p813
I8
ssI73
(dp814
S'iters'
p815
I0
sS'meta'
p816
(lp817
sS'total_cqs'
p818
I1
ssI74
(dp819
S'iters'
p820
I0
sS'meta'
p821
(lp822
sS'total_cqs'
p823
I1
ssI75
(dp824
S'iters'
p825
I1
sS'meta'
p826
(lp827
(dp828
S'objective'
p829
I5
sS'query_time'
p830
F0.013860940933227539
sS'comp_time'
p831
F0.00011229515075683594
sS'exec_cq'
p832
I5
sS'total_cq'
p833
I5
sasS'total_cqs'
p834
I5
ssI76
(dp835
S'iters'
p836
I1
sS'meta'
p837
(lp838
(dp839
S'objective'
p840
I1
sS'query_time'
p841
F0.02064681053161621
sS'comp_time'
p842
F0.00032806396484375
sS'exec_cq'
p843
I2
sS'total_cq'
p844
I2
sasS'total_cqs'
p845
I2
ssI77
(dp846
S'iters'
p847
I0
sS'meta'
p848
(lp849
sS'total_cqs'
p850
I1
ssI78
(dp851
S'iters'
p852
I0
sS'meta'
p853
(lp854
sS'total_cqs'
p855
I1
ssI103
(dp856
S'iters'
p857
I2
sS'meta'
p858
(lp859
(dp860
S'objective'
p861
I56
sS'query_time'
p862
F0.09068012237548828
sS'comp_time'
p863
F0.00016498565673828125
sS'exec_cq'
p864
I12
sS'total_cq'
p865
I12
sa(dp866
g861
I47
sg862
F6.079673767089844e-05
sg863
F9.608268737792969e-05
sg864
I11
sg865
I11
sasS'total_cqs'
p867
I12
ssI104
(dp868
S'iters'
p869
I2
sS'meta'
p870
(lp871
(dp872
S'objective'
p873
I0
sS'query_time'
p874
F1.6721479892730713
sS'comp_time'
p875
F0.08353996276855469
sS'exec_cq'
p876
I4
sS'total_cq'
p877
I4
sa(dp878
g873
I3
sg874
F0.010782957077026367
sg875
F0.11220812797546387
sg876
I2
sg877
I2
sasS'total_cqs'
p879
I4
ssI105
(dp880
S'iters'
p881
I0
sS'meta'
p882
(lp883
sS'total_cqs'
p884
I1
ssI106
(dp885
S'iters'
p886
I1
sS'meta'
p887
(lp888
(dp889
S'objective'
p890
I2
sS'query_time'
p891
F0.023900985717773438
sS'comp_time'
p892
F0.00011301040649414062
sS'exec_cq'
p893
I4
sS'total_cq'
p894
I4
sasS'total_cqs'
p895
I4
ssI107
(dp896
S'iters'
p897
I2
sS'meta'
p898
(lp899
(dp900
S'objective'
p901
I82
sS'query_time'
p902
F0.10528993606567383
sS'comp_time'
p903
F0.00019788742065429688
sS'exec_cq'
p904
I16
sS'total_cq'
p905
I16
sa(dp906
g901
I1
sg902
F0.00790095329284668
sg903
F0.00011682510375976562
sg904
I3
sg905
I3
sasS'total_cqs'
p907
I16
ssI108
(dp908
S'iters'
p909
I0
sS'meta'
p910
(lp911
sS'total_cqs'
p912
I1
ss.