(dp0
I1
(dp1
S'iters'
p2
I2
sS'meta'
p3
(lp4
(dp5
S'objective'
p6
I56
sS'query_time'
p7
F0.017616987228393555
sS'comp_time'
p8
F6.103515625e-05
sS'exec_cq'
p9
I2
sS'total_cq'
p10
I12
sa(dp11
g6
I53
sg7
F0.009639978408813477
sg8
F4.792213439941406e-05
sg9
I5
sg10
I11
sasS'total_cqs'
p12
I12
ssI2
(dp13
S'iters'
p14
I5
sS'meta'
p15
(lp16
(dp17
S'objective'
p18
I330
sS'query_time'
p19
F0.04073500633239746
sS'comp_time'
p20
F0.00011301040649414062
sS'exec_cq'
p21
I4
sS'total_cq'
p22
I27
sa(dp23
g18
I270
sg19
F0.03755497932434082
sg20
F5.817413330078125e-05
sg21
I5
sg22
I26
sa(dp24
g18
I278
sg19
F0.02265310287475586
sg20
F8.0108642578125e-05
sg21
I8
sg22
I24
sa(dp25
g18
I259
sg19
F0.013702154159545898
sg20
F8.606910705566406e-05
sg21
I8
sg22
I23
sa(dp26
g18
I247
sg19
F0.014850854873657227
sg20
F6.198883056640625e-05
sg21
I8
sg22
I21
sasS'total_cqs'
p27
I27
ssI3
(dp28
S'iters'
p29
I7
sS'meta'
p30
(lp31
(dp32
S'objective'
p33
I572
sS'query_time'
p34
F40.07800912857056
sS'comp_time'
p35
F0.00014591217041015625
sS'exec_cq'
p36
I2
sS'total_cq'
p37
I43
sa(dp38
g33
I533
sg34
F9.751662969589233
sg35
F0.0005381107330322266
sg36
I3
sg37
I35
sa(dp39
g33
I208
sg34
F26.045900106430054
sg35
F9.489059448242188e-05
sg36
I4
sg37
I29
sa(dp40
g33
I361
sg34
F45.87147903442383
sg35
F0.000125885009765625
sg36
I5
sg37
I18
sa(dp41
g33
I292
sg34
F30.130795001983643
sg35
F9.608268737792969e-05
sg36
I7
sg37
I17
sa(dp42
g33
I255
sg34
F7.065605878829956
sg35
F5.0067901611328125e-05
sg36
I7
sg37
I15
sa(dp43
g33
I253
sg34
F0.002079010009765625
sg35
F7.009506225585938e-05
sg36
I7
sg37
I13
sasS'total_cqs'
p44
I43
ssI4
(dp45
S'iters'
p46
I1
sS'meta'
p47
(lp48
(dp49
S'objective'
p50
I52
sS'query_time'
p51
F3.4795150756835938
sS'comp_time'
p52
F0.0003960132598876953
sS'exec_cq'
p53
I5
sS'total_cq'
p54
I11
sasS'total_cqs'
p55
I11
ssI5
(dp56
S'iters'
p57
I2
sS'meta'
p58
(lp59
(dp60
S'objective'
p61
I22
sS'query_time'
p62
F0.5666639804840088
sS'comp_time'
p63
F8.20159912109375e-05
sS'exec_cq'
p64
I1
sS'total_cq'
p65
I8
sa(dp66
g61
I3
sg62
F0.3100090026855469
sg63
F7.700920104980469e-05
sg64
I1
sg65
I2
sasS'total_cqs'
p67
I8
ssI6
(dp68
S'iters'
p69
I6
sS'meta'
p70
(lp71
(dp72
S'objective'
p73
I109
sS'query_time'
p74
F1.2304909229278564
sS'comp_time'
p75
F7.700920104980469e-05
sS'exec_cq'
p76
I2
sS'total_cq'
p77
I18
sa(dp78
g73
I110
sg74
F0.07146501541137695
sg75
F4.1961669921875e-05
sg76
I3
sg77
I16
sa(dp79
g73
I89
sg74
F0.059617042541503906
sg75
F8.988380432128906e-05
sg76
I3
sg77
I15
sa(dp80
g73
I83
sg74
F0.05183291435241699
sg75
F3.814697265625e-05
sg76
I3
sg77
I13
sa(dp81
g73
I71
sg74
F0.45526981353759766
sg75
F7.796287536621094e-05
sg76
I4
sg77
I12
sa(dp82
g73
I8
sg74
F0.007469892501831055
sg75
F3.314018249511719e-05
sg76
I1
sg77
I2
sasS'total_cqs'
p83
I18
ssI7
(dp84
S'iters'
p85
I2
sS'meta'
p86
(lp87
(dp88
S'objective'
p89
I7
sS'query_time'
p90
F0.23231196403503418
sS'comp_time'
p91
F6.890296936035156e-05
sS'exec_cq'
p92
I1
sS'total_cq'
p93
I9
sa(dp94
g89
I7
sg90
F0.23807311058044434
sg91
F8.106231689453125e-05
sg92
I1
sg93
I5
sasS'total_cqs'
p95
I9
ssI8
(dp96
S'iters'
p97
I4
sS'meta'
p98
(lp99
(dp100
S'objective'
p101
I326
sS'query_time'
p102
F0.0374760627746582
sS'comp_time'
p103
F7.796287536621094e-05
sS'exec_cq'
p104
I2
sS'total_cq'
p105
I27
sa(dp106
g101
I238
sg102
F0.03511309623718262
sg103
F8.0108642578125e-05
sg104
I4
sg105
I26
sa(dp107
g101
I217
sg102
F0.04734396934509277
sg103
F7.486343383789062e-05
sg104
I6
sg105
I22
sa(dp108
g101
I226
sg102
F0.03359389305114746
sg103
F9.179115295410156e-05
sg104
I8
sg105
I20
sasS'total_cqs'
p109
I27
ssI9
(dp110
S'iters'
p111
I4
sS'meta'
p112
(lp113
(dp114
S'objective'
p115
I2
sS'query_time'
p116
F0.04028892517089844
sS'comp_time'
p117
F6.794929504394531e-05
sS'exec_cq'
p118
I1
sS'total_cq'
p119
I7
sa(dp120
g115
I3
sg116
F0.01361703872680664
sg117
F4.1961669921875e-05
sg118
I1
sg119
I5
sa(dp121
g115
I3
sg116
F0.028291940689086914
sg117
F6.794929504394531e-05
sg118
I2
sg119
I3
sa(dp122
g115
I4
sg116
F0.006530046463012695
sg117
F4.601478576660156e-05
sg118
I2
sg119
I2
sasS'total_cqs'
p123
I7
ssI10
(dp124
S'iters'
p125
I7
sS'meta'
p126
(lp127
(dp128
S'objective'
p129
I1038
sS'query_time'
p130
F0.11061811447143555
sS'comp_time'
p131
F0.00014710426330566406
sS'exec_cq'
p132
I1
sS'total_cq'
p133
I51
sa(dp134
g129
I602
sg130
F0.07210612297058105
sg131
F7.390975952148438e-05
sg132
I2
sg133
I47
sa(dp135
g129
I520
sg130
F0.05300307273864746
sg131
F4.9114227294921875e-05
sg132
I2
sg133
I35
sa(dp136
g129
I564
sg130
F0.025461912155151367
sg131
F5.2928924560546875e-05
sg132
I3
sg133
I28
sa(dp137
g129
I321
sg130
F0.025866031646728516
sg131
F6.580352783203125e-05
sg132
I3
sg133
I26
sa(dp138
g129
I17
sg130
F0.008625030517578125
sg131
F4.100799560546875e-05
sg132
I1
sg133
I6
sa(dp139
g129
I33
sg130
F0.007289886474609375
sg131
F4.1961669921875e-05
sg132
I1
sg133
I3
sasS'total_cqs'
p140
I51
ssI11
(dp141
S'iters'
p142
I11
sS'meta'
p143
(lp144
(dp145
S'objective'
p146
I1652
sS'query_time'
p147
F0.14226603507995605
sS'comp_time'
p148
F7.605552673339844e-05
sS'exec_cq'
p149
I1
sS'total_cq'
p150
I63
sa(dp151
g146
I1710
sg147
F0.18700909614562988
sg148
F7.390975952148438e-05
sg149
I1
sg150
I59
sa(dp152
g146
I1550
sg147
F0.06748414039611816
sg148
F7.796287536621094e-05
sg149
I1
sg150
I58
sa(dp153
g146
I1471
sg147
F0.1091451644897461
sg148
F6.318092346191406e-05
sg149
I2
sg150
I55
sa(dp154
g146
I1450
sg147
F0.08943605422973633
sg148
F5.888938903808594e-05
sg149
I2
sg150
I52
sa(dp155
g146
I1296
sg147
F0.08632802963256836
sg148
F6.008148193359375e-05
sg149
I2
sg150
I51
sa(dp156
g146
I1290
sg147
F0.11931800842285156
sg148
F6.079673767089844e-05
sg149
I2
sg150
I49
sa(dp157
g146
I1166
sg147
F0.06462311744689941
sg148
F5.698204040527344e-05
sg149
I2
sg150
I48
sa(dp158
g146
I940
sg147
F0.06616401672363281
sg148
F7.104873657226562e-05
sg149
I5
sg150
I46
sa(dp159
g146
I6
sg147
F0.00787496566772461
sg148
F3.981590270996094e-05
sg149
I1
sg150
I4
sa(dp160
g146
I10
sg147
F0.003319978713989258
sg148
F4.8160552978515625e-05
sg149
I1
sg150
I2
sasS'total_cqs'
p161
I63
ssI12
(dp162
S'iters'
p163
I5
sS'meta'
p164
(lp165
(dp166
S'objective'
p167
I773
sS'query_time'
p168
F0.0625758171081543
sS'comp_time'
p169
F6.794929504394531e-05
sS'exec_cq'
p170
I1
sS'total_cq'
p171
I50
sa(dp172
g167
I702
sg168
F0.11330604553222656
sg169
F5.602836608886719e-05
sg170
I3
sg171
I38
sa(dp173
g167
I25
sg168
F0.032772064208984375
sg169
F3.504753112792969e-05
sg170
I1
sg171
I8
sa(dp174
g167
I9
sg168
F0.01203608512878418
sg169
F5.602836608886719e-05
sg170
I1
sg171
I5
sa(dp175
g167
I10
sg168
F0.0077250003814697266
sg169
F4.00543212890625e-05
sg170
I2
sg171
I3
sasS'total_cqs'
p176
I50
ssI13
(dp177
S'iters'
p178
I3
sS'meta'
p179
(lp180
(dp181
S'objective'
p182
I12
sS'query_time'
p183
F0.043782949447631836
sS'comp_time'
p184
F6.508827209472656e-05
sS'exec_cq'
p185
I3
sS'total_cq'
p186
I20
sa(dp187
g182
I87
sg183
F0.01511383056640625
sg184
F6.389617919921875e-05
sg185
I5
sg186
I9
sa(dp188
g182
I77
sg183
F0.004904985427856445
sg184
F4.792213439941406e-05
sg185
I5
sg186
I8
sasS'total_cqs'
p189
I20
ssI14
(dp190
S'iters'
p191
I3
sS'meta'
p192
(lp193
(dp194
S'objective'
p195
I39
sS'query_time'
p196
F0.5656650066375732
sS'comp_time'
p197
F6.413459777832031e-05
sS'exec_cq'
p198
I1
sS'total_cq'
p199
I9
sa(dp200
g195
I8
sg196
F0.04964399337768555
sg197
F3.0040740966796875e-05
sg198
I1
sg199
I7
sa(dp201
g195
I13
sg196
F0.8379859924316406
sg197
F6.914138793945312e-05
sg198
I1
sg199
I5
sasS'total_cqs'
p202
I9
ssI15
(dp203
S'iters'
p204
I3
sS'meta'
p205
(lp206
(dp207
S'objective'
p208
I24
sS'query_time'
p209
F0.12714409828186035
sS'comp_time'
p210
F7.390975952148438e-05
sS'exec_cq'
p211
I2
sS'total_cq'
p212
I11
sa(dp213
g208
I27
sg209
F0.05864095687866211
sg210
F7.295608520507812e-05
sg211
I2
sg212
I7
sa(dp214
g208
I22
sg209
F0.03905606269836426
sg210
F6.699562072753906e-05
sg211
I2
sg212
I6
sasS'total_cqs'
p215
I11
ssI16
(dp216
S'iters'
p217
I1
sS'meta'
p218
(lp219
(dp220
S'objective'
p221
I26
sS'query_time'
p222
F0.011047124862670898
sS'comp_time'
p223
F5.793571472167969e-05
sS'exec_cq'
p224
I4
sS'total_cq'
p225
I8
sasS'total_cqs'
p226
I8
ssI17
(dp227
S'iters'
p228
I3
sS'meta'
p229
(lp230
(dp231
S'objective'
p232
I0
sS'query_time'
p233
F0.04152989387512207
sS'comp_time'
p234
F4.100799560546875e-05
sS'exec_cq'
p235
I1
sS'total_cq'
p236
I11
sa(dp237
g232
I17
sg233
F0.01632404327392578
sg234
F4.315376281738281e-05
sg235
I1
sg236
I7
sa(dp238
g232
I11
sg233
F0.02299809455871582
sg234
F6.914138793945312e-05
sg235
I1
sg236
I6
sasS'total_cqs'
p239
I11
ssI18
(dp240
S'iters'
p241
I4
sS'meta'
p242
(lp243
(dp244
S'objective'
p245
I44
sS'query_time'
p246
F0.038803815841674805
sS'comp_time'
p247
F7.390975952148438e-05
sS'exec_cq'
p248
I1
sS'total_cq'
p249
I11
sa(dp250
g245
I31
sg246
F0.02978205680847168
sg247
F9.512901306152344e-05
sg248
I1
sg249
I10
sa(dp251
g245
I25
sg246
F0.028172969818115234
sg247
F7.295608520507812e-05
sg248
I1
sg249
I8
sa(dp252
g245
I20
sg246
F0.027872085571289062
sg247
F6.699562072753906e-05
sg248
I2
sg249
I7
sasS'total_cqs'
p253
I11
ssI19
(dp254
S'iters'
p255
I0
sS'meta'
p256
(lp257
sS'total_cqs'
p258
I1
ssI20
(dp259
S'iters'
p260
I0
sS'meta'
p261
(lp262
sS'total_cqs'
p263
I1
ssI21
(dp264
S'iters'
p265
I0
sS'meta'
p266
(lp267
sS'total_cqs'
p268
I1
ssI22
(dp269
S'iters'
p270
I1
sS'meta'
p271
(lp272
(dp273
S'objective'
p274
I151
sS'query_time'
p275
F0.021064043045043945
sS'comp_time'
p276
F6.29425048828125e-05
sS'exec_cq'
p277
I9
sS'total_cq'
p278
I18
sasS'total_cqs'
p279
I18
ssI23
(dp280
S'iters'
p281
I3
sS'meta'
p282
(lp283
(dp284
S'objective'
p285
I106
sS'query_time'
p286
F0.012748003005981445
sS'comp_time'
p287
F4.1961669921875e-05
sS'exec_cq'
p288
I3
sS'total_cq'
p289
I16
sa(dp290
g285
I99
sg286
F0.02166008949279785
sg287
F6.914138793945312e-05
sg288
I5
sg289
I14
sa(dp291
g285
I92
sg286
F0.028139114379882812
sg287
F7.796287536621094e-05
sg288
I6
sg289
I13
sasS'total_cqs'
p292
I16
ssI24
(dp293
S'iters'
p294
I0
sS'meta'
p295
(lp296
sS'total_cqs'
p297
I1
ssI25
(dp298
S'iters'
p299
I0
sS'meta'
p300
(lp301
sS'total_cqs'
p302
I1
ssI26
(dp303
S'iters'
p304
I1
sS'meta'
p305
(lp306
(dp307
S'objective'
p308
I859
sS'query_time'
p309
F0.06945109367370605
sS'comp_time'
p310
F8.416175842285156e-05
sS'exec_cq'
p311
I21
sS'total_cq'
p312
I42
sasS'total_cqs'
p313
I42
ssI27
(dp314
S'iters'
p315
I4
sS'meta'
p316
(lp317
(dp318
S'objective'
p319
I411
sS'query_time'
p320
F9.690057039260864
sS'comp_time'
p321
F0.00017404556274414062
sS'exec_cq'
p322
I4
sS'total_cq'
p323
I30
sa(dp324
g319
I386
sg320
F1.4900469779968262
sg321
F7.796287536621094e-05
sg322
I4
sg323
I29
sa(dp325
g319
I372
sg320
F3.193096876144409
sg321
F0.0005869865417480469
sg322
I9
sg323
I28
sa(dp326
g319
I360
sg320
F2.643275022506714
sg321
F7.796287536621094e-05
sg322
I12
sg323
I27
sasS'total_cqs'
p327
I30
ssI28
(dp328
S'iters'
p329
I0
sS'meta'
p330
(lp331
sS'total_cqs'
p332
I1
ssI29
(dp333
S'iters'
p334
I13
sS'meta'
p335
(lp336
(dp337
S'objective'
p338
I1127
sS'query_time'
p339
F2.7849419116973877
sS'comp_time'
p340
F0.0013380050659179688
sS'exec_cq'
p341
I1
sS'total_cq'
p342
I49
sa(dp343
g338
I942
sg339
F0.6339211463928223
sg340
F0.00010204315185546875
sg341
I1
sg342
I48
sa(dp344
g338
I965
sg339
F24.52705192565918
sg340
F0.00015306472778320312
sg341
I1
sg342
I44
sa(dp345
g338
I852
sg339
F0.2648019790649414
sg340
F7.891654968261719e-05
sg341
I1
sg342
I43
sa(dp346
g338
I842
sg339
F0.05610299110412598
sg340
F9.202957153320312e-05
sg341
I1
sg342
I40
sa(dp347
g338
I691
sg339
F1.5469999313354492
sg340
F0.0005230903625488281
sg341
I1
sg342
I39
sa(dp348
g338
I703
sg339
F1.5863761901855469
sg340
F6.508827209472656e-05
sg341
I1
sg342
I36
sa(dp349
g338
I628
sg339
F0.188277006149292
sg340
F0.00011086463928222656
sg341
I1
sg342
I35
sa(dp350
g338
I607
sg339
F25.325555086135864
sg340
F0.0003960132598876953
sg341
I1
sg342
I33
sa(dp351
g338
I231
sg339
F0.506878137588501
sg340
F0.00015497207641601562
sg341
I1
sg342
I32
sa(dp352
g338
I130
sg339
F0.13155484199523926
sg340
F3.504753112792969e-05
sg341
I1
sg342
I9
sa(dp353
g338
I27
sg339
F0.4917168617248535
sg340
F0.0004999637603759766
sg341
I1
sg342
I8
sa(dp354
g338
I46
sg339
F0.16549181938171387
sg340
F6.604194641113281e-05
sg341
I1
sg342
I6
sasS'total_cqs'
p355
I49
ssI30
(dp356
S'iters'
p357
I1
sS'meta'
p358
(lp359
(dp360
S'objective'
p361
I1
sS'query_time'
p362
F0.7386560440063477
sS'comp_time'
p363
F8.487701416015625e-05
sS'exec_cq'
p364
I1
sS'total_cq'
p365
I2
sasS'total_cqs'
p366
I2
ssI31
(dp367
S'iters'
p368
I0
sS'meta'
p369
(lp370
sS'total_cqs'
p371
I1
ssI32
(dp372
S'iters'
p373
I1
sS'meta'
p374
(lp375
(dp376
S'objective'
p377
I1
sS'query_time'
p378
F0.008159875869750977
sS'comp_time'
p379
F4.601478576660156e-05
sS'exec_cq'
p380
I1
sS'total_cq'
p381
I2
sasS'total_cqs'
p382
I2
ssI33
(dp383
S'iters'
p384
I16
sS'meta'
p385
(lp386
(dp387
S'objective'
p388
I5132
sS'query_time'
p389
F2.517216920852661
sS'comp_time'
p390
F0.00013303756713867188
sS'exec_cq'
p391
I3
sS'total_cq'
p392
I103
sa(dp393
g388
I5044
sg389
F0.35732007026672363
sg390
F9.584426879882812e-05
sg391
I3
sg392
I101
sa(dp394
g388
I4946
sg389
F0.7697250843048096
sg390
F0.000125885009765625
sg391
I3
sg392
I100
sa(dp395
g388
I4731
sg389
F0.7707700729370117
sg390
F0.00013303756713867188
sg391
I8
sg392
I99
sa(dp396
g388
I4704
sg389
F0.3864901065826416
sg390
F0.00013494491577148438
sg391
I8
sg392
I97
sa(dp397
g388
I4618
sg389
F0.5911359786987305
sg390
F0.00012087821960449219
sg391
I10
sg392
I96
sa(dp398
g388
I4405
sg389
F1.311763048171997
sg390
F0.00013589859008789062
sg391
I15
sg392
I95
sa(dp399
g388
I4216
sg389
F0.6483619213104248
sg390
F0.00015616416931152344
sg391
I16
sg392
I93
sa(dp400
g388
I4230
sg389
F0.6566569805145264
sg390
F0.00014019012451171875
sg391
I18
sg392
I90
sa(dp401
g388
I4166
sg389
F0.9754881858825684
sg390
F0.0008420944213867188
sg391
I24
sg392
I89
sa(dp402
g388
I4099
sg389
F1.0424869060516357
sg390
F0.0001399517059326172
sg391
I25
sg392
I88
sa(dp403
g388
I3872
sg389
F0.6665968894958496
sg390
F0.00013899803161621094
sg391
I27
sg392
I87
sa(dp404
g388
I3814
sg389
F0.3370630741119385
sg390
F0.00011897087097167969
sg391
I30
sg392
I83
sa(dp405
g388
I3745
sg389
F0.24024581909179688
sg390
F0.00013709068298339844
sg391
I30
sg392
I80
sa(dp406
g388
I3643
sg389
F0.26559901237487793
sg390
F0.00013208389282226562
sg391
I34
sg392
I78
sa(dp407
g388
I12
sg389
F0.0222470760345459
sg390
F4.601478576660156e-05
sg391
I1
sg392
I2
sasS'total_cqs'
p408
I103
ssI34
(dp409
S'iters'
p410
I1
sS'meta'
p411
(lp412
(dp413
S'objective'
p414
I1
sS'query_time'
p415
F0.013090133666992188
sS'comp_time'
p416
F0.00028896331787109375
sS'exec_cq'
p417
I1
sS'total_cq'
p418
I2
sasS'total_cqs'
p419
I2
ssI35
(dp420
S'iters'
p421
I9
sS'meta'
p422
(lp423
(dp424
S'objective'
p425
I2243
sS'query_time'
p426
F20.094755172729492
sS'comp_time'
p427
F0.00017213821411132812
sS'exec_cq'
p428
I2
sS'total_cq'
p429
I70
sa(dp430
g425
I2076
sg426
F0.3477897644042969
sg427
F0.0001220703125
sg428
I2
sg429
I68
sa(dp431
g425
I1994
sg426
F23.884867191314697
sg427
F0.00011801719665527344
sg428
I2
sg429
I64
sa(dp432
g425
I1773
sg426
F1.604546070098877
sg427
F0.00020813941955566406
sg428
I2
sg429
I62
sa(dp433
g425
I1810
sg426
F23.990092992782593
sg427
F0.00034689903259277344
sg428
I2
sg429
I59
sa(dp434
g425
I1543
sg426
F2.739048957824707
sg427
F0.0001819133758544922
sg428
I2
sg429
I58
sa(dp435
g425
I1411
sg426
F0.7149510383605957
sg427
F0.000164031982421875
sg428
I3
sg429
I55
sa(dp436
g425
I25
sg426
F0.02454996109008789
sg427
F4.601478576660156e-05
sg428
I1
sg429
I3
sa(dp437
g425
I15
sg426
F0.32134008407592773
sg427
F0.00010514259338378906
sg428
I1
sg429
I2
sasS'total_cqs'
p438
I70
ssI36
(dp439
S'iters'
p440
I4
sS'meta'
p441
(lp442
(dp443
S'objective'
p444
I495
sS'query_time'
p445
F0.09778094291687012
sS'comp_time'
p446
F0.000286102294921875
sS'exec_cq'
p447
I1
sS'total_cq'
p448
I33
sa(dp449
g444
I468
sg445
F0.09145092964172363
sg446
F8.988380432128906e-05
sg447
I3
sg448
I32
sa(dp450
g444
I426
sg445
F0.06374216079711914
sg446
F9.512901306152344e-05
sg447
I11
sg448
I31
sa(dp451
g444
I426
sg445
F0.044512033462524414
sg446
F9.989738464355469e-05
sg447
I13
sg448
I28
sasS'total_cqs'
p452
I33
ssI37
(dp453
S'iters'
p454
I1
sS'meta'
p455
(lp456
(dp457
S'objective'
p458
I1
sS'query_time'
p459
F0.007455110549926758
sS'comp_time'
p460
F5.2928924560546875e-05
sS'exec_cq'
p461
I1
sS'total_cq'
p462
I2
sasS'total_cqs'
p463
I2
ssI38
(dp464
S'iters'
p465
I3
sS'meta'
p466
(lp467
(dp468
S'objective'
p469
I8
sS'query_time'
p470
F0.009083986282348633
sS'comp_time'
p471
F5.0067901611328125e-05
sS'exec_cq'
p472
I1
sS'total_cq'
p473
I4
sa(dp474
g469
I5
sg470
F0.002933979034423828
sg471
F3.504753112792969e-05
sg472
I1
sg473
I3
sa(dp475
g469
I1
sg470
F0.003010988235473633
sg471
F2.5987625122070312e-05
sg472
I1
sg473
I2
sasS'total_cqs'
p476
I4
ssI39
(dp477
S'iters'
p478
I5
sS'meta'
p479
(lp480
(dp481
S'objective'
p482
I600
sS'query_time'
p483
F0.05759596824645996
sS'comp_time'
p484
F6.413459777832031e-05
sS'exec_cq'
p485
I4
sS'total_cq'
p486
I44
sa(dp487
g482
I113
sg483
F0.018507003784179688
sg484
F4.7206878662109375e-05
sg485
I2
sg486
I8
sa(dp488
g482
I74
sg483
F0.02031993865966797
sg484
F4.291534423828125e-05
sg485
I2
sg486
I7
sa(dp489
g482
I52
sg483
F0.015658140182495117
sg484
F4.00543212890625e-05
sg485
I2
sg486
I6
sa(dp490
g482
I37
sg483
F0.039816856384277344
sg484
F7.200241088867188e-05
sg485
I2
sg486
I5
sasS'total_cqs'
p491
I44
ssI40
(dp492
S'iters'
p493
I1
sS'meta'
p494
(lp495
(dp496
S'objective'
p497
I18
sS'query_time'
p498
F0.01976490020751953
sS'comp_time'
p499
F5.984306335449219e-05
sS'exec_cq'
p500
I3
sS'total_cq'
p501
I7
sasS'total_cqs'
p502
I7
ssI41
(dp503
S'iters'
p504
I1
sS'meta'
p505
(lp506
(dp507
S'objective'
p508
I64
sS'query_time'
p509
F0.04780077934265137
sS'comp_time'
p510
F6.29425048828125e-05
sS'exec_cq'
p511
I6
sS'total_cq'
p512
I12
sasS'total_cqs'
p513
I12
ssI42
(dp514
S'iters'
p515
I2
sS'meta'
p516
(lp517
(dp518
S'objective'
p519
I801
sS'query_time'
p520
F0.03930401802062988
sS'comp_time'
p521
F8.916854858398438e-05
sS'exec_cq'
p522
I12
sS'total_cq'
p523
I41
sa(dp524
g519
I787
sg520
F0.020879030227661133
sg521
F6.818771362304688e-05
sg522
I19
sg523
I40
sasS'total_cqs'
p525
I41
ssI43
(dp526
S'iters'
p527
I1
sS'meta'
p528
(lp529
(dp530
S'objective'
p531
I18
sS'query_time'
p532
F0.021615982055664062
sS'comp_time'
p533
F6.818771362304688e-05
sS'exec_cq'
p534
I3
sS'total_cq'
p535
I7
sasS'total_cqs'
p536
I7
ssI44
(dp537
S'iters'
p538
I3
sS'meta'
p539
(lp540
(dp541
S'objective'
p542
I1038
sS'query_time'
p543
F0.06188511848449707
sS'comp_time'
p544
F0.00010418891906738281
sS'exec_cq'
p545
I3
sS'total_cq'
p546
I47
sa(dp547
g542
I763
sg543
F0.04280400276184082
sg544
F5.91278076171875e-05
sg545
I4
sg546
I46
sa(dp548
g542
I873
sg543
F0.03642010688781738
sg544
F9.608268737792969e-05
sg545
I19
sg546
I39
sasS'total_cqs'
p549
I47
ssI45
(dp550
S'iters'
p551
I0
sS'meta'
p552
(lp553
sS'total_cqs'
p554
I1
ssI46
(dp555
S'iters'
p556
I2
sS'meta'
p557
(lp558
(dp559
S'objective'
p560
I11
sS'query_time'
p561
F0.014010906219482422
sS'comp_time'
p562
F6.699562072753906e-05
sS'exec_cq'
p563
I2
sS'total_cq'
p564
I6
sa(dp565
g560
I8
sg561
F0.0032379627227783203
sg562
F5.1975250244140625e-05
sg563
I2
sg564
I5
sasS'total_cqs'
p566
I6
ssI47
(dp567
S'iters'
p568
I1
sS'meta'
p569
(lp570
(dp571
S'objective'
p572
I1
sS'query_time'
p573
F0.007907867431640625
sS'comp_time'
p574
F6.4849853515625e-05
sS'exec_cq'
p575
I1
sS'total_cq'
p576
I2
sasS'total_cqs'
p577
I2
ssI48
(dp578
S'iters'
p579
I0
sS'meta'
p580
(lp581
sS'total_cqs'
p582
I1
ssI49
(dp583
S'iters'
p584
I0
sS'meta'
p585
(lp586
sS'total_cqs'
p587
I1
ssI50
(dp588
S'iters'
p589
I2
sS'meta'
p590
(lp591
(dp592
S'objective'
p593
I5
sS'query_time'
p594
F0.004942893981933594
sS'comp_time'
p595
F4.1961669921875e-05
sS'exec_cq'
p596
I1
sS'total_cq'
p597
I5
sa(dp598
g593
I2
sg594
F0.0031518936157226562
sg595
F3.4809112548828125e-05
sg596
I1
sg597
I4
sasS'total_cqs'
p599
I5
ssI51
(dp600
S'iters'
p601
I1
sS'meta'
p602
(lp603
(dp604
S'objective'
p605
I1
sS'query_time'
p606
F0.0049321651458740234
sS'comp_time'
p607
F4.100799560546875e-05
sS'exec_cq'
p608
I1
sS'total_cq'
p609
I2
sasS'total_cqs'
p610
I2
ssI52
(dp611
S'iters'
p612
I1
sS'meta'
p613
(lp614
(dp615
S'objective'
p616
I1
sS'query_time'
p617
F0.0056459903717041016
sS'comp_time'
p618
F4.9114227294921875e-05
sS'exec_cq'
p619
I1
sS'total_cq'
p620
I2
sasS'total_cqs'
p621
I2
ssI53
(dp622
S'iters'
p623
I2
sS'meta'
p624
(lp625
(dp626
S'objective'
p627
I4
sS'query_time'
p628
F0.009500980377197266
sS'comp_time'
p629
F6.198883056640625e-05
sS'exec_cq'
p630
I1
sS'total_cq'
p631
I4
sa(dp632
g627
I1
sg628
F0.0035889148712158203
sg629
F3.2901763916015625e-05
sg630
I1
sg631
I2
sasS'total_cqs'
p633
I4
ssI54
(dp634
S'iters'
p635
I1
sS'meta'
p636
(lp637
(dp638
S'objective'
p639
I0
sS'query_time'
p640
F0.013250112533569336
sS'comp_time'
p641
F7.295608520507812e-05
sS'exec_cq'
p642
I1
sS'total_cq'
p643
I3
sasS'total_cqs'
p644
I3
ssI55
(dp645
S'iters'
p646
I13
sS'meta'
p647
(lp648
(dp649
S'objective'
p650
I5777
sS'query_time'
p651
F0.2589409351348877
sS'comp_time'
p652
F0.00011801719665527344
sS'exec_cq'
p653
I1
sS'total_cq'
p654
I109
sa(dp655
g650
I5478
sg651
F0.4054551124572754
sg652
F0.0001399517059326172
sg653
I1
sg654
I108
sa(dp656
g650
I5052
sg651
F0.33005213737487793
sg652
F0.00012493133544921875
sg653
I3
sg654
I105
sa(dp657
g650
I5039
sg651
F0.30812597274780273
sg652
F0.00011515617370605469
sg653
I5
sg654
I100
sa(dp658
g650
I4935
sg651
F0.1543869972229004
sg652
F0.00011205673217773438
sg653
I9
sg654
I97
sa(dp659
g650
I4887
sg651
F0.12559199333190918
sg652
F0.0001239776611328125
sg653
I14
sg654
I95
sa(dp660
g650
I4686
sg651
F0.1313028335571289
sg652
F0.00012111663818359375
sg653
I24
sg654
I94
sa(dp661
g650
I4688
sg651
F0.09612178802490234
sg652
F9.202957153320312e-05
sg653
I28
sg654
I92
sa(dp662
g650
I4582
sg651
F0.09532499313354492
sg652
F7.605552673339844e-05
sg653
I29
sg654
I91
sa(dp663
g650
I4489
sg651
F0.14398622512817383
sg652
F9.989738464355469e-05
sg653
I29
sg654
I89
sa(dp664
g650
I4444
sg651
F0.16806983947753906
sg652
F0.00012421607971191406
sg653
I33
sg654
I87
sa(dp665
g650
I4226
sg651
F0.12113499641418457
sg652
F0.00023317337036132812
sg653
I35
sg654
I85
sa(dp666
g650
I4257
sg651
F0.1051478385925293
sg652
F9.107589721679688e-05
sg653
I38
sg654
I81
sasS'total_cqs'
p667
I109
ssI56
(dp668
S'iters'
p669
I9
sS'meta'
p670
(lp671
(dp672
S'objective'
p673
I1902
sS'query_time'
p674
F0.3711669445037842
sS'comp_time'
p675
F0.00011610984802246094
sS'exec_cq'
p676
I1
sS'total_cq'
p677
I76
sa(dp678
g673
I2098
sg674
F0.3846628665924072
sg675
F0.00012493133544921875
sg676
I1
sg677
I67
sa(dp679
g673
I2130
sg674
F0.2475419044494629
sg675
F0.00010991096496582031
sg676
I8
sg677
I64
sa(dp680
g673
I1995
sg674
F0.1698451042175293
sg675
F0.00010609626770019531
sg676
I8
sg677
I63
sa(dp681
g673
I1978
sg674
F0.42019104957580566
sg675
F0.00011205673217773438
sg676
I10
sg677
I61
sa(dp682
g673
I1922
sg674
F0.14101815223693848
sg675
F0.0001609325408935547
sg676
I10
sg677
I60
sa(dp683
g673
I1793
sg674
F0.15435791015625
sg675
F7.700920104980469e-05
sg676
I12
sg677
I59
sa(dp684
g673
I1798
sg674
F0.14364314079284668
sg675
F7.891654968261719e-05
sg676
I19
sg677
I56
sa(dp685
g673
I1764
sg674
F0.07383203506469727
sg675
F7.605552673339844e-05
sg676
I23
sg677
I55
sasS'total_cqs'
p686
I76
ssI57
(dp687
S'iters'
p688
I7
sS'meta'
p689
(lp690
(dp691
S'objective'
p692
I1000
sS'query_time'
p693
F1.3412988185882568
sS'comp_time'
p694
F8.916854858398438e-05
sS'exec_cq'
p695
I2
sS'total_cq'
p696
I51
sa(dp697
g692
I869
sg693
F2.3279271125793457
sg694
F0.0001049041748046875
sg695
I2
sg696
I47
sa(dp698
g692
I920
sg693
F0.028077125549316406
sg694
F4.792213439941406e-05
sg695
I2
sg696
I41
sa(dp699
g692
I694
sg693
F0.5600090026855469
sg694
F0.00011396408081054688
sg695
I2
sg696
I40
sa(dp700
g692
I115
sg693
F0.05316591262817383
sg694
F3.409385681152344e-05
sg695
I1
sg696
I5
sa(dp701
g692
I34
sg693
F0.05209684371948242
sg694
F3.695487976074219e-05
sg695
I1
sg696
I4
sa(dp702
g692
I26
sg693
F4.535046100616455
sg694
F0.0002028942108154297
sg695
I1
sg696
I3
sasS'total_cqs'
p703
I51
ssI58
(dp704
S'iters'
p705
I16
sS'meta'
p706
(lp707
(dp708
S'objective'
p709
I116343
sS'query_time'
p710
F2.992112159729004
sS'comp_time'
p711
F0.0005931854248046875
sS'exec_cq'
p712
I3
sS'total_cq'
p713
I486
sa(dp714
g709
I110526
sg710
F12.102671146392822
sg711
F0.0003440380096435547
sg712
I3
sg713
I482
sa(dp715
g709
I109888
sg710
F5.5575971603393555
sg711
F0.0024340152740478516
sg712
I3
sg713
I470
sa(dp716
g709
I110287
sg710
F1.5996348857879639
sg711
F0.0002510547637939453
sg712
I4
sg713
I461
sa(dp717
g709
I109657
sg710
F3.4112250804901123
sg711
F0.00033402442932128906
sg712
I5
sg713
I459
sa(dp718
g709
I109426
sg710
F5.875773906707764
sg711
F0.00029587745666503906
sg712
I5
sg713
I456
sa(dp719
g709
I105208
sg710
F2.0159449577331543
sg711
F0.0003161430358886719
sg712
I5
sg713
I455
sa(dp720
g709
I104427
sg710
F4.41709303855896
sg711
F0.00046706199645996094
sg712
I6
sg713
I446
sa(dp721
g709
I104151
sg710
F2.8104429244995117
sg711
F0.00026488304138183594
sg712
I6
sg713
I441
sa(dp722
g709
I104131
sg710
F0.6977090835571289
sg711
F0.0004439353942871094
sg712
I7
sg713
I436
sa(dp723
g709
I103663
sg710
F2.081490993499756
sg711
F0.00030684471130371094
sg712
I7
sg713
I435
sa(dp724
g709
I103002
sg710
F0.5394868850708008
sg711
F0.00030493736267089844
sg712
I7
sg713
I434
sa(dp725
g709
I91801
sg710
F1.8684818744659424
sg711
F0.00037097930908203125
sg712
I7
sg713
I432
sa(dp726
g709
I96758
sg710
F0.6313450336456299
sg711
F0.00025010108947753906
sg712
I10
sg713
I407
sa(dp727
g709
I95083
sg710
F1.5180859565734863
sg711
F0.0002999305725097656
sg712
I11
sg713
I406
sa(dp728
g709
I581
sg710
F0.08607101440429688
sg711
F2.5033950805664062e-05
sg712
I1
sg713
I4
sasS'total_cqs'
p729
I486
ssI59
(dp730
S'iters'
p731
I2
sS'meta'
p732
(lp733
(dp734
S'objective'
p735
I14
sS'query_time'
p736
F0.034934043884277344
sS'comp_time'
p737
F7.295608520507812e-05
sS'exec_cq'
p738
I1
sS'total_cq'
p739
I7
sa(dp740
g735
I11
sg736
F0.013910055160522461
sg737
F5.602836608886719e-05
sg738
I2
sg739
I6
sasS'total_cqs'
p741
I7
ssI60
(dp742
S'iters'
p743
I1
sS'meta'
p744
(lp745
(dp746
S'objective'
p747
I7
sS'query_time'
p748
F0.007249116897583008
sS'comp_time'
p749
F5.602836608886719e-05
sS'exec_cq'
p750
I2
sS'total_cq'
p751
I5
sasS'total_cqs'
p752
I5
ssI61
(dp753
S'iters'
p754
I0
sS'meta'
p755
(lp756
sS'total_cqs'
p757
I1
ssI62
(dp758
S'iters'
p759
I3
sS'meta'
p760
(lp761
(dp762
S'objective'
p763
I54
sS'query_time'
p764
F0.025471925735473633
sS'comp_time'
p765
F5.888938903808594e-05
sS'exec_cq'
p766
I1
sS'total_cq'
p767
I12
sa(dp768
g763
I44
sg764
F0.019572019577026367
sg765
F5.078315734863281e-05
sg766
I1
sg767
I11
sa(dp769
g763
I41
sg764
F0.03151202201843262
sg765
F6.008148193359375e-05
sg766
I4
sg767
I10
sasS'total_cqs'
p770
I12
ssI63
(dp771
S'iters'
p772
I0
sS'meta'
p773
(lp774
sS'total_cqs'
p775
I1
ssI64
(dp776
S'iters'
p777
I6
sS'meta'
p778
(lp779
(dp780
S'objective'
p781
I54
sS'query_time'
p782
F0.04376506805419922
sS'comp_time'
p783
F6.794929504394531e-05
sS'exec_cq'
p784
I1
sS'total_cq'
p785
I12
sa(dp786
g781
I44
sg782
F0.0698997974395752
sg783
F6.699562072753906e-05
sg784
I1
sg785
I11
sa(dp787
g781
I37
sg782
F0.028289079666137695
sg783
F5.0067901611328125e-05
sg784
I2
sg785
I10
sa(dp788
g781
I14
sg782
F0.020498037338256836
sg783
F3.600120544433594e-05
sg784
I2
sg785
I9
sa(dp789
g781
I0
sg782
F0.00489497184753418
sg783
F4.00543212890625e-05
sg784
I1
sg785
I3
sa(dp790
g781
I6
sg782
F0.003709077835083008
sg783
F4.38690185546875e-05
sg784
I1
sg785
I2
sasS'total_cqs'
p791
I12
ssI65
(dp792
S'iters'
p793
I2
sS'meta'
p794
(lp795
(dp796
S'objective'
p797
I294
sS'query_time'
p798
F0.02669978141784668
sS'comp_time'
p799
F5.602836608886719e-05
sS'exec_cq'
p800
I1
sS'total_cq'
p801
I27
sa(dp802
g797
I12
sg798
F0.004808902740478516
sg799
F5.0067901611328125e-05
sg800
I2
sg801
I2
sasS'total_cqs'
p803
I27
ssI66
(dp804
S'iters'
p805
I0
sS'meta'
p806
(lp807
sS'total_cqs'
p808
I1
ssI67
(dp809
S'iters'
p810
I1
sS'meta'
p811
(lp812
(dp813
S'objective'
p814
I592
sS'query_time'
p815
F0.6792430877685547
sS'comp_time'
p816
F7.82012939453125e-05
sS'exec_cq'
p817
I17
sS'total_cq'
p818
I35
sasS'total_cqs'
p819
I35
ssI68
(dp820
S'iters'
p821
I0
sS'meta'
p822
(lp823
sS'total_cqs'
p824
I1
ssI69
(dp825
S'iters'
p826
I1
sS'meta'
p827
(lp828
(dp829
S'objective'
p830
I1272
sS'query_time'
p831
F0.10383200645446777
sS'comp_time'
p832
F8.797645568847656e-05
sS'exec_cq'
p833
I25
sS'total_cq'
p834
I51
sasS'total_cqs'
p835
I51
ssI70
(dp836
S'iters'
p837
I2
sS'meta'
p838
(lp839
(dp840
S'objective'
p841
I9
sS'query_time'
p842
F0.007992982864379883
sS'comp_time'
p843
F4.792213439941406e-05
sS'exec_cq'
p844
I1
sS'total_cq'
p845
I6
sa(dp846
g841
I7
sg842
F0.008862972259521484
sg843
F4.601478576660156e-05
sg844
I2
sg845
I5
sasS'total_cqs'
p847
I6
ssI71
(dp848
S'iters'
p849
I2
sS'meta'
p850
(lp851
(dp852
S'objective'
p853
I3339
sS'query_time'
p854
F0.10536503791809082
sS'comp_time'
p855
F0.00010585784912109375
sS'exec_cq'
p856
I7
sS'total_cq'
p857
I85
sa(dp858
g853
I70
sg854
F0.007611989974975586
sg855
F3.600120544433594e-05
sg856
I2
sg857
I3
sasS'total_cqs'
p859
I85
ssI72
(dp860
S'iters'
p861
I3
sS'meta'
p862
(lp863
(dp864
S'objective'
p865
I6
sS'query_time'
p866
F0.010624885559082031
sS'comp_time'
p867
F4.887580871582031e-05
sS'exec_cq'
p868
I1
sS'total_cq'
p869
I8
sa(dp870
g865
I5
sg866
F0.057897090911865234
sg867
F4.076957702636719e-05
sg868
I1
sg869
I5
sa(dp871
g865
I2
sg866
F0.005686044692993164
sg867
F4.291534423828125e-05
sg868
I1
sg869
I3
sasS'total_cqs'
p872
I8
ssI73
(dp873
S'iters'
p874
I0
sS'meta'
p875
(lp876
sS'total_cqs'
p877
I1
ssI74
(dp878
S'iters'
p879
I0
sS'meta'
p880
(lp881
sS'total_cqs'
p882
I1
ssI75
(dp883
S'iters'
p884
I2
sS'meta'
p885
(lp886
(dp887
S'objective'
p888
I5
sS'query_time'
p889
F0.004708051681518555
sS'comp_time'
p890
F4.291534423828125e-05
sS'exec_cq'
p891
I1
sS'total_cq'
p892
I5
sa(dp893
g888
I2
sg889
F0.002847909927368164
sg890
F3.2901763916015625e-05
sg891
I1
sg892
I4
sasS'total_cqs'
p894
I5
ssI76
(dp895
S'iters'
p896
I1
sS'meta'
p897
(lp898
(dp899
S'objective'
p900
I1
sS'query_time'
p901
F0.011210918426513672
sS'comp_time'
p902
F5.1021575927734375e-05
sS'exec_cq'
p903
I1
sS'total_cq'
p904
I2
sasS'total_cqs'
p905
I2
ssI77
(dp906
S'iters'
p907
I0
sS'meta'
p908
(lp909
sS'total_cqs'
p910
I1
ssI78
(dp911
S'iters'
p912
I0
sS'meta'
p913
(lp914
sS'total_cqs'
p915
I1
ssI103
(dp916
S'iters'
p917
I1
sS'meta'
p918
(lp919
(dp920
S'objective'
p921
I64
sS'query_time'
p922
F0.0499730110168457
sS'comp_time'
p923
F6.699562072753906e-05
sS'exec_cq'
p924
I6
sS'total_cq'
p925
I12
sasS'total_cqs'
p926
I12
ssI104
(dp927
S'iters'
p928
I2
sS'meta'
p929
(lp930
(dp931
S'objective'
p932
I2
sS'query_time'
p933
F0.2553379535675049
sS'comp_time'
p934
F5.602836608886719e-05
sS'exec_cq'
p935
I1
sS'total_cq'
p936
I4
sa(dp937
g932
I0
sg933
F1.2755131721496582
sg934
F5.698204040527344e-05
sg935
I1
sg936
I3
sasS'total_cqs'
p938
I4
ssI105
(dp939
S'iters'
p940
I0
sS'meta'
p941
(lp942
sS'total_cqs'
p943
I1
ssI106
(dp944
S'iters'
p945
I1
sS'meta'
p946
(lp947
(dp948
S'objective'
p949
I4
sS'query_time'
p950
F0.017605066299438477
sS'comp_time'
p951
F6.985664367675781e-05
sS'exec_cq'
p952
I2
sS'total_cq'
p953
I4
sasS'total_cqs'
p954
I4
ssI107
(dp955
S'iters'
p956
I3
sS'meta'
p957
(lp958
(dp959
S'objective'
p960
I104
sS'query_time'
p961
F0.07635903358459473
sS'comp_time'
p962
F8.20159912109375e-05
sS'exec_cq'
p963
I1
sS'total_cq'
p964
I16
sa(dp965
g960
I92
sg961
F0.02205681800842285
sg962
F5.0067901611328125e-05
sg963
I2
sg964
I15
sa(dp966
g960
I88
sg961
F0.03879404067993164
sg962
F6.29425048828125e-05
sg963
I6
sg964
I14
sasS'total_cqs'
p967
I16
ssI108
(dp968
S'iters'
p969
I0
sS'meta'
p970
(lp971
sS'total_cqs'
p972
I1
ss.