(dp0
I1
(dp1
S'iters'
p2
I3
sS'meta'
p3
(lp4
(dp5
S'objective'
p6
I60
sS'query_time'
p7
F0.05199289321899414
sS'comp_time'
p8
F0.0205538272857666
sS'exec_cq'
p9
I12
sS'total_cq'
p10
I12
sa(dp11
g6
I61
sg7
F8.296966552734375e-05
sg8
F0.0002789497375488281
sg9
I11
sg10
I11
sa(dp12
g6
I57
sg7
F7.605552673339844e-05
sg8
F0.0001690387725830078
sg9
I9
sg10
I9
sasS'total_cqs'
p13
I12
ssI2
(dp14
S'iters'
p15
I8
sS'meta'
p16
(lp17
(dp18
S'objective'
p19
I266
sS'query_time'
p20
F0.1904449462890625
sS'comp_time'
p21
F0.033796072006225586
sS'exec_cq'
p22
I27
sS'total_cq'
p23
I27
sa(dp24
g19
I226
sg20
F0.00021409988403320312
sg21
F0.0008666515350341797
sg22
I23
sg23
I23
sa(dp25
g19
I204
sg20
F0.00011968612670898438
sg21
F0.0004050731658935547
sg22
I20
sg23
I20
sa(dp26
g19
I189
sg20
F0.00010395050048828125
sg21
F0.00032806396484375
sg22
I18
sg23
I18
sa(dp27
g19
I178
sg20
F9.393692016601562e-05
sg21
F0.0002601146697998047
sg22
I17
sg23
I17
sa(dp28
g19
I164
sg20
F7.510185241699219e-05
sg21
F0.00024890899658203125
sg22
I16
sg23
I16
sa(dp29
g19
I148
sg20
F6.29425048828125e-05
sg21
F0.0001373291015625
sg22
I14
sg23
I14
sa(dp30
g19
I148
sg20
F5.0067901611328125e-05
sg21
F8.082389831542969e-05
sg22
I13
sg23
I13
sasS'total_cqs'
p31
I27
ssI3
(dp32
S'iters'
p33
I4
sS'meta'
p34
(lp35
(dp36
S'objective'
p37
I594
sS'query_time'
p38
F187.57540583610535
sS'comp_time'
p39
F1.0872600078582764
sS'exec_cq'
p40
I30
sS'total_cq'
p41
I43
sa(dp42
g37
I474
sg38
F0.5528528690338135
sg39
F1.207801103591919
sg40
I22
sg41
I35
sa(dp43
g37
I576
sg38
F54.7977020740509
sg39
F0.43554067611694336
sg40
I28
sg41
I28
sa(dp44
g37
I575
sg38
F0.00035881996154785156
sg39
F0.00021910667419433594
sg40
I25
sg41
I25
sasS'total_cqs'
p45
I43
ssI4
(dp46
S'iters'
p47
I2
sS'meta'
p48
(lp49
(dp50
S'objective'
p51
I48
sS'query_time'
p52
F4.72653603553772
sS'comp_time'
p53
F0.323167085647583
sS'exec_cq'
p54
I11
sS'total_cq'
p55
I11
sa(dp56
g51
I1
sg52
F0.17548012733459473
sg53
F0.25626301765441895
sg54
I2
sg55
I2
sasS'total_cqs'
p57
I11
ssI5
(dp58
S'iters'
p59
I3
sS'meta'
p60
(lp61
(dp62
S'objective'
p63
I0
sS'query_time'
p64
F34.24756193161011
sS'comp_time'
p65
F1.460188865661621
sS'exec_cq'
p66
I8
sS'total_cq'
p67
I8
sa(dp68
g63
I0
sg64
F0.43146204948425293
sg65
F1.245164155960083
sg66
I4
sg67
I4
sa(dp69
g63
I3
sg64
F0.008573055267333984
sg65
F0.015261173248291016
sg66
I2
sg67
I2
sasS'total_cqs'
p70
I8
ssI6
(dp71
S'iters'
p72
I5
sS'meta'
p73
(lp74
(dp75
S'objective'
p76
I51
sS'query_time'
p77
F38.23200297355652
sS'comp_time'
p78
F1.5308988094329834
sS'exec_cq'
p79
I18
sS'total_cq'
p80
I18
sa(dp81
g76
I0
sg77
F0.6716430187225342
sg78
F14.44083571434021
sg79
I7
sg80
I7
sa(dp82
g76
I2
sg77
F0.10829806327819824
sg78
F0.5813751220703125
sg79
I4
sg80
I4
sa(dp83
g76
I0
sg77
F0.21124696731567383
sg78
F0.5091042518615723
sg79
I3
sg80
I3
sa(dp84
g76
I5
sg77
F0.20531702041625977
sg78
F0.5112276077270508
sg79
I2
sg80
I2
sasS'total_cqs'
p85
I18
ssI7
(dp86
S'iters'
p87
I4
sS'meta'
p88
(lp89
(dp90
S'objective'
p91
I1
sS'query_time'
p92
F12.552361011505127
sS'comp_time'
p93
F0.7568469047546387
sS'exec_cq'
p94
I9
sS'total_cq'
p95
I9
sa(dp96
g91
I0
sg92
F0.0972139835357666
sg93
F0.5254271030426025
sg94
I6
sg95
I6
sa(dp97
g91
I1
sg92
F0.00969696044921875
sg93
F0.019919872283935547
sg94
I3
sg95
I3
sa(dp98
g91
I2
sg92
F0.008634805679321289
sg93
F0.11971187591552734
sg94
I2
sg95
I2
sasS'total_cqs'
p99
I9
ssI8
(dp100
S'iters'
p101
I4
sS'meta'
p102
(lp103
(dp104
S'objective'
p105
I284
sS'query_time'
p106
F0.13073205947875977
sS'comp_time'
p107
F0.03550362586975098
sS'exec_cq'
p108
I27
sS'total_cq'
p109
I27
sa(dp110
g105
I255
sg106
F0.00017905235290527344
sg107
F0.0007104873657226562
sg108
I24
sg109
I24
sa(dp111
g105
I273
sg106
F7.486343383789062e-05
sg107
F0.00022459030151367188
sg108
I19
sg109
I19
sa(dp112
g105
I267
sg106
F6.794929504394531e-05
sg107
F0.00011324882507324219
sg108
I18
sg109
I18
sasS'total_cqs'
p113
I27
ssI9
(dp114
S'iters'
p115
I3
sS'meta'
p116
(lp117
(dp118
S'objective'
p119
I2
sS'query_time'
p120
F0.05414390563964844
sS'comp_time'
p121
F0.0047681331634521484
sS'exec_cq'
p122
I7
sS'total_cq'
p123
I7
sa(dp124
g119
I1
sg120
F0.001990079879760742
sg121
F0.0005080699920654297
sg122
I5
sg123
I5
sa(dp125
g119
I2
sg120
F3.1948089599609375e-05
sg121
F0.0001800060272216797
sg122
I3
sg123
I3
sasS'total_cqs'
p126
I7
ssI10
(dp127
S'iters'
p128
I6
sS'meta'
p129
(lp130
(dp131
S'objective'
p132
I534
sS'query_time'
p133
F0.3226778507232666
sS'comp_time'
p134
F0.09593415260314941
sS'exec_cq'
p135
I51
sS'total_cq'
p136
I51
sa(dp137
g132
I284
sg133
F0.0005290508270263672
sg134
F0.0032541751861572266
sg135
I37
sg136
I37
sa(dp138
g132
I13
sg133
F0.0024390220642089844
sg134
F0.006819486618041992
sg135
I12
sg136
I12
sa(dp139
g132
I21
sg133
F7.390975952148438e-05
sg134
F0.0005521774291992188
sg135
I6
sg136
I6
sa(dp140
g132
I2
sg133
F3.814697265625e-05
sg134
F0.0002849102020263672
sg135
I4
sg136
I4
sa(dp141
g132
I15
sg133
F2.002716064453125e-05
sg134
F0.00011515617370605469
sg135
I2
sg136
I2
sasS'total_cqs'
p142
I51
ssI11
(dp143
S'iters'
p144
I6
sS'meta'
p145
(lp146
(dp147
S'objective'
p148
I1026
sS'query_time'
p149
F0.5414400100708008
sS'comp_time'
p150
F0.1647961139678955
sS'exec_cq'
p151
I63
sS'total_cq'
p152
I63
sa(dp153
g148
I1005
sg149
F0.0011990070343017578
sg150
F0.005326986312866211
sg151
I47
sg152
I47
sa(dp154
g148
I991
sg149
F0.0006809234619140625
sg150
F0.002260446548461914
sg151
I40
sg152
I40
sa(dp155
g148
I14
sg149
F0.0015189647674560547
sg150
F0.0012128353118896484
sg151
I5
sg152
I5
sa(dp156
g148
I5
sg149
F2.193450927734375e-05
sg150
F0.00012564659118652344
sg151
I3
sg152
I3
sa(dp157
g148
I1
sg149
F1.621246337890625e-05
sg150
F0.000148773193359375
sg151
I2
sg152
I2
sasS'total_cqs'
p158
I63
ssI12
(dp159
S'iters'
p160
I5
sS'meta'
p161
(lp162
(dp163
S'objective'
p164
I493
sS'query_time'
p165
F0.3435509204864502
sS'comp_time'
p166
F0.08102202415466309
sS'exec_cq'
p167
I50
sS'total_cq'
p168
I50
sa(dp169
g164
I398
sg165
F0.0004878044128417969
sg166
F0.0027039051055908203
sg167
I33
sg168
I33
sa(dp170
g164
I7
sg165
F0.0014920234680175781
sg166
F0.0018889904022216797
sg167
I8
sg168
I8
sa(dp171
g164
I33
sg165
F3.1948089599609375e-05
sg166
F0.00025534629821777344
sg167
I4
sg168
I4
sa(dp172
g164
I18
sg165
F1.5974044799804688e-05
sg166
F9.107589721679688e-05
sg167
I2
sg168
I2
sasS'total_cqs'
p173
I50
ssI13
(dp174
S'iters'
p175
I6
sS'meta'
p176
(lp177
(dp178
S'objective'
p179
I2
sS'query_time'
p180
F0.14130616188049316
sS'comp_time'
p181
F0.03256082534790039
sS'exec_cq'
p182
I20
sS'total_cq'
p183
I20
sa(dp184
g179
I16
sg180
F0.0014438629150390625
sg181
F0.0069119930267333984
sg182
I11
sg183
I11
sa(dp185
g179
I13
sg180
F4.506111145019531e-05
sg181
F0.00039696693420410156
sg182
I6
sg183
I6
sa(dp186
g179
I5
sg180
F3.218650817871094e-05
sg181
F0.0001811981201171875
sg182
I4
sg183
I4
sa(dp187
g179
I3
sg180
F2.3126602172851562e-05
sg181
F0.00011610984802246094
sg182
I3
sg183
I3
sa(dp188
g179
I2
sg180
F1.5974044799804688e-05
sg181
F8.368492126464844e-05
sg182
I2
sg183
I2
sasS'total_cqs'
p189
I20
ssI14
(dp190
S'iters'
p191
I3
sS'meta'
p192
(lp193
(dp194
S'objective'
p195
I1
sS'query_time'
p196
F32.93317008018494
sS'comp_time'
p197
F2.0728890895843506
sS'exec_cq'
p198
I9
sS'total_cq'
p199
I9
sa(dp200
g195
I2
sg196
F0.012284040451049805
sg197
F0.018516063690185547
sg198
I5
sg199
I5
sa(dp201
g195
I2
sg196
F0.005101919174194336
sg197
F0.011299848556518555
sg198
I2
sg199
I2
sasS'total_cqs'
p202
I9
ssI15
(dp203
S'iters'
p204
I4
sS'meta'
p205
(lp206
(dp207
S'objective'
p208
I2
sS'query_time'
p209
F3.8711750507354736
sS'comp_time'
p210
F0.1429891586303711
sS'exec_cq'
p211
I11
sS'total_cq'
p212
I11
sa(dp213
g208
I10
sg209
F0.012233972549438477
sg210
F0.12019610404968262
sg211
I7
sg212
I7
sa(dp214
g208
I0
sg209
F0.01297307014465332
sg210
F0.02139592170715332
sg211
I3
sg212
I3
sa(dp215
g208
I2
sg209
F0.01144099235534668
sg210
F0.024285078048706055
sg211
I2
sg212
I2
sasS'total_cqs'
p216
I11
ssI16
(dp217
S'iters'
p218
I1
sS'meta'
p219
(lp220
(dp221
S'objective'
p222
I30
sS'query_time'
p223
F0.020598888397216797
sS'comp_time'
p224
F0.0037512779235839844
sS'exec_cq'
p225
I8
sS'total_cq'
p226
I8
sasS'total_cqs'
p227
I8
ssI17
(dp228
S'iters'
p229
I3
sS'meta'
p230
(lp231
(dp232
S'objective'
p233
I0
sS'query_time'
p234
F0.9072809219360352
sS'comp_time'
p235
F0.03636002540588379
sS'exec_cq'
p236
I11
sS'total_cq'
p237
I11
sa(dp238
g233
I15
sg234
F0.00020694732666015625
sg235
F0.00074005126953125
sg236
I6
sg237
I6
sa(dp239
g233
I1
sg234
F0.00015115737915039062
sg235
F0.0003142356872558594
sg236
I2
sg237
I2
sasS'total_cqs'
p240
I11
ssI18
(dp241
S'iters'
p242
I4
sS'meta'
p243
(lp244
(dp245
S'objective'
p246
I36
sS'query_time'
p247
F0.18852686882019043
sS'comp_time'
p248
F0.022423505783081055
sS'exec_cq'
p249
I11
sS'total_cq'
p250
I11
sa(dp251
g246
I29
sg247
F0.0005500316619873047
sg248
F0.0010921955108642578
sg249
I9
sg250
I9
sa(dp252
g246
I32
sg247
F0.0005178451538085938
sg248
F0.0011179447174072266
sg249
I8
sg250
I8
sa(dp253
g246
I28
sg247
F3.1948089599609375e-05
sg248
F7.414817810058594e-05
sg249
I6
sg250
I6
sasS'total_cqs'
p254
I11
ssI19
(dp255
S'iters'
p256
I0
sS'meta'
p257
(lp258
sS'total_cqs'
p259
I1
ssI20
(dp260
S'iters'
p261
I0
sS'meta'
p262
(lp263
sS'total_cqs'
p264
I1
ssI21
(dp265
S'iters'
p266
I0
sS'meta'
p267
(lp268
sS'total_cqs'
p269
I1
ssI22
(dp270
S'iters'
p271
I1
sS'meta'
p272
(lp273
(dp274
S'objective'
p275
I159
sS'query_time'
p276
F0.06403994560241699
sS'comp_time'
p277
F0.03444194793701172
sS'exec_cq'
p278
I18
sS'total_cq'
p279
I18
sasS'total_cqs'
p280
I18
ssI23
(dp281
S'iters'
p282
I2
sS'meta'
p283
(lp284
(dp285
S'objective'
p286
I84
sS'query_time'
p287
F0.07496500015258789
sS'comp_time'
p288
F0.028544902801513672
sS'exec_cq'
p289
I16
sS'total_cq'
p290
I16
sa(dp291
g286
I100
sg287
F0.00010728836059570312
sg288
F0.00020503997802734375
sg289
I14
sg290
I14
sasS'total_cqs'
p292
I16
ssI24
(dp293
S'iters'
p294
I0
sS'meta'
p295
(lp296
sS'total_cqs'
p297
I1
ssI25
(dp298
S'iters'
p299
I0
sS'meta'
p300
(lp301
sS'total_cqs'
p302
I1
ssI26
(dp303
S'iters'
p304
I1
sS'meta'
p305
(lp306
(dp307
S'objective'
p308
I879
sS'query_time'
p309
F0.11980605125427246
sS'comp_time'
p310
F0.11835980415344238
sS'exec_cq'
p311
I42
sS'total_cq'
p312
I42
sasS'total_cqs'
p313
I42
ssI27
(dp314
S'iters'
p315
I4
sS'meta'
p316
(lp317
(dp318
S'objective'
p319
I347
sS'query_time'
p320
F21.533860206604004
sS'comp_time'
p321
F2.224571704864502
sS'exec_cq'
p322
I30
sS'total_cq'
p323
I30
sa(dp324
g319
I1
sg320
F0.8570749759674072
sg321
F1.8321208953857422
sg322
I5
sg323
I5
sa(dp325
g319
I5
sg320
F0.4625680446624756
sg321
F0.9687740802764893
sg322
I3
sg323
I3
sa(dp326
g319
I1
sg320
F0.03479194641113281
sg321
F0.07598018646240234
sg322
I2
sg323
I2
sasS'total_cqs'
p327
I30
ssI28
(dp328
S'iters'
p329
I0
sS'meta'
p330
(lp331
sS'total_cqs'
p332
I1
ssI29
(dp333
S'iters'
p334
I5
sS'meta'
p335
(lp336
(dp337
S'objective'
p338
I371
sS'query_time'
p339
F147.230220079422
sS'comp_time'
p340
F8.572024822235107
sS'exec_cq'
p341
I49
sS'total_cq'
p342
I49
sa(dp343
g338
I23
sg339
F0.021199941635131836
sg340
F0.038691043853759766
sg341
I17
sg342
I17
sa(dp344
g338
I8
sg339
F0.006677865982055664
sg340
F0.014337778091430664
sg341
I7
sg342
I7
sa(dp345
g338
I7
sg339
F0.005767822265625
sg340
F0.01005411148071289
sg341
I4
sg342
I4
sa(dp346
g338
I28
sg339
F0.0008740425109863281
sg340
F0.0013697147369384766
sg341
I2
sg342
I2
sasS'total_cqs'
p347
I49
ssI30
(dp348
S'iters'
p349
I1
sS'meta'
p350
(lp351
(dp352
S'objective'
p353
I1
sS'query_time'
p354
F0.6633288860321045
sS'comp_time'
p355
F0.01213216781616211
sS'exec_cq'
p356
I2
sS'total_cq'
p357
I2
sasS'total_cqs'
p358
I2
ssI31
(dp359
S'iters'
p360
I0
sS'meta'
p361
(lp362
sS'total_cqs'
p363
I1
ssI32
(dp364
S'iters'
p365
I1
sS'meta'
p366
(lp367
(dp368
S'objective'
p369
I1
sS'query_time'
p370
F0.014886856079101562
sS'comp_time'
p371
F0.002735137939453125
sS'exec_cq'
p372
I2
sS'total_cq'
p373
I2
sasS'total_cqs'
p374
I2
ssI33
(dp375
S'iters'
p376
I5
sS'meta'
p377
(lp378
(dp379
S'objective'
p380
I3572
sS'query_time'
p381
F16.46809697151184
sS'comp_time'
p382
F0.8486812114715576
sS'exec_cq'
p383
I103
sS'total_cq'
p384
I103
sa(dp385
g380
I22
sg381
F0.007668018341064453
sg382
F0.06394720077514648
sg383
I16
sg384
I16
sa(dp386
g380
I7
sg381
F0.003954172134399414
sg382
F0.016714811325073242
sg383
I10
sg384
I10
sa(dp387
g380
I15
sg381
F0.0006299018859863281
sg382
F0.0011889934539794922
sg383
I4
sg384
I4
sa(dp388
g380
I64
sg381
F0.00029015541076660156
sg382
F0.0006160736083984375
sg383
I2
sg384
I2
sasS'total_cqs'
p389
I103
ssI34
(dp390
S'iters'
p391
I1
sS'meta'
p392
(lp393
(dp394
S'objective'
p395
I1
sS'query_time'
p396
F0.015163183212280273
sS'comp_time'
p397
F0.002094268798828125
sS'exec_cq'
p398
I2
sS'total_cq'
p399
I2
sasS'total_cqs'
p400
I2
ssI35
(dp401
S'iters'
p402
I6
sS'meta'
p403
(lp404
(dp405
S'objective'
p406
I1355
sS'query_time'
p407
F69.77824401855469
sS'comp_time'
p408
F2.7476813793182373
sS'exec_cq'
p409
I70
sS'total_cq'
p410
I70
sa(dp411
g406
I23
sg407
F0.0049610137939453125
sg408
F0.0159761905670166
sg409
I16
sg410
I16
sa(dp412
g406
I10
sg407
F0.0025148391723632812
sg408
F0.010580062866210938
sg409
I10
sg410
I10
sa(dp413
g406
I4
sg407
F0.0016829967498779297
sg408
F0.002547025680541992
sg409
I6
sg410
I6
sa(dp414
g406
I34
sg407
F0.0009360313415527344
sg408
F0.0012638568878173828
sg409
I3
sg410
I3
sa(dp415
g406
I18
sg407
F0.0002779960632324219
sg408
F0.000579833984375
sg409
I2
sg410
I2
sasS'total_cqs'
p416
I70
ssI36
(dp417
S'iters'
p418
I4
sS'meta'
p419
(lp420
(dp421
S'objective'
p422
I375
sS'query_time'
p423
F0.8060259819030762
sS'comp_time'
p424
F0.15526866912841797
sS'exec_cq'
p425
I33
sS'total_cq'
p426
I33
sa(dp427
g422
I418
sg423
F0.0045928955078125
sg424
F0.007239818572998047
sg425
I29
sg426
I29
sa(dp428
g422
I395
sg423
F0.0017609596252441406
sg424
F0.0034253597259521484
sg425
I28
sg426
I28
sa(dp429
g422
I399
sg423
F0.000164031982421875
sg424
F0.00033593177795410156
sg425
I23
sg426
I24
sasS'total_cqs'
p430
I33
ssI37
(dp431
S'iters'
p432
I1
sS'meta'
p433
(lp434
(dp435
S'objective'
p436
I1
sS'query_time'
p437
F0.01690506935119629
sS'comp_time'
p438
F0.0011539459228515625
sS'exec_cq'
p439
I2
sS'total_cq'
p440
I2
sasS'total_cqs'
p441
I2
ssI38
(dp442
S'iters'
p443
I2
sS'meta'
p444
(lp445
(dp446
S'objective'
p447
I0
sS'query_time'
p448
F0.023294925689697266
sS'comp_time'
p449
F0.0028917789459228516
sS'exec_cq'
p450
I4
sS'total_cq'
p451
I4
sa(dp452
g447
I1
sg448
F9.417533874511719e-05
sg449
F0.00017905235290527344
sg450
I2
sg451
I2
sasS'total_cqs'
p453
I4
ssI39
(dp454
S'iters'
p455
I2
sS'meta'
p456
(lp457
(dp458
S'objective'
p459
I658
sS'query_time'
p460
F0.18123412132263184
sS'comp_time'
p461
F0.23019027709960938
sS'exec_cq'
p462
I44
sS'total_cq'
p463
I44
sa(dp464
g459
I800
sg460
F0.0003330707550048828
sg461
F0.0010590553283691406
sg462
I37
sg463
I37
sasS'total_cqs'
p465
I44
ssI40
(dp466
S'iters'
p467
I1
sS'meta'
p468
(lp469
(dp470
S'objective'
p471
I22
sS'query_time'
p472
F0.05210995674133301
sS'comp_time'
p473
F0.006630420684814453
sS'exec_cq'
p474
I7
sS'total_cq'
p475
I7
sasS'total_cqs'
p476
I7
ssI41
(dp477
S'iters'
p478
I2
sS'meta'
p479
(lp480
(dp481
S'objective'
p482
I60
sS'query_time'
p483
F0.07454586029052734
sS'comp_time'
p484
F0.017628908157348633
sS'exec_cq'
p485
I12
sS'total_cq'
p486
I12
sa(dp487
g482
I61
sg483
F6.198883056640625e-05
sg484
F0.00010466575622558594
sg485
I11
sg486
I11
sasS'total_cqs'
p488
I12
ssI42
(dp489
S'iters'
p490
I4
sS'meta'
p491
(lp492
(dp493
S'objective'
p494
I783
sS'query_time'
p495
F0.11287522315979004
sS'comp_time'
p496
F0.2555866241455078
sS'exec_cq'
p497
I41
sS'total_cq'
p498
I41
sa(dp499
g494
I754
sg495
F0.00019741058349609375
sg496
F0.0002777576446533203
sg497
I40
sg498
I40
sa(dp500
g494
I722
sg495
F0.0001728534698486328
sg496
F0.00021719932556152344
sg497
I39
sg498
I39
sa(dp501
g494
I731
sg495
F0.00015091896057128906
sg496
F0.00013875961303710938
sg497
I38
sg498
I38
sasS'total_cqs'
p502
I41
ssI43
(dp503
S'iters'
p504
I1
sS'meta'
p505
(lp506
(dp507
S'objective'
p508
I22
sS'query_time'
p509
F0.052883148193359375
sS'comp_time'
p510
F0.005650758743286133
sS'exec_cq'
p511
I7
sS'total_cq'
p512
I7
sasS'total_cqs'
p513
I7
ssI44
(dp514
S'iters'
p515
I4
sS'meta'
p516
(lp517
(dp518
S'objective'
p519
I780
sS'query_time'
p520
F0.22119402885437012
sS'comp_time'
p521
F0.15239620208740234
sS'exec_cq'
p522
I47
sS'total_cq'
p523
I47
sa(dp524
g519
I864
sg520
F0.0004010200500488281
sg521
F0.0013859272003173828
sg522
I40
sg523
I40
sa(dp525
g519
I17
sg520
F0.002502918243408203
sg521
F0.0018243789672851562
sg522
I3
sg523
I3
sa(dp526
g519
I12
sg520
F3.504753112792969e-05
sg521
F0.00013399124145507812
sg522
I2
sg523
I2
sasS'total_cqs'
p527
I47
ssI45
(dp528
S'iters'
p529
I0
sS'meta'
p530
(lp531
sS'total_cqs'
p532
I1
ssI46
(dp533
S'iters'
p534
I2
sS'meta'
p535
(lp536
(dp537
S'objective'
p538
I11
sS'query_time'
p539
F0.019427061080932617
sS'comp_time'
p540
F0.003000020980834961
sS'exec_cq'
p541
I6
sS'total_cq'
p542
I6
sa(dp543
g538
I10
sg539
F6.413459777832031e-05
sg540
F0.0001461505889892578
sg541
I5
sg542
I5
sasS'total_cqs'
p544
I6
ssI47
(dp545
S'iters'
p546
I1
sS'meta'
p547
(lp548
(dp549
S'objective'
p550
I1
sS'query_time'
p551
F0.045057058334350586
sS'comp_time'
p552
F0.005568265914916992
sS'exec_cq'
p553
I2
sS'total_cq'
p554
I2
sasS'total_cqs'
p555
I2
ssI48
(dp556
S'iters'
p557
I0
sS'meta'
p558
(lp559
sS'total_cqs'
p560
I1
ssI49
(dp561
S'iters'
p562
I0
sS'meta'
p563
(lp564
sS'total_cqs'
p565
I1
ssI50
(dp566
S'iters'
p567
I3
sS'meta'
p568
(lp569
(dp570
S'objective'
p571
I5
sS'query_time'
p572
F0.014095067977905273
sS'comp_time'
p573
F0.002540111541748047
sS'exec_cq'
p574
I5
sS'total_cq'
p575
I5
sa(dp576
g571
I2
sg572
F3.1948089599609375e-05
sg573
F0.0001590251922607422
sg574
I4
sg575
I4
sa(dp577
g571
I0
sg572
F2.193450927734375e-05
sg573
F0.00010061264038085938
sg574
I3
sg575
I3
sasS'total_cqs'
p578
I5
ssI51
(dp579
S'iters'
p580
I1
sS'meta'
p581
(lp582
(dp583
S'objective'
p584
I1
sS'query_time'
p585
F0.007656097412109375
sS'comp_time'
p586
F0.001125335693359375
sS'exec_cq'
p587
I2
sS'total_cq'
p588
I2
sasS'total_cqs'
p589
I2
ssI52
(dp590
S'iters'
p591
I1
sS'meta'
p592
(lp593
(dp594
S'objective'
p595
I1
sS'query_time'
p596
F0.00923609733581543
sS'comp_time'
p597
F0.0010581016540527344
sS'exec_cq'
p598
I2
sS'total_cq'
p599
I2
sasS'total_cqs'
p600
I2
ssI53
(dp601
S'iters'
p602
I2
sS'meta'
p603
(lp604
(dp605
S'objective'
p606
I0
sS'query_time'
p607
F0.019675016403198242
sS'comp_time'
p608
F0.0023469924926757812
sS'exec_cq'
p609
I4
sS'total_cq'
p610
I4
sa(dp611
g606
I1
sg607
F0.00010013580322265625
sg608
F0.00023317337036132812
sg609
I2
sg610
I2
sasS'total_cqs'
p612
I4
ssI54
(dp613
S'iters'
p614
I2
sS'meta'
p615
(lp616
(dp617
S'objective'
p618
I0
sS'query_time'
p619
F0.011942148208618164
sS'comp_time'
p620
F0.0015704631805419922
sS'exec_cq'
p621
I3
sS'total_cq'
p622
I3
sa(dp623
g618
I1
sg619
F4.482269287109375e-05
sg620
F0.00013709068298339844
sg621
I2
sg622
I2
sasS'total_cqs'
p624
I3
ssI55
(dp625
S'iters'
p626
I8
sS'meta'
p627
(lp628
(dp629
S'objective'
p630
I4877
sS'query_time'
p631
F2.396388053894043
sS'comp_time'
p632
F0.8636069297790527
sS'exec_cq'
p633
I109
sS'total_cq'
p634
I109
sa(dp635
g630
I4570
sg631
F0.0009222030639648438
sg632
F0.0043659210205078125
sg633
I97
sg634
I97
sa(dp636
g630
I4639
sg631
F0.00045800209045410156
sg632
F0.0016505718231201172
sg633
I91
sg634
I91
sa(dp637
g630
I4533
sg631
F0.0003979206085205078
sg632
F0.00138092041015625
sg633
I87
sg634
I87
sa(dp638
g630
I4475
sg631
F0.0003941059112548828
sg632
F0.0009877681732177734
sg633
I85
sg634
I85
sa(dp639
g630
I4406
sg631
F0.0003330707550048828
sg632
F0.0006420612335205078
sg633
I83
sg634
I83
sa(dp640
g630
I4383
sg631
F0.00033020973205566406
sg632
F0.0005629062652587891
sg633
I82
sg634
I82
sa(dp641
g630
I4379
sg631
F0.0003440380096435547
sg632
F0.0005400180816650391
sg633
I80
sg634
I80
sasS'total_cqs'
p642
I109
ssI56
(dp643
S'iters'
p644
I5
sS'meta'
p645
(lp646
(dp647
S'objective'
p648
I1782
sS'query_time'
p649
F1.8627400398254395
sS'comp_time'
p650
F0.23430871963500977
sS'exec_cq'
p651
I67
sS'total_cq'
p652
I76
sa(dp653
g648
I2
sg649
F0.019189119338989258
sg650
F0.19716787338256836
sg651
I16
sg652
I16
sa(dp654
g648
I3
sg649
F0.0006480216979980469
sg650
F0.002269744873046875
sg651
I7
sg652
I7
sa(dp655
g648
I6
sg649
F0.0003159046173095703
sg650
F0.00118255615234375
sg651
I5
sg652
I5
sa(dp656
g648
I28
sg649
F0.0001709461212158203
sg650
F0.0003819465637207031
sg651
I2
sg652
I2
sasS'total_cqs'
p657
I76
ssI57
(dp658
S'iters'
p659
I7
sS'meta'
p660
(lp661
(dp662
S'objective'
p663
I212
sS'query_time'
p664
F23.232840061187744
sS'comp_time'
p665
F0.156937837600708
sS'exec_cq'
p666
I45
sS'total_cq'
p667
I51
sa(dp668
g663
I107
sg664
F0.024592876434326172
sg665
F0.03274130821228027
sg666
I31
sg667
I31
sa(dp669
g663
I2
sg664
F0.02074408531188965
sg665
F0.05611109733581543
sg666
I22
sg667
I22
sa(dp670
g663
I2
sg664
F0.09873104095458984
sg665
F0.10583019256591797
sg666
I13
sg667
I13
sa(dp671
g663
I4
sg664
F0.0071849822998046875
sg665
F0.03319406509399414
sg666
I8
sg667
I8
sa(dp672
g663
I6
sg664
F0.001230001449584961
sg665
F0.0022668838500976562
sg666
I3
sg667
I3
sa(dp673
g663
I3
sg664
F0.0006639957427978516
sg665
F0.0008721351623535156
sg666
I2
sg667
I2
sasS'total_cqs'
p674
I51
ssI58
(dp675
S'iters'
p676
I8
sS'meta'
p677
(lp678
(dp679
S'objective'
p680
I84377
sS'query_time'
p681
F322.68516206741333
sS'comp_time'
p682
F24.4849750995636
sS'exec_cq'
p683
I486
sS'total_cq'
p684
I486
sa(dp685
g680
I87313
sg681
F5.514114141464233
sg682
F9.346880197525024
sg683
I414
sg684
I414
sa(dp686
g680
I71
sg681
F0.015073060989379883
sg682
F0.18776988983154297
sg683
I28
sg684
I28
sa(dp687
g680
I11
sg681
F0.012273073196411133
sg682
F1.4649956226348877
sg683
I15
sg684
I15
sa(dp688
g680
I12
sg681
F0.005549907684326172
sg682
F0.06632566452026367
sg683
I9
sg684
I9
sa(dp689
g680
I6
sg681
F0.002696990966796875
sg682
F0.0029141902923583984
sg683
I5
sg684
I5
sa(dp690
g680
I0
sg681
F0.0018188953399658203
sg682
F0.002490997314453125
sg683
I4
sg684
I4
sa(dp691
g680
I22
sg681
F0.0009579658508300781
sg682
F0.0014758110046386719
sg683
I2
sg684
I2
sasS'total_cqs'
p692
I486
ssI59
(dp693
S'iters'
p694
I2
sS'meta'
p695
(lp696
(dp697
S'objective'
p698
I8
sS'query_time'
p699
F0.05518794059753418
sS'comp_time'
p700
F0.005991935729980469
sS'exec_cq'
p701
I7
sS'total_cq'
p702
I7
sa(dp703
g698
I4
sg699
F0.0001499652862548828
sg700
F0.0003292560577392578
sg701
I2
sg702
I2
sasS'total_cqs'
p704
I7
ssI60
(dp705
S'iters'
p706
I3
sS'meta'
p707
(lp708
(dp709
S'objective'
p710
I5
sS'query_time'
p711
F0.02097916603088379
sS'comp_time'
p712
F0.003289937973022461
sS'exec_cq'
p713
I4
sS'total_cq'
p714
I5
sa(dp715
g710
I2
sg711
F3.409385681152344e-05
sg712
F9.465217590332031e-05
sg713
I3
sg714
I4
sa(dp716
g710
I0
sg711
F1.9073486328125e-05
sg712
F8.225440979003906e-05
sg713
I2
sg714
I3
sasS'total_cqs'
p717
I5
ssI61
(dp718
S'iters'
p719
I0
sS'meta'
p720
(lp721
sS'total_cqs'
p722
I1
ssI62
(dp723
S'iters'
p724
I3
sS'meta'
p725
(lp726
(dp727
S'objective'
p728
I42
sS'query_time'
p729
F0.041043996810913086
sS'comp_time'
p730
F0.020415306091308594
sS'exec_cq'
p731
I12
sS'total_cq'
p732
I12
sa(dp733
g728
I48
sg729
F3.600120544433594e-05
sg730
F0.00013184547424316406
sg731
I9
sg732
I9
sa(dp734
g728
I46
sg729
F3.790855407714844e-05
sg730
F7.033348083496094e-05
sg731
I8
sg732
I8
sasS'total_cqs'
p735
I12
ssI63
(dp736
S'iters'
p737
I0
sS'meta'
p738
(lp739
sS'total_cqs'
p740
I1
ssI64
(dp741
S'iters'
p742
I3
sS'meta'
p743
(lp744
(dp745
S'objective'
p746
I24
sS'query_time'
p747
F0.22159099578857422
sS'comp_time'
p748
F0.01874256134033203
sS'exec_cq'
p749
I12
sS'total_cq'
p750
I12
sa(dp751
g746
I3
sg747
F0.00010895729064941406
sg748
F0.0005609989166259766
sg749
I4
sg750
I4
sa(dp752
g746
I7
sg747
F2.7894973754882812e-05
sg748
F0.00012302398681640625
sg749
I2
sg750
I2
sasS'total_cqs'
p753
I12
ssI65
(dp754
S'iters'
p755
I4
sS'meta'
p756
(lp757
(dp758
S'objective'
p759
I158
sS'query_time'
p760
F0.842033863067627
sS'comp_time'
p761
F0.22983694076538086
sS'exec_cq'
p762
I27
sS'total_cq'
p763
I27
sa(dp764
g759
I0
sg760
F0.0013539791107177734
sg761
F0.002170562744140625
sg762
I7
sg763
I7
sa(dp765
g759
I1
sg760
F0.0002598762512207031
sg761
F0.0005688667297363281
sg762
I3
sg763
I3
sa(dp766
g759
I12
sg760
F7.987022399902344e-05
sg761
F0.00019025802612304688
sg762
I2
sg763
I2
sasS'total_cqs'
p767
I27
ssI66
(dp768
S'iters'
p769
I0
sS'meta'
p770
(lp771
sS'total_cqs'
p772
I1
ssI67
(dp773
S'iters'
p774
I2
sS'meta'
p775
(lp776
(dp777
S'objective'
p778
I558
sS'query_time'
p779
F1.113947868347168
sS'comp_time'
p780
F0.14732122421264648
sS'exec_cq'
p781
I35
sS'total_cq'
p782
I35
sa(dp783
g778
I16
sg779
F0.0010809898376464844
sg780
F0.0025327205657958984
sg781
I2
sg782
I2
sasS'total_cqs'
p784
I35
ssI68
(dp785
S'iters'
p786
I0
sS'meta'
p787
(lp788
sS'total_cqs'
p789
I1
ssI69
(dp790
S'iters'
p791
I1
sS'meta'
p792
(lp793
(dp794
S'objective'
p795
I1298
sS'query_time'
p796
F0.17002511024475098
sS'comp_time'
p797
F0.2516498565673828
sS'exec_cq'
p798
I51
sS'total_cq'
p799
I51
sasS'total_cqs'
p800
I51
ssI70
(dp801
S'iters'
p802
I2
sS'meta'
p803
(lp804
(dp805
S'objective'
p806
I11
sS'query_time'
p807
F0.022210121154785156
sS'comp_time'
p808
F0.003409862518310547
sS'exec_cq'
p809
I6
sS'total_cq'
p810
I6
sa(dp811
g806
I10
sg807
F4.38690185546875e-05
sg808
F0.00014281272888183594
sg809
I5
sg810
I5
sasS'total_cqs'
p812
I6
ssI71
(dp813
S'iters'
p814
I8
sS'meta'
p815
(lp816
(dp817
S'objective'
p818
I3251
sS'query_time'
p819
F0.3072478771209717
sS'comp_time'
p820
F0.3982360363006592
sS'exec_cq'
p821
I85
sS'total_cq'
p822
I85
sa(dp823
g818
I3063
sg819
F0.00034999847412109375
sg820
F0.0012173652648925781
sg821
I81
sg822
I81
sa(dp824
g818
I2938
sg819
F0.0002739429473876953
sg820
F0.001009225845336914
sg821
I77
sg822
I77
sa(dp825
g818
I2782
sg819
F0.0002541542053222656
sg820
F0.0008893013000488281
sg821
I74
sg822
I74
sa(dp826
g818
I2658
sg819
F0.00023698806762695312
sg820
F0.0006566047668457031
sg821
I71
sg822
I71
sa(dp827
g818
I2593
sg819
F0.00023698806762695312
sg820
F0.0005941390991210938
sg821
I69
sg822
I69
sa(dp828
g818
I1
sg819
F0.001828908920288086
sg820
F0.002206087112426758
sg821
I3
sg822
I3
sa(dp829
g818
I5
sg819
F0.005316972732543945
sg820
F0.00019812583923339844
sg821
I2
sg822
I2
sasS'total_cqs'
p830
I85
ssI72
(dp831
S'iters'
p832
I4
sS'meta'
p833
(lp834
(dp835
S'objective'
p836
I10
sS'query_time'
p837
F0.029397010803222656
sS'comp_time'
p838
F0.0037560462951660156
sS'exec_cq'
p839
I4
sS'total_cq'
p840
I8
sa(dp841
g836
I1
sg837
F7.081031799316406e-05
sg838
F6.389617919921875e-05
sg839
I2
sg840
I6
sa(dp842
g836
I0
sg837
F0.32442498207092285
sg838
F0.0009469985961914062
sg839
I4
sg840
I4
sa(dp843
g836
I0
sg837
F0.0003249645233154297
sg838
F0.0009329319000244141
sg839
I3
sg840
I3
sasS'total_cqs'
p844
I8
ssI73
(dp845
S'iters'
p846
I0
sS'meta'
p847
(lp848
sS'total_cqs'
p849
I1
ssI74
(dp850
S'iters'
p851
I0
sS'meta'
p852
(lp853
sS'total_cqs'
p854
I1
ssI75
(dp855
S'iters'
p856
I3
sS'meta'
p857
(lp858
(dp859
S'objective'
p860
I5
sS'query_time'
p861
F0.015639066696166992
sS'comp_time'
p862
F0.0023658275604248047
sS'exec_cq'
p863
I5
sS'total_cq'
p864
I5
sa(dp865
g860
I2
sg861
F3.1948089599609375e-05
sg862
F0.00014710426330566406
sg863
I4
sg864
I4
sa(dp866
g860
I0
sg861
F2.2172927856445312e-05
sg862
F0.00010704994201660156
sg863
I3
sg864
I3
sasS'total_cqs'
p867
I5
ssI76
(dp868
S'iters'
p869
I1
sS'meta'
p870
(lp871
(dp872
S'objective'
p873
I1
sS'query_time'
p874
F0.01217198371887207
sS'comp_time'
p875
F0.0010230541229248047
sS'exec_cq'
p876
I2
sS'total_cq'
p877
I2
sasS'total_cqs'
p878
I2
ssI77
(dp879
S'iters'
p880
I0
sS'meta'
p881
(lp882
sS'total_cqs'
p883
I1
ssI78
(dp884
S'iters'
p885
I0
sS'meta'
p886
(lp887
sS'total_cqs'
p888
I1
ssI103
(dp889
S'iters'
p890
I2
sS'meta'
p891
(lp892
(dp893
S'objective'
p894
I60
sS'query_time'
p895
F0.05646991729736328
sS'comp_time'
p896
F0.015388727188110352
sS'exec_cq'
p897
I12
sS'total_cq'
p898
I12
sa(dp899
g894
I61
sg895
F5.793571472167969e-05
sg896
F9.918212890625e-05
sg897
I11
sg898
I11
sasS'total_cqs'
p900
I12
ssI104
(dp901
S'iters'
p902
I2
sS'meta'
p903
(lp904
(dp905
S'objective'
p906
I0
sS'query_time'
p907
F1.3065600395202637
sS'comp_time'
p908
F0.12433099746704102
sS'exec_cq'
p909
I4
sS'total_cq'
p910
I4
sa(dp911
g906
I1
sg907
F0.011144876480102539
sg908
F0.019963979721069336
sg909
I2
sg910
I2
sasS'total_cqs'
p912
I4
ssI105
(dp913
S'iters'
p914
I0
sS'meta'
p915
(lp916
sS'total_cqs'
p917
I1
ssI106
(dp918
S'iters'
p919
I1
sS'meta'
p920
(lp921
(dp922
S'objective'
p923
I6
sS'query_time'
p924
F0.01728987693786621
sS'comp_time'
p925
F0.0017879009246826172
sS'exec_cq'
p926
I4
sS'total_cq'
p927
I4
sasS'total_cqs'
p928
I4
ssI107
(dp929
S'iters'
p930
I2
sS'meta'
p931
(lp932
(dp933
S'objective'
p934
I92
sS'query_time'
p935
F0.10211396217346191
sS'comp_time'
p936
F0.022633075714111328
sS'exec_cq'
p937
I16
sS'total_cq'
p938
I16
sa(dp939
g934
I12
sg935
F0.008208036422729492
sg936
F0.0004150867462158203
sg937
I3
sg938
I3
sasS'total_cqs'
p940
I16
ssI108
(dp941
S'iters'
p942
I0
sS'meta'
p943
(lp944
sS'total_cqs'
p945
I1
ss.