(dp0
I1
(dp1
S'iters'
p2
I4
sS'meta'
p3
(lp4
(dp5
S'objective'
p6
I56
sS'query_time'
p7
F0.03444194793701172
sS'comp_time'
p8
F0.0002307891845703125
sS'exec_cq'
p9
I12
sS'total_cq'
p10
I12
sa(dp11
g6
I47
sg7
F6.198883056640625e-05
sg8
F0.00012874603271484375
sg9
I11
sg10
I11
sa(dp12
g6
I39
sg7
F5.412101745605469e-05
sg8
F0.00012874603271484375
sg9
I10
sg10
I10
sa(dp13
g6
I34
sg7
F3.504753112792969e-05
sg8
F5.507469177246094e-05
sg9
I8
sg10
I8
sasS'total_cqs'
p14
I12
ssI2
(dp15
S'iters'
p16
I5
sS'meta'
p17
(lp18
(dp19
S'objective'
p20
I268
sS'query_time'
p21
F0.12707281112670898
sS'comp_time'
p22
F0.001184225082397461
sS'exec_cq'
p23
I27
sS'total_cq'
p24
I27
sa(dp25
g20
I245
sg21
F0.0001761913299560547
sg22
F0.00047898292541503906
sg23
I24
sg24
I24
sa(dp26
g20
I240
sg21
F0.00010013580322265625
sg22
F0.0002949237823486328
sg23
I20
sg24
I20
sa(dp27
g20
I226
sg21
F8.392333984375e-05
sg22
F0.00018835067749023438
sg23
I19
sg24
I19
sa(dp28
g20
I214
sg21
F7.295608520507812e-05
sg22
F0.00011229515075683594
sg23
I18
sg24
I18
sasS'total_cqs'
p29
I27
ssI3
(dp30
S'iters'
p31
I4
sS'meta'
p32
(lp33
(dp34
S'objective'
p35
I186
sS'query_time'
p36
F156.96016311645508
sS'comp_time'
p37
F1.6273019313812256
sS'exec_cq'
p38
I43
sS'total_cq'
p39
I43
sa(dp40
g35
I26
sg36
F0.3541231155395508
sg37
F1.3342220783233643
sg38
I27
sg39
I27
sa(dp41
g35
I22
sg36
F0.0431060791015625
sg37
F0.36687421798706055
sg38
I13
sg39
I13
sa(dp42
g35
I100
sg36
F5.698204040527344e-05
sg37
F0.002893209457397461
sg38
I7
sg39
I7
sasS'total_cqs'
p43
I43
ssI4
(dp44
S'iters'
p45
I2
sS'meta'
p46
(lp47
(dp48
S'objective'
p49
I50
sS'query_time'
p50
F4.05084490776062
sS'comp_time'
p51
F0.3551061153411865
sS'exec_cq'
p52
I11
sS'total_cq'
p53
I11
sa(dp54
g49
I6
sg50
F0.1180119514465332
sg51
F0.4353830814361572
sg52
I2
sg53
I2
sasS'total_cqs'
p55
I11
ssI5
(dp56
S'iters'
p57
I3
sS'meta'
p58
(lp59
(dp60
S'objective'
p61
I0
sS'query_time'
p62
F27.33820104598999
sS'comp_time'
p63
F2.2790048122406006
sS'exec_cq'
p64
I8
sS'total_cq'
p65
I8
sa(dp66
g61
I4
sg62
F0.33051609992980957
sg63
F1.270108938217163
sg64
I3
sg65
I3
sa(dp67
g61
I1
sg62
F0.19011187553405762
sg63
F0.6625750064849854
sg64
I2
sg65
I2
sasS'total_cqs'
p68
I8
ssI6
(dp69
S'iters'
p70
I4
sS'meta'
p71
(lp72
(dp73
S'objective'
p74
I63
sS'query_time'
p75
F30.024719953536987
sS'comp_time'
p76
F2.2359790802001953
sS'exec_cq'
p77
I18
sS'total_cq'
p78
I18
sa(dp79
g74
I0
sg75
F0.6940031051635742
sg76
F2.7957000732421875
sg77
I7
sg78
I7
sa(dp80
g74
I5
sg75
F0.44103002548217773
sg76
F1.6654839515686035
sg77
I3
sg78
I3
sa(dp81
g74
I9
sg75
F0.28450608253479004
sg76
F1.2679460048675537
sg77
I2
sg78
I2
sasS'total_cqs'
p82
I18
ssI7
(dp83
S'iters'
p84
I3
sS'meta'
p85
(lp86
(dp87
S'objective'
p88
I1
sS'query_time'
p89
F10.044800996780396
sS'comp_time'
p90
F0.9311659336090088
sS'exec_cq'
p91
I9
sS'total_cq'
p92
I9
sa(dp93
g88
I3
sg89
F0.167741060256958
sg90
F0.41361212730407715
sg91
I4
sg92
I4
sa(dp94
g88
I1
sg89
F0.10354208946228027
sg90
F0.3713071346282959
sg91
I2
sg92
I2
sasS'total_cqs'
p95
I9
ssI8
(dp96
S'iters'
p97
I5
sS'meta'
p98
(lp99
(dp100
S'objective'
p101
I236
sS'query_time'
p102
F0.13766813278198242
sS'comp_time'
p103
F0.0013620853424072266
sS'exec_cq'
p104
I27
sS'total_cq'
p105
I27
sa(dp106
g101
I223
sg102
F0.00012803077697753906
sg103
F0.0003159046173095703
sg104
I22
sg105
I22
sa(dp107
g101
I217
sg102
F6.29425048828125e-05
sg103
F0.000102996826171875
sg104
I19
sg105
I19
sa(dp108
g101
I197
sg102
F8.0108642578125e-05
sg103
F9.322166442871094e-05
sg104
I18
sg105
I18
sa(dp109
g101
I189
sg102
F5.3882598876953125e-05
sg103
F5.507469177246094e-05
sg104
I17
sg105
I17
sasS'total_cqs'
p110
I27
ssI9
(dp111
S'iters'
p112
I3
sS'meta'
p113
(lp114
(dp115
S'objective'
p116
I4
sS'query_time'
p117
F0.06963396072387695
sS'comp_time'
p118
F0.0002930164337158203
sS'exec_cq'
p119
I7
sS'total_cq'
p120
I7
sa(dp121
g116
I0
sg117
F3.218650817871094e-05
sg118
F6.318092346191406e-05
sg119
I4
sg120
I4
sa(dp122
g116
I2
sg117
F1.6927719116210938e-05
sg118
F5.125999450683594e-05
sg119
I2
sg120
I2
sasS'total_cqs'
p123
I7
ssI10
(dp124
S'iters'
p125
I6
sS'meta'
p126
(lp127
(dp128
S'objective'
p129
I582
sS'query_time'
p130
F0.4520440101623535
sS'comp_time'
p131
F0.00840616226196289
sS'exec_cq'
p132
I51
sS'total_cq'
p133
I51
sa(dp134
g129
I290
sg130
F0.0005209445953369141
sg131
F0.0014979839324951172
sg132
I37
sg133
I37
sa(dp135
g129
I2
sg130
F0.001583099365234375
sg131
F0.0004978179931640625
sg132
I12
sg133
I12
sa(dp136
g129
I23
sg130
F6.604194641113281e-05
sg131
F0.00018930435180664062
sg132
I6
sg133
I6
sa(dp137
g129
I1
sg130
F3.600120544433594e-05
sg131
F0.00015020370483398438
sg132
I3
sg133
I3
sa(dp138
g129
I19
sg130
F2.8848648071289062e-05
sg131
F0.00013589859008789062
sg132
I2
sg133
I2
sasS'total_cqs'
p139
I51
ssI11
(dp140
S'iters'
p141
I5
sS'meta'
p142
(lp143
(dp144
S'objective'
p145
I844
sS'query_time'
p146
F0.6044909954071045
sS'comp_time'
p147
F0.014161825180053711
sS'exec_cq'
p148
I63
sS'total_cq'
p149
I63
sa(dp150
g145
I846
sg146
F0.0010879039764404297
sg147
F0.004386186599731445
sg148
I47
sg149
I47
sa(dp151
g145
I14
sg146
F0.0016109943389892578
sg147
F0.0010221004486083984
sg148
I9
sg149
I9
sa(dp152
g145
I59
sg146
F3.314018249511719e-05
sg147
F0.00010824203491210938
sg148
I4
sg149
I4
sa(dp153
g145
I26
sg146
F1.5974044799804688e-05
sg147
F5.91278076171875e-05
sg148
I2
sg149
I2
sasS'total_cqs'
p154
I63
ssI12
(dp155
S'iters'
p156
I5
sS'meta'
p157
(lp158
(dp159
S'objective'
p160
I397
sS'query_time'
p161
F0.37136006355285645
sS'comp_time'
p162
F0.0070989131927490234
sS'exec_cq'
p163
I50
sS'total_cq'
p164
I50
sa(dp165
g160
I394
sg161
F0.0003490447998046875
sg162
F0.0015799999237060547
sg163
I33
sg164
I33
sa(dp166
g160
I9
sg161
F0.0011019706726074219
sg162
F0.0009388923645019531
sg163
I8
sg164
I8
sa(dp167
g160
I3
sg161
F5.888938903808594e-05
sg162
F0.0002791881561279297
sg163
I5
sg164
I5
sa(dp168
g160
I4
sg161
F2.09808349609375e-05
sg162
F8.392333984375e-05
sg163
I3
sg164
I3
sasS'total_cqs'
p169
I50
ssI13
(dp170
S'iters'
p171
I3
sS'meta'
p172
(lp173
(dp174
S'objective'
p175
I50
sS'query_time'
p176
F0.18472504615783691
sS'comp_time'
p177
F0.0004048347473144531
sS'exec_cq'
p178
I20
sS'total_cq'
p179
I20
sa(dp180
g175
I38
sg176
F5.4836273193359375e-05
sg177
F7.104873657226562e-05
sg178
I9
sg179
I9
sa(dp181
g175
I1
sg176
F0.0012829303741455078
sg177
F6.508827209472656e-05
sg178
I2
sg179
I2
sasS'total_cqs'
p182
I20
ssI14
(dp183
S'iters'
p184
I3
sS'meta'
p185
(lp186
(dp187
S'objective'
p188
I1
sS'query_time'
p189
F27.66052222251892
sS'comp_time'
p190
F1.220947027206421
sS'exec_cq'
p191
I9
sS'total_cq'
p192
I9
sa(dp193
g188
I5
sg189
F0.004217863082885742
sg190
F0.017148733139038086
sg191
I3
sg192
I3
sa(dp194
g188
I2
sg189
F0.003406047821044922
sg190
F0.017524003982543945
sg191
I2
sg192
I2
sasS'total_cqs'
p195
I9
ssI15
(dp196
S'iters'
p197
I4
sS'meta'
p198
(lp199
(dp200
S'objective'
p201
I2
sS'query_time'
p202
F3.172017812728882
sS'comp_time'
p203
F0.1558396816253662
sS'exec_cq'
p204
I11
sS'total_cq'
p205
I11
sa(dp206
g201
I0
sg202
F0.03076004981994629
sg203
F0.12950706481933594
sg204
I6
sg205
I6
sa(dp207
g201
I1
sg202
F0.018458843231201172
sg203
F0.07958507537841797
sg204
I4
sg205
I4
sa(dp208
g201
I5
sg202
F0.0069811344146728516
sg203
F0.05723381042480469
sg204
I2
sg205
I2
sasS'total_cqs'
p209
I11
ssI16
(dp210
S'iters'
p211
I1
sS'meta'
p212
(lp213
(dp214
S'objective'
p215
I26
sS'query_time'
p216
F0.029383182525634766
sS'comp_time'
p217
F0.00013780593872070312
sS'exec_cq'
p218
I8
sS'total_cq'
p219
I8
sasS'total_cqs'
p220
I8
ssI17
(dp221
S'iters'
p222
I3
sS'meta'
p223
(lp224
(dp225
S'objective'
p226
I4
sS'query_time'
p227
F0.8856420516967773
sS'comp_time'
p228
F0.017123937606811523
sS'exec_cq'
p229
I11
sS'total_cq'
p230
I11
sa(dp231
g226
I17
sg227
F0.00011777877807617188
sg228
F0.0005390644073486328
sg229
I5
sg230
I5
sa(dp232
g226
I12
sg227
F9.512901306152344e-05
sg228
F0.0005030632019042969
sg229
I4
sg230
I4
sasS'total_cqs'
p233
I11
ssI18
(dp234
S'iters'
p235
I3
sS'meta'
p236
(lp237
(dp238
S'objective'
p239
I30
sS'query_time'
p240
F0.2769629955291748
sS'comp_time'
p241
F0.004522085189819336
sS'exec_cq'
p242
I11
sS'total_cq'
p243
I11
sa(dp244
g239
I28
sg240
F0.000270843505859375
sg241
F0.0013570785522460938
sg242
I8
sg243
I8
sa(dp245
g239
I24
sg240
F7.796287536621094e-05
sg241
F0.0003070831298828125
sg242
I7
sg243
I7
sasS'total_cqs'
p246
I11
ssI22
(dp247
S'iters'
p248
I1
sS'meta'
p249
(lp250
(dp251
S'objective'
p252
I151
sS'query_time'
p253
F0.07051706314086914
sS'comp_time'
p254
F0.000225067138671875
sS'exec_cq'
p255
I18
sS'total_cq'
p256
I18
sasS'total_cqs'
p257
I18
ssI23
(dp258
S'iters'
p259
I3
sS'meta'
p260
(lp261
(dp262
S'objective'
p263
I106
sS'query_time'
p264
F0.07197785377502441
sS'comp_time'
p265
F0.0005998611450195312
sS'exec_cq'
p266
I16
sS'total_cq'
p267
I16
sa(dp268
g263
I95
sg264
F6.008148193359375e-05
sg265
F7.486343383789062e-05
sg266
I15
sg267
I15
sa(dp269
g263
I90
sg264
F4.315376281738281e-05
sg265
F5.1975250244140625e-05
sg266
I13
sg267
I13
sasS'total_cqs'
p270
I16
ssI26
(dp271
S'iters'
p272
I1
sS'meta'
p273
(lp274
(dp275
S'objective'
p276
I859
sS'query_time'
p277
F0.1896960735321045
sS'comp_time'
p278
F0.00019478797912597656
sS'exec_cq'
p279
I42
sS'total_cq'
p280
I42
sasS'total_cqs'
p281
I42
ssI27
(dp282
S'iters'
p283
I3
sS'meta'
p284
(lp285
(dp286
S'objective'
p287
I321
sS'query_time'
p288
F17.416620016098022
sS'comp_time'
p289
F1.806549072265625
sS'exec_cq'
p290
I30
sS'total_cq'
p291
I30
sa(dp292
g287
I2
sg288
F0.4852719306945801
sg289
F2.956639051437378
sg290
I5
sg291
I5
sa(dp293
g287
I3
sg288
F0.08743691444396973
sg289
F0.6438422203063965
sg290
I3
sg291
I3
sasS'total_cqs'
p294
I30
ssI29
(dp295
S'iters'
p296
I5
sS'meta'
p297
(lp298
(dp299
S'objective'
p300
I369
sS'query_time'
p301
F134.50778317451477
sS'comp_time'
p302
F15.75127100944519
sS'exec_cq'
p303
I49
sS'total_cq'
p304
I49
sa(dp305
g300
I26
sg301
F0.021451950073242188
sg302
F0.04576587677001953
sg303
I17
sg304
I17
sa(dp306
g300
I5
sg301
F0.5881879329681396
sg302
F0.052412986755371094
sg303
I9
sg304
I9
sa(dp307
g300
I11
sg301
F0.005822896957397461
sg302
F0.027040958404541016
sg303
I5
sg304
I5
sa(dp308
g300
I5
sg301
F0.0012540817260742188
sg302
F0.004720926284790039
sg303
I3
sg304
I3
sasS'total_cqs'
p309
I49
ssI30
(dp310
S'iters'
p311
I1
sS'meta'
p312
(lp313
(dp314
S'objective'
p315
I1
sS'query_time'
p316
F0.7033398151397705
sS'comp_time'
p317
F0.0229949951171875
sS'exec_cq'
p318
I2
sS'total_cq'
p319
I2
sasS'total_cqs'
p320
I2
ssI32
(dp321
S'iters'
p322
I1
sS'meta'
p323
(lp324
(dp325
S'objective'
p326
I1
sS'query_time'
p327
F0.015772104263305664
sS'comp_time'
p328
F0.0002868175506591797
sS'exec_cq'
p329
I2
sS'total_cq'
p330
I2
sasS'total_cqs'
p331
I2
ssI33
(dp332
S'iters'
p333
I5
sS'meta'
p334
(lp335
(dp336
S'objective'
p337
I3870
sS'query_time'
p338
F14.01404595375061
sS'comp_time'
p339
F0.1185770034790039
sS'exec_cq'
p340
I103
sS'total_cq'
p341
I103
sa(dp342
g337
I9
sg338
F0.007370948791503906
sg339
F0.03840303421020508
sg340
I16
sg341
I16
sa(dp343
g337
I11
sg338
F0.0044879913330078125
sg339
F0.015865087509155273
sg340
I10
sg341
I10
sa(dp344
g337
I2
sg338
F0.002546072006225586
sg339
F0.008949041366577148
sg340
I7
sg341
I7
sa(dp345
g337
I18
sg338
F0.0006639957427978516
sg339
F0.0030660629272460938
sg340
I2
sg341
I2
sasS'total_cqs'
p346
I103
ssI34
(dp347
S'iters'
p348
I1
sS'meta'
p349
(lp350
(dp351
S'objective'
p352
I1
sS'query_time'
p353
F0.01817607879638672
sS'comp_time'
p354
F0.0009632110595703125
sS'exec_cq'
p355
I2
sS'total_cq'
p356
I2
sasS'total_cqs'
p357
I2
ssI35
(dp358
S'iters'
p359
I9
sS'meta'
p360
(lp361
(dp362
S'objective'
p363
I2247
sS'query_time'
p364
F50.44140291213989
sS'comp_time'
p365
F3.3598320484161377
sS'exec_cq'
p366
I70
sS'total_cq'
p367
I70
sa(dp368
g363
I2256
sg364
F1.0356638431549072
sg365
F3.597202777862549
sg366
I67
sg367
I67
sa(dp369
g363
I2233
sg364
F0.8423898220062256
sg365
F3.300542116165161
sg366
I66
sg367
I66
sa(dp370
g363
I2210
sg364
F0.8051490783691406
sg365
F3.399670124053955
sg366
I65
sg367
I65
sa(dp371
g363
I2205
sg364
F0.6928229331970215
sg365
F3.348519802093506
sg366
I64
sg367
I64
sa(dp372
g363
I2213
sg364
F0.7038390636444092
sg365
F3.2844979763031006
sg366
I63
sg367
I63
sa(dp373
g363
I1868
sg364
F0.21965694427490234
sg365
F0.2229931354522705
sg366
I62
sg367
I62
sa(dp374
g363
I35
sg364
F0.053784847259521484
sg365
F0.044183969497680664
sg366
I4
sg367
I4
sa(dp375
g363
I33
sg364
F0.07188606262207031
sg365
F0.03356814384460449
sg366
I3
sg367
I3
sasS'total_cqs'
p376
I70
ssI36
(dp377
S'iters'
p378
I5
sS'meta'
p379
(lp380
(dp381
S'objective'
p382
I411
sS'query_time'
p383
F0.7610859870910645
sS'comp_time'
p384
F0.027915000915527344
sS'exec_cq'
p385
I33
sS'total_cq'
p386
I33
sa(dp387
g382
I358
sg383
F0.004606008529663086
sg384
F0.0220639705657959
sg385
I29
sg386
I29
sa(dp388
g382
I362
sg383
F0.0015189647674560547
sg384
F0.007573843002319336
sg385
I25
sg386
I25
sa(dp389
g382
I346
sg383
F0.001046895980834961
sg384
F0.004906892776489258
sg385
I24
sg386
I24
sa(dp390
g382
I333
sg383
F0.00012493133544921875
sg384
F0.00032210350036621094
sg385
I23
sg386
I23
sasS'total_cqs'
p391
I33
ssI37
(dp392
S'iters'
p393
I1
sS'meta'
p394
(lp395
(dp396
S'objective'
p397
I1
sS'query_time'
p398
F0.01631307601928711
sS'comp_time'
p399
F0.0002949237823486328
sS'exec_cq'
p400
I2
sS'total_cq'
p401
I2
sasS'total_cqs'
p402
I2
ssI38
(dp403
S'iters'
p404
I2
sS'meta'
p405
(lp406
(dp407
S'objective'
p408
I0
sS'query_time'
p409
F0.0298459529876709
sS'comp_time'
p410
F0.0008540153503417969
sS'exec_cq'
p411
I4
sS'total_cq'
p412
I4
sa(dp413
g408
I1
sg409
F9.083747863769531e-05
sg410
F0.0003821849822998047
sg411
I2
sg412
I2
sasS'total_cqs'
p414
I4
ssI39
(dp415
S'iters'
p416
I2
sS'meta'
p417
(lp418
(dp419
S'objective'
p420
I746
sS'query_time'
p421
F0.20414185523986816
sS'comp_time'
p422
F0.0015211105346679688
sS'exec_cq'
p423
I44
sS'total_cq'
p424
I44
sa(dp425
g420
I822
sg421
F0.0003159046173095703
sg422
F0.0011289119720458984
sg423
I37
sg424
I37
sasS'total_cqs'
p426
I44
ssI40
(dp427
S'iters'
p428
I1
sS'meta'
p429
(lp430
(dp431
S'objective'
p432
I18
sS'query_time'
p433
F0.04501914978027344
sS'comp_time'
p434
F0.00010204315185546875
sS'exec_cq'
p435
I7
sS'total_cq'
p436
I7
sasS'total_cqs'
p437
I7
ssI41
(dp438
S'iters'
p439
I2
sS'meta'
p440
(lp441
(dp442
S'objective'
p443
I62
sS'query_time'
p444
F0.08260202407836914
sS'comp_time'
p445
F0.0001399517059326172
sS'exec_cq'
p446
I12
sS'total_cq'
p447
I12
sa(dp448
g443
I56
sg444
F5.1021575927734375e-05
sg445
F6.890296936035156e-05
sg446
I11
sg447
I11
sasS'total_cqs'
p449
I12
ssI42
(dp450
S'iters'
p451
I2
sS'meta'
p452
(lp453
(dp454
S'objective'
p455
I801
sS'query_time'
p456
F0.1377260684967041
sS'comp_time'
p457
F0.0001652240753173828
sS'exec_cq'
p458
I41
sS'total_cq'
p459
I41
sa(dp460
g455
I787
sg456
F0.0001499652862548828
sg457
F0.000102996826171875
sg458
I40
sg459
I40
sasS'total_cqs'
p461
I41
ssI43
(dp462
S'iters'
p463
I1
sS'meta'
p464
(lp465
(dp466
S'objective'
p467
I18
sS'query_time'
p468
F0.03565382957458496
sS'comp_time'
p469
F0.00011014938354492188
sS'exec_cq'
p470
I7
sS'total_cq'
p471
I7
sasS'total_cqs'
p472
I7
ssI44
(dp473
S'iters'
p474
I4
sS'meta'
p475
(lp476
(dp477
S'objective'
p478
I790
sS'query_time'
p479
F0.18482685089111328
sS'comp_time'
p480
F0.0009708404541015625
sS'exec_cq'
p481
I47
sS'total_cq'
p482
I47
sa(dp483
g478
I803
sg479
F0.00028586387634277344
sg480
F0.0013051033020019531
sg481
I40
sg482
I40
sa(dp484
g478
I8
sg479
F0.0015060901641845703
sg480
F0.0006771087646484375
sg481
I3
sg482
I3
sa(dp485
g478
I7
sg479
F0.000102996826171875
sg480
F0.0007169246673583984
sg481
I2
sg482
I2
sasS'total_cqs'
p486
I47
ssI46
(dp487
S'iters'
p488
I2
sS'meta'
p489
(lp490
(dp491
S'objective'
p492
I11
sS'query_time'
p493
F0.022255897521972656
sS'comp_time'
p494
F0.00026702880859375
sS'exec_cq'
p495
I6
sS'total_cq'
p496
I6
sa(dp497
g492
I8
sg493
F5.1975250244140625e-05
sg494
F0.00019407272338867188
sg495
I5
sg496
I5
sasS'total_cqs'
p498
I6
ssI47
(dp499
S'iters'
p500
I1
sS'meta'
p501
(lp502
(dp503
S'objective'
p504
I1
sS'query_time'
p505
F0.008867025375366211
sS'comp_time'
p506
F0.0002598762512207031
sS'exec_cq'
p507
I2
sS'total_cq'
p508
I2
sasS'total_cqs'
p509
I2
ssI50
(dp510
S'iters'
p511
I2
sS'meta'
p512
(lp513
(dp514
S'objective'
p515
I5
sS'query_time'
p516
F0.013743877410888672
sS'comp_time'
p517
F0.0001251697540283203
sS'exec_cq'
p518
I5
sS'total_cq'
p519
I5
sa(dp520
g515
I2
sg516
F2.7894973754882812e-05
sg517
F9.489059448242188e-05
sg518
I4
sg519
I4
sasS'total_cqs'
p521
I5
ssI51
(dp522
S'iters'
p523
I1
sS'meta'
p524
(lp525
(dp526
S'objective'
p527
I1
sS'query_time'
p528
F0.008671045303344727
sS'comp_time'
p529
F0.00015783309936523438
sS'exec_cq'
p530
I2
sS'total_cq'
p531
I2
sasS'total_cqs'
p532
I2
ssI52
(dp533
S'iters'
p534
I1
sS'meta'
p535
(lp536
(dp537
S'objective'
p538
I1
sS'query_time'
p539
F0.010391950607299805
sS'comp_time'
p540
F0.0001881122589111328
sS'exec_cq'
p541
I2
sS'total_cq'
p542
I2
sasS'total_cqs'
p543
I2
ssI53
(dp544
S'iters'
p545
I2
sS'meta'
p546
(lp547
(dp548
S'objective'
p549
I0
sS'query_time'
p550
F0.022317171096801758
sS'comp_time'
p551
F0.0006058216094970703
sS'exec_cq'
p552
I4
sS'total_cq'
p553
I4
sa(dp554
g549
I1
sg550
F8.893013000488281e-05
sg551
F0.00044798851013183594
sg552
I2
sg553
I2
sasS'total_cqs'
p555
I4
ssI54
(dp556
S'iters'
p557
I1
sS'meta'
p558
(lp559
(dp560
S'objective'
p561
I0
sS'query_time'
p562
F0.012960195541381836
sS'comp_time'
p563
F0.0002739429473876953
sS'exec_cq'
p564
I3
sS'total_cq'
p565
I3
sasS'total_cqs'
p566
I3
ssI55
(dp567
S'iters'
p568
I7
sS'meta'
p569
(lp570
(dp571
S'objective'
p572
I4317
sS'query_time'
p573
F2.3237531185150146
sS'comp_time'
p574
F0.03251504898071289
sS'exec_cq'
p575
I109
sS'total_cq'
p576
I109
sa(dp577
g572
I4240
sg573
F0.0007579326629638672
sg574
F0.001605987548828125
sg575
I97
sg576
I97
sa(dp578
g572
I4348
sg573
F0.0003008842468261719
sg574
F0.0008141994476318359
sg575
I91
sg576
I91
sa(dp579
g572
I4213
sg573
F0.0002892017364501953
sg574
F0.0007507801055908203
sg575
I87
sg576
I87
sa(dp580
g572
I4174
sg573
F0.00025582313537597656
sg574
F0.0007100105285644531
sg575
I85
sg576
I85
sa(dp581
g572
I4153
sg573
F0.00026416778564453125
sg574
F0.0005540847778320312
sg575
I84
sg576
I84
sa(dp582
g572
I4100
sg573
F0.0002460479736328125
sg574
F0.0004699230194091797
sg575
I82
sg576
I82
sasS'total_cqs'
p583
I109
ssI56
(dp584
S'iters'
p585
I5
sS'meta'
p586
(lp587
(dp588
S'objective'
p589
I1682
sS'query_time'
p590
F3.2153360843658447
sS'comp_time'
p591
F0.12828302383422852
sS'exec_cq'
p592
I76
sS'total_cq'
p593
I76
sa(dp594
g589
I8
sg590
F0.004842042922973633
sg591
F0.009217977523803711
sg592
I16
sg593
I16
sa(dp595
g589
I27
sg590
F0.002650022506713867
sg591
F0.005666971206665039
sg592
I9
sg593
I9
sa(dp596
g589
I13
sg590
F0.0014309883117675781
sg591
F0.0043811798095703125
sg592
I5
sg593
I5
sa(dp597
g589
I14
sg590
F0.00047707557678222656
sg591
F0.002087116241455078
sg592
I3
sg593
I3
sasS'total_cqs'
p598
I76
ssI57
(dp599
S'iters'
p600
I6
sS'meta'
p601
(lp602
(dp603
S'objective'
p604
I220
sS'query_time'
p605
F68.28950309753418
sS'comp_time'
p606
F3.389174222946167
sS'exec_cq'
p607
I51
sS'total_cq'
p608
I51
sa(dp609
g604
I17
sg605
F0.014438867568969727
sg606
F0.027415037155151367
sg607
I27
sg608
I27
sa(dp610
g604
I5
sg605
F0.0021469593048095703
sg606
F0.005793094635009766
sg607
I12
sg608
I12
sa(dp611
g604
I8
sg605
F0.0017681121826171875
sg606
F0.005394935607910156
sg607
I6
sg608
I6
sa(dp612
g604
I26
sg605
F0.0004401206970214844
sg606
F0.0023441314697265625
sg607
I3
sg608
I3
sa(dp613
g604
I11
sg605
F0.0002970695495605469
sg606
F0.0018270015716552734
sg607
I2
sg608
I2
sasS'total_cqs'
p614
I51
ssI58
(dp615
S'iters'
p616
I8
sS'meta'
p617
(lp618
(dp619
S'objective'
p620
I90425
sS'query_time'
p621
F291.798180103302
sS'comp_time'
p622
F16.7292058467865
sS'exec_cq'
p623
I486
sS'total_cq'
p624
I486
sa(dp625
g620
I8516
sg621
F0.0351710319519043
sg622
F0.19731807708740234
sg623
I64
sg624
I64
sa(dp626
g620
I2449
sg621
F0.02521800994873047
sg622
F0.19045305252075195
sg623
I52
sg624
I52
sa(dp627
g620
I2581
sg621
F0.01447606086730957
sg622
F0.8077912330627441
sg623
I32
sg624
I32
sa(dp628
g620
I33
sg621
F0.007650852203369141
sg622
F0.02236008644104004
sg623
I10
sg624
I10
sa(dp629
g620
I1
sg621
F0.00619816780090332
sg622
F0.01572895050048828
sg623
I6
sg624
I6
sa(dp630
g620
I29
sg621
F0.0022280216217041016
sg622
F0.008745908737182617
sg623
I3
sg624
I3
sa(dp631
g620
I211
sg621
F0.0007240772247314453
sg622
F0.0033721923828125
sg623
I2
sg624
I2
sasS'total_cqs'
p632
I486
ssI59
(dp633
S'iters'
p634
I2
sS'meta'
p635
(lp636
(dp637
S'objective'
p638
I12
sS'query_time'
p639
F0.05339789390563965
sS'comp_time'
p640
F0.0009391307830810547
sS'exec_cq'
p641
I7
sS'total_cq'
p642
I7
sa(dp643
g638
I2
sg639
F0.0001571178436279297
sg640
F0.0008339881896972656
sg641
I2
sg642
I2
sasS'total_cqs'
p644
I7
ssI60
(dp645
S'iters'
p646
I2
sS'meta'
p647
(lp648
(dp649
S'objective'
p650
I5
sS'query_time'
p651
F0.02105998992919922
sS'comp_time'
p652
F0.00033211708068847656
sS'exec_cq'
p653
I5
sS'total_cq'
p654
I5
sa(dp655
g650
I2
sg651
F6.198883056640625e-05
sg652
F0.0003108978271484375
sg653
I4
sg654
I4
sasS'total_cqs'
p656
I5
ssI62
(dp657
S'iters'
p658
I3
sS'meta'
p659
(lp660
(dp661
S'objective'
p662
I56
sS'query_time'
p663
F0.03362011909484863
sS'comp_time'
p664
F0.0001690387725830078
sS'exec_cq'
p665
I12
sS'total_cq'
p666
I12
sa(dp667
g662
I49
sg663
F4.1961669921875e-05
sg664
F5.984306335449219e-05
sg665
I9
sg666
I9
sa(dp668
g662
I44
sg663
F3.2901763916015625e-05
sg664
F5.221366882324219e-05
sg665
I8
sg666
I8
sasS'total_cqs'
p669
I12
ssI64
(dp670
S'iters'
p671
I3
sS'meta'
p672
(lp673
(dp674
S'objective'
p675
I20
sS'query_time'
p676
F0.16983604431152344
sS'comp_time'
p677
F0.0075948238372802734
sS'exec_cq'
p678
I12
sS'total_cq'
p679
I12
sa(dp680
g675
I3
sg676
F9.799003601074219e-05
sg677
F0.0003662109375
sg678
I4
sg679
I4
sa(dp681
g675
I2
sg676
F2.288818359375e-05
sg677
F9.775161743164062e-05
sg678
I2
sg679
I2
sasS'total_cqs'
p682
I12
ssI65
(dp683
S'iters'
p684
I4
sS'meta'
p685
(lp686
(dp687
S'objective'
p688
I150
sS'query_time'
p689
F0.9067659378051758
sS'comp_time'
p690
F0.04166007041931152
sS'exec_cq'
p691
I27
sS'total_cq'
p692
I27
sa(dp693
g688
I0
sg689
F0.0012540817260742188
sg690
F0.004406929016113281
sg691
I7
sg692
I7
sa(dp694
g688
I13
sg689
F0.0002541542053222656
sg690
F0.0017118453979492188
sg691
I3
sg692
I3
sa(dp695
g688
I5
sg689
F0.00019598007202148438
sg690
F0.0011489391326904297
sg691
I2
sg692
I2
sasS'total_cqs'
p696
I27
ssI67
(dp697
S'iters'
p698
I2
sS'meta'
p699
(lp700
(dp701
S'objective'
p702
I570
sS'query_time'
p703
F1.3938438892364502
sS'comp_time'
p704
F0.006463050842285156
sS'exec_cq'
p705
I35
sS'total_cq'
p706
I35
sa(dp707
g702
I8
sg703
F0.001188039779663086
sg704
F0.005687236785888672
sg705
I2
sg706
I2
sasS'total_cqs'
p708
I35
ssI69
(dp709
S'iters'
p710
I1
sS'meta'
p711
(lp712
(dp713
S'objective'
p714
I1272
sS'query_time'
p715
F0.23622703552246094
sS'comp_time'
p716
F0.0002079010009765625
sS'exec_cq'
p717
I51
sS'total_cq'
p718
I51
sasS'total_cqs'
p719
I51
ssI70
(dp720
S'iters'
p721
I2
sS'meta'
p722
(lp723
(dp724
S'objective'
p725
I9
sS'query_time'
p726
F0.021973133087158203
sS'comp_time'
p727
F0.0002269744873046875
sS'exec_cq'
p728
I6
sS'total_cq'
p729
I6
sa(dp730
g725
I7
sg726
F5.5789947509765625e-05
sg727
F0.00017786026000976562
sg728
I5
sg729
I5
sasS'total_cqs'
p731
I6
ssI71
(dp732
S'iters'
p733
I5
sS'meta'
p734
(lp735
(dp736
S'objective'
p737
I3261
sS'query_time'
p738
F0.3917689323425293
sS'comp_time'
p739
F0.0008339881896972656
sS'exec_cq'
p740
I85
sS'total_cq'
p741
I85
sa(dp742
g737
I3168
sg738
F0.0003330707550048828
sg739
F0.0006430149078369141
sg740
I81
sg741
I81
sa(dp743
g737
I3025
sg738
F0.00030517578125
sg739
F0.0005998611450195312
sg740
I78
sg741
I78
sa(dp744
g737
I2883
sg738
F0.00024700164794921875
sg739
F0.00045418739318847656
sg740
I74
sg741
I74
sa(dp745
g737
I55
sg738
F0.0019559860229492188
sg739
F0.00018095970153808594
sg740
I3
sg741
I3
sasS'total_cqs'
p746
I85
ssI72
(dp747
S'iters'
p748
I4
sS'meta'
p749
(lp750
(dp751
S'objective'
p752
I12
sS'query_time'
p753
F0.38852906227111816
sS'comp_time'
p754
F0.00622105598449707
sS'exec_cq'
p755
I8
sS'total_cq'
p756
I8
sa(dp757
g752
I4
sg753
F0.0004048347473144531
sg754
F0.002418041229248047
sg755
I6
sg756
I6
sa(dp758
g752
I2
sg753
F0.00037598609924316406
sg754
F0.002537965774536133
sg755
I4
sg756
I4
sa(dp759
g752
I2
sg753
F0.00011610984802246094
sg754
F0.000621795654296875
sg755
I3
sg756
I3
sasS'total_cqs'
p760
I8
ssI75
(dp761
S'iters'
p762
I2
sS'meta'
p763
(lp764
(dp765
S'objective'
p766
I5
sS'query_time'
p767
F0.023895978927612305
sS'comp_time'
p768
F0.00011396408081054688
sS'exec_cq'
p769
I5
sS'total_cq'
p770
I5
sa(dp771
g766
I2
sg767
F2.384185791015625e-05
sg768
F7.510185241699219e-05
sg769
I4
sg770
I4
sasS'total_cqs'
p772
I5
ssI76
(dp773
S'iters'
p774
I1
sS'meta'
p775
(lp776
(dp777
S'objective'
p778
I1
sS'query_time'
p779
F0.019031047821044922
sS'comp_time'
p780
F0.00028705596923828125
sS'exec_cq'
p781
I2
sS'total_cq'
p782
I2
sasS'total_cqs'
p783
I2
ssI103
(dp784
S'iters'
p785
I2
sS'meta'
p786
(lp787
(dp788
S'objective'
p789
I60
sS'query_time'
p790
F0.0900881290435791
sS'comp_time'
p791
F0.00015616416931152344
sS'exec_cq'
p792
I12
sS'total_cq'
p793
I12
sa(dp794
g789
I55
sg790
F5.602836608886719e-05
sg791
F0.00011730194091796875
sg792
I11
sg793
I11
sasS'total_cqs'
p795
I12
ssI104
(dp796
S'iters'
p797
I2
sS'meta'
p798
(lp799
(dp800
S'objective'
p801
I0
sS'query_time'
p802
F1.5563151836395264
sS'comp_time'
p803
F0.10410213470458984
sS'exec_cq'
p804
I4
sS'total_cq'
p805
I4
sa(dp806
g801
I1
sg802
F0.016801834106445312
sg803
F0.1310269832611084
sg804
I2
sg805
I2
sasS'total_cqs'
p807
I4
ssI106
(dp808
S'iters'
p809
I1
sS'meta'
p810
(lp811
(dp812
S'objective'
p813
I4
sS'query_time'
p814
F0.030201196670532227
sS'comp_time'
p815
F0.00011420249938964844
sS'exec_cq'
p816
I4
sS'total_cq'
p817
I4
sasS'total_cqs'
p818
I4
ssI107
(dp819
S'iters'
p820
I2
sS'meta'
p821
(lp822
(dp823
S'objective'
p824
I90
sS'query_time'
p825
F0.10117006301879883
sS'comp_time'
p826
F0.00021219253540039062
sS'exec_cq'
p827
I16
sS'total_cq'
p828
I16
sa(dp829
g824
I5
sg825
F0.006973981857299805
sg826
F0.00013208389282226562
sg827
I3
sg828
I3
sasS'total_cqs'
p830
I16
ss.