(dp0
I1
(dp1
S'iters'
p2
I3
sS'meta'
p3
(lp4
(dp5
S'objective'
p6
I8
sS'query_time'
p7
F0.04857587814331055
sS'comp_time'
p8
F0.03565621376037598
sS'exec_cq'
p9
I12
sS'total_cq'
p10
I12
sa(dp11
g6
I8
sg7
F5.1021575927734375e-05
sg8
F0.0001678466796875
sg9
I10
sg10
I10
sa(dp12
g6
I7
sg7
F4.100799560546875e-05
sg8
F0.0001049041748046875
sg9
I9
sg10
I9
sasS'total_cqs'
p13
I12
ssI2
(dp14
S'iters'
p15
I7
sS'meta'
p16
(lp17
(dp18
S'objective'
p19
I19
sS'query_time'
p20
F0.06322693824768066
sS'comp_time'
p21
F0.02922797203063965
sS'exec_cq'
p22
I13
sS'total_cq'
p23
I27
sa(dp24
g19
I17
sg20
F0.07630300521850586
sg21
F0.0007429122924804688
sg22
I14
sg23
I23
sa(dp25
g19
I16
sg20
F9.989738464355469e-05
sg21
F0.0004858970642089844
sg22
I11
sg23
I20
sa(dp26
g19
I16
sg20
F6.794929504394531e-05
sg21
F0.00030612945556640625
sg22
I9
sg23
I18
sa(dp27
g19
I15
sg20
F3.1948089599609375e-05
sg21
F0.00011491775512695312
sg22
I8
sg23
I17
sa(dp28
g19
I12
sg20
F5.4836273193359375e-05
sg21
F0.00019693374633789062
sg22
I9
sg23
I16
sa(dp29
g19
I12
sg20
F3.0994415283203125e-05
sg21
F0.0001087188720703125
sg22
I7
sg23
I14
sasS'total_cqs'
p30
I27
ssI3
(dp31
S'iters'
p32
I4
sS'meta'
p33
(lp34
(dp35
S'objective'
p36
I11
sS'query_time'
p37
F76.12785291671753
sS'comp_time'
p38
F0.5977349281311035
sS'exec_cq'
p39
I16
sS'total_cq'
p40
I43
sa(dp41
g36
I1
sg37
F108.17164516448975
sg38
F2.5227856636047363
sg39
I14
sg40
I27
sa(dp42
g36
I1
sg37
F42.46069598197937
sg38
F0.6836750507354736
sg39
I9
sg40
I13
sa(dp43
g36
I4
sg37
F11.943258047103882
sg38
F0.0012989044189453125
sg39
I6
sg40
I6
sasS'total_cqs'
p44
I43
ssI4
(dp45
S'iters'
p46
I2
sS'meta'
p47
(lp48
(dp49
S'objective'
p50
I7
sS'query_time'
p51
F4.816513776779175
sS'comp_time'
p52
F1.2602839469909668
sS'exec_cq'
p53
I11
sS'total_cq'
p54
I11
sa(dp55
g50
I0
sg51
F0.49692702293395996
sg52
F1.4879276752471924
sg53
I2
sg54
I2
sasS'total_cqs'
p56
I11
ssI5
(dp57
S'iters'
p58
I3
sS'meta'
p59
(lp60
(dp61
S'objective'
p62
I0
sS'query_time'
p63
F32.63881301879883
sS'comp_time'
p64
F4.463320732116699
sS'exec_cq'
p65
I8
sS'total_cq'
p66
I8
sa(dp67
g62
I0
sg63
F0.01169896125793457
sg64
F0.05792593955993652
sg65
I4
sg66
I4
sa(dp68
g62
I0
sg63
F0.003620147705078125
sg64
F0.019950151443481445
sg65
I2
sg66
I2
sasS'total_cqs'
p69
I8
ssI6
(dp70
S'iters'
p71
I4
sS'meta'
p72
(lp73
(dp74
S'objective'
p75
I4
sS'query_time'
p76
F34.55899715423584
sS'comp_time'
p77
F3.687380790710449
sS'exec_cq'
p78
I18
sS'total_cq'
p79
I18
sa(dp80
g75
I1
sg76
F0.6444809436798096
sg77
F4.155420303344727
sg78
I7
sg79
I7
sa(dp81
g75
I0
sg76
F0.023342132568359375
sg77
F0.10545015335083008
sg78
I4
sg79
I4
sa(dp82
g75
I0
sg76
F0.1918039321899414
sg77
F0.07287120819091797
sg78
I2
sg79
I2
sasS'total_cqs'
p83
I18
ssI7
(dp84
S'iters'
p85
I3
sS'meta'
p86
(lp87
(dp88
S'objective'
p89
I1
sS'query_time'
p90
F11.208555936813354
sS'comp_time'
p91
F1.7297942638397217
sS'exec_cq'
p92
I9
sS'total_cq'
p93
I9
sa(dp94
g89
I1
sg90
F0.011780023574829102
sg91
F0.21013212203979492
sg92
I5
sg93
I5
sa(dp95
g89
I1
sg90
F0.008723974227905273
sg91
F0.16931533813476562
sg92
I3
sg93
I3
sasS'total_cqs'
p96
I9
ssI8
(dp97
S'iters'
p98
I4
sS'meta'
p99
(lp100
(dp101
S'objective'
p102
I21
sS'query_time'
p103
F0.06461215019226074
sS'comp_time'
p104
F0.031903982162475586
sS'exec_cq'
p105
I13
sS'total_cq'
p106
I27
sa(dp107
g102
I14
sg103
F0.07764101028442383
sg104
F0.0006926059722900391
sg105
I14
sg106
I24
sa(dp108
g102
I17
sg103
F4.7206878662109375e-05
sg104
F0.0002048015594482422
sg105
I10
sg106
I19
sa(dp109
g102
I16
sg103
F3.504753112792969e-05
sg104
F9.512901306152344e-05
sg105
I9
sg106
I18
sasS'total_cqs'
p110
I27
ssI9
(dp111
S'iters'
p112
I3
sS'meta'
p113
(lp114
(dp115
S'objective'
p116
I1
sS'query_time'
p117
F0.053727149963378906
sS'comp_time'
p118
F0.004730939865112305
sS'exec_cq'
p119
I7
sS'total_cq'
p120
I7
sa(dp121
g116
I0
sg117
F3.3855438232421875e-05
sg118
F0.00022125244140625
sg119
I4
sg120
I4
sa(dp122
g116
I0
sg117
F0.001661062240600586
sg118
F0.000133514404296875
sg119
I2
sg120
I2
sasS'total_cqs'
p123
I7
ssI10
(dp124
S'iters'
p125
I6
sS'meta'
p126
(lp127
(dp128
S'objective'
p129
I23
sS'query_time'
p130
F0.2026519775390625
sS'comp_time'
p131
F0.08912324905395508
sS'exec_cq'
p132
I28
sS'total_cq'
p133
I51
sa(dp134
g129
I13
sg130
F0.17890095710754395
sg131
F0.001514434814453125
sg132
I23
sg133
I37
sa(dp135
g129
I17
sg130
F0.0001621246337890625
sg131
F0.0010039806365966797
sg132
I14
sg133
I25
sa(dp136
g129
I15
sg130
F6.198883056640625e-05
sg131
F0.0002696514129638672
sg132
I11
sg133
I21
sa(dp137
g129
I1
sg130
F0.0013439655303955078
sg131
F0.0003371238708496094
sg132
I3
sg133
I3
sa(dp138
g129
I0
sg130
F1.4066696166992188e-05
sg131
F8.416175842285156e-05
sg132
I2
sg133
I2
sasS'total_cqs'
p139
I51
ssI11
(dp140
S'iters'
p141
I5
sS'meta'
p142
(lp143
(dp144
S'objective'
p145
I31
sS'query_time'
p146
F0.5616569519042969
sS'comp_time'
p147
F0.16616272926330566
sS'exec_cq'
p148
I63
sS'total_cq'
p149
I63
sa(dp150
g145
I29
sg146
F0.0013279914855957031
sg147
F0.006604433059692383
sg148
I47
sg149
I47
sa(dp151
g145
I1
sg146
F0.001965045928955078
sg147
F0.002711772918701172
sg148
I9
sg149
I9
sa(dp152
g145
I0
sg146
F3.4809112548828125e-05
sg147
F0.00021314620971679688
sg148
I4
sg149
I4
sa(dp153
g145
I0
sg146
F1.71661376953125e-05
sg147
F9.274482727050781e-05
sg148
I2
sg149
I2
sasS'total_cqs'
p154
I63
ssI12
(dp155
S'iters'
p156
I5
sS'meta'
p157
(lp158
(dp159
S'objective'
p160
I16
sS'query_time'
p161
F0.1541728973388672
sS'comp_time'
p162
F0.07647490501403809
sS'exec_cq'
p163
I28
sS'total_cq'
p164
I50
sa(dp165
g160
I17
sg161
F0.15887093544006348
sg162
F0.0027170181274414062
sg163
I22
sg164
I33
sa(dp166
g160
I0
sg161
F0.001898050308227539
sg162
F0.0018830299377441406
sg163
I8
sg164
I8
sa(dp167
g160
I0
sg161
F0.00015282630920410156
sg162
F0.0009853839874267578
sg163
I4
sg164
I4
sa(dp168
g160
I0
sg161
F2.1219253540039062e-05
sg162
F0.0001327991485595703
sg163
I2
sg164
I2
sasS'total_cqs'
p169
I50
ssI13
(dp170
S'iters'
p171
I3
sS'meta'
p172
(lp173
(dp174
S'objective'
p175
I2
sS'query_time'
p176
F0.14578700065612793
sS'comp_time'
p177
F0.03143191337585449
sS'exec_cq'
p178
I20
sS'total_cq'
p179
I20
sa(dp180
g175
I5
sg176
F5.91278076171875e-05
sg177
F0.00043892860412597656
sg178
I9
sg179
I9
sa(dp181
g175
I0
sg176
F0.0016961097717285156
sg177
F0.0001590251922607422
sg178
I2
sg179
I2
sasS'total_cqs'
p182
I20
ssI14
(dp183
S'iters'
p184
I3
sS'meta'
p185
(lp186
(dp187
S'objective'
p188
I1
sS'query_time'
p189
F32.64212512969971
sS'comp_time'
p190
F2.136894702911377
sS'exec_cq'
p191
I9
sS'total_cq'
p192
I9
sa(dp193
g188
I1
sg189
F0.010239124298095703
sg190
F0.2417888641357422
sg191
I5
sg192
I5
sa(dp194
g188
I0
sg189
F0.009528160095214844
sg190
F0.042423248291015625
sg191
I2
sg192
I2
sasS'total_cqs'
p195
I9
ssI15
(dp196
S'iters'
p197
I3
sS'meta'
p198
(lp199
(dp200
S'objective'
p201
I1
sS'query_time'
p202
F3.6986141204833984
sS'comp_time'
p203
F0.29224276542663574
sS'exec_cq'
p204
I11
sS'total_cq'
p205
I11
sa(dp206
g201
I2
sg202
F0.0007300376892089844
sg203
F0.00415492057800293
sg204
I6
sg205
I6
sa(dp207
g201
I0
sg202
F0.0004711151123046875
sg203
F0.0033948421478271484
sg204
I2
sg205
I2
sasS'total_cqs'
p208
I11
ssI16
(dp209
S'iters'
p210
I1
sS'meta'
p211
(lp212
(dp213
S'objective'
p214
I6
sS'query_time'
p215
F0.020901918411254883
sS'comp_time'
p216
F0.003359079360961914
sS'exec_cq'
p217
I8
sS'total_cq'
p218
I8
sasS'total_cqs'
p219
I8
ssI17
(dp220
S'iters'
p221
I3
sS'meta'
p222
(lp223
(dp224
S'objective'
p225
I1
sS'query_time'
p226
F0.9557540416717529
sS'comp_time'
p227
F0.05210089683532715
sS'exec_cq'
p228
I11
sS'total_cq'
p229
I11
sa(dp230
g225
I2
sg226
F0.00026297569274902344
sg227
F0.0016562938690185547
sg228
I6
sg229
I6
sa(dp231
g225
I0
sg226
F0.0002048015594482422
sg227
F0.0014066696166992188
sg228
I2
sg229
I2
sasS'total_cqs'
p232
I11
ssI18
(dp233
S'iters'
p234
I2
sS'meta'
p235
(lp236
(dp237
S'objective'
p238
I9
sS'query_time'
p239
F0.13051605224609375
sS'comp_time'
p240
F0.022562026977539062
sS'exec_cq'
p241
I5
sS'total_cq'
p242
I11
sa(dp243
g238
I8
sg239
F0.1020820140838623
sg240
F0.0019299983978271484
sg241
I10
sg242
I10
sasS'total_cqs'
p244
I11
ssI22
(dp245
S'iters'
p246
I1
sS'meta'
p247
(lp248
(dp249
S'objective'
p250
I16
sS'query_time'
p251
F0.07309508323669434
sS'comp_time'
p252
F0.03211188316345215
sS'exec_cq'
p253
I18
sS'total_cq'
p254
I18
sasS'total_cqs'
p255
I18
ssI23
(dp256
S'iters'
p257
I2
sS'meta'
p258
(lp259
(dp260
S'objective'
p261
I14
sS'query_time'
p262
F0.0530550479888916
sS'comp_time'
p263
F0.026508808135986328
sS'exec_cq'
p264
I8
sS'total_cq'
p265
I16
sa(dp266
g261
I13
sg262
F3.314018249511719e-05
sg263
F0.00011873245239257812
sg264
I7
sg265
I15
sasS'total_cqs'
p267
I16
ssI26
(dp268
S'iters'
p269
I1
sS'meta'
p270
(lp271
(dp272
S'objective'
p273
I40
sS'query_time'
p274
F0.2166130542755127
sS'comp_time'
p275
F0.10765409469604492
sS'exec_cq'
p276
I42
sS'total_cq'
p277
I42
sasS'total_cqs'
p278
I42
ssI27
(dp279
S'iters'
p280
I3
sS'meta'
p281
(lp282
(dp283
S'objective'
p284
I20
sS'query_time'
p285
F22.354259967803955
sS'comp_time'
p286
F3.545825719833374
sS'exec_cq'
p287
I30
sS'total_cq'
p288
I30
sa(dp289
g284
I1
sg285
F0.43421006202697754
sg286
F3.6621851921081543
sg287
I5
sg288
I5
sa(dp290
g284
I0
sg285
F0.06903505325317383
sg286
F0.8205151557922363
sg287
I2
sg288
I2
sasS'total_cqs'
p291
I30
ssI29
(dp292
S'iters'
p293
I5
sS'meta'
p294
(lp295
(dp296
S'objective'
p297
I15
sS'query_time'
p298
F25.678553104400635
sS'comp_time'
p299
F0.5996458530426025
sS'exec_cq'
p300
I35
sS'total_cq'
p301
I49
sa(dp302
g297
I1
sg298
F0.04509305953979492
sg299
F0.42215466499328613
sg300
I17
sg301
I17
sa(dp303
g297
I1
sg298
F0.043489933013916016
sg299
F0.41002726554870605
sg300
I9
sg301
I9
sa(dp304
g297
I1
sg298
F0.0067670345306396484
sg299
F0.029910802841186523
sg300
I5
sg301
I5
sa(dp305
g297
I1
sg298
F0.004765033721923828
sg299
F0.02094888687133789
sg300
I3
sg301
I3
sasS'total_cqs'
p306
I49
ssI30
(dp307
S'iters'
p308
I1
sS'meta'
p309
(lp310
(dp311
S'objective'
p312
I0
sS'query_time'
p313
F0.7174561023712158
sS'comp_time'
p314
F0.0433499813079834
sS'exec_cq'
p315
I2
sS'total_cq'
p316
I2
sasS'total_cqs'
p317
I2
ssI32
(dp318
S'iters'
p319
I1
sS'meta'
p320
(lp321
(dp322
S'objective'
p323
I0
sS'query_time'
p324
F0.011850833892822266
sS'comp_time'
p325
F0.0016150474548339844
sS'exec_cq'
p326
I2
sS'total_cq'
p327
I2
sasS'total_cqs'
p328
I2
ssI33
(dp329
S'iters'
p330
I5
sS'meta'
p331
(lp332
(dp333
S'objective'
p334
I71
sS'query_time'
p335
F16.03072690963745
sS'comp_time'
p336
F1.0608010292053223
sS'exec_cq'
p337
I103
sS'total_cq'
p338
I103
sa(dp339
g334
I0
sg335
F0.008774042129516602
sg336
F0.025787830352783203
sg337
I16
sg338
I16
sa(dp340
g334
I0
sg335
F0.11413884162902832
sg336
F0.01178598403930664
sg337
I8
sg338
I8
sa(dp341
g334
I0
sg335
F0.0004870891571044922
sg336
F0.0029404163360595703
sg337
I4
sg338
I4
sa(dp342
g334
I0
sg335
F0.0002770423889160156
sg336
F0.0020084381103515625
sg337
I2
sg338
I2
sasS'total_cqs'
p343
I103
ssI34
(dp344
S'iters'
p345
I1
sS'meta'
p346
(lp347
(dp348
S'objective'
p349
I0
sS'query_time'
p350
F0.019714832305908203
sS'comp_time'
p351
F0.0041010379791259766
sS'exec_cq'
p352
I2
sS'total_cq'
p353
I2
sasS'total_cqs'
p354
I2
ssI35
(dp355
S'iters'
p356
I4
sS'meta'
p357
(lp358
(dp359
S'objective'
p360
I38
sS'query_time'
p361
F22.23418402671814
sS'comp_time'
p362
F0.21998000144958496
sS'exec_cq'
p363
I50
sS'total_cq'
p364
I70
sa(dp365
g360
I2
sg361
F0.0045740604400634766
sg362
F0.10647892951965332
sg363
I16
sg364
I16
sa(dp366
g360
I1
sg361
F0.0018999576568603516
sg362
F0.006501913070678711
sg363
I7
sg364
I7
sa(dp367
g360
I1
sg361
F0.0007660388946533203
sg362
F0.004253864288330078
sg363
I3
sg364
I3
sasS'total_cqs'
p368
I70
ssI36
(dp369
S'iters'
p370
I2
sS'meta'
p371
(lp372
(dp373
S'objective'
p374
I25
sS'query_time'
p375
F0.8415508270263672
sS'comp_time'
p376
F0.0941457748413086
sS'exec_cq'
p377
I33
sS'total_cq'
p378
I33
sa(dp379
g374
I27
sg375
F0.013678789138793945
sg376
F0.004984855651855469
sg377
I28
sg378
I29
sasS'total_cqs'
p380
I33
ssI37
(dp381
S'iters'
p382
I1
sS'meta'
p383
(lp384
(dp385
S'objective'
p386
I0
sS'query_time'
p387
F0.011654138565063477
sS'comp_time'
p388
F0.0021059513092041016
sS'exec_cq'
p389
I2
sS'total_cq'
p390
I2
sasS'total_cqs'
p391
I2
ssI38
(dp392
S'iters'
p393
I2
sS'meta'
p394
(lp395
(dp396
S'objective'
p397
I0
sS'query_time'
p398
F0.04213595390319824
sS'comp_time'
p399
F0.003415346145629883
sS'exec_cq'
p400
I4
sS'total_cq'
p401
I4
sa(dp402
g397
I0
sg398
F0.00011396408081054688
sg399
F0.0008358955383300781
sg400
I2
sg401
I2
sasS'total_cqs'
p403
I4
ssI39
(dp404
S'iters'
p405
I2
sS'meta'
p406
(lp407
(dp408
S'objective'
p409
I30
sS'query_time'
p410
F0.20750689506530762
sS'comp_time'
p411
F0.09175944328308105
sS'exec_cq'
p412
I44
sS'total_cq'
p413
I44
sa(dp414
g409
I35
sg410
F0.0005068778991699219
sg411
F0.0021181106567382812
sg412
I37
sg413
I37
sasS'total_cqs'
p415
I44
ssI40
(dp416
S'iters'
p417
I1
sS'meta'
p418
(lp419
(dp420
S'objective'
p421
I5
sS'query_time'
p422
F0.032933950424194336
sS'comp_time'
p423
F0.005977153778076172
sS'exec_cq'
p424
I7
sS'total_cq'
p425
I7
sasS'total_cqs'
p426
I7
ssI41
(dp427
S'iters'
p428
I1
sS'meta'
p429
(lp430
(dp431
S'objective'
p432
I10
sS'query_time'
p433
F0.08442902565002441
sS'comp_time'
p434
F0.01653599739074707
sS'exec_cq'
p435
I12
sS'total_cq'
p436
I12
sasS'total_cqs'
p437
I12
ssI42
(dp438
S'iters'
p439
I2
sS'meta'
p440
(lp441
(dp442
S'objective'
p443
I39
sS'query_time'
p444
F0.053999900817871094
sS'comp_time'
p445
F0.20194482803344727
sS'exec_cq'
p446
I21
sS'total_cq'
p447
I41
sa(dp448
g443
I38
sg444
F8.082389831542969e-05
sg445
F0.00017404556274414062
sg446
I20
sg447
I40
sasS'total_cqs'
p449
I41
ssI43
(dp450
S'iters'
p451
I1
sS'meta'
p452
(lp453
(dp454
S'objective'
p455
I5
sS'query_time'
p456
F0.031042098999023438
sS'comp_time'
p457
F0.00635981559753418
sS'exec_cq'
p458
I7
sS'total_cq'
p459
I7
sasS'total_cqs'
p460
I7
ssI44
(dp461
S'iters'
p462
I4
sS'meta'
p463
(lp464
(dp465
S'objective'
p466
I33
sS'query_time'
p467
F0.15914011001586914
sS'comp_time'
p468
F0.14673900604248047
sS'exec_cq'
p469
I47
sS'total_cq'
p470
I47
sa(dp471
g466
I34
sg467
F0.0002949237823486328
sg468
F0.0018739700317382812
sg469
I40
sg470
I40
sa(dp472
g466
I1
sg467
F0.0015060901641845703
sg468
F0.001959085464477539
sg469
I3
sg470
I3
sa(dp473
g466
I0
sg467
F0.00011205673217773438
sg468
F0.0007727146148681641
sg469
I2
sg470
I2
sasS'total_cqs'
p474
I47
ssI46
(dp475
S'iters'
p476
I2
sS'meta'
p477
(lp478
(dp479
S'objective'
p480
I4
sS'query_time'
p481
F0.014241933822631836
sS'comp_time'
p482
F0.0027742385864257812
sS'exec_cq'
p483
I4
sS'total_cq'
p484
I6
sa(dp485
g480
I3
sg481
F0.005036830902099609
sg482
F0.0001289844512939453
sg483
I5
sg484
I5
sasS'total_cqs'
p486
I6
ssI47
(dp487
S'iters'
p488
I1
sS'meta'
p489
(lp490
(dp491
S'objective'
p492
I0
sS'query_time'
p493
F0.009547948837280273
sS'comp_time'
p494
F0.0016527175903320312
sS'exec_cq'
p495
I2
sS'total_cq'
p496
I2
sasS'total_cqs'
p497
I2
ssI50
(dp498
S'iters'
p499
I3
sS'meta'
p500
(lp501
(dp502
S'objective'
p503
I3
sS'query_time'
p504
F0.013959169387817383
sS'comp_time'
p505
F0.0022628307342529297
sS'exec_cq'
p506
I5
sS'total_cq'
p507
I5
sa(dp508
g503
I2
sg504
F2.6941299438476562e-05
sg505
F0.0001430511474609375
sg506
I4
sg507
I4
sa(dp509
g503
I1
sg504
F2.193450927734375e-05
sg505
F9.632110595703125e-05
sg506
I3
sg507
I3
sasS'total_cqs'
p510
I5
ssI51
(dp511
S'iters'
p512
I1
sS'meta'
p513
(lp514
(dp515
S'objective'
p516
I0
sS'query_time'
p517
F0.007629871368408203
sS'comp_time'
p518
F0.0011949539184570312
sS'exec_cq'
p519
I2
sS'total_cq'
p520
I2
sasS'total_cqs'
p521
I2
ssI52
(dp522
S'iters'
p523
I1
sS'meta'
p524
(lp525
(dp526
S'objective'
p527
I0
sS'query_time'
p528
F0.008285999298095703
sS'comp_time'
p529
F0.0015060901641845703
sS'exec_cq'
p530
I2
sS'total_cq'
p531
I2
sasS'total_cqs'
p532
I2
ssI53
(dp533
S'iters'
p534
I2
sS'meta'
p535
(lp536
(dp537
S'objective'
p538
I0
sS'query_time'
p539
F0.022157907485961914
sS'comp_time'
p540
F0.0028228759765625
sS'exec_cq'
p541
I4
sS'total_cq'
p542
I4
sa(dp543
g538
I0
sg539
F9.012222290039062e-05
sg540
F0.0006771087646484375
sg541
I2
sg542
I2
sasS'total_cqs'
p544
I4
ssI54
(dp545
S'iters'
p546
I1
sS'meta'
p547
(lp548
(dp549
S'objective'
p550
I1
sS'query_time'
p551
F0.012480974197387695
sS'comp_time'
p552
F0.001741647720336914
sS'exec_cq'
p553
I3
sS'total_cq'
p554
I3
sasS'total_cqs'
p555
I3
ssI55
(dp556
S'iters'
p557
I7
sS'meta'
p558
(lp559
(dp560
S'objective'
p561
I85
sS'query_time'
p562
F2.2450809478759766
sS'comp_time'
p563
F0.7695591449737549
sS'exec_cq'
p564
I109
sS'total_cq'
p565
I109
sa(dp566
g561
I85
sg562
F0.001157999038696289
sg563
F0.004655361175537109
sg564
I97
sg565
I97
sa(dp567
g561
I83
sg562
F0.0004138946533203125
sg563
F0.0022542476654052734
sg564
I91
sg565
I91
sa(dp568
g561
I83
sg562
F0.00041294097900390625
sg563
F0.0017437934875488281
sg564
I87
sg565
I87
sa(dp569
g561
I81
sg562
F0.0003509521484375
sg563
F0.0011913776397705078
sg564
I85
sg565
I85
sa(dp570
g561
I79
sg562
F0.0003578662872314453
sg563
F0.0010750293731689453
sg564
I83
sg565
I83
sa(dp571
g561
I79
sg562
F0.0003159046173095703
sg563
F0.0009698867797851562
sg564
I81
sg565
I81
sasS'total_cqs'
p572
I109
ssI56
(dp573
S'iters'
p574
I5
sS'meta'
p575
(lp576
(dp577
S'objective'
p578
I44
sS'query_time'
p579
F1.6555769443511963
sS'comp_time'
p580
F0.46129488945007324
sS'exec_cq'
p581
I67
sS'total_cq'
p582
I76
sa(dp583
g578
I0
sg579
F0.008417129516601562
sg580
F0.02355337142944336
sg581
I16
sg582
I16
sa(dp584
g578
I0
sg579
F0.0038650035858154297
sg580
F0.010283946990966797
sg581
I8
sg582
I8
sa(dp585
g578
I0
sg579
F0.00040411949157714844
sg580
F0.0016777515411376953
sg581
I4
sg582
I4
sa(dp586
g578
I0
sg579
F0.00013589859008789062
sg580
F0.0012459754943847656
sg581
I2
sg582
I2
sasS'total_cqs'
p587
I76
ssI57
(dp588
S'iters'
p589
I6
sS'meta'
p590
(lp591
(dp592
S'objective'
p593
I3
sS'query_time'
p594
F24.426748037338257
sS'comp_time'
p595
F0.22231698036193848
sS'exec_cq'
p596
I45
sS'total_cq'
p597
I51
sa(dp598
g593
I1
sg594
F0.01725912094116211
sg595
F0.036015987396240234
sg596
I27
sg597
I27
sa(dp599
g593
I1
sg594
F0.0027930736541748047
sg595
F0.007089138031005859
sg596
I13
sg597
I13
sa(dp600
g593
I0
sg594
F0.0014729499816894531
sg595
F0.005575418472290039
sg596
I6
sg597
I6
sa(dp601
g593
I1
sg594
F0.00021600723266601562
sg595
F0.001257181167602539
sg596
I3
sg597
I3
sa(dp602
g593
I0
sg594
F0.00019788742065429688
sg595
F0.001420736312866211
sg596
I2
sg597
I2
sasS'total_cqs'
p603
I51
ssI58
(dp604
S'iters'
p605
I7
sS'meta'
p606
(lp607
(dp608
S'objective'
p609
I342
sS'query_time'
p610
F114.5297920703888
sS'comp_time'
p611
F15.698493242263794
sS'exec_cq'
p612
I348
sS'total_cq'
p613
I486
sa(dp614
g609
I358
sg610
F0.03605198860168457
sg611
F1.1988582611083984
sg612
I276
sg613
I414
sa(dp615
g609
I0
sg610
F0.01678180694580078
sg611
F0.08310508728027344
sg612
I28
sg613
I28
sa(dp616
g609
I0
sg610
F0.005936861038208008
sg611
F0.018709421157836914
sg612
I14
sg613
I14
sa(dp617
g609
I1
sg610
F0.00432896614074707
sg611
F0.015439987182617188
sg612
I7
sg613
I7
sa(dp618
g609
I0
sg610
F0.0005710124969482422
sg611
F0.004634380340576172
sg612
I4
sg613
I4
sa(dp619
g609
I0
sg610
F0.0002849102020263672
sg611
F0.0016739368438720703
sg612
I2
sg613
I2
sasS'total_cqs'
p620
I486
ssI59
(dp621
S'iters'
p622
I2
sS'meta'
p623
(lp624
(dp625
S'objective'
p626
I3
sS'query_time'
p627
F0.0480799674987793
sS'comp_time'
p628
F0.015636920928955078
sS'exec_cq'
p629
I7
sS'total_cq'
p630
I7
sa(dp631
g626
I0
sg627
F0.0001671314239501953
sg628
F0.001168966293334961
sg629
I2
sg630
I2
sasS'total_cqs'
p632
I7
ssI60
(dp633
S'iters'
p634
I4
sS'meta'
p635
(lp636
(dp637
S'objective'
p638
I3
sS'query_time'
p639
F0.014033079147338867
sS'comp_time'
p640
F0.0033905506134033203
sS'exec_cq'
p641
I2
sS'total_cq'
p642
I5
sa(dp643
g638
I2
sg639
F0.005497932434082031
sg640
F0.0001800060272216797
sg641
I3
sg642
I4
sa(dp644
g638
I1
sg639
F9.012222290039062e-05
sg640
F0.00039315223693847656
sg641
I2
sg642
I3
sa(dp645
g638
I0
sg639
F1.0967254638671875e-05
sg640
F6.508827209472656e-05
sg641
I1
sg642
I2
sasS'total_cqs'
p646
I5
ssI62
(dp647
S'iters'
p648
I2
sS'meta'
p649
(lp650
(dp651
S'objective'
p652
I6
sS'query_time'
p653
F0.04235196113586426
sS'comp_time'
p654
F0.01890087127685547
sS'exec_cq'
p655
I12
sS'total_cq'
p656
I12
sa(dp657
g652
I7
sg653
F4.100799560546875e-05
sg654
F0.00014591217041015625
sg655
I9
sg656
I9
sasS'total_cqs'
p658
I12
ssI64
(dp659
S'iters'
p660
I3
sS'meta'
p661
(lp662
(dp663
S'objective'
p664
I4
sS'query_time'
p665
F0.11706709861755371
sS'comp_time'
p666
F0.13289380073547363
sS'exec_cq'
p667
I12
sS'total_cq'
p668
I12
sa(dp669
g664
I0
sg665
F0.0003571510314941406
sg666
F0.0012369155883789062
sg667
I4
sg668
I4
sa(dp670
g664
I0
sg665
F0.00011110305786132812
sg666
F0.0007677078247070312
sg667
I2
sg668
I2
sasS'total_cqs'
p671
I12
ssI65
(dp672
S'iters'
p673
I4
sS'meta'
p674
(lp675
(dp676
S'objective'
p677
I13
sS'query_time'
p678
F0.7529819011688232
sS'comp_time'
p679
F0.3072037696838379
sS'exec_cq'
p680
I27
sS'total_cq'
p681
I27
sa(dp682
g677
I1
sg678
F0.002273082733154297
sg679
F0.008273839950561523
sg680
I7
sg681
I7
sa(dp683
g677
I0
sg678
F0.0006098747253417969
sg679
F0.0031020641326904297
sg680
I4
sg681
I4
sa(dp684
g677
I0
sg678
F0.00011801719665527344
sg679
F0.0006995201110839844
sg680
I2
sg681
I2
sasS'total_cqs'
p685
I27
ssI67
(dp686
S'iters'
p687
I2
sS'meta'
p688
(lp689
(dp690
S'objective'
p691
I31
sS'query_time'
p692
F0.8649818897247314
sS'comp_time'
p693
F0.08490610122680664
sS'exec_cq'
p694
I35
sS'total_cq'
p695
I35
sa(dp696
g691
I0
sg692
F0.0019259452819824219
sg693
F0.006935596466064453
sg694
I2
sg695
I2
sasS'total_cqs'
p697
I35
ssI69
(dp698
S'iters'
p699
I1
sS'meta'
p700
(lp701
(dp702
S'objective'
p703
I49
sS'query_time'
p704
F0.15839314460754395
sS'comp_time'
p705
F0.15779471397399902
sS'exec_cq'
p706
I51
sS'total_cq'
p707
I51
sasS'total_cqs'
p708
I51
ssI70
(dp709
S'iters'
p710
I2
sS'meta'
p711
(lp712
(dp713
S'objective'
p714
I4
sS'query_time'
p715
F0.02464890480041504
sS'comp_time'
p716
F0.0030531883239746094
sS'exec_cq'
p717
I6
sS'total_cq'
p718
I6
sa(dp719
g714
I3
sg715
F5.793571472167969e-05
sg716
F0.00027179718017578125
sg717
I5
sg718
I5
sasS'total_cqs'
p720
I6
ssI71
(dp721
S'iters'
p722
I6
sS'meta'
p723
(lp724
(dp725
S'objective'
p726
I77
sS'query_time'
p727
F0.27178406715393066
sS'comp_time'
p728
F0.2689852714538574
sS'exec_cq'
p729
I73
sS'total_cq'
p730
I85
sa(dp731
g726
I73
sg727
F0.00028896331787109375
sg728
F0.001004934310913086
sg729
I69
sg730
I81
sa(dp732
g726
I71
sg727
F0.0002448558807373047
sg728
F0.0009551048278808594
sg729
I65
sg730
I77
sa(dp733
g726
I68
sg727
F0.0002079010009765625
sg728
F0.0006709098815917969
sg729
I62
sg730
I74
sa(dp734
g726
I65
sg727
F0.00018906593322753906
sg728
F0.0005750656127929688
sg729
I59
sg730
I71
sa(dp735
g726
I1
sg727
F0.0017580986022949219
sg728
F0.0023026466369628906
sg729
I3
sg730
I3
sasS'total_cqs'
p736
I85
ssI72
(dp737
S'iters'
p738
I3
sS'meta'
p739
(lp740
(dp741
S'objective'
p742
I4
sS'query_time'
p743
F0.033342838287353516
sS'comp_time'
p744
F0.003525972366333008
sS'exec_cq'
p745
I4
sS'total_cq'
p746
I8
sa(dp747
g742
I0
sg743
F0.24517011642456055
sg744
F0.0037720203399658203
sg745
I4
sg746
I6
sa(dp748
g742
I1
sg743
F2.5987625122070312e-05
sg744
F0.0001327991485595703
sg745
I2
sg746
I3
sasS'total_cqs'
p749
I8
ssI75
(dp750
S'iters'
p751
I3
sS'meta'
p752
(lp753
(dp754
S'objective'
p755
I3
sS'query_time'
p756
F0.012604951858520508
sS'comp_time'
p757
F0.0016751289367675781
sS'exec_cq'
p758
I5
sS'total_cq'
p759
I5
sa(dp760
g755
I2
sg756
F2.288818359375e-05
sg757
F0.00010824203491210938
sg758
I4
sg759
I4
sa(dp761
g755
I1
sg756
F1.8835067749023438e-05
sg757
F7.963180541992188e-05
sg758
I3
sg759
I3
sasS'total_cqs'
p762
I5
ssI76
(dp763
S'iters'
p764
I1
sS'meta'
p765
(lp766
(dp767
S'objective'
p768
I0
sS'query_time'
p769
F0.009417057037353516
sS'comp_time'
p770
F0.0010237693786621094
sS'exec_cq'
p771
I2
sS'total_cq'
p772
I2
sasS'total_cqs'
p773
I2
ssI103
(dp774
S'iters'
p775
I1
sS'meta'
p776
(lp777
(dp778
S'objective'
p779
I10
sS'query_time'
p780
F0.05431485176086426
sS'comp_time'
p781
F0.0160369873046875
sS'exec_cq'
p782
I12
sS'total_cq'
p783
I12
sasS'total_cqs'
p784
I12
ssI104
(dp785
S'iters'
p786
I2
sS'meta'
p787
(lp788
(dp789
S'objective'
p790
I0
sS'query_time'
p791
F1.3104028701782227
sS'comp_time'
p792
F0.16756963729858398
sS'exec_cq'
p793
I4
sS'total_cq'
p794
I4
sa(dp795
g790
I0
sg791
F0.013064861297607422
sg792
F0.15750598907470703
sg793
I2
sg794
I2
sasS'total_cqs'
p796
I4
ssI106
(dp797
S'iters'
p798
I1
sS'meta'
p799
(lp800
(dp801
S'objective'
p802
I2
sS'query_time'
p803
F0.016869068145751953
sS'comp_time'
p804
F0.002029895782470703
sS'exec_cq'
p805
I4
sS'total_cq'
p806
I4
sasS'total_cqs'
p807
I4
ssI107
(dp808
S'iters'
p809
I2
sS'meta'
p810
(lp811
(dp812
S'objective'
p813
I10
sS'query_time'
p814
F0.07191300392150879
sS'comp_time'
p815
F0.02649998664855957
sS'exec_cq'
p816
I16
sS'total_cq'
p817
I16
sa(dp818
g813
I1
sg814
F0.004659175872802734
sg815
F0.00035381317138671875
sg816
I3
sg817
I3
sasS'total_cqs'
p819
I16
ss.