(dp0
I1
(dp1
S'iters'
p2
I3
sS'meta'
p3
(lp4
(dp5
S'objective'
p6
I52
sS'query_time'
p7
F0.046987056732177734
sS'comp_time'
p8
F0.017345190048217773
sS'exec_cq'
p9
I12
sS'total_cq'
p10
I12
sa(dp11
g6
I47
sg7
F7.319450378417969e-05
sg8
F0.00019621849060058594
sg9
I10
sg10
I10
sa(dp12
g6
I48
sg7
F6.198883056640625e-05
sg8
F0.00013709068298339844
sg9
I9
sg10
I9
sasS'total_cqs'
p13
I12
ssI2
(dp14
S'iters'
p15
I7
sS'meta'
p16
(lp17
(dp18
S'objective'
p19
I212
sS'query_time'
p20
F0.15577483177185059
sS'comp_time'
p21
F0.049457550048828125
sS'exec_cq'
p22
I27
sS'total_cq'
p23
I27
sa(dp24
g19
I217
sg20
F0.0002090930938720703
sg21
F0.0008749961853027344
sg22
I23
sg23
I23
sa(dp25
g19
I194
sg20
F0.0001609325408935547
sg21
F0.0004951953887939453
sg22
I20
sg23
I20
sa(dp26
g19
I189
sg20
F0.00014710426330566406
sg21
F0.00044989585876464844
sg22
I18
sg23
I18
sa(dp27
g19
I179
sg20
F0.00013303756713867188
sg21
F0.0004191398620605469
sg22
I17
sg23
I17
sa(dp28
g19
I171
sg20
F7.915496826171875e-05
sg21
F0.00019240379333496094
sg22
I15
sg23
I15
sa(dp29
g19
I166
sg20
F7.200241088867188e-05
sg21
F0.0001373291015625
sg22
I14
sg23
I14
sasS'total_cqs'
p30
I27
ssI3
(dp31
S'iters'
p32
I4
sS'meta'
p33
(lp34
(dp35
S'objective'
p36
I496
sS'query_time'
p37
F181.7106580734253
sS'comp_time'
p38
F1.2672698497772217
sS'exec_cq'
p39
I30
sS'total_cq'
p40
I43
sa(dp41
g36
I417
sg37
F43.485926151275635
sg38
F2.1486258506774902
sg39
I31
sg40
I35
sa(dp42
g36
I405
sg37
F11.840906858444214
sg38
F0.4586200714111328
sg39
I28
sg40
I28
sa(dp43
g36
I463
sg37
F0.014931917190551758
sg38
F0.0002269744873046875
sg39
I25
sg40
I25
sasS'total_cqs'
p44
I43
ssI4
(dp45
S'iters'
p46
I2
sS'meta'
p47
(lp48
(dp49
S'objective'
p50
I36
sS'query_time'
p51
F4.912776947021484
sS'comp_time'
p52
F0.3702411651611328
sS'exec_cq'
p53
I11
sS'total_cq'
p54
I11
sa(dp55
g50
I7
sg51
F0.17171692848205566
sg52
F0.30036497116088867
sg53
I2
sg54
I2
sasS'total_cqs'
p56
I11
ssI5
(dp57
S'iters'
p58
I3
sS'meta'
p59
(lp60
(dp61
S'objective'
p62
I0
sS'query_time'
p63
F31.2497718334198
sS'comp_time'
p64
F6.8103251457214355
sS'exec_cq'
p65
I8
sS'total_cq'
p66
I8
sa(dp67
g62
I2
sg63
F0.0067331790924072266
sg64
F0.010092020034790039
sg65
I3
sg66
I3
sa(dp68
g62
I4
sg63
F0.0030069351196289062
sg64
F0.005777120590209961
sg65
I2
sg66
I2
sasS'total_cqs'
p69
I8
ssI6
(dp70
S'iters'
p71
I4
sS'meta'
p72
(lp73
(dp74
S'objective'
p75
I83
sS'query_time'
p76
F34.290229082107544
sS'comp_time'
p77
F1.5195591449737549
sS'exec_cq'
p78
I18
sS'total_cq'
p79
I18
sa(dp80
g75
I0
sg76
F1.0832080841064453
sg77
F7.372330904006958
sg78
I7
sg79
I7
sa(dp81
g75
I0
sg76
F0.4130361080169678
sg77
F0.9002707004547119
sg78
I5
sg79
I5
sa(dp82
g75
I1
sg76
F0.01578807830810547
sg77
F0.0306088924407959
sg78
I2
sg79
I2
sasS'total_cqs'
p83
I18
ssI7
(dp84
S'iters'
p85
I3
sS'meta'
p86
(lp87
(dp88
S'objective'
p89
I1
sS'query_time'
p90
F12.648339033126831
sS'comp_time'
p91
F0.7950868606567383
sS'exec_cq'
p92
I9
sS'total_cq'
p93
I9
sa(dp94
g89
I1
sg90
F0.10667705535888672
sg91
F0.5744807720184326
sg92
I6
sg93
I6
sa(dp95
g89
I4
sg90
F0.004463911056518555
sg91
F0.006513833999633789
sg92
I2
sg93
I2
sasS'total_cqs'
p96
I9
ssI8
(dp97
S'iters'
p98
I5
sS'meta'
p99
(lp100
(dp101
S'objective'
p102
I238
sS'query_time'
p103
F0.19654297828674316
sS'comp_time'
p104
F0.02924633026123047
sS'exec_cq'
p105
I27
sS'total_cq'
p106
I27
sa(dp107
g102
I218
sg103
F0.0001971721649169922
sg104
F0.0006453990936279297
sg105
I22
sg106
I22
sa(dp108
g102
I217
sg103
F0.00010395050048828125
sg104
F0.0002276897430419922
sg105
I19
sg106
I19
sa(dp109
g102
I210
sg103
F9.322166442871094e-05
sg104
F0.00016117095947265625
sg105
I18
sg106
I18
sa(dp110
g102
I209
sg103
F7.605552673339844e-05
sg104
F0.00010609626770019531
sg105
I17
sg106
I17
sasS'total_cqs'
p111
I27
ssI9
(dp112
S'iters'
p113
I3
sS'meta'
p114
(lp115
(dp116
S'objective'
p117
I6
sS'query_time'
p118
F0.05069994926452637
sS'comp_time'
p119
F0.004880189895629883
sS'exec_cq'
p120
I7
sS'total_cq'
p121
I7
sa(dp122
g117
I1
sg118
F0.001474142074584961
sg119
F0.00047016143798828125
sg120
I5
sg121
I5
sa(dp123
g117
I2
sg118
F1.5020370483398438e-05
sg119
F9.179115295410156e-05
sg120
I2
sg121
I2
sasS'total_cqs'
p124
I7
ssI10
(dp125
S'iters'
p126
I6
sS'meta'
p127
(lp128
(dp129
S'objective'
p130
I576
sS'query_time'
p131
F0.5355958938598633
sS'comp_time'
p132
F0.09846735000610352
sS'exec_cq'
p133
I51
sS'total_cq'
p134
I51
sa(dp135
g130
I239
sg131
F0.00035881996154785156
sg132
F0.0029249191284179688
sg133
I23
sg134
I37
sa(dp136
g130
I8
sg131
F0.002079010009765625
sg132
F0.0078122615814208984
sg133
I12
sg134
I12
sa(dp137
g130
I2
sg131
F6.389617919921875e-05
sg132
F0.00048661231994628906
sg133
I6
sg134
I6
sa(dp138
g130
I6
sg131
F4.100799560546875e-05
sg132
F0.0002639293670654297
sg133
I4
sg134
I4
sa(dp139
g130
I21
sg131
F2.193450927734375e-05
sg132
F0.00011277198791503906
sg133
I2
sg134
I2
sasS'total_cqs'
p140
I51
ssI11
(dp141
S'iters'
p142
I7
sS'meta'
p143
(lp144
(dp145
S'objective'
p146
I998
sS'query_time'
p147
F0.6030511856079102
sS'comp_time'
p148
F0.16631674766540527
sS'exec_cq'
p149
I63
sS'total_cq'
p150
I63
sa(dp151
g146
I1031
sg147
F0.0013780593872070312
sg148
F0.004650115966796875
sg149
I47
sg150
I47
sa(dp152
g146
I841
sg147
F0.0007958412170410156
sg148
F0.004023075103759766
sg149
I42
sg150
I42
sa(dp153
g146
I885
sg147
F0.0005130767822265625
sg148
F0.0015811920166015625
sg149
I35
sg150
I35
sa(dp154
g146
I13
sg147
F0.002106904983520508
sg148
F0.000990152359008789
sg149
I5
sg150
I5
sa(dp155
g146
I7
sg147
F3.0994415283203125e-05
sg148
F0.00017189979553222656
sg149
I4
sg150
I4
sa(dp156
g146
I6
sg147
F1.5974044799804688e-05
sg148
F0.00010585784912109375
sg149
I2
sg150
I2
sasS'total_cqs'
p157
I63
ssI12
(dp158
S'iters'
p159
I5
sS'meta'
p160
(lp161
(dp162
S'objective'
p163
I455
sS'query_time'
p164
F0.4748399257659912
sS'comp_time'
p165
F0.09195280075073242
sS'exec_cq'
p166
I50
sS'total_cq'
p167
I50
sa(dp168
g163
I467
sg164
F0.0007729530334472656
sg165
F0.003503561019897461
sg166
I33
sg167
I33
sa(dp169
g163
I472
sg164
F0.0002117156982421875
sg165
F0.0010073184967041016
sg166
I26
sg167
I26
sa(dp170
g163
I41
sg164
F0.002928018569946289
sg165
F0.0007617473602294922
sg166
I5
sg167
I5
sa(dp171
g163
I0
sg164
F4.291534423828125e-05
sg165
F0.0002269744873046875
sg166
I3
sg167
I3
sasS'total_cqs'
p172
I50
ssI13
(dp173
S'iters'
p174
I3
sS'meta'
p175
(lp176
(dp177
S'objective'
p178
I22
sS'query_time'
p179
F0.12955713272094727
sS'comp_time'
p180
F0.03463554382324219
sS'exec_cq'
p181
I20
sS'total_cq'
p182
I20
sa(dp183
g178
I48
sg179
F4.696846008300781e-05
sg180
F0.0004010200500488281
sg181
I9
sg182
I9
sa(dp184
g178
I11
sg179
F0.0016088485717773438
sg180
F0.00017976760864257812
sg181
I2
sg182
I2
sasS'total_cqs'
p185
I20
ssI14
(dp186
S'iters'
p187
I4
sS'meta'
p188
(lp189
(dp190
S'objective'
p191
I1
sS'query_time'
p192
F31.74226403236389
sS'comp_time'
p193
F0.934960126876831
sS'exec_cq'
p194
I9
sS'total_cq'
p195
I9
sa(dp196
g191
I1
sg192
F0.0791330337524414
sg193
F0.4997875690460205
sg194
I6
sg195
I6
sa(dp197
g191
I0
sg192
F0.19693899154663086
sg193
F0.2835259437561035
sg194
I3
sg195
I3
sa(dp198
g191
I2
sg192
F0.18845605850219727
sg193
F0.3036680221557617
sg194
I2
sg195
I2
sasS'total_cqs'
p199
I9
ssI15
(dp200
S'iters'
p201
I4
sS'meta'
p202
(lp203
(dp204
S'objective'
p205
I2
sS'query_time'
p206
F3.8828680515289307
sS'comp_time'
p207
F0.09651994705200195
sS'exec_cq'
p208
I11
sS'total_cq'
p209
I11
sa(dp210
g205
I16
sg206
F0.0007610321044921875
sg207
F0.001129150390625
sg208
I6
sg209
I6
sa(dp211
g205
I13
sg206
F0.0005199909210205078
sg207
F0.0014390945434570312
sg208
I5
sg209
I5
sa(dp212
g205
I2
sg206
F0.00045800209045410156
sg207
F0.0008809566497802734
sg208
I2
sg209
I2
sasS'total_cqs'
p213
I11
ssI16
(dp214
S'iters'
p215
I1
sS'meta'
p216
(lp217
(dp218
S'objective'
p219
I30
sS'query_time'
p220
F0.0184481143951416
sS'comp_time'
p221
F0.004030942916870117
sS'exec_cq'
p222
I8
sS'total_cq'
p223
I8
sasS'total_cqs'
p224
I8
ssI17
(dp225
S'iters'
p226
I4
sS'meta'
p227
(lp228
(dp229
S'objective'
p230
I2
sS'query_time'
p231
F0.9092819690704346
sS'comp_time'
p232
F0.04466676712036133
sS'exec_cq'
p233
I11
sS'total_cq'
p234
I11
sa(dp235
g230
I2
sg231
F0.013046979904174805
sg232
F0.07300114631652832
sg233
I6
sg234
I6
sa(dp236
g230
I5
sg231
F0.10609197616577148
sg232
F0.005067110061645508
sg233
I3
sg234
I3
sa(dp237
g230
I2
sg231
F0.0029959678649902344
sg232
F0.005454063415527344
sg233
I2
sg234
I2
sasS'total_cqs'
p238
I11
ssI18
(dp239
S'iters'
p240
I4
sS'meta'
p241
(lp242
(dp243
S'objective'
p244
I38
sS'query_time'
p245
F0.24010515213012695
sS'comp_time'
p246
F0.026111841201782227
sS'exec_cq'
p247
I11
sS'total_cq'
p248
I11
sa(dp249
g244
I34
sg245
F0.0004987716674804688
sg246
F0.0015325546264648438
sg247
I9
sg248
I9
sa(dp250
g244
I29
sg245
F0.0005142688751220703
sg246
F0.0012040138244628906
sg247
I8
sg248
I8
sa(dp251
g244
I28
sg245
F2.7894973754882812e-05
sg246
F6.198883056640625e-05
sg247
I6
sg248
I6
sasS'total_cqs'
p252
I11
ssI22
(dp253
S'iters'
p254
I1
sS'meta'
p255
(lp256
(dp257
S'objective'
p258
I159
sS'query_time'
p259
F0.07251811027526855
sS'comp_time'
p260
F0.02837514877319336
sS'exec_cq'
p261
I18
sS'total_cq'
p262
I18
sasS'total_cqs'
p263
I18
ssI23
(dp264
S'iters'
p265
I3
sS'meta'
p266
(lp267
(dp268
S'objective'
p269
I108
sS'query_time'
p270
F0.11871576309204102
sS'comp_time'
p271
F0.02586674690246582
sS'exec_cq'
p272
I16
sS'total_cq'
p273
I16
sa(dp274
g269
I104
sg270
F9.894371032714844e-05
sg271
F0.0002105236053466797
sg272
I14
sg273
I14
sa(dp275
g269
I103
sg270
F8.20159912109375e-05
sg271
F9.608268737792969e-05
sg272
I13
sg273
I13
sasS'total_cqs'
p276
I16
ssI26
(dp277
S'iters'
p278
I1
sS'meta'
p279
(lp280
(dp281
S'objective'
p282
I879
sS'query_time'
p283
F0.11138391494750977
sS'comp_time'
p284
F0.11398077011108398
sS'exec_cq'
p285
I42
sS'total_cq'
p286
I42
sasS'total_cqs'
p287
I42
ssI27
(dp288
S'iters'
p289
I4
sS'meta'
p290
(lp291
(dp292
S'objective'
p293
I317
sS'query_time'
p294
F20.875133991241455
sS'comp_time'
p295
F1.5074431896209717
sS'exec_cq'
p296
I30
sS'total_cq'
p297
I30
sa(dp298
g293
I2
sg294
F0.3869791030883789
sg295
F1.3385958671569824
sg296
I5
sg297
I5
sa(dp299
g293
I8
sg294
F0.4002869129180908
sg295
F0.9643270969390869
sg296
I3
sg297
I3
sa(dp300
g293
I3
sg294
F0.25087404251098633
sg295
F0.7604999542236328
sg296
I2
sg297
I2
sasS'total_cqs'
p301
I30
ssI29
(dp302
S'iters'
p303
I6
sS'meta'
p304
(lp305
(dp306
S'objective'
p307
I447
sS'query_time'
p308
F25.713140964508057
sS'comp_time'
p309
F0.4398307800292969
sS'exec_cq'
p310
I35
sS'total_cq'
p311
I49
sa(dp312
g307
I1
sg308
F0.02312612533569336
sg309
F0.03839993476867676
sg310
I17
sg311
I17
sa(dp313
g307
I21
sg308
F0.0015418529510498047
sg309
F0.004402637481689453
sg310
I9
sg311
I9
sa(dp314
g307
I9
sg308
F0.0007770061492919922
sg309
F0.0012814998626708984
sg310
I4
sg311
I4
sa(dp315
g307
I0
sg308
F0.0006091594696044922
sg309
F0.0010132789611816406
sg310
I3
sg311
I3
sa(dp316
g307
I4
sg308
F0.0005869865417480469
sg309
F0.0009257793426513672
sg310
I2
sg311
I2
sasS'total_cqs'
p317
I49
ssI30
(dp318
S'iters'
p319
I1
sS'meta'
p320
(lp321
(dp322
S'objective'
p323
I1
sS'query_time'
p324
F0.7862589359283447
sS'comp_time'
p325
F0.016588211059570312
sS'exec_cq'
p326
I2
sS'total_cq'
p327
I2
sasS'total_cqs'
p328
I2
ssI32
(dp329
S'iters'
p330
I1
sS'meta'
p331
(lp332
(dp333
S'objective'
p334
I1
sS'query_time'
p335
F0.04552602767944336
sS'comp_time'
p336
F0.001796722412109375
sS'exec_cq'
p337
I2
sS'total_cq'
p338
I2
sasS'total_cqs'
p339
I2
ssI33
(dp340
S'iters'
p341
I6
sS'meta'
p342
(lp343
(dp344
S'objective'
p345
I4210
sS'query_time'
p346
F17.647246837615967
sS'comp_time'
p347
F0.8945465087890625
sS'exec_cq'
p348
I103
sS'total_cq'
p349
I103
sa(dp350
g345
I39
sg346
F0.008316993713378906
sg347
F0.07395648956298828
sg348
I16
sg349
I16
sa(dp351
g345
I6
sg346
F0.0029730796813964844
sg347
F0.013283729553222656
sg348
I8
sg349
I8
sa(dp352
g345
I4
sg346
F0.0016260147094726562
sg347
F0.003041505813598633
sg348
I5
sg349
I5
sa(dp353
g345
I9
sg346
F0.0009129047393798828
sg347
F0.0018270015716552734
sg348
I3
sg349
I3
sa(dp354
g345
I13
sg346
F0.0003139972686767578
sg347
F0.0005979537963867188
sg348
I2
sg349
I2
sasS'total_cqs'
p355
I103
ssI34
(dp356
S'iters'
p357
I1
sS'meta'
p358
(lp359
(dp360
S'objective'
p361
I1
sS'query_time'
p362
F0.022543907165527344
sS'comp_time'
p363
F0.005267143249511719
sS'exec_cq'
p364
I2
sS'total_cq'
p365
I2
sasS'total_cqs'
p366
I2
ssI35
(dp367
S'iters'
p368
I7
sS'meta'
p369
(lp370
(dp371
S'objective'
p372
I1353
sS'query_time'
p373
F69.60327076911926
sS'comp_time'
p374
F2.3713161945343018
sS'exec_cq'
p375
I70
sS'total_cq'
p376
I70
sa(dp377
g372
I1651
sg373
F0.888969898223877
sg374
F2.068378210067749
sg375
I57
sg376
I57
sa(dp378
g372
I1571
sg373
F0.8615522384643555
sg374
F2.3130109310150146
sg375
I52
sg376
I52
sa(dp379
g372
I1554
sg373
F0.7394139766693115
sg374
F2.016716480255127
sg375
I50
sg376
I50
sa(dp380
g372
I1492
sg373
F1.0774431228637695
sg374
F2.0329995155334473
sg375
I48
sg376
I48
sa(dp381
g372
I6
sg373
F0.0006611347198486328
sg374
F0.002772092819213867
sg375
I5
sg376
I5
sa(dp382
g372
I4
sg373
F0.0003669261932373047
sg374
F0.0006885528564453125
sg375
I3
sg376
I3
sasS'total_cqs'
p383
I70
ssI36
(dp384
S'iters'
p385
I4
sS'meta'
p386
(lp387
(dp388
S'objective'
p389
I413
sS'query_time'
p390
F0.9292268753051758
sS'comp_time'
p391
F0.09202265739440918
sS'exec_cq'
p392
I33
sS'total_cq'
p393
I33
sa(dp394
g389
I345
sg390
F0.00963282585144043
sg391
F0.015071868896484375
sg392
I29
sg393
I29
sa(dp395
g389
I390
sg390
F0.002389669418334961
sg391
F0.003971576690673828
sg392
I25
sg393
I25
sa(dp396
g389
I383
sg390
F0.00012493133544921875
sg391
F0.00026035308837890625
sg392
I23
sg393
I24
sasS'total_cqs'
p397
I33
ssI37
(dp398
S'iters'
p399
I1
sS'meta'
p400
(lp401
(dp402
S'objective'
p403
I1
sS'query_time'
p404
F0.014829158782958984
sS'comp_time'
p405
F0.0017819404602050781
sS'exec_cq'
p406
I2
sS'total_cq'
p407
I2
sasS'total_cqs'
p408
I2
ssI38
(dp409
S'iters'
p410
I2
sS'meta'
p411
(lp412
(dp413
S'objective'
p414
I0
sS'query_time'
p415
F0.050744056701660156
sS'comp_time'
p416
F0.0034232139587402344
sS'exec_cq'
p417
I4
sS'total_cq'
p418
I4
sa(dp419
g414
I1
sg415
F7.796287536621094e-05
sg416
F0.00019407272338867188
sg417
I2
sg418
I2
sasS'total_cqs'
p420
I4
ssI39
(dp421
S'iters'
p422
I2
sS'meta'
p423
(lp424
(dp425
S'objective'
p426
I758
sS'query_time'
p427
F0.19996213912963867
sS'comp_time'
p428
F0.07747507095336914
sS'exec_cq'
p429
I44
sS'total_cq'
p430
I44
sa(dp431
g426
I850
sg427
F0.00048089027404785156
sg428
F0.001222848892211914
sg429
I37
sg430
I37
sasS'total_cqs'
p432
I44
ssI40
(dp433
S'iters'
p434
I1
sS'meta'
p435
(lp436
(dp437
S'objective'
p438
I22
sS'query_time'
p439
F0.03700685501098633
sS'comp_time'
p440
F0.0058078765869140625
sS'exec_cq'
p441
I7
sS'total_cq'
p442
I7
sasS'total_cqs'
p443
I7
ssI41
(dp444
S'iters'
p445
I2
sS'meta'
p446
(lp447
(dp448
S'objective'
p449
I54
sS'query_time'
p450
F0.10348796844482422
sS'comp_time'
p451
F0.016271114349365234
sS'exec_cq'
p452
I12
sS'total_cq'
p453
I12
sa(dp454
g449
I58
sg450
F5.698204040527344e-05
sg451
F9.822845458984375e-05
sg452
I11
sg453
I11
sasS'total_cqs'
p455
I12
ssI42
(dp456
S'iters'
p457
I3
sS'meta'
p458
(lp459
(dp460
S'objective'
p461
I789
sS'query_time'
p462
F0.1062917709350586
sS'comp_time'
p463
F0.13849925994873047
sS'exec_cq'
p464
I41
sS'total_cq'
p465
I41
sa(dp466
g461
I795
sg462
F0.00018930435180664062
sg463
F0.0003609657287597656
sg464
I40
sg465
I40
sa(dp467
g461
I786
sg462
F0.00014901161193847656
sg463
F0.0001952648162841797
sg464
I39
sg465
I39
sasS'total_cqs'
p468
I41
ssI43
(dp469
S'iters'
p470
I1
sS'meta'
p471
(lp472
(dp473
S'objective'
p474
I22
sS'query_time'
p475
F0.07230305671691895
sS'comp_time'
p476
F0.00570368766784668
sS'exec_cq'
p477
I7
sS'total_cq'
p478
I7
sasS'total_cqs'
p479
I7
ssI44
(dp480
S'iters'
p481
I4
sS'meta'
p482
(lp483
(dp484
S'objective'
p485
I758
sS'query_time'
p486
F0.15455317497253418
sS'comp_time'
p487
F0.17887520790100098
sS'exec_cq'
p488
I47
sS'total_cq'
p489
I47
sa(dp490
g485
I811
sg486
F0.0003299713134765625
sg487
F0.0010340213775634766
sg488
I40
sg489
I40
sa(dp491
g485
I0
sg486
F0.0013480186462402344
sg487
F0.0013947486877441406
sg488
I3
sg489
I3
sa(dp492
g485
I7
sg486
F0.00011491775512695312
sg487
F0.00023031234741210938
sg488
I2
sg489
I2
sasS'total_cqs'
p493
I47
ssI46
(dp494
S'iters'
p495
I3
sS'meta'
p496
(lp497
(dp498
S'objective'
p499
I9
sS'query_time'
p500
F0.02623915672302246
sS'comp_time'
p501
F0.002683877944946289
sS'exec_cq'
p502
I6
sS'total_cq'
p503
I6
sa(dp504
g499
I7
sg500
F5.0067901611328125e-05
sg501
F0.00012993812561035156
sg502
I5
sg503
I5
sa(dp505
g499
I5
sg500
F3.0040740966796875e-05
sg501
F7.677078247070312e-05
sg502
I4
sg503
I4
sasS'total_cqs'
p506
I6
ssI47
(dp507
S'iters'
p508
I1
sS'meta'
p509
(lp510
(dp511
S'objective'
p512
I1
sS'query_time'
p513
F0.00937795639038086
sS'comp_time'
p514
F0.0011408329010009766
sS'exec_cq'
p515
I2
sS'total_cq'
p516
I2
sasS'total_cqs'
p517
I2
ssI50
(dp518
S'iters'
p519
I3
sS'meta'
p520
(lp521
(dp522
S'objective'
p523
I5
sS'query_time'
p524
F0.013655900955200195
sS'comp_time'
p525
F0.0021173954010009766
sS'exec_cq'
p526
I5
sS'total_cq'
p527
I5
sa(dp528
g523
I2
sg524
F2.8848648071289062e-05
sg525
F0.00013113021850585938
sg526
I4
sg527
I4
sa(dp529
g523
I0
sg524
F2.193450927734375e-05
sg525
F9.72747802734375e-05
sg526
I3
sg527
I3
sasS'total_cqs'
p530
I5
ssI51
(dp531
S'iters'
p532
I1
sS'meta'
p533
(lp534
(dp535
S'objective'
p536
I1
sS'query_time'
p537
F0.050755977630615234
sS'comp_time'
p538
F0.000990152359008789
sS'exec_cq'
p539
I2
sS'total_cq'
p540
I2
sasS'total_cqs'
p541
I2
ssI52
(dp542
S'iters'
p543
I1
sS'meta'
p544
(lp545
(dp546
S'objective'
p547
I1
sS'query_time'
p548
F0.01183009147644043
sS'comp_time'
p549
F0.0012059211730957031
sS'exec_cq'
p550
I2
sS'total_cq'
p551
I2
sasS'total_cqs'
p552
I2
ssI53
(dp553
S'iters'
p554
I3
sS'meta'
p555
(lp556
(dp557
S'objective'
p558
I2
sS'query_time'
p559
F0.020231008529663086
sS'comp_time'
p560
F0.002395153045654297
sS'exec_cq'
p561
I4
sS'total_cq'
p562
I4
sa(dp563
g558
I0
sg559
F0.00011801719665527344
sg560
F0.0003688335418701172
sg561
I3
sg562
I3
sa(dp564
g558
I1
sg559
F9.894371032714844e-05
sg560
F0.0002231597900390625
sg561
I2
sg562
I2
sasS'total_cqs'
p565
I4
ssI54
(dp566
S'iters'
p567
I2
sS'meta'
p568
(lp569
(dp570
S'objective'
p571
I0
sS'query_time'
p572
F0.011651992797851562
sS'comp_time'
p573
F0.0016651153564453125
sS'exec_cq'
p574
I3
sS'total_cq'
p575
I3
sa(dp576
g571
I1
sg572
F4.9114227294921875e-05
sg573
F0.00014090538024902344
sg574
I2
sg575
I2
sasS'total_cqs'
p577
I3
ssI55
(dp578
S'iters'
p579
I9
sS'meta'
p580
(lp581
(dp582
S'objective'
p583
I4609
sS'query_time'
p584
F2.3185172080993652
sS'comp_time'
p585
F0.6874909400939941
sS'exec_cq'
p586
I109
sS'total_cq'
p587
I109
sa(dp588
g583
I4594
sg584
F0.00102996826171875
sg585
F0.00424504280090332
sg586
I97
sg587
I97
sa(dp589
g583
I4664
sg584
F0.0003380775451660156
sg585
F0.0016512870788574219
sg586
I91
sg587
I91
sa(dp590
g583
I4596
sg584
F0.0003209114074707031
sg585
F0.0012369155883789062
sg586
I87
sg587
I87
sa(dp591
g583
I4501
sg584
F0.0003120899200439453
sg585
F0.0007688999176025391
sg586
I86
sg587
I86
sa(dp592
g583
I4463
sg584
F0.0002830028533935547
sg585
F0.0007579326629638672
sg586
I84
sg587
I84
sa(dp593
g583
I4398
sg584
F0.00027298927307128906
sg585
F0.0006098747253417969
sg586
I83
sg587
I83
sa(dp594
g583
I4359
sg584
F0.0002601146697998047
sg585
F0.0007281303405761719
sg586
I81
sg587
I81
sa(dp595
g583
I4354
sg584
F0.0002658367156982422
sg585
F0.0005178451538085938
sg586
I79
sg587
I79
sasS'total_cqs'
p596
I109
ssI56
(dp597
S'iters'
p598
I6
sS'meta'
p599
(lp600
(dp601
S'objective'
p602
I1578
sS'query_time'
p603
F1.5655090808868408
sS'comp_time'
p604
F0.3614819049835205
sS'exec_cq'
p605
I67
sS'total_cq'
p606
I76
sa(dp607
g602
I60
sg603
F0.0066869258880615234
sg604
F0.06843256950378418
sg605
I16
sg606
I16
sa(dp608
g602
I15
sg603
F0.003609180450439453
sg604
F0.017663002014160156
sg605
I11
sg606
I11
sa(dp609
g602
I7
sg603
F0.0016598701477050781
sg604
F0.004375934600830078
sg605
I5
sg606
I5
sa(dp610
g602
I40
sg603
F0.0008540153503417969
sg604
F0.0011277198791503906
sg605
I3
sg606
I3
sa(dp611
g602
I14
sg603
F0.0005891323089599609
sg604
F0.0009617805480957031
sg605
I2
sg606
I2
sasS'total_cqs'
p612
I76
ssI57
(dp613
S'iters'
p614
I6
sS'meta'
p615
(lp616
(dp617
S'objective'
p618
I386
sS'query_time'
p619
F22.843991994857788
sS'comp_time'
p620
F0.30346035957336426
sS'exec_cq'
p621
I45
sS'total_cq'
p622
I51
sa(dp623
g618
I36
sg619
F0.018013954162597656
sg620
F0.03697848320007324
sg621
I31
sg622
I31
sa(dp624
g618
I12
sg619
F0.018321990966796875
sg620
F0.3708212375640869
sg621
I16
sg622
I16
sa(dp625
g618
I1
sg619
F0.005095958709716797
sg620
F0.008715152740478516
sg621
I9
sg622
I9
sa(dp626
g618
I5
sg619
F0.0010809898376464844
sg620
F0.0012509822845458984
sg621
I3
sg622
I3
sa(dp627
g618
I27
sg619
F0.0004589557647705078
sg620
F0.0006361007690429688
sg621
I2
sg622
I2
sasS'total_cqs'
p628
I51
ssI58
(dp629
S'iters'
p630
I8
sS'meta'
p631
(lp632
(dp633
S'objective'
p634
I87325
sS'query_time'
p635
F326.2931580543518
sS'comp_time'
p636
F24.258825063705444
sS'exec_cq'
p637
I486
sS'total_cq'
p638
I486
sa(dp639
g634
I88383
sg635
F5.493239164352417
sg636
F9.239564657211304
sg637
I414
sg638
I414
sa(dp640
g634
I163
sg635
F0.017241954803466797
sg636
F0.22220897674560547
sg637
I28
sg638
I28
sa(dp641
g634
I6
sg635
F0.007892847061157227
sg636
F0.2862248420715332
sg637
I14
sg638
I14
sa(dp642
g634
I68
sg635
F0.0015749931335449219
sg636
F0.010329961776733398
sg637
I8
sg638
I8
sa(dp643
g634
I34
sg635
F0.00044989585876464844
sg636
F0.0010819435119628906
sg637
I4
sg638
I4
sa(dp644
g634
I35
sg635
F0.00035309791564941406
sg636
F0.0009520053863525391
sg637
I3
sg638
I3
sa(dp645
g634
I19
sg635
F0.0002810955047607422
sg636
F0.0005221366882324219
sg637
I2
sg638
I2
sasS'total_cqs'
p646
I486
ssI59
(dp647
S'iters'
p648
I2
sS'meta'
p649
(lp650
(dp651
S'objective'
p652
I10
sS'query_time'
p653
F0.04694199562072754
sS'comp_time'
p654
F0.006076812744140625
sS'exec_cq'
p655
I7
sS'total_cq'
p656
I7
sa(dp657
g652
I3
sg653
F0.00016498565673828125
sg654
F0.00036406517028808594
sg655
I2
sg656
I2
sasS'total_cqs'
p658
I7
ssI60
(dp659
S'iters'
p660
I2
sS'meta'
p661
(lp662
(dp663
S'objective'
p664
I5
sS'query_time'
p665
F0.020172834396362305
sS'comp_time'
p666
F0.0032689571380615234
sS'exec_cq'
p667
I4
sS'total_cq'
p668
I5
sa(dp669
g664
I4
sg665
F0.0021920204162597656
sg666
F9.107589721679688e-05
sg667
I3
sg668
I4
sasS'total_cqs'
p670
I5
ssI62
(dp671
S'iters'
p672
I3
sS'meta'
p673
(lp674
(dp675
S'objective'
p676
I26
sS'query_time'
p677
F0.029731035232543945
sS'comp_time'
p678
F0.014499664306640625
sS'exec_cq'
p679
I12
sS'total_cq'
p680
I12
sa(dp681
g676
I30
sg677
F4.601478576660156e-05
sg678
F0.00016307830810546875
sg679
I9
sg680
I9
sa(dp682
g676
I33
sg677
F3.2901763916015625e-05
sg678
F7.557868957519531e-05
sg679
I8
sg680
I8
sasS'total_cqs'
p683
I12
ssI64
(dp684
S'iters'
p685
I4
sS'meta'
p686
(lp687
(dp688
S'objective'
p689
I28
sS'query_time'
p690
F0.10590100288391113
sS'comp_time'
p691
F0.01779007911682129
sS'exec_cq'
p692
I12
sS'total_cq'
p693
I12
sa(dp694
g689
I1
sg690
F0.00015687942504882812
sg691
F0.0005002021789550781
sg692
I4
sg693
I4
sa(dp695
g689
I1
sg690
F5.91278076171875e-05
sg691
F0.00018095970153808594
sg692
I3
sg693
I3
sa(dp696
g689
I1
sg690
F4.410743713378906e-05
sg691
F0.00011038780212402344
sg692
I2
sg693
I2
sasS'total_cqs'
p697
I12
ssI65
(dp698
S'iters'
p699
I4
sS'meta'
p700
(lp701
(dp702
S'objective'
p703
I218
sS'query_time'
p704
F0.9950079917907715
sS'comp_time'
p705
F0.047205448150634766
sS'exec_cq'
p706
I27
sS'total_cq'
p707
I27
sa(dp708
g703
I2
sg704
F0.0014200210571289062
sg705
F0.0024645328521728516
sg706
I7
sg707
I7
sa(dp709
g703
I1
sg704
F0.0005800724029541016
sg705
F0.0010509490966796875
sg706
I4
sg707
I4
sa(dp710
g703
I3
sg704
F0.0003509521484375
sg705
F0.0006730556488037109
sg706
I3
sg707
I3
sasS'total_cqs'
p711
I27
ssI67
(dp712
S'iters'
p713
I2
sS'meta'
p714
(lp715
(dp716
S'objective'
p717
I540
sS'query_time'
p718
F0.9647960662841797
sS'comp_time'
p719
F0.1060478687286377
sS'exec_cq'
p720
I35
sS'total_cq'
p721
I35
sa(dp722
g717
I25
sg718
F0.0030870437622070312
sg719
F0.0032978057861328125
sg720
I2
sg721
I2
sasS'total_cqs'
p723
I35
ssI69
(dp724
S'iters'
p725
I1
sS'meta'
p726
(lp727
(dp728
S'objective'
p729
I1298
sS'query_time'
p730
F0.1734011173248291
sS'comp_time'
p731
F0.09934401512145996
sS'exec_cq'
p732
I51
sS'total_cq'
p733
I51
sasS'total_cqs'
p734
I51
ssI70
(dp735
S'iters'
p736
I3
sS'meta'
p737
(lp738
(dp739
S'objective'
p740
I9
sS'query_time'
p741
F0.021697998046875
sS'comp_time'
p742
F0.0027132034301757812
sS'exec_cq'
p743
I6
sS'total_cq'
p744
I6
sa(dp745
g740
I5
sg741
F4.982948303222656e-05
sg742
F0.00015878677368164062
sg743
I5
sg744
I5
sa(dp746
g740
I4
sg741
F4.100799560546875e-05
sg742
F0.0001232624053955078
sg743
I4
sg744
I4
sasS'total_cqs'
p747
I6
ssI71
(dp748
S'iters'
p749
I3
sS'meta'
p750
(lp751
(dp752
S'objective'
p753
I3305
sS'query_time'
p754
F0.3019101619720459
sS'comp_time'
p755
F0.3288247585296631
sS'exec_cq'
p756
I85
sS'total_cq'
p757
I85
sa(dp758
g753
I15
sg754
F0.0018398761749267578
sg755
F0.004096269607543945
sg756
I3
sg757
I3
sa(dp759
g753
I49
sg754
F0.0033278465270996094
sg755
F0.00012040138244628906
sg756
I2
sg757
I2
sasS'total_cqs'
p760
I85
ssI72
(dp761
S'iters'
p762
I3
sS'meta'
p763
(lp764
(dp765
S'objective'
p766
I12
sS'query_time'
p767
F0.326143741607666
sS'comp_time'
p768
F0.004436969757080078
sS'exec_cq'
p769
I8
sS'total_cq'
p770
I8
sa(dp771
g766
I2
sg767
F0.00037097930908203125
sg768
F0.0011360645294189453
sg769
I4
sg770
I6
sa(dp772
g766
I7
sg767
F1.811981201171875e-05
sg768
F4.100799560546875e-05
sg769
I2
sg770
I3
sasS'total_cqs'
p773
I8
ssI75
(dp774
S'iters'
p775
I3
sS'meta'
p776
(lp777
(dp778
S'objective'
p779
I5
sS'query_time'
p780
F0.016561031341552734
sS'comp_time'
p781
F0.0020394325256347656
sS'exec_cq'
p782
I5
sS'total_cq'
p783
I5
sa(dp784
g779
I2
sg780
F2.5987625122070312e-05
sg781
F0.0001621246337890625
sg782
I4
sg783
I4
sa(dp785
g779
I0
sg780
F1.9073486328125e-05
sg781
F9.322166442871094e-05
sg782
I3
sg783
I3
sasS'total_cqs'
p786
I5
ssI76
(dp787
S'iters'
p788
I1
sS'meta'
p789
(lp790
(dp791
S'objective'
p792
I1
sS'query_time'
p793
F0.009480953216552734
sS'comp_time'
p794
F0.0007886886596679688
sS'exec_cq'
p795
I2
sS'total_cq'
p796
I2
sasS'total_cqs'
p797
I2
ssI103
(dp798
S'iters'
p799
I2
sS'meta'
p800
(lp801
(dp802
S'objective'
p803
I64
sS'query_time'
p804
F0.06562209129333496
sS'comp_time'
p805
F0.01622796058654785
sS'exec_cq'
p806
I12
sS'total_cq'
p807
I12
sa(dp808
g803
I63
sg804
F6.29425048828125e-05
sg805
F9.5367431640625e-05
sg806
I11
sg807
I11
sasS'total_cqs'
p809
I12
ssI104
(dp810
S'iters'
p811
I2
sS'meta'
p812
(lp813
(dp814
S'objective'
p815
I0
sS'query_time'
p816
F1.3912560939788818
sS'comp_time'
p817
F0.1297309398651123
sS'exec_cq'
p818
I4
sS'total_cq'
p819
I4
sa(dp820
g815
I1
sg816
F0.010939836502075195
sg817
F0.020000934600830078
sg818
I2
sg819
I2
sasS'total_cqs'
p821
I4
ssI106
(dp822
S'iters'
p823
I1
sS'meta'
p824
(lp825
(dp826
S'objective'
p827
I6
sS'query_time'
p828
F0.02370905876159668
sS'comp_time'
p829
F0.0019218921661376953
sS'exec_cq'
p830
I4
sS'total_cq'
p831
I4
sasS'total_cqs'
p832
I4
ssI107
(dp833
S'iters'
p834
I2
sS'meta'
p835
(lp836
(dp837
S'objective'
p838
I70
sS'query_time'
p839
F0.08196592330932617
sS'comp_time'
p840
F0.019025802612304688
sS'exec_cq'
p841
I16
sS'total_cq'
p842
I16
sa(dp843
g838
I23
sg839
F0.007996797561645508
sg840
F0.0005247592926025391
sg841
I3
sg842
I3
sasS'total_cqs'
p844
I16
ss.