(dp0
I1
(dp1
S'iters'
p2
I3
sS'meta'
p3
(lp4
(dp5
S'objective'
p6
I50
sS'query_time'
p7
F0.029486894607543945
sS'comp_time'
p8
F0.0003108978271484375
sS'exec_cq'
p9
I12
sS'total_cq'
p10
I12
sa(dp11
g6
I40
sg7
F5.91278076171875e-05
sg8
F0.00011396408081054688
sg9
I10
sg10
I10
sa(dp12
g6
I44
sg7
F3.790855407714844e-05
sg8
F9.918212890625e-05
sg9
I9
sg10
I9
sasS'total_cqs'
p13
I12
ssI2
(dp14
S'iters'
p15
I6
sS'meta'
p16
(lp17
(dp18
S'objective'
p19
I232
sS'query_time'
p20
F0.09588098526000977
sS'comp_time'
p21
F0.0015959739685058594
sS'exec_cq'
p22
I27
sS'total_cq'
p23
I27
sa(dp24
g19
I229
sg20
F0.0001800060272216797
sg21
F0.0009057521820068359
sg22
I23
sg23
I23
sa(dp25
g19
I195
sg20
F0.00014901161193847656
sg21
F0.0007290840148925781
sg22
I20
sg23
I20
sa(dp26
g19
I197
sg20
F0.00011396408081054688
sg21
F0.0006091594696044922
sg22
I18
sg23
I18
sa(dp27
g19
I186
sg20
F9.107589721679688e-05
sg21
F0.00042510032653808594
sg22
I16
sg23
I16
sa(dp28
g19
I184
sg20
F8.106231689453125e-05
sg21
F0.0002601146697998047
sg22
I15
sg23
I15
sasS'total_cqs'
p29
I27
ssI3
(dp30
S'iters'
p31
I4
sS'meta'
p32
(lp33
(dp34
S'objective'
p35
I566
sS'query_time'
p36
F571.4504070281982
sS'comp_time'
p37
F3.176363229751587
sS'exec_cq'
p38
I43
sS'total_cq'
p39
I43
sa(dp40
g35
I416
sg36
F0.6079540252685547
sg37
F3.34057879447937
sg38
I35
sg39
I35
sa(dp41
g35
I406
sg36
F0.5071728229522705
sg37
F2.046104907989502
sg38
I27
sg39
I27
sa(dp42
g35
I472
sg36
F8.392333984375e-05
sg37
F0.0001342296600341797
sg38
I20
sg39
I20
sasS'total_cqs'
p43
I43
ssI4
(dp44
S'iters'
p45
I2
sS'meta'
p46
(lp47
(dp48
S'objective'
p49
I40
sS'query_time'
p50
F3.9442949295043945
sS'comp_time'
p51
F0.6932451725006104
sS'exec_cq'
p52
I11
sS'total_cq'
p53
I11
sa(dp54
g49
I5
sg50
F0.14107298851013184
sg51
F0.7573671340942383
sg52
I2
sg53
I2
sasS'total_cqs'
p55
I11
ssI5
(dp56
S'iters'
p57
I3
sS'meta'
p58
(lp59
(dp60
S'objective'
p61
I0
sS'query_time'
p62
F27.73276400566101
sS'comp_time'
p63
F3.2679476737976074
sS'exec_cq'
p64
I8
sS'total_cq'
p65
I8
sa(dp66
g61
I0
sg62
F0.011703014373779297
sg63
F0.3681929111480713
sg64
I4
sg65
I4
sa(dp67
g61
I3
sg62
F0.00698399543762207
sg63
F0.10857582092285156
sg64
I2
sg65
I2
sasS'total_cqs'
p68
I8
ssI6
(dp69
S'iters'
p70
I4
sS'meta'
p71
(lp72
(dp73
S'objective'
p74
I31
sS'query_time'
p75
F30.33811593055725
sS'comp_time'
p76
F3.5199577808380127
sS'exec_cq'
p77
I18
sS'total_cq'
p78
I18
sa(dp79
g74
I0
sg75
F0.7741219997406006
sg76
F3.430811882019043
sg77
I7
sg78
I7
sa(dp80
g74
I1
sg75
F0.5620758533477783
sg76
F2.5948641300201416
sg77
I3
sg78
I3
sa(dp81
g74
I5
sg75
F0.3478820323944092
sg76
F2.029330015182495
sg77
I2
sg78
I2
sasS'total_cqs'
p82
I18
ssI7
(dp83
S'iters'
p84
I3
sS'meta'
p85
(lp86
(dp87
S'objective'
p88
I1
sS'query_time'
p89
F9.909784078598022
sS'comp_time'
p90
F1.3656492233276367
sS'exec_cq'
p91
I9
sS'total_cq'
p92
I9
sa(dp93
g88
I0
sg89
F0.1885378360748291
sg90
F1.286531925201416
sg91
I6
sg92
I6
sa(dp94
g88
I3
sg89
F0.13743090629577637
sg90
F0.3892059326171875
sg91
I2
sg92
I2
sasS'total_cqs'
p95
I9
ssI8
(dp96
S'iters'
p97
I5
sS'meta'
p98
(lp99
(dp100
S'objective'
p101
I162
sS'query_time'
p102
F0.1125938892364502
sS'comp_time'
p103
F0.0016591548919677734
sS'exec_cq'
p104
I27
sS'total_cq'
p105
I27
sa(dp106
g101
I186
sg102
F0.0001609325408935547
sg103
F0.0005602836608886719
sg104
I22
sg105
I22
sa(dp107
g101
I194
sg102
F6.794929504394531e-05
sg103
F0.00015997886657714844
sg104
I19
sg105
I19
sa(dp108
g101
I191
sg102
F7.200241088867188e-05
sg103
F0.0001087188720703125
sg104
I18
sg105
I18
sa(dp109
g101
I185
sg102
F5.793571472167969e-05
sg103
F9.202957153320312e-05
sg104
I17
sg105
I17
sasS'total_cqs'
p110
I27
ssI9
(dp111
S'iters'
p112
I3
sS'meta'
p113
(lp114
(dp115
S'objective'
p116
I2
sS'query_time'
p117
F0.06760096549987793
sS'comp_time'
p118
F0.00034308433532714844
sS'exec_cq'
p119
I7
sS'total_cq'
p120
I7
sa(dp121
g116
I1
sg117
F3.314018249511719e-05
sg118
F8.487701416015625e-05
sg119
I4
sg120
I4
sa(dp122
g116
I1
sg117
F1.5020370483398438e-05
sg118
F8.368492126464844e-05
sg119
I2
sg120
I2
sasS'total_cqs'
p123
I7
ssI10
(dp124
S'iters'
p125
I6
sS'meta'
p126
(lp127
(dp128
S'objective'
p129
I530
sS'query_time'
p130
F0.33409786224365234
sS'comp_time'
p131
F0.00784611701965332
sS'exec_cq'
p132
I51
sS'total_cq'
p133
I51
sa(dp134
g129
I418
sg130
F0.0004520416259765625
sg131
F0.001809835433959961
sg132
I37
sg133
I37
sa(dp135
g129
I1
sg130
F0.00020003318786621094
sg131
F0.0007271766662597656
sg132
I12
sg133
I12
sa(dp136
g129
I12
sg130
F0.00010013580322265625
sg131
F0.0007188320159912109
sg132
I7
sg133
I7
sa(dp137
g129
I4
sg130
F2.3126602172851562e-05
sg131
F0.00010704994201660156
sg132
I3
sg133
I3
sa(dp138
g129
I5
sg130
F1.5020370483398438e-05
sg131
F8.916854858398438e-05
sg132
I2
sg133
I2
sasS'total_cqs'
p139
I51
ssI11
(dp140
S'iters'
p141
I6
sS'meta'
p142
(lp143
(dp144
S'objective'
p145
I1076
sS'query_time'
p146
F0.4977900981903076
sS'comp_time'
p147
F0.02385711669921875
sS'exec_cq'
p148
I63
sS'total_cq'
p149
I63
sa(dp150
g145
I800
sg146
F0.0012538433074951172
sg147
F0.007111072540283203
sg148
I47
sg149
I47
sa(dp151
g145
I7
sg146
F0.0002300739288330078
sg147
F0.0017299652099609375
sg148
I9
sg149
I9
sa(dp152
g145
I16
sg146
F3.910064697265625e-05
sg147
F0.0001380443572998047
sg148
I5
sg149
I5
sa(dp153
g145
I1
sg146
F2.09808349609375e-05
sg147
F9.799003601074219e-05
sg148
I3
sg149
I3
sa(dp154
g145
I18
sg146
F1.4066696166992188e-05
sg147
F8.702278137207031e-05
sg148
I2
sg149
I2
sasS'total_cqs'
p155
I63
ssI12
(dp156
S'iters'
p157
I6
sS'meta'
p158
(lp159
(dp160
S'objective'
p161
I373
sS'query_time'
p162
F0.3756439685821533
sS'comp_time'
p163
F0.008471012115478516
sS'exec_cq'
p164
I50
sS'total_cq'
p165
I50
sa(dp166
g161
I342
sg162
F0.0004811286926269531
sg163
F0.002665996551513672
sg164
I33
sg165
I33
sa(dp167
g161
I5
sg162
F0.00021719932556152344
sg163
F0.0015811920166015625
sg164
I8
sg165
I8
sa(dp168
g161
I7
sg162
F8.0108642578125e-05
sg163
F0.0005447864532470703
sg164
I5
sg165
I5
sa(dp169
g161
I19
sg162
F5.1975250244140625e-05
sg163
F0.0006101131439208984
sg164
I3
sg165
I3
sa(dp170
g161
I5
sg162
F1.5020370483398438e-05
sg163
F8.487701416015625e-05
sg164
I2
sg165
I2
sasS'total_cqs'
p171
I50
ssI13
(dp172
S'iters'
p173
I5
sS'meta'
p174
(lp175
(dp176
S'objective'
p177
I62
sS'query_time'
p178
F0.15871214866638184
sS'comp_time'
p179
F0.0006299018859863281
sS'exec_cq'
p180
I20
sS'total_cq'
p181
I20
sa(dp182
g177
I2
sg178
F0.00011801719665527344
sg179
F0.0001468658447265625
sg180
I14
sg181
I14
sa(dp183
g177
I9
sg178
F4.315376281738281e-05
sg179
F0.0001220703125
sg180
I5
sg181
I5
sa(dp184
g177
I0
sg178
F2.09808349609375e-05
sg179
F9.822845458984375e-05
sg180
I3
sg181
I3
sa(dp185
g177
I3
sg178
F1.4066696166992188e-05
sg179
F7.700920104980469e-05
sg180
I2
sg181
I2
sasS'total_cqs'
p186
I20
ssI14
(dp187
S'iters'
p188
I3
sS'meta'
p189
(lp190
(dp191
S'objective'
p192
I1
sS'query_time'
p193
F27.05405306816101
sS'comp_time'
p194
F1.4135220050811768
sS'exec_cq'
p195
I9
sS'total_cq'
p196
I9
sa(dp197
g192
I1
sg193
F0.3271830081939697
sg194
F1.390165090560913
sg195
I5
sg196
I5
sa(dp198
g192
I3
sg193
F0.007426023483276367
sg194
F0.051503896713256836
sg195
I2
sg196
I2
sasS'total_cqs'
p199
I9
ssI15
(dp200
S'iters'
p201
I4
sS'meta'
p202
(lp203
(dp204
S'objective'
p205
I4
sS'query_time'
p206
F3.090085029602051
sS'comp_time'
p207
F0.287567138671875
sS'exec_cq'
p208
I11
sS'total_cq'
p209
I11
sa(dp210
g205
I1
sg206
F0.036547183990478516
sg207
F0.23980093002319336
sg208
I6
sg209
I6
sa(dp211
g205
I0
sg206
F0.033843994140625
sg207
F0.25561976432800293
sg208
I4
sg209
I4
sa(dp212
g205
I0
sg206
F0.02076101303100586
sg207
F0.14506316184997559
sg208
I3
sg209
I3
sasS'total_cqs'
p213
I11
ssI16
(dp214
S'iters'
p215
I1
sS'meta'
p216
(lp217
(dp218
S'objective'
p219
I30
sS'query_time'
p220
F0.010776996612548828
sS'comp_time'
p221
F0.0002040863037109375
sS'exec_cq'
p222
I8
sS'total_cq'
p223
I8
sasS'total_cqs'
p224
I8
ssI17
(dp225
S'iters'
p226
I3
sS'meta'
p227
(lp228
(dp229
S'objective'
p230
I2
sS'query_time'
p231
F0.9160490036010742
sS'comp_time'
p232
F0.03815293312072754
sS'exec_cq'
p233
I11
sS'total_cq'
p234
I11
sa(dp235
g230
I4
sg231
F0.00018215179443359375
sg232
F0.0016558170318603516
sg233
I6
sg234
I6
sa(dp236
g230
I7
sg231
F0.00017786026000976562
sg232
F0.0016341209411621094
sg233
I2
sg234
I2
sasS'total_cqs'
p237
I11
ssI18
(dp238
S'iters'
p239
I3
sS'meta'
p240
(lp241
(dp242
S'objective'
p243
I40
sS'query_time'
p244
F0.23752284049987793
sS'comp_time'
p245
F0.0071620941162109375
sS'exec_cq'
p246
I11
sS'total_cq'
p247
I11
sa(dp248
g243
I39
sg244
F0.00016689300537109375
sg245
F0.0012319087982177734
sg246
I9
sg247
I9
sa(dp249
g243
I38
sg244
F5.316734313964844e-05
sg245
F0.0003662109375
sg246
I7
sg247
I7
sasS'total_cqs'
p250
I11
ssI19
(dp251
S'iters'
p252
I0
sS'meta'
p253
(lp254
sS'total_cqs'
p255
I1
ssI20
(dp256
S'iters'
p257
I0
sS'meta'
p258
(lp259
sS'total_cqs'
p260
I1
ssI21
(dp261
S'iters'
p262
I0
sS'meta'
p263
(lp264
sS'total_cqs'
p265
I1
ssI22
(dp266
S'iters'
p267
I1
sS'meta'
p268
(lp269
(dp270
S'objective'
p271
I159
sS'query_time'
p272
F0.0419008731842041
sS'comp_time'
p273
F0.00028204917907714844
sS'exec_cq'
p274
I18
sS'total_cq'
p275
I18
sasS'total_cqs'
p276
I18
ssI23
(dp277
S'iters'
p278
I3
sS'meta'
p279
(lp280
(dp281
S'objective'
p282
I98
sS'query_time'
p283
F0.0334010124206543
sS'comp_time'
p284
F0.0008780956268310547
sS'exec_cq'
p285
I16
sS'total_cq'
p286
I16
sa(dp287
g282
I89
sg283
F8.606910705566406e-05
sg284
F0.0005018711090087891
sg285
I14
sg286
I14
sa(dp288
g282
I93
sg283
F5.698204040527344e-05
sg284
F9.489059448242188e-05
sg285
I13
sg286
I13
sasS'total_cqs'
p289
I16
ssI24
(dp290
S'iters'
p291
I0
sS'meta'
p292
(lp293
sS'total_cqs'
p294
I1
ssI25
(dp295
S'iters'
p296
I0
sS'meta'
p297
(lp298
sS'total_cqs'
p299
I1
ssI26
(dp300
S'iters'
p301
I1
sS'meta'
p302
(lp303
(dp304
S'objective'
p305
I879
sS'query_time'
p306
F0.1176760196685791
sS'comp_time'
p307
F0.0002079010009765625
sS'exec_cq'
p308
I42
sS'total_cq'
p309
I42
sasS'total_cqs'
p310
I42
ssI27
(dp311
S'iters'
p312
I4
sS'meta'
p313
(lp314
(dp315
S'objective'
p316
I247
sS'query_time'
p317
F17.542372941970825
sS'comp_time'
p318
F2.9442520141601562
sS'exec_cq'
p319
I30
sS'total_cq'
p320
I30
sa(dp321
g316
I1
sg317
F0.4786708354949951
sg318
F2.8601741790771484
sg319
I5
sg320
I5
sa(dp322
g316
I2
sg317
F0.07553410530090332
sg318
F0.9661960601806641
sg319
I3
sg320
I3
sa(dp323
g316
I10
sg317
F0.09919095039367676
sg318
F0.22316503524780273
sg319
I2
sg320
I2
sasS'total_cqs'
p324
I30
ssI28
(dp325
S'iters'
p326
I0
sS'meta'
p327
(lp328
sS'total_cqs'
p329
I1
ssI29
(dp330
S'iters'
p331
I5
sS'meta'
p332
(lp333
(dp334
S'objective'
p335
I277
sS'query_time'
p336
F142.5458540916443
sS'comp_time'
p337
F21.806578874588013
sS'exec_cq'
p338
I49
sS'total_cq'
p339
I49
sa(dp340
g335
I34
sg336
F0.03765702247619629
sg337
F0.2037191390991211
sg338
I17
sg339
I17
sa(dp341
g335
I16
sg336
F0.010045051574707031
sg337
F0.0671992301940918
sg338
I6
sg339
I6
sa(dp342
g335
I6
sg336
F0.0017180442810058594
sg337
F0.012119054794311523
sg338
I3
sg339
I3
sa(dp343
g335
I26
sg336
F0.0011548995971679688
sg337
F0.011386871337890625
sg338
I2
sg339
I2
sasS'total_cqs'
p344
I49
ssI30
(dp345
S'iters'
p346
I1
sS'meta'
p347
(lp348
(dp349
S'objective'
p350
I1
sS'query_time'
p351
F0.7607331275939941
sS'comp_time'
p352
F0.047457218170166016
sS'exec_cq'
p353
I2
sS'total_cq'
p354
I2
sasS'total_cqs'
p355
I2
ssI31
(dp356
S'iters'
p357
I0
sS'meta'
p358
(lp359
sS'total_cqs'
p360
I1
ssI32
(dp361
S'iters'
p362
I1
sS'meta'
p363
(lp364
(dp365
S'objective'
p366
I1
sS'query_time'
p367
F0.025454998016357422
sS'comp_time'
p368
F0.0003311634063720703
sS'exec_cq'
p369
I2
sS'total_cq'
p370
I2
sasS'total_cqs'
p371
I2
ssI33
(dp372
S'iters'
p373
I6
sS'meta'
p374
(lp375
(dp376
S'objective'
p377
I3844
sS'query_time'
p378
F14.056796073913574
sS'comp_time'
p379
F0.18213129043579102
sS'exec_cq'
p380
I103
sS'total_cq'
p381
I103
sa(dp382
g377
I2
sg378
F0.00790095329284668
sg379
F0.029896020889282227
sg380
I16
sg381
I16
sa(dp383
g377
I1
sg378
F0.005189180374145508
sg379
F0.02678704261779785
sg380
I10
sg381
I10
sa(dp384
g377
I0
sg378
F0.002238035202026367
sg379
F0.01669478416442871
sg380
I5
sg381
I5
sa(dp385
g377
I10
sg378
F0.001280069351196289
sg379
F0.010390996932983398
sg380
I3
sg381
I3
sa(dp386
g377
I12
sg378
F0.0005650520324707031
sg379
F0.005328178405761719
sg380
I2
sg381
I2
sasS'total_cqs'
p387
I103
ssI34
(dp388
S'iters'
p389
I1
sS'meta'
p390
(lp391
(dp392
S'objective'
p393
I1
sS'query_time'
p394
F0.013984918594360352
sS'comp_time'
p395
F0.0008947849273681641
sS'exec_cq'
p396
I2
sS'total_cq'
p397
I2
sasS'total_cqs'
p398
I2
ssI35
(dp399
S'iters'
p400
I6
sS'meta'
p401
(lp402
(dp403
S'objective'
p404
I1211
sS'query_time'
p405
F251.86111092567444
sS'comp_time'
p406
F29.053125858306885
sS'exec_cq'
p407
I70
sS'total_cq'
p408
I70
sa(dp409
g404
I5
sg405
F0.0047299861907958984
sg406
F0.018149852752685547
sg407
I16
sg408
I16
sa(dp410
g404
I43
sg405
F0.0021409988403320312
sg406
F0.011990070343017578
sg407
I10
sg408
I10
sa(dp411
g404
I3
sg405
F0.0014429092407226562
sg406
F0.008519172668457031
sg407
I5
sg408
I5
sa(dp412
g404
I10
sg405
F0.001107931137084961
sg406
F0.008662939071655273
sg407
I3
sg408
I3
sa(dp413
g404
I1
sg405
F0.00039005279541015625
sg406
F0.004056692123413086
sg407
I2
sg408
I2
sasS'total_cqs'
p414
I70
ssI36
(dp415
S'iters'
p416
I5
sS'meta'
p417
(lp418
(dp419
S'objective'
p420
I411
sS'query_time'
p421
F0.7460269927978516
sS'comp_time'
p422
F0.04179716110229492
sS'exec_cq'
p423
I33
sS'total_cq'
p424
I33
sa(dp425
g420
I362
sg421
F0.002106904983520508
sg422
F0.015004873275756836
sg423
I29
sg424
I29
sa(dp426
g420
I362
sg421
F0.0011959075927734375
sg422
F0.011249065399169922
sg423
I25
sg424
I25
sa(dp427
g420
I339
sg421
F0.0008900165557861328
sg422
F0.007322788238525391
sg423
I24
sg424
I24
sa(dp428
g420
I346
sg421
F9.512901306152344e-05
sg422
F0.00039505958557128906
sg423
I23
sg424
I23
sasS'total_cqs'
p429
I33
ssI37
(dp430
S'iters'
p431
I1
sS'meta'
p432
(lp433
(dp434
S'objective'
p435
I1
sS'query_time'
p436
F0.00783395767211914
sS'comp_time'
p437
F0.00036025047302246094
sS'exec_cq'
p438
I2
sS'total_cq'
p439
I2
sasS'total_cqs'
p440
I2
ssI38
(dp441
S'iters'
p442
I2
sS'meta'
p443
(lp444
(dp445
S'objective'
p446
I0
sS'query_time'
p447
F0.02400684356689453
sS'comp_time'
p448
F0.0007469654083251953
sS'exec_cq'
p449
I4
sS'total_cq'
p450
I4
sa(dp451
g446
I1
sg447
F8.392333984375e-05
sg448
F0.0004870891571044922
sg449
I2
sg450
I2
sasS'total_cqs'
p452
I4
ssI39
(dp453
S'iters'
p454
I2
sS'meta'
p455
(lp456
(dp457
S'objective'
p458
I642
sS'query_time'
p459
F0.15608000755310059
sS'comp_time'
p460
F0.0024099349975585938
sS'exec_cq'
p461
I44
sS'total_cq'
p462
I44
sa(dp463
g458
I792
sg459
F0.00033020973205566406
sg460
F0.005670070648193359
sg461
I37
sg462
I37
sasS'total_cqs'
p464
I44
ssI40
(dp465
S'iters'
p466
I1
sS'meta'
p467
(lp468
(dp469
S'objective'
p470
I22
sS'query_time'
p471
F0.038290977478027344
sS'comp_time'
p472
F0.00011897087097167969
sS'exec_cq'
p473
I7
sS'total_cq'
p474
I7
sasS'total_cqs'
p475
I7
ssI41
(dp476
S'iters'
p477
I1
sS'meta'
p478
(lp479
(dp480
S'objective'
p481
I70
sS'query_time'
p482
F0.08561301231384277
sS'comp_time'
p483
F0.00019693374633789062
sS'exec_cq'
p484
I12
sS'total_cq'
p485
I12
sasS'total_cqs'
p486
I12
ssI42
(dp487
S'iters'
p488
I3
sS'meta'
p489
(lp490
(dp491
S'objective'
p492
I783
sS'query_time'
p493
F0.11371088027954102
sS'comp_time'
p494
F0.00022482872009277344
sS'exec_cq'
p495
I41
sS'total_cq'
p496
I41
sa(dp497
g492
I792
sg493
F0.00016379356384277344
sg494
F0.00013971328735351562
sg495
I40
sg496
I40
sa(dp498
g492
I783
sg493
F0.00013589859008789062
sg494
F0.00011181831359863281
sg495
I39
sg496
I39
sasS'total_cqs'
p499
I41
ssI43
(dp500
S'iters'
p501
I1
sS'meta'
p502
(lp503
(dp504
S'objective'
p505
I22
sS'query_time'
p506
F0.03117990493774414
sS'comp_time'
p507
F0.0001220703125
sS'exec_cq'
p508
I7
sS'total_cq'
p509
I7
sasS'total_cqs'
p510
I7
ssI44
(dp511
S'iters'
p512
I4
sS'meta'
p513
(lp514
(dp515
S'objective'
p516
I754
sS'query_time'
p517
F0.13511991500854492
sS'comp_time'
p518
F0.0019881725311279297
sS'exec_cq'
p519
I47
sS'total_cq'
p520
I47
sa(dp521
g516
I807
sg517
F0.00028204917907714844
sg518
F0.0019731521606445312
sg519
I40
sg520
I40
sa(dp522
g516
I19
sg517
F0.00010991096496582031
sg518
F0.004323005676269531
sg519
I3
sg520
I3
sa(dp523
g516
I2
sg517
F2.7894973754882812e-05
sg518
F0.00016498565673828125
sg519
I2
sg520
I2
sasS'total_cqs'
p524
I47
ssI45
(dp525
S'iters'
p526
I0
sS'meta'
p527
(lp528
sS'total_cqs'
p529
I1
ssI46
(dp530
S'iters'
p531
I2
sS'meta'
p532
(lp533
(dp534
S'objective'
p535
I9
sS'query_time'
p536
F0.014834880828857422
sS'comp_time'
p537
F0.0006079673767089844
sS'exec_cq'
p538
I6
sS'total_cq'
p539
I6
sa(dp540
g535
I9
sg536
F2.193450927734375e-05
sg537
F6.604194641113281e-05
sg538
I5
sg539
I5
sasS'total_cqs'
p541
I6
ssI47
(dp542
S'iters'
p543
I1
sS'meta'
p544
(lp545
(dp546
S'objective'
p547
I1
sS'query_time'
p548
F0.006356000900268555
sS'comp_time'
p549
F0.0004448890686035156
sS'exec_cq'
p550
I2
sS'total_cq'
p551
I2
sasS'total_cqs'
p552
I2
ssI48
(dp553
S'iters'
p554
I0
sS'meta'
p555
(lp556
sS'total_cqs'
p557
I1
ssI49
(dp558
S'iters'
p559
I0
sS'meta'
p560
(lp561
sS'total_cqs'
p562
I1
ssI50
(dp563
S'iters'
p564
I3
sS'meta'
p565
(lp566
(dp567
S'objective'
p568
I5
sS'query_time'
p569
F0.010438919067382812
sS'comp_time'
p570
F0.00017309188842773438
sS'exec_cq'
p571
I5
sS'total_cq'
p572
I5
sa(dp573
g568
I2
sg569
F2.6941299438476562e-05
sg570
F0.00013017654418945312
sg571
I4
sg572
I4
sa(dp574
g568
I0
sg569
F2.002716064453125e-05
sg570
F0.00011587142944335938
sg571
I3
sg572
I3
sasS'total_cqs'
p575
I5
ssI51
(dp576
S'iters'
p577
I1
sS'meta'
p578
(lp579
(dp580
S'objective'
p581
I1
sS'query_time'
p582
F0.005978107452392578
sS'comp_time'
p583
F0.0002880096435546875
sS'exec_cq'
p584
I2
sS'total_cq'
p585
I2
sasS'total_cqs'
p586
I2
ssI52
(dp587
S'iters'
p588
I1
sS'meta'
p589
(lp590
(dp591
S'objective'
p592
I1
sS'query_time'
p593
F0.005668163299560547
sS'comp_time'
p594
F0.00029468536376953125
sS'exec_cq'
p595
I2
sS'total_cq'
p596
I2
sasS'total_cqs'
p597
I2
ssI53
(dp598
S'iters'
p599
I3
sS'meta'
p600
(lp601
(dp602
S'objective'
p603
I2
sS'query_time'
p604
F0.01942586898803711
sS'comp_time'
p605
F0.0009400844573974609
sS'exec_cq'
p606
I4
sS'total_cq'
p607
I4
sa(dp608
g603
I0
sg604
F6.103515625e-05
sg605
F0.0005841255187988281
sg606
I3
sg607
I3
sa(dp609
g603
I1
sg604
F5.4836273193359375e-05
sg605
F0.004018068313598633
sg606
I2
sg607
I2
sasS'total_cqs'
p610
I4
ssI54
(dp611
S'iters'
p612
I2
sS'meta'
p613
(lp614
(dp615
S'objective'
p616
I0
sS'query_time'
p617
F0.011968135833740234
sS'comp_time'
p618
F0.0004029273986816406
sS'exec_cq'
p619
I3
sS'total_cq'
p620
I3
sa(dp621
g616
I1
sg617
F4.506111145019531e-05
sg618
F0.0003490447998046875
sg619
I2
sg620
I2
sasS'total_cqs'
p622
I3
ssI55
(dp623
S'iters'
p624
I8
sS'meta'
p625
(lp626
(dp627
S'objective'
p628
I4649
sS'query_time'
p629
F2.131974935531616
sS'comp_time'
p630
F0.05100703239440918
sS'exec_cq'
p631
I109
sS'total_cq'
p632
I109
sa(dp633
g628
I4452
sg629
F0.0007619857788085938
sg630
F0.002373218536376953
sg631
I97
sg632
I97
sa(dp634
g628
I4365
sg629
F0.0003020763397216797
sg630
F0.0011720657348632812
sg631
I91
sg632
I91
sa(dp635
g628
I4312
sg629
F0.0002930164337158203
sg630
F0.001280069351196289
sg631
I87
sg632
I87
sa(dp636
g628
I4205
sg629
F0.0002651214599609375
sg630
F0.0008819103240966797
sg631
I85
sg632
I85
sa(dp637
g628
I4081
sg629
F0.00024890899658203125
sg630
F0.0007681846618652344
sg631
I83
sg632
I83
sa(dp638
g628
I4097
sg629
F0.00023698806762695312
sg630
F0.0008540153503417969
sg631
I81
sg632
I81
sa(dp639
g628
I4095
sg629
F0.0002319812774658203
sg630
F0.0006630420684814453
sg631
I80
sg632
I80
sasS'total_cqs'
p640
I109
ssI56
(dp641
S'iters'
p642
I6
sS'meta'
p643
(lp644
(dp645
S'objective'
p646
I1622
sS'query_time'
p647
F3.375900983810425
sS'comp_time'
p648
F0.2639429569244385
sS'exec_cq'
p649
I76
sS'total_cq'
p650
I76
sa(dp651
g646
I28
sg647
F0.006482839584350586
sg648
F0.01693272590637207
sg649
I16
sg650
I16
sa(dp652
g646
I56
sg647
F0.0018339157104492188
sg648
F0.009886980056762695
sg649
I10
sg650
I10
sa(dp653
g646
I0
sg647
F0.0009148120880126953
sg648
F0.007627964019775391
sg649
I6
sg650
I6
sa(dp654
g646
I15
sg647
F0.0001690387725830078
sg648
F0.0017039775848388672
sg649
I3
sg650
I3
sa(dp655
g646
I2
sg647
F0.000102996826171875
sg648
F0.0009829998016357422
sg649
I2
sg650
I2
sasS'total_cqs'
p656
I76
ssI57
(dp657
S'iters'
p658
I6
sS'meta'
p659
(lp660
(dp661
S'objective'
p662
I176
sS'query_time'
p663
F69.66791296005249
sS'comp_time'
p664
F6.964895725250244
sS'exec_cq'
p665
I51
sS'total_cq'
p666
I51
sa(dp667
g662
I25
sg663
F0.014586925506591797
sg664
F0.04297685623168945
sg665
I27
sg666
I27
sa(dp668
g662
I4
sg663
F0.009218931198120117
sg664
F0.03241896629333496
sg665
I11
sg666
I11
sa(dp669
g662
I2
sg663
F0.0019860267639160156
sg664
F0.009181976318359375
sg665
I6
sg666
I6
sa(dp670
g662
I13
sg663
F0.0004420280456542969
sg664
F0.004114866256713867
sg665
I3
sg666
I3
sa(dp671
g662
I28
sg663
F0.0003058910369873047
sg664
F0.003198862075805664
sg665
I2
sg666
I2
sasS'total_cqs'
p672
I51
ssI58
(dp673
S'iters'
p674
I9
sS'meta'
p675
(lp676
(dp677
S'objective'
p678
I85585
sS'query_time'
p679
F520.8581829071045
sS'comp_time'
p680
F47.104196071624756
sS'exec_cq'
p681
I486
sS'total_cq'
p682
I486
sa(dp683
g678
I87421
sg679
F9.427617073059082
sg680
F45.336604833602905
sg681
I414
sg682
I414
sa(dp684
g678
I83242
sg679
F2.719465970993042
sg680
F26.36088800430298
sg681
I390
sg682
I390
sa(dp685
g678
I1
sg679
F0.011895179748535156
sg680
F0.03687906265258789
sg681
I25
sg682
I25
sa(dp686
g678
I53
sg679
F0.00925588607788086
sg680
F0.03377676010131836
sg681
I13
sg682
I13
sa(dp687
g678
I96
sg679
F0.0010890960693359375
sg680
F0.0047609806060791016
sg681
I6
sg682
I6
sa(dp688
g678
I121
sg679
F0.0006499290466308594
sg680
F0.00474095344543457
sg681
I4
sg682
I4
sa(dp689
g678
I24
sg679
F0.0005249977111816406
sg680
F0.004152059555053711
sg681
I3
sg682
I3
sa(dp690
g678
I118
sg679
F0.00034689903259277344
sg680
F0.002538919448852539
sg681
I2
sg682
I2
sasS'total_cqs'
p691
I486
ssI59
(dp692
S'iters'
p693
I2
sS'meta'
p694
(lp695
(dp696
S'objective'
p697
I18
sS'query_time'
p698
F0.05504798889160156
sS'comp_time'
p699
F0.0015401840209960938
sS'exec_cq'
p700
I7
sS'total_cq'
p701
I7
sa(dp702
g697
I1
sg698
F0.00014209747314453125
sg699
F0.008660078048706055
sg700
I2
sg701
I2
sasS'total_cqs'
p703
I7
ssI60
(dp704
S'iters'
p705
I2
sS'meta'
p706
(lp707
(dp708
S'objective'
p709
I7
sS'query_time'
p710
F0.0187990665435791
sS'comp_time'
p711
F0.0005919933319091797
sS'exec_cq'
p712
I5
sS'total_cq'
p713
I5
sa(dp714
g709
I5
sg710
F6.103515625e-05
sg711
F0.00044798851013183594
sg712
I4
sg713
I4
sasS'total_cqs'
p715
I5
ssI61
(dp716
S'iters'
p717
I0
sS'meta'
p718
(lp719
sS'total_cqs'
p720
I1
ssI62
(dp721
S'iters'
p722
I3
sS'meta'
p723
(lp724
(dp725
S'objective'
p726
I40
sS'query_time'
p727
F0.02692413330078125
sS'comp_time'
p728
F0.0002682209014892578
sS'exec_cq'
p729
I12
sS'total_cq'
p730
I12
sa(dp731
g726
I43
sg727
F4.410743713378906e-05
sg728
F9.870529174804688e-05
sg729
I9
sg730
I9
sa(dp732
g726
I43
sg727
F3.1948089599609375e-05
sg728
F8.606910705566406e-05
sg729
I8
sg730
I8
sasS'total_cqs'
p733
I12
ssI63
(dp734
S'iters'
p735
I0
sS'meta'
p736
(lp737
sS'total_cqs'
p738
I1
ssI64
(dp739
S'iters'
p740
I3
sS'meta'
p741
(lp742
(dp743
S'objective'
p744
I18
sS'query_time'
p745
F0.16567707061767578
sS'comp_time'
p746
F0.008740901947021484
sS'exec_cq'
p747
I12
sS'total_cq'
p748
I12
sa(dp749
g744
I0
sg745
F0.00010204315185546875
sg746
F0.0005631446838378906
sg747
I4
sg748
I4
sa(dp750
g744
I7
sg745
F4.00543212890625e-05
sg746
F0.00026607513427734375
sg747
I2
sg748
I2
sasS'total_cqs'
p751
I12
ssI65
(dp752
S'iters'
p753
I4
sS'meta'
p754
(lp755
(dp756
S'objective'
p757
I184
sS'query_time'
p758
F0.8838701248168945
sS'comp_time'
p759
F0.05960798263549805
sS'exec_cq'
p760
I27
sS'total_cq'
p761
I27
sa(dp762
g757
I3
sg758
F0.0012328624725341797
sg759
F0.007151126861572266
sg760
I7
sg761
I7
sa(dp763
g757
I7
sg758
F0.0008449554443359375
sg759
F0.006227016448974609
sg760
I5
sg761
I5
sa(dp764
g757
I11
sg758
F0.00021004676818847656
sg759
F0.0024149417877197266
sg760
I2
sg761
I2
sasS'total_cqs'
p765
I27
ssI66
(dp766
S'iters'
p767
I0
sS'meta'
p768
(lp769
sS'total_cqs'
p770
I1
ssI67
(dp771
S'iters'
p772
I2
sS'meta'
p773
(lp774
(dp775
S'objective'
p776
I600
sS'query_time'
p777
F1.3107860088348389
sS'comp_time'
p778
F0.012390851974487305
sS'exec_cq'
p779
I35
sS'total_cq'
p780
I35
sa(dp781
g776
I5
sg777
F0.0020389556884765625
sg778
F0.010911941528320312
sg779
I2
sg780
I2
sasS'total_cqs'
p782
I35
ssI68
(dp783
S'iters'
p784
I0
sS'meta'
p785
(lp786
sS'total_cqs'
p787
I1
ssI69
(dp788
S'iters'
p789
I1
sS'meta'
p790
(lp791
(dp792
S'objective'
p793
I1298
sS'query_time'
p794
F0.14890289306640625
sS'comp_time'
p795
F0.0003216266632080078
sS'exec_cq'
p796
I51
sS'total_cq'
p797
I51
sasS'total_cqs'
p798
I51
ssI70
(dp799
S'iters'
p800
I2
sS'meta'
p801
(lp802
(dp803
S'objective'
p804
I9
sS'query_time'
p805
F0.029282093048095703
sS'comp_time'
p806
F0.0008518695831298828
sS'exec_cq'
p807
I6
sS'total_cq'
p808
I6
sa(dp809
g804
I9
sg805
F5.507469177246094e-05
sg806
F0.0003039836883544922
sg807
I5
sg808
I5
sasS'total_cqs'
p810
I6
ssI71
(dp811
S'iters'
p812
I6
sS'meta'
p813
(lp814
(dp815
S'objective'
p816
I3263
sS'query_time'
p817
F0.28034186363220215
sS'comp_time'
p818
F0.001135110855102539
sS'exec_cq'
p819
I85
sS'total_cq'
p820
I85
sa(dp821
g816
I3167
sg817
F0.0004150867462158203
sg818
F0.0008161067962646484
sg819
I81
sg820
I81
sa(dp822
g816
I3025
sg817
F0.0003008842468261719
sg818
F0.0007328987121582031
sg819
I77
sg820
I77
sa(dp823
g816
I2943
sg817
F0.00026702880859375
sg818
F0.0008590221405029297
sg819
I74
sg820
I74
sa(dp824
g816
I2846
sg817
F0.0002758502960205078
sg818
F0.0005590915679931641
sg819
I71
sg820
I71
sa(dp825
g816
I59
sg817
F6.198883056640625e-05
sg818
F0.00026702880859375
sg819
I3
sg820
I3
sasS'total_cqs'
p826
I85
ssI72
(dp827
S'iters'
p828
I3
sS'meta'
p829
(lp830
(dp831
S'objective'
p832
I6
sS'query_time'
p833
F0.42014503479003906
sS'comp_time'
p834
F0.004669904708862305
sS'exec_cq'
p835
I8
sS'total_cq'
p836
I8
sa(dp837
g832
I3
sg833
F9.894371032714844e-05
sg834
F0.0004949569702148438
sg835
I5
sg836
I5
sa(dp838
g832
I3
sg833
F7.390975952148438e-05
sg834
F0.00048089027404785156
sg835
I3
sg836
I3
sasS'total_cqs'
p839
I8
ssI73
(dp840
S'iters'
p841
I0
sS'meta'
p842
(lp843
sS'total_cqs'
p844
I1
ssI74
(dp845
S'iters'
p846
I0
sS'meta'
p847
(lp848
sS'total_cqs'
p849
I1
ssI75
(dp850
S'iters'
p851
I3
sS'meta'
p852
(lp853
(dp854
S'objective'
p855
I5
sS'query_time'
p856
F0.006818056106567383
sS'comp_time'
p857
F0.0001647472381591797
sS'exec_cq'
p858
I5
sS'total_cq'
p859
I5
sa(dp860
g855
I2
sg856
F2.6941299438476562e-05
sg857
F0.00011014938354492188
sg858
I4
sg859
I4
sa(dp861
g855
I0
sg856
F2.002716064453125e-05
sg857
F9.989738464355469e-05
sg858
I3
sg859
I3
sasS'total_cqs'
p862
I5
ssI76
(dp863
S'iters'
p864
I1
sS'meta'
p865
(lp866
(dp867
S'objective'
p868
I1
sS'query_time'
p869
F0.010905027389526367
sS'comp_time'
p870
F0.0004940032958984375
sS'exec_cq'
p871
I2
sS'total_cq'
p872
I2
sasS'total_cqs'
p873
I2
ssI77
(dp874
S'iters'
p875
I0
sS'meta'
p876
(lp877
sS'total_cqs'
p878
I1
ssI78
(dp879
S'iters'
p880
I0
sS'meta'
p881
(lp882
sS'total_cqs'
p883
I1
ssI103
(dp884
S'iters'
p885
I2
sS'meta'
p886
(lp887
(dp888
S'objective'
p889
I58
sS'query_time'
p890
F0.08563399314880371
sS'comp_time'
p891
F0.00028395652770996094
sS'exec_cq'
p892
I12
sS'total_cq'
p893
I12
sa(dp894
g889
I60
sg890
F6.198883056640625e-05
sg891
F0.00019311904907226562
sg892
I11
sg893
I11
sasS'total_cqs'
p895
I12
ssI104
(dp896
S'iters'
p897
I2
sS'meta'
p898
(lp899
(dp900
S'objective'
p901
I0
sS'query_time'
p902
F1.5967907905578613
sS'comp_time'
p903
F0.12523722648620605
sS'exec_cq'
p904
I4
sS'total_cq'
p905
I4
sa(dp906
g901
I1
sg902
F0.03394508361816406
sg903
F0.09150886535644531
sg904
I2
sg905
I2
sasS'total_cqs'
p907
I4
ssI105
(dp908
S'iters'
p909
I0
sS'meta'
p910
(lp911
sS'total_cqs'
p912
I1
ssI106
(dp913
S'iters'
p914
I1
sS'meta'
p915
(lp916
(dp917
S'objective'
p918
I6
sS'query_time'
p919
F0.04770493507385254
sS'comp_time'
p920
F0.00016188621520996094
sS'exec_cq'
p921
I4
sS'total_cq'
p922
I4
sasS'total_cqs'
p923
I4
ssI107
(dp924
S'iters'
p925
I3
sS'meta'
p926
(lp927
(dp928
S'objective'
p929
I108
sS'query_time'
p930
F0.08106589317321777
sS'comp_time'
p931
F0.00027489662170410156
sS'exec_cq'
p932
I16
sS'total_cq'
p933
I16
sa(dp934
g929
I96
sg930
F7.081031799316406e-05
sg931
F0.00017595291137695312
sg932
I15
sg933
I15
sa(dp935
g929
I3
sg930
F2.5987625122070312e-05
sg931
F0.00015091896057128906
sg932
I3
sg933
I3
sasS'total_cqs'
p936
I16
ssI108
(dp937
S'iters'
p938
I0
sS'meta'
p939
(lp940
sS'total_cqs'
p941
I1
ss.