(dp0
I1
(dp1
S'iters'
p2
I3
sS'meta'
p3
(lp4
(dp5
S'objective'
p6
I54
sS'query_time'
p7
F0.038069963455200195
sS'comp_time'
p8
F0.0002579689025878906
sS'exec_cq'
p9
I12
sS'total_cq'
p10
I12
sa(dp11
g6
I50
sg7
F4.887580871582031e-05
sg8
F7.200241088867188e-05
sg9
I10
sg10
I10
sa(dp12
g6
I50
sg7
F3.910064697265625e-05
sg8
F5.888938903808594e-05
sg9
I9
sg10
I9
sasS'total_cqs'
p13
I12
ssI2
(dp14
S'iters'
p15
I6
sS'meta'
p16
(lp17
(dp18
S'objective'
p19
I248
sS'query_time'
p20
F0.11458086967468262
sS'comp_time'
p21
F0.0011017322540283203
sS'exec_cq'
p22
I27
sS'total_cq'
p23
I27
sa(dp24
g19
I223
sg20
F0.00015211105346679688
sg21
F0.0004949569702148438
sg22
I23
sg23
I23
sa(dp25
g19
I206
sg20
F0.00012803077697753906
sg21
F0.00041794776916503906
sg22
I20
sg23
I20
sa(dp26
g19
I189
sg20
F8.893013000488281e-05
sg21
F0.0002918243408203125
sg22
I18
sg23
I18
sa(dp27
g19
I195
sg20
F5.91278076171875e-05
sg21
F0.0001590251922607422
sg22
I16
sg23
I16
sa(dp28
g19
I188
sg20
F5.602836608886719e-05
sg21
F0.0001800060272216797
sg22
I15
sg23
I15
sasS'total_cqs'
p29
I27
ssI3
(dp30
S'iters'
p31
I4
sS'meta'
p32
(lp33
(dp34
S'objective'
p35
I208
sS'query_time'
p36
F159.5385501384735
sS'comp_time'
p37
F1.654815912246704
sS'exec_cq'
p38
I43
sS'total_cq'
p39
I43
sa(dp40
g35
I27
sg36
F0.34838104248046875
sg37
F1.5692930221557617
sg38
I27
sg39
I27
sa(dp41
g35
I8
sg36
F0.045176029205322266
sg37
F0.3724210262298584
sg38
I13
sg39
I13
sa(dp42
g35
I131
sg36
F5.793571472167969e-05
sg37
F0.004041194915771484
sg38
I7
sg39
I7
sasS'total_cqs'
p43
I43
ssI4
(dp44
S'iters'
p45
I2
sS'meta'
p46
(lp47
(dp48
S'objective'
p49
I52
sS'query_time'
p50
F4.168493986129761
sS'comp_time'
p51
F0.5047328472137451
sS'exec_cq'
p52
I11
sS'total_cq'
p53
I11
sa(dp54
g49
I1
sg50
F0.11820793151855469
sg51
F0.3707859516143799
sg52
I2
sg53
I2
sasS'total_cqs'
p55
I11
ssI5
(dp56
S'iters'
p57
I3
sS'meta'
p58
(lp59
(dp60
S'objective'
p61
I0
sS'query_time'
p62
F27.182465076446533
sS'comp_time'
p63
F2.2333178520202637
sS'exec_cq'
p64
I8
sS'total_cq'
p65
I8
sa(dp66
g61
I0
sg62
F0.011492013931274414
sg63
F0.0445401668548584
sg64
I4
sg65
I4
sa(dp67
g61
I3
sg62
F0.003798961639404297
sg63
F0.016204118728637695
sg64
I2
sg65
I2
sasS'total_cqs'
p68
I8
ssI6
(dp69
S'iters'
p70
I4
sS'meta'
p71
(lp72
(dp73
S'objective'
p74
I15
sS'query_time'
p75
F30.706977128982544
sS'comp_time'
p76
F2.1353631019592285
sS'exec_cq'
p77
I18
sS'total_cq'
p78
I18
sa(dp79
g74
I0
sg75
F0.5483639240264893
sg76
F2.112125873565674
sg77
I7
sg78
I7
sa(dp80
g74
I3
sg75
F0.10744810104370117
sg76
F0.9639208316802979
sg77
I3
sg78
I3
sa(dp81
g74
I9
sg75
F0.19243812561035156
sg76
F0.8775568008422852
sg77
I2
sg78
I2
sasS'total_cqs'
p82
I18
ssI7
(dp83
S'iters'
p84
I4
sS'meta'
p85
(lp86
(dp87
S'objective'
p88
I1
sS'query_time'
p89
F9.830333948135376
sS'comp_time'
p90
F0.8956658840179443
sS'exec_cq'
p91
I9
sS'total_cq'
p92
I9
sa(dp93
g88
I1
sg89
F0.13609886169433594
sg90
F0.41964101791381836
sg91
I6
sg92
I6
sa(dp94
g88
I1
sg89
F0.0032939910888671875
sg90
F0.016050338745117188
sg91
I3
sg92
I3
sa(dp95
g88
I3
sg89
F0.0022389888763427734
sg90
F0.012927770614624023
sg91
I2
sg92
I2
sasS'total_cqs'
p96
I9
ssI8
(dp97
S'iters'
p98
I4
sS'meta'
p99
(lp100
(dp101
S'objective'
p102
I216
sS'query_time'
p103
F0.15446019172668457
sS'comp_time'
p104
F0.0010790824890136719
sS'exec_cq'
p105
I27
sS'total_cq'
p106
I27
sa(dp107
g102
I183
sg103
F0.00016999244689941406
sg104
F0.0004067420959472656
sg105
I22
sg106
I22
sa(dp108
g102
I198
sg103
F8.20159912109375e-05
sg104
F0.00010418891906738281
sg105
I19
sg106
I19
sa(dp109
g102
I203
sg103
F7.510185241699219e-05
sg104
F8.416175842285156e-05
sg105
I18
sg106
I18
sasS'total_cqs'
p110
I27
ssI9
(dp111
S'iters'
p112
I3
sS'meta'
p113
(lp114
(dp115
S'objective'
p116
I6
sS'query_time'
p117
F0.05874896049499512
sS'comp_time'
p118
F0.00025200843811035156
sS'exec_cq'
p119
I7
sS'total_cq'
p120
I7
sa(dp121
g116
I1
sg117
F4.291534423828125e-05
sg118
F5.412101745605469e-05
sg119
I4
sg120
I4
sa(dp122
g116
I2
sg117
F0.001013040542602539
sg118
F5.888938903808594e-05
sg119
I2
sg120
I2
sasS'total_cqs'
p123
I7
ssI10
(dp124
S'iters'
p125
I6
sS'meta'
p126
(lp127
(dp128
S'objective'
p129
I620
sS'query_time'
p130
F0.429854154586792
sS'comp_time'
p131
F0.007730960845947266
sS'exec_cq'
p132
I51
sS'total_cq'
p133
I51
sa(dp134
g129
I317
sg130
F0.0005049705505371094
sg131
F0.001940011978149414
sg132
I39
sg133
I39
sa(dp135
g129
I455
sg130
F0.00020599365234375
sg131
F0.0006859302520751953
sg132
I25
sg133
I25
sa(dp136
g129
I410
sg130
F0.00010395050048828125
sg131
F0.0002579689025878906
sg132
I21
sg133
I21
sa(dp137
g129
I28
sg130
F0.0017099380493164062
sg131
F9.512901306152344e-05
sg132
I3
sg133
I3
sa(dp138
g129
I21
sg130
F1.5974044799804688e-05
sg131
F5.3882598876953125e-05
sg132
I2
sg133
I2
sasS'total_cqs'
p139
I51
ssI11
(dp140
S'iters'
p141
I6
sS'meta'
p142
(lp143
(dp144
S'objective'
p145
I952
sS'query_time'
p146
F0.7349190711975098
sS'comp_time'
p147
F0.01485896110534668
sS'exec_cq'
p148
I63
sS'total_cq'
p149
I63
sa(dp150
g145
I946
sg146
F0.0013370513916015625
sg147
F0.004530191421508789
sg148
I47
sg149
I47
sa(dp151
g145
I9
sg146
F0.001689910888671875
sg147
F0.0010762214660644531
sg148
I9
sg149
I9
sa(dp152
g145
I19
sg146
F3.600120544433594e-05
sg147
F8.702278137207031e-05
sg148
I5
sg149
I5
sa(dp153
g145
I14
sg146
F2.09808349609375e-05
sg147
F6.508827209472656e-05
sg148
I3
sg149
I3
sa(dp154
g145
I3
sg146
F1.621246337890625e-05
sg147
F5.5789947509765625e-05
sg148
I2
sg149
I2
sasS'total_cqs'
p155
I63
ssI12
(dp156
S'iters'
p157
I5
sS'meta'
p158
(lp159
(dp160
S'objective'
p161
I479
sS'query_time'
p162
F0.4971199035644531
sS'comp_time'
p163
F0.006518125534057617
sS'exec_cq'
p164
I50
sS'total_cq'
p165
I50
sa(dp166
g161
I395
sg162
F0.0004189014434814453
sg163
F0.0017020702362060547
sg164
I33
sg165
I33
sa(dp167
g161
I524
sg162
F0.00013589859008789062
sg163
F0.0004000663757324219
sg164
I26
sg165
I26
sa(dp168
g161
I24
sg162
F0.0013780593872070312
sg163
F9.083747863769531e-05
sg164
I4
sg165
I4
sa(dp169
g161
I12
sg162
F1.5974044799804688e-05
sg163
F5.91278076171875e-05
sg164
I2
sg165
I2
sasS'total_cqs'
p170
I50
ssI13
(dp171
S'iters'
p172
I3
sS'meta'
p173
(lp174
(dp175
S'objective'
p176
I32
sS'query_time'
p177
F0.18496108055114746
sS'comp_time'
p178
F0.00040411949157714844
sS'exec_cq'
p179
I20
sS'total_cq'
p180
I20
sa(dp181
g176
I101
sg177
F4.220008850097656e-05
sg178
F6.222724914550781e-05
sg179
I9
sg180
I9
sa(dp182
g176
I2
sg177
F0.001127004623413086
sg178
F6.198883056640625e-05
sg179
I2
sg180
I2
sasS'total_cqs'
p183
I20
ssI14
(dp184
S'iters'
p185
I3
sS'meta'
p186
(lp187
(dp188
S'objective'
p189
I1
sS'query_time'
p190
F27.438812971115112
sS'comp_time'
p191
F1.2116620540618896
sS'exec_cq'
p192
I9
sS'total_cq'
p193
I9
sa(dp194
g189
I4
sg190
F0.008251190185546875
sg191
F0.03211808204650879
sg192
I4
sg193
I4
sa(dp195
g189
I5
sg190
F0.007292032241821289
sg191
F0.1303420066833496
sg192
I2
sg193
I2
sasS'total_cqs'
p196
I9
ssI15
(dp197
S'iters'
p198
I3
sS'meta'
p199
(lp200
(dp201
S'objective'
p202
I2
sS'query_time'
p203
F3.2448570728302
sS'comp_time'
p204
F0.1240389347076416
sS'exec_cq'
p205
I11
sS'total_cq'
p206
I11
sa(dp207
g202
I4
sg203
F0.0007982254028320312
sg204
F0.0033690929412841797
sg205
I6
sg206
I6
sa(dp208
g202
I6
sg203
F0.0006840229034423828
sg204
F0.0029549598693847656
sg205
I2
sg206
I2
sasS'total_cqs'
p209
I11
ssI16
(dp210
S'iters'
p211
I1
sS'meta'
p212
(lp213
(dp214
S'objective'
p215
I30
sS'query_time'
p216
F0.03176307678222656
sS'comp_time'
p217
F0.00017905235290527344
sS'exec_cq'
p218
I8
sS'total_cq'
p219
I8
sasS'total_cqs'
p220
I8
ssI17
(dp221
S'iters'
p222
I3
sS'meta'
p223
(lp224
(dp225
S'objective'
p226
I0
sS'query_time'
p227
F0.9295258522033691
sS'comp_time'
p228
F0.021439075469970703
sS'exec_cq'
p229
I11
sS'total_cq'
p230
I11
sa(dp231
g226
I3
sg227
F0.004939079284667969
sg228
F0.017557859420776367
sg229
I4
sg230
I4
sa(dp232
g226
I7
sg227
F0.00019097328186035156
sg228
F0.0009899139404296875
sg229
I2
sg230
I2
sasS'total_cqs'
p233
I11
ssI18
(dp234
S'iters'
p235
I4
sS'meta'
p236
(lp237
(dp238
S'objective'
p239
I30
sS'query_time'
p240
F0.2515909671783447
sS'comp_time'
p241
F0.004084110260009766
sS'exec_cq'
p242
I11
sS'total_cq'
p243
I11
sa(dp244
g239
I30
sg240
F0.0001881122589111328
sg241
F0.0008840560913085938
sg242
I9
sg243
I9
sa(dp245
g239
I21
sg240
F0.0001289844512939453
sg241
F0.0005748271942138672
sg242
I8
sg243
I8
sa(dp246
g239
I22
sg240
F3.1948089599609375e-05
sg241
F8.392333984375e-05
sg242
I6
sg243
I6
sasS'total_cqs'
p247
I11
ssI19
(dp248
S'iters'
p249
I0
sS'meta'
p250
(lp251
sS'total_cqs'
p252
I1
ssI20
(dp253
S'iters'
p254
I0
sS'meta'
p255
(lp256
sS'total_cqs'
p257
I1
ssI21
(dp258
S'iters'
p259
I0
sS'meta'
p260
(lp261
sS'total_cqs'
p262
I1
ssI22
(dp263
S'iters'
p264
I1
sS'meta'
p265
(lp266
(dp267
S'objective'
p268
I159
sS'query_time'
p269
F0.09131789207458496
sS'comp_time'
p270
F0.00019502639770507812
sS'exec_cq'
p271
I18
sS'total_cq'
p272
I18
sasS'total_cqs'
p273
I18
ssI23
(dp274
S'iters'
p275
I2
sS'meta'
p276
(lp277
(dp278
S'objective'
p279
I86
sS'query_time'
p280
F0.09287905693054199
sS'comp_time'
p281
F0.0006999969482421875
sS'exec_cq'
p282
I16
sS'total_cq'
p283
I16
sa(dp284
g279
I101
sg280
F9.894371032714844e-05
sg281
F0.00026488304138183594
sg282
I14
sg283
I14
sasS'total_cqs'
p285
I16
ssI24
(dp286
S'iters'
p287
I0
sS'meta'
p288
(lp289
sS'total_cqs'
p290
I1
ssI25
(dp291
S'iters'
p292
I0
sS'meta'
p293
(lp294
sS'total_cqs'
p295
I1
ssI26
(dp296
S'iters'
p297
I1
sS'meta'
p298
(lp299
(dp300
S'objective'
p301
I879
sS'query_time'
p302
F0.22436094284057617
sS'comp_time'
p303
F0.0001583099365234375
sS'exec_cq'
p304
I42
sS'total_cq'
p305
I42
sasS'total_cqs'
p306
I42
ssI27
(dp307
S'iters'
p308
I4
sS'meta'
p309
(lp310
(dp311
S'objective'
p312
I309
sS'query_time'
p313
F17.137187957763672
sS'comp_time'
p314
F1.8230280876159668
sS'exec_cq'
p315
I30
sS'total_cq'
p316
I30
sa(dp317
g312
I4
sg313
F0.3595550060272217
sg314
F2.6769800186157227
sg315
I5
sg316
I5
sa(dp318
g312
I3
sg313
F0.2819960117340088
sg314
F1.2045950889587402
sg315
I3
sg316
I3
sa(dp319
g312
I1
sg313
F0.24028491973876953
sg314
F1.15944504737854
sg315
I2
sg316
I2
sasS'total_cqs'
p320
I30
ssI28
(dp321
S'iters'
p322
I0
sS'meta'
p323
(lp324
sS'total_cqs'
p325
I1
ssI29
(dp326
S'iters'
p327
I6
sS'meta'
p328
(lp329
(dp330
S'objective'
p331
I367
sS'query_time'
p332
F133.90958786010742
sS'comp_time'
p333
F13.473280191421509
sS'exec_cq'
p334
I49
sS'total_cq'
p335
I49
sa(dp336
g331
I19
sg332
F0.020971059799194336
sg333
F0.046300411224365234
sg334
I17
sg335
I17
sa(dp337
g331
I33
sg332
F0.00139617919921875
sg333
F0.005007028579711914
sg334
I9
sg335
I9
sa(dp338
g331
I8
sg332
F0.0006520748138427734
sg333
F0.0033431053161621094
sg334
I5
sg335
I5
sa(dp339
g331
I11
sg332
F0.0009188652038574219
sg333
F0.0033020973205566406
sg334
I3
sg335
I3
sa(dp340
g331
I1
sg332
F0.0005719661712646484
sg333
F0.0028460025787353516
sg334
I2
sg335
I2
sasS'total_cqs'
p341
I49
ssI30
(dp342
S'iters'
p343
I1
sS'meta'
p344
(lp345
(dp346
S'objective'
p347
I1
sS'query_time'
p348
F0.7103590965270996
sS'comp_time'
p349
F0.02382802963256836
sS'exec_cq'
p350
I2
sS'total_cq'
p351
I2
sasS'total_cqs'
p352
I2
ssI31
(dp353
S'iters'
p354
I0
sS'meta'
p355
(lp356
sS'total_cqs'
p357
I1
ssI32
(dp358
S'iters'
p359
I1
sS'meta'
p360
(lp361
(dp362
S'objective'
p363
I1
sS'query_time'
p364
F0.020070791244506836
sS'comp_time'
p365
F0.00025010108947753906
sS'exec_cq'
p366
I2
sS'total_cq'
p367
I2
sasS'total_cqs'
p368
I2
ssI33
(dp369
S'iters'
p370
I6
sS'meta'
p371
(lp372
(dp373
S'objective'
p374
I3580
sS'query_time'
p375
F14.60502314567566
sS'comp_time'
p376
F0.12558698654174805
sS'exec_cq'
p377
I103
sS'total_cq'
p378
I103
sa(dp379
g374
I6
sg375
F0.0078029632568359375
sg376
F0.0419011116027832
sg377
I16
sg378
I16
sa(dp380
g374
I21
sg375
F0.0023059844970703125
sg376
F0.00919198989868164
sg377
I9
sg378
I9
sa(dp381
g374
I3
sg375
F0.0008561611175537109
sg376
F0.004940032958984375
sg377
I5
sg378
I5
sa(dp382
g374
I44
sg375
F0.0007281303405761719
sg376
F0.0038471221923828125
sg377
I3
sg378
I3
sa(dp383
g374
I19
sg375
F0.00012993812561035156
sg376
F0.0007369518280029297
sg377
I2
sg378
I2
sasS'total_cqs'
p384
I103
ssI34
(dp385
S'iters'
p386
I1
sS'meta'
p387
(lp388
(dp389
S'objective'
p390
I1
sS'query_time'
p391
F0.020672082901000977
sS'comp_time'
p392
F0.0006170272827148438
sS'exec_cq'
p393
I2
sS'total_cq'
p394
I2
sasS'total_cqs'
p395
I2
ssI35
(dp396
S'iters'
p397
I17
sS'meta'
p398
(lp399
(dp400
S'objective'
p401
I2383
sS'query_time'
p402
F49.02254390716553
sS'comp_time'
p403
F3.4062938690185547
sS'exec_cq'
p404
I70
sS'total_cq'
p405
I70
sa(dp406
g401
I2334
sg402
F0.8288278579711914
sg403
F3.1471548080444336
sg404
I69
sg405
I69
sa(dp407
g401
I2296
sg402
F0.8316769599914551
sg403
F3.194485902786255
sg404
I68
sg405
I68
sa(dp408
g401
I2208
sg402
F0.9249379634857178
sg403
F4.506019115447998
sg404
I67
sg405
I67
sa(dp409
g401
I2220
sg402
F0.7527060508728027
sg403
F3.361128807067871
sg404
I64
sg405
I64
sa(dp410
g401
I2225
sg402
F0.00055694580078125
sg403
F0.04685807228088379
sg404
I63
sg405
I63
sa(dp411
g401
I1902
sg402
F0.0523838996887207
sg403
F0.05287003517150879
sg404
I62
sg405
I62
sa(dp412
g401
I1933
sg402
F0.04123497009277344
sg403
F0.030543088912963867
sg404
I58
sg405
I58
sa(dp413
g401
I1809
sg402
F0.05020403861999512
sg403
F0.04586195945739746
sg404
I57
sg405
I57
sa(dp414
g401
I1773
sg402
F0.22650885581970215
sg403
F0.21748590469360352
sg404
I55
sg405
I55
sa(dp415
g401
I1525
sg402
F0.21783089637756348
sg403
F0.21364212036132812
sg404
I54
sg405
I54
sa(dp416
g401
I1538
sg402
F0.34134793281555176
sg403
F0.16797876358032227
sg404
I50
sg405
I50
sa(dp417
g401
I1486
sg402
F0.17694783210754395
sg403
F0.1873641014099121
sg404
I48
sg405
I48
sa(dp418
g401
I1272
sg402
F0.11453104019165039
sg403
F0.034150123596191406
sg404
I47
sg405
I47
sa(dp419
g401
I1176
sg402
F0.1379542350769043
sg403
F0.11218094825744629
sg404
I43
sg405
I43
sa(dp420
g401
I5
sg402
F0.06341886520385742
sg403
F0.03772902488708496
sg404
I4
sg405
I4
sa(dp421
g401
I23
sg402
F0.28807902336120605
sg403
F0.027714014053344727
sg404
I3
sg405
I3
sasS'total_cqs'
p422
I70
ssI36
(dp423
S'iters'
p424
I4
sS'meta'
p425
(lp426
(dp427
S'objective'
p428
I379
sS'query_time'
p429
F0.8086559772491455
sS'comp_time'
p430
F0.024482011795043945
sS'exec_cq'
p431
I33
sS'total_cq'
p432
I33
sa(dp433
g428
I368
sg429
F0.003425121307373047
sg430
F0.016868114471435547
sg431
I29
sg432
I29
sa(dp434
g428
I357
sg429
F0.0011360645294189453
sg430
F0.006147146224975586
sg431
I25
sg432
I25
sa(dp435
g428
I368
sg429
F0.00036978721618652344
sg430
F0.0020291805267333984
sg431
I24
sg432
I24
sasS'total_cqs'
p436
I33
ssI37
(dp437
S'iters'
p438
I1
sS'meta'
p439
(lp440
(dp441
S'objective'
p442
I1
sS'query_time'
p443
F0.010463953018188477
sS'comp_time'
p444
F0.0002639293670654297
sS'exec_cq'
p445
I2
sS'total_cq'
p446
I2
sasS'total_cqs'
p447
I2
ssI38
(dp448
S'iters'
p449
I2
sS'meta'
p450
(lp451
(dp452
S'objective'
p453
I0
sS'query_time'
p454
F0.0308229923248291
sS'comp_time'
p455
F0.0005171298980712891
sS'exec_cq'
p456
I4
sS'total_cq'
p457
I4
sa(dp458
g453
I1
sg454
F8.20159912109375e-05
sg455
F0.00031495094299316406
sg456
I2
sg457
I2
sasS'total_cqs'
p459
I4
ssI39
(dp460
S'iters'
p461
I2
sS'meta'
p462
(lp463
(dp464
S'objective'
p465
I672
sS'query_time'
p466
F0.19586396217346191
sS'comp_time'
p467
F0.0016148090362548828
sS'exec_cq'
p468
I44
sS'total_cq'
p469
I44
sa(dp470
g465
I807
sg466
F0.00029587745666503906
sg467
F0.0011277198791503906
sg468
I37
sg469
I37
sasS'total_cqs'
p471
I44
ssI40
(dp472
S'iters'
p473
I1
sS'meta'
p474
(lp475
(dp476
S'objective'
p477
I22
sS'query_time'
p478
F0.06022191047668457
sS'comp_time'
p479
F8.0108642578125e-05
sS'exec_cq'
p480
I7
sS'total_cq'
p481
I7
sasS'total_cqs'
p482
I7
ssI41
(dp483
S'iters'
p484
I2
sS'meta'
p485
(lp486
(dp487
S'objective'
p488
I56
sS'query_time'
p489
F0.07631206512451172
sS'comp_time'
p490
F0.00010967254638671875
sS'exec_cq'
p491
I12
sS'total_cq'
p492
I12
sa(dp493
g488
I59
sg489
F4.1961669921875e-05
sg490
F7.295608520507812e-05
sg491
I11
sg492
I11
sasS'total_cqs'
p494
I12
ssI42
(dp495
S'iters'
p496
I4
sS'meta'
p497
(lp498
(dp499
S'objective'
p500
I817
sS'query_time'
p501
F0.14808917045593262
sS'comp_time'
p502
F0.0002117156982421875
sS'exec_cq'
p503
I41
sS'total_cq'
p504
I41
sa(dp505
g500
I797
sg501
F0.00016498565673828125
sg502
F0.00011801719665527344
sg503
I40
sg504
I40
sa(dp506
g500
I782
sg501
F0.00012683868408203125
sg502
F8.916854858398438e-05
sg503
I39
sg504
I39
sa(dp507
g500
I776
sg501
F0.00013685226440429688
sg502
F8.606910705566406e-05
sg503
I38
sg504
I38
sasS'total_cqs'
p508
I41
ssI43
(dp509
S'iters'
p510
I1
sS'meta'
p511
(lp512
(dp513
S'objective'
p514
I22
sS'query_time'
p515
F0.030759096145629883
sS'comp_time'
p516
F0.000102996826171875
sS'exec_cq'
p517
I7
sS'total_cq'
p518
I7
sasS'total_cqs'
p519
I7
ssI44
(dp520
S'iters'
p521
I4
sS'meta'
p522
(lp523
(dp524
S'objective'
p525
I830
sS'query_time'
p526
F0.16628193855285645
sS'comp_time'
p527
F0.0011298656463623047
sS'exec_cq'
p528
I47
sS'total_cq'
p529
I47
sa(dp530
g525
I845
sg526
F0.000244140625
sg527
F0.00084686279296875
sg528
I40
sg529
I40
sa(dp531
g525
I23
sg526
F0.0016071796417236328
sg527
F0.004361867904663086
sg528
I3
sg529
I3
sa(dp532
g525
I4
sg526
F3.600120544433594e-05
sg527
F0.00011801719665527344
sg528
I2
sg529
I2
sasS'total_cqs'
p533
I47
ssI45
(dp534
S'iters'
p535
I0
sS'meta'
p536
(lp537
sS'total_cqs'
p538
I1
ssI46
(dp539
S'iters'
p540
I2
sS'meta'
p541
(lp542
(dp543
S'objective'
p544
I13
sS'query_time'
p545
F0.020111083984375
sS'comp_time'
p546
F0.00027680397033691406
sS'exec_cq'
p547
I6
sS'total_cq'
p548
I6
sa(dp549
g544
I11
sg545
F2.5987625122070312e-05
sg546
F5.316734313964844e-05
sg547
I5
sg548
I5
sasS'total_cqs'
p550
I6
ssI47
(dp551
S'iters'
p552
I1
sS'meta'
p553
(lp554
(dp555
S'objective'
p556
I1
sS'query_time'
p557
F0.008779048919677734
sS'comp_time'
p558
F0.00025200843811035156
sS'exec_cq'
p559
I2
sS'total_cq'
p560
I2
sasS'total_cqs'
p561
I2
ssI48
(dp562
S'iters'
p563
I0
sS'meta'
p564
(lp565
sS'total_cqs'
p566
I1
ssI49
(dp567
S'iters'
p568
I0
sS'meta'
p569
(lp570
sS'total_cqs'
p571
I1
ssI50
(dp572
S'iters'
p573
I3
sS'meta'
p574
(lp575
(dp576
S'objective'
p577
I5
sS'query_time'
p578
F0.016386985778808594
sS'comp_time'
p579
F0.00013494491577148438
sS'exec_cq'
p580
I5
sS'total_cq'
p581
I5
sa(dp582
g577
I2
sg578
F3.0994415283203125e-05
sg579
F8.416175842285156e-05
sg580
I4
sg581
I4
sa(dp583
g577
I0
sg578
F2.193450927734375e-05
sg579
F7.581710815429688e-05
sg580
I3
sg581
I3
sasS'total_cqs'
p584
I5
ssI51
(dp585
S'iters'
p586
I1
sS'meta'
p587
(lp588
(dp589
S'objective'
p590
I1
sS'query_time'
p591
F0.007761955261230469
sS'comp_time'
p592
F0.00014472007751464844
sS'exec_cq'
p593
I2
sS'total_cq'
p594
I2
sasS'total_cqs'
p595
I2
ssI52
(dp596
S'iters'
p597
I1
sS'meta'
p598
(lp599
(dp600
S'objective'
p601
I1
sS'query_time'
p602
F0.009191036224365234
sS'comp_time'
p603
F0.0001990795135498047
sS'exec_cq'
p604
I2
sS'total_cq'
p605
I2
sasS'total_cqs'
p606
I2
ssI53
(dp607
S'iters'
p608
I3
sS'meta'
p609
(lp610
(dp611
S'objective'
p612
I2
sS'query_time'
p613
F0.03512907028198242
sS'comp_time'
p614
F0.0005931854248046875
sS'exec_cq'
p615
I4
sS'total_cq'
p616
I4
sa(dp617
g612
I0
sg613
F0.0001010894775390625
sg614
F0.0004868507385253906
sg615
I3
sg616
I3
sa(dp618
g612
I1
sg613
F8.893013000488281e-05
sg614
F0.0005190372467041016
sg615
I2
sg616
I2
sasS'total_cqs'
p619
I4
ssI54
(dp620
S'iters'
p621
I2
sS'meta'
p622
(lp623
(dp624
S'objective'
p625
I0
sS'query_time'
p626
F0.01579880714416504
sS'comp_time'
p627
F0.0002579689025878906
sS'exec_cq'
p628
I3
sS'total_cq'
p629
I3
sa(dp630
g625
I1
sg626
F3.3855438232421875e-05
sg627
F0.00015807151794433594
sg628
I2
sg629
I2
sasS'total_cqs'
p631
I3
ssI55
(dp632
S'iters'
p633
I9
sS'meta'
p634
(lp635
(dp636
S'objective'
p637
I4865
sS'query_time'
p638
F2.4424970149993896
sS'comp_time'
p639
F0.04500293731689453
sS'exec_cq'
p640
I109
sS'total_cq'
p641
I109
sa(dp642
g637
I5062
sg638
F0.0010061264038085938
sg639
F0.0017080307006835938
sg640
I97
sg641
I97
sa(dp643
g637
I4894
sg638
F0.0002989768981933594
sg639
F0.0007841587066650391
sg640
I91
sg641
I91
sa(dp644
g637
I4802
sg638
F0.0002849102020263672
sg639
F0.0007359981536865234
sg640
I87
sg641
I87
sa(dp645
g637
I4692
sg638
F0.0002760887145996094
sg639
F0.0007908344268798828
sg640
I85
sg641
I85
sa(dp646
g637
I4598
sg638
F0.00024819374084472656
sg639
F0.0004909038543701172
sg640
I83
sg641
I83
sa(dp647
g637
I4528
sg638
F0.00023794174194335938
sg639
F0.0004718303680419922
sg640
I82
sg641
I82
sa(dp648
g637
I4507
sg638
F0.0002300739288330078
sg639
F0.0003979206085205078
sg640
I80
sg641
I80
sa(dp649
g637
I4504
sg638
F0.0002300739288330078
sg639
F0.0003788471221923828
sg640
I79
sg641
I79
sasS'total_cqs'
p650
I109
ssI56
(dp651
S'iters'
p652
I6
sS'meta'
p653
(lp654
(dp655
S'objective'
p656
I1804
sS'query_time'
p657
F3.3096489906311035
sS'comp_time'
p658
F0.12754178047180176
sS'exec_cq'
p659
I76
sS'total_cq'
p660
I76
sa(dp661
g656
I1
sg657
F0.0049169063568115234
sg658
F0.009525060653686523
sg659
I16
sg660
I16
sa(dp662
g656
I4
sg657
F0.003543853759765625
sg658
F0.007245063781738281
sg659
I11
sg660
I11
sa(dp663
g656
I6
sg657
F0.0007691383361816406
sg658
F0.003565073013305664
sg659
I5
sg660
I5
sa(dp664
g656
I14
sg657
F0.0005869865417480469
sg658
F0.0031938552856445312
sg659
I3
sg660
I3
sa(dp665
g656
I4
sg657
F0.0005891323089599609
sg658
F0.003026723861694336
sg659
I2
sg660
I2
sasS'total_cqs'
p666
I76
ssI57
(dp667
S'iters'
p668
I6
sS'meta'
p669
(lp670
(dp671
S'objective'
p672
I116
sS'query_time'
p673
F67.67100691795349
sS'comp_time'
p674
F3.4392969608306885
sS'exec_cq'
p675
I51
sS'total_cq'
p676
I51
sa(dp677
g672
I17
sg673
F0.013777971267700195
sg674
F0.02863788604736328
sg675
I27
sg676
I27
sa(dp678
g672
I8
sg673
F0.011749029159545898
sg674
F0.22020220756530762
sg675
I12
sg676
I12
sa(dp679
g672
I6
sg673
F0.007348060607910156
sg674
F0.019177913665771484
sg675
I8
sg676
I8
sa(dp680
g672
I9
sg673
F0.0011138916015625
sg674
F0.0037450790405273438
sg675
I3
sg676
I3
sa(dp681
g672
I14
sg673
F0.0006461143493652344
sg674
F0.0029191970825195312
sg675
I2
sg676
I2
sasS'total_cqs'
p682
I51
ssI58
(dp683
S'iters'
p684
I7
sS'meta'
p685
(lp686
(dp687
S'objective'
p688
I88283
sS'query_time'
p689
F290.3754811286926
sS'comp_time'
p690
F16.632941961288452
sS'exec_cq'
p691
I486
sS'total_cq'
p692
I486
sa(dp693
g688
I3515
sg689
F0.03550100326538086
sg690
F0.2305741310119629
sg691
I64
sg692
I64
sa(dp694
g688
I4260
sg689
F0.01877593994140625
sg690
F0.11052775382995605
sg691
I38
sg692
I38
sa(dp695
g688
I12
sg689
F0.009015083312988281
sg690
F0.06583118438720703
sg691
I14
sg692
I14
sa(dp696
g688
I15
sg689
F0.004018068313598633
sg690
F0.010494232177734375
sg691
I7
sg692
I7
sa(dp697
g688
I2
sg689
F0.0005700588226318359
sg690
F0.0016651153564453125
sg691
I3
sg692
I3
sa(dp698
g688
I63
sg689
F0.00034117698669433594
sg690
F0.0015139579772949219
sg691
I2
sg692
I2
sasS'total_cqs'
p699
I486
ssI59
(dp700
S'iters'
p701
I2
sS'meta'
p702
(lp703
(dp704
S'objective'
p705
I12
sS'query_time'
p706
F0.054830074310302734
sS'comp_time'
p707
F0.0008988380432128906
sS'exec_cq'
p708
I7
sS'total_cq'
p709
I7
sa(dp710
g705
I2
sg706
F0.00014209747314453125
sg707
F0.000782012939453125
sg708
I2
sg709
I2
sasS'total_cqs'
p711
I7
ssI60
(dp712
S'iters'
p713
I2
sS'meta'
p714
(lp715
(dp716
S'objective'
p717
I7
sS'query_time'
p718
F0.021485090255737305
sS'comp_time'
p719
F0.0003120899200439453
sS'exec_cq'
p720
I5
sS'total_cq'
p721
I5
sa(dp722
g717
I5
sg718
F3.0994415283203125e-05
sg719
F7.700920104980469e-05
sg720
I4
sg721
I4
sasS'total_cqs'
p723
I5
ssI61
(dp724
S'iters'
p725
I0
sS'meta'
p726
(lp727
sS'total_cqs'
p728
I1
ssI62
(dp729
S'iters'
p730
I3
sS'meta'
p731
(lp732
(dp733
S'objective'
p734
I36
sS'query_time'
p735
F0.035410165786743164
sS'comp_time'
p736
F0.00018906593322753906
sS'exec_cq'
p737
I12
sS'total_cq'
p738
I12
sa(dp739
g734
I35
sg735
F4.696846008300781e-05
sg736
F7.009506225585938e-05
sg737
I9
sg738
I9
sa(dp740
g734
I38
sg735
F3.0994415283203125e-05
sg736
F5.507469177246094e-05
sg737
I8
sg738
I8
sasS'total_cqs'
p741
I12
ssI63
(dp742
S'iters'
p743
I0
sS'meta'
p744
(lp745
sS'total_cqs'
p746
I1
ssI64
(dp747
S'iters'
p748
I3
sS'meta'
p749
(lp750
(dp751
S'objective'
p752
I10
sS'query_time'
p753
F0.15798306465148926
sS'comp_time'
p754
F0.003458261489868164
sS'exec_cq'
p755
I12
sS'total_cq'
p756
I12
sa(dp757
g752
I4
sg753
F0.0001900196075439453
sg754
F0.0009009838104248047
sg755
I4
sg756
I4
sa(dp758
g752
I7
sg753
F4.696846008300781e-05
sg754
F0.0001761913299560547
sg755
I2
sg756
I2
sasS'total_cqs'
p759
I12
ssI65
(dp760
S'iters'
p761
I4
sS'meta'
p762
(lp763
(dp764
S'objective'
p765
I138
sS'query_time'
p766
F0.8828830718994141
sS'comp_time'
p767
F0.041169166564941406
sS'exec_cq'
p768
I27
sS'total_cq'
p769
I27
sa(dp770
g765
I2
sg766
F0.0012388229370117188
sg767
F0.004318952560424805
sg768
I7
sg769
I7
sa(dp771
g765
I7
sg766
F0.0005598068237304688
sg767
F0.0023658275604248047
sg768
I4
sg769
I4
sa(dp772
g765
I18
sg766
F0.0002601146697998047
sg767
F0.0016040802001953125
sg768
I2
sg769
I2
sasS'total_cqs'
p773
I27
ssI66
(dp774
S'iters'
p775
I0
sS'meta'
p776
(lp777
sS'total_cqs'
p778
I1
ssI67
(dp779
S'iters'
p780
I2
sS'meta'
p781
(lp782
(dp783
S'objective'
p784
I540
sS'query_time'
p785
F1.4619150161743164
sS'comp_time'
p786
F0.012061834335327148
sS'exec_cq'
p787
I35
sS'total_cq'
p788
I35
sa(dp789
g784
I25
sg785
F0.0010139942169189453
sg786
F0.005780935287475586
sg787
I2
sg788
I2
sasS'total_cqs'
p790
I35
ssI68
(dp791
S'iters'
p792
I0
sS'meta'
p793
(lp794
sS'total_cqs'
p795
I1
ssI69
(dp796
S'iters'
p797
I1
sS'meta'
p798
(lp799
(dp800
S'objective'
p801
I1298
sS'query_time'
p802
F0.24813604354858398
sS'comp_time'
p803
F0.0002613067626953125
sS'exec_cq'
p804
I51
sS'total_cq'
p805
I51
sasS'total_cqs'
p806
I51
ssI70
(dp807
S'iters'
p808
I2
sS'meta'
p809
(lp810
(dp811
S'objective'
p812
I13
sS'query_time'
p813
F0.022068023681640625
sS'comp_time'
p814
F0.0002319812774658203
sS'exec_cq'
p815
I6
sS'total_cq'
p816
I6
sa(dp817
g812
I11
sg813
F4.8160552978515625e-05
sg814
F0.00017118453979492188
sg815
I5
sg816
I5
sasS'total_cqs'
p818
I6
ssI71
(dp819
S'iters'
p820
I5
sS'meta'
p821
(lp822
(dp823
S'objective'
p824
I3221
sS'query_time'
p825
F0.40802478790283203
sS'comp_time'
p826
F0.0011260509490966797
sS'exec_cq'
p827
I85
sS'total_cq'
p828
I85
sa(dp829
g824
I3104
sg825
F0.0004820823669433594
sg826
F0.0008699893951416016
sg827
I81
sg828
I81
sa(dp830
g824
I3023
sg825
F0.0003600120544433594
sg826
F0.0007319450378417969
sg827
I77
sg828
I77
sa(dp831
g824
I38
sg825
F0.0019779205322265625
sg826
F0.003766775131225586
sg827
I3
sg828
I3
sa(dp832
g824
I35
sg825
F0.004065036773681641
sg826
F0.00020003318786621094
sg827
I2
sg828
I2
sasS'total_cqs'
p833
I85
ssI72
(dp834
S'iters'
p835
I3
sS'meta'
p836
(lp837
(dp838
S'objective'
p839
I8
sS'query_time'
p840
F0.4040560722351074
sS'comp_time'
p841
F0.005922079086303711
sS'exec_cq'
p842
I8
sS'total_cq'
p843
I8
sa(dp844
g839
I2
sg840
F0.00035119056701660156
sg841
F0.0021657943725585938
sg842
I6
sg843
I6
sa(dp845
g839
I6
sg840
F3.814697265625e-05
sg841
F0.0001430511474609375
sg842
I3
sg843
I3
sasS'total_cqs'
p846
I8
ssI73
(dp847
S'iters'
p848
I0
sS'meta'
p849
(lp850
sS'total_cqs'
p851
I1
ssI74
(dp852
S'iters'
p853
I0
sS'meta'
p854
(lp855
sS'total_cqs'
p856
I1
ssI75
(dp857
S'iters'
p858
I3
sS'meta'
p859
(lp860
(dp861
S'objective'
p862
I5
sS'query_time'
p863
F0.012864112854003906
sS'comp_time'
p864
F9.989738464355469e-05
sS'exec_cq'
p865
I5
sS'total_cq'
p866
I5
sa(dp867
g862
I2
sg863
F2.8133392333984375e-05
sg864
F7.200241088867188e-05
sg865
I4
sg866
I4
sa(dp868
g862
I0
sg863
F3.790855407714844e-05
sg864
F6.580352783203125e-05
sg865
I3
sg866
I3
sasS'total_cqs'
p869
I5
ssI76
(dp870
S'iters'
p871
I1
sS'meta'
p872
(lp873
(dp874
S'objective'
p875
I1
sS'query_time'
p876
F0.015323877334594727
sS'comp_time'
p877
F0.0004482269287109375
sS'exec_cq'
p878
I2
sS'total_cq'
p879
I2
sasS'total_cqs'
p880
I2
ssI77
(dp881
S'iters'
p882
I0
sS'meta'
p883
(lp884
sS'total_cqs'
p885
I1
ssI78
(dp886
S'iters'
p887
I0
sS'meta'
p888
(lp889
sS'total_cqs'
p890
I1
ssI103
(dp891
S'iters'
p892
I2
sS'meta'
p893
(lp894
(dp895
S'objective'
p896
I66
sS'query_time'
p897
F0.0967710018157959
sS'comp_time'
p898
F0.00017404556274414062
sS'exec_cq'
p899
I12
sS'total_cq'
p900
I12
sa(dp901
g896
I64
sg897
F5.793571472167969e-05
sg898
F9.799003601074219e-05
sg899
I11
sg900
I11
sasS'total_cqs'
p902
I12
ssI104
(dp903
S'iters'
p904
I2
sS'meta'
p905
(lp906
(dp907
S'objective'
p908
I0
sS'query_time'
p909
F1.697594165802002
sS'comp_time'
p910
F0.19406890869140625
sS'exec_cq'
p911
I4
sS'total_cq'
p912
I4
sa(dp913
g908
I1
sg909
F0.023893117904663086
sg910
F0.08656597137451172
sg911
I2
sg912
I2
sasS'total_cqs'
p914
I4
ssI105
(dp915
S'iters'
p916
I0
sS'meta'
p917
(lp918
sS'total_cqs'
p919
I1
ssI106
(dp920
S'iters'
p921
I1
sS'meta'
p922
(lp923
(dp924
S'objective'
p925
I6
sS'query_time'
p926
F0.02656388282775879
sS'comp_time'
p927
F0.00011801719665527344
sS'exec_cq'
p928
I4
sS'total_cq'
p929
I4
sasS'total_cqs'
p930
I4
ssI107
(dp931
S'iters'
p932
I2
sS'meta'
p933
(lp934
(dp935
S'objective'
p936
I74
sS'query_time'
p937
F0.10245394706726074
sS'comp_time'
p938
F0.0001621246337890625
sS'exec_cq'
p939
I16
sS'total_cq'
p940
I16
sa(dp941
g936
I21
sg937
F0.007319927215576172
sg938
F0.00011396408081054688
sg939
I3
sg940
I3
sasS'total_cqs'
p942
I16
ssI108
(dp943
S'iters'
p944
I0
sS'meta'
p945
(lp946
sS'total_cqs'
p947
I1
ss.