(dp0
I1
(dp1
S'iters'
p2
I4
sS'meta'
p3
(lp4
(dp5
S'objective'
p6
I56
sS'query_time'
p7
F0.02643895149230957
sS'comp_time'
p8
F7.390975952148438e-05
sS'exec_cq'
p9
I2
sS'total_cq'
p10
I12
sa(dp11
g6
I47
sg7
F0.0199129581451416
sg8
F4.887580871582031e-05
sg9
I2
sg10
I11
sa(dp12
g6
I39
sg7
F0.018533945083618164
sg8
F4.9114227294921875e-05
sg9
I2
sg10
I10
sa(dp13
g6
I34
sg7
F0.012211084365844727
sg8
F4.8160552978515625e-05
sg9
I3
sg10
I9
sasS'total_cqs'
p14
I12
ssI2
(dp15
S'iters'
p16
I5
sS'meta'
p17
(lp18
(dp19
S'objective'
p20
I240
sS'query_time'
p21
F0.046048879623413086
sS'comp_time'
p22
F8.296966552734375e-05
sS'exec_cq'
p23
I2
sS'total_cq'
p24
I27
sa(dp25
g20
I265
sg21
F0.021183013916015625
sg22
F7.390975952148438e-05
sg23
I5
sg24
I23
sa(dp26
g20
I237
sg21
F0.03778815269470215
sg22
F6.198883056640625e-05
sg23
I6
sg24
I22
sa(dp27
g20
I224
sg21
F0.007406949996948242
sg22
F4.38690185546875e-05
sg23
I6
sg24
I19
sa(dp28
g20
I213
sg21
F0.016628026962280273
sg22
F5.602836608886719e-05
sg23
I7
sg24
I18
sasS'total_cqs'
p29
I27
ssI3
(dp30
S'iters'
p31
I5
sS'meta'
p32
(lp33
(dp34
S'objective'
p35
I220
sS'query_time'
p36
F14.51697587966919
sS'comp_time'
p37
F8.0108642578125e-05
sS'exec_cq'
p38
I1
sS'total_cq'
p39
I43
sa(dp40
g35
I351
sg36
F39.47053003311157
sg37
F0.0007009506225585938
sg38
I3
sg39
I29
sa(dp41
g35
I235
sg36
F28.077168941497803
sg37
F7.82012939453125e-05
sg38
I4
sg39
I25
sa(dp42
g35
I237
sg36
F3.6609809398651123
sg37
F6.699562072753906e-05
sg38
I4
sg39
I17
sa(dp43
g35
I248
sg36
F21.689929962158203
sg37
F5.91278076171875e-05
sg38
I6
sg39
I15
sasS'total_cqs'
p44
I43
ssI4
(dp45
S'iters'
p46
I2
sS'meta'
p47
(lp48
(dp49
S'objective'
p50
I44
sS'query_time'
p51
F0.552678108215332
sS'comp_time'
p52
F8.511543273925781e-05
sS'exec_cq'
p53
I1
sS'total_cq'
p54
I11
sa(dp55
g50
I41
sg51
F3.4433319568634033
sg52
F0.0004589557647705078
sg53
I4
sg54
I10
sasS'total_cqs'
p56
I11
ssI5
(dp57
S'iters'
p58
I3
sS'meta'
p59
(lp60
(dp61
S'objective'
p62
I20
sS'query_time'
p63
F0.10821199417114258
sS'comp_time'
p64
F4.792213439941406e-05
sS'exec_cq'
p65
I1
sS'total_cq'
p66
I8
sa(dp67
g62
I12
sg63
F1.1316919326782227
sg64
F6.413459777832031e-05
sg65
I1
sg66
I7
sa(dp68
g62
I2
sg63
F0.36403799057006836
sg64
F6.198883056640625e-05
sg65
I1
sg66
I3
sasS'total_cqs'
p69
I8
ssI6
(dp70
S'iters'
p71
I3
sS'meta'
p72
(lp73
(dp74
S'objective'
p75
I129
sS'query_time'
p76
F0.14395689964294434
sS'comp_time'
p77
F7.104873657226562e-05
sS'exec_cq'
p78
I1
sS'total_cq'
p79
I18
sa(dp80
g75
I104
sg76
F0.10556507110595703
sg77
F9.799003601074219e-05
sg78
I6
sg79
I16
sa(dp81
g75
I107
sg76
F0.509429931640625
sg77
F7.510185241699219e-05
sg78
I6
sg79
I14
sasS'total_cqs'
p82
I18
ssI7
(dp83
S'iters'
p84
I3
sS'meta'
p85
(lp86
(dp87
S'objective'
p88
I27
sS'query_time'
p89
F0.3977320194244385
sS'comp_time'
p90
F7.390975952148438e-05
sS'exec_cq'
p91
I1
sS'total_cq'
p92
I9
sa(dp93
g88
I6
sg89
F0.15738797187805176
sg90
F8.797645568847656e-05
sg91
I1
sg92
I8
sa(dp94
g88
I3
sg89
F0.19736289978027344
sg90
F7.104873657226562e-05
sg91
I1
sg92
I4
sasS'total_cqs'
p95
I9
ssI8
(dp96
S'iters'
p97
I4
sS'meta'
p98
(lp99
(dp100
S'objective'
p101
I230
sS'query_time'
p102
F0.04591488838195801
sS'comp_time'
p103
F6.198883056640625e-05
sS'exec_cq'
p104
I1
sS'total_cq'
p105
I27
sa(dp106
g101
I232
sg102
F0.07886791229248047
sg103
F6.890296936035156e-05
sg104
I4
sg105
I22
sa(dp107
g101
I232
sg102
F0.029422998428344727
sg103
F6.413459777832031e-05
sg104
I7
sg105
I19
sa(dp108
g101
I220
sg102
F0.02377796173095703
sg103
F5.602836608886719e-05
sg104
I9
sg105
I18
sasS'total_cqs'
p109
I27
ssI9
(dp110
S'iters'
p111
I2
sS'meta'
p112
(lp113
(dp114
S'objective'
p115
I12
sS'query_time'
p116
F0.02431511878967285
sS'comp_time'
p117
F4.601478576660156e-05
sS'exec_cq'
p118
I1
sS'total_cq'
p119
I7
sa(dp120
g115
I10
sg116
F0.029838085174560547
sg117
F4.100799560546875e-05
sg118
I1
sg119
I5
sasS'total_cqs'
p121
I7
ssI10
(dp122
S'iters'
p123
I10
sS'meta'
p124
(lp125
(dp126
S'objective'
p127
I1118
sS'query_time'
p128
F0.11168718338012695
sS'comp_time'
p129
F8.392333984375e-05
sS'exec_cq'
p130
I1
sS'total_cq'
p131
I51
sa(dp132
g127
I962
sg128
F0.06298995018005371
sg129
F7.605552673339844e-05
sg130
I2
sg131
I48
sa(dp133
g127
I930
sg128
F0.04886293411254883
sg129
F8.511543273925781e-05
sg130
I3
sg131
I43
sa(dp134
g127
I417
sg128
F0.039215087890625
sg129
F4.696846008300781e-05
sg130
I3
sg131
I40
sa(dp135
g127
I610
sg128
F0.02403116226196289
sg129
F5.2928924560546875e-05
sg130
I3
sg131
I28
sa(dp136
g127
I242
sg128
F0.03247499465942383
sg129
F5.2928924560546875e-05
sg130
I3
sg131
I26
sa(dp137
g127
I388
sg128
F0.01872420310974121
sg129
F4.601478576660156e-05
sg130
I6
sg131
I18
sa(dp138
g127
I362
sg128
F0.01288604736328125
sg129
F4.506111145019531e-05
sg130
I6
sg131
I17
sa(dp139
g127
I289
sg128
F0.00868988037109375
sg129
F4.100799560546875e-05
sg130
I6
sg131
I16
sa(dp140
g127
I3
sg128
F0.0029098987579345703
sg129
F3.600120544433594e-05
sg130
I2
sg131
I2
sasS'total_cqs'
p141
I51
ssI11
(dp142
S'iters'
p143
I12
sS'meta'
p144
(lp145
(dp146
S'objective'
p147
I1868
sS'query_time'
p148
F0.20512890815734863
sS'comp_time'
p149
F5.7220458984375e-05
sS'exec_cq'
p150
I1
sS'total_cq'
p151
I63
sa(dp152
g147
I1724
sg148
F0.1089022159576416
sg149
F5.412101745605469e-05
sg150
I1
sg151
I61
sa(dp153
g147
I1711
sg148
F0.14793896675109863
sg149
F6.389617919921875e-05
sg150
I1
sg151
I57
sa(dp154
g147
I1120
sg148
F0.09076404571533203
sg149
F7.796287536621094e-05
sg150
I1
sg151
I56
sa(dp155
g147
I1336
sg148
F0.09850907325744629
sg149
F6.103515625e-05
sg150
I3
sg151
I45
sa(dp156
g147
I965
sg148
F0.14917993545532227
sg149
F9.202957153320312e-05
sg150
I3
sg151
I44
sa(dp157
g147
I1074
sg148
F0.1002049446105957
sg149
F8.320808410644531e-05
sg150
I4
sg151
I38
sa(dp158
g147
I1024
sg148
F0.0914008617401123
sg149
F8.106231689453125e-05
sg150
I4
sg151
I37
sa(dp159
g147
I979
sg148
F0.09488892555236816
sg149
F7.510185241699219e-05
sg150
I6
sg151
I36
sa(dp160
g147
I741
sg148
F0.058096885681152344
sg149
F7.319450378417969e-05
sg150
I6
sg151
I35
sa(dp161
g147
I31
sg148
F0.008685111999511719
sg149
F4.601478576660156e-05
sg150
I1
sg151
I4
sa(dp162
g147
I10
sg148
F0.005666971206665039
sg149
F4.100799560546875e-05
sg150
I2
sg151
I2
sasS'total_cqs'
p163
I63
ssI12
(dp164
S'iters'
p165
I4
sS'meta'
p166
(lp167
(dp168
S'objective'
p169
I901
sS'query_time'
p170
F0.06995201110839844
sS'comp_time'
p171
F8.606910705566406e-05
sS'exec_cq'
p172
I1
sS'total_cq'
p173
I50
sa(dp174
g169
I824
sg170
F0.06392502784729004
sg171
F0.00011396408081054688
sg172
I2
sg173
I44
sa(dp175
g169
I44
sg170
F0.01872396469116211
sg171
F3.504753112792969e-05
sg172
I1
sg173
I6
sa(dp176
g169
I8
sg170
F0.03421497344970703
sg171
F8.0108642578125e-05
sg172
I2
sg173
I4
sasS'total_cqs'
p177
I50
ssI13
(dp178
S'iters'
p179
I3
sS'meta'
p180
(lp181
(dp182
S'objective'
p183
I58
sS'query_time'
p184
F0.057251930236816406
sS'comp_time'
p185
F6.580352783203125e-05
sS'exec_cq'
p186
I1
sS'total_cq'
p187
I20
sa(dp188
g183
I108
sg184
F0.031861066818237305
sg185
F3.886222839355469e-05
sg186
I1
sg187
I11
sa(dp189
g183
I9
sg184
F0.009936809539794922
sg185
F4.8160552978515625e-05
sg186
I2
sg187
I2
sasS'total_cqs'
p190
I20
ssI14
(dp191
S'iters'
p192
I5
sS'meta'
p193
(lp194
(dp195
S'objective'
p196
I27
sS'query_time'
p197
F6.475473880767822
sS'comp_time'
p198
F0.0001518726348876953
sS'exec_cq'
p199
I1
sS'total_cq'
p200
I9
sa(dp201
g196
I14
sg197
F0.5580101013183594
sg198
F6.604194641113281e-05
sg199
I1
sg200
I8
sa(dp202
g196
I9
sg197
F0.6995019912719727
sg198
F6.699562072753906e-05
sg199
I1
sg200
I5
sa(dp203
g196
I3
sg197
F0.03274202346801758
sg198
F2.8848648071289062e-05
sg199
I1
sg200
I3
sa(dp204
g196
I2
sg197
F0.28620481491088867
sg198
F8.0108642578125e-05
sg199
I1
sg200
I2
sasS'total_cqs'
p205
I9
ssI15
(dp206
S'iters'
p207
I2
sS'meta'
p208
(lp209
(dp210
S'objective'
p211
I32
sS'query_time'
p212
F0.15131306648254395
sS'comp_time'
p213
F7.915496826171875e-05
sS'exec_cq'
p214
I2
sS'total_cq'
p215
I11
sa(dp216
g211
I3
sg212
F0.009368896484375
sg213
F4.00543212890625e-05
sg214
I1
sg215
I2
sasS'total_cqs'
p217
I11
ssI16
(dp218
S'iters'
p219
I1
sS'meta'
p220
(lp221
(dp222
S'objective'
p223
I26
sS'query_time'
p224
F0.020364999771118164
sS'comp_time'
p225
F7.390975952148438e-05
sS'exec_cq'
p226
I4
sS'total_cq'
p227
I8
sasS'total_cqs'
p228
I8
ssI17
(dp229
S'iters'
p230
I4
sS'meta'
p231
(lp232
(dp233
S'objective'
p234
I40
sS'query_time'
p235
F0.34130001068115234
sS'comp_time'
p236
F9.298324584960938e-05
sS'exec_cq'
p237
I1
sS'total_cq'
p238
I11
sa(dp239
g234
I15
sg235
F0.0284271240234375
sg236
F6.890296936035156e-05
sg237
I2
sg238
I9
sa(dp240
g234
I4
sg235
F0.0065920352935791016
sg236
F4.100799560546875e-05
sg237
I2
sg238
I6
sa(dp241
g234
I1
sg235
F0.006543874740600586
sg236
F4.291534423828125e-05
sg237
I1
sg238
I2
sasS'total_cqs'
p242
I11
ssI18
(dp243
S'iters'
p244
I4
sS'meta'
p245
(lp246
(dp247
S'objective'
p248
I24
sS'query_time'
p249
F0.027370929718017578
sS'comp_time'
p250
F7.796287536621094e-05
sS'exec_cq'
p251
I1
sS'total_cq'
p252
I11
sa(dp253
g248
I27
sg249
F0.04304790496826172
sg250
F6.103515625e-05
sg251
I1
sg252
I9
sa(dp254
g248
I20
sg249
F0.020441055297851562
sg250
F4.8160552978515625e-05
sg251
I1
sg252
I8
sa(dp255
g248
I14
sg249
F0.009671926498413086
sg250
F4.792213439941406e-05
sg251
I1
sg252
I7
sasS'total_cqs'
p256
I11
ssI19
(dp257
S'iters'
p258
I0
sS'meta'
p259
(lp260
sS'total_cqs'
p261
I1
ssI20
(dp262
S'iters'
p263
I0
sS'meta'
p264
(lp265
sS'total_cqs'
p266
I1
ssI21
(dp267
S'iters'
p268
I0
sS'meta'
p269
(lp270
sS'total_cqs'
p271
I1
ssI22
(dp272
S'iters'
p273
I1
sS'meta'
p274
(lp275
(dp276
S'objective'
p277
I151
sS'query_time'
p278
F0.07008004188537598
sS'comp_time'
p279
F5.91278076171875e-05
sS'exec_cq'
p280
I9
sS'total_cq'
p281
I18
sasS'total_cqs'
p282
I18
ssI23
(dp283
S'iters'
p284
I2
sS'meta'
p285
(lp286
(dp287
S'objective'
p288
I86
sS'query_time'
p289
F0.015522956848144531
sS'comp_time'
p290
F5.602836608886719e-05
sS'exec_cq'
p291
I2
sS'total_cq'
p292
I16
sa(dp293
g288
I93
sg289
F0.020115137100219727
sg290
F6.699562072753906e-05
sg291
I6
sg292
I14
sasS'total_cqs'
p294
I16
ssI24
(dp295
S'iters'
p296
I0
sS'meta'
p297
(lp298
sS'total_cqs'
p299
I1
ssI25
(dp300
S'iters'
p301
I0
sS'meta'
p302
(lp303
sS'total_cqs'
p304
I1
ssI26
(dp305
S'iters'
p306
I1
sS'meta'
p307
(lp308
(dp309
S'objective'
p310
I859
sS'query_time'
p311
F0.062478065490722656
sS'comp_time'
p312
F0.00010991096496582031
sS'exec_cq'
p313
I21
sS'total_cq'
p314
I42
sasS'total_cqs'
p315
I42
ssI27
(dp316
S'iters'
p317
I4
sS'meta'
p318
(lp319
(dp320
S'objective'
p321
I405
sS'query_time'
p322
F3.7289929389953613
sS'comp_time'
p323
F0.00047016143798828125
sS'exec_cq'
p324
I1
sS'total_cq'
p325
I30
sa(dp326
g321
I381
sg322
F1.267838954925537
sg323
F8.988380432128906e-05
sg324
I3
sg325
I29
sa(dp327
g321
I350
sg322
F0.4920799732208252
sg323
F5.3882598876953125e-05
sg324
I9
sg325
I28
sa(dp328
g321
I347
sg322
F2.9303488731384277
sg323
F0.0006918907165527344
sg324
I12
sg325
I26
sasS'total_cqs'
p329
I30
ssI28
(dp330
S'iters'
p331
I0
sS'meta'
p332
(lp333
sS'total_cqs'
p334
I1
ssI29
(dp335
S'iters'
p336
I17
sS'meta'
p337
(lp338
(dp339
S'objective'
p340
I1049
sS'query_time'
p341
F1.1357510089874268
sS'comp_time'
p342
F7.414817810058594e-05
sS'exec_cq'
p343
I1
sS'total_cq'
p344
I49
sa(dp345
g340
I1013
sg341
F2.0697638988494873
sg342
F8.988380432128906e-05
sg343
I1
sg344
I47
sa(dp346
g340
I981
sg341
F2.4459729194641113
sg342
F0.0008230209350585938
sg343
I1
sg344
I45
sa(dp347
g340
I886
sg341
F0.2824130058288574
sg342
F8.606910705566406e-05
sg343
I1
sg344
I44
sa(dp348
g340
I677
sg341
F0.7034850120544434
sg342
F9.083747863769531e-05
sg343
I1
sg344
I42
sa(dp349
g340
I595
sg341
F0.5635809898376465
sg342
F8.0108642578125e-05
sg343
I1
sg344
I36
sa(dp350
g340
I612
sg341
F8.275366067886353
sg342
F0.0001289844512939453
sg343
I1
sg344
I32
sa(dp351
g340
I575
sg341
F0.03844618797302246
sg342
F5.4836273193359375e-05
sg343
I1
sg344
I30
sa(dp352
g340
I535
sg341
F1.6721320152282715
sg342
F6.699562072753906e-05
sg343
I1
sg344
I29
sa(dp353
g340
I362
sg341
F0.409527063369751
sg342
F0.00016808509826660156
sg343
I1
sg344
I28
sa(dp354
g340
I379
sg341
F1.3833339214324951
sg342
F6.794929504394531e-05
sg343
I1
sg344
I23
sa(dp355
g340
I246
sg341
F0.30014920234680176
sg342
F6.699562072753906e-05
sg343
I1
sg344
I21
sa(dp356
g340
I269
sg341
F0.02680802345275879
sg342
F4.887580871582031e-05
sg343
I1
sg344
I18
sa(dp357
g340
I196
sg341
F3.6759819984436035
sg342
F7.700920104980469e-05
sg343
I2
sg344
I17
sa(dp358
g340
I111
sg341
F0.4038059711456299
sg342
F6.389617919921875e-05
sg343
I2
sg344
I15
sa(dp359
g340
I13
sg341
F0.031117916107177734
sg342
F2.5987625122070312e-05
sg343
I1
sg344
I3
sa(dp360
g340
I11
sg341
F0.07767415046691895
sg342
F4.8160552978515625e-05
sg343
I1
sg344
I2
sasS'total_cqs'
p361
I49
ssI30
(dp362
S'iters'
p363
I1
sS'meta'
p364
(lp365
(dp366
S'objective'
p367
I1
sS'query_time'
p368
F0.6864738464355469
sS'comp_time'
p369
F6.29425048828125e-05
sS'exec_cq'
p370
I1
sS'total_cq'
p371
I2
sasS'total_cqs'
p372
I2
ssI31
(dp373
S'iters'
p374
I0
sS'meta'
p375
(lp376
sS'total_cqs'
p377
I1
ssI32
(dp378
S'iters'
p379
I1
sS'meta'
p380
(lp381
(dp382
S'objective'
p383
I1
sS'query_time'
p384
F0.011775016784667969
sS'comp_time'
p385
F6.4849853515625e-05
sS'exec_cq'
p386
I1
sS'total_cq'
p387
I2
sasS'total_cqs'
p388
I2
ssI33
(dp389
S'iters'
p390
I14
sS'meta'
p391
(lp392
(dp393
S'objective'
p394
I5074
sS'query_time'
p395
F0.8143730163574219
sS'comp_time'
p396
F0.00013899803161621094
sS'exec_cq'
p397
I2
sS'total_cq'
p398
I103
sa(dp399
g394
I4831
sg395
F1.0524201393127441
sg396
F0.00010013580322265625
sg397
I2
sg398
I101
sa(dp400
g394
I4825
sg395
F0.6024188995361328
sg396
F0.0001430511474609375
sg397
I3
sg398
I99
sa(dp401
g394
I4458
sg395
F1.3553221225738525
sg396
F0.00010704994201660156
sg397
I3
sg398
I98
sa(dp402
g394
I4497
sg395
F1.072732925415039
sg396
F0.00013494491577148438
sg397
I3
sg398
I95
sa(dp403
g394
I4350
sg395
F3.6475419998168945
sg396
F0.00013399124145507812
sg397
I3
sg398
I94
sa(dp404
g394
I4102
sg395
F0.41193580627441406
sg396
F0.00015091896057128906
sg397
I5
sg398
I92
sa(dp405
g394
I3913
sg395
F0.6984570026397705
sg396
F0.00019693374633789062
sg397
I8
sg398
I89
sa(dp406
g394
I3926
sg395
F0.3847990036010742
sg396
F0.00011181831359863281
sg397
I8
sg398
I86
sa(dp407
g394
I3849
sg395
F0.5301918983459473
sg396
F0.00013184547424316406
sg397
I12
sg398
I85
sa(dp408
g394
I3421
sg395
F0.6791610717773438
sg396
F0.00013184547424316406
sg397
I24
sg398
I84
sa(dp409
g394
I3534
sg395
F0.3537299633026123
sg396
F0.0001430511474609375
sg397
I25
sg398
I78
sa(dp410
g394
I3461
sg395
F0.3887670040130615
sg396
F0.0001971721649169922
sg397
I25
sg398
I76
sa(dp411
g394
I3427
sg395
F0.21501398086547852
sg396
F0.0001919269561767578
sg397
I32
sg398
I74
sasS'total_cqs'
p412
I103
ssI34
(dp413
S'iters'
p414
I1
sS'meta'
p415
(lp416
(dp417
S'objective'
p418
I1
sS'query_time'
p419
F0.01971888542175293
sS'comp_time'
p420
F4.696846008300781e-05
sS'exec_cq'
p421
I1
sS'total_cq'
p422
I2
sasS'total_cqs'
p423
I2
ssI35
(dp424
S'iters'
p425
I17
sS'meta'
p426
(lp427
(dp428
S'objective'
p429
I2345
sS'query_time'
p430
F0.5290439128875732
sS'comp_time'
p431
F9.012222290039062e-05
sS'exec_cq'
p432
I1
sS'total_cq'
p433
I70
sa(dp434
g429
I2279
sg430
F1.799015998840332
sg431
F0.00011181831359863281
sg432
I2
sg433
I69
sa(dp435
g429
I2053
sg430
F0.6766979694366455
sg431
F0.00017905235290527344
sg432
I3
sg433
I68
sa(dp436
g429
I1900
sg430
F3.787414073944092
sg431
F0.00023317337036132812
sg432
I3
sg433
I65
sa(dp437
g429
I1900
sg430
F1.1134660243988037
sg431
F0.00010085105895996094
sg432
I6
sg433
I62
sa(dp438
g429
I1855
sg430
F0.0580899715423584
sg431
F7.390975952148438e-05
sg432
I6
sg433
I59
sa(dp439
g429
I1797
sg430
F2.909852981567383
sg431
F0.0001900196075439453
sg432
I6
sg433
I58
sa(dp440
g429
I1132
sg430
F0.26387500762939453
sg431
F8.416175842285156e-05
sg432
I6
sg433
I57
sa(dp441
g429
I1312
sg430
F20.055527925491333
sg431
F0.00014519691467285156
sg432
I7
sg433
I48
sa(dp442
g429
I1303
sg430
F28.51562786102295
sg431
F0.00022602081298828125
sg432
I8
sg433
I46
sa(dp443
g429
I1235
sg430
F8.528042793273926
sg431
F0.0007219314575195312
sg432
I8
sg433
I45
sa(dp444
g429
I1040
sg430
F0.2799978256225586
sg431
F0.00011301040649414062
sg432
I8
sg433
I43
sa(dp445
g429
I1047
sg430
F13.047299861907959
sg431
F0.00013303756713867188
sg432
I9
sg433
I39
sa(dp446
g429
I1025
sg430
F4.523717880249023
sg431
F0.00012493133544921875
sg432
I9
sg433
I37
sa(dp447
g429
I986
sg430
F0.49446702003479004
sg431
F0.0001571178436279297
sg432
I9
sg433
I36
sa(dp448
g429
I950
sg430
F0.026216983795166016
sg431
F5.3882598876953125e-05
sg432
I9
sg433
I35
sa(dp449
g429
I916
sg430
F0.07367897033691406
sg431
F8.392333984375e-05
sg432
I10
sg433
I34
sasS'total_cqs'
p450
I70
ssI36
(dp451
S'iters'
p452
I4
sS'meta'
p453
(lp454
(dp455
S'objective'
p456
I499
sS'query_time'
p457
F0.12768816947937012
sS'comp_time'
p458
F6.985664367675781e-05
sS'exec_cq'
p459
I3
sS'total_cq'
p460
I33
sa(dp461
g456
I440
sg457
F0.05739283561706543
sg458
F9.703636169433594e-05
sg459
I3
sg460
I32
sa(dp462
g456
I355
sg457
F0.02938699722290039
sg458
F9.679794311523438e-05
sg459
I4
sg460
I30
sa(dp463
g456
I384
sg457
F0.06350016593933105
sg458
F8.58306884765625e-05
sg459
I12
sg460
I27
sasS'total_cqs'
p464
I33
ssI37
(dp465
S'iters'
p466
I1
sS'meta'
p467
(lp468
(dp469
S'objective'
p470
I1
sS'query_time'
p471
F0.007536172866821289
sS'comp_time'
p472
F4.887580871582031e-05
sS'exec_cq'
p473
I1
sS'total_cq'
p474
I2
sasS'total_cqs'
p475
I2
ssI38
(dp476
S'iters'
p477
I2
sS'meta'
p478
(lp479
(dp480
S'objective'
p481
I2
sS'query_time'
p482
F0.01190185546875
sS'comp_time'
p483
F0.0003020763397216797
sS'exec_cq'
p484
I1
sS'total_cq'
p485
I4
sa(dp486
g481
I0
sg482
F0.018301010131835938
sg483
F4.1961669921875e-05
sg484
I1
sg485
I3
sasS'total_cqs'
p487
I4
ssI39
(dp488
S'iters'
p489
I4
sS'meta'
p490
(lp491
(dp492
S'objective'
p493
I670
sS'query_time'
p494
F0.07279300689697266
sS'comp_time'
p495
F0.00010204315185546875
sS'exec_cq'
p496
I8
sS'total_cq'
p497
I44
sa(dp498
g493
I86
sg494
F0.026935815811157227
sg495
F5.507469177246094e-05
sg496
I2
sg497
I8
sa(dp499
g493
I59
sg494
F0.03745698928833008
sg495
F5.0067901611328125e-05
sg496
I2
sg497
I7
sa(dp500
g493
I45
sg494
F0.05038809776306152
sg495
F7.176399230957031e-05
sg496
I2
sg497
I6
sasS'total_cqs'
p501
I44
ssI40
(dp502
S'iters'
p503
I1
sS'meta'
p504
(lp505
(dp506
S'objective'
p507
I18
sS'query_time'
p508
F0.021200895309448242
sS'comp_time'
p509
F5.507469177246094e-05
sS'exec_cq'
p510
I3
sS'total_cq'
p511
I7
sasS'total_cqs'
p512
I7
ssI41
(dp513
S'iters'
p514
I2
sS'meta'
p515
(lp516
(dp517
S'objective'
p518
I56
sS'query_time'
p519
F0.03206992149353027
sS'comp_time'
p520
F6.198883056640625e-05
sS'exec_cq'
p521
I2
sS'total_cq'
p522
I12
sa(dp523
g518
I53
sg519
F0.03596901893615723
sg520
F7.700920104980469e-05
sg521
I5
sg522
I11
sasS'total_cqs'
p524
I12
ssI42
(dp525
S'iters'
p526
I2
sS'meta'
p527
(lp528
(dp529
S'objective'
p530
I811
sS'query_time'
p531
F0.032671213150024414
sS'comp_time'
p532
F8.392333984375e-05
sS'exec_cq'
p533
I17
sS'total_cq'
p534
I41
sa(dp535
g530
I792
sg531
F0.01707911491394043
sg532
F7.200241088867188e-05
sg533
I19
sg534
I40
sasS'total_cqs'
p536
I41
ssI43
(dp537
S'iters'
p538
I1
sS'meta'
p539
(lp540
(dp541
S'objective'
p542
I18
sS'query_time'
p543
F0.01664113998413086
sS'comp_time'
p544
F5.602836608886719e-05
sS'exec_cq'
p545
I3
sS'total_cq'
p546
I7
sasS'total_cqs'
p547
I7
ssI44
(dp548
S'iters'
p549
I3
sS'meta'
p550
(lp551
(dp552
S'objective'
p553
I974
sS'query_time'
p554
F0.06627702713012695
sS'comp_time'
p555
F4.792213439941406e-05
sS'exec_cq'
p556
I1
sS'total_cq'
p557
I47
sa(dp558
g553
I17
sg554
F0.005988121032714844
sg555
F3.910064697265625e-05
sg556
I2
sg557
I3
sa(dp559
g553
I20
sg554
F0.04107999801635742
sg555
F5.1975250244140625e-05
sg556
I2
sg557
I2
sasS'total_cqs'
p560
I47
ssI45
(dp561
S'iters'
p562
I0
sS'meta'
p563
(lp564
sS'total_cqs'
p565
I1
ssI46
(dp566
S'iters'
p567
I2
sS'meta'
p568
(lp569
(dp570
S'objective'
p571
I9
sS'query_time'
p572
F0.043295860290527344
sS'comp_time'
p573
F4.696846008300781e-05
sS'exec_cq'
p574
I1
sS'total_cq'
p575
I6
sa(dp576
g571
I7
sg572
F0.009379863739013672
sg573
F6.818771362304688e-05
sg574
I2
sg575
I5
sasS'total_cqs'
p577
I6
ssI47
(dp578
S'iters'
p579
I1
sS'meta'
p580
(lp581
(dp582
S'objective'
p583
I1
sS'query_time'
p584
F0.006284952163696289
sS'comp_time'
p585
F4.601478576660156e-05
sS'exec_cq'
p586
I1
sS'total_cq'
p587
I2
sasS'total_cqs'
p588
I2
ssI48
(dp589
S'iters'
p590
I0
sS'meta'
p591
(lp592
sS'total_cqs'
p593
I1
ssI49
(dp594
S'iters'
p595
I0
sS'meta'
p596
(lp597
sS'total_cqs'
p598
I1
ssI50
(dp599
S'iters'
p600
I2
sS'meta'
p601
(lp602
(dp603
S'objective'
p604
I5
sS'query_time'
p605
F0.005055904388427734
sS'comp_time'
p606
F4.506111145019531e-05
sS'exec_cq'
p607
I1
sS'total_cq'
p608
I5
sa(dp609
g604
I2
sg605
F0.004621982574462891
sg606
F5.0067901611328125e-05
sg607
I1
sg608
I4
sasS'total_cqs'
p610
I5
ssI51
(dp611
S'iters'
p612
I1
sS'meta'
p613
(lp614
(dp615
S'objective'
p616
I1
sS'query_time'
p617
F0.0059070587158203125
sS'comp_time'
p618
F4.506111145019531e-05
sS'exec_cq'
p619
I1
sS'total_cq'
p620
I2
sasS'total_cqs'
p621
I2
ssI52
(dp622
S'iters'
p623
I1
sS'meta'
p624
(lp625
(dp626
S'objective'
p627
I1
sS'query_time'
p628
F0.0062580108642578125
sS'comp_time'
p629
F6.079673767089844e-05
sS'exec_cq'
p630
I1
sS'total_cq'
p631
I2
sasS'total_cqs'
p632
I2
ssI53
(dp633
S'iters'
p634
I2
sS'meta'
p635
(lp636
(dp637
S'objective'
p638
I4
sS'query_time'
p639
F0.010298967361450195
sS'comp_time'
p640
F6.508827209472656e-05
sS'exec_cq'
p641
I1
sS'total_cq'
p642
I4
sa(dp643
g638
I1
sg639
F0.0019412040710449219
sg640
F3.5762786865234375e-05
sg641
I1
sg642
I2
sasS'total_cqs'
p644
I4
ssI54
(dp645
S'iters'
p646
I1
sS'meta'
p647
(lp648
(dp649
S'objective'
p650
I0
sS'query_time'
p651
F0.009138107299804688
sS'comp_time'
p652
F6.29425048828125e-05
sS'exec_cq'
p653
I1
sS'total_cq'
p654
I3
sasS'total_cqs'
p655
I3
ssI55
(dp656
S'iters'
p657
I9
sS'meta'
p658
(lp659
(dp660
S'objective'
p661
I5555
sS'query_time'
p662
F0.3274531364440918
sS'comp_time'
p663
F0.00012302398681640625
sS'exec_cq'
p664
I2
sS'total_cq'
p665
I109
sa(dp666
g661
I5387
sg662
F0.22660398483276367
sg663
F0.00014591217041015625
sg664
I2
sg665
I105
sa(dp667
g661
I5337
sg662
F0.1608290672302246
sg663
F0.00011396408081054688
sg664
I5
sg665
I101
sa(dp668
g661
I4921
sg662
F0.23915386199951172
sg663
F0.0001239776611328125
sg664
I15
sg665
I99
sa(dp669
g661
I4886
sg662
F0.3861849308013916
sg663
F0.00010800361633300781
sg664
I15
sg665
I95
sa(dp670
g661
I4870
sg662
F0.11597681045532227
sg663
F9.417533874511719e-05
sg664
I20
sg665
I93
sa(dp671
g661
I4692
sg662
F0.14844584465026855
sg663
F0.00017404556274414062
sg664
I22
sg665
I92
sa(dp672
g661
I4705
sg662
F0.21587395668029785
sg663
F0.00011301040649414062
sg664
I40
sg665
I90
sa(dp673
g661
I4652
sg662
F0.10533714294433594
sg663
F0.00013709068298339844
sg664
I42
sg665
I89
sasS'total_cqs'
p674
I109
ssI56
(dp675
S'iters'
p676
I12
sS'meta'
p677
(lp678
(dp679
S'objective'
p680
I2124
sS'query_time'
p681
F0.32127904891967773
sS'comp_time'
p682
F0.00011086463928222656
sS'exec_cq'
p683
I3
sS'total_cq'
p684
I76
sa(dp685
g680
I2365
sg681
F0.37113118171691895
sg682
F0.00012683868408203125
sg683
I5
sg684
I67
sa(dp686
g680
I2321
sg681
F0.20357918739318848
sg682
F6.914138793945312e-05
sg683
I11
sg684
I65
sa(dp687
g680
I2241
sg681
F0.21250081062316895
sg682
F0.0001239776611328125
sg683
I13
sg684
I64
sa(dp688
g680
I2196
sg681
F0.3450651168823242
sg682
F0.00012803077697753906
sg683
I13
sg684
I62
sa(dp689
g680
I2140
sg681
F0.9137909412384033
sg682
F0.0001289844512939453
sg683
I13
sg684
I61
sa(dp690
g680
I2009
sg681
F0.15296483039855957
sg682
F6.198883056640625e-05
sg683
I14
sg684
I60
sa(dp691
g680
I1995
sg681
F0.3823869228363037
sg682
F0.0017910003662109375
sg683
I14
sg684
I57
sa(dp692
g680
I1945
sg681
F0.12632012367248535
sg682
F6.198883056640625e-05
sg683
I15
sg684
I56
sa(dp693
g680
I1899
sg681
F0.18724894523620605
sg682
F9.202957153320312e-05
sg683
I17
sg684
I55
sa(dp694
g680
I1852
sg681
F0.04781699180603027
sg682
F6.008148193359375e-05
sg683
I17
sg684
I54
sa(dp695
g680
I1822
sg681
F0.10667800903320312
sg682
F9.894371032714844e-05
sg683
I24
sg684
I53
sasS'total_cqs'
p696
I76
ssI57
(dp697
S'iters'
p698
I9
sS'meta'
p699
(lp700
(dp701
S'objective'
p702
I776
sS'query_time'
p703
F0.535614013671875
sS'comp_time'
p704
F8.702278137207031e-05
sS'exec_cq'
p705
I2
sS'total_cq'
p706
I51
sa(dp707
g702
I629
sg703
F1.0605130195617676
sg704
F8.606910705566406e-05
sg705
I2
sg706
I42
sa(dp708
g702
I744
sg703
F2.8174021244049072
sg704
F9.608268737792969e-05
sg705
I2
sg706
I33
sa(dp709
g702
I614
sg703
F13.362234115600586
sg704
F0.0003418922424316406
sg705
I3
sg706
I32
sa(dp710
g702
I617
sg703
F0.024235010147094727
sg704
F4.9114227294921875e-05
sg705
I3
sg706
I29
sa(dp711
g702
I582
sg703
F0.019407987594604492
sg704
F5.1021575927734375e-05
sg705
I4
sg706
I28
sa(dp712
g702
I543
sg703
F4.629441022872925
sg704
F8.296966552734375e-05
sg705
I4
sg706
I27
sa(dp713
g702
I372
sg703
F0.6731700897216797
sg704
F0.00024700164794921875
sg705
I4
sg706
I25
sa(dp714
g702
I423
sg703
F0.16504383087158203
sg704
F6.008148193359375e-05
sg705
I8
sg706
I21
sasS'total_cqs'
p715
I51
ssI58
(dp716
S'iters'
p717
I19
sS'meta'
p718
(lp719
(dp720
S'objective'
p721
I115475
sS'query_time'
p722
F0.5911800861358643
sS'comp_time'
p723
F0.0005209445953369141
sS'exec_cq'
p724
I2
sS'total_cq'
p725
I486
sa(dp726
g721
I80098
sg722
F2.132268190383911
sg723
F0.00031685829162597656
sg724
I3
sg725
I481
sa(dp727
g721
I95277
sg722
F6.002535104751587
sg723
F0.0003368854522705078
sg724
I7
sg725
I409
sa(dp728
g721
I90076
sg722
F1.2379720211029053
sg723
F0.00023293495178222656
sg724
I8
sg725
I404
sa(dp729
g721
I87509
sg722
F3.326545000076294
sg723
F0.000286102294921875
sg724
I8
sg725
I393
sa(dp730
g721
I89554
sg722
F6.593846797943115
sg723
F0.0003228187561035156
sg724
I10
sg725
I382
sa(dp731
g721
I88179
sg722
F9.877535104751587
sg723
F0.0009200572967529297
sg724
I12
sg725
I381
sa(dp732
g721
I88078
sg722
F1.3021509647369385
sg723
F0.00015401840209960938
sg724
I12
sg725
I378
sa(dp733
g721
I87224
sg722
F1.1316618919372559
sg723
F0.00023293495178222656
sg724
I12
sg725
I376
sa(dp734
g721
I85187
sg722
F1.5470519065856934
sg723
F0.0004909038543701172
sg724
I19
sg725
I374
sa(dp735
g721
I85643
sg722
F2.2332651615142822
sg723
F0.00014591217041015625
sg724
I19
sg725
I369
sa(dp736
g721
I78705
sg722
F10.975996971130371
sg723
F0.00042700767517089844
sg724
I21
sg725
I368
sa(dp737
g721
I79058
sg722
F5.3580591678619385
sg723
F0.00029087066650390625
sg724
I27
sg725
I356
sa(dp738
g721
I77583
sg722
F3.1324479579925537
sg723
F0.0003139972686767578
sg724
I27
sg725
I350
sa(dp739
g721
I78286
sg722
F16.834442138671875
sg723
F0.000308990478515625
sg724
I28
sg725
I344
sa(dp740
g721
I77853
sg722
F10.543102979660034
sg723
F0.00035190582275390625
sg724
I28
sg725
I343
sa(dp741
g721
I75231
sg722
F1.1296160221099854
sg723
F0.0002789497375488281
sg724
I29
sg725
I342
sa(dp742
g721
I368
sg722
F0.07479691505432129
sg723
F4.410743713378906e-05
sg724
I1
sg725
I6
sa(dp743
g721
I92
sg722
F0.18024706840515137
sg723
F2.8133392333984375e-05
sg724
I1
sg725
I3
sasS'total_cqs'
p744
I486
ssI59
(dp745
S'iters'
p746
I2
sS'meta'
p747
(lp748
(dp749
S'objective'
p750
I14
sS'query_time'
p751
F0.019999027252197266
sS'comp_time'
p752
F6.699562072753906e-05
sS'exec_cq'
p753
I3
sS'total_cq'
p754
I7
sa(dp755
g750
I3
sg751
F0.039515018463134766
sg752
F5.412101745605469e-05
sg753
I2
sg754
I2
sasS'total_cqs'
p756
I7
ssI60
(dp757
S'iters'
p758
I1
sS'meta'
p759
(lp760
(dp761
S'objective'
p762
I7
sS'query_time'
p763
F0.006205081939697266
sS'comp_time'
p764
F4.38690185546875e-05
sS'exec_cq'
p765
I2
sS'total_cq'
p766
I5
sasS'total_cqs'
p767
I5
ssI61
(dp768
S'iters'
p769
I0
sS'meta'
p770
(lp771
sS'total_cqs'
p772
I1
ssI62
(dp773
S'iters'
p774
I2
sS'meta'
p775
(lp776
(dp777
S'objective'
p778
I28
sS'query_time'
p779
F0.014509916305541992
sS'comp_time'
p780
F4.1961669921875e-05
sS'exec_cq'
p781
I1
sS'total_cq'
p782
I12
sa(dp783
g778
I39
sg779
F0.02002406120300293
sg780
F0.00010800361633300781
sg781
I4
sg782
I9
sasS'total_cqs'
p784
I12
ssI63
(dp785
S'iters'
p786
I0
sS'meta'
p787
(lp788
sS'total_cqs'
p789
I1
ssI64
(dp790
S'iters'
p791
I5
sS'meta'
p792
(lp793
(dp794
S'objective'
p795
I56
sS'query_time'
p796
F0.10498499870300293
sS'comp_time'
p797
F8.893013000488281e-05
sS'exec_cq'
p798
I2
sS'total_cq'
p799
I12
sa(dp800
g795
I49
sg796
F0.03645896911621094
sg797
F6.4849853515625e-05
sg798
I3
sg799
I11
sa(dp801
g795
I18
sg796
F0.017431974411010742
sg797
F4.9114227294921875e-05
sg798
I3
sg799
I10
sa(dp802
g795
I4
sg796
F0.001990079879760742
sg797
F3.1948089599609375e-05
sg798
I1
sg799
I3
sa(dp803
g795
I2
sg796
F0.002959012985229492
sg797
F3.600120544433594e-05
sg798
I1
sg799
I2
sasS'total_cqs'
p804
I12
ssI65
(dp805
S'iters'
p806
I2
sS'meta'
p807
(lp808
(dp809
S'objective'
p810
I294
sS'query_time'
p811
F0.03076910972595215
sS'comp_time'
p812
F8.511543273925781e-05
sS'exec_cq'
p813
I1
sS'total_cq'
p814
I27
sa(dp815
g810
I12
sg811
F0.004011869430541992
sg812
F4.00543212890625e-05
sg813
I2
sg814
I2
sasS'total_cqs'
p816
I27
ssI66
(dp817
S'iters'
p818
I0
sS'meta'
p819
(lp820
sS'total_cqs'
p821
I1
ssI67
(dp822
S'iters'
p823
I1
sS'meta'
p824
(lp825
(dp826
S'objective'
p827
I592
sS'query_time'
p828
F0.8410730361938477
sS'comp_time'
p829
F7.915496826171875e-05
sS'exec_cq'
p830
I17
sS'total_cq'
p831
I35
sasS'total_cqs'
p832
I35
ssI68
(dp833
S'iters'
p834
I0
sS'meta'
p835
(lp836
sS'total_cqs'
p837
I1
ssI69
(dp838
S'iters'
p839
I1
sS'meta'
p840
(lp841
(dp842
S'objective'
p843
I1272
sS'query_time'
p844
F0.1369791030883789
sS'comp_time'
p845
F0.00011014938354492188
sS'exec_cq'
p846
I25
sS'total_cq'
p847
I51
sasS'total_cqs'
p848
I51
ssI70
(dp849
S'iters'
p850
I2
sS'meta'
p851
(lp852
(dp853
S'objective'
p854
I11
sS'query_time'
p855
F0.007025003433227539
sS'comp_time'
p856
F5.1975250244140625e-05
sS'exec_cq'
p857
I2
sS'total_cq'
p858
I6
sa(dp859
g854
I8
sg855
F0.008831024169921875
sg856
F6.198883056640625e-05
sg857
I2
sg858
I5
sasS'total_cqs'
p860
I6
ssI71
(dp861
S'iters'
p862
I7
sS'meta'
p863
(lp864
(dp865
S'objective'
p866
I3485
sS'query_time'
p867
F0.1355600357055664
sS'comp_time'
p868
F0.00011205673217773438
sS'exec_cq'
p869
I1
sS'total_cq'
p870
I85
sa(dp871
g866
I3168
sg867
F0.09167194366455078
sg868
F6.699562072753906e-05
sg869
I1
sg870
I84
sa(dp872
g866
I3205
sg867
F0.06836891174316406
sg868
F7.009506225585938e-05
sg869
I2
sg870
I81
sa(dp873
g866
I2943
sg867
F0.08753418922424316
sg868
F7.200241088867188e-05
sg869
I8
sg870
I80
sa(dp874
g866
I2891
sg867
F0.08232688903808594
sg868
F7.605552673339844e-05
sg869
I15
sg870
I77
sa(dp875
g866
I108
sg867
F0.005255937576293945
sg868
F3.790855407714844e-05
sg869
I1
sg870
I3
sa(dp876
g866
I22
sg867
F0.010419845581054688
sg868
F4.1961669921875e-05
sg869
I2
sg870
I2
sasS'total_cqs'
p877
I85
ssI72
(dp878
S'iters'
p879
I4
sS'meta'
p880
(lp881
(dp882
S'objective'
p883
I20
sS'query_time'
p884
F0.019874095916748047
sS'comp_time'
p885
F4.792213439941406e-05
sS'exec_cq'
p886
I1
sS'total_cq'
p887
I8
sa(dp888
g883
I10
sg884
F0.012445926666259766
sg885
F5.698204040527344e-05
sg886
I1
sg887
I7
sa(dp889
g883
I7
sg884
F5.302242994308472
sg885
F7.796287536621094e-05
sg886
I1
sg887
I5
sa(dp890
g883
I3
sg884
F0.00483393669128418
sg885
F3.600120544433594e-05
sg886
I1
sg887
I4
sasS'total_cqs'
p891
I8
ssI73
(dp892
S'iters'
p893
I0
sS'meta'
p894
(lp895
sS'total_cqs'
p896
I1
ssI74
(dp897
S'iters'
p898
I0
sS'meta'
p899
(lp900
sS'total_cqs'
p901
I1
ssI75
(dp902
S'iters'
p903
I2
sS'meta'
p904
(lp905
(dp906
S'objective'
p907
I5
sS'query_time'
p908
F0.005272865295410156
sS'comp_time'
p909
F6.413459777832031e-05
sS'exec_cq'
p910
I1
sS'total_cq'
p911
I5
sa(dp912
g907
I2
sg908
F0.0034079551696777344
sg909
F4.100799560546875e-05
sg910
I1
sg911
I4
sasS'total_cqs'
p913
I5
ssI76
(dp914
S'iters'
p915
I1
sS'meta'
p916
(lp917
(dp918
S'objective'
p919
I1
sS'query_time'
p920
F0.010382890701293945
sS'comp_time'
p921
F4.601478576660156e-05
sS'exec_cq'
p922
I1
sS'total_cq'
p923
I2
sasS'total_cqs'
p924
I2
ssI77
(dp925
S'iters'
p926
I0
sS'meta'
p927
(lp928
sS'total_cqs'
p929
I1
ssI78
(dp930
S'iters'
p931
I0
sS'meta'
p932
(lp933
sS'total_cqs'
p934
I1
ssI103
(dp935
S'iters'
p936
I1
sS'meta'
p937
(lp938
(dp939
S'objective'
p940
I64
sS'query_time'
p941
F0.05671977996826172
sS'comp_time'
p942
F7.486343383789062e-05
sS'exec_cq'
p943
I6
sS'total_cq'
p944
I12
sasS'total_cqs'
p945
I12
ssI104
(dp946
S'iters'
p947
I2
sS'meta'
p948
(lp949
(dp950
S'objective'
p951
I2
sS'query_time'
p952
F0.032570838928222656
sS'comp_time'
p953
F6.29425048828125e-05
sS'exec_cq'
p954
I1
sS'total_cq'
p955
I4
sa(dp956
g951
I2
sg952
F1.3427507877349854
sg953
F6.818771362304688e-05
sg954
I1
sg955
I2
sasS'total_cqs'
p957
I4
ssI105
(dp958
S'iters'
p959
I0
sS'meta'
p960
(lp961
sS'total_cqs'
p962
I1
ssI106
(dp963
S'iters'
p964
I1
sS'meta'
p965
(lp966
(dp967
S'objective'
p968
I4
sS'query_time'
p969
F0.01839303970336914
sS'comp_time'
p970
F8.893013000488281e-05
sS'exec_cq'
p971
I2
sS'total_cq'
p972
I4
sasS'total_cqs'
p973
I4
ssI107
(dp974
S'iters'
p975
I2
sS'meta'
p976
(lp977
(dp978
S'objective'
p979
I116
sS'query_time'
p980
F0.0396730899810791
sS'comp_time'
p981
F8.082389831542969e-05
sS'exec_cq'
p982
I7
sS'total_cq'
p983
I16
sa(dp984
g979
I108
sg980
F0.05365109443664551
sg981
F6.389617919921875e-05
sg982
I7
sg983
I15
sasS'total_cqs'
p985
I16
ssI108
(dp986
S'iters'
p987
I0
sS'meta'
p988
(lp989
sS'total_cqs'
p990
I1
ss.