(dp0
I1
(dp1
S'iters'
p2
I3
sS'meta'
p3
(lp4
(dp5
S'objective'
p6
I8
sS'query_time'
p7
F0.09190106391906738
sS'comp_time'
p8
F0.0002548694610595703
sS'exec_cq'
p9
I12
sS'total_cq'
p10
I12
sa(dp11
g6
I8
sg7
F4.38690185546875e-05
sg8
F5.698204040527344e-05
sg9
I10
sg10
I10
sa(dp12
g6
I7
sg7
F2.6941299438476562e-05
sg8
F4.506111145019531e-05
sg9
I9
sg10
I9
sasS'total_cqs'
p13
I12
ssI2
(dp14
S'iters'
p15
I8
sS'meta'
p16
(lp17
(dp18
S'objective'
p19
I19
sS'query_time'
p20
F4.636451005935669
sS'comp_time'
p21
F0.0020568370819091797
sS'exec_cq'
p22
I27
sS'total_cq'
p23
I27
sa(dp24
g19
I17
sg20
F0.00026488304138183594
sg21
F0.0008101463317871094
sg22
I23
sg23
I23
sa(dp25
g19
I16
sg20
F0.0002219676971435547
sg21
F0.0004382133483886719
sg22
I20
sg23
I20
sa(dp26
g19
I14
sg20
F9.894371032714844e-05
sg21
F0.00024890899658203125
sg22
I18
sg23
I18
sa(dp27
g19
I14
sg20
F8.988380432128906e-05
sg21
F0.00023412704467773438
sg22
I16
sg23
I16
sa(dp28
g19
I13
sg20
F7.200241088867188e-05
sg21
F0.00014710426330566406
sg22
I15
sg23
I15
sa(dp29
g19
I12
sg20
F5.698204040527344e-05
sg21
F7.390975952148438e-05
sg22
I14
sg23
I14
sa(dp30
g19
I11
sg20
F5.1021575927734375e-05
sg21
F5.7697296142578125e-05
sg22
I13
sg23
I13
sasS'total_cqs'
p31
I27
ssI3
(dp32
S'iters'
p33
I1
sS'meta'
p34
(lp35
(dp36
S'objective'
p37
I41
sS'query_time'
p38
F20.098225831985474
sS'comp_time'
p39
F0.014994144439697266
sS'exec_cq'
p40
I43
sS'total_cq'
p41
I43
sasS'total_cqs'
p42
I43
ssI4
(dp43
S'iters'
p44
I2
sS'meta'
p45
(lp46
(dp47
S'objective'
p48
I7
sS'query_time'
p49
F22.555974006652832
sS'comp_time'
p50
F0.3657679557800293
sS'exec_cq'
p51
I11
sS'total_cq'
p52
I11
sa(dp53
g48
I0
sg49
F0.09924578666687012
sg50
F0.3578648567199707
sg51
I2
sg52
I2
sasS'total_cqs'
p54
I11
ssI5
(dp55
S'iters'
p56
I1
sS'meta'
p57
(lp58
(dp59
S'objective'
p60
I6
sS'query_time'
p61
F27.35300302505493
sS'comp_time'
p62
F0.06453704833984375
sS'exec_cq'
p63
I8
sS'total_cq'
p64
I8
sasS'total_cqs'
p65
I8
ssI6
(dp66
S'iters'
p67
I3
sS'meta'
p68
(lp69
(dp70
S'objective'
p71
I12
sS'query_time'
p72
F32.249926805496216
sS'comp_time'
p73
F0.08341407775878906
sS'exec_cq'
p74
I18
sS'total_cq'
p75
I18
sa(dp76
g71
I1
sg72
F0.0048980712890625
sg73
F0.05042600631713867
sg74
I3
sg75
I3
sa(dp77
g71
I0
sg72
F0.006409883499145508
sg73
F0.030265092849731445
sg74
I2
sg75
I2
sasS'total_cqs'
p78
I18
ssI7
(dp79
S'iters'
p80
I3
sS'meta'
p81
(lp82
(dp83
S'objective'
p84
I1
sS'query_time'
p85
F38.54803109169006
sS'comp_time'
p86
F0.9199619293212891
sS'exec_cq'
p87
I9
sS'total_cq'
p88
I9
sa(dp89
g84
I1
sg85
F0.014587879180908203
sg86
F0.0398859977722168
sg87
I5
sg88
I5
sa(dp90
g84
I0
sg85
F0.08649182319641113
sg86
F0.03237581253051758
sg87
I2
sg88
I2
sasS'total_cqs'
p91
I9
ssI8
(dp92
S'iters'
p93
I5
sS'meta'
p94
(lp95
(dp96
S'objective'
p97
I17
sS'query_time'
p98
F5.528213024139404
sS'comp_time'
p99
F0.0015480518341064453
sS'exec_cq'
p100
I27
sS'total_cq'
p101
I27
sa(dp102
g97
I16
sg98
F0.00022292137145996094
sg99
F0.0005719661712646484
sg100
I22
sg101
I22
sa(dp103
g97
I17
sg98
F0.00011515617370605469
sg99
F0.00015163421630859375
sg100
I19
sg101
I19
sa(dp104
g97
I16
sg98
F0.00010585784912109375
sg99
F0.0001201629638671875
sg100
I18
sg101
I18
sa(dp105
g97
I15
sg98
F9.012222290039062e-05
sg99
F9.489059448242188e-05
sg100
I17
sg101
I17
sasS'total_cqs'
p106
I27
ssI9
(dp107
S'iters'
p108
I3
sS'meta'
p109
(lp110
(dp111
S'objective'
p112
I1
sS'query_time'
p113
F3.726447105407715
sS'comp_time'
p114
F0.0004150867462158203
sS'exec_cq'
p115
I7
sS'total_cq'
p116
I7
sa(dp117
g112
I0
sg113
F4.7206878662109375e-05
sg114
F9.274482727050781e-05
sg115
I4
sg116
I4
sa(dp118
g112
I0
sg113
F0.007554054260253906
sg114
F8.225440979003906e-05
sg115
I2
sg116
I2
sasS'total_cqs'
p119
I7
ssI10
(dp120
S'iters'
p121
I6
sS'meta'
p122
(lp123
(dp124
S'objective'
p125
I23
sS'query_time'
p126
F14.625218152999878
sS'comp_time'
p127
F0.007831811904907227
sS'exec_cq'
p128
I51
sS'total_cq'
p129
I51
sa(dp130
g125
I13
sg126
F0.0006401538848876953
sg127
F0.0019202232360839844
sg128
I37
sg129
I37
sa(dp131
g125
I0
sg126
F0.039372920989990234
sg127
F0.0007870197296142578
sg128
I12
sg129
I12
sa(dp132
g125
I2
sg126
F6.699562072753906e-05
sg127
F0.00019502639770507812
sg128
I6
sg129
I6
sa(dp133
g125
I0
sg126
F3.504753112792969e-05
sg127
F9.369850158691406e-05
sg128
I4
sg129
I4
sa(dp134
g125
I0
sg126
F1.811981201171875e-05
sg127
F6.389617919921875e-05
sg128
I2
sg129
I2
sasS'total_cqs'
p135
I51
ssI11
(dp136
S'iters'
p137
I5
sS'meta'
p138
(lp139
(dp140
S'objective'
p141
I31
sS'query_time'
p142
F14.669672966003418
sS'comp_time'
p143
F0.014484882354736328
sS'exec_cq'
p144
I63
sS'total_cq'
p145
I63
sa(dp146
g141
I29
sg142
F0.0009059906005859375
sg143
F0.0034198760986328125
sg144
I47
sg145
I47
sa(dp147
g141
I1
sg142
F0.0056400299072265625
sg143
F0.0009760856628417969
sg144
I9
sg145
I9
sa(dp148
g141
I0
sg142
F4.100799560546875e-05
sg143
F0.00013017654418945312
sg144
I4
sg145
I4
sa(dp149
g141
I0
sg142
F2.002716064453125e-05
sg143
F7.605552673339844e-05
sg144
I2
sg145
I2
sasS'total_cqs'
p150
I63
ssI12
(dp151
S'iters'
p152
I5
sS'meta'
p153
(lp154
(dp155
S'objective'
p156
I16
sS'query_time'
p157
F13.570757150650024
sS'comp_time'
p158
F0.008280038833618164
sS'exec_cq'
p159
I50
sS'total_cq'
p160
I50
sa(dp161
g156
I17
sg157
F0.0004680156707763672
sg158
F0.001650094985961914
sg159
I33
sg160
I33
sa(dp162
g156
I0
sg157
F0.039463043212890625
sg158
F0.0015251636505126953
sg159
I8
sg160
I8
sa(dp163
g156
I0
sg157
F0.0001659393310546875
sg158
F0.0010118484497070312
sg159
I4
sg160
I4
sa(dp164
g156
I0
sg157
F2.8848648071289062e-05
sg158
F0.00013494491577148438
sg159
I2
sg160
I2
sasS'total_cqs'
p165
I50
ssI13
(dp166
S'iters'
p167
I3
sS'meta'
p168
(lp169
(dp170
S'objective'
p171
I2
sS'query_time'
p172
F13.179654121398926
sS'comp_time'
p173
F0.0004711151123046875
sS'exec_cq'
p174
I20
sS'total_cq'
p175
I20
sa(dp176
g171
I5
sg172
F5.602836608886719e-05
sg173
F7.081031799316406e-05
sg174
I9
sg175
I9
sa(dp177
g171
I0
sg172
F0.005265951156616211
sg173
F7.295608520507812e-05
sg174
I2
sg175
I2
sasS'total_cqs'
p178
I20
ssI14
(dp179
S'iters'
p180
I3
sS'meta'
p181
(lp182
(dp183
S'objective'
p184
I1
sS'query_time'
p185
F26.888496160507202
sS'comp_time'
p186
F0.10376596450805664
sS'exec_cq'
p187
I9
sS'total_cq'
p188
I9
sa(dp189
g184
I3
sg185
F0.0033931732177734375
sg186
F0.043196916580200195
sg187
I5
sg188
I5
sa(dp190
g184
I2
sg185
F0.0207979679107666
sg186
F0.028202056884765625
sg187
I4
sg188
I4
sasS'total_cqs'
p191
I9
ssI15
(dp192
S'iters'
p193
I3
sS'meta'
p194
(lp195
(dp196
S'objective'
p197
I9
sS'query_time'
p198
F20.9565589427948
sS'comp_time'
p199
F0.933178186416626
sS'exec_cq'
p200
I11
sS'total_cq'
p201
I11
sa(dp202
g197
I4
sg198
F0.000598907470703125
sg199
F0.3357670307159424
sg200
I10
sg201
I10
sa(dp203
g197
I1
sg198
F0.00028705596923828125
sg199
F0.06165194511413574
sg200
I3
sg201
I3
sasS'total_cqs'
p204
I11
ssI16
(dp205
S'iters'
p206
I1
sS'meta'
p207
(lp208
(dp209
S'objective'
p210
I6
sS'query_time'
p211
F0.031720876693725586
sS'comp_time'
p212
F0.00012993812561035156
sS'exec_cq'
p213
I8
sS'total_cq'
p214
I8
sasS'total_cqs'
p215
I8
ssI17
(dp216
S'iters'
p217
I1
sS'meta'
p218
(lp219
(dp220
S'objective'
p221
I9
sS'query_time'
p222
F20.112782955169678
sS'comp_time'
p223
F0.05940890312194824
sS'exec_cq'
p224
I11
sS'total_cq'
p225
I11
sasS'total_cqs'
p226
I11
ssI18
(dp227
S'iters'
p228
I4
sS'meta'
p229
(lp230
(dp231
S'objective'
p232
I5
sS'query_time'
p233
F20.175704956054688
sS'comp_time'
p234
F0.0058400630950927734
sS'exec_cq'
p235
I11
sS'total_cq'
p236
I11
sa(dp237
g232
I6
sg233
F0.00021600723266601562
sg234
F0.0010578632354736328
sg235
I8
sg236
I8
sa(dp238
g232
I5
sg233
F6.890296936035156e-05
sg234
F0.00027298927307128906
sg235
I7
sg236
I7
sa(dp239
g232
I4
sg233
F3.314018249511719e-05
sg234
F8.797645568847656e-05
sg235
I6
sg236
I6
sasS'total_cqs'
p240
I11
ssI22
(dp241
S'iters'
p242
I1
sS'meta'
p243
(lp244
(dp245
S'objective'
p246
I16
sS'query_time'
p247
F1.2998290061950684
sS'comp_time'
p248
F0.0003039836883544922
sS'exec_cq'
p249
I18
sS'total_cq'
p250
I18
sasS'total_cqs'
p251
I18
ssI23
(dp252
S'iters'
p253
I3
sS'meta'
p254
(lp255
(dp256
S'objective'
p257
I12
sS'query_time'
p258
F0.9561259746551514
sS'comp_time'
p259
F0.0011000633239746094
sS'exec_cq'
p260
I16
sS'total_cq'
p261
I16
sa(dp262
g257
I12
sg258
F0.0002129077911376953
sg259
F0.00018906593322753906
sg260
I14
sg261
I14
sa(dp263
g257
I11
sg258
F3.600120544433594e-05
sg259
F5.1021575927734375e-05
sg260
I13
sg261
I13
sasS'total_cqs'
p264
I16
ssI26
(dp265
S'iters'
p266
I1
sS'meta'
p267
(lp268
(dp269
S'objective'
p270
I40
sS'query_time'
p271
F2.5288538932800293
sS'comp_time'
p272
F0.00023698806762695312
sS'exec_cq'
p273
I42
sS'total_cq'
p274
I42
sasS'total_cqs'
p275
I42
ssI27
(dp276
S'iters'
p277
I3
sS'meta'
p278
(lp279
(dp280
S'objective'
p281
I20
sS'query_time'
p282
F44.385241985321045
sS'comp_time'
p283
F1.811103105545044
sS'exec_cq'
p284
I30
sS'total_cq'
p285
I30
sa(dp286
g281
I1
sg282
F0.360396146774292
sg283
F1.8701751232147217
sg284
I5
sg285
I5
sa(dp287
g281
I0
sg282
F0.06509089469909668
sg283
F0.46156787872314453
sg284
I2
sg285
I2
sasS'total_cqs'
p288
I30
ssI29
(dp289
S'iters'
p290
I5
sS'meta'
p291
(lp292
(dp293
S'objective'
p294
I15
sS'query_time'
p295
F162.77211713790894
sS'comp_time'
p296
F13.144742250442505
sS'exec_cq'
p297
I49
sS'total_cq'
p298
I49
sa(dp299
g294
I1
sg295
F0.020494937896728516
sg296
F0.04538297653198242
sg297
I17
sg298
I17
sa(dp300
g294
I1
sg295
F0.6161551475524902
sg296
F0.05286097526550293
sg297
I9
sg298
I9
sa(dp301
g294
I1
sg295
F0.003284931182861328
sg296
F0.011765003204345703
sg297
I5
sg298
I5
sa(dp302
g294
I1
sg295
F0.001074075698852539
sg296
F0.004474163055419922
sg297
I3
sg298
I3
sasS'total_cqs'
p303
I49
ssI30
(dp304
S'iters'
p305
I1
sS'meta'
p306
(lp307
(dp308
S'objective'
p309
I0
sS'query_time'
p310
F20.010425090789795
sS'comp_time'
p311
F0.003529071807861328
sS'exec_cq'
p312
I2
sS'total_cq'
p313
I2
sasS'total_cqs'
p314
I2
ssI32
(dp315
S'iters'
p316
I1
sS'meta'
p317
(lp318
(dp319
S'objective'
p320
I0
sS'query_time'
p321
F0.016392946243286133
sS'comp_time'
p322
F0.0003008842468261719
sS'exec_cq'
p323
I2
sS'total_cq'
p324
I2
sasS'total_cqs'
p325
I2
ssI33
(dp326
S'iters'
p327
I1
sS'meta'
p328
(lp329
(dp330
S'objective'
p331
I101
sS'query_time'
p332
F26.86071491241455
sS'comp_time'
p333
F1.2101008892059326
sS'exec_cq'
p334
I103
sS'total_cq'
p335
I103
sasS'total_cqs'
p336
I103
ssI34
(dp337
S'iters'
p338
I1
sS'meta'
p339
(lp340
(dp341
S'objective'
p342
I0
sS'query_time'
p343
F0.024260997772216797
sS'comp_time'
p344
F0.0007550716400146484
sS'exec_cq'
p345
I2
sS'total_cq'
p346
I2
sasS'total_cqs'
p347
I2
ssI35
(dp348
S'iters'
p349
I4
sS'meta'
p350
(lp351
(dp352
S'objective'
p353
I68
sS'query_time'
p354
F21.283098936080933
sS'comp_time'
p355
F0.07881712913513184
sS'exec_cq'
p356
I70
sS'total_cq'
p357
I70
sa(dp358
g353
I67
sg354
F0.0002849102020263672
sg355
F0.46390199661254883
sg356
I69
sg357
I69
sa(dp359
g353
I64
sg354
F0.9203689098358154
sg355
F0.7924320697784424
sg356
I68
sg357
I68
sa(dp360
g353
I0
sg354
F0.04186892509460449
sg355
F0.010284900665283203
sg356
I2
sg357
I2
sasS'total_cqs'
p361
I70
ssI36
(dp362
S'iters'
p363
I4
sS'meta'
p364
(lp365
(dp366
S'objective'
p367
I25
sS'query_time'
p368
F20.261178016662598
sS'comp_time'
p369
F0.029039859771728516
sS'exec_cq'
p370
I33
sS'total_cq'
p371
I33
sa(dp372
g367
I21
sg368
F0.004608869552612305
sg369
F0.01932215690612793
sg370
I29
sg371
I29
sa(dp373
g367
I23
sg368
F0.0012288093566894531
sg369
F0.006154060363769531
sg370
I25
sg371
I25
sa(dp374
g367
I22
sg368
F0.0003819465637207031
sg369
F0.002051115036010742
sg370
I24
sg371
I24
sasS'total_cqs'
p375
I33
ssI37
(dp376
S'iters'
p377
I1
sS'meta'
p378
(lp379
(dp380
S'objective'
p381
I0
sS'query_time'
p382
F0.01009988784790039
sS'comp_time'
p383
F0.00029087066650390625
sS'exec_cq'
p384
I2
sS'total_cq'
p385
I2
sasS'total_cqs'
p386
I2
ssI38
(dp387
S'iters'
p388
I2
sS'meta'
p389
(lp390
(dp391
S'objective'
p392
I0
sS'query_time'
p393
F0.32966017723083496
sS'comp_time'
p394
F0.0008089542388916016
sS'exec_cq'
p395
I4
sS'total_cq'
p396
I4
sa(dp397
g392
I0
sg393
F8.106231689453125e-05
sg394
F0.00029778480529785156
sg395
I2
sg396
I2
sasS'total_cqs'
p398
I4
ssI39
(dp399
S'iters'
p400
I2
sS'meta'
p401
(lp402
(dp403
S'objective'
p404
I30
sS'query_time'
p405
F4.395506858825684
sS'comp_time'
p406
F0.002310037612915039
sS'exec_cq'
p407
I44
sS'total_cq'
p408
I44
sa(dp409
g404
I35
sg405
F0.0003800392150878906
sg406
F0.0015239715576171875
sg407
I37
sg408
I37
sasS'total_cqs'
p410
I44
ssI40
(dp411
S'iters'
p412
I1
sS'meta'
p413
(lp414
(dp415
S'objective'
p416
I5
sS'query_time'
p417
F2.5082850456237793
sS'comp_time'
p418
F0.00018143653869628906
sS'exec_cq'
p419
I7
sS'total_cq'
p420
I7
sasS'total_cqs'
p421
I7
ssI41
(dp422
S'iters'
p423
I1
sS'meta'
p424
(lp425
(dp426
S'objective'
p427
I10
sS'query_time'
p428
F1.2146141529083252
sS'comp_time'
p429
F0.00023603439331054688
sS'exec_cq'
p430
I12
sS'total_cq'
p431
I12
sasS'total_cqs'
p432
I12
ssI42
(dp433
S'iters'
p434
I3
sS'meta'
p435
(lp436
(dp437
S'objective'
p438
I39
sS'query_time'
p439
F1.7827579975128174
sS'comp_time'
p440
F0.00020003318786621094
sS'exec_cq'
p441
I41
sS'total_cq'
p442
I41
sa(dp443
g438
I38
sg439
F0.0001571178436279297
sg440
F0.00011897087097167969
sg441
I40
sg442
I40
sa(dp444
g438
I37
sg439
F0.0001327991485595703
sg440
F9.393692016601562e-05
sg441
I39
sg442
I39
sasS'total_cqs'
p445
I41
ssI43
(dp446
S'iters'
p447
I1
sS'meta'
p448
(lp449
(dp450
S'objective'
p451
I5
sS'query_time'
p452
F0.8810269832611084
sS'comp_time'
p453
F0.00016188621520996094
sS'exec_cq'
p454
I7
sS'total_cq'
p455
I7
sasS'total_cqs'
p456
I7
ssI44
(dp457
S'iters'
p458
I4
sS'meta'
p459
(lp460
(dp461
S'objective'
p462
I33
sS'query_time'
p463
F4.6300578117370605
sS'comp_time'
p464
F0.0017421245574951172
sS'exec_cq'
p465
I47
sS'total_cq'
p466
I47
sa(dp467
g462
I34
sg463
F0.0004699230194091797
sg464
F0.0018701553344726562
sg465
I40
sg466
I40
sa(dp468
g462
I1
sg463
F0.08069205284118652
sg464
F0.0010309219360351562
sg465
I3
sg466
I3
sa(dp469
g462
I0
sg463
F0.00017714500427246094
sg464
F0.001024007797241211
sg465
I2
sg466
I2
sasS'total_cqs'
p470
I47
ssI46
(dp471
S'iters'
p472
I2
sS'meta'
p473
(lp474
(dp475
S'objective'
p476
I4
sS'query_time'
p477
F0.6085319519042969
sS'comp_time'
p478
F0.0004439353942871094
sS'exec_cq'
p479
I6
sS'total_cq'
p480
I6
sa(dp481
g476
I3
sg477
F4.9114227294921875e-05
sg478
F9.393692016601562e-05
sg479
I5
sg480
I5
sasS'total_cqs'
p482
I6
ssI47
(dp483
S'iters'
p484
I1
sS'meta'
p485
(lp486
(dp487
S'objective'
p488
I0
sS'query_time'
p489
F0.17151594161987305
sS'comp_time'
p490
F0.0005002021789550781
sS'exec_cq'
p491
I2
sS'total_cq'
p492
I2
sasS'total_cqs'
p493
I2
ssI50
(dp494
S'iters'
p495
I3
sS'meta'
p496
(lp497
(dp498
S'objective'
p499
I3
sS'query_time'
p500
F0.16674399375915527
sS'comp_time'
p501
F0.00017595291137695312
sS'exec_cq'
p502
I5
sS'total_cq'
p503
I5
sa(dp504
g499
I2
sg500
F3.910064697265625e-05
sg501
F0.00011396408081054688
sg502
I4
sg503
I4
sa(dp505
g499
I1
sg500
F3.0040740966796875e-05
sg501
F9.679794311523438e-05
sg502
I3
sg503
I3
sasS'total_cqs'
p506
I5
ssI51
(dp507
S'iters'
p508
I1
sS'meta'
p509
(lp510
(dp511
S'objective'
p512
I0
sS'query_time'
p513
F0.27729105949401855
sS'comp_time'
p514
F0.0002620220184326172
sS'exec_cq'
p515
I2
sS'total_cq'
p516
I2
sasS'total_cqs'
p517
I2
ssI52
(dp518
S'iters'
p519
I1
sS'meta'
p520
(lp521
(dp522
S'objective'
p523
I0
sS'query_time'
p524
F0.012451887130737305
sS'comp_time'
p525
F0.000225067138671875
sS'exec_cq'
p526
I2
sS'total_cq'
p527
I2
sasS'total_cqs'
p528
I2
ssI53
(dp529
S'iters'
p530
I2
sS'meta'
p531
(lp532
(dp533
S'objective'
p534
I0
sS'query_time'
p535
F0.14972400665283203
sS'comp_time'
p536
F0.0005609989166259766
sS'exec_cq'
p537
I4
sS'total_cq'
p538
I4
sa(dp539
g534
I0
sg535
F8.702278137207031e-05
sg536
F0.0004229545593261719
sg537
I2
sg538
I2
sasS'total_cqs'
p540
I4
ssI54
(dp541
S'iters'
p542
I1
sS'meta'
p543
(lp544
(dp545
S'objective'
p546
I1
sS'query_time'
p547
F0.1479778289794922
sS'comp_time'
p548
F0.0003020763397216797
sS'exec_cq'
p549
I3
sS'total_cq'
p550
I3
sasS'total_cqs'
p551
I3
ssI55
(dp552
S'iters'
p553
I7
sS'meta'
p554
(lp555
(dp556
S'objective'
p557
I85
sS'query_time'
p558
F29.11707305908203
sS'comp_time'
p559
F0.03833603858947754
sS'exec_cq'
p560
I109
sS'total_cq'
p561
I109
sa(dp562
g557
I85
sg558
F0.0011410713195800781
sg559
F0.0027539730072021484
sg560
I97
sg561
I97
sa(dp563
g557
I83
sg558
F0.0002892017364501953
sg559
F0.0007700920104980469
sg560
I91
sg561
I91
sa(dp564
g557
I83
sg558
F0.00028705596923828125
sg559
F0.0007340908050537109
sg560
I87
sg561
I87
sa(dp565
g557
I81
sg558
F0.0002598762512207031
sg559
F0.0007047653198242188
sg560
I85
sg561
I85
sa(dp566
g557
I79
sg558
F0.00024700164794921875
sg559
F0.0004999637603759766
sg560
I83
sg561
I83
sa(dp567
g557
I79
sg558
F0.0002429485321044922
sg559
F0.0004241466522216797
sg560
I81
sg561
I81
sasS'total_cqs'
p568
I109
ssI56
(dp569
S'iters'
p570
I5
sS'meta'
p571
(lp572
(dp573
S'objective'
p574
I44
sS'query_time'
p575
F30.61486792564392
sS'comp_time'
p576
F0.13435101509094238
sS'exec_cq'
p577
I76
sS'total_cq'
p578
I76
sa(dp579
g574
I0
sg575
F0.0053958892822265625
sg576
F0.009122133255004883
sg577
I16
sg578
I16
sa(dp580
g574
I0
sg575
F0.002212047576904297
sg576
F0.006365060806274414
sg577
I8
sg578
I8
sa(dp581
g574
I0
sg575
F0.00028204917907714844
sg576
F0.001149892807006836
sg577
I4
sg578
I4
sa(dp582
g574
I0
sg575
F0.00012493133544921875
sg576
F0.0008728504180908203
sg577
I2
sg578
I2
sasS'total_cqs'
p583
I76
ssI57
(dp584
S'iters'
p585
I2
sS'meta'
p586
(lp587
(dp588
S'objective'
p589
I47
sS'query_time'
p590
F25.32856297492981
sS'comp_time'
p591
F0.4118669033050537
sS'exec_cq'
p592
I51
sS'total_cq'
p593
I51
sa(dp594
g589
I0
sg590
F0.00030612945556640625
sg591
F0.03718304634094238
sg592
I2
sg593
I2
sasS'total_cqs'
p595
I51
ssI58
(dp596
S'iters'
p597
I7
sS'meta'
p598
(lp599
(dp600
S'objective'
p601
I482
sS'query_time'
p602
F28.179330110549927
sS'comp_time'
p603
F0.4836587905883789
sS'exec_cq'
p604
I486
sS'total_cq'
p605
I486
sa(dp606
g601
I480
sg602
F0.0016548633575439453
sg603
F0.47044992446899414
sg604
I484
sg605
I484
sa(dp607
g601
I480
sg602
F0.002184152603149414
sg603
F0.4301939010620117
sg604
I482
sg605
I482
sa(dp608
g601
I479
sg602
F0.00232696533203125
sg603
F1.2965500354766846
sg604
I481
sg605
I481
sa(dp609
g601
I456
sg602
F1.963926076889038
sg603
F1.6862871646881104
sg604
I480
sg605
I480
sa(dp610
g601
I8
sg602
F0.1757068634033203
sg603
F0.15153098106384277
sg604
I12
sg605
I12
sa(dp611
g601
I8
sg602
F0.09674072265625
sg603
F0.0785679817199707
sg604
I10
sg605
I10
sasS'total_cqs'
p612
I486
ssI59
(dp613
S'iters'
p614
I2
sS'meta'
p615
(lp616
(dp617
S'objective'
p618
I3
sS'query_time'
p619
F3.1005489826202393
sS'comp_time'
p620
F0.0016438961029052734
sS'exec_cq'
p621
I7
sS'total_cq'
p622
I7
sa(dp623
g618
I0
sg619
F0.0002448558807373047
sg620
F0.0011548995971679688
sg621
I2
sg622
I2
sasS'total_cqs'
p624
I7
ssI60
(dp625
S'iters'
p626
I3
sS'meta'
p627
(lp628
(dp629
S'objective'
p630
I3
sS'query_time'
p631
F1.4330470561981201
sS'comp_time'
p632
F0.0005140304565429688
sS'exec_cq'
p633
I5
sS'total_cq'
p634
I5
sa(dp635
g630
I2
sg631
F0.00014901161193847656
sg632
F0.0002727508544921875
sg633
I4
sg634
I4
sa(dp636
g630
I1
sg631
F2.09808349609375e-05
sg632
F6.103515625e-05
sg633
I3
sg634
I3
sasS'total_cqs'
p637
I5
ssI62
(dp638
S'iters'
p639
I2
sS'meta'
p640
(lp641
(dp642
S'objective'
p643
I6
sS'query_time'
p644
F1.8639209270477295
sS'comp_time'
p645
F0.00030612945556640625
sS'exec_cq'
p646
I12
sS'total_cq'
p647
I12
sa(dp648
g643
I7
sg644
F7.700920104980469e-05
sg645
F0.00011897087097167969
sg646
I9
sg647
I9
sasS'total_cqs'
p649
I12
ssI64
(dp650
S'iters'
p651
I3
sS'meta'
p652
(lp653
(dp654
S'objective'
p655
I4
sS'query_time'
p656
F7.6402130126953125
sS'comp_time'
p657
F0.011486053466796875
sS'exec_cq'
p658
I12
sS'total_cq'
p659
I12
sa(dp660
g655
I0
sg656
F0.00033593177795410156
sg657
F0.0015451908111572266
sg658
I4
sg659
I4
sa(dp661
g655
I0
sg656
F0.00021195411682128906
sg657
F0.0010099411010742188
sg658
I2
sg659
I2
sasS'total_cqs'
p662
I12
ssI65
(dp663
S'iters'
p664
I4
sS'meta'
p665
(lp666
(dp667
S'objective'
p668
I13
sS'query_time'
p669
F17.879436016082764
sS'comp_time'
p670
F0.035407066345214844
sS'exec_cq'
p671
I27
sS'total_cq'
p672
I27
sa(dp673
g668
I1
sg669
F0.0013120174407958984
sg670
F0.004051685333251953
sg671
I7
sg672
I7
sa(dp674
g668
I0
sg669
F0.0003349781036376953
sg670
F0.002004861831665039
sg671
I4
sg672
I4
sa(dp675
g668
I0
sg669
F8.0108642578125e-05
sg670
F0.0004620552062988281
sg671
I2
sg672
I2
sasS'total_cqs'
p676
I27
ssI67
(dp677
S'iters'
p678
I2
sS'meta'
p679
(lp680
(dp681
S'objective'
p682
I31
sS'query_time'
p683
F17.368921995162964
sS'comp_time'
p684
F0.010260820388793945
sS'exec_cq'
p685
I35
sS'total_cq'
p686
I35
sa(dp687
g682
I0
sg683
F0.0010139942169189453
sg684
F0.004913330078125
sg685
I2
sg686
I2
sasS'total_cqs'
p688
I35
ssI69
(dp689
S'iters'
p690
I1
sS'meta'
p691
(lp692
(dp693
S'objective'
p694
I49
sS'query_time'
p695
F14.211364984512329
sS'comp_time'
p696
F0.00039386749267578125
sS'exec_cq'
p697
I51
sS'total_cq'
p698
I51
sasS'total_cqs'
p699
I51
ssI70
(dp700
S'iters'
p701
I2
sS'meta'
p702
(lp703
(dp704
S'objective'
p705
I4
sS'query_time'
p706
F0.5696020126342773
sS'comp_time'
p707
F0.0003459453582763672
sS'exec_cq'
p708
I6
sS'total_cq'
p709
I6
sa(dp710
g705
I3
sg706
F6.914138793945312e-05
sg707
F0.00021719932556152344
sg708
I5
sg709
I5
sasS'total_cqs'
p711
I6
ssI71
(dp712
S'iters'
p713
I6
sS'meta'
p714
(lp715
(dp716
S'objective'
p717
I77
sS'query_time'
p718
F10.181887149810791
sS'comp_time'
p719
F0.0016837120056152344
sS'exec_cq'
p720
I85
sS'total_cq'
p721
I85
sa(dp722
g717
I73
sg718
F0.00043010711669921875
sg719
F0.0008149147033691406
sg720
I81
sg721
I81
sa(dp723
g717
I71
sg718
F0.0003578662872314453
sg719
F0.0007331371307373047
sg720
I77
sg721
I77
sa(dp724
g717
I68
sg718
F0.0003409385681152344
sg719
F0.0005488395690917969
sg720
I74
sg721
I74
sa(dp725
g717
I65
sg718
F0.00035500526428222656
sg719
F0.0004620552062988281
sg720
I71
sg721
I71
sa(dp726
g717
I1
sg718
F0.13372111320495605
sg719
F0.0002899169921875
sg720
I3
sg721
I3
sasS'total_cqs'
p727
I85
ssI72
(dp728
S'iters'
p729
I3
sS'meta'
p730
(lp731
(dp732
S'objective'
p733
I2
sS'query_time'
p734
F12.968354940414429
sS'comp_time'
p735
F0.007685661315917969
sS'exec_cq'
p736
I8
sS'total_cq'
p737
I8
sa(dp738
g733
I1
sg734
F0.00016188621520996094
sg735
F0.0004017353057861328
sg736
I5
sg737
I5
sa(dp739
g733
I1
sg734
F4.7206878662109375e-05
sg735
F0.0001811981201171875
sg736
I3
sg737
I3
sasS'total_cqs'
p740
I8
ssI75
(dp741
S'iters'
p742
I4
sS'meta'
p743
(lp744
(dp745
S'objective'
p746
I3
sS'query_time'
p747
F0.5740599632263184
sS'comp_time'
p748
F0.00021505355834960938
sS'exec_cq'
p749
I5
sS'total_cq'
p750
I5
sa(dp751
g746
I2
sg747
F6.818771362304688e-05
sg748
F0.00013208389282226562
sg749
I4
sg750
I4
sa(dp752
g746
I1
sg747
F3.3855438232421875e-05
sg748
F0.00010204315185546875
sg749
I3
sg750
I3
sa(dp753
g746
I0
sg747
F2.6941299438476562e-05
sg748
F8.702278137207031e-05
sg749
I2
sg750
I2
sasS'total_cqs'
p754
I5
ssI76
(dp755
S'iters'
p756
I1
sS'meta'
p757
(lp758
(dp759
S'objective'
p760
I0
sS'query_time'
p761
F1.4817869663238525
sS'comp_time'
p762
F0.0005099773406982422
sS'exec_cq'
p763
I2
sS'total_cq'
p764
I2
sasS'total_cqs'
p765
I2
ssI103
(dp766
S'iters'
p767
I1
sS'meta'
p768
(lp769
(dp770
S'objective'
p771
I10
sS'query_time'
p772
F10.300782918930054
sS'comp_time'
p773
F0.000247955322265625
sS'exec_cq'
p774
I12
sS'total_cq'
p775
I12
sasS'total_cqs'
p776
I12
ssI104
(dp777
S'iters'
p778
I2
sS'meta'
p779
(lp780
(dp781
S'objective'
p782
I0
sS'query_time'
p783
F20.264353036880493
sS'comp_time'
p784
F0.08688616752624512
sS'exec_cq'
p785
I4
sS'total_cq'
p786
I4
sa(dp787
g782
I0
sg783
F0.012823820114135742
sg784
F0.08429622650146484
sg785
I2
sg786
I2
sasS'total_cqs'
p788
I4
ssI106
(dp789
S'iters'
p790
I1
sS'meta'
p791
(lp792
(dp793
S'objective'
p794
I2
sS'query_time'
p795
F2.1450908184051514
sS'comp_time'
p796
F0.0001742839813232422
sS'exec_cq'
p797
I4
sS'total_cq'
p798
I4
sasS'total_cqs'
p799
I4
ssI107
(dp800
S'iters'
p801
I2
sS'meta'
p802
(lp803
(dp804
S'objective'
p805
I10
sS'query_time'
p806
F8.0346839427948
sS'comp_time'
p807
F0.0002639293670654297
sS'exec_cq'
p808
I16
sS'total_cq'
p809
I16
sa(dp810
g805
I1
sg806
F0.03838610649108887
sg807
F0.00016880035400390625
sg808
I3
sg809
I3
sasS'total_cqs'
p811
I16
ss.