(dp0
I1
(dp1
S'iters'
p2
I1
sS'meta'
p3
(lp4
(dp5
S'objective'
p6
I54
sS'query_time'
p7
F0.03881406784057617
sS'comp_time'
p8
F0.04189801216125488
sS'exec_cq'
p9
I12
sS'total_cq'
p10
I12
sasS'total_cqs'
p11
I12
ssI2
(dp12
S'iters'
p13
I4
sS'meta'
p14
(lp15
(dp16
S'objective'
p17
I292
sS'query_time'
p18
F0.07657718658447266
sS'comp_time'
p19
F0.036947011947631836
sS'exec_cq'
p20
I14
sS'total_cq'
p21
I27
sa(dp22
g17
I231
sg18
F0.048391103744506836
sg19
F0.0006148815155029297
sg20
I13
sg21
I24
sa(dp23
g17
I199
sg18
F8.702278137207031e-05
sg19
F0.0004241466522216797
sg20
I11
sg21
I21
sa(dp24
g17
I187
sg18
F6.699562072753906e-05
sg19
F0.0002582073211669922
sg20
I10
sg21
I19
sasS'total_cqs'
p25
I27
ssI3
(dp26
S'iters'
p27
I4
sS'meta'
p28
(lp29
(dp30
S'objective'
p31
I260
sS'query_time'
p32
F77.32427597045898
sS'comp_time'
p33
F0.6611428260803223
sS'exec_cq'
p34
I16
sS'total_cq'
p35
I43
sa(dp36
g31
I63
sg32
F109.47725510597229
sg33
F2.2783362865448
sg34
I14
sg35
I27
sa(dp37
g31
I7
sg32
F42.63914489746094
sg33
F0.6707580089569092
sg34
I9
sg35
I13
sa(dp38
g31
I84
sg32
F11.391210794448853
sg33
F0.0014710426330566406
sg34
I6
sg35
I6
sasS'total_cqs'
p39
I43
ssI4
(dp40
S'iters'
p41
I2
sS'meta'
p42
(lp43
(dp44
S'objective'
p45
I26
sS'query_time'
p46
F5.32094407081604
sS'comp_time'
p47
F1.1903767585754395
sS'exec_cq'
p48
I11
sS'total_cq'
p49
I11
sa(dp50
g45
I2
sg46
F0.30366086959838867
sg47
F1.3816709518432617
sg48
I2
sg49
I2
sasS'total_cqs'
p51
I11
ssI5
(dp52
S'iters'
p53
I3
sS'meta'
p54
(lp55
(dp56
S'objective'
p57
I0
sS'query_time'
p58
F35.15045690536499
sS'comp_time'
p59
F3.7729787826538086
sS'exec_cq'
p60
I8
sS'total_cq'
p61
I8
sa(dp62
g57
I0
sg58
F0.010169029235839844
sg59
F0.05500197410583496
sg60
I4
sg61
I4
sa(dp63
g57
I7
sg58
F0.004968881607055664
sg59
F0.03248238563537598
sg60
I2
sg61
I2
sasS'total_cqs'
p64
I8
ssI6
(dp65
S'iters'
p66
I3
sS'meta'
p67
(lp68
(dp69
S'objective'
p70
I33
sS'query_time'
p71
F38.25611114501953
sS'comp_time'
p72
F3.5651519298553467
sS'exec_cq'
p73
I18
sS'total_cq'
p74
I18
sa(dp75
g70
I1
sg71
F0.6238889694213867
sg72
F3.443128824234009
sg73
I7
sg74
I7
sa(dp76
g70
I2
sg71
F0.3585479259490967
sg72
F2.020630121231079
sg73
I3
sg74
I3
sasS'total_cqs'
p77
I18
ssI7
(dp78
S'iters'
p79
I3
sS'meta'
p80
(lp81
(dp82
S'objective'
p83
I1
sS'query_time'
p84
F13.137362957000732
sS'comp_time'
p85
F1.8867440223693848
sS'exec_cq'
p86
I9
sS'total_cq'
p87
I9
sa(dp88
g83
I1
sg84
F0.3317139148712158
sg85
F1.751270055770874
sg86
I5
sg87
I5
sa(dp89
g83
I6
sg84
F0.23959803581237793
sg85
F0.7246780395507812
sg86
I2
sg87
I2
sasS'total_cqs'
p90
I9
ssI8
(dp91
S'iters'
p92
I3
sS'meta'
p93
(lp94
(dp95
S'objective'
p96
I230
sS'query_time'
p97
F0.06824994087219238
sS'comp_time'
p98
F0.03690814971923828
sS'exec_cq'
p99
I14
sS'total_cq'
p100
I27
sa(dp101
g96
I206
sg97
F0.05234694480895996
sg98
F0.0006489753723144531
sg99
I13
sg100
I22
sa(dp102
g96
I5
sg97
F0.0009849071502685547
sg98
F0.0005202293395996094
sg99
I2
sg100
I2
sasS'total_cqs'
p103
I27
ssI9
(dp104
S'iters'
p105
I3
sS'meta'
p106
(lp107
(dp108
S'objective'
p109
I0
sS'query_time'
p110
F0.05260181427001953
sS'comp_time'
p111
F0.0046498775482177734
sS'exec_cq'
p112
I7
sS'total_cq'
p113
I7
sa(dp114
g109
I4
sg110
F2.8133392333984375e-05
sg111
F0.00022268295288085938
sg112
I4
sg113
I4
sa(dp115
g109
I5
sg110
F1.3113021850585938e-05
sg111
F6.914138793945312e-05
sg112
I2
sg113
I2
sasS'total_cqs'
p116
I7
ssI10
(dp117
S'iters'
p118
I5
sS'meta'
p119
(lp120
(dp121
S'objective'
p122
I540
sS'query_time'
p123
F0.24363493919372559
sS'comp_time'
p124
F0.10503125190734863
sS'exec_cq'
p125
I28
sS'total_cq'
p126
I51
sa(dp127
g122
I317
sg123
F0.20826482772827148
sg124
F0.001692056655883789
sg125
I23
sg126
I37
sa(dp128
g122
I8
sg123
F0.009655952453613281
sg124
F0.0012891292572021484
sg125
I12
sg126
I12
sa(dp129
g122
I2
sg123
F0.0001399517059326172
sg124
F0.0005447864532470703
sg125
I7
sg126
I7
sa(dp130
g122
I26
sg123
F1.7881393432617188e-05
sg124
F0.00014591217041015625
sg125
I2
sg126
I2
sasS'total_cqs'
p131
I51
ssI11
(dp132
S'iters'
p133
I4
sS'meta'
p134
(lp135
(dp136
S'objective'
p137
I1140
sS'query_time'
p138
F0.8167948722839355
sS'comp_time'
p139
F0.22796273231506348
sS'exec_cq'
p140
I63
sS'total_cq'
p141
I63
sa(dp142
g137
I858
sg138
F0.005427837371826172
sg139
F0.006848573684692383
sg140
I47
sg141
I47
sa(dp143
g137
I2
sg138
F0.001909017562866211
sg139
F0.002681255340576172
sg140
I9
sg141
I9
sa(dp144
g137
I55
sg138
F3.0994415283203125e-05
sg139
F0.0001659393310546875
sg140
I4
sg141
I4
sasS'total_cqs'
p145
I63
ssI12
(dp146
S'iters'
p147
I4
sS'meta'
p148
(lp149
(dp150
S'objective'
p151
I463
sS'query_time'
p152
F0.22220897674560547
sS'comp_time'
p153
F0.11626052856445312
sS'exec_cq'
p154
I28
sS'total_cq'
p155
I50
sa(dp156
g151
I387
sg152
F0.2406909465789795
sg153
F0.0031270980834960938
sg154
I22
sg155
I33
sa(dp157
g151
I3
sg152
F0.0013840198516845703
sg153
F0.0025682449340820312
sg154
I8
sg155
I8
sa(dp158
g151
I22
sg152
F4.100799560546875e-05
sg153
F0.0001952648162841797
sg154
I4
sg155
I4
sasS'total_cqs'
p159
I50
ssI13
(dp160
S'iters'
p161
I3
sS'meta'
p162
(lp163
(dp164
S'objective'
p165
I10
sS'query_time'
p166
F0.15746283531188965
sS'comp_time'
p167
F0.02630782127380371
sS'exec_cq'
p168
I20
sS'total_cq'
p169
I20
sa(dp170
g165
I32
sg166
F0.0014841556549072266
sg167
F0.0006775856018066406
sg168
I11
sg169
I11
sa(dp171
g165
I1
sg166
F1.5974044799804688e-05
sg167
F0.0001819133758544922
sg168
I2
sg169
I2
sasS'total_cqs'
p172
I20
ssI14
(dp173
S'iters'
p174
I3
sS'meta'
p175
(lp176
(dp177
S'objective'
p178
I1
sS'query_time'
p179
F33.50308918952942
sS'comp_time'
p180
F1.8518321514129639
sS'exec_cq'
p181
I9
sS'total_cq'
p182
I9
sa(dp183
g178
I1
sg179
F0.26606297492980957
sg180
F1.344336748123169
sg181
I4
sg182
I4
sa(dp184
g178
I6
sg179
F0.3329319953918457
sg180
F1.111830711364746
sg181
I2
sg182
I2
sasS'total_cqs'
p185
I9
ssI15
(dp186
S'iters'
p187
I3
sS'meta'
p188
(lp189
(dp190
S'objective'
p191
I2
sS'query_time'
p192
F3.561113119125366
sS'comp_time'
p193
F0.2850308418273926
sS'exec_cq'
p194
I11
sS'total_cq'
p195
I11
sa(dp196
g191
I0
sg192
F0.041665077209472656
sg193
F0.28956007957458496
sg194
I6
sg195
I6
sa(dp197
g191
I5
sg192
F0.001046895980834961
sg193
F0.005096912384033203
sg194
I2
sg195
I2
sasS'total_cqs'
p198
I11
ssI16
(dp199
S'iters'
p200
I1
sS'meta'
p201
(lp202
(dp203
S'objective'
p204
I20
sS'query_time'
p205
F0.02911996841430664
sS'comp_time'
p206
F0.005177021026611328
sS'exec_cq'
p207
I8
sS'total_cq'
p208
I8
sasS'total_cqs'
p209
I8
ssI17
(dp210
S'iters'
p211
I3
sS'meta'
p212
(lp213
(dp214
S'objective'
p215
I0
sS'query_time'
p216
F0.9268519878387451
sS'comp_time'
p217
F0.05479621887207031
sS'exec_cq'
p218
I11
sS'total_cq'
p219
I11
sa(dp220
g215
I1
sg216
F0.008273124694824219
sg217
F0.028630733489990234
sg218
I4
sg219
I4
sa(dp221
g215
I6
sg216
F0.0024809837341308594
sg217
F0.14192724227905273
sg218
I2
sg219
I2
sasS'total_cqs'
p222
I11
ssI18
(dp223
S'iters'
p224
I2
sS'meta'
p225
(lp226
(dp227
S'objective'
p228
I46
sS'query_time'
p229
F0.12299203872680664
sS'comp_time'
p230
F0.02830791473388672
sS'exec_cq'
p231
I5
sS'total_cq'
p232
I11
sa(dp233
g228
I34
sg229
F0.08794879913330078
sg230
F0.002256631851196289
sg231
I10
sg232
I10
sasS'total_cqs'
p234
I11
ssI19
(dp235
S'iters'
p236
I0
sS'meta'
p237
(lp238
sS'total_cqs'
p239
I1
ssI20
(dp240
S'iters'
p241
I0
sS'meta'
p242
(lp243
sS'total_cqs'
p244
I1
ssI21
(dp245
S'iters'
p246
I0
sS'meta'
p247
(lp248
sS'total_cqs'
p249
I1
ssI22
(dp250
S'iters'
p251
I1
sS'meta'
p252
(lp253
(dp254
S'objective'
p255
I135
sS'query_time'
p256
F0.0697031021118164
sS'comp_time'
p257
F0.06437468528747559
sS'exec_cq'
p258
I18
sS'total_cq'
p259
I18
sasS'total_cqs'
p260
I18
ssI23
(dp261
S'iters'
p262
I1
sS'meta'
p263
(lp264
(dp265
S'objective'
p266
I104
sS'query_time'
p267
F0.03448081016540527
sS'comp_time'
p268
F0.026031970977783203
sS'exec_cq'
p269
I8
sS'total_cq'
p270
I16
sasS'total_cqs'
p271
I16
ssI24
(dp272
S'iters'
p273
I0
sS'meta'
p274
(lp275
sS'total_cqs'
p276
I1
ssI25
(dp277
S'iters'
p278
I0
sS'meta'
p279
(lp280
sS'total_cqs'
p281
I1
ssI26
(dp282
S'iters'
p283
I1
sS'meta'
p284
(lp285
(dp286
S'objective'
p287
I819
sS'query_time'
p288
F0.17273283004760742
sS'comp_time'
p289
F0.14472699165344238
sS'exec_cq'
p290
I42
sS'total_cq'
p291
I42
sasS'total_cqs'
p292
I42
ssI27
(dp293
S'iters'
p294
I3
sS'meta'
p295
(lp296
(dp297
S'objective'
p298
I275
sS'query_time'
p299
F23.12273597717285
sS'comp_time'
p300
F4.380984306335449
sS'exec_cq'
p301
I30
sS'total_cq'
p302
I30
sa(dp303
g298
I1
sg299
F0.5371139049530029
sg300
F3.4384000301361084
sg301
I5
sg302
I5
sa(dp304
g298
I13
sg299
F0.026469945907592773
sg300
F0.345106840133667
sg301
I3
sg302
I3
sasS'total_cqs'
p305
I30
ssI28
(dp306
S'iters'
p307
I0
sS'meta'
p308
(lp309
sS'total_cqs'
p310
I1
ssI29
(dp311
S'iters'
p312
I5
sS'meta'
p313
(lp314
(dp315
S'objective'
p316
I397
sS'query_time'
p317
F26.800206899642944
sS'comp_time'
p318
F0.6826517581939697
sS'exec_cq'
p319
I35
sS'total_cq'
p320
I49
sa(dp321
g316
I0
sg317
F0.003226041793823242
sg318
F0.010683774948120117
sg319
I16
sg320
I16
sa(dp322
g316
I3
sg317
F0.002084970474243164
sg318
F0.008882284164428711
sg319
I9
sg320
I9
sa(dp323
g316
I3
sg317
F0.0009789466857910156
sg318
F0.005715131759643555
sg319
I4
sg320
I4
sa(dp324
g316
I47
sg317
F0.0008211135864257812
sg318
F0.004758119583129883
sg319
I2
sg320
I2
sasS'total_cqs'
p325
I49
ssI30
(dp326
S'iters'
p327
I1
sS'meta'
p328
(lp329
(dp330
S'objective'
p331
I1
sS'query_time'
p332
F0.6333930492401123
sS'comp_time'
p333
F0.04045224189758301
sS'exec_cq'
p334
I2
sS'total_cq'
p335
I2
sasS'total_cqs'
p336
I2
ssI31
(dp337
S'iters'
p338
I0
sS'meta'
p339
(lp340
sS'total_cqs'
p341
I1
ssI32
(dp342
S'iters'
p343
I1
sS'meta'
p344
(lp345
(dp346
S'objective'
p347
I1
sS'query_time'
p348
F0.030295848846435547
sS'comp_time'
p349
F0.02739882469177246
sS'exec_cq'
p350
I2
sS'total_cq'
p351
I2
sasS'total_cqs'
p352
I2
ssI33
(dp353
S'iters'
p354
I5
sS'meta'
p355
(lp356
(dp357
S'objective'
p358
I3650
sS'query_time'
p359
F16.025527954101562
sS'comp_time'
p360
F1.2339940071105957
sS'exec_cq'
p361
I103
sS'total_cq'
p362
I103
sa(dp363
g358
I45
sg359
F0.007718801498413086
sg360
F0.02695918083190918
sg361
I16
sg362
I16
sa(dp364
g358
I5
sg359
F0.004042148590087891
sg360
F0.014407157897949219
sg361
I10
sg362
I10
sa(dp365
g358
I0
sg359
F0.0015900135040283203
sg360
F0.008095741271972656
sg361
I5
sg362
I5
sa(dp366
g358
I95
sg359
F0.0008039474487304688
sg360
F0.0056171417236328125
sg361
I2
sg362
I2
sasS'total_cqs'
p367
I103
ssI34
(dp368
S'iters'
p369
I1
sS'meta'
p370
(lp371
(dp372
S'objective'
p373
I1
sS'query_time'
p374
F0.025806903839111328
sS'comp_time'
p375
F0.0019502639770507812
sS'exec_cq'
p376
I2
sS'total_cq'
p377
I2
sasS'total_cqs'
p378
I2
ssI35
(dp379
S'iters'
p380
I4
sS'meta'
p381
(lp382
(dp383
S'objective'
p384
I1351
sS'query_time'
p385
F21.788628101348877
sS'comp_time'
p386
F0.33600783348083496
sS'exec_cq'
p387
I50
sS'total_cq'
p388
I70
sa(dp389
g384
I15
sg385
F0.25025296211242676
sg386
F0.015032052993774414
sg387
I16
sg388
I16
sa(dp390
g384
I2
sg385
F0.0011019706726074219
sg386
F0.004734992980957031
sg387
I5
sg388
I5
sa(dp391
g384
I3
sg385
F0.0003399848937988281
sg386
F0.0027680397033691406
sg387
I2
sg388
I2
sasS'total_cqs'
p392
I70
ssI36
(dp393
S'iters'
p394
I1
sS'meta'
p395
(lp396
(dp397
S'objective'
p398
I495
sS'query_time'
p399
F0.6589751243591309
sS'comp_time'
p400
F0.1324012279510498
sS'exec_cq'
p401
I28
sS'total_cq'
p402
I33
sasS'total_cqs'
p403
I33
ssI37
(dp404
S'iters'
p405
I1
sS'meta'
p406
(lp407
(dp408
S'objective'
p409
I1
sS'query_time'
p410
F0.010298967361450195
sS'comp_time'
p411
F0.0014889240264892578
sS'exec_cq'
p412
I2
sS'total_cq'
p413
I2
sasS'total_cqs'
p414
I2
ssI38
(dp415
S'iters'
p416
I2
sS'meta'
p417
(lp418
(dp419
S'objective'
p420
I0
sS'query_time'
p421
F0.025904178619384766
sS'comp_time'
p422
F0.0029587745666503906
sS'exec_cq'
p423
I4
sS'total_cq'
p424
I4
sa(dp425
g420
I3
sg421
F9.489059448242188e-05
sg422
F0.0004947185516357422
sg423
I2
sg424
I2
sasS'total_cqs'
p426
I4
ssI39
(dp427
S'iters'
p428
I2
sS'meta'
p429
(lp430
(dp431
S'objective'
p432
I616
sS'query_time'
p433
F0.15247893333435059
sS'comp_time'
p434
F0.15584754943847656
sS'exec_cq'
p435
I44
sS'total_cq'
p436
I44
sa(dp437
g432
I715
sg433
F0.00030612945556640625
sg434
F0.0019426345825195312
sg435
I37
sg436
I37
sasS'total_cqs'
p438
I44
ssI40
(dp439
S'iters'
p440
I1
sS'meta'
p441
(lp442
(dp443
S'objective'
p444
I14
sS'query_time'
p445
F0.03915715217590332
sS'comp_time'
p446
F0.0057849884033203125
sS'exec_cq'
p447
I7
sS'total_cq'
p448
I7
sasS'total_cqs'
p449
I7
ssI41
(dp450
S'iters'
p451
I1
sS'meta'
p452
(lp453
(dp454
S'objective'
p455
I54
sS'query_time'
p456
F0.09130001068115234
sS'comp_time'
p457
F0.02174687385559082
sS'exec_cq'
p458
I12
sS'total_cq'
p459
I12
sasS'total_cqs'
p460
I12
ssI42
(dp461
S'iters'
p462
I1
sS'meta'
p463
(lp464
(dp465
S'objective'
p466
I779
sS'query_time'
p467
F0.06468415260314941
sS'comp_time'
p468
F0.13637065887451172
sS'exec_cq'
p469
I21
sS'total_cq'
p470
I41
sasS'total_cqs'
p471
I41
ssI43
(dp472
S'iters'
p473
I1
sS'meta'
p474
(lp475
(dp476
S'objective'
p477
I14
sS'query_time'
p478
F0.09368300437927246
sS'comp_time'
p479
F0.010013580322265625
sS'exec_cq'
p480
I7
sS'total_cq'
p481
I7
sasS'total_cqs'
p482
I7
ssI44
(dp483
S'iters'
p484
I4
sS'meta'
p485
(lp486
(dp487
S'objective'
p488
I918
sS'query_time'
p489
F0.1434919834136963
sS'comp_time'
p490
F0.10796666145324707
sS'exec_cq'
p491
I47
sS'total_cq'
p492
I47
sa(dp493
g488
I819
sg489
F0.00031185150146484375
sg490
F0.0016705989837646484
sg491
I40
sg492
I40
sa(dp494
g488
I34
sg489
F0.0012509822845458984
sg490
F0.0017859935760498047
sg491
I3
sg492
I3
sa(dp495
g488
I26
sg489
F0.00012111663818359375
sg490
F0.0007829666137695312
sg491
I2
sg492
I2
sasS'total_cqs'
p496
I47
ssI45
(dp497
S'iters'
p498
I0
sS'meta'
p499
(lp500
sS'total_cqs'
p501
I1
ssI46
(dp502
S'iters'
p503
I1
sS'meta'
p504
(lp505
(dp506
S'objective'
p507
I9
sS'query_time'
p508
F0.019114017486572266
sS'comp_time'
p509
F0.0027608871459960938
sS'exec_cq'
p510
I4
sS'total_cq'
p511
I6
sasS'total_cqs'
p512
I6
ssI47
(dp513
S'iters'
p514
I1
sS'meta'
p515
(lp516
(dp517
S'objective'
p518
I1
sS'query_time'
p519
F0.009643077850341797
sS'comp_time'
p520
F0.0012679100036621094
sS'exec_cq'
p521
I2
sS'total_cq'
p522
I2
sasS'total_cqs'
p523
I2
ssI48
(dp524
S'iters'
p525
I0
sS'meta'
p526
(lp527
sS'total_cqs'
p528
I1
ssI49
(dp529
S'iters'
p530
I0
sS'meta'
p531
(lp532
sS'total_cqs'
p533
I1
ssI50
(dp534
S'iters'
p535
I1
sS'meta'
p536
(lp537
(dp538
S'objective'
p539
I5
sS'query_time'
p540
F0.015289068222045898
sS'comp_time'
p541
F0.0020928382873535156
sS'exec_cq'
p542
I5
sS'total_cq'
p543
I5
sasS'total_cqs'
p544
I5
ssI51
(dp545
S'iters'
p546
I1
sS'meta'
p547
(lp548
(dp549
S'objective'
p550
I1
sS'query_time'
p551
F0.021934032440185547
sS'comp_time'
p552
F0.0018951892852783203
sS'exec_cq'
p553
I2
sS'total_cq'
p554
I2
sasS'total_cqs'
p555
I2
ssI52
(dp556
S'iters'
p557
I1
sS'meta'
p558
(lp559
(dp560
S'objective'
p561
I1
sS'query_time'
p562
F0.05678701400756836
sS'comp_time'
p563
F0.004330158233642578
sS'exec_cq'
p564
I2
sS'total_cq'
p565
I2
sasS'total_cqs'
p566
I2
ssI53
(dp567
S'iters'
p568
I2
sS'meta'
p569
(lp570
(dp571
S'objective'
p572
I0
sS'query_time'
p573
F0.032736778259277344
sS'comp_time'
p574
F0.002993345260620117
sS'exec_cq'
p575
I4
sS'total_cq'
p576
I4
sa(dp577
g572
I3
sg573
F0.0001010894775390625
sg574
F0.0006620883941650391
sg575
I2
sg576
I2
sasS'total_cqs'
p578
I4
ssI54
(dp579
S'iters'
p580
I1
sS'meta'
p581
(lp582
(dp583
S'objective'
p584
I0
sS'query_time'
p585
F0.012381792068481445
sS'comp_time'
p586
F0.0018019676208496094
sS'exec_cq'
p587
I3
sS'total_cq'
p588
I3
sasS'total_cqs'
p589
I3
ssI55
(dp590
S'iters'
p591
I6
sS'meta'
p592
(lp593
(dp594
S'objective'
p595
I4809
sS'query_time'
p596
F2.346951961517334
sS'comp_time'
p597
F0.7381811141967773
sS'exec_cq'
p598
I109
sS'total_cq'
p599
I109
sa(dp600
g595
I4804
sg596
F0.0009329319000244141
sg597
F0.004006147384643555
sg598
I97
sg599
I97
sa(dp601
g595
I4611
sg596
F0.000331878662109375
sg597
F0.001821756362915039
sg598
I91
sg599
I91
sa(dp602
g595
I4541
sg596
F0.00040602684020996094
sg597
F0.0017659664154052734
sg598
I87
sg599
I87
sa(dp603
g595
I4411
sg596
F0.0003600120544433594
sg597
F0.001275777816772461
sg598
I85
sg599
I85
sa(dp604
g595
I4337
sg596
F0.0003330707550048828
sg597
F0.001171112060546875
sg598
I83
sg599
I83
sasS'total_cqs'
p605
I109
ssI56
(dp606
S'iters'
p607
I4
sS'meta'
p608
(lp609
(dp610
S'objective'
p611
I1962
sS'query_time'
p612
F1.6387989521026611
sS'comp_time'
p613
F0.39033985137939453
sS'exec_cq'
p614
I67
sS'total_cq'
p615
I76
sa(dp616
g611
I20
sg612
F0.007462024688720703
sg613
F0.019009113311767578
sg614
I16
sg615
I16
sa(dp617
g611
I19
sg612
F0.0030062198638916016
sg613
F0.013149738311767578
sg614
I8
sg615
I8
sa(dp618
g611
I17
sg612
F0.0004699230194091797
sg613
F0.002221822738647461
sg614
I4
sg615
I4
sasS'total_cqs'
p619
I76
ssI57
(dp620
S'iters'
p621
I5
sS'meta'
p622
(lp623
(dp624
S'objective'
p625
I198
sS'query_time'
p626
F23.09863805770874
sS'comp_time'
p627
F0.46312880516052246
sS'exec_cq'
p628
I45
sS'total_cq'
p629
I51
sa(dp630
g625
I2
sg626
F0.014675140380859375
sg627
F0.03416800498962402
sg628
I27
sg629
I27
sa(dp631
g625
I36
sg626
F0.0024619102478027344
sg627
F0.0073032379150390625
sg628
I13
sg629
I13
sa(dp632
g625
I2
sg626
F0.0015230178833007812
sg627
F0.005122661590576172
sg628
I6
sg629
I6
sa(dp633
g625
I17
sg626
F0.0004928112030029297
sg627
F0.0029401779174804688
sg628
I2
sg629
I2
sasS'total_cqs'
p634
I51
ssI58
(dp635
S'iters'
p636
I6
sS'meta'
p637
(lp638
(dp639
S'objective'
p640
I85071
sS'query_time'
p641
F111.72991704940796
sS'comp_time'
p642
F14.501543045043945
sS'exec_cq'
p643
I348
sS'total_cq'
p644
I486
sa(dp645
g640
I90384
sg641
F0.04204297065734863
sg642
F1.5008184909820557
sg643
I276
sg644
I414
sa(dp646
g640
I15
sg641
F0.0151519775390625
sg642
F0.08680224418640137
sg643
I25
sg644
I25
sa(dp647
g640
I15
sg641
F0.010782957077026367
sg642
F0.024851560592651367
sg643
I14
sg644
I14
sa(dp648
g640
I36
sg641
F0.006459951400756836
sg642
F0.017982959747314453
sg643
I6
sg644
I6
sa(dp649
g640
I288
sg641
F0.0032520294189453125
sg642
F0.012900829315185547
sg643
I4
sg644
I4
sasS'total_cqs'
p650
I486
ssI59
(dp651
S'iters'
p652
I2
sS'meta'
p653
(lp654
(dp655
S'objective'
p656
I6
sS'query_time'
p657
F0.051943063735961914
sS'comp_time'
p658
F0.018329858779907227
sS'exec_cq'
p659
I7
sS'total_cq'
p660
I7
sa(dp661
g656
I3
sg657
F0.00017213821411132812
sg658
F0.00113677978515625
sg659
I2
sg660
I2
sasS'total_cqs'
p662
I7
ssI60
(dp663
S'iters'
p664
I1
sS'meta'
p665
(lp666
(dp667
S'objective'
p668
I5
sS'query_time'
p669
F0.0436098575592041
sS'comp_time'
p670
F0.004935026168823242
sS'exec_cq'
p671
I3
sS'total_cq'
p672
I5
sasS'total_cqs'
p673
I5
ssI61
(dp674
S'iters'
p675
I0
sS'meta'
p676
(lp677
sS'total_cqs'
p678
I1
ssI62
(dp679
S'iters'
p680
I2
sS'meta'
p681
(lp682
(dp683
S'objective'
p684
I44
sS'query_time'
p685
F0.04706382751464844
sS'comp_time'
p686
F0.017140865325927734
sS'exec_cq'
p687
I12
sS'total_cq'
p688
I12
sa(dp689
g684
I37
sg685
F4.601478576660156e-05
sg686
F0.00020623207092285156
sg687
I9
sg688
I9
sasS'total_cqs'
p690
I12
ssI63
(dp691
S'iters'
p692
I0
sS'meta'
p693
(lp694
sS'total_cqs'
p695
I1
ssI64
(dp696
S'iters'
p697
I3
sS'meta'
p698
(lp699
(dp700
S'objective'
p701
I6
sS'query_time'
p702
F0.12975716590881348
sS'comp_time'
p703
F0.02204442024230957
sS'exec_cq'
p704
I12
sS'total_cq'
p705
I12
sa(dp706
g701
I0
sg702
F0.00020623207092285156
sg703
F0.0016715526580810547
sg704
I4
sg705
I4
sa(dp707
g701
I3
sg702
F6.4849853515625e-05
sg703
F0.0002779960632324219
sg704
I2
sg705
I2
sasS'total_cqs'
p708
I12
ssI65
(dp709
S'iters'
p710
I3
sS'meta'
p711
(lp712
(dp713
S'objective'
p714
I176
sS'query_time'
p715
F1.1579301357269287
sS'comp_time'
p716
F0.20093202590942383
sS'exec_cq'
p717
I27
sS'total_cq'
p718
I27
sa(dp719
g714
I1
sg715
F0.001332998275756836
sg716
F0.005590915679931641
sg717
I7
sg718
I7
sa(dp720
g714
I4
sg715
F0.00020313262939453125
sg716
F0.0013751983642578125
sg717
I2
sg718
I2
sasS'total_cqs'
p721
I27
ssI66
(dp722
S'iters'
p723
I0
sS'meta'
p724
(lp725
sS'total_cqs'
p726
I1
ssI67
(dp727
S'iters'
p728
I2
sS'meta'
p729
(lp730
(dp731
S'objective'
p732
I506
sS'query_time'
p733
F1.0839149951934814
sS'comp_time'
p734
F0.11901283264160156
sS'exec_cq'
p735
I35
sS'total_cq'
p736
I35
sa(dp737
g732
I8
sg733
F0.0019779205322265625
sg734
F0.011214971542358398
sg735
I2
sg736
I2
sasS'total_cqs'
p738
I35
ssI68
(dp739
S'iters'
p740
I0
sS'meta'
p741
(lp742
sS'total_cqs'
p743
I1
ssI69
(dp744
S'iters'
p745
I1
sS'meta'
p746
(lp747
(dp748
S'objective'
p749
I1224
sS'query_time'
p750
F0.166672945022583
sS'comp_time'
p751
F0.23670387268066406
sS'exec_cq'
p752
I51
sS'total_cq'
p753
I51
sasS'total_cqs'
p754
I51
ssI70
(dp755
S'iters'
p756
I1
sS'meta'
p757
(lp758
(dp759
S'objective'
p760
I9
sS'query_time'
p761
F0.0282590389251709
sS'comp_time'
p762
F0.004866361618041992
sS'exec_cq'
p763
I6
sS'total_cq'
p764
I6
sasS'total_cqs'
p765
I6
ssI71
(dp766
S'iters'
p767
I4
sS'meta'
p768
(lp769
(dp770
S'objective'
p771
I3331
sS'query_time'
p772
F0.25391101837158203
sS'comp_time'
p773
F0.44879937171936035
sS'exec_cq'
p774
I73
sS'total_cq'
p775
I85
sa(dp776
g771
I3177
sg772
F0.00030112266540527344
sg773
F0.0011048316955566406
sg774
I69
sg775
I81
sa(dp777
g771
I3031
sg772
F0.00024819374084472656
sg773
F0.0008306503295898438
sg774
I66
sg775
I78
sa(dp778
g771
I18
sg772
F0.002691030502319336
sg773
F0.0028820037841796875
sg774
I3
sg775
I3
sasS'total_cqs'
p779
I85
ssI72
(dp780
S'iters'
p781
I3
sS'meta'
p782
(lp783
(dp784
S'objective'
p785
I12
sS'query_time'
p786
F0.02901005744934082
sS'comp_time'
p787
F0.0041887760162353516
sS'exec_cq'
p788
I4
sS'total_cq'
p789
I8
sa(dp790
g785
I6
sg786
F0.3086380958557129
sg787
F0.002688884735107422
sg788
I4
sg789
I6
sa(dp791
g785
I1
sg786
F6.198883056640625e-05
sg787
F0.0002319812774658203
sg788
I2
sg789
I3
sasS'total_cqs'
p792
I8
ssI73
(dp793
S'iters'
p794
I0
sS'meta'
p795
(lp796
sS'total_cqs'
p797
I1
ssI74
(dp798
S'iters'
p799
I0
sS'meta'
p800
(lp801
sS'total_cqs'
p802
I1
ssI75
(dp803
S'iters'
p804
I1
sS'meta'
p805
(lp806
(dp807
S'objective'
p808
I5
sS'query_time'
p809
F0.01178598403930664
sS'comp_time'
p810
F0.002084493637084961
sS'exec_cq'
p811
I5
sS'total_cq'
p812
I5
sasS'total_cqs'
p813
I5
ssI76
(dp814
S'iters'
p815
I1
sS'meta'
p816
(lp817
(dp818
S'objective'
p819
I1
sS'query_time'
p820
F0.014887809753417969
sS'comp_time'
p821
F0.002069711685180664
sS'exec_cq'
p822
I2
sS'total_cq'
p823
I2
sasS'total_cqs'
p824
I2
ssI77
(dp825
S'iters'
p826
I0
sS'meta'
p827
(lp828
sS'total_cqs'
p829
I1
ssI78
(dp830
S'iters'
p831
I0
sS'meta'
p832
(lp833
sS'total_cqs'
p834
I1
ssI103
(dp835
S'iters'
p836
I1
sS'meta'
p837
(lp838
(dp839
S'objective'
p840
I54
sS'query_time'
p841
F0.06458592414855957
sS'comp_time'
p842
F0.02635049819946289
sS'exec_cq'
p843
I12
sS'total_cq'
p844
I12
sasS'total_cqs'
p845
I12
ssI104
(dp846
S'iters'
p847
I2
sS'meta'
p848
(lp849
(dp850
S'objective'
p851
I2
sS'query_time'
p852
F1.475942850112915
sS'comp_time'
p853
F0.2560391426086426
sS'exec_cq'
p854
I4
sS'total_cq'
p855
I4
sa(dp856
g851
I2
sg852
F0.014558076858520508
sg853
F0.28747987747192383
sg854
I2
sg855
I2
sasS'total_cqs'
p857
I4
ssI105
(dp858
S'iters'
p859
I0
sS'meta'
p860
(lp861
sS'total_cqs'
p862
I1
ssI106
(dp863
S'iters'
p864
I1
sS'meta'
p865
(lp866
(dp867
S'objective'
p868
I2
sS'query_time'
p869
F0.01760411262512207
sS'comp_time'
p870
F0.001912832260131836
sS'exec_cq'
p871
I4
sS'total_cq'
p872
I4
sasS'total_cqs'
p873
I4
ssI107
(dp874
S'iters'
p875
I2
sS'meta'
p876
(lp877
(dp878
S'objective'
p879
I80
sS'query_time'
p880
F0.07375383377075195
sS'comp_time'
p881
F0.02419281005859375
sS'exec_cq'
p882
I16
sS'total_cq'
p883
I16
sa(dp884
g879
I4
sg880
F0.008659124374389648
sg881
F0.00048470497131347656
sg882
I3
sg883
I3
sasS'total_cqs'
p885
I16
ssI108
(dp886
S'iters'
p887
I0
sS'meta'
p888
(lp889
sS'total_cqs'
p890
I1
ss.