(dp0
I1
(dp1
S'iters'
p2
I2
sS'meta'
p3
(lp4
(dp5
S'objective'
p6
I44
sS'query_time'
p7
F0.2386009693145752
sS'comp_time'
p8
F0.018260717391967773
sS'exec_cq'
p9
I12
sS'total_cq'
p10
I12
sa(dp11
g6
I41
sg7
F5.888938903808594e-05
sg8
F0.000164031982421875
sg9
I10
sg10
I10
sasS'total_cqs'
p12
I12
ssI2
(dp13
S'iters'
p14
I5
sS'meta'
p15
(lp16
(dp17
S'objective'
p18
I280
sS'query_time'
p19
F0.13292598724365234
sS'comp_time'
p20
F0.033725738525390625
sS'exec_cq'
p21
I27
sS'total_cq'
p22
I27
sa(dp23
g18
I239
sg19
F0.00023293495178222656
sg20
F0.0009443759918212891
sg21
I24
sg22
I24
sa(dp24
g18
I234
sg19
F0.00023365020751953125
sg20
F0.000713348388671875
sg21
I21
sg22
I21
sa(dp25
g18
I211
sg19
F0.00016379356384277344
sg20
F0.0004494190216064453
sg21
I19
sg22
I19
sa(dp26
g18
I191
sg19
F0.00014519691467285156
sg20
F0.00036215782165527344
sg21
I18
sg22
I18
sasS'total_cqs'
p27
I27
ssI3
(dp28
S'iters'
p29
I4
sS'meta'
p30
(lp31
(dp32
S'objective'
p33
I538
sS'query_time'
p34
F183.36047911643982
sS'comp_time'
p35
F1.2693471908569336
sS'exec_cq'
p36
I30
sS'total_cq'
p37
I43
sa(dp38
g33
I448
sg34
F43.57767391204834
sg35
F2.2099995613098145
sg36
I31
sg37
I35
sa(dp39
g33
I463
sg34
F12.45156478881836
sg35
F0.6073918342590332
sg36
I28
sg37
I28
sa(dp40
g33
I461
sg34
F0.019512653350830078
sg35
F0.00016498565673828125
sg36
I25
sg37
I25
sasS'total_cqs'
p41
I43
ssI4
(dp42
S'iters'
p43
I2
sS'meta'
p44
(lp45
(dp46
S'objective'
p47
I28
sS'query_time'
p48
F4.878255128860474
sS'comp_time'
p49
F0.47794604301452637
sS'exec_cq'
p50
I11
sS'total_cq'
p51
I11
sa(dp52
g47
I1
sg48
F0.3049280643463135
sg49
F0.5870091915130615
sg50
I2
sg51
I2
sasS'total_cqs'
p53
I11
ssI5
(dp54
S'iters'
p55
I3
sS'meta'
p56
(lp57
(dp58
S'objective'
p59
I0
sS'query_time'
p60
F32.049890995025635
sS'comp_time'
p61
F1.3608193397521973
sS'exec_cq'
p62
I8
sS'total_cq'
p63
I8
sa(dp64
g59
I0
sg60
F0.4062199592590332
sg61
F1.1575899124145508
sg62
I4
sg63
I4
sa(dp65
g59
I5
sg60
F0.294083833694458
sg61
F1.0854170322418213
sg62
I2
sg63
I2
sasS'total_cqs'
p66
I8
ssI6
(dp67
S'iters'
p68
I4
sS'meta'
p69
(lp70
(dp71
S'objective'
p72
I43
sS'query_time'
p73
F34.69318389892578
sS'comp_time'
p74
F1.8240909576416016
sS'exec_cq'
p75
I18
sS'total_cq'
p76
I18
sa(dp77
g72
I0
sg73
F1.1237308979034424
sg74
F1.5795607566833496
sg75
I7
sg76
I7
sa(dp78
g72
I0
sg73
F0.4547731876373291
sg74
F0.8322837352752686
sg75
I3
sg76
I3
sa(dp79
g72
I14
sg73
F0.23022198677062988
sg74
F0.36606717109680176
sg75
I2
sg76
I2
sasS'total_cqs'
p80
I18
ssI7
(dp81
S'iters'
p82
I3
sS'meta'
p83
(lp84
(dp85
S'objective'
p86
I1
sS'query_time'
p87
F12.277239084243774
sS'comp_time'
p88
F1.5847532749176025
sS'exec_cq'
p89
I9
sS'total_cq'
p90
I9
sa(dp91
g86
I2
sg87
F0.09000110626220703
sg88
F0.5970368385314941
sg89
I4
sg90
I4
sa(dp92
g86
I6
sg87
F0.0036988258361816406
sg88
F0.005229949951171875
sg89
I2
sg90
I2
sasS'total_cqs'
p93
I9
ssI8
(dp94
S'iters'
p95
I3
sS'meta'
p96
(lp97
(dp98
S'objective'
p99
I224
sS'query_time'
p100
F0.13332176208496094
sS'comp_time'
p101
F0.03160715103149414
sS'exec_cq'
p102
I27
sS'total_cq'
p103
I27
sa(dp104
g99
I209
sg100
F0.00015687942504882812
sg101
F0.0005810260772705078
sg102
I22
sg103
I22
sa(dp105
g99
I211
sg100
F8.20159912109375e-05
sg101
F0.00021529197692871094
sg102
I19
sg103
I19
sasS'total_cqs'
p106
I27
ssI9
(dp107
S'iters'
p108
I3
sS'meta'
p109
(lp110
(dp111
S'objective'
p112
I6
sS'query_time'
p113
F0.047319889068603516
sS'comp_time'
p114
F0.0067255496978759766
sS'exec_cq'
p115
I7
sS'total_cq'
p116
I7
sa(dp117
g112
I1
sg113
F3.504753112792969e-05
sg114
F0.00024628639221191406
sg115
I4
sg116
I4
sa(dp118
g112
I5
sg113
F0.0026330947875976562
sg114
F0.00012373924255371094
sg115
I2
sg116
I2
sasS'total_cqs'
p119
I7
ssI10
(dp120
S'iters'
p121
I5
sS'meta'
p122
(lp123
(dp124
S'objective'
p125
I634
sS'query_time'
p126
F0.42097902297973633
sS'comp_time'
p127
F0.10261178016662598
sS'exec_cq'
p128
I51
sS'total_cq'
p129
I51
sa(dp130
g125
I466
sg126
F0.0005190372467041016
sg127
F0.003662586212158203
sg128
I37
sg129
I37
sa(dp131
g125
I17
sg126
F0.001703023910522461
sg127
F0.005074977874755859
sg128
I12
sg129
I12
sa(dp132
g125
I21
sg126
F0.00010585784912109375
sg127
F0.0006139278411865234
sg128
I7
sg129
I7
sa(dp133
g125
I1
sg126
F3.4809112548828125e-05
sg127
F0.000186920166015625
sg128
I3
sg129
I3
sasS'total_cqs'
p134
I51
ssI11
(dp135
S'iters'
p136
I5
sS'meta'
p137
(lp138
(dp139
S'objective'
p140
I860
sS'query_time'
p141
F0.5872888565063477
sS'comp_time'
p142
F0.16831707954406738
sS'exec_cq'
p143
I63
sS'total_cq'
p144
I63
sa(dp145
g140
I786
sg141
F0.0011789798736572266
sg142
F0.004743099212646484
sg143
I47
sg144
I47
sa(dp146
g140
I12
sg141
F0.009482860565185547
sg142
F0.002228975296020508
sg143
I9
sg144
I9
sa(dp147
g140
I13
sg141
F3.409385681152344e-05
sg142
F0.00023221969604492188
sg143
I4
sg144
I4
sa(dp148
g140
I20
sg141
F1.5020370483398438e-05
sg142
F9.107589721679688e-05
sg143
I2
sg144
I2
sasS'total_cqs'
p149
I63
ssI12
(dp150
S'iters'
p151
I5
sS'meta'
p152
(lp153
(dp154
S'objective'
p155
I291
sS'query_time'
p156
F0.41971826553344727
sS'comp_time'
p157
F0.11644291877746582
sS'exec_cq'
p158
I50
sS'total_cq'
p159
I50
sa(dp160
g155
I327
sg156
F0.0006830692291259766
sg157
F0.0029764175415039062
sg158
I33
sg159
I33
sa(dp161
g155
I22
sg156
F0.012266874313354492
sg157
F0.0013349056243896484
sg158
I8
sg159
I8
sa(dp162
g155
I5
sg156
F0.00014710426330566406
sg157
F0.0005290508270263672
sg158
I4
sg159
I4
sa(dp163
g155
I13
sg156
F0.0002658367156982422
sg157
F0.0003879070281982422
sg158
I2
sg159
I2
sasS'total_cqs'
p164
I50
ssI13
(dp165
S'iters'
p166
I3
sS'meta'
p167
(lp168
(dp169
S'objective'
p170
I38
sS'query_time'
p171
F0.13337182998657227
sS'comp_time'
p172
F0.0335690975189209
sS'exec_cq'
p173
I20
sS'total_cq'
p174
I20
sa(dp175
g170
I46
sg171
F4.792213439941406e-05
sg172
F0.0004241466522216797
sg173
I9
sg174
I9
sa(dp176
g170
I12
sg171
F0.014696121215820312
sg172
F0.00016927719116210938
sg173
I2
sg174
I2
sasS'total_cqs'
p177
I20
ssI14
(dp178
S'iters'
p179
I3
sS'meta'
p180
(lp181
(dp182
S'objective'
p183
I1
sS'query_time'
p184
F32.55734205245972
sS'comp_time'
p185
F0.9780325889587402
sS'exec_cq'
p186
I9
sS'total_cq'
p187
I9
sa(dp188
g183
I2
sg184
F0.27602100372314453
sg185
F0.5683577060699463
sg186
I5
sg187
I5
sa(dp189
g183
I4
sg184
F0.07377099990844727
sg185
F0.4195699691772461
sg186
I2
sg187
I2
sasS'total_cqs'
p190
I9
ssI15
(dp191
S'iters'
p192
I3
sS'meta'
p193
(lp194
(dp195
S'objective'
p196
I0
sS'query_time'
p197
F3.9755361080169678
sS'comp_time'
p198
F0.09405732154846191
sS'exec_cq'
p199
I11
sS'total_cq'
p200
I11
sa(dp201
g196
I1
sg197
F0.04237008094787598
sg198
F0.16532421112060547
sg199
I5
sg200
I5
sa(dp202
g196
I4
sg197
F0.012574911117553711
sg198
F0.02415776252746582
sg199
I2
sg200
I2
sasS'total_cqs'
p203
I11
ssI16
(dp204
S'iters'
p205
I1
sS'meta'
p206
(lp207
(dp208
S'objective'
p209
I22
sS'query_time'
p210
F0.028138160705566406
sS'comp_time'
p211
F0.004207134246826172
sS'exec_cq'
p212
I8
sS'total_cq'
p213
I8
sasS'total_cqs'
p214
I8
ssI17
(dp215
S'iters'
p216
I3
sS'meta'
p217
(lp218
(dp219
S'objective'
p220
I0
sS'query_time'
p221
F0.9046380519866943
sS'comp_time'
p222
F0.03964972496032715
sS'exec_cq'
p223
I11
sS'total_cq'
p224
I11
sa(dp225
g220
I1
sg221
F0.008489131927490234
sg222
F0.011350154876708984
sg223
I5
sg224
I5
sa(dp226
g220
I4
sg221
F0.00020194053649902344
sg222
F0.00039505958557128906
sg223
I2
sg224
I2
sasS'total_cqs'
p227
I11
ssI18
(dp228
S'iters'
p229
I2
sS'meta'
p230
(lp231
(dp232
S'objective'
p233
I34
sS'query_time'
p234
F0.20497393608093262
sS'comp_time'
p235
F0.0225222110748291
sS'exec_cq'
p236
I11
sS'total_cq'
p237
I11
sa(dp238
g233
I30
sg234
F0.00021791458129882812
sg235
F0.00040602684020996094
sg236
I7
sg237
I8
sasS'total_cqs'
p239
I11
ssI22
(dp240
S'iters'
p241
I1
sS'meta'
p242
(lp243
(dp244
S'objective'
p245
I141
sS'query_time'
p246
F0.06379508972167969
sS'comp_time'
p247
F0.032373905181884766
sS'exec_cq'
p248
I18
sS'total_cq'
p249
I18
sasS'total_cqs'
p250
I18
ssI23
(dp251
S'iters'
p252
I2
sS'meta'
p253
(lp254
(dp255
S'objective'
p256
I88
sS'query_time'
p257
F0.07096385955810547
sS'comp_time'
p258
F0.030863046646118164
sS'exec_cq'
p259
I16
sS'total_cq'
p260
I16
sa(dp261
g256
I86
sg257
F0.00012302398681640625
sg258
F0.00021719932556152344
sg259
I14
sg260
I14
sasS'total_cqs'
p262
I16
ssI26
(dp263
S'iters'
p264
I1
sS'meta'
p265
(lp266
(dp267
S'objective'
p268
I837
sS'query_time'
p269
F0.19039511680603027
sS'comp_time'
p270
F0.1029510498046875
sS'exec_cq'
p271
I42
sS'total_cq'
p272
I42
sasS'total_cqs'
p273
I42
ssI27
(dp274
S'iters'
p275
I3
sS'meta'
p276
(lp277
(dp278
S'objective'
p279
I275
sS'query_time'
p280
F21.3493230342865
sS'comp_time'
p281
F1.45566725730896
sS'exec_cq'
p282
I30
sS'total_cq'
p283
I30
sa(dp284
g279
I1
sg280
F0.3812990188598633
sg281
F1.318833351135254
sg282
I5
sg283
I5
sa(dp285
g279
I0
sg280
F0.3872041702270508
sg281
F0.8266563415527344
sg282
I3
sg283
I3
sasS'total_cqs'
p286
I30
ssI29
(dp287
S'iters'
p288
I5
sS'meta'
p289
(lp290
(dp291
S'objective'
p292
I189
sS'query_time'
p293
F26.911378145217896
sS'comp_time'
p294
F0.3409459590911865
sS'exec_cq'
p295
I35
sS'total_cq'
p296
I49
sa(dp297
g292
I8
sg293
F0.022603988647460938
sg294
F0.027603626251220703
sg295
I17
sg296
I17
sa(dp298
g292
I1
sg293
F0.020199060440063477
sg294
F0.14409661293029785
sg295
I11
sg296
I11
sa(dp299
g292
I3
sg293
F0.006330013275146484
sg294
F0.01252293586730957
sg295
I5
sg296
I5
sa(dp300
g292
I12
sg293
F0.0015912055969238281
sg294
F0.0024051666259765625
sg295
I2
sg296
I2
sasS'total_cqs'
p301
I49
ssI30
(dp302
S'iters'
p303
I1
sS'meta'
p304
(lp305
(dp306
S'objective'
p307
I1
sS'query_time'
p308
F0.7606019973754883
sS'comp_time'
p309
F0.012243270874023438
sS'exec_cq'
p310
I2
sS'total_cq'
p311
I2
sasS'total_cqs'
p312
I2
ssI32
(dp313
S'iters'
p314
I1
sS'meta'
p315
(lp316
(dp317
S'objective'
p318
I1
sS'query_time'
p319
F0.013768911361694336
sS'comp_time'
p320
F0.0021321773529052734
sS'exec_cq'
p321
I2
sS'total_cq'
p322
I2
sasS'total_cqs'
p323
I2
ssI33
(dp324
S'iters'
p325
I5
sS'meta'
p326
(lp327
(dp328
S'objective'
p329
I3314
sS'query_time'
p330
F17.271640062332153
sS'comp_time'
p331
F1.2465450763702393
sS'exec_cq'
p332
I103
sS'total_cq'
p333
I103
sa(dp334
g329
I23
sg330
F0.007536888122558594
sg331
F0.05184054374694824
sg332
I16
sg333
I16
sa(dp335
g329
I41
sg330
F0.0012111663818359375
sg331
F0.00917196273803711
sg332
I7
sg333
I7
sa(dp336
g329
I78
sg330
F0.0004138946533203125
sg331
F0.0007331371307373047
sg332
I3
sg333
I3
sa(dp337
g329
I16
sg330
F0.000286102294921875
sg331
F0.0005929470062255859
sg332
I2
sg333
I2
sasS'total_cqs'
p338
I103
ssI34
(dp339
S'iters'
p340
I1
sS'meta'
p341
(lp342
(dp343
S'objective'
p344
I1
sS'query_time'
p345
F0.015289068222045898
sS'comp_time'
p346
F0.0019512176513671875
sS'exec_cq'
p347
I2
sS'total_cq'
p348
I2
sasS'total_cqs'
p349
I2
ssI35
(dp350
S'iters'
p351
I5
sS'meta'
p352
(lp353
(dp354
S'objective'
p355
I1493
sS'query_time'
p356
F70.65003275871277
sS'comp_time'
p357
F2.7775018215179443
sS'exec_cq'
p358
I70
sS'total_cq'
p359
I70
sa(dp360
g355
I8
sg356
F0.0048809051513671875
sg357
F0.011649847030639648
sg358
I16
sg359
I16
sa(dp361
g355
I6
sg356
F0.0023589134216308594
sg357
F0.009409904479980469
sg358
I10
sg359
I10
sa(dp362
g355
I17
sg356
F0.0020279884338378906
sg357
F0.0053060054779052734
sg358
I6
sg359
I6
sa(dp363
g355
I52
sg356
F0.0003750324249267578
sg357
F0.0007643699645996094
sg358
I2
sg359
I2
sasS'total_cqs'
p364
I70
ssI36
(dp365
S'iters'
p366
I3
sS'meta'
p367
(lp368
(dp369
S'objective'
p370
I359
sS'query_time'
p371
F0.8625528812408447
sS'comp_time'
p372
F0.09708881378173828
sS'exec_cq'
p373
I33
sS'total_cq'
p374
I33
sa(dp375
g370
I336
sg371
F0.00801706314086914
sg372
F0.015805959701538086
sg373
I29
sg374
I29
sa(dp376
g370
I346
sg371
F0.0014591217041015625
sg372
F0.0017747879028320312
sg373
I24
sg374
I25
sasS'total_cqs'
p377
I33
ssI37
(dp378
S'iters'
p379
I1
sS'meta'
p380
(lp381
(dp382
S'objective'
p383
I1
sS'query_time'
p384
F0.019387006759643555
sS'comp_time'
p385
F0.0026760101318359375
sS'exec_cq'
p386
I2
sS'total_cq'
p387
I2
sasS'total_cqs'
p388
I2
ssI38
(dp389
S'iters'
p390
I2
sS'meta'
p391
(lp392
(dp393
S'objective'
p394
I0
sS'query_time'
p395
F0.02824115753173828
sS'comp_time'
p396
F0.0030896663665771484
sS'exec_cq'
p397
I4
sS'total_cq'
p398
I4
sa(dp399
g394
I3
sg395
F9.512901306152344e-05
sg396
F0.00023698806762695312
sg397
I2
sg398
I2
sasS'total_cqs'
p400
I4
ssI39
(dp401
S'iters'
p402
I2
sS'meta'
p403
(lp404
(dp405
S'objective'
p406
I718
sS'query_time'
p407
F0.17694520950317383
sS'comp_time'
p408
F0.0790259838104248
sS'exec_cq'
p409
I44
sS'total_cq'
p410
I44
sa(dp411
g406
I786
sg407
F0.0004050731658935547
sg408
F0.0009541511535644531
sg409
I37
sg410
I37
sasS'total_cqs'
p412
I44
ssI40
(dp413
S'iters'
p414
I1
sS'meta'
p415
(lp416
(dp417
S'objective'
p418
I14
sS'query_time'
p419
F0.03327178955078125
sS'comp_time'
p420
F0.005669832229614258
sS'exec_cq'
p421
I7
sS'total_cq'
p422
I7
sasS'total_cqs'
p423
I7
ssI41
(dp424
S'iters'
p425
I2
sS'meta'
p426
(lp427
(dp428
S'objective'
p429
I56
sS'query_time'
p430
F0.07567811012268066
sS'comp_time'
p431
F0.01574993133544922
sS'exec_cq'
p432
I12
sS'total_cq'
p433
I12
sa(dp434
g429
I47
sg430
F8.416175842285156e-05
sg431
F0.00011897087097167969
sg432
I11
sg433
I11
sasS'total_cqs'
p435
I12
ssI42
(dp436
S'iters'
p437
I2
sS'meta'
p438
(lp439
(dp440
S'objective'
p441
I779
sS'query_time'
p442
F0.10809803009033203
sS'comp_time'
p443
F0.14807343482971191
sS'exec_cq'
p444
I41
sS'total_cq'
p445
I41
sa(dp446
g441
I756
sg442
F0.00018143653869628906
sg443
F0.00026106834411621094
sg444
I40
sg445
I40
sasS'total_cqs'
p447
I41
ssI43
(dp448
S'iters'
p449
I1
sS'meta'
p450
(lp451
(dp452
S'objective'
p453
I14
sS'query_time'
p454
F0.02434706687927246
sS'comp_time'
p455
F0.005698204040527344
sS'exec_cq'
p456
I7
sS'total_cq'
p457
I7
sasS'total_cqs'
p458
I7
ssI44
(dp459
S'iters'
p460
I4
sS'meta'
p461
(lp462
(dp463
S'objective'
p464
I814
sS'query_time'
p465
F0.13804292678833008
sS'comp_time'
p466
F0.17782211303710938
sS'exec_cq'
p467
I47
sS'total_cq'
p468
I47
sa(dp469
g464
I889
sg465
F0.0003590583801269531
sg466
F0.0012860298156738281
sg467
I40
sg468
I40
sa(dp470
g464
I35
sg465
F0.0016279220581054688
sg466
F0.0016183853149414062
sg467
I3
sg468
I3
sa(dp471
g464
I36
sg465
F3.0040740966796875e-05
sg466
F0.00011014938354492188
sg467
I2
sg468
I2
sasS'total_cqs'
p472
I47
ssI46
(dp473
S'iters'
p474
I1
sS'meta'
p475
(lp476
(dp477
S'objective'
p478
I9
sS'query_time'
p479
F0.01904010772705078
sS'comp_time'
p480
F0.0025403499603271484
sS'exec_cq'
p481
I6
sS'total_cq'
p482
I6
sasS'total_cqs'
p483
I6
ssI47
(dp484
S'iters'
p485
I1
sS'meta'
p486
(lp487
(dp488
S'objective'
p489
I1
sS'query_time'
p490
F0.009723186492919922
sS'comp_time'
p491
F0.0010645389556884766
sS'exec_cq'
p492
I2
sS'total_cq'
p493
I2
sasS'total_cqs'
p494
I2
ssI50
(dp495
S'iters'
p496
I1
sS'meta'
p497
(lp498
(dp499
S'objective'
p500
I5
sS'query_time'
p501
F0.12665390968322754
sS'comp_time'
p502
F0.0023047924041748047
sS'exec_cq'
p503
I5
sS'total_cq'
p504
I5
sasS'total_cqs'
p505
I5
ssI51
(dp506
S'iters'
p507
I1
sS'meta'
p508
(lp509
(dp510
S'objective'
p511
I1
sS'query_time'
p512
F0.009602069854736328
sS'comp_time'
p513
F0.0009260177612304688
sS'exec_cq'
p514
I2
sS'total_cq'
p515
I2
sasS'total_cqs'
p516
I2
ssI52
(dp517
S'iters'
p518
I1
sS'meta'
p519
(lp520
(dp521
S'objective'
p522
I1
sS'query_time'
p523
F0.013743877410888672
sS'comp_time'
p524
F0.0011172294616699219
sS'exec_cq'
p525
I2
sS'total_cq'
p526
I2
sasS'total_cqs'
p527
I2
ssI53
(dp528
S'iters'
p529
I1
sS'meta'
p530
(lp531
(dp532
S'objective'
p533
I2
sS'query_time'
p534
F0.01933598518371582
sS'comp_time'
p535
F0.0025081634521484375
sS'exec_cq'
p536
I4
sS'total_cq'
p537
I4
sasS'total_cqs'
p538
I4
ssI54
(dp539
S'iters'
p540
I2
sS'meta'
p541
(lp542
(dp543
S'objective'
p544
I0
sS'query_time'
p545
F0.013202905654907227
sS'comp_time'
p546
F0.002513885498046875
sS'exec_cq'
p547
I3
sS'total_cq'
p548
I3
sa(dp549
g544
I1
sg545
F4.792213439941406e-05
sg546
F0.00014710426330566406
sg547
I2
sg548
I2
sasS'total_cqs'
p550
I3
ssI55
(dp551
S'iters'
p552
I4
sS'meta'
p553
(lp554
(dp555
S'objective'
p556
I4657
sS'query_time'
p557
F2.313302993774414
sS'comp_time'
p558
F0.6307151317596436
sS'exec_cq'
p559
I109
sS'total_cq'
p560
I109
sa(dp561
g556
I3
sg557
F0.010007143020629883
sg558
F0.028911828994750977
sg559
I10
sg560
I10
sa(dp562
g556
I17
sg557
F0.00704503059387207
sg558
F0.010867834091186523
sg559
I5
sg560
I5
sa(dp563
g556
I8
sg557
F0.0002789497375488281
sg558
F0.0005083084106445312
sg559
I2
sg560
I2
sasS'total_cqs'
p564
I109
ssI56
(dp565
S'iters'
p566
I5
sS'meta'
p567
(lp568
(dp569
S'objective'
p570
I1640
sS'query_time'
p571
F1.4432079792022705
sS'comp_time'
p572
F0.2261970043182373
sS'exec_cq'
p573
I67
sS'total_cq'
p574
I76
sa(dp575
g570
I9
sg571
F0.18791604042053223
sg572
F0.10374712944030762
sg573
I16
sg574
I16
sa(dp576
g570
I6
sg571
F0.0032210350036621094
sg572
F0.008728742599487305
sg573
I8
sg574
I8
sa(dp577
g570
I36
sg571
F0.0009579658508300781
sg572
F0.001657247543334961
sg573
I3
sg574
I3
sa(dp578
g570
I18
sg571
F0.00018596649169921875
sg572
F0.00042629241943359375
sg573
I2
sg574
I2
sasS'total_cqs'
p579
I76
ssI57
(dp580
S'iters'
p581
I5
sS'meta'
p582
(lp583
(dp584
S'objective'
p585
I30
sS'query_time'
p586
F23.747001886367798
sS'comp_time'
p587
F0.2863168716430664
sS'exec_cq'
p588
I45
sS'total_cq'
p589
I51
sa(dp590
g585
I0
sg586
F0.01518392562866211
sg587
F0.023441553115844727
sg588
I27
sg589
I27
sa(dp591
g585
I4
sg586
F0.013135910034179688
sg587
F0.18813490867614746
sg588
I12
sg589
I12
sa(dp592
g585
I2
sg586
F0.0045070648193359375
sg587
F0.008685588836669922
sg588
I6
sg589
I6
sa(dp593
g585
I1
sg586
F0.0006930828094482422
sg587
F0.0009009838104248047
sg588
I2
sg589
I2
sasS'total_cqs'
p594
I51
ssI58
(dp595
S'iters'
p596
I6
sS'meta'
p597
(lp598
(dp599
S'objective'
p600
I86469
sS'query_time'
p601
F329.4876079559326
sS'comp_time'
p602
F25.60704803466797
sS'exec_cq'
p603
I486
sS'total_cq'
p604
I486
sa(dp605
g600
I88133
sg601
F5.707885980606079
sg602
F8.900007247924805
sg603
I414
sg604
I414
sa(dp606
g600
I60
sg601
F0.015377044677734375
sg602
F0.22148895263671875
sg603
I28
sg604
I28
sa(dp607
g600
I174
sg601
F0.00861501693725586
sg602
F0.25844264030456543
sg603
I13
sg604
I13
sa(dp608
g600
I74
sg601
F0.005015850067138672
sg602
F0.01676774024963379
sg603
I6
sg604
I6
sa(dp609
g600
I161
sg601
F0.0018639564514160156
sg602
F0.0025947093963623047
sg603
I3
sg604
I3
sasS'total_cqs'
p610
I486
ssI59
(dp611
S'iters'
p612
I2
sS'meta'
p613
(lp614
(dp615
S'objective'
p616
I2
sS'query_time'
p617
F0.050666093826293945
sS'comp_time'
p618
F0.004556894302368164
sS'exec_cq'
p619
I7
sS'total_cq'
p620
I7
sa(dp621
g616
I1
sg617
F0.0001590251922607422
sg618
F0.0003440380096435547
sg619
I2
sg620
I2
sasS'total_cqs'
p622
I7
ssI60
(dp623
S'iters'
p624
I1
sS'meta'
p625
(lp626
(dp627
S'objective'
p628
I5
sS'query_time'
p629
F0.01794266700744629
sS'comp_time'
p630
F0.0036377906799316406
sS'exec_cq'
p631
I4
sS'total_cq'
p632
I5
sasS'total_cqs'
p633
I5
ssI62
(dp634
S'iters'
p635
I3
sS'meta'
p636
(lp637
(dp638
S'objective'
p639
I54
sS'query_time'
p640
F0.032327890396118164
sS'comp_time'
p641
F0.02359795570373535
sS'exec_cq'
p642
I12
sS'total_cq'
p643
I12
sa(dp644
g639
I44
sg640
F5.602836608886719e-05
sg641
F0.00017642974853515625
sg642
I9
sg643
I9
sa(dp645
g639
I35
sg640
F3.314018249511719e-05
sg641
F7.534027099609375e-05
sg642
I8
sg643
I8
sasS'total_cqs'
p646
I12
ssI64
(dp647
S'iters'
p648
I3
sS'meta'
p649
(lp650
(dp651
S'objective'
p652
I14
sS'query_time'
p653
F0.11920380592346191
sS'comp_time'
p654
F0.018631458282470703
sS'exec_cq'
p655
I12
sS'total_cq'
p656
I12
sa(dp657
g652
I4
sg653
F0.00010704994201660156
sg654
F0.0007021427154541016
sg655
I4
sg656
I4
sa(dp658
g652
I6
sg653
F4.410743713378906e-05
sg654
F0.00011706352233886719
sg655
I2
sg656
I2
sasS'total_cqs'
p659
I12
ssI65
(dp660
S'iters'
p661
I3
sS'meta'
p662
(lp663
(dp664
S'objective'
p665
I190
sS'query_time'
p666
F0.815026044845581
sS'comp_time'
p667
F0.216078519821167
sS'exec_cq'
p668
I27
sS'total_cq'
p669
I27
sa(dp670
g665
I0
sg666
F0.001775979995727539
sg667
F0.0034449100494384766
sg668
I7
sg669
I7
sa(dp671
g665
I3
sg666
F0.0002789497375488281
sg667
F0.0004911422729492188
sg668
I3
sg669
I3
sasS'total_cqs'
p672
I27
ssI67
(dp673
S'iters'
p674
I2
sS'meta'
p675
(lp676
(dp677
S'objective'
p678
I554
sS'query_time'
p679
F0.9043941497802734
sS'comp_time'
p680
F0.14110207557678223
sS'exec_cq'
p681
I35
sS'total_cq'
p682
I35
sa(dp683
g678
I18
sg679
F0.001013040542602539
sg680
F0.0023920536041259766
sg681
I2
sg682
I2
sasS'total_cqs'
p684
I35
ssI69
(dp685
S'iters'
p686
I1
sS'meta'
p687
(lp688
(dp689
S'objective'
p690
I1246
sS'query_time'
p691
F0.16777300834655762
sS'comp_time'
p692
F0.12930011749267578
sS'exec_cq'
p693
I51
sS'total_cq'
p694
I51
sasS'total_cqs'
p695
I51
ssI70
(dp696
S'iters'
p697
I1
sS'meta'
p698
(lp699
(dp700
S'objective'
p701
I9
sS'query_time'
p702
F0.01703810691833496
sS'comp_time'
p703
F0.002505064010620117
sS'exec_cq'
p704
I6
sS'total_cq'
p705
I6
sasS'total_cqs'
p706
I6
ssI71
(dp707
S'iters'
p708
I5
sS'meta'
p709
(lp710
(dp711
S'objective'
p712
I3357
sS'query_time'
p713
F0.29753589630126953
sS'comp_time'
p714
F0.2944622039794922
sS'exec_cq'
p715
I85
sS'total_cq'
p716
I85
sa(dp717
g712
I3248
sg713
F0.000514984130859375
sg714
F0.0018467903137207031
sg715
I81
sg716
I81
sa(dp718
g712
I3125
sg713
F0.0004458427429199219
sg714
F0.0013720989227294922
sg715
I78
sg716
I78
sa(dp719
g712
I3023
sg713
F0.0003800392150878906
sg714
F0.0012218952178955078
sg715
I76
sg716
I76
sa(dp720
g712
I16
sg713
F0.003615856170654297
sg714
F0.004309892654418945
sg715
I3
sg716
I3
sasS'total_cqs'
p721
I85
ssI72
(dp722
S'iters'
p723
I3
sS'meta'
p724
(lp725
(dp726
S'objective'
p727
I6
sS'query_time'
p728
F0.25900697708129883
sS'comp_time'
p729
F0.0038177967071533203
sS'exec_cq'
p730
I4
sS'total_cq'
p731
I8
sa(dp732
g727
I5
sg728
F0.02890610694885254
sg729
F0.00021886825561523438
sg730
I4
sg731
I5
sa(dp733
g727
I1
sg728
F2.8133392333984375e-05
sg729
F5.125999450683594e-05
sg730
I2
sg731
I3
sasS'total_cqs'
p734
I8
ssI75
(dp735
S'iters'
p736
I1
sS'meta'
p737
(lp738
(dp739
S'objective'
p740
I5
sS'query_time'
p741
F0.010425090789794922
sS'comp_time'
p742
F0.0016682147979736328
sS'exec_cq'
p743
I5
sS'total_cq'
p744
I5
sasS'total_cqs'
p745
I5
ssI76
(dp746
S'iters'
p747
I1
sS'meta'
p748
(lp749
(dp750
S'objective'
p751
I1
sS'query_time'
p752
F0.011903047561645508
sS'comp_time'
p753
F0.000865936279296875
sS'exec_cq'
p754
I2
sS'total_cq'
p755
I2
sasS'total_cqs'
p756
I2
ssI103
(dp757
S'iters'
p758
I1
sS'meta'
p759
(lp760
(dp761
S'objective'
p762
I58
sS'query_time'
p763
F0.06924200057983398
sS'comp_time'
p764
F0.015867233276367188
sS'exec_cq'
p765
I12
sS'total_cq'
p766
I12
sasS'total_cqs'
p767
I12
ssI104
(dp768
S'iters'
p769
I2
sS'meta'
p770
(lp771
(dp772
S'objective'
p773
I0
sS'query_time'
p774
F1.4056329727172852
sS'comp_time'
p775
F0.24807381629943848
sS'exec_cq'
p776
I4
sS'total_cq'
p777
I4
sa(dp778
g773
I3
sg774
F0.01555013656616211
sg775
F0.026661157608032227
sg776
I2
sg777
I2
sasS'total_cqs'
p779
I4
ssI106
(dp780
S'iters'
p781
I1
sS'meta'
p782
(lp783
(dp784
S'objective'
p785
I2
sS'query_time'
p786
F0.020429134368896484
sS'comp_time'
p787
F0.003184080123901367
sS'exec_cq'
p788
I4
sS'total_cq'
p789
I4
sasS'total_cqs'
p790
I4
ssI107
(dp791
S'iters'
p792
I2
sS'meta'
p793
(lp794
(dp795
S'objective'
p796
I62
sS'query_time'
p797
F0.07373809814453125
sS'comp_time'
p798
F0.024605989456176758
sS'exec_cq'
p799
I16
sS'total_cq'
p800
I16
sa(dp801
g796
I11
sg797
F0.005669832229614258
sg798
F0.00037384033203125
sg799
I3
sg800
I3
sasS'total_cqs'
p802
I16
ss.