(dp0
I1
(dp1
S'iters'
p2
I4
sS'meta'
p3
(lp4
(dp5
S'objective'
p6
I56
sS'query_time'
p7
F0.04578685760498047
sS'comp_time'
p8
F0.016991138458251953
sS'exec_cq'
p9
I12
sS'total_cq'
p10
I12
sa(dp11
g6
I47
sg7
F0.0001010894775390625
sg8
F0.0003161430358886719
sg9
I11
sg10
I11
sa(dp12
g6
I49
sg7
F7.104873657226562e-05
sg8
F0.0002281665802001953
sg9
I9
sg10
I9
sa(dp13
g6
I51
sg7
F4.601478576660156e-05
sg8
F0.00017404556274414062
sg9
I8
sg10
I8
sasS'total_cqs'
p14
I12
ssI2
(dp15
S'iters'
p16
I8
sS'meta'
p17
(lp18
(dp19
S'objective'
p20
I252
sS'query_time'
p21
F0.10324406623840332
sS'comp_time'
p22
F0.035531044006347656
sS'exec_cq'
p23
I13
sS'total_cq'
p24
I27
sa(dp25
g20
I235
sg21
F0.14442920684814453
sg22
F0.0006899833679199219
sg23
I14
sg24
I23
sa(dp26
g20
I241
sg21
F0.00010013580322265625
sg22
F0.0005471706390380859
sg23
I11
sg24
I20
sa(dp27
g20
I218
sg21
F6.29425048828125e-05
sg22
F0.0002682209014892578
sg23
I9
sg24
I18
sa(dp28
g20
I212
sg21
F9.703636169433594e-05
sg22
F0.0004818439483642578
sg23
I9
sg24
I17
sa(dp29
g20
I217
sg21
F5.0067901611328125e-05
sg22
F0.0002560615539550781
sg23
I7
sg24
I15
sa(dp30
g20
I207
sg21
F3.600120544433594e-05
sg22
F0.00011229515075683594
sg23
I8
sg24
I14
sa(dp31
g20
I212
sg21
F2.8133392333984375e-05
sg22
F8.916854858398438e-05
sg23
I7
sg24
I13
sasS'total_cqs'
p32
I27
ssI3
(dp33
S'iters'
p34
I4
sS'meta'
p35
(lp36
(dp37
S'objective'
p38
I116
sS'query_time'
p39
F75.27636194229126
sS'comp_time'
p40
F0.57025146484375
sS'exec_cq'
p41
I16
sS'total_cq'
p42
I43
sa(dp43
g38
I85
sg39
F108.05135989189148
sg40
F2.187666177749634
sg41
I14
sg42
I27
sa(dp44
g38
I41
sg39
F41.64980697631836
sg40
F0.6175847053527832
sg41
I9
sg42
I13
sa(dp45
g38
I89
sg39
F10.917060852050781
sg40
F0.001312255859375
sg41
I6
sg42
I6
sasS'total_cqs'
p46
I43
ssI4
(dp47
S'iters'
p48
I2
sS'meta'
p49
(lp50
(dp51
S'objective'
p52
I46
sS'query_time'
p53
F4.810436010360718
sS'comp_time'
p54
F0.8601691722869873
sS'exec_cq'
p55
I11
sS'total_cq'
p56
I11
sa(dp57
g52
I8
sg53
F0.19747209548950195
sg54
F0.8325636386871338
sg55
I2
sg56
I2
sasS'total_cqs'
p58
I11
ssI5
(dp59
S'iters'
p60
I3
sS'meta'
p61
(lp62
(dp63
S'objective'
p64
I0
sS'query_time'
p65
F35.203413009643555
sS'comp_time'
p66
F3.711095094680786
sS'exec_cq'
p67
I8
sS'total_cq'
p68
I8
sa(dp69
g64
I0
sg65
F0.014625072479248047
sg66
F0.06995797157287598
sg67
I5
sg68
I5
sa(dp70
g64
I7
sg65
F0.005467891693115234
sg66
F0.030604839324951172
sg67
I2
sg68
I2
sasS'total_cqs'
p71
I8
ssI6
(dp72
S'iters'
p73
I5
sS'meta'
p74
(lp75
(dp76
S'objective'
p77
I55
sS'query_time'
p78
F38.13744592666626
sS'comp_time'
p79
F3.5261290073394775
sS'exec_cq'
p80
I18
sS'total_cq'
p81
I18
sa(dp82
g77
I0
sg78
F0.6097261905670166
sg79
F3.4412288665771484
sg80
I7
sg81
I7
sa(dp83
g77
I7
sg78
F0.4195120334625244
sg79
F2.0111546516418457
sg80
I4
sg81
I4
sa(dp84
g77
I3
sg78
F0.38167786598205566
sg79
F1.972522497177124
sg80
I3
sg81
I3
sa(dp85
g77
I2
sg78
F0.27007198333740234
sg79
F1.2283802032470703
sg80
I2
sg81
I2
sasS'total_cqs'
p86
I18
ssI7
(dp87
S'iters'
p88
I3
sS'meta'
p89
(lp90
(dp91
S'objective'
p92
I1
sS'query_time'
p93
F12.531464099884033
sS'comp_time'
p94
F1.7557740211486816
sS'exec_cq'
p95
I9
sS'total_cq'
p96
I9
sa(dp97
g92
I2
sg93
F0.004870891571044922
sg94
F0.026551485061645508
sg95
I4
sg96
I4
sa(dp98
g92
I8
sg93
F0.004071950912475586
sg94
F0.17931675910949707
sg95
I2
sg96
I2
sasS'total_cqs'
p99
I9
ssI8
(dp100
S'iters'
p101
I5
sS'meta'
p102
(lp103
(dp104
S'objective'
p105
I214
sS'query_time'
p106
F0.07353997230529785
sS'comp_time'
p107
F0.03515505790710449
sS'exec_cq'
p108
I14
sS'total_cq'
p109
I27
sa(dp110
g105
I200
sg106
F0.0529940128326416
sg107
F0.0006072521209716797
sg108
I13
sg109
I22
sa(dp111
g105
I208
sg106
F3.981590270996094e-05
sg107
F0.00015592575073242188
sg108
I9
sg109
I19
sa(dp112
g105
I214
sg106
F6.699562072753906e-05
sg107
F0.00011301040649414062
sg108
I18
sg109
I18
sa(dp113
g105
I219
sg106
F6.794929504394531e-05
sg107
F0.00010180473327636719
sg108
I17
sg109
I17
sasS'total_cqs'
p114
I27
ssI9
(dp115
S'iters'
p116
I3
sS'meta'
p117
(lp118
(dp119
S'objective'
p120
I4
sS'query_time'
p121
F0.06513500213623047
sS'comp_time'
p122
F0.004530906677246094
sS'exec_cq'
p123
I7
sS'total_cq'
p124
I7
sa(dp125
g120
I0
sg121
F2.7894973754882812e-05
sg122
F0.00019788742065429688
sg123
I4
sg124
I4
sa(dp126
g120
I6
sg121
F1.5020370483398438e-05
sg122
F7.653236389160156e-05
sg123
I2
sg124
I2
sasS'total_cqs'
p127
I7
ssI10
(dp128
S'iters'
p129
I7
sS'meta'
p130
(lp131
(dp132
S'objective'
p133
I716
sS'query_time'
p134
F0.17543482780456543
sS'comp_time'
p135
F0.09619331359863281
sS'exec_cq'
p136
I28
sS'total_cq'
p137
I51
sa(dp138
g133
I377
sg134
F0.13776183128356934
sg135
F0.0015611648559570312
sg136
I23
sg137
I37
sa(dp139
g133
I365
sg134
F0.000225067138671875
sg135
F0.0011639595031738281
sg136
I14
sg137
I25
sa(dp140
g133
I400
sg134
F4.291534423828125e-05
sg135
F0.00024390220642089844
sg136
I10
sg137
I21
sa(dp141
g133
I320
sg134
F6.794929504394531e-05
sg135
F0.0002262592315673828
sg136
I11
sg137
I19
sa(dp142
g133
I25
sg134
F0.0014030933380126953
sg135
F0.0003561973571777344
sg136
I3
sg137
I3
sa(dp143
g133
I47
sg134
F1.621246337890625e-05
sg135
F8.058547973632812e-05
sg136
I2
sg137
I2
sasS'total_cqs'
p144
I51
ssI11
(dp145
S'iters'
p146
I6
sS'meta'
p147
(lp148
(dp149
S'objective'
p150
I1196
sS'query_time'
p151
F0.5391550064086914
sS'comp_time'
p152
F0.16362595558166504
sS'exec_cq'
p153
I63
sS'total_cq'
p154
I63
sa(dp155
g150
I960
sg151
F0.001394033432006836
sg152
F0.006844043731689453
sg153
I47
sg154
I47
sa(dp156
g150
I9
sg151
F0.002401113510131836
sg152
F0.0028870105743408203
sg153
I9
sg154
I9
sa(dp157
g150
I7
sg151
F0.00016689300537109375
sg152
F0.001149892807006836
sg153
I5
sg154
I5
sa(dp158
g150
I6
sg151
F2.5987625122070312e-05
sg152
F0.0001418590545654297
sg153
I3
sg154
I3
sa(dp159
g150
I42
sg151
F1.4781951904296875e-05
sg152
F7.581710815429688e-05
sg153
I2
sg154
I2
sasS'total_cqs'
p160
I63
ssI12
(dp161
S'iters'
p162
I5
sS'meta'
p163
(lp164
(dp165
S'objective'
p166
I451
sS'query_time'
p167
F0.16862702369689941
sS'comp_time'
p168
F0.07811689376831055
sS'exec_cq'
p169
I28
sS'total_cq'
p170
I50
sa(dp171
g166
I423
sg167
F0.1589949131011963
sg168
F0.0029363632202148438
sg169
I22
sg170
I33
sa(dp172
g166
I523
sg167
F0.00012302398681640625
sg168
F0.0005729198455810547
sg169
I15
sg170
I26
sa(dp173
g166
I46
sg167
F0.0015530586242675781
sg168
F0.0004038810729980469
sg169
I4
sg170
I4
sa(dp174
g166
I5
sg167
F1.5974044799804688e-05
sg168
F9.393692016601562e-05
sg169
I2
sg170
I2
sasS'total_cqs'
p175
I50
ssI13
(dp176
S'iters'
p177
I5
sS'meta'
p178
(lp179
(dp180
S'objective'
p181
I2
sS'query_time'
p182
F0.13569116592407227
sS'comp_time'
p183
F0.03099226951599121
sS'exec_cq'
p184
I20
sS'total_cq'
p185
I20
sa(dp186
g181
I8
sg182
F0.0018219947814941406
sg183
F0.0006582736968994141
sg184
I11
sg185
I11
sa(dp187
g181
I6
sg182
F3.981590270996094e-05
sg183
F0.00021004676818847656
sg184
I6
sg185
I6
sa(dp188
g181
I5
sg182
F2.8133392333984375e-05
sg183
F0.0001239776611328125
sg184
I4
sg185
I4
sa(dp189
g181
I9
sg182
F2.6941299438476562e-05
sg183
F0.00011301040649414062
sg184
I2
sg185
I2
sasS'total_cqs'
p190
I20
ssI14
(dp191
S'iters'
p192
I4
sS'meta'
p193
(lp194
(dp195
S'objective'
p196
I1
sS'query_time'
p197
F32.622313022613525
sS'comp_time'
p198
F1.9346060752868652
sS'exec_cq'
p199
I9
sS'total_cq'
p200
I9
sa(dp201
g196
I4
sg197
F0.22275900840759277
sg198
F0.994600772857666
sg199
I5
sg200
I5
sa(dp202
g196
I1
sg197
F0.0036580562591552734
sg198
F0.020051002502441406
sg199
I3
sg200
I3
sa(dp203
g196
I2
sg197
F0.0032148361206054688
sg198
F0.020473957061767578
sg199
I2
sg200
I2
sasS'total_cqs'
p204
I9
ssI15
(dp205
S'iters'
p206
I4
sS'meta'
p207
(lp208
(dp209
S'objective'
p210
I0
sS'query_time'
p211
F3.7417209148406982
sS'comp_time'
p212
F0.34006667137145996
sS'exec_cq'
p213
I11
sS'total_cq'
p214
I11
sa(dp215
g210
I1
sg211
F0.04387497901916504
sg212
F0.33545470237731934
sg213
I5
sg214
I5
sa(dp216
g210
I1
sg211
F0.01135706901550293
sg212
F0.2563350200653076
sg213
I3
sg214
I3
sa(dp217
g210
I6
sg211
F0.001096963882446289
sg212
F0.0050089359283447266
sg213
I2
sg214
I2
sasS'total_cqs'
p218
I11
ssI16
(dp219
S'iters'
p220
I1
sS'meta'
p221
(lp222
(dp223
S'objective'
p224
I34
sS'query_time'
p225
F0.033599138259887695
sS'comp_time'
p226
F0.004590749740600586
sS'exec_cq'
p227
I8
sS'total_cq'
p228
I8
sasS'total_cqs'
p229
I8
ssI17
(dp230
S'iters'
p231
I4
sS'meta'
p232
(lp233
(dp234
S'objective'
p235
I2
sS'query_time'
p236
F0.9006009101867676
sS'comp_time'
p237
F0.04616999626159668
sS'exec_cq'
p238
I11
sS'total_cq'
p239
I11
sa(dp240
g235
I0
sg236
F0.00814509391784668
sg237
F0.02982616424560547
sg238
I6
sg239
I6
sa(dp241
g235
I0
sg236
F0.0003199577331542969
sg237
F0.001535177230834961
sg238
I3
sg239
I3
sa(dp242
g235
I6
sg236
F0.0002181529998779297
sg237
F0.0016350746154785156
sg238
I2
sg239
I2
sasS'total_cqs'
p243
I11
ssI18
(dp244
S'iters'
p245
I2
sS'meta'
p246
(lp247
(dp248
S'objective'
p249
I60
sS'query_time'
p250
F0.21510910987854004
sS'comp_time'
p251
F0.020808935165405273
sS'exec_cq'
p252
I11
sS'total_cq'
p253
I11
sa(dp254
g249
I61
sg250
F0.0008537769317626953
sg251
F0.0009961128234863281
sg252
I10
sg253
I10
sasS'total_cqs'
p255
I11
ssI19
(dp256
S'iters'
p257
I0
sS'meta'
p258
(lp259
sS'total_cqs'
p260
I1
ssI20
(dp261
S'iters'
p262
I0
sS'meta'
p263
(lp264
sS'total_cqs'
p265
I1
ssI21
(dp266
S'iters'
p267
I0
sS'meta'
p268
(lp269
sS'total_cqs'
p270
I1
ssI22
(dp271
S'iters'
p272
I1
sS'meta'
p273
(lp274
(dp275
S'objective'
p276
I169
sS'query_time'
p277
F0.05867886543273926
sS'comp_time'
p278
F0.0315699577331543
sS'exec_cq'
p279
I18
sS'total_cq'
p280
I18
sasS'total_cqs'
p281
I18
ssI23
(dp282
S'iters'
p283
I3
sS'meta'
p284
(lp285
(dp286
S'objective'
p287
I126
sS'query_time'
p288
F0.029838085174560547
sS'comp_time'
p289
F0.02397322654724121
sS'exec_cq'
p290
I8
sS'total_cq'
p291
I16
sa(dp292
g287
I95
sg288
F0.022728919982910156
sg289
F0.0001900196075439453
sg290
I8
sg291
I15
sa(dp293
g287
I111
sg288
F3.409385681152344e-05
sg289
F0.00011205673217773438
sg290
I7
sg291
I13
sasS'total_cqs'
p294
I16
ssI24
(dp295
S'iters'
p296
I0
sS'meta'
p297
(lp298
sS'total_cqs'
p299
I1
ssI25
(dp300
S'iters'
p301
I0
sS'meta'
p302
(lp303
sS'total_cqs'
p304
I1
ssI26
(dp305
S'iters'
p306
I1
sS'meta'
p307
(lp308
(dp309
S'objective'
p310
I901
sS'query_time'
p311
F0.13929295539855957
sS'comp_time'
p312
F0.13756108283996582
sS'exec_cq'
p313
I42
sS'total_cq'
p314
I42
sasS'total_cqs'
p315
I42
ssI27
(dp316
S'iters'
p317
I4
sS'meta'
p318
(lp319
(dp320
S'objective'
p321
I313
sS'query_time'
p322
F23.721824884414673
sS'comp_time'
p323
F4.472998380661011
sS'exec_cq'
p324
I30
sS'total_cq'
p325
I30
sa(dp326
g321
I6
sg322
F0.5540189743041992
sg323
F4.200093984603882
sg324
I5
sg325
I5
sa(dp327
g321
I3
sg322
F0.0796351432800293
sg323
F0.8219380378723145
sg324
I3
sg325
I3
sa(dp328
g321
I14
sg322
F0.011206865310668945
sg323
F0.18092894554138184
sg324
I2
sg325
I2
sasS'total_cqs'
p329
I30
ssI28
(dp330
S'iters'
p331
I0
sS'meta'
p332
(lp333
sS'total_cqs'
p334
I1
ssI29
(dp335
S'iters'
p336
I5
sS'meta'
p337
(lp338
(dp339
S'objective'
p340
I247
sS'query_time'
p341
F29.200077056884766
sS'comp_time'
p342
F0.8080997467041016
sS'exec_cq'
p343
I35
sS'total_cq'
p344
I49
sa(dp345
g340
I39
sg341
F0.05020308494567871
sg342
F0.5183637142181396
sg343
I17
sg344
I17
sa(dp346
g340
I1
sg341
F0.007230043411254883
sg342
F0.037459373474121094
sg343
I7
sg344
I7
sa(dp347
g340
I22
sg341
F0.007231950759887695
sg342
F0.14343714714050293
sg343
I4
sg344
I4
sa(dp348
g340
I43
sg341
F0.0010869503021240234
sg342
F0.005734920501708984
sg343
I2
sg344
I2
sasS'total_cqs'
p349
I49
ssI30
(dp350
S'iters'
p351
I1
sS'meta'
p352
(lp353
(dp354
S'objective'
p355
I1
sS'query_time'
p356
F0.7324938774108887
sS'comp_time'
p357
F0.04226994514465332
sS'exec_cq'
p358
I2
sS'total_cq'
p359
I2
sasS'total_cqs'
p360
I2
ssI31
(dp361
S'iters'
p362
I0
sS'meta'
p363
(lp364
sS'total_cqs'
p365
I1
ssI32
(dp366
S'iters'
p367
I1
sS'meta'
p368
(lp369
(dp370
S'objective'
p371
I1
sS'query_time'
p372
F0.01976609230041504
sS'comp_time'
p373
F0.0029478073120117188
sS'exec_cq'
p374
I2
sS'total_cq'
p375
I2
sasS'total_cqs'
p376
I2
ssI33
(dp377
S'iters'
p378
I6
sS'meta'
p379
(lp380
(dp381
S'objective'
p382
I4014
sS'query_time'
p383
F16.410889148712158
sS'comp_time'
p384
F1.237450122833252
sS'exec_cq'
p385
I103
sS'total_cq'
p386
I103
sa(dp387
g382
I23
sg383
F0.009279012680053711
sg384
F0.028799057006835938
sg385
I16
sg386
I16
sa(dp388
g382
I2
sg383
F0.0029299259185791016
sg384
F0.013146400451660156
sg385
I9
sg386
I9
sa(dp389
g382
I5
sg383
F0.0021338462829589844
sg384
F0.01062917709350586
sg385
I7
sg386
I7
sa(dp390
g382
I3
sg383
F0.0006508827209472656
sg384
F0.002757549285888672
sg385
I4
sg386
I4
sa(dp391
g382
I36
sg383
F0.0001881122589111328
sg384
F0.0011935234069824219
sg385
I2
sg386
I2
sasS'total_cqs'
p392
I103
ssI34
(dp393
S'iters'
p394
I1
sS'meta'
p395
(lp396
(dp397
S'objective'
p398
I1
sS'query_time'
p399
F0.018513917922973633
sS'comp_time'
p400
F0.002038717269897461
sS'exec_cq'
p401
I2
sS'total_cq'
p402
I2
sasS'total_cqs'
p403
I2
ssI35
(dp404
S'iters'
p405
I6
sS'meta'
p406
(lp407
(dp408
S'objective'
p409
I1435
sS'query_time'
p410
F20.82306694984436
sS'comp_time'
p411
F0.29280781745910645
sS'exec_cq'
p412
I50
sS'total_cq'
p413
I70
sa(dp414
g409
I3
sg410
F0.26958799362182617
sg411
F0.02169966697692871
sg412
I16
sg413
I16
sa(dp415
g409
I3
sg410
F0.001725912094116211
sg411
F0.006586790084838867
sg412
I7
sg413
I7
sa(dp416
g409
I1
sg410
F0.0014941692352294922
sg411
F0.005895137786865234
sg412
I4
sg413
I4
sa(dp417
g409
I5
sg410
F0.001065969467163086
sg411
F0.005555629730224609
sg412
I3
sg413
I3
sa(dp418
g409
I28
sg410
F0.0003268718719482422
sg411
F0.002199888229370117
sg412
I2
sg413
I2
sasS'total_cqs'
p419
I70
ssI36
(dp420
S'iters'
p421
I1
sS'meta'
p422
(lp423
(dp424
S'objective'
p425
I559
sS'query_time'
p426
F0.6160497665405273
sS'comp_time'
p427
F0.06418704986572266
sS'exec_cq'
p428
I28
sS'total_cq'
p429
I33
sasS'total_cqs'
p430
I33
ssI37
(dp431
S'iters'
p432
I1
sS'meta'
p433
(lp434
(dp435
S'objective'
p436
I1
sS'query_time'
p437
F0.00913691520690918
sS'comp_time'
p438
F0.001631021499633789
sS'exec_cq'
p439
I2
sS'total_cq'
p440
I2
sasS'total_cqs'
p441
I2
ssI38
(dp442
S'iters'
p443
I2
sS'meta'
p444
(lp445
(dp446
S'objective'
p447
I0
sS'query_time'
p448
F0.0345458984375
sS'comp_time'
p449
F0.00284576416015625
sS'exec_cq'
p450
I4
sS'total_cq'
p451
I4
sa(dp452
g447
I3
sg448
F7.700920104980469e-05
sg449
F0.00040721893310546875
sg450
I2
sg451
I2
sasS'total_cqs'
p453
I4
ssI39
(dp454
S'iters'
p455
I2
sS'meta'
p456
(lp457
(dp458
S'objective'
p459
I650
sS'query_time'
p460
F0.14485907554626465
sS'comp_time'
p461
F0.14947986602783203
sS'exec_cq'
p462
I44
sS'total_cq'
p463
I44
sa(dp464
g459
I818
sg460
F0.0003070831298828125
sg461
F0.001817464828491211
sg462
I37
sg463
I37
sasS'total_cqs'
p465
I44
ssI40
(dp466
S'iters'
p467
I1
sS'meta'
p468
(lp469
(dp470
S'objective'
p471
I26
sS'query_time'
p472
F0.0315091609954834
sS'comp_time'
p473
F0.0062255859375
sS'exec_cq'
p474
I7
sS'total_cq'
p475
I7
sasS'total_cqs'
p476
I7
ssI41
(dp477
S'iters'
p478
I2
sS'meta'
p479
(lp480
(dp481
S'objective'
p482
I64
sS'query_time'
p483
F0.0748128890991211
sS'comp_time'
p484
F0.02154994010925293
sS'exec_cq'
p485
I12
sS'total_cq'
p486
I12
sa(dp487
g482
I69
sg483
F6.508827209472656e-05
sg484
F0.0001976490020751953
sg485
I11
sg486
I11
sasS'total_cqs'
p488
I12
ssI42
(dp489
S'iters'
p490
I2
sS'meta'
p491
(lp492
(dp493
S'objective'
p494
I809
sS'query_time'
p495
F0.05428290367126465
sS'comp_time'
p496
F0.1701369285583496
sS'exec_cq'
p497
I21
sS'total_cq'
p498
I41
sa(dp499
g494
I833
sg495
F7.200241088867188e-05
sg496
F0.00016188621520996094
sg497
I20
sg498
I40
sasS'total_cqs'
p500
I41
ssI43
(dp501
S'iters'
p502
I1
sS'meta'
p503
(lp504
(dp505
S'objective'
p506
I26
sS'query_time'
p507
F0.027818918228149414
sS'comp_time'
p508
F0.0064051151275634766
sS'exec_cq'
p509
I7
sS'total_cq'
p510
I7
sasS'total_cqs'
p511
I7
ssI44
(dp512
S'iters'
p513
I4
sS'meta'
p514
(lp515
(dp516
S'objective'
p517
I816
sS'query_time'
p518
F0.1556258201599121
sS'comp_time'
p519
F0.0980689525604248
sS'exec_cq'
p520
I47
sS'total_cq'
p521
I47
sa(dp522
g517
I852
sg518
F0.0002880096435546875
sg519
F0.0015609264373779297
sg520
I40
sg521
I40
sa(dp523
g517
I10
sg518
F0.001971006393432617
sg519
F0.0018572807312011719
sg520
I3
sg521
I3
sa(dp524
g517
I23
sg518
F2.4080276489257812e-05
sg519
F0.0001323223114013672
sg520
I2
sg521
I2
sasS'total_cqs'
p525
I47
ssI45
(dp526
S'iters'
p527
I0
sS'meta'
p528
(lp529
sS'total_cqs'
p530
I1
ssI46
(dp531
S'iters'
p532
I3
sS'meta'
p533
(lp534
(dp535
S'objective'
p536
I9
sS'query_time'
p537
F0.021279096603393555
sS'comp_time'
p538
F0.003959178924560547
sS'exec_cq'
p539
I4
sS'total_cq'
p540
I6
sa(dp541
g536
I7
sg537
F4.601478576660156e-05
sg538
F0.0002808570861816406
sg539
I3
sg540
I5
sa(dp542
g536
I9
sg537
F0.005721092224121094
sg538
F0.00010275840759277344
sg539
I4
sg540
I4
sasS'total_cqs'
p543
I6
ssI47
(dp544
S'iters'
p545
I1
sS'meta'
p546
(lp547
(dp548
S'objective'
p549
I1
sS'query_time'
p550
F0.008515119552612305
sS'comp_time'
p551
F0.001153707504272461
sS'exec_cq'
p552
I2
sS'total_cq'
p553
I2
sasS'total_cqs'
p554
I2
ssI48
(dp555
S'iters'
p556
I0
sS'meta'
p557
(lp558
sS'total_cqs'
p559
I1
ssI49
(dp560
S'iters'
p561
I0
sS'meta'
p562
(lp563
sS'total_cqs'
p564
I1
ssI50
(dp565
S'iters'
p566
I4
sS'meta'
p567
(lp568
(dp569
S'objective'
p570
I5
sS'query_time'
p571
F0.11872696876525879
sS'comp_time'
p572
F0.0021848678588867188
sS'exec_cq'
p573
I5
sS'total_cq'
p574
I5
sa(dp575
g570
I2
sg571
F3.504753112792969e-05
sg572
F0.00014901161193847656
sg573
I4
sg574
I4
sa(dp576
g570
I0
sg571
F2.6941299438476562e-05
sg572
F0.00012612342834472656
sg573
I3
sg574
I3
sa(dp577
g570
I1
sg571
F2.288818359375e-05
sg572
F0.00010919570922851562
sg573
I2
sg574
I2
sasS'total_cqs'
p578
I5
ssI51
(dp579
S'iters'
p580
I1
sS'meta'
p581
(lp582
(dp583
S'objective'
p584
I1
sS'query_time'
p585
F0.00843191146850586
sS'comp_time'
p586
F0.000988006591796875
sS'exec_cq'
p587
I2
sS'total_cq'
p588
I2
sasS'total_cqs'
p589
I2
ssI52
(dp590
S'iters'
p591
I1
sS'meta'
p592
(lp593
(dp594
S'objective'
p595
I1
sS'query_time'
p596
F0.009335994720458984
sS'comp_time'
p597
F0.0016019344329833984
sS'exec_cq'
p598
I2
sS'total_cq'
p599
I2
sasS'total_cqs'
p600
I2
ssI53
(dp601
S'iters'
p602
I2
sS'meta'
p603
(lp604
(dp605
S'objective'
p606
I0
sS'query_time'
p607
F0.10075998306274414
sS'comp_time'
p608
F0.003331899642944336
sS'exec_cq'
p609
I4
sS'total_cq'
p610
I4
sa(dp611
g606
I3
sg607
F9.608268737792969e-05
sg608
F0.0005922317504882812
sg609
I2
sg610
I2
sasS'total_cqs'
p612
I4
ssI54
(dp613
S'iters'
p614
I2
sS'meta'
p615
(lp616
(dp617
S'objective'
p618
I0
sS'query_time'
p619
F0.014685869216918945
sS'comp_time'
p620
F0.003742694854736328
sS'exec_cq'
p621
I3
sS'total_cq'
p622
I3
sa(dp623
g618
I1
sg619
F4.38690185546875e-05
sg620
F0.0002789497375488281
sg621
I2
sg622
I2
sasS'total_cqs'
p624
I3
ssI55
(dp625
S'iters'
p626
I9
sS'meta'
p627
(lp628
(dp629
S'objective'
p630
I4729
sS'query_time'
p631
F2.719853162765503
sS'comp_time'
p632
F0.5519382953643799
sS'exec_cq'
p633
I109
sS'total_cq'
p634
I109
sa(dp635
g630
I4560
sg631
F0.001088857650756836
sg632
F0.0050160884857177734
sg633
I97
sg634
I97
sa(dp636
g630
I4549
sg631
F0.0004699230194091797
sg632
F0.0023186206817626953
sg633
I91
sg634
I91
sa(dp637
g630
I4367
sg631
F0.0004379749298095703
sg632
F0.0018572807312011719
sg633
I87
sg634
I87
sa(dp638
g630
I4241
sg631
F0.00039887428283691406
sg632
F0.0012850761413574219
sg633
I85
sg634
I85
sa(dp639
g630
I4291
sg631
F0.00033783912658691406
sg632
F0.0011432170867919922
sg633
I83
sg634
I83
sa(dp640
g630
I4244
sg631
F0.0003609657287597656
sg632
F0.0009949207305908203
sg633
I82
sg634
I82
sa(dp641
g630
I4223
sg631
F0.00035190582275390625
sg632
F0.0009829998016357422
sg633
I80
sg634
I80
sa(dp642
g630
I4257
sg631
F0.00030803680419921875
sg632
F0.0007588863372802734
sg633
I79
sg634
I79
sasS'total_cqs'
p643
I109
ssI56
(dp644
S'iters'
p645
I7
sS'meta'
p646
(lp647
(dp648
S'objective'
p649
I1964
sS'query_time'
p650
F1.6326401233673096
sS'comp_time'
p651
F0.5071258544921875
sS'exec_cq'
p652
I67
sS'total_cq'
p653
I76
sa(dp654
g649
I21
sg650
F0.009619951248168945
sg651
F0.02238631248474121
sg652
I16
sg653
I16
sa(dp655
g649
I15
sg650
F0.0030028820037841797
sg651
F0.0364680290222168
sg652
I10
sg653
I10
sa(dp656
g649
I6
sg650
F0.0014619827270507812
sg651
F0.00753474235534668
sg652
I6
sg653
I6
sa(dp657
g649
I0
sg650
F0.001260995864868164
sg651
F0.007689952850341797
sg652
I5
sg653
I5
sa(dp658
g649
I0
sg650
F0.0011551380157470703
sg651
F0.007100105285644531
sg652
I3
sg653
I3
sa(dp659
g649
I12
sg650
F0.0010218620300292969
sg651
F0.005253314971923828
sg652
I2
sg653
I2
sasS'total_cqs'
p660
I76
ssI57
(dp661
S'iters'
p662
I7
sS'meta'
p663
(lp664
(dp665
S'objective'
p666
I48
sS'query_time'
p667
F23.816553831100464
sS'comp_time'
p668
F0.6256570816040039
sS'exec_cq'
p669
I45
sS'total_cq'
p670
I51
sa(dp671
g666
I99
sg667
F0.017555952072143555
sg668
F0.03490638732910156
sg669
I27
sg670
I27
sa(dp672
g666
I29
sg667
F0.016809940338134766
sg668
F0.03380703926086426
sg669
I18
sg670
I18
sa(dp673
g666
I4
sg667
F0.007445096969604492
sg668
F0.016679048538208008
sg669
I8
sg670
I8
sa(dp674
g666
I3
sg667
F0.0035719871520996094
sg668
F0.01423192024230957
sg669
I5
sg670
I5
sa(dp675
g666
I15
sg667
F0.0019061565399169922
sg668
F0.012305736541748047
sg669
I3
sg670
I3
sa(dp676
g666
I12
sg667
F0.001394033432006836
sg668
F0.007804155349731445
sg669
I2
sg670
I2
sasS'total_cqs'
p677
I51
ssI58
(dp678
S'iters'
p679
I8
sS'meta'
p680
(lp681
(dp682
S'objective'
p683
I84727
sS'query_time'
p684
F115.72056007385254
sS'comp_time'
p685
F15.632912158966064
sS'exec_cq'
p686
I348
sS'total_cq'
p687
I486
sa(dp688
g683
I88634
sg684
F0.03589320182800293
sg685
F1.3150029182434082
sg686
I276
sg687
I414
sa(dp689
g683
I44
sg684
F0.001096963882446289
sg685
F0.05249834060668945
sg686
I20
sg687
I20
sa(dp690
g683
I201
sg684
F0.0007250308990478516
sg685
F0.0028617382049560547
sg686
I12
sg687
I12
sa(dp691
g683
I71
sg684
F0.00023603439331054688
sg685
F0.0015079975128173828
sg686
I6
sg687
I6
sa(dp692
g683
I30
sg684
F0.00018405914306640625
sg685
F0.0013496875762939453
sg686
I4
sg687
I4
sa(dp693
g683
I118
sg684
F0.00015592575073242188
sg685
F0.0010292530059814453
sg686
I3
sg687
I3
sa(dp694
g683
I128
sg684
F0.00013899803161621094
sg685
F0.0011072158813476562
sg686
I2
sg687
I2
sasS'total_cqs'
p695
I486
ssI59
(dp696
S'iters'
p697
I2
sS'meta'
p698
(lp699
(dp700
S'objective'
p701
I16
sS'query_time'
p702
F0.12242007255554199
sS'comp_time'
p703
F0.02560710906982422
sS'exec_cq'
p704
I7
sS'total_cq'
p705
I7
sa(dp706
g701
I4
sg702
F0.00017213821411132812
sg703
F0.0011470317840576172
sg704
I2
sg705
I2
sasS'total_cqs'
p707
I7
ssI60
(dp708
S'iters'
p709
I4
sS'meta'
p710
(lp711
(dp712
S'objective'
p713
I7
sS'query_time'
p714
F0.011389017105102539
sS'comp_time'
p715
F0.0035321712493896484
sS'exec_cq'
p716
I2
sS'total_cq'
p717
I5
sa(dp718
g713
I1
sg714
F0.005640983581542969
sg715
F0.00018525123596191406
sg716
I3
sg717
I4
sa(dp719
g713
I0
sg714
F7.104873657226562e-05
sg715
F0.00038313865661621094
sg716
I2
sg717
I3
sa(dp720
g713
I1
sg714
F9.059906005859375e-06
sg715
F6.318092346191406e-05
sg716
I1
sg717
I2
sasS'total_cqs'
p721
I5
ssI61
(dp722
S'iters'
p723
I0
sS'meta'
p724
(lp725
sS'total_cqs'
p726
I1
ssI62
(dp727
S'iters'
p728
I3
sS'meta'
p729
(lp730
(dp731
S'objective'
p732
I46
sS'query_time'
p733
F0.03373408317565918
sS'comp_time'
p734
F0.018002986907958984
sS'exec_cq'
p735
I12
sS'total_cq'
p736
I12
sa(dp737
g732
I44
sg733
F5.412101745605469e-05
sg734
F0.00019097328186035156
sg735
I9
sg736
I9
sa(dp738
g732
I51
sg733
F3.504753112792969e-05
sg734
F9.918212890625e-05
sg735
I8
sg736
I8
sasS'total_cqs'
p739
I12
ssI63
(dp740
S'iters'
p741
I0
sS'meta'
p742
(lp743
sS'total_cqs'
p744
I1
ssI64
(dp745
S'iters'
p746
I5
sS'meta'
p747
(lp748
(dp749
S'objective'
p750
I34
sS'query_time'
p751
F0.12423300743103027
sS'comp_time'
p752
F0.02176523208618164
sS'exec_cq'
p753
I12
sS'total_cq'
p754
I12
sa(dp755
g750
I18
sg751
F0.0005488395690917969
sg752
F0.0031244754791259766
sg753
I10
sg754
I10
sa(dp756
g750
I3
sg751
F9.679794311523438e-05
sg752
F0.0005931854248046875
sg753
I4
sg754
I4
sa(dp757
g750
I2
sg751
F7.605552673339844e-05
sg752
F0.0004105567932128906
sg753
I3
sg754
I3
sa(dp758
g750
I1
sg751
F4.100799560546875e-05
sg752
F0.00020885467529296875
sg753
I2
sg754
I2
sasS'total_cqs'
p759
I12
ssI65
(dp760
S'iters'
p761
I5
sS'meta'
p762
(lp763
(dp764
S'objective'
p765
I224
sS'query_time'
p766
F0.8096201419830322
sS'comp_time'
p767
F0.41530585289001465
sS'exec_cq'
p768
I27
sS'total_cq'
p769
I27
sa(dp770
g765
I9
sg766
F0.002201080322265625
sg767
F0.007776021957397461
sg768
I7
sg769
I7
sa(dp771
g765
I0
sg766
F0.0009021759033203125
sg767
F0.0058040618896484375
sg768
I4
sg769
I4
sa(dp772
g765
I9
sg766
F0.0007200241088867188
sg767
F0.005087137222290039
sg768
I3
sg769
I3
sa(dp773
g765
I2
sg766
F0.0003409385681152344
sg767
F0.0021059513092041016
sg768
I2
sg769
I2
sasS'total_cqs'
p774
I27
ssI66
(dp775
S'iters'
p776
I0
sS'meta'
p777
(lp778
sS'total_cqs'
p779
I1
ssI67
(dp780
S'iters'
p781
I2
sS'meta'
p782
(lp783
(dp784
S'objective'
p785
I606
sS'query_time'
p786
F1.2024340629577637
sS'comp_time'
p787
F0.15863442420959473
sS'exec_cq'
p788
I35
sS'total_cq'
p789
I35
sa(dp790
g785
I10
sg786
F0.002173185348510742
sg787
F0.009486198425292969
sg788
I2
sg789
I2
sasS'total_cqs'
p791
I35
ssI68
(dp792
S'iters'
p793
I0
sS'meta'
p794
(lp795
sS'total_cqs'
p796
I1
ssI69
(dp797
S'iters'
p798
I1
sS'meta'
p799
(lp800
(dp801
S'objective'
p802
I1324
sS'query_time'
p803
F0.1808009147644043
sS'comp_time'
p804
F0.21032428741455078
sS'exec_cq'
p805
I51
sS'total_cq'
p806
I51
sasS'total_cqs'
p807
I51
ssI70
(dp808
S'iters'
p809
I4
sS'meta'
p810
(lp811
(dp812
S'objective'
p813
I9
sS'query_time'
p814
F0.031005144119262695
sS'comp_time'
p815
F0.00371551513671875
sS'exec_cq'
p816
I6
sS'total_cq'
p817
I6
sa(dp818
g813
I5
sg814
F6.008148193359375e-05
sg815
F0.00029206275939941406
sg816
I5
sg817
I5
sa(dp819
g813
I4
sg814
F5.1021575927734375e-05
sg815
F0.0002601146697998047
sg816
I4
sg817
I4
sa(dp820
g813
I5
sg814
F4.506111145019531e-05
sg815
F0.00023508071899414062
sg816
I3
sg817
I3
sasS'total_cqs'
p821
I6
ssI71
(dp822
S'iters'
p823
I5
sS'meta'
p824
(lp825
(dp826
S'objective'
p827
I3245
sS'query_time'
p828
F0.3200809955596924
sS'comp_time'
p829
F0.22826337814331055
sS'exec_cq'
p830
I73
sS'total_cq'
p831
I85
sa(dp832
g827
I3096
sg828
F0.0003979206085205078
sg829
F0.0016345977783203125
sg830
I69
sg831
I81
sa(dp833
g827
I2965
sg828
F0.0002281665802001953
sg829
F0.0010402202606201172
sg830
I65
sg831
I77
sa(dp834
g827
I8
sg828
F0.0022459030151367188
sg829
F0.0032625198364257812
sg830
I3
sg831
I3
sa(dp835
g827
I71
sg828
F0.0036470890045166016
sg829
F0.00025200843811035156
sg830
I2
sg831
I2
sasS'total_cqs'
p836
I85
ssI72
(dp837
S'iters'
p838
I3
sS'meta'
p839
(lp840
(dp841
S'objective'
p842
I2
sS'query_time'
p843
F0.354755163192749
sS'comp_time'
p844
F0.007528781890869141
sS'exec_cq'
p845
I4
sS'total_cq'
p846
I8
sa(dp847
g842
I5
sg843
F0.026264190673828125
sg844
F0.00038433074951171875
sg845
I4
sg846
I5
sa(dp848
g842
I4
sg843
F1.7881393432617188e-05
sg844
F9.274482727050781e-05
sg845
I2
sg846
I3
sasS'total_cqs'
p849
I8
ssI73
(dp850
S'iters'
p851
I0
sS'meta'
p852
(lp853
sS'total_cqs'
p854
I1
ssI74
(dp855
S'iters'
p856
I0
sS'meta'
p857
(lp858
sS'total_cqs'
p859
I1
ssI75
(dp860
S'iters'
p861
I4
sS'meta'
p862
(lp863
(dp864
S'objective'
p865
I5
sS'query_time'
p866
F0.01627802848815918
sS'comp_time'
p867
F0.0026187896728515625
sS'exec_cq'
p868
I5
sS'total_cq'
p869
I5
sa(dp870
g865
I2
sg866
F2.3126602172851562e-05
sg867
F0.00010919570922851562
sg868
I4
sg869
I4
sa(dp871
g865
I0
sg866
F1.811981201171875e-05
sg867
F7.82012939453125e-05
sg868
I3
sg869
I3
sa(dp872
g865
I1
sg866
F1.5020370483398438e-05
sg867
F7.319450378417969e-05
sg868
I2
sg869
I2
sasS'total_cqs'
p873
I5
ssI76
(dp874
S'iters'
p875
I1
sS'meta'
p876
(lp877
(dp878
S'objective'
p879
I1
sS'query_time'
p880
F0.020308971405029297
sS'comp_time'
p881
F0.002112150192260742
sS'exec_cq'
p882
I2
sS'total_cq'
p883
I2
sasS'total_cqs'
p884
I2
ssI77
(dp885
S'iters'
p886
I0
sS'meta'
p887
(lp888
sS'total_cqs'
p889
I1
ssI78
(dp890
S'iters'
p891
I0
sS'meta'
p892
(lp893
sS'total_cqs'
p894
I1
ssI103
(dp895
S'iters'
p896
I2
sS'meta'
p897
(lp898
(dp899
S'objective'
p900
I70
sS'query_time'
p901
F0.05809617042541504
sS'comp_time'
p902
F0.02583789825439453
sS'exec_cq'
p903
I12
sS'total_cq'
p904
I12
sa(dp905
g900
I72
sg901
F6.413459777832031e-05
sg902
F0.000202178955078125
sg903
I11
sg904
I11
sasS'total_cqs'
p906
I12
ssI104
(dp907
S'iters'
p908
I2
sS'meta'
p909
(lp910
(dp911
S'objective'
p912
I0
sS'query_time'
p913
F1.3037919998168945
sS'comp_time'
p914
F0.17183685302734375
sS'exec_cq'
p915
I4
sS'total_cq'
p916
I4
sa(dp917
g912
I3
sg913
F0.01129007339477539
sg914
F0.1547229290008545
sg915
I2
sg916
I2
sasS'total_cqs'
p918
I4
ssI105
(dp919
S'iters'
p920
I0
sS'meta'
p921
(lp922
sS'total_cqs'
p923
I1
ssI106
(dp924
S'iters'
p925
I1
sS'meta'
p926
(lp927
(dp928
S'objective'
p929
I8
sS'query_time'
p930
F0.02171778678894043
sS'comp_time'
p931
F0.0018079280853271484
sS'exec_cq'
p932
I4
sS'total_cq'
p933
I4
sasS'total_cqs'
p934
I4
ssI107
(dp935
S'iters'
p936
I2
sS'meta'
p937
(lp938
(dp939
S'objective'
p940
I114
sS'query_time'
p941
F0.07342886924743652
sS'comp_time'
p942
F0.03793621063232422
sS'exec_cq'
p943
I16
sS'total_cq'
p944
I16
sa(dp945
g940
I9
sg941
F0.004697084426879883
sg942
F0.0003657341003417969
sg943
I3
sg944
I3
sasS'total_cqs'
p946
I16
ssI108
(dp947
S'iters'
p948
I0
sS'meta'
p949
(lp950
sS'total_cqs'
p951
I1
ss.