(dp0
I1
(dp1
S'iters'
p2
I1
sS'meta'
p3
(lp4
(dp5
S'objective'
p6
I54
sS'query_time'
p7
F0.03720498085021973
sS'comp_time'
p8
F0.024290084838867188
sS'exec_cq'
p9
I12
sS'total_cq'
p10
I12
sasS'total_cqs'
p11
I12
ssI2
(dp12
S'iters'
p13
I5
sS'meta'
p14
(lp15
(dp16
S'objective'
p17
I272
sS'query_time'
p18
F0.06037712097167969
sS'comp_time'
p19
F0.0328218936920166
sS'exec_cq'
p20
I14
sS'total_cq'
p21
I27
sa(dp22
g17
I229
sg18
F0.05707693099975586
sg19
F0.0006392002105712891
sg20
I13
sg21
I24
sa(dp23
g17
I221
sg18
F9.107589721679688e-05
sg19
F0.0003921985626220703
sg20
I11
sg21
I20
sa(dp24
g17
I207
sg18
F6.079673767089844e-05
sg19
F0.00027680397033691406
sg20
I9
sg21
I18
sa(dp25
g17
I174
sg18
F6.079673767089844e-05
sg19
F0.00025010108947753906
sg20
I9
sg21
I16
sasS'total_cqs'
p26
I27
ssI3
(dp27
S'iters'
p28
I4
sS'meta'
p29
(lp30
(dp31
S'objective'
p32
I196
sS'query_time'
p33
F77.25109100341797
sS'comp_time'
p34
F0.6040332317352295
sS'exec_cq'
p35
I16
sS'total_cq'
p36
I43
sa(dp37
g32
I85
sg33
F109.67936110496521
sg34
F2.5028650760650635
sg35
I14
sg36
I27
sa(dp38
g32
I12
sg33
F41.946330070495605
sg34
F0.6765916347503662
sg35
I9
sg36
I13
sa(dp39
g32
I84
sg33
F11.019659042358398
sg34
F0.002972126007080078
sg35
I6
sg36
I6
sasS'total_cqs'
p40
I43
ssI4
(dp41
S'iters'
p42
I2
sS'meta'
p43
(lp44
(dp45
S'objective'
p46
I32
sS'query_time'
p47
F5.072537899017334
sS'comp_time'
p48
F0.8923172950744629
sS'exec_cq'
p49
I11
sS'total_cq'
p50
I11
sa(dp51
g46
I5
sg47
F0.2372121810913086
sg48
F0.8621609210968018
sg49
I2
sg50
I2
sasS'total_cqs'
p52
I11
ssI5
(dp53
S'iters'
p54
I2
sS'meta'
p55
(lp56
(dp57
S'objective'
p58
I0
sS'query_time'
p59
F34.72284007072449
sS'comp_time'
p60
F3.7044448852539062
sS'exec_cq'
p61
I8
sS'total_cq'
p62
I8
sa(dp63
g58
I2
sg59
F0.6442060470581055
sg60
F4.217726945877075
sg61
I3
sg62
I3
sasS'total_cqs'
p64
I8
ssI6
(dp65
S'iters'
p66
I3
sS'meta'
p67
(lp68
(dp69
S'objective'
p70
I15
sS'query_time'
p71
F37.42028594017029
sS'comp_time'
p72
F3.5668141841888428
sS'exec_cq'
p73
I18
sS'total_cq'
p74
I18
sa(dp75
g70
I0
sg71
F0.6556451320648193
sg72
F3.462883949279785
sg73
I7
sg74
I7
sa(dp76
g70
I3
sg71
F0.4744889736175537
sg72
F2.832575798034668
sg73
I3
sg74
I3
sasS'total_cqs'
p77
I18
ssI7
(dp78
S'iters'
p79
I3
sS'meta'
p80
(lp81
(dp82
S'objective'
p83
I1
sS'query_time'
p84
F12.107771158218384
sS'comp_time'
p85
F1.9146397113800049
sS'exec_cq'
p86
I9
sS'total_cq'
p87
I9
sa(dp88
g83
I1
sg84
F0.17222380638122559
sg85
F0.15056467056274414
sg86
I4
sg87
I4
sa(dp89
g83
I6
sg84
F0.02127385139465332
sg85
F0.25513696670532227
sg86
I2
sg87
I2
sasS'total_cqs'
p90
I9
ssI8
(dp91
S'iters'
p92
I3
sS'meta'
p93
(lp94
(dp95
S'objective'
p96
I254
sS'query_time'
p97
F0.05519294738769531
sS'comp_time'
p98
F0.0289461612701416
sS'exec_cq'
p99
I13
sS'total_cq'
p100
I27
sa(dp101
g96
I212
sg97
F0.07537698745727539
sg98
F0.0007674694061279297
sg99
I14
sg100
I24
sa(dp102
g96
I210
sg97
F6.198883056640625e-05
sg98
F0.00023794174194335938
sg99
I10
sg100
I19
sasS'total_cqs'
p103
I27
ssI9
(dp104
S'iters'
p105
I2
sS'meta'
p106
(lp107
(dp108
S'objective'
p109
I4
sS'query_time'
p110
F0.04971909523010254
sS'comp_time'
p111
F0.004565238952636719
sS'exec_cq'
p112
I7
sS'total_cq'
p113
I7
sa(dp114
g109
I2
sg110
F2.4080276489257812e-05
sg111
F0.0002799034118652344
sg112
I2
sg113
I2
sasS'total_cqs'
p115
I7
ssI10
(dp116
S'iters'
p117
I5
sS'meta'
p118
(lp119
(dp120
S'objective'
p121
I532
sS'query_time'
p122
F0.1717228889465332
sS'comp_time'
p123
F0.09642338752746582
sS'exec_cq'
p124
I28
sS'total_cq'
p125
I51
sa(dp126
g121
I347
sg122
F0.14306402206420898
sg123
F0.0017161369323730469
sg124
I23
sg125
I37
sa(dp127
g121
I388
sg122
F0.00023698806762695312
sg123
F0.0012807846069335938
sg124
I14
sg125
I25
sa(dp128
g121
I385
sg122
F6.604194641113281e-05
sg123
F0.0003368854522705078
sg124
I11
sg125
I21
sa(dp129
g121
I38
sg122
F0.0010809898376464844
sg123
F0.0004229545593261719
sg124
I3
sg125
I3
sasS'total_cqs'
p130
I51
ssI11
(dp131
S'iters'
p132
I4
sS'meta'
p133
(lp134
(dp135
S'objective'
p136
I840
sS'query_time'
p137
F0.5642669200897217
sS'comp_time'
p138
F0.17555999755859375
sS'exec_cq'
p139
I63
sS'total_cq'
p140
I63
sa(dp141
g136
I806
sg137
F0.0017888545989990234
sg138
F0.008448600769042969
sg139
I47
sg140
I47
sa(dp142
g136
I25
sg137
F0.0027778148651123047
sg138
F0.003195047378540039
sg139
I9
sg140
I9
sa(dp143
g136
I17
sg137
F0.00018310546875
sg138
F0.0012292861938476562
sg139
I5
sg140
I5
sasS'total_cqs'
p144
I63
ssI12
(dp145
S'iters'
p146
I4
sS'meta'
p147
(lp148
(dp149
S'objective'
p150
I373
sS'query_time'
p151
F0.22237920761108398
sS'comp_time'
p152
F0.07972288131713867
sS'exec_cq'
p153
I28
sS'total_cq'
p154
I50
sa(dp155
g150
I540
sg151
F0.15323901176452637
sg152
F0.0033082962036132812
sg153
I22
sg154
I33
sa(dp156
g150
I2
sg151
F0.0019779205322265625
sg152
F0.0020294189453125
sg153
I8
sg154
I8
sa(dp157
g150
I28
sg151
F0.0001800060272216797
sg152
F0.0011632442474365234
sg153
I4
sg154
I4
sasS'total_cqs'
p158
I50
ssI13
(dp159
S'iters'
p160
I3
sS'meta'
p161
(lp162
(dp163
S'objective'
p164
I26
sS'query_time'
p165
F0.13265609741210938
sS'comp_time'
p166
F0.027638912200927734
sS'exec_cq'
p167
I20
sS'total_cq'
p168
I20
sa(dp169
g164
I42
sg165
F4.982948303222656e-05
sg166
F0.00039505958557128906
sg167
I9
sg168
I9
sa(dp170
g164
I15
sg165
F0.001104116439819336
sg166
F0.00014209747314453125
sg167
I2
sg168
I2
sasS'total_cqs'
p171
I20
ssI14
(dp172
S'iters'
p173
I2
sS'meta'
p174
(lp175
(dp176
S'objective'
p177
I1
sS'query_time'
p178
F33.37096095085144
sS'comp_time'
p179
F1.857935905456543
sS'exec_cq'
p180
I9
sS'total_cq'
p181
I9
sa(dp182
g177
I4
sg178
F0.32312798500061035
sg179
F1.1679589748382568
sg180
I3
sg181
I3
sasS'total_cqs'
p183
I9
ssI15
(dp184
S'iters'
p185
I3
sS'meta'
p186
(lp187
(dp188
S'objective'
p189
I0
sS'query_time'
p190
F3.7500078678131104
sS'comp_time'
p191
F0.2980821132659912
sS'exec_cq'
p192
I11
sS'total_cq'
p193
I11
sa(dp194
g189
I1
sg190
F0.04435992240905762
sg191
F0.2735443115234375
sg192
I4
sg193
I4
sa(dp195
g189
I6
sg190
F0.012422800064086914
sg191
F0.16585016250610352
sg192
I2
sg193
I2
sasS'total_cqs'
p196
I11
ssI16
(dp197
S'iters'
p198
I1
sS'meta'
p199
(lp200
(dp201
S'objective'
p202
I20
sS'query_time'
p203
F0.03177785873413086
sS'comp_time'
p204
F0.004519224166870117
sS'exec_cq'
p205
I8
sS'total_cq'
p206
I8
sasS'total_cqs'
p207
I8
ssI17
(dp208
S'iters'
p209
I3
sS'meta'
p210
(lp211
(dp212
S'objective'
p213
I0
sS'query_time'
p214
F1.1144499778747559
sS'comp_time'
p215
F0.050916433334350586
sS'exec_cq'
p216
I11
sS'total_cq'
p217
I11
sa(dp218
g213
I1
sg214
F0.0003020763397216797
sg215
F0.0017757415771484375
sg216
I6
sg217
I6
sa(dp219
g213
I6
sg214
F0.00020194053649902344
sg215
F0.0013399124145507812
sg216
I2
sg217
I2
sasS'total_cqs'
p220
I11
ssI18
(dp221
S'iters'
p222
I1
sS'meta'
p223
(lp224
(dp225
S'objective'
p226
I44
sS'query_time'
p227
F0.23247909545898438
sS'comp_time'
p228
F0.0204470157623291
sS'exec_cq'
p229
I10
sS'total_cq'
p230
I11
sasS'total_cqs'
p231
I11
ssI19
(dp232
S'iters'
p233
I0
sS'meta'
p234
(lp235
sS'total_cqs'
p236
I1
ssI20
(dp237
S'iters'
p238
I0
sS'meta'
p239
(lp240
sS'total_cqs'
p241
I1
ssI21
(dp242
S'iters'
p243
I0
sS'meta'
p244
(lp245
sS'total_cqs'
p246
I1
ssI22
(dp247
S'iters'
p248
I1
sS'meta'
p249
(lp250
(dp251
S'objective'
p252
I135
sS'query_time'
p253
F0.0803060531616211
sS'comp_time'
p254
F0.03386878967285156
sS'exec_cq'
p255
I18
sS'total_cq'
p256
I18
sasS'total_cqs'
p257
I18
ssI23
(dp258
S'iters'
p259
I1
sS'meta'
p260
(lp261
(dp262
S'objective'
p263
I104
sS'query_time'
p264
F0.03571486473083496
sS'comp_time'
p265
F0.02531123161315918
sS'exec_cq'
p266
I8
sS'total_cq'
p267
I16
sasS'total_cqs'
p268
I16
ssI24
(dp269
S'iters'
p270
I0
sS'meta'
p271
(lp272
sS'total_cqs'
p273
I1
ssI25
(dp274
S'iters'
p275
I0
sS'meta'
p276
(lp277
sS'total_cqs'
p278
I1
ssI26
(dp279
S'iters'
p280
I1
sS'meta'
p281
(lp282
(dp283
S'objective'
p284
I819
sS'query_time'
p285
F0.131425142288208
sS'comp_time'
p286
F0.12111306190490723
sS'exec_cq'
p287
I42
sS'total_cq'
p288
I42
sasS'total_cqs'
p289
I42
ssI27
(dp290
S'iters'
p291
I3
sS'meta'
p292
(lp293
(dp294
S'objective'
p295
I287
sS'query_time'
p296
F21.881157159805298
sS'comp_time'
p297
F4.177353858947754
sS'exec_cq'
p298
I30
sS'total_cq'
p299
I30
sa(dp300
g295
I1
sg296
F0.6409449577331543
sg297
F4.672609329223633
sg298
I5
sg299
I5
sa(dp301
g295
I16
sg296
F0.38495612144470215
sg297
F2.3401718139648438
sg298
I2
sg299
I2
sasS'total_cqs'
p302
I30
ssI28
(dp303
S'iters'
p304
I0
sS'meta'
p305
(lp306
sS'total_cqs'
p307
I1
ssI29
(dp308
S'iters'
p309
I4
sS'meta'
p310
(lp311
(dp312
S'objective'
p313
I215
sS'query_time'
p314
F29.61174702644348
sS'comp_time'
p315
F0.7634999752044678
sS'exec_cq'
p316
I35
sS'total_cq'
p317
I49
sa(dp318
g313
I3
sg314
F0.024837970733642578
sg315
F0.18115496635437012
sg316
I17
sg317
I17
sa(dp319
g313
I0
sg314
F0.0074160099029541016
sg315
F0.0370182991027832
sg316
I7
sg317
I7
sa(dp320
g313
I29
sg314
F0.0024480819702148438
sg315
F0.016106128692626953
sg316
I3
sg317
I3
sasS'total_cqs'
p321
I49
ssI30
(dp322
S'iters'
p323
I1
sS'meta'
p324
(lp325
(dp326
S'objective'
p327
I1
sS'query_time'
p328
F0.6792869567871094
sS'comp_time'
p329
F0.05132484436035156
sS'exec_cq'
p330
I2
sS'total_cq'
p331
I2
sasS'total_cqs'
p332
I2
ssI31
(dp333
S'iters'
p334
I0
sS'meta'
p335
(lp336
sS'total_cqs'
p337
I1
ssI32
(dp338
S'iters'
p339
I1
sS'meta'
p340
(lp341
(dp342
S'objective'
p343
I1
sS'query_time'
p344
F0.01221013069152832
sS'comp_time'
p345
F0.0034520626068115234
sS'exec_cq'
p346
I2
sS'total_cq'
p347
I2
sasS'total_cqs'
p348
I2
ssI33
(dp349
S'iters'
p350
I4
sS'meta'
p351
(lp352
(dp353
S'objective'
p354
I3682
sS'query_time'
p355
F16.156514883041382
sS'comp_time'
p356
F0.8723533153533936
sS'exec_cq'
p357
I103
sS'total_cq'
p358
I103
sa(dp359
g354
I3
sg355
F0.00787210464477539
sg356
F0.02698993682861328
sg357
I16
sg358
I16
sa(dp360
g354
I58
sg355
F0.002621173858642578
sg356
F0.012978792190551758
sg357
I7
sg358
I7
sa(dp361
g354
I33
sg355
F0.0002899169921875
sg356
F0.002025127410888672
sg357
I3
sg358
I3
sasS'total_cqs'
p362
I103
ssI34
(dp363
S'iters'
p364
I1
sS'meta'
p365
(lp366
(dp367
S'objective'
p368
I1
sS'query_time'
p369
F0.034639835357666016
sS'comp_time'
p370
F0.0015892982482910156
sS'exec_cq'
p371
I2
sS'total_cq'
p372
I2
sasS'total_cqs'
p373
I2
ssI35
(dp374
S'iters'
p375
I4
sS'meta'
p376
(lp377
(dp378
S'objective'
p379
I1157
sS'query_time'
p380
F21.383850812911987
sS'comp_time'
p381
F0.2743091583251953
sS'exec_cq'
p382
I50
sS'total_cq'
p383
I70
sa(dp384
g379
I24
sg380
F0.14235305786132812
sg381
F0.01601696014404297
sg382
I16
sg383
I16
sa(dp385
g379
I8
sg380
F0.0026650428771972656
sg381
F0.010734796524047852
sg382
I9
sg383
I9
sa(dp386
g379
I28
sg380
F0.0007560253143310547
sg381
F0.0045740604400634766
sg382
I4
sg383
I4
sasS'total_cqs'
p387
I70
ssI36
(dp388
S'iters'
p389
I2
sS'meta'
p390
(lp391
(dp392
S'objective'
p393
I427
sS'query_time'
p394
F0.7820930480957031
sS'comp_time'
p395
F0.17999505996704102
sS'exec_cq'
p396
I33
sS'total_cq'
p397
I33
sa(dp398
g393
I428
sg394
F0.005276203155517578
sg395
F0.00733184814453125
sg396
I28
sg397
I29
sasS'total_cqs'
p399
I33
ssI37
(dp400
S'iters'
p401
I1
sS'meta'
p402
(lp403
(dp404
S'objective'
p405
I1
sS'query_time'
p406
F0.01499485969543457
sS'comp_time'
p407
F0.007674694061279297
sS'exec_cq'
p408
I2
sS'total_cq'
p409
I2
sasS'total_cqs'
p410
I2
ssI38
(dp411
S'iters'
p412
I2
sS'meta'
p413
(lp414
(dp415
S'objective'
p416
I0
sS'query_time'
p417
F0.04787611961364746
sS'comp_time'
p418
F0.002856731414794922
sS'exec_cq'
p419
I4
sS'total_cq'
p420
I4
sa(dp421
g416
I3
sg417
F0.00010085105895996094
sg418
F0.0004591941833496094
sg419
I2
sg420
I2
sasS'total_cqs'
p422
I4
ssI39
(dp423
S'iters'
p424
I2
sS'meta'
p425
(lp426
(dp427
S'objective'
p428
I662
sS'query_time'
p429
F0.16939687728881836
sS'comp_time'
p430
F0.2702980041503906
sS'exec_cq'
p431
I44
sS'total_cq'
p432
I44
sa(dp433
g428
I738
sg429
F0.0002980232238769531
sg430
F0.0017943382263183594
sg431
I37
sg432
I37
sasS'total_cqs'
p434
I44
ssI40
(dp435
S'iters'
p436
I1
sS'meta'
p437
(lp438
(dp439
S'objective'
p440
I14
sS'query_time'
p441
F0.036789894104003906
sS'comp_time'
p442
F0.0064046382904052734
sS'exec_cq'
p443
I7
sS'total_cq'
p444
I7
sasS'total_cqs'
p445
I7
ssI41
(dp446
S'iters'
p447
I1
sS'meta'
p448
(lp449
(dp450
S'objective'
p451
I54
sS'query_time'
p452
F0.06873583793640137
sS'comp_time'
p453
F0.01913905143737793
sS'exec_cq'
p454
I12
sS'total_cq'
p455
I12
sasS'total_cqs'
p456
I12
ssI42
(dp457
S'iters'
p458
I1
sS'meta'
p459
(lp460
(dp461
S'objective'
p462
I779
sS'query_time'
p463
F0.05923295021057129
sS'comp_time'
p464
F0.07167911529541016
sS'exec_cq'
p465
I21
sS'total_cq'
p466
I41
sasS'total_cqs'
p467
I41
ssI43
(dp468
S'iters'
p469
I1
sS'meta'
p470
(lp471
(dp472
S'objective'
p473
I14
sS'query_time'
p474
F0.04614114761352539
sS'comp_time'
p475
F0.005740165710449219
sS'exec_cq'
p476
I7
sS'total_cq'
p477
I7
sasS'total_cqs'
p478
I7
ssI44
(dp479
S'iters'
p480
I4
sS'meta'
p481
(lp482
(dp483
S'objective'
p484
I832
sS'query_time'
p485
F0.14232802391052246
sS'comp_time'
p486
F0.15929532051086426
sS'exec_cq'
p487
I47
sS'total_cq'
p488
I47
sa(dp489
g484
I750
sg485
F0.0002739429473876953
sg486
F0.0014429092407226562
sg487
I40
sg488
I40
sa(dp490
g484
I25
sg485
F0.0019669532775878906
sg486
F0.0016560554504394531
sg487
I3
sg488
I3
sa(dp491
g484
I24
sg485
F0.00010395050048828125
sg486
F0.0006477832794189453
sg487
I2
sg488
I2
sasS'total_cqs'
p492
I47
ssI45
(dp493
S'iters'
p494
I0
sS'meta'
p495
(lp496
sS'total_cqs'
p497
I1
ssI46
(dp498
S'iters'
p499
I1
sS'meta'
p500
(lp501
(dp502
S'objective'
p503
I9
sS'query_time'
p504
F0.059986114501953125
sS'comp_time'
p505
F0.002774953842163086
sS'exec_cq'
p506
I4
sS'total_cq'
p507
I6
sasS'total_cqs'
p508
I6
ssI47
(dp509
S'iters'
p510
I1
sS'meta'
p511
(lp512
(dp513
S'objective'
p514
I1
sS'query_time'
p515
F0.01377105712890625
sS'comp_time'
p516
F0.001707315444946289
sS'exec_cq'
p517
I2
sS'total_cq'
p518
I2
sasS'total_cqs'
p519
I2
ssI48
(dp520
S'iters'
p521
I0
sS'meta'
p522
(lp523
sS'total_cqs'
p524
I1
ssI49
(dp525
S'iters'
p526
I0
sS'meta'
p527
(lp528
sS'total_cqs'
p529
I1
ssI50
(dp530
S'iters'
p531
I1
sS'meta'
p532
(lp533
(dp534
S'objective'
p535
I5
sS'query_time'
p536
F0.20130181312561035
sS'comp_time'
p537
F0.002789735794067383
sS'exec_cq'
p538
I5
sS'total_cq'
p539
I5
sasS'total_cqs'
p540
I5
ssI51
(dp541
S'iters'
p542
I1
sS'meta'
p543
(lp544
(dp545
S'objective'
p546
I1
sS'query_time'
p547
F0.009319067001342773
sS'comp_time'
p548
F0.0011260509490966797
sS'exec_cq'
p549
I2
sS'total_cq'
p550
I2
sasS'total_cqs'
p551
I2
ssI52
(dp552
S'iters'
p553
I1
sS'meta'
p554
(lp555
(dp556
S'objective'
p557
I1
sS'query_time'
p558
F0.007931947708129883
sS'comp_time'
p559
F0.0012538433074951172
sS'exec_cq'
p560
I2
sS'total_cq'
p561
I2
sasS'total_cqs'
p562
I2
ssI53
(dp563
S'iters'
p564
I1
sS'meta'
p565
(lp566
(dp567
S'objective'
p568
I2
sS'query_time'
p569
F0.026327133178710938
sS'comp_time'
p570
F0.002969980239868164
sS'exec_cq'
p571
I4
sS'total_cq'
p572
I4
sasS'total_cqs'
p573
I4
ssI54
(dp574
S'iters'
p575
I1
sS'meta'
p576
(lp577
(dp578
S'objective'
p579
I0
sS'query_time'
p580
F0.015866994857788086
sS'comp_time'
p581
F0.0018939971923828125
sS'exec_cq'
p582
I3
sS'total_cq'
p583
I3
sasS'total_cqs'
p584
I3
ssI55
(dp585
S'iters'
p586
I5
sS'meta'
p587
(lp588
(dp589
S'objective'
p590
I4333
sS'query_time'
p591
F2.2289650440216064
sS'comp_time'
p592
F1.0594160556793213
sS'exec_cq'
p593
I109
sS'total_cq'
p594
I109
sa(dp595
g590
I4338
sg591
F0.001049041748046875
sg592
F0.004419088363647461
sg593
I97
sg594
I97
sa(dp596
g590
I4407
sg591
F0.00042700767517089844
sg592
F0.0021131038665771484
sg593
I91
sg594
I91
sa(dp597
g590
I4291
sg591
F0.0004589557647705078
sg592
F0.0018091201782226562
sg593
I87
sg594
I87
sa(dp598
g590
I4217
sg591
F0.00038313865661621094
sg592
F0.0013270378112792969
sg593
I85
sg594
I85
sasS'total_cqs'
p599
I109
ssI56
(dp600
S'iters'
p601
I4
sS'meta'
p602
(lp603
(dp604
S'objective'
p605
I1384
sS'query_time'
p606
F1.8217110633850098
sS'comp_time'
p607
F0.3137640953063965
sS'exec_cq'
p608
I67
sS'total_cq'
p609
I76
sa(dp610
g605
I27
sg606
F0.02027297019958496
sg607
F0.05942487716674805
sg608
I16
sg609
I16
sa(dp611
g605
I28
sg606
F0.0007650852203369141
sg607
F0.1896343231201172
sg608
I7
sg609
I7
sa(dp612
g605
I48
sg606
F0.00028204917907714844
sg607
F0.0017669200897216797
sg608
I3
sg609
I3
sasS'total_cqs'
p613
I76
ssI57
(dp614
S'iters'
p615
I5
sS'meta'
p616
(lp617
(dp618
S'objective'
p619
I176
sS'query_time'
p620
F24.317527055740356
sS'comp_time'
p621
F0.4367961883544922
sS'exec_cq'
p622
I45
sS'total_cq'
p623
I51
sa(dp624
g619
I1
sg620
F0.016089200973510742
sg621
F0.03350019454956055
sg622
I27
sg623
I27
sa(dp625
g619
I7
sg620
F0.0025489330291748047
sg621
F0.007927894592285156
sg622
I12
sg623
I12
sa(dp626
g619
I3
sg620
F0.0011570453643798828
sg621
F0.0037147998809814453
sg622
I5
sg623
I5
sa(dp627
g619
I8
sg620
F0.000537872314453125
sg621
F0.0029458999633789062
sg622
I3
sg623
I3
sasS'total_cqs'
p628
I51
ssI58
(dp629
S'iters'
p630
I6
sS'meta'
p631
(lp632
(dp633
S'objective'
p634
I86501
sS'query_time'
p635
F119.08481907844543
sS'comp_time'
p636
F15.91117787361145
sS'exec_cq'
p637
I348
sS'total_cq'
p638
I486
sa(dp639
g634
I89333
sg635
F0.046147823333740234
sg636
F1.8823671340942383
sg637
I276
sg638
I414
sa(dp640
g634
I148
sg635
F0.016582012176513672
sg636
F0.08379578590393066
sg637
I28
sg638
I28
sa(dp641
g634
I104
sg635
F0.006783008575439453
sg636
F0.0291597843170166
sg637
I14
sg638
I14
sa(dp642
g634
I27
sg635
F0.005897998809814453
sg636
F0.018189191818237305
sg637
I7
sg638
I7
sa(dp643
g634
I175
sg635
F0.00203704833984375
sg636
F0.009725809097290039
sg637
I2
sg638
I2
sasS'total_cqs'
p644
I486
ssI59
(dp645
S'iters'
p646
I2
sS'meta'
p647
(lp648
(dp649
S'objective'
p650
I10
sS'query_time'
p651
F0.11908698081970215
sS'comp_time'
p652
F0.025950908660888672
sS'exec_cq'
p653
I7
sS'total_cq'
p654
I7
sa(dp655
g650
I5
sg651
F0.00018095970153808594
sg652
F0.0011868476867675781
sg653
I2
sg654
I2
sasS'total_cqs'
p656
I7
ssI60
(dp657
S'iters'
p658
I2
sS'meta'
p659
(lp660
(dp661
S'objective'
p662
I7
sS'query_time'
p663
F0.012878179550170898
sS'comp_time'
p664
F0.003798961639404297
sS'exec_cq'
p665
I2
sS'total_cq'
p666
I5
sa(dp667
g662
I1
sg663
F0.005750894546508789
sg664
F0.00020885467529296875
sg665
I3
sg666
I4
sasS'total_cqs'
p668
I5
ssI61
(dp669
S'iters'
p670
I0
sS'meta'
p671
(lp672
sS'total_cqs'
p673
I1
ssI62
(dp674
S'iters'
p675
I1
sS'meta'
p676
(lp677
(dp678
S'objective'
p679
I54
sS'query_time'
p680
F0.039602041244506836
sS'comp_time'
p681
F0.03791236877441406
sS'exec_cq'
p682
I12
sS'total_cq'
p683
I12
sasS'total_cqs'
p684
I12
ssI63
(dp685
S'iters'
p686
I0
sS'meta'
p687
(lp688
sS'total_cqs'
p689
I1
ssI64
(dp690
S'iters'
p691
I3
sS'meta'
p692
(lp693
(dp694
S'objective'
p695
I18
sS'query_time'
p696
F0.10226607322692871
sS'comp_time'
p697
F0.022599458694458008
sS'exec_cq'
p698
I12
sS'total_cq'
p699
I12
sa(dp700
g695
I4
sg696
F9.799003601074219e-05
sg697
F0.0005397796630859375
sg698
I4
sg699
I4
sa(dp701
g695
I11
sg696
F4.1961669921875e-05
sg697
F0.000213623046875
sg698
I2
sg699
I2
sasS'total_cqs'
p702
I12
ssI65
(dp703
S'iters'
p704
I3
sS'meta'
p705
(lp706
(dp707
S'objective'
p708
I112
sS'query_time'
p709
F0.924968957901001
sS'comp_time'
p710
F0.18311500549316406
sS'exec_cq'
p711
I27
sS'total_cq'
p712
I27
sa(dp713
g708
I1
sg709
F0.0016498565673828125
sg710
F0.00687861442565918
sg711
I7
sg712
I7
sa(dp714
g708
I13
sg709
F0.0003490447998046875
sg710
F0.002580881118774414
sg711
I3
sg712
I3
sasS'total_cqs'
p715
I27
ssI66
(dp716
S'iters'
p717
I0
sS'meta'
p718
(lp719
sS'total_cqs'
p720
I1
ssI67
(dp721
S'iters'
p722
I2
sS'meta'
p723
(lp724
(dp725
S'objective'
p726
I522
sS'query_time'
p727
F1.0544559955596924
sS'comp_time'
p728
F0.24218320846557617
sS'exec_cq'
p729
I35
sS'total_cq'
p730
I35
sa(dp731
g726
I16
sg727
F0.0012259483337402344
sg728
F0.006880998611450195
sg729
I2
sg730
I2
sasS'total_cqs'
p732
I35
ssI68
(dp733
S'iters'
p734
I0
sS'meta'
p735
(lp736
sS'total_cqs'
p737
I1
ssI69
(dp738
S'iters'
p739
I1
sS'meta'
p740
(lp741
(dp742
S'objective'
p743
I1224
sS'query_time'
p744
F0.17878985404968262
sS'comp_time'
p745
F0.31247997283935547
sS'exec_cq'
p746
I51
sS'total_cq'
p747
I51
sasS'total_cqs'
p748
I51
ssI70
(dp749
S'iters'
p750
I1
sS'meta'
p751
(lp752
(dp753
S'objective'
p754
I9
sS'query_time'
p755
F0.02866506576538086
sS'comp_time'
p756
F0.0035889148712158203
sS'exec_cq'
p757
I6
sS'total_cq'
p758
I6
sasS'total_cqs'
p759
I6
ssI71
(dp760
S'iters'
p761
I3
sS'meta'
p762
(lp763
(dp764
S'objective'
p765
I3235
sS'query_time'
p766
F0.2777237892150879
sS'comp_time'
p767
F0.292935848236084
sS'exec_cq'
p768
I73
sS'total_cq'
p769
I85
sa(dp770
g765
I3033
sg766
F0.0003428459167480469
sg767
F0.0012302398681640625
sg768
I69
sg769
I81
sa(dp771
g765
I36
sg766
F0.036208152770996094
sg767
F0.004395008087158203
sg768
I3
sg769
I3
sasS'total_cqs'
p772
I85
ssI72
(dp773
S'iters'
p774
I3
sS'meta'
p775
(lp776
(dp777
S'objective'
p778
I10
sS'query_time'
p779
F0.028467893600463867
sS'comp_time'
p780
F0.003373861312866211
sS'exec_cq'
p781
I4
sS'total_cq'
p782
I8
sa(dp783
g778
I5
sg779
F0.3722879886627197
sg780
F0.003872394561767578
sg781
I4
sg782
I6
sa(dp784
g778
I2
sg779
F9.679794311523438e-05
sg780
F0.00033354759216308594
sg781
I2
sg782
I3
sasS'total_cqs'
p785
I8
ssI73
(dp786
S'iters'
p787
I0
sS'meta'
p788
(lp789
sS'total_cqs'
p790
I1
ssI74
(dp791
S'iters'
p792
I0
sS'meta'
p793
(lp794
sS'total_cqs'
p795
I1
ssI75
(dp796
S'iters'
p797
I1
sS'meta'
p798
(lp799
(dp800
S'objective'
p801
I5
sS'query_time'
p802
F0.01489710807800293
sS'comp_time'
p803
F0.002552032470703125
sS'exec_cq'
p804
I5
sS'total_cq'
p805
I5
sasS'total_cqs'
p806
I5
ssI76
(dp807
S'iters'
p808
I1
sS'meta'
p809
(lp810
(dp811
S'objective'
p812
I1
sS'query_time'
p813
F0.014532089233398438
sS'comp_time'
p814
F0.0014770030975341797
sS'exec_cq'
p815
I2
sS'total_cq'
p816
I2
sasS'total_cqs'
p817
I2
ssI77
(dp818
S'iters'
p819
I0
sS'meta'
p820
(lp821
sS'total_cqs'
p822
I1
ssI78
(dp823
S'iters'
p824
I0
sS'meta'
p825
(lp826
sS'total_cqs'
p827
I1
ssI103
(dp828
S'iters'
p829
I1
sS'meta'
p830
(lp831
(dp832
S'objective'
p833
I54
sS'query_time'
p834
F0.057150840759277344
sS'comp_time'
p835
F0.03219318389892578
sS'exec_cq'
p836
I12
sS'total_cq'
p837
I12
sasS'total_cqs'
p838
I12
ssI104
(dp839
S'iters'
p840
I2
sS'meta'
p841
(lp842
(dp843
S'objective'
p844
I0
sS'query_time'
p845
F1.3247790336608887
sS'comp_time'
p846
F0.1834859848022461
sS'exec_cq'
p847
I4
sS'total_cq'
p848
I4
sa(dp849
g844
I3
sg845
F0.014989852905273438
sg846
F0.18070149421691895
sg847
I2
sg848
I2
sasS'total_cqs'
p850
I4
ssI105
(dp851
S'iters'
p852
I0
sS'meta'
p853
(lp854
sS'total_cqs'
p855
I1
ssI106
(dp856
S'iters'
p857
I1
sS'meta'
p858
(lp859
(dp860
S'objective'
p861
I2
sS'query_time'
p862
F0.01763606071472168
sS'comp_time'
p863
F0.0018467903137207031
sS'exec_cq'
p864
I4
sS'total_cq'
p865
I4
sasS'total_cqs'
p866
I4
ssI107
(dp867
S'iters'
p868
I2
sS'meta'
p869
(lp870
(dp871
S'objective'
p872
I52
sS'query_time'
p873
F0.07432699203491211
sS'comp_time'
p874
F0.03870129585266113
sS'exec_cq'
p875
I16
sS'total_cq'
p876
I16
sa(dp877
g872
I10
sg873
F0.004709959030151367
sg874
F0.0003750324249267578
sg875
I3
sg876
I3
sasS'total_cqs'
p878
I16
ssI108
(dp879
S'iters'
p880
I0
sS'meta'
p881
(lp882
sS'total_cqs'
p883
I1
ss.