(dp0
I1
(dp1
S'iters'
p2
I1
sS'meta'
p3
(lp4
(dp5
S'objective'
p6
I58
sS'query_time'
p7
F0.036728858947753906
sS'comp_time'
p8
F5.698204040527344e-05
sS'exec_cq'
p9
I3
sS'total_cq'
p10
I12
sasS'total_cqs'
p11
I12
ssI2
(dp12
S'iters'
p13
I3
sS'meta'
p14
(lp15
(dp16
S'objective'
p17
I244
sS'query_time'
p18
F0.0333249568939209
sS'comp_time'
p19
F8.106231689453125e-05
sS'exec_cq'
p20
I1
sS'total_cq'
p21
I27
sa(dp22
g17
I265
sg18
F0.031174898147583008
sg19
F6.699562072753906e-05
sg20
I4
sg21
I23
sa(dp23
g17
I244
sg18
F0.025923967361450195
sg19
F6.318092346191406e-05
sg20
I4
sg21
I22
sasS'total_cqs'
p24
I27
ssI3
(dp25
S'iters'
p26
I4
sS'meta'
p27
(lp28
(dp29
S'objective'
p30
I658
sS'query_time'
p31
F48.08570384979248
sS'comp_time'
p32
F0.0012748241424560547
sS'exec_cq'
p33
I3
sS'total_cq'
p34
I43
sa(dp35
g30
I528
sg31
F73.4517571926117
sg32
F8.797645568847656e-05
sg33
I3
sg34
I37
sa(dp36
g30
I289
sg31
F20.059205055236816
sg32
F0.0001220703125
sg33
I3
sg34
I31
sa(dp37
g30
I409
sg31
F40.0103280544281
sg32
F0.00010895729064941406
sg33
I5
sg34
I23
sasS'total_cqs'
p38
I43
ssI4
(dp39
S'iters'
p40
I1
sS'meta'
p41
(lp42
(dp43
S'objective'
p44
I46
sS'query_time'
p45
F3.2972300052642822
sS'comp_time'
p46
F0.0003781318664550781
sS'exec_cq'
p47
I2
sS'total_cq'
p48
I11
sasS'total_cqs'
p49
I11
ssI5
(dp50
S'iters'
p51
I2
sS'meta'
p52
(lp53
(dp54
S'objective'
p55
I0
sS'query_time'
p56
F6.538661956787109
sS'comp_time'
p57
F7.987022399902344e-05
sS'exec_cq'
p58
I1
sS'total_cq'
p59
I8
sa(dp60
g55
I4
sg56
F0.29176902770996094
sg57
F0.00015401840209960938
sg58
I1
sg59
I5
sasS'total_cqs'
p61
I8
ssI6
(dp62
S'iters'
p63
I3
sS'meta'
p64
(lp65
(dp66
S'objective'
p67
I117
sS'query_time'
p68
F8.031909942626953
sS'comp_time'
p69
F0.0005559921264648438
sS'exec_cq'
p70
I1
sS'total_cq'
p71
I18
sa(dp72
g67
I110
sg68
F0.7391231060028076
sg69
F7.390975952148438e-05
sg70
I1
sg71
I14
sa(dp73
g67
I97
sg68
F0.43297886848449707
sg69
F6.604194641113281e-05
sg70
I2
sg71
I13
sasS'total_cqs'
p74
I18
ssI7
(dp75
S'iters'
p76
I2
sS'meta'
p77
(lp78
(dp79
S'objective'
p80
I13
sS'query_time'
p81
F0.444835901260376
sS'comp_time'
p82
F7.200241088867188e-05
sS'exec_cq'
p83
I1
sS'total_cq'
p84
I9
sa(dp85
g80
I13
sg81
F0.22452998161315918
sg82
F7.200241088867188e-05
sg83
I1
sg84
I7
sasS'total_cqs'
p86
I9
ssI8
(dp87
S'iters'
p88
I4
sS'meta'
p89
(lp90
(dp91
S'objective'
p92
I238
sS'query_time'
p93
F0.0404820442199707
sS'comp_time'
p94
F7.295608520507812e-05
sS'exec_cq'
p95
I3
sS'total_cq'
p96
I27
sa(dp97
g92
I262
sg93
F0.025377988815307617
sg94
F4.482269287109375e-05
sg95
I4
sg96
I22
sa(dp98
g92
I235
sg93
F0.05263400077819824
sg94
F5.698204040527344e-05
sg95
I4
sg96
I21
sa(dp99
g92
I19
sg93
F0.01751708984375
sg94
F6.699562072753906e-05
sg95
I2
sg96
I2
sasS'total_cqs'
p100
I27
ssI9
(dp101
S'iters'
p102
I3
sS'meta'
p103
(lp104
(dp105
S'objective'
p106
I14
sS'query_time'
p107
F0.024079084396362305
sS'comp_time'
p108
F4.601478576660156e-05
sS'exec_cq'
p109
I1
sS'total_cq'
p110
I7
sa(dp111
g106
I1
sg107
F0.048883914947509766
sg108
F8.606910705566406e-05
sg109
I2
sg110
I5
sa(dp112
g106
I3
sg107
F0.0027179718017578125
sg108
F3.910064697265625e-05
sg109
I2
sg110
I2
sasS'total_cqs'
p113
I7
ssI10
(dp114
S'iters'
p115
I8
sS'meta'
p116
(lp117
(dp118
S'objective'
p119
I438
sS'query_time'
p120
F0.18859004974365234
sS'comp_time'
p121
F8.296966552734375e-05
sS'exec_cq'
p122
I1
sS'total_cq'
p123
I51
sa(dp124
g119
I542
sg120
F0.06488490104675293
sg121
F4.9114227294921875e-05
sg122
I1
sg123
I37
sa(dp125
g119
I618
sg120
F0.05065798759460449
sg121
F6.413459777832031e-05
sg122
I1
sg123
I32
sa(dp126
g119
I505
sg120
F0.040235042572021484
sg121
F5.507469177246094e-05
sg122
I1
sg123
I31
sa(dp127
g119
I391
sg120
F0.03566694259643555
sg121
F5.2928924560546875e-05
sg122
I1
sg123
I29
sa(dp128
g119
I384
sg120
F0.019927024841308594
sg121
F4.38690185546875e-05
sg122
I1
sg123
I25
sa(dp129
g119
I282
sg120
F0.015512943267822266
sg121
F4.291534423828125e-05
sg122
I2
sg123
I23
sa(dp130
g119
I3
sg120
F0.0029120445251464844
sg121
F3.719329833984375e-05
sg122
I2
sg123
I2
sasS'total_cqs'
p131
I51
ssI11
(dp132
S'iters'
p133
I10
sS'meta'
p134
(lp135
(dp136
S'objective'
p137
I1890
sS'query_time'
p138
F0.09578084945678711
sS'comp_time'
p139
F9.083747863769531e-05
sS'exec_cq'
p140
I1
sS'total_cq'
p141
I63
sa(dp142
g137
I1797
sg138
F0.1880340576171875
sg139
F7.510185241699219e-05
sg140
I1
sg141
I62
sa(dp143
g137
I1565
sg138
F0.10953402519226074
sg139
F6.318092346191406e-05
sg140
I1
sg141
I60
sa(dp144
g137
I584
sg138
F0.13759398460388184
sg139
F5.4836273193359375e-05
sg140
I1
sg141
I57
sa(dp145
g137
I1038
sg138
F0.12624192237854004
sg139
F8.082389831542969e-05
sg140
I2
sg141
I41
sa(dp146
g137
I923
sg138
F0.04979395866394043
sg139
F6.29425048828125e-05
sg140
I3
sg141
I40
sa(dp147
g137
I659
sg138
F0.05142784118652344
sg139
F6.198883056640625e-05
sg140
I5
sg141
I38
sa(dp148
g137
I1
sg138
F0.016076087951660156
sg139
F4.315376281738281e-05
sg140
I2
sg141
I6
sa(dp149
g137
I14
sg138
F0.0071620941162109375
sg139
F4.887580871582031e-05
sg140
I2
sg141
I4
sa(dp150
g137
I47
sg138
F0.003206014633178711
sg139
F5.1975250244140625e-05
sg140
I2
sg141
I2
sasS'total_cqs'
p151
I63
ssI12
(dp152
S'iters'
p153
I6
sS'meta'
p154
(lp155
(dp156
S'objective'
p157
I533
sS'query_time'
p158
F0.12187504768371582
sS'comp_time'
p159
F9.393692016601562e-05
sS'exec_cq'
p160
I2
sS'total_cq'
p161
I50
sa(dp162
g157
I816
sg158
F0.11464810371398926
sg159
F6.794929504394531e-05
sg160
I6
sg161
I33
sa(dp163
g157
I492
sg158
F0.0455021858215332
sg159
F0.00010609626770019531
sg160
I6
sg161
I32
sa(dp164
g157
I556
sg158
F0.028577089309692383
sg159
F6.508827209472656e-05
sg160
I6
sg161
I25
sa(dp165
g157
I468
sg158
F0.04705500602722168
sg159
F7.104873657226562e-05
sg160
I6
sg161
I23
sa(dp166
g157
I4
sg158
F0.0054438114166259766
sg159
F4.982948303222656e-05
sg160
I2
sg161
I2
sasS'total_cqs'
p167
I50
ssI13
(dp168
S'iters'
p169
I4
sS'meta'
p170
(lp171
(dp172
S'objective'
p173
I126
sS'query_time'
p174
F0.1314539909362793
sS'comp_time'
p175
F6.699562072753906e-05
sS'exec_cq'
p176
I2
sS'total_cq'
p177
I20
sa(dp178
g173
I14
sg174
F0.0544428825378418
sg175
F4.792213439941406e-05
sg176
I2
sg177
I16
sa(dp179
g173
I53
sg174
F0.009982109069824219
sg175
F7.510185241699219e-05
sg176
I2
sg177
I9
sa(dp180
g173
I13
sg174
F0.008048057556152344
sg175
F4.601478576660156e-05
sg176
I2
sg177
I2
sasS'total_cqs'
p181
I20
ssI14
(dp182
S'iters'
p183
I4
sS'meta'
p184
(lp185
(dp186
S'objective'
p187
I27
sS'query_time'
p188
F1.0975120067596436
sS'comp_time'
p189
F6.508827209472656e-05
sS'exec_cq'
p190
I1
sS'total_cq'
p191
I9
sa(dp192
g187
I2
sg188
F0.33321595191955566
sg189
F6.604194641113281e-05
sg190
I1
sg191
I8
sa(dp193
g187
I1
sg188
F0.007392168045043945
sg189
F3.886222839355469e-05
sg190
I1
sg191
I4
sa(dp194
g187
I6
sg188
F0.017544984817504883
sg189
F5.412101745605469e-05
sg190
I1
sg191
I2
sasS'total_cqs'
p195
I9
ssI15
(dp196
S'iters'
p197
I1
sS'meta'
p198
(lp199
(dp200
S'objective'
p201
I46
sS'query_time'
p202
F0.0488128662109375
sS'comp_time'
p203
F7.796287536621094e-05
sS'exec_cq'
p204
I2
sS'total_cq'
p205
I11
sasS'total_cqs'
p206
I11
ssI16
(dp207
S'iters'
p208
I1
sS'meta'
p209
(lp210
(dp211
S'objective'
p212
I22
sS'query_time'
p213
F0.009688854217529297
sS'comp_time'
p214
F5.2928924560546875e-05
sS'exec_cq'
p215
I2
sS'total_cq'
p216
I8
sasS'total_cqs'
p217
I8
ssI17
(dp218
S'iters'
p219
I2
sS'meta'
p220
(lp221
(dp222
S'objective'
p223
I44
sS'query_time'
p224
F0.023478031158447266
sS'comp_time'
p225
F4.38690185546875e-05
sS'exec_cq'
p226
I1
sS'total_cq'
p227
I11
sa(dp228
g223
I35
sg224
F0.043482065200805664
sg225
F6.604194641113281e-05
sg226
I1
sg227
I10
sasS'total_cqs'
p229
I11
ssI18
(dp230
S'iters'
p231
I2
sS'meta'
p232
(lp233
(dp234
S'objective'
p235
I44
sS'query_time'
p236
F0.04898810386657715
sS'comp_time'
p237
F6.389617919921875e-05
sS'exec_cq'
p238
I1
sS'total_cq'
p239
I11
sa(dp240
g235
I35
sg236
F0.014358043670654297
sg237
F4.792213439941406e-05
sg238
I1
sg239
I10
sasS'total_cqs'
p241
I11
ssI19
(dp242
S'iters'
p243
I0
sS'meta'
p244
(lp245
sS'total_cqs'
p246
I1
ssI20
(dp247
S'iters'
p248
I0
sS'meta'
p249
(lp250
sS'total_cqs'
p251
I1
ssI21
(dp252
S'iters'
p253
I0
sS'meta'
p254
(lp255
sS'total_cqs'
p256
I1
ssI22
(dp257
S'iters'
p258
I1
sS'meta'
p259
(lp260
(dp261
S'objective'
p262
I141
sS'query_time'
p263
F0.03329896926879883
sS'comp_time'
p264
F0.00020003318786621094
sS'exec_cq'
p265
I4
sS'total_cq'
p266
I18
sasS'total_cqs'
p267
I18
ssI23
(dp268
S'iters'
p269
I2
sS'meta'
p270
(lp271
(dp272
S'objective'
p273
I76
sS'query_time'
p274
F0.02415919303894043
sS'comp_time'
p275
F7.700920104980469e-05
sS'exec_cq'
p276
I1
sS'total_cq'
p277
I16
sa(dp278
g273
I80
sg274
F0.018439054489135742
sg275
F4.506111145019531e-05
sg276
I2
sg277
I14
sasS'total_cqs'
p279
I16
ssI24
(dp280
S'iters'
p281
I0
sS'meta'
p282
(lp283
sS'total_cqs'
p284
I1
ssI25
(dp285
S'iters'
p286
I0
sS'meta'
p287
(lp288
sS'total_cqs'
p289
I1
ssI26
(dp290
S'iters'
p291
I1
sS'meta'
p292
(lp293
(dp294
S'objective'
p295
I837
sS'query_time'
p296
F0.06969594955444336
sS'comp_time'
p297
F0.0001010894775390625
sS'exec_cq'
p298
I10
sS'total_cq'
p299
I42
sasS'total_cqs'
p300
I42
ssI27
(dp301
S'iters'
p302
I5
sS'meta'
p303
(lp304
(dp305
S'objective'
p306
I407
sS'query_time'
p307
F3.6185569763183594
sS'comp_time'
p308
F0.0012171268463134766
sS'exec_cq'
p309
I2
sS'total_cq'
p310
I30
sa(dp311
g306
I380
sg307
F9.351535081863403
sg308
F0.00019598007202148438
sg309
I2
sg310
I29
sa(dp312
g306
I356
sg307
F1.2272779941558838
sg308
F0.00013399124145507812
sg309
I3
sg310
I28
sa(dp313
g306
I328
sg307
F0.32590699195861816
sg308
F0.00011515617370605469
sg309
I3
sg310
I27
sa(dp314
g306
I307
sg307
F2.612459897994995
sg308
F0.00021791458129882812
sg309
I3
sg310
I25
sasS'total_cqs'
p315
I30
ssI28
(dp316
S'iters'
p317
I0
sS'meta'
p318
(lp319
sS'total_cqs'
p320
I1
ssI29
(dp321
S'iters'
p322
I10
sS'meta'
p323
(lp324
(dp325
S'objective'
p326
I1127
sS'query_time'
p327
F0.9203250408172607
sS'comp_time'
p328
F8.511543273925781e-05
sS'exec_cq'
p329
I1
sS'total_cq'
p330
I49
sa(dp331
g326
I1046
sg327
F9.131435871124268
sg328
F0.000164031982421875
sg329
I1
sg330
I48
sa(dp332
g326
I981
sg327
F2.5555200576782227
sg328
F0.000102996826171875
sg329
I1
sg330
I45
sa(dp333
g326
I900
sg327
F0.8795890808105469
sg328
F9.393692016601562e-05
sg329
I1
sg330
I43
sa(dp334
g326
I767
sg327
F0.30060791969299316
sg328
F0.0001010894775390625
sg329
I1
sg330
I41
sa(dp335
g326
I782
sg327
F2.213493824005127
sg328
F0.0003139972686767578
sg329
I1
sg330
I37
sa(dp336
g326
I740
sg327
F0.4166910648345947
sg328
F8.988380432128906e-05
sg329
I1
sg330
I36
sa(dp337
g326
I565
sg327
F1.2470619678497314
sg328
F7.82012939453125e-05
sg329
I3
sg330
I35
sa(dp338
g326
I570
sg327
F0.39388394355773926
sg328
F9.918212890625e-05
sg329
I3
sg330
I28
sa(dp339
g326
I546
sg327
F0.222153902053833
sg328
F6.389617919921875e-05
sg329
I3
sg330
I26
sasS'total_cqs'
p340
I49
ssI30
(dp341
S'iters'
p342
I1
sS'meta'
p343
(lp344
(dp345
S'objective'
p346
I1
sS'query_time'
p347
F0.8173551559448242
sS'comp_time'
p348
F7.486343383789062e-05
sS'exec_cq'
p349
I1
sS'total_cq'
p350
I2
sasS'total_cqs'
p351
I2
ssI31
(dp352
S'iters'
p353
I0
sS'meta'
p354
(lp355
sS'total_cqs'
p356
I1
ssI32
(dp357
S'iters'
p358
I1
sS'meta'
p359
(lp360
(dp361
S'objective'
p362
I1
sS'query_time'
p363
F0.008308887481689453
sS'comp_time'
p364
F4.1961669921875e-05
sS'exec_cq'
p365
I1
sS'total_cq'
p366
I2
sasS'total_cqs'
p367
I2
ssI33
(dp368
S'iters'
p369
I9
sS'meta'
p370
(lp371
(dp372
S'objective'
p373
I5064
sS'query_time'
p374
F0.8860549926757812
sS'comp_time'
p375
F0.00011491775512695312
sS'exec_cq'
p376
I3
sS'total_cq'
p377
I103
sa(dp378
g373
I5018
sg374
F4.642137050628662
sg375
F0.00011205673217773438
sg376
I7
sg377
I101
sa(dp379
g373
I4326
sg374
F0.40986013412475586
sg375
F0.00011205673217773438
sg376
I7
sg377
I100
sa(dp380
g373
I4390
sg374
F0.5380518436431885
sg375
F0.0001461505889892578
sg376
I9
sg377
I94
sa(dp381
g373
I4377
sg374
F0.9695940017700195
sg375
F0.00012803077697753906
sg376
I10
sg377
I92
sa(dp382
g373
I4210
sg374
F0.7040700912475586
sg375
F0.0001201629638671875
sg376
I11
sg377
I91
sa(dp383
g373
I4168
sg374
F0.4042088985443115
sg375
F0.00013399124145507812
sg376
I11
sg377
I89
sa(dp384
g373
I4019
sg374
F0.5189049243927002
sg375
F0.00017499923706054688
sg376
I16
sg377
I88
sa(dp385
g373
I41
sg374
F0.020322084426879883
sg375
F3.2901763916015625e-05
sg376
I1
sg377
I2
sasS'total_cqs'
p386
I103
ssI34
(dp387
S'iters'
p388
I1
sS'meta'
p389
(lp390
(dp391
S'objective'
p392
I1
sS'query_time'
p393
F0.019189119338989258
sS'comp_time'
p394
F0.00041604042053222656
sS'exec_cq'
p395
I1
sS'total_cq'
p396
I2
sasS'total_cqs'
p397
I2
ssI35
(dp398
S'iters'
p399
I7
sS'meta'
p400
(lp401
(dp402
S'objective'
p403
I2345
sS'query_time'
p404
F1.0170350074768066
sS'comp_time'
p405
F0.00011301040649414062
sS'exec_cq'
p406
I1
sS'total_cq'
p407
I70
sa(dp408
g403
I1777
sg404
F0.39207887649536133
sg405
F7.796287536621094e-05
sg406
I2
sg407
I69
sa(dp409
g403
I1962
sg404
F0.058979034423828125
sg405
F7.200241088867188e-05
sg406
I2
sg407
I60
sa(dp410
g403
I1777
sg404
F4.066066026687622
sg405
F0.00018310546875
sg406
I2
sg407
I59
sa(dp411
g403
I1703
sg404
F9.186086893081665
sg405
F0.0006330013275146484
sg406
I3
sg407
I56
sa(dp412
g403
I1691
sg404
F20.06592893600464
sg405
F0.00011014938354492188
sg406
I9
sg407
I53
sa(dp413
g403
I1639
sg404
F0.19558215141296387
sg405
F9.989738464355469e-05
sg406
I10
sg407
I52
sasS'total_cqs'
p414
I70
ssI36
(dp415
S'iters'
p416
I4
sS'meta'
p417
(lp418
(dp419
S'objective'
p420
I495
sS'query_time'
p421
F0.23478484153747559
sS'comp_time'
p422
F8.916854858398438e-05
sS'exec_cq'
p423
I1
sS'total_cq'
p424
I33
sa(dp425
g420
I396
sg421
F0.053498029708862305
sg422
F9.894371032714844e-05
sg423
I2
sg424
I32
sa(dp426
g420
I404
sg421
F0.18644189834594727
sg422
F9.012222290039062e-05
sg423
I3
sg424
I29
sa(dp427
g420
I381
sg421
F0.05382108688354492
sg422
F9.489059448242188e-05
sg423
I5
sg424
I28
sasS'total_cqs'
p428
I33
ssI37
(dp429
S'iters'
p430
I1
sS'meta'
p431
(lp432
(dp433
S'objective'
p434
I1
sS'query_time'
p435
F0.007849931716918945
sS'comp_time'
p436
F5.4836273193359375e-05
sS'exec_cq'
p437
I1
sS'total_cq'
p438
I2
sasS'total_cqs'
p439
I2
ssI38
(dp440
S'iters'
p441
I1
sS'meta'
p442
(lp443
(dp444
S'objective'
p445
I2
sS'query_time'
p446
F0.012845039367675781
sS'comp_time'
p447
F6.794929504394531e-05
sS'exec_cq'
p448
I1
sS'total_cq'
p449
I4
sasS'total_cqs'
p450
I4
ssI39
(dp451
S'iters'
p452
I3
sS'meta'
p453
(lp454
(dp455
S'objective'
p456
I544
sS'query_time'
p457
F0.05285286903381348
sS'comp_time'
p458
F7.891654968261719e-05
sS'exec_cq'
p459
I1
sS'total_cq'
p460
I44
sa(dp461
g456
I135
sg457
F0.020219087600708008
sg458
F5.793571472167969e-05
sg459
I2
sg460
I8
sa(dp462
g456
I111
sg457
F0.038803815841674805
sg458
F6.198883056640625e-05
sg459
I2
sg460
I7
sasS'total_cqs'
p463
I44
ssI40
(dp464
S'iters'
p465
I1
sS'meta'
p466
(lp467
(dp468
S'objective'
p469
I14
sS'query_time'
p470
F0.0544891357421875
sS'comp_time'
p471
F5.3882598876953125e-05
sS'exec_cq'
p472
I1
sS'total_cq'
p473
I7
sasS'total_cqs'
p474
I7
ssI41
(dp475
S'iters'
p476
I1
sS'meta'
p477
(lp478
(dp479
S'objective'
p480
I58
sS'query_time'
p481
F0.028963804244995117
sS'comp_time'
p482
F5.316734313964844e-05
sS'exec_cq'
p483
I3
sS'total_cq'
p484
I12
sasS'total_cqs'
p485
I12
ssI42
(dp486
S'iters'
p487
I2
sS'meta'
p488
(lp489
(dp490
S'objective'
p491
I793
sS'query_time'
p492
F0.031601905822753906
sS'comp_time'
p493
F7.295608520507812e-05
sS'exec_cq'
p494
I8
sS'total_cq'
p495
I41
sa(dp496
g491
I763
sg492
F0.021743059158325195
sg493
F5.793571472167969e-05
sg494
I9
sg495
I40
sasS'total_cqs'
p497
I41
ssI43
(dp498
S'iters'
p499
I1
sS'meta'
p500
(lp501
(dp502
S'objective'
p503
I14
sS'query_time'
p504
F0.04429817199707031
sS'comp_time'
p505
F6.699562072753906e-05
sS'exec_cq'
p506
I1
sS'total_cq'
p507
I7
sasS'total_cqs'
p508
I7
ssI44
(dp509
S'iters'
p510
I3
sS'meta'
p511
(lp512
(dp513
S'objective'
p514
I826
sS'query_time'
p515
F0.05636000633239746
sS'comp_time'
p516
F5.984306335449219e-05
sS'exec_cq'
p517
I3
sS'total_cq'
p518
I47
sa(dp519
g514
I837
sg515
F0.036581993103027344
sg516
F8.702278137207031e-05
sg517
I9
sg518
I40
sa(dp520
g514
I4
sg515
F0.033846139907836914
sg516
F7.009506225585938e-05
sg517
I2
sg518
I2
sasS'total_cqs'
p521
I47
ssI45
(dp522
S'iters'
p523
I0
sS'meta'
p524
(lp525
sS'total_cqs'
p526
I1
ssI46
(dp527
S'iters'
p528
I1
sS'meta'
p529
(lp530
(dp531
S'objective'
p532
I9
sS'query_time'
p533
F0.018194198608398438
sS'comp_time'
p534
F0.00010585784912109375
sS'exec_cq'
p535
I1
sS'total_cq'
p536
I6
sasS'total_cqs'
p537
I6
ssI47
(dp538
S'iters'
p539
I1
sS'meta'
p540
(lp541
(dp542
S'objective'
p543
I1
sS'query_time'
p544
F0.005697965621948242
sS'comp_time'
p545
F4.506111145019531e-05
sS'exec_cq'
p546
I1
sS'total_cq'
p547
I2
sasS'total_cqs'
p548
I2
ssI48
(dp549
S'iters'
p550
I0
sS'meta'
p551
(lp552
sS'total_cqs'
p553
I1
ssI49
(dp554
S'iters'
p555
I0
sS'meta'
p556
(lp557
sS'total_cqs'
p558
I1
ssI50
(dp559
S'iters'
p560
I1
sS'meta'
p561
(lp562
(dp563
S'objective'
p564
I5
sS'query_time'
p565
F0.005912065505981445
sS'comp_time'
p566
F5.2928924560546875e-05
sS'exec_cq'
p567
I1
sS'total_cq'
p568
I5
sasS'total_cqs'
p569
I5
ssI51
(dp570
S'iters'
p571
I1
sS'meta'
p572
(lp573
(dp574
S'objective'
p575
I1
sS'query_time'
p576
F0.005944967269897461
sS'comp_time'
p577
F5.1975250244140625e-05
sS'exec_cq'
p578
I1
sS'total_cq'
p579
I2
sasS'total_cqs'
p580
I2
ssI52
(dp581
S'iters'
p582
I1
sS'meta'
p583
(lp584
(dp585
S'objective'
p586
I1
sS'query_time'
p587
F0.006288051605224609
sS'comp_time'
p588
F7.200241088867188e-05
sS'exec_cq'
p589
I1
sS'total_cq'
p590
I2
sasS'total_cqs'
p591
I2
ssI53
(dp592
S'iters'
p593
I1
sS'meta'
p594
(lp595
(dp596
S'objective'
p597
I2
sS'query_time'
p598
F0.027886152267456055
sS'comp_time'
p599
F6.794929504394531e-05
sS'exec_cq'
p600
I1
sS'total_cq'
p601
I4
sasS'total_cqs'
p602
I4
ssI54
(dp603
S'iters'
p604
I2
sS'meta'
p605
(lp606
(dp607
S'objective'
p608
I4
sS'query_time'
p609
F0.004408121109008789
sS'comp_time'
p610
F4.100799560546875e-05
sS'exec_cq'
p611
I1
sS'total_cq'
p612
I3
sa(dp613
g608
I1
sg609
F0.0016701221466064453
sg610
F3.2901763916015625e-05
sg611
I1
sg612
I2
sasS'total_cqs'
p614
I3
ssI55
(dp615
S'iters'
p616
I6
sS'meta'
p617
(lp618
(dp619
S'objective'
p620
I5363
sS'query_time'
p621
F0.6583690643310547
sS'comp_time'
p622
F0.00012993812561035156
sS'exec_cq'
p623
I6
sS'total_cq'
p624
I109
sa(dp625
g620
I5479
sg621
F0.20463800430297852
sg622
F0.00014591217041015625
sg623
I9
sg624
I103
sa(dp626
g620
I5383
sg621
F0.2088010311126709
sg622
F0.0001270771026611328
sg623
I10
sg624
I102
sa(dp627
g620
I4947
sg621
F0.22255992889404297
sg622
F0.00015997886657714844
sg623
I12
sg624
I101
sa(dp628
g620
I5030
sg621
F0.1813371181488037
sg622
F0.0001361370086669922
sg623
I14
sg624
I97
sa(dp629
g620
I4956
sg621
F0.1248328685760498
sg622
F0.00041103363037109375
sg623
I21
sg624
I96
sasS'total_cqs'
p630
I109
ssI56
(dp631
S'iters'
p632
I7
sS'meta'
p633
(lp634
(dp635
S'objective'
p636
I2774
sS'query_time'
p637
F1.0782859325408936
sS'comp_time'
p638
F0.00011014938354492188
sS'exec_cq'
p639
I1
sS'total_cq'
p640
I76
sa(dp641
g636
I2178
sg637
F0.16613101959228516
sg638
F0.000102996826171875
sg639
I7
sg640
I75
sa(dp642
g636
I2262
sg637
F0.2327420711517334
sg638
F0.00010395050048828125
sg639
I9
sg640
I66
sa(dp643
g636
I2260
sg637
F0.17623400688171387
sg638
F6.985664367675781e-05
sg639
I10
sg640
I63
sa(dp644
g636
I2036
sg637
F0.19710993766784668
sg638
F7.891654968261719e-05
sg639
I10
sg640
I62
sa(dp645
g636
I1892
sg637
F0.20957207679748535
sg638
F0.00015401840209960938
sg639
I11
sg640
I59
sa(dp646
g636
I28
sg637
F0.03145790100097656
sg638
F6.103515625e-05
sg639
I1
sg640
I4
sasS'total_cqs'
p647
I76
ssI57
(dp648
S'iters'
p649
I9
sS'meta'
p650
(lp651
(dp652
S'objective'
p653
I1214
sS'query_time'
p654
F1.9576599597930908
sS'comp_time'
p655
F8.106231689453125e-05
sS'exec_cq'
p656
I1
sS'total_cq'
p657
I51
sa(dp658
g653
I1086
sg654
F2.4892828464508057
sg655
F0.00011396408081054688
sg656
I1
sg657
I49
sa(dp659
g653
I902
sg654
F14.199681043624878
sg655
F0.000308990478515625
sg656
I1
sg657
I47
sa(dp660
g653
I882
sg654
F0.4622678756713867
sg655
F0.00011110305786132812
sg656
I2
sg657
I44
sa(dp661
g653
I613
sg654
F1.035973072052002
sg655
F0.00012803077697753906
sg656
I2
sg657
I41
sa(dp662
g653
I451
sg654
F0.24324393272399902
sg655
F6.29425048828125e-05
sg656
I2
sg657
I35
sa(dp663
g653
I40
sg654
F0.07007288932800293
sg655
F6.008148193359375e-05
sg656
I1
sg657
I5
sa(dp664
g653
I42
sg654
F0.07143902778625488
sg655
F5.793571472167969e-05
sg656
I1
sg657
I3
sa(dp665
g653
I7
sg654
F5.50841498374939
sg655
F3.504753112792969e-05
sg656
I2
sg657
I2
sasS'total_cqs'
p666
I51
ssI58
(dp667
S'iters'
p668
I16
sS'meta'
p669
(lp670
(dp671
S'objective'
p672
I116039
sS'query_time'
p673
F0.6055679321289062
sS'comp_time'
p674
F0.0007338523864746094
sS'exec_cq'
p675
I2
sS'total_cq'
p676
I486
sa(dp677
g672
I114946
sg673
F2.6822400093078613
sg674
F0.0004119873046875
sg675
I2
sg676
I481
sa(dp678
g672
I114946
sg673
F3.2663111686706543
sg674
F0.0003879070281982422
sg675
I2
sg676
I478
sa(dp679
g672
I112319
sg673
F2.2522058486938477
sg674
F0.0003159046173095703
sg675
I3
sg676
I476
sa(dp680
g672
I100943
sg673
F2.28735613822937
sg674
F0.00037217140197753906
sg675
I4
sg676
I472
sa(dp681
g672
I105766
sg673
F1.6816868782043457
sg674
F0.0003631114959716797
sg675
I5
sg676
I445
sa(dp682
g672
I103395
sg673
F0.5229899883270264
sg674
F0.0002589225769042969
sg675
I5
sg676
I443
sa(dp683
g672
I104048
sg673
F1.8992419242858887
sg674
F0.0005269050598144531
sg675
I5
sg676
I437
sa(dp684
g672
I100026
sg673
F1.7755489349365234
sg674
F0.00032901763916015625
sg675
I5
sg676
I436
sa(dp685
g672
I101342
sg673
F5.149928092956543
sg674
F0.0003249645233154297
sg675
I9
sg676
I430
sa(dp686
g672
I100626
sg673
F2.8622779846191406
sg674
F0.0006937980651855469
sg675
I14
sg676
I429
sa(dp687
g672
I96609
sg673
F9.122218132019043
sg674
F0.01055288314819336
sg675
I16
sg676
I427
sa(dp688
g672
I89725
sg673
F1.8435370922088623
sg674
F0.00045108795166015625
sg675
I16
sg676
I418
sa(dp689
g672
I310
sg673
F0.18316888809204102
sg674
F7.891654968261719e-05
sg675
I1
sg676
I22
sa(dp690
g672
I1258
sg673
F0.6567800045013428
sg674
F4.100799560546875e-05
sg675
I1
sg676
I11
sa(dp691
g672
I968
sg673
F0.07554006576538086
sg674
F8.487701416015625e-05
sg675
I1
sg676
I9
sasS'total_cqs'
p692
I486
ssI59
(dp693
S'iters'
p694
I2
sS'meta'
p695
(lp696
(dp697
S'objective'
p698
I2
sS'query_time'
p699
F0.018424034118652344
sS'comp_time'
p700
F5.412101745605469e-05
sS'exec_cq'
p701
I1
sS'total_cq'
p702
I7
sa(dp703
g698
I1
sg699
F0.03824281692504883
sg700
F6.985664367675781e-05
sg701
I2
sg702
I2
sasS'total_cqs'
p704
I7
ssI60
(dp705
S'iters'
p706
I1
sS'meta'
p707
(lp708
(dp709
S'objective'
p710
I5
sS'query_time'
p711
F0.005731105804443359
sS'comp_time'
p712
F4.410743713378906e-05
sS'exec_cq'
p713
I1
sS'total_cq'
p714
I5
sasS'total_cqs'
p715
I5
ssI61
(dp716
S'iters'
p717
I0
sS'meta'
p718
(lp719
sS'total_cqs'
p720
I1
ssI62
(dp721
S'iters'
p722
I1
sS'meta'
p723
(lp724
(dp725
S'objective'
p726
I58
sS'query_time'
p727
F0.013047933578491211
sS'comp_time'
p728
F5.0067901611328125e-05
sS'exec_cq'
p729
I3
sS'total_cq'
p730
I12
sasS'total_cqs'
p731
I12
ssI63
(dp732
S'iters'
p733
I0
sS'meta'
p734
(lp735
sS'total_cqs'
p736
I1
ssI64
(dp737
S'iters'
p738
I3
sS'meta'
p739
(lp740
(dp741
S'objective'
p742
I54
sS'query_time'
p743
F0.14488506317138672
sS'comp_time'
p744
F6.508827209472656e-05
sS'exec_cq'
p745
I1
sS'total_cq'
p746
I12
sa(dp747
g742
I30
sg743
F0.0871729850769043
sg744
F4.8160552978515625e-05
sg745
I2
sg746
I11
sa(dp748
g742
I2
sg743
F0.012151002883911133
sg744
F3.409385681152344e-05
sg745
I1
sg746
I2
sasS'total_cqs'
p749
I12
ssI65
(dp750
S'iters'
p751
I4
sS'meta'
p752
(lp753
(dp754
S'objective'
p755
I324
sS'query_time'
p756
F0.052783966064453125
sS'comp_time'
p757
F7.700920104980469e-05
sS'exec_cq'
p758
I1
sS'total_cq'
p759
I27
sa(dp760
g755
I299
sg756
F0.08839178085327148
sg757
F0.0001239776611328125
sg758
I1
sg759
I26
sa(dp761
g755
I219
sg756
F0.08706283569335938
sg757
F9.393692016601562e-05
sg758
I2
sg759
I25
sa(dp762
g755
I228
sg756
F0.02961897850036621
sg757
F5.3882598876953125e-05
sg758
I2
sg759
I22
sasS'total_cqs'
p763
I27
ssI66
(dp764
S'iters'
p765
I0
sS'meta'
p766
(lp767
sS'total_cqs'
p768
I1
ssI67
(dp769
S'iters'
p770
I1
sS'meta'
p771
(lp772
(dp773
S'objective'
p774
I574
sS'query_time'
p775
F0.8697290420532227
sS'comp_time'
p776
F8.487701416015625e-05
sS'exec_cq'
p777
I8
sS'total_cq'
p778
I35
sasS'total_cqs'
p779
I35
ssI68
(dp780
S'iters'
p781
I0
sS'meta'
p782
(lp783
sS'total_cqs'
p784
I1
ssI69
(dp785
S'iters'
p786
I1
sS'meta'
p787
(lp788
(dp789
S'objective'
p790
I1246
sS'query_time'
p791
F0.10756301879882812
sS'comp_time'
p792
F9.799003601074219e-05
sS'exec_cq'
p793
I12
sS'total_cq'
p794
I51
sasS'total_cqs'
p795
I51
ssI70
(dp796
S'iters'
p797
I1
sS'meta'
p798
(lp799
(dp800
S'objective'
p801
I9
sS'query_time'
p802
F0.01942896842956543
sS'comp_time'
p803
F7.891654968261719e-05
sS'exec_cq'
p804
I1
sS'total_cq'
p805
I6
sasS'total_cqs'
p806
I6
ssI71
(dp807
S'iters'
p808
I4
sS'meta'
p809
(lp810
(dp811
S'objective'
p812
I3491
sS'query_time'
p813
F0.08258914947509766
sS'comp_time'
p814
F0.0001289844512939453
sS'exec_cq'
p815
I4
sS'total_cq'
p816
I85
sa(dp817
g812
I3219
sg813
F0.12564611434936523
sg814
F0.00011992454528808594
sg815
I17
sg816
I84
sa(dp818
g812
I3122
sg813
F0.08115196228027344
sg814
F9.417533874511719e-05
sg815
I18
sg816
I80
sa(dp819
g812
I7
sg813
F0.007673978805541992
sg814
F5.0067901611328125e-05
sg815
I2
sg816
I3
sasS'total_cqs'
p820
I85
ssI72
(dp821
S'iters'
p822
I2
sS'meta'
p823
(lp824
(dp825
S'objective'
p826
I14
sS'query_time'
p827
F0.0755469799041748
sS'comp_time'
p828
F6.794929504394531e-05
sS'exec_cq'
p829
I1
sS'total_cq'
p830
I8
sa(dp831
g826
I11
sg827
F0.007945060729980469
sg828
F5.412101745605469e-05
sg829
I1
sg830
I6
sasS'total_cqs'
p832
I8
ssI73
(dp833
S'iters'
p834
I0
sS'meta'
p835
(lp836
sS'total_cqs'
p837
I1
ssI74
(dp838
S'iters'
p839
I0
sS'meta'
p840
(lp841
sS'total_cqs'
p842
I1
ssI75
(dp843
S'iters'
p844
I1
sS'meta'
p845
(lp846
(dp847
S'objective'
p848
I5
sS'query_time'
p849
F0.004797935485839844
sS'comp_time'
p850
F3.695487976074219e-05
sS'exec_cq'
p851
I1
sS'total_cq'
p852
I5
sasS'total_cqs'
p853
I5
ssI76
(dp854
S'iters'
p855
I1
sS'meta'
p856
(lp857
(dp858
S'objective'
p859
I1
sS'query_time'
p860
F0.00874781608581543
sS'comp_time'
p861
F4.887580871582031e-05
sS'exec_cq'
p862
I1
sS'total_cq'
p863
I2
sasS'total_cqs'
p864
I2
ssI77
(dp865
S'iters'
p866
I0
sS'meta'
p867
(lp868
sS'total_cqs'
p869
I1
ssI78
(dp870
S'iters'
p871
I0
sS'meta'
p872
(lp873
sS'total_cqs'
p874
I1
ssI103
(dp875
S'iters'
p876
I1
sS'meta'
p877
(lp878
(dp879
S'objective'
p880
I58
sS'query_time'
p881
F0.04527997970581055
sS'comp_time'
p882
F7.987022399902344e-05
sS'exec_cq'
p883
I3
sS'total_cq'
p884
I12
sasS'total_cqs'
p885
I12
ssI104
(dp886
S'iters'
p887
I2
sS'meta'
p888
(lp889
(dp890
S'objective'
p891
I0
sS'query_time'
p892
F1.3289768695831299
sS'comp_time'
p893
F7.295608520507812e-05
sS'exec_cq'
p894
I1
sS'total_cq'
p895
I4
sa(dp896
g891
I3
sg892
F0.011374950408935547
sg893
F3.981590270996094e-05
sg894
I1
sg895
I2
sasS'total_cqs'
p897
I4
ssI105
(dp898
S'iters'
p899
I0
sS'meta'
p900
(lp901
sS'total_cqs'
p902
I1
ssI106
(dp903
S'iters'
p904
I1
sS'meta'
p905
(lp906
(dp907
S'objective'
p908
I2
sS'query_time'
p909
F0.015604019165039062
sS'comp_time'
p910
F7.891654968261719e-05
sS'exec_cq'
p911
I1
sS'total_cq'
p912
I4
sasS'total_cqs'
p913
I4
ssI107
(dp914
S'iters'
p915
I1
sS'meta'
p916
(lp917
(dp918
S'objective'
p919
I110
sS'query_time'
p920
F0.05835914611816406
sS'comp_time'
p921
F0.000102996826171875
sS'exec_cq'
p922
I4
sS'total_cq'
p923
I16
sasS'total_cqs'
p924
I16
ssI108
(dp925
S'iters'
p926
I0
sS'meta'
p927
(lp928
sS'total_cqs'
p929
I1
ss.