(dp0
I1
(dp1
S'iters'
p2
I4
sS'meta'
p3
(lp4
(dp5
S'objective'
p6
I56
sS'query_time'
p7
F0.08425498008728027
sS'comp_time'
p8
F0.027109861373901367
sS'exec_cq'
p9
I12
sS'total_cq'
p10
I12
sa(dp11
g6
I49
sg7
F7.200241088867188e-05
sg8
F0.00018310546875
sg9
I10
sg10
I10
sa(dp12
g6
I44
sg7
F6.699562072753906e-05
sg8
F0.00014162063598632812
sg9
I9
sg10
I9
sa(dp13
g6
I43
sg7
F6.103515625e-05
sg8
F0.00010395050048828125
sg9
I8
sg10
I8
sasS'total_cqs'
p14
I12
ssI2
(dp15
S'iters'
p16
I6
sS'meta'
p17
(lp18
(dp19
S'objective'
p20
I268
sS'query_time'
p21
F0.2575709819793701
sS'comp_time'
p22
F0.032346248626708984
sS'exec_cq'
p23
I27
sS'total_cq'
p24
I27
sa(dp25
g20
I221
sg21
F0.0002422332763671875
sg22
F0.0007030963897705078
sg23
I23
sg24
I23
sa(dp26
g20
I200
sg21
F0.00021910667419433594
sg22
F0.0007402896881103516
sg23
I21
sg24
I21
sa(dp27
g20
I190
sg21
F9.822845458984375e-05
sg22
F0.0003483295440673828
sg23
I18
sg24
I18
sa(dp28
g20
I177
sg21
F0.00010395050048828125
sg22
F0.0003292560577392578
sg23
I17
sg24
I17
sa(dp29
g20
I179
sg21
F9.489059448242188e-05
sg22
F0.00019097328186035156
sg23
I15
sg24
I15
sasS'total_cqs'
p30
I27
ssI3
(dp31
S'iters'
p32
I4
sS'meta'
p33
(lp34
(dp35
S'objective'
p36
I576
sS'query_time'
p37
F228.46901607513428
sS'comp_time'
p38
F2.019667625427246
sS'exec_cq'
p39
I39
sS'total_cq'
p40
I43
sa(dp41
g36
I449
sg37
F0.6882729530334473
sg38
F2.042506456375122
sg39
I31
sg40
I35
sa(dp42
g36
I485
sg37
F0.11025404930114746
sg38
F0.5145382881164551
sg39
I24
sg40
I28
sa(dp43
g36
I521
sg37
F11.293185234069824
sg38
F0.00022864341735839844
sg39
I25
sg40
I25
sasS'total_cqs'
p44
I43
ssI4
(dp45
S'iters'
p46
I2
sS'meta'
p47
(lp48
(dp49
S'objective'
p50
I40
sS'query_time'
p51
F4.73428201675415
sS'comp_time'
p52
F0.3311891555786133
sS'exec_cq'
p53
I11
sS'total_cq'
p54
I11
sa(dp55
g50
I5
sg51
F0.23376011848449707
sg52
F0.25609731674194336
sg53
I2
sg54
I2
sasS'total_cqs'
p56
I11
ssI5
(dp57
S'iters'
p58
I3
sS'meta'
p59
(lp60
(dp61
S'objective'
p62
I0
sS'query_time'
p63
F33.851075172424316
sS'comp_time'
p64
F3.0782339572906494
sS'exec_cq'
p65
I8
sS'total_cq'
p66
I8
sa(dp67
g62
I2
sg63
F0.013031959533691406
sg64
F0.022906780242919922
sg65
I3
sg66
I3
sa(dp68
g62
I4
sg63
F0.007258176803588867
sg64
F0.015522956848144531
sg65
I2
sg66
I2
sasS'total_cqs'
p69
I8
ssI6
(dp70
S'iters'
p71
I4
sS'meta'
p72
(lp73
(dp74
S'objective'
p75
I63
sS'query_time'
p76
F37.17513704299927
sS'comp_time'
p77
F1.8544647693634033
sS'exec_cq'
p78
I18
sS'total_cq'
p79
I18
sa(dp80
g75
I0
sg76
F0.7457120418548584
sg77
F9.837754249572754
sg78
I7
sg79
I7
sa(dp81
g75
I1
sg76
F0.4659700393676758
sg77
F1.2540137767791748
sg78
I4
sg79
I4
sa(dp82
g75
I1
sg76
F0.22348809242248535
sg77
F0.4896070957183838
sg78
I2
sg79
I2
sasS'total_cqs'
p83
I18
ssI7
(dp84
S'iters'
p85
I4
sS'meta'
p86
(lp87
(dp88
S'objective'
p89
I1
sS'query_time'
p90
F12.603562116622925
sS'comp_time'
p91
F1.3139019012451172
sS'exec_cq'
p92
I9
sS'total_cq'
p93
I9
sa(dp94
g89
I1
sg90
F0.32355499267578125
sg91
F1.0393359661102295
sg92
I6
sg93
I6
sa(dp95
g89
I0
sg90
F0.03275609016418457
sg91
F0.1830005645751953
sg92
I3
sg93
I3
sa(dp96
g89
I2
sg90
F0.025797128677368164
sg91
F0.04719877243041992
sg92
I2
sg93
I2
sasS'total_cqs'
p97
I9
ssI8
(dp98
S'iters'
p99
I4
sS'meta'
p100
(lp101
(dp102
S'objective'
p103
I214
sS'query_time'
p104
F0.25272178649902344
sS'comp_time'
p105
F0.024028301239013672
sS'exec_cq'
p106
I27
sS'total_cq'
p107
I27
sa(dp108
g103
I194
sg104
F0.00020003318786621094
sg105
F0.0007028579711914062
sg106
I22
sg107
I22
sa(dp109
g103
I203
sg104
F9.298324584960938e-05
sg105
F0.0002613067626953125
sg106
I19
sg107
I19
sa(dp110
g103
I208
sg104
F9.202957153320312e-05
sg105
F0.00015091896057128906
sg106
I18
sg107
I18
sasS'total_cqs'
p111
I27
ssI9
(dp112
S'iters'
p113
I3
sS'meta'
p114
(lp115
(dp116
S'objective'
p117
I6
sS'query_time'
p118
F0.053933143615722656
sS'comp_time'
p119
F0.005433797836303711
sS'exec_cq'
p120
I7
sS'total_cq'
p121
I7
sa(dp122
g117
I3
sg118
F0.0017850399017333984
sg119
F0.0006513595581054688
sg120
I5
sg121
I5
sa(dp123
g117
I4
sg118
F2.002716064453125e-05
sg119
F0.00011277198791503906
sg120
I2
sg121
I2
sasS'total_cqs'
p124
I7
ssI10
(dp125
S'iters'
p126
I6
sS'meta'
p127
(lp128
(dp129
S'objective'
p130
I532
sS'query_time'
p131
F0.3669412136077881
sS'comp_time'
p132
F0.0966653823852539
sS'exec_cq'
p133
I51
sS'total_cq'
p134
I51
sa(dp135
g130
I339
sg131
F0.00044608116149902344
sg132
F0.0033159255981445312
sg133
I37
sg134
I37
sa(dp136
g130
I476
sg131
F0.0002200603485107422
sg132
F0.0013508796691894531
sg133
I25
sg134
I25
sa(dp137
g130
I423
sg131
F0.0001049041748046875
sg132
F0.00042319297790527344
sg133
I21
sg134
I21
sa(dp138
g130
I24
sg131
F0.0011219978332519531
sg132
F0.00031304359436035156
sg133
I3
sg134
I3
sa(dp139
g130
I7
sg131
F1.5020370483398438e-05
sg132
F8.082389831542969e-05
sg133
I2
sg134
I2
sasS'total_cqs'
p140
I51
ssI11
(dp141
S'iters'
p142
I6
sS'meta'
p143
(lp144
(dp145
S'objective'
p146
I978
sS'query_time'
p147
F0.5191328525543213
sS'comp_time'
p148
F0.15426301956176758
sS'exec_cq'
p149
I63
sS'total_cq'
p150
I63
sa(dp151
g146
I831
sg147
F0.0012459754943847656
sg148
F0.005106925964355469
sg149
I47
sg150
I47
sa(dp152
g146
I17
sg147
F0.0015230178833007812
sg148
F0.0031299591064453125
sg149
I9
sg150
I9
sa(dp153
g146
I18
sg147
F0.00014781951904296875
sg148
F0.0009987354278564453
sg149
I5
sg150
I5
sa(dp154
g146
I34
sg147
F0.00011992454528808594
sg148
F0.0004837512969970703
sg149
I3
sg150
I3
sa(dp155
g146
I18
sg147
F1.6927719116210938e-05
sg148
F8.487701416015625e-05
sg149
I2
sg150
I2
sasS'total_cqs'
p156
I63
ssI12
(dp157
S'iters'
p158
I6
sS'meta'
p159
(lp160
(dp161
S'objective'
p162
I477
sS'query_time'
p163
F0.36295294761657715
sS'comp_time'
p164
F0.09456753730773926
sS'exec_cq'
p165
I50
sS'total_cq'
p166
I50
sa(dp167
g162
I430
sg163
F0.0004699230194091797
sg164
F0.002744913101196289
sg165
I33
sg166
I33
sa(dp168
g162
I3
sg163
F0.00538182258605957
sg164
F0.0015420913696289062
sg165
I8
sg166
I8
sa(dp169
g162
I5
sg163
F8.702278137207031e-05
sg164
F0.0004642009735107422
sg165
I5
sg166
I5
sa(dp170
g162
I20
sg163
F5.698204040527344e-05
sg164
F0.00025391578674316406
sg165
I3
sg166
I3
sa(dp171
g162
I9
sg163
F1.5020370483398438e-05
sg164
F7.915496826171875e-05
sg165
I2
sg166
I2
sasS'total_cqs'
p172
I50
ssI13
(dp173
S'iters'
p174
I3
sS'meta'
p175
(lp176
(dp177
S'objective'
p178
I48
sS'query_time'
p179
F0.15250396728515625
sS'comp_time'
p180
F0.04013800621032715
sS'exec_cq'
p181
I20
sS'total_cq'
p182
I20
sa(dp183
g178
I45
sg179
F7.414817810058594e-05
sg180
F0.0005099773406982422
sg181
I9
sg182
I9
sa(dp184
g178
I6
sg179
F0.0017659664154052734
sg180
F0.0002238750457763672
sg181
I2
sg182
I2
sasS'total_cqs'
p185
I20
ssI14
(dp186
S'iters'
p187
I3
sS'meta'
p188
(lp189
(dp190
S'objective'
p191
I1
sS'query_time'
p192
F33.10383987426758
sS'comp_time'
p193
F0.7321658134460449
sS'exec_cq'
p194
I9
sS'total_cq'
p195
I9
sa(dp196
g191
I0
sg192
F0.2791881561279297
sg193
F0.5282676219940186
sg194
I5
sg195
I5
sa(dp197
g191
I3
sg192
F0.0721588134765625
sg193
F0.3981046676635742
sg194
I2
sg195
I2
sasS'total_cqs'
p198
I9
ssI15
(dp199
S'iters'
p200
I3
sS'meta'
p201
(lp202
(dp203
S'objective'
p204
I2
sS'query_time'
p205
F4.230957984924316
sS'comp_time'
p206
F0.1573178768157959
sS'exec_cq'
p207
I11
sS'total_cq'
p208
I11
sa(dp209
g204
I8
sg205
F0.0011980533599853516
sg206
F0.002245664596557617
sg207
I6
sg208
I6
sa(dp210
g204
I4
sg205
F0.0008549690246582031
sg206
F0.001216888427734375
sg207
I2
sg208
I2
sasS'total_cqs'
p211
I11
ssI16
(dp212
S'iters'
p213
I1
sS'meta'
p214
(lp215
(dp216
S'objective'
p217
I30
sS'query_time'
p218
F0.022037029266357422
sS'comp_time'
p219
F0.004164695739746094
sS'exec_cq'
p220
I8
sS'total_cq'
p221
I8
sasS'total_cqs'
p222
I8
ssI17
(dp223
S'iters'
p224
I3
sS'meta'
p225
(lp226
(dp227
S'objective'
p228
I0
sS'query_time'
p229
F1.1021709442138672
sS'comp_time'
p230
F0.049736738204956055
sS'exec_cq'
p231
I11
sS'total_cq'
p232
I11
sa(dp233
g228
I3
sg229
F0.0078051090240478516
sg230
F0.009099245071411133
sg231
I4
sg232
I4
sa(dp234
g228
I7
sg229
F0.0024039745330810547
sg230
F0.004101753234863281
sg231
I2
sg232
I2
sasS'total_cqs'
p235
I11
ssI18
(dp236
S'iters'
p237
I3
sS'meta'
p238
(lp239
(dp240
S'objective'
p241
I28
sS'query_time'
p242
F0.27244114875793457
sS'comp_time'
p243
F0.027245044708251953
sS'exec_cq'
p244
I11
sS'total_cq'
p245
I11
sa(dp246
g241
I33
sg242
F0.00026297569274902344
sg243
F0.0006690025329589844
sg244
I9
sg245
I9
sa(dp247
g241
I32
sg242
F3.504753112792969e-05
sg243
F7.581710815429688e-05
sg244
I6
sg245
I7
sasS'total_cqs'
p248
I11
ssI19
(dp249
S'iters'
p250
I0
sS'meta'
p251
(lp252
sS'total_cqs'
p253
I1
ssI20
(dp254
S'iters'
p255
I0
sS'meta'
p256
(lp257
sS'total_cqs'
p258
I1
ssI21
(dp259
S'iters'
p260
I0
sS'meta'
p261
(lp262
sS'total_cqs'
p263
I1
ssI22
(dp264
S'iters'
p265
I1
sS'meta'
p266
(lp267
(dp268
S'objective'
p269
I159
sS'query_time'
p270
F0.05277609825134277
sS'comp_time'
p271
F0.029098987579345703
sS'exec_cq'
p272
I18
sS'total_cq'
p273
I18
sasS'total_cqs'
p274
I18
ssI23
(dp275
S'iters'
p276
I3
sS'meta'
p277
(lp278
(dp279
S'objective'
p280
I116
sS'query_time'
p281
F0.09102582931518555
sS'comp_time'
p282
F0.024859905242919922
sS'exec_cq'
p283
I16
sS'total_cq'
p284
I16
sa(dp285
g280
I108
sg281
F7.295608520507812e-05
sg282
F0.00013184547424316406
sg283
I15
sg284
I15
sa(dp286
g280
I107
sg281
F5.173683166503906e-05
sg282
F8.630752563476562e-05
sg283
I13
sg284
I13
sasS'total_cqs'
p287
I16
ssI24
(dp288
S'iters'
p289
I0
sS'meta'
p290
(lp291
sS'total_cqs'
p292
I1
ssI25
(dp293
S'iters'
p294
I0
sS'meta'
p295
(lp296
sS'total_cqs'
p297
I1
ssI26
(dp298
S'iters'
p299
I1
sS'meta'
p300
(lp301
(dp302
S'objective'
p303
I879
sS'query_time'
p304
F0.1174468994140625
sS'comp_time'
p305
F0.11610603332519531
sS'exec_cq'
p306
I42
sS'total_cq'
p307
I42
sasS'total_cqs'
p308
I42
ssI27
(dp309
S'iters'
p310
I4
sS'meta'
p311
(lp312
(dp313
S'objective'
p314
I273
sS'query_time'
p315
F21.196051836013794
sS'comp_time'
p316
F2.037179470062256
sS'exec_cq'
p317
I30
sS'total_cq'
p318
I30
sa(dp319
g314
I8
sg315
F0.6157360076904297
sg316
F2.210477113723755
sg317
I5
sg318
I5
sa(dp320
g314
I14
sg315
F0.2182331085205078
sg316
F0.4791841506958008
sg317
I3
sg318
I3
sa(dp321
g314
I3
sg315
F0.028801918029785156
sg316
F0.06730794906616211
sg317
I2
sg318
I2
sasS'total_cqs'
p322
I30
ssI28
(dp323
S'iters'
p324
I0
sS'meta'
p325
(lp326
sS'total_cqs'
p327
I1
ssI29
(dp328
S'iters'
p329
I5
sS'meta'
p330
(lp331
(dp332
S'objective'
p333
I281
sS'query_time'
p334
F28.20042085647583
sS'comp_time'
p335
F0.3865780830383301
sS'exec_cq'
p336
I35
sS'total_cq'
p337
I49
sa(dp338
g333
I2
sg334
F0.05753612518310547
sg335
F0.34613895416259766
sg336
I17
sg337
I17
sa(dp339
g333
I7
sg334
F0.05694699287414551
sg335
F0.6823554039001465
sg336
I9
sg337
I9
sa(dp340
g333
I2
sg334
F0.0069620609283447266
sg335
F0.013557910919189453
sg336
I5
sg337
I5
sa(dp341
g333
I30
sg334
F0.0016739368438720703
sg335
F0.0024454593658447266
sg336
I2
sg337
I2
sasS'total_cqs'
p342
I49
ssI30
(dp343
S'iters'
p344
I1
sS'meta'
p345
(lp346
(dp347
S'objective'
p348
I1
sS'query_time'
p349
F0.6464319229125977
sS'comp_time'
p350
F0.020740032196044922
sS'exec_cq'
p351
I2
sS'total_cq'
p352
I2
sasS'total_cqs'
p353
I2
ssI31
(dp354
S'iters'
p355
I0
sS'meta'
p356
(lp357
sS'total_cqs'
p358
I1
ssI32
(dp359
S'iters'
p360
I1
sS'meta'
p361
(lp362
(dp363
S'objective'
p364
I1
sS'query_time'
p365
F0.009776115417480469
sS'comp_time'
p366
F0.0014693737030029297
sS'exec_cq'
p367
I2
sS'total_cq'
p368
I2
sasS'total_cqs'
p369
I2
ssI33
(dp370
S'iters'
p371
I6
sS'meta'
p372
(lp373
(dp374
S'objective'
p375
I3452
sS'query_time'
p376
F17.64166784286499
sS'comp_time'
p377
F0.9393980503082275
sS'exec_cq'
p378
I103
sS'total_cq'
p379
I103
sa(dp380
g375
I14
sg376
F0.008029937744140625
sg377
F0.06920361518859863
sg378
I16
sg379
I16
sa(dp381
g375
I25
sg376
F0.00351715087890625
sg377
F0.01892256736755371
sg378
I9
sg379
I9
sa(dp382
g375
I5
sg376
F0.001463174819946289
sg377
F0.0023958683013916016
sg378
I5
sg379
I5
sa(dp383
g375
I45
sg376
F0.0008869171142578125
sg377
F0.0014259815216064453
sg378
I3
sg379
I3
sa(dp384
g375
I18
sg376
F0.00022721290588378906
sg377
F0.0005249977111816406
sg378
I2
sg379
I2
sasS'total_cqs'
p385
I103
ssI34
(dp386
S'iters'
p387
I1
sS'meta'
p388
(lp389
(dp390
S'objective'
p391
I1
sS'query_time'
p392
F0.025650978088378906
sS'comp_time'
p393
F0.0018520355224609375
sS'exec_cq'
p394
I2
sS'total_cq'
p395
I2
sasS'total_cqs'
p396
I2
ssI35
(dp397
S'iters'
p398
I6
sS'meta'
p399
(lp400
(dp401
S'objective'
p402
I1215
sS'query_time'
p403
F67.62075281143188
sS'comp_time'
p404
F2.9129574298858643
sS'exec_cq'
p405
I70
sS'total_cq'
p406
I70
sa(dp407
g402
I9
sg403
F0.004431962966918945
sg404
F0.009713411331176758
sg405
I16
sg406
I16
sa(dp408
g402
I10
sg403
F0.002354145050048828
sg404
F0.007406949996948242
sg405
I10
sg406
I10
sa(dp409
g402
I28
sg403
F0.0020608901977539062
sg404
F0.004730224609375
sg405
I7
sg406
I7
sa(dp410
g402
I3
sg403
F0.0011141300201416016
sg404
F0.002515077590942383
sg405
I5
sg406
I5
sa(dp411
g402
I9
sg403
F0.0006840229034423828
sg404
F0.0010561943054199219
sg405
I3
sg406
I3
sasS'total_cqs'
p412
I70
ssI36
(dp413
S'iters'
p414
I4
sS'meta'
p415
(lp416
(dp417
S'objective'
p418
I477
sS'query_time'
p419
F0.7637760639190674
sS'comp_time'
p420
F0.15675115585327148
sS'exec_cq'
p421
I33
sS'total_cq'
p422
I33
sa(dp423
g418
I451
sg419
F0.006699085235595703
sg420
F0.016551971435546875
sg421
I29
sg422
I29
sa(dp424
g418
I431
sg419
F0.0025229454040527344
sg420
F0.003919124603271484
sg421
I25
sg422
I25
sa(dp425
g418
I438
sg419
F0.0012722015380859375
sg420
F0.0016868114471435547
sg421
I24
sg422
I24
sasS'total_cqs'
p426
I33
ssI37
(dp427
S'iters'
p428
I1
sS'meta'
p429
(lp430
(dp431
S'objective'
p432
I1
sS'query_time'
p433
F0.054869890213012695
sS'comp_time'
p434
F0.0015382766723632812
sS'exec_cq'
p435
I2
sS'total_cq'
p436
I2
sasS'total_cqs'
p437
I2
ssI38
(dp438
S'iters'
p439
I2
sS'meta'
p440
(lp441
(dp442
S'objective'
p443
I0
sS'query_time'
p444
F0.09148812294006348
sS'comp_time'
p445
F0.0039920806884765625
sS'exec_cq'
p446
I4
sS'total_cq'
p447
I4
sa(dp448
g443
I1
sg444
F7.796287536621094e-05
sg445
F0.00019311904907226562
sg446
I2
sg447
I2
sasS'total_cqs'
p449
I4
ssI39
(dp450
S'iters'
p451
I2
sS'meta'
p452
(lp453
(dp454
S'objective'
p455
I598
sS'query_time'
p456
F0.14043307304382324
sS'comp_time'
p457
F0.110504150390625
sS'exec_cq'
p458
I44
sS'total_cq'
p459
I44
sa(dp460
g455
I770
sg456
F0.00032401084899902344
sg457
F0.0008971691131591797
sg458
I37
sg459
I37
sasS'total_cqs'
p461
I44
ssI40
(dp462
S'iters'
p463
I1
sS'meta'
p464
(lp465
(dp466
S'objective'
p467
I22
sS'query_time'
p468
F0.14269280433654785
sS'comp_time'
p469
F0.005815029144287109
sS'exec_cq'
p470
I7
sS'total_cq'
p471
I7
sasS'total_cqs'
p472
I7
ssI41
(dp473
S'iters'
p474
I2
sS'meta'
p475
(lp476
(dp477
S'objective'
p478
I62
sS'query_time'
p479
F0.0731499195098877
sS'comp_time'
p480
F0.024475812911987305
sS'exec_cq'
p481
I12
sS'total_cq'
p482
I12
sa(dp483
g478
I62
sg479
F7.605552673339844e-05
sg480
F0.0001232624053955078
sg481
I11
sg482
I11
sasS'total_cqs'
p484
I12
ssI42
(dp485
S'iters'
p486
I4
sS'meta'
p487
(lp488
(dp489
S'objective'
p490
I787
sS'query_time'
p491
F0.17951202392578125
sS'comp_time'
p492
F0.07251882553100586
sS'exec_cq'
p493
I41
sS'total_cq'
p494
I41
sa(dp495
g490
I774
sg491
F0.00020003318786621094
sg492
F0.0002598762512207031
sg493
I40
sg494
I40
sa(dp496
g490
I755
sg491
F0.0001728534698486328
sg492
F0.0002238750457763672
sg493
I39
sg494
I39
sa(dp497
g490
I753
sg491
F0.00016808509826660156
sg492
F0.00014066696166992188
sg493
I38
sg494
I38
sasS'total_cqs'
p498
I41
ssI43
(dp499
S'iters'
p500
I1
sS'meta'
p501
(lp502
(dp503
S'objective'
p504
I22
sS'query_time'
p505
F0.02633500099182129
sS'comp_time'
p506
F0.010769844055175781
sS'exec_cq'
p507
I7
sS'total_cq'
p508
I7
sasS'total_cqs'
p509
I7
ssI44
(dp510
S'iters'
p511
I4
sS'meta'
p512
(lp513
(dp514
S'objective'
p515
I760
sS'query_time'
p516
F0.19044709205627441
sS'comp_time'
p517
F0.17592787742614746
sS'exec_cq'
p518
I47
sS'total_cq'
p519
I47
sa(dp520
g515
I780
sg516
F0.0002579689025878906
sg517
F0.0009541511535644531
sg518
I40
sg519
I40
sa(dp521
g515
I6
sg516
F0.0017092227935791016
sg517
F0.0012960433959960938
sg518
I3
sg519
I3
sa(dp522
g515
I12
sg516
F3.4809112548828125e-05
sg517
F0.00015234947204589844
sg518
I2
sg519
I2
sasS'total_cqs'
p523
I47
ssI45
(dp524
S'iters'
p525
I0
sS'meta'
p526
(lp527
sS'total_cqs'
p528
I1
ssI46
(dp529
S'iters'
p530
I2
sS'meta'
p531
(lp532
(dp533
S'objective'
p534
I11
sS'query_time'
p535
F0.01916790008544922
sS'comp_time'
p536
F0.002580881118774414
sS'exec_cq'
p537
I6
sS'total_cq'
p538
I6
sa(dp539
g534
I10
sg535
F6.222724914550781e-05
sg536
F0.0001430511474609375
sg537
I5
sg538
I5
sasS'total_cqs'
p540
I6
ssI47
(dp541
S'iters'
p542
I1
sS'meta'
p543
(lp544
(dp545
S'objective'
p546
I1
sS'query_time'
p547
F0.009680032730102539
sS'comp_time'
p548
F0.0011022090911865234
sS'exec_cq'
p549
I2
sS'total_cq'
p550
I2
sasS'total_cqs'
p551
I2
ssI48
(dp552
S'iters'
p553
I0
sS'meta'
p554
(lp555
sS'total_cqs'
p556
I1
ssI49
(dp557
S'iters'
p558
I0
sS'meta'
p559
(lp560
sS'total_cqs'
p561
I1
ssI50
(dp562
S'iters'
p563
I3
sS'meta'
p564
(lp565
(dp566
S'objective'
p567
I5
sS'query_time'
p568
F0.01395106315612793
sS'comp_time'
p569
F0.002672433853149414
sS'exec_cq'
p570
I5
sS'total_cq'
p571
I5
sa(dp572
g567
I2
sg568
F2.9087066650390625e-05
sg569
F0.00013375282287597656
sg570
I4
sg571
I4
sa(dp573
g567
I0
sg568
F2.288818359375e-05
sg569
F0.00010919570922851562
sg570
I3
sg571
I3
sasS'total_cqs'
p574
I5
ssI51
(dp575
S'iters'
p576
I1
sS'meta'
p577
(lp578
(dp579
S'objective'
p580
I1
sS'query_time'
p581
F0.009582042694091797
sS'comp_time'
p582
F0.0017039775848388672
sS'exec_cq'
p583
I2
sS'total_cq'
p584
I2
sasS'total_cqs'
p585
I2
ssI52
(dp586
S'iters'
p587
I1
sS'meta'
p588
(lp589
(dp590
S'objective'
p591
I1
sS'query_time'
p592
F0.009684085845947266
sS'comp_time'
p593
F0.0010619163513183594
sS'exec_cq'
p594
I2
sS'total_cq'
p595
I2
sasS'total_cqs'
p596
I2
ssI53
(dp597
S'iters'
p598
I3
sS'meta'
p599
(lp600
(dp601
S'objective'
p602
I2
sS'query_time'
p603
F0.05648183822631836
sS'comp_time'
p604
F0.0032401084899902344
sS'exec_cq'
p605
I4
sS'total_cq'
p606
I4
sa(dp607
g602
I0
sg603
F0.0001010894775390625
sg604
F0.0003490447998046875
sg605
I3
sg606
I3
sa(dp608
g602
I1
sg603
F8.487701416015625e-05
sg604
F0.0001990795135498047
sg605
I2
sg606
I2
sasS'total_cqs'
p609
I4
ssI54
(dp610
S'iters'
p611
I2
sS'meta'
p612
(lp613
(dp614
S'objective'
p615
I0
sS'query_time'
p616
F0.016933917999267578
sS'comp_time'
p617
F0.0017690658569335938
sS'exec_cq'
p618
I3
sS'total_cq'
p619
I3
sa(dp620
g615
I1
sg616
F6.580352783203125e-05
sg617
F0.00018405914306640625
sg618
I2
sg619
I2
sasS'total_cqs'
p621
I3
ssI55
(dp622
S'iters'
p623
I9
sS'meta'
p624
(lp625
(dp626
S'objective'
p627
I4527
sS'query_time'
p628
F2.495244026184082
sS'comp_time'
p629
F0.9201819896697998
sS'exec_cq'
p630
I109
sS'total_cq'
p631
I109
sa(dp632
g627
I4645
sg628
F0.0009360313415527344
sg629
F0.00454401969909668
sg630
I97
sg631
I97
sa(dp633
g627
I4533
sg628
F0.0004279613494873047
sg629
F0.0016431808471679688
sg630
I91
sg631
I91
sa(dp634
g627
I4499
sg628
F0.00043010711669921875
sg629
F0.0015180110931396484
sg630
I87
sg631
I87
sa(dp635
g627
I4395
sg628
F0.0003609657287597656
sg629
F0.0008881092071533203
sg630
I85
sg631
I85
sa(dp636
g627
I4296
sg628
F0.0003612041473388672
sg629
F0.0008013248443603516
sg630
I83
sg631
I83
sa(dp637
g627
I4228
sg628
F0.0003681182861328125
sg629
F0.0006783008575439453
sg630
I82
sg631
I82
sa(dp638
g627
I4237
sg628
F0.00032901763916015625
sg629
F0.0005321502685546875
sg630
I80
sg631
I80
sa(dp639
g627
I4218
sg628
F0.00030803680419921875
sg629
F0.00044226646423339844
sg630
I79
sg631
I79
sasS'total_cqs'
p640
I109
ssI56
(dp641
S'iters'
p642
I6
sS'meta'
p643
(lp644
(dp645
S'objective'
p646
I1838
sS'query_time'
p647
F1.5823390483856201
sS'comp_time'
p648
F0.3674609661102295
sS'exec_cq'
p649
I67
sS'total_cq'
p650
I76
sa(dp651
g646
I10
sg647
F0.007222175598144531
sg648
F0.10960102081298828
sg649
I16
sg650
I16
sa(dp652
g646
I9
sg647
F0.0032601356506347656
sg648
F0.00927114486694336
sg649
I9
sg650
I9
sa(dp653
g646
I1
sg647
F0.0017940998077392578
sg648
F0.003434896469116211
sg649
I6
sg650
I6
sa(dp654
g646
I14
sg647
F0.0009889602661132812
sg648
F0.001653909683227539
sg649
I3
sg650
I3
sa(dp655
g646
I3
sg647
F0.0008640289306640625
sg648
F0.0012898445129394531
sg649
I2
sg650
I2
sasS'total_cqs'
p656
I76
ssI57
(dp657
S'iters'
p658
I6
sS'meta'
p659
(lp660
(dp661
S'objective'
p662
I112
sS'query_time'
p663
F23.680755853652954
sS'comp_time'
p664
F0.16326332092285156
sS'exec_cq'
p665
I45
sS'total_cq'
p666
I51
sa(dp667
g662
I15
sg663
F0.016656875610351562
sg664
F0.08678197860717773
sg665
I27
sg666
I27
sa(dp668
g662
I7
sg663
F0.01553201675415039
sg664
F0.06585836410522461
sg665
I18
sg666
I18
sa(dp669
g662
I0
sg663
F0.01020503044128418
sg664
F0.17907977104187012
sg665
I10
sg666
I10
sa(dp670
g662
I8
sg663
F0.002483844757080078
sg664
F0.0033745765686035156
sg665
I4
sg666
I4
sa(dp671
g662
I6
sg663
F0.0019659996032714844
sg664
F0.0029540061950683594
sg665
I3
sg666
I3
sasS'total_cqs'
p672
I51
ssI58
(dp673
S'iters'
p674
I7
sS'meta'
p675
(lp676
(dp677
S'objective'
p678
I80811
sS'query_time'
p679
F323.2049310207367
sS'comp_time'
p680
F24.750829458236694
sS'exec_cq'
p681
I486
sS'total_cq'
p682
I486
sa(dp683
g678
I86700
sg679
F5.526448965072632
sg680
F9.417914628982544
sg681
I414
sg682
I414
sa(dp684
g678
I6
sg679
F0.01604604721069336
sg680
F0.7196393013000488
sg681
I28
sg682
I28
sa(dp685
g678
I14
sg679
F0.008954048156738281
sg680
F0.07487010955810547
sg681
I10
sg682
I10
sa(dp686
g678
I3
sg679
F0.0018191337585449219
sg680
F0.0053234100341796875
sg681
I5
sg682
I5
sa(dp687
g678
I73
sg679
F0.0011870861053466797
sg680
F0.0017375946044921875
sg681
I3
sg682
I3
sa(dp688
g678
I195
sg679
F0.0003731250762939453
sg680
F0.000453948974609375
sg681
I2
sg682
I2
sasS'total_cqs'
p689
I486
ssI59
(dp690
S'iters'
p691
I2
sS'meta'
p692
(lp693
(dp694
S'objective'
p695
I14
sS'query_time'
p696
F0.05711197853088379
sS'comp_time'
p697
F0.007972955703735352
sS'exec_cq'
p698
I7
sS'total_cq'
p699
I7
sa(dp700
g695
I1
sg696
F0.0001628398895263672
sg697
F0.0003948211669921875
sg698
I2
sg699
I2
sasS'total_cqs'
p701
I7
ssI60
(dp702
S'iters'
p703
I2
sS'meta'
p704
(lp705
(dp706
S'objective'
p707
I5
sS'query_time'
p708
F0.016827821731567383
sS'comp_time'
p709
F0.003221273422241211
sS'exec_cq'
p710
I4
sS'total_cq'
p711
I5
sa(dp712
g707
I4
sg708
F0.002476930618286133
sg709
F0.00018072128295898438
sg710
I4
sg711
I4
sasS'total_cqs'
p713
I5
ssI61
(dp714
S'iters'
p715
I0
sS'meta'
p716
(lp717
sS'total_cqs'
p718
I1
ssI62
(dp719
S'iters'
p720
I3
sS'meta'
p721
(lp722
(dp723
S'objective'
p724
I30
sS'query_time'
p725
F0.048558950424194336
sS'comp_time'
p726
F0.01781487464904785
sS'exec_cq'
p727
I12
sS'total_cq'
p728
I12
sa(dp729
g724
I40
sg725
F5.0067901611328125e-05
sg726
F0.00014591217041015625
sg727
I9
sg728
I9
sa(dp730
g724
I39
sg725
F3.2901763916015625e-05
sg726
F7.033348083496094e-05
sg727
I8
sg728
I8
sasS'total_cqs'
p731
I12
ssI63
(dp732
S'iters'
p733
I0
sS'meta'
p734
(lp735
sS'total_cqs'
p736
I1
ssI64
(dp737
S'iters'
p738
I4
sS'meta'
p739
(lp740
(dp741
S'objective'
p742
I36
sS'query_time'
p743
F0.11522102355957031
sS'comp_time'
p744
F0.01881265640258789
sS'exec_cq'
p745
I12
sS'total_cq'
p746
I12
sa(dp747
g742
I3
sg743
F0.0001049041748046875
sg744
F0.0005030632019042969
sg745
I4
sg746
I4
sa(dp748
g742
I2
sg743
F6.890296936035156e-05
sg744
F0.00021696090698242188
sg745
I3
sg746
I3
sa(dp749
g742
I1
sg743
F2.5987625122070312e-05
sg744
F9.72747802734375e-05
sg745
I2
sg746
I2
sasS'total_cqs'
p750
I12
ssI65
(dp751
S'iters'
p752
I4
sS'meta'
p753
(lp754
(dp755
S'objective'
p756
I208
sS'query_time'
p757
F0.8792808055877686
sS'comp_time'
p758
F0.0559234619140625
sS'exec_cq'
p759
I27
sS'total_cq'
p760
I27
sa(dp761
g756
I5
sg757
F0.0016820430755615234
sg758
F0.00275421142578125
sg759
I7
sg760
I7
sa(dp762
g756
I5
sg757
F0.0004589557647705078
sg758
F0.0012595653533935547
sg759
I4
sg760
I4
sa(dp763
g756
I9
sg757
F0.00010704994201660156
sg758
F0.00025582313537597656
sg759
I2
sg760
I2
sasS'total_cqs'
p764
I27
ssI66
(dp765
S'iters'
p766
I0
sS'meta'
p767
(lp768
sS'total_cqs'
p769
I1
ssI67
(dp770
S'iters'
p771
I2
sS'meta'
p772
(lp773
(dp774
S'objective'
p775
I548
sS'query_time'
p776
F0.9497861862182617
sS'comp_time'
p777
F0.2079010009765625
sS'exec_cq'
p778
I35
sS'total_cq'
p779
I35
sa(dp780
g775
I21
sg776
F0.0013828277587890625
sg777
F0.003125905990600586
sg778
I2
sg779
I2
sasS'total_cqs'
p781
I35
ssI68
(dp782
S'iters'
p783
I0
sS'meta'
p784
(lp785
sS'total_cqs'
p786
I1
ssI69
(dp787
S'iters'
p788
I1
sS'meta'
p789
(lp790
(dp791
S'objective'
p792
I1298
sS'query_time'
p793
F0.17635083198547363
sS'comp_time'
p794
F0.13390779495239258
sS'exec_cq'
p795
I51
sS'total_cq'
p796
I51
sasS'total_cqs'
p797
I51
ssI70
(dp798
S'iters'
p799
I4
sS'meta'
p800
(lp801
(dp802
S'objective'
p803
I9
sS'query_time'
p804
F0.029227018356323242
sS'comp_time'
p805
F0.004093170166015625
sS'exec_cq'
p806
I6
sS'total_cq'
p807
I6
sa(dp808
g803
I5
sg804
F4.696846008300781e-05
sg805
F0.00014781951904296875
sg806
I5
sg807
I5
sa(dp809
g803
I2
sg804
F4.291534423828125e-05
sg805
F0.00011157989501953125
sg806
I4
sg807
I4
sa(dp810
g803
I0
sg804
F3.600120544433594e-05
sg805
F9.417533874511719e-05
sg806
I3
sg807
I3
sasS'total_cqs'
p811
I6
ssI71
(dp812
S'iters'
p813
I8
sS'meta'
p814
(lp815
(dp816
S'objective'
p817
I3237
sS'query_time'
p818
F0.3180711269378662
sS'comp_time'
p819
F0.4126279354095459
sS'exec_cq'
p820
I85
sS'total_cq'
p821
I85
sa(dp822
g817
I3084
sg818
F0.000354766845703125
sg819
F0.0011594295501708984
sg820
I82
sg821
I82
sa(dp823
g817
I2915
sg818
F0.00028014183044433594
sg819
F0.0010471343994140625
sg820
I78
sg821
I78
sa(dp824
g817
I2786
sg818
F0.0002548694610595703
sg819
F0.0009450912475585938
sg820
I74
sg821
I74
sa(dp825
g817
I2782
sg818
F0.00023865699768066406
sg819
F0.0006275177001953125
sg820
I71
sg821
I71
sa(dp826
g817
I2720
sg818
F0.000225067138671875
sg819
F0.0005488395690917969
sg820
I69
sg821
I69
sa(dp827
g817
I20
sg818
F0.0017719268798828125
sg819
F0.002218008041381836
sg820
I3
sg821
I3
sa(dp828
g817
I1
sg818
F0.0030090808868408203
sg819
F0.0001239776611328125
sg820
I2
sg821
I2
sasS'total_cqs'
p829
I85
ssI72
(dp830
S'iters'
p831
I3
sS'meta'
p832
(lp833
(dp834
S'objective'
p835
I0
sS'query_time'
p836
F0.26531505584716797
sS'comp_time'
p837
F0.005170106887817383
sS'exec_cq'
p838
I4
sS'total_cq'
p839
I8
sa(dp840
g835
I2
sg836
F0.042220115661621094
sg837
F0.000247955322265625
sg838
I4
sg839
I5
sa(dp841
g835
I4
sg836
F2.5033950805664062e-05
sg837
F5.078315734863281e-05
sg838
I2
sg839
I3
sasS'total_cqs'
p842
I8
ssI73
(dp843
S'iters'
p844
I0
sS'meta'
p845
(lp846
sS'total_cqs'
p847
I1
ssI74
(dp848
S'iters'
p849
I0
sS'meta'
p850
(lp851
sS'total_cqs'
p852
I1
ssI75
(dp853
S'iters'
p854
I3
sS'meta'
p855
(lp856
(dp857
S'objective'
p858
I5
sS'query_time'
p859
F0.010614871978759766
sS'comp_time'
p860
F0.0016121864318847656
sS'exec_cq'
p861
I5
sS'total_cq'
p862
I5
sa(dp863
g858
I2
sg859
F3.0994415283203125e-05
sg860
F0.0001475811004638672
sg861
I4
sg862
I4
sa(dp864
g858
I0
sg859
F2.3126602172851562e-05
sg860
F0.00010800361633300781
sg861
I3
sg862
I3
sasS'total_cqs'
p865
I5
ssI76
(dp866
S'iters'
p867
I1
sS'meta'
p868
(lp869
(dp870
S'objective'
p871
I1
sS'query_time'
p872
F0.01604485511779785
sS'comp_time'
p873
F0.0012705326080322266
sS'exec_cq'
p874
I2
sS'total_cq'
p875
I2
sasS'total_cqs'
p876
I2
ssI77
(dp877
S'iters'
p878
I0
sS'meta'
p879
(lp880
sS'total_cqs'
p881
I1
ssI78
(dp882
S'iters'
p883
I0
sS'meta'
p884
(lp885
sS'total_cqs'
p886
I1
ssI103
(dp887
S'iters'
p888
I1
sS'meta'
p889
(lp890
(dp891
S'objective'
p892
I70
sS'query_time'
p893
F0.05568385124206543
sS'comp_time'
p894
F0.015237092971801758
sS'exec_cq'
p895
I12
sS'total_cq'
p896
I12
sasS'total_cqs'
p897
I12
ssI104
(dp898
S'iters'
p899
I2
sS'meta'
p900
(lp901
(dp902
S'objective'
p903
I0
sS'query_time'
p904
F1.261643886566162
sS'comp_time'
p905
F0.15040159225463867
sS'exec_cq'
p906
I4
sS'total_cq'
p907
I4
sa(dp908
g903
I1
sg904
F0.012836933135986328
sg905
F0.0247650146484375
sg906
I2
sg907
I2
sasS'total_cqs'
p909
I4
ssI105
(dp910
S'iters'
p911
I0
sS'meta'
p912
(lp913
sS'total_cqs'
p914
I1
ssI106
(dp915
S'iters'
p916
I1
sS'meta'
p917
(lp918
(dp919
S'objective'
p920
I6
sS'query_time'
p921
F0.020750045776367188
sS'comp_time'
p922
F0.0018444061279296875
sS'exec_cq'
p923
I4
sS'total_cq'
p924
I4
sasS'total_cqs'
p925
I4
ssI107
(dp926
S'iters'
p927
I2
sS'meta'
p928
(lp929
(dp930
S'objective'
p931
I100
sS'query_time'
p932
F0.08549118041992188
sS'comp_time'
p933
F0.024419069290161133
sS'exec_cq'
p934
I16
sS'total_cq'
p935
I16
sa(dp936
g931
I8
sg932
F0.007921934127807617
sg933
F0.00041174888610839844
sg934
I3
sg935
I3
sasS'total_cqs'
p937
I16
ssI108
(dp938
S'iters'
p939
I0
sS'meta'
p940
(lp941
sS'total_cqs'
p942
I1
ss.