(dp0
I1
(dp1
S'iters'
p2
I2
sS'meta'
p3
(lp4
(dp5
S'objective'
p6
I38
sS'query_time'
p7
F0.1177971363067627
sS'comp_time'
p8
F0.022206783294677734
sS'exec_cq'
p9
I12
sS'total_cq'
p10
I12
sa(dp11
g6
I38
sg7
F7.605552673339844e-05
sg8
F0.00017333030700683594
sg9
I10
sg10
I10
sasS'total_cqs'
p12
I12
ssI2
(dp13
S'iters'
p14
I3
sS'meta'
p15
(lp16
(dp17
S'objective'
p18
I256
sS'query_time'
p19
F0.0760190486907959
sS'comp_time'
p20
F0.030884265899658203
sS'exec_cq'
p21
I27
sS'total_cq'
p22
I27
sa(dp23
g18
I207
sg19
F0.0002300739288330078
sg20
F0.0008151531219482422
sg21
I23
sg22
I23
sa(dp24
g18
I218
sg19
F0.00013589859008789062
sg20
F0.00045037269592285156
sg21
I20
sg22
I20
sasS'total_cqs'
p25
I27
ssI3
(dp26
S'iters'
p27
I4
sS'meta'
p28
(lp29
(dp30
S'objective'
p31
I638
sS'query_time'
p32
F564.4885249137878
sS'comp_time'
p33
F1.694411277770996
sS'exec_cq'
p34
I39
sS'total_cq'
p35
I43
sa(dp36
g31
I488
sg32
F0.1998298168182373
sg33
F0.28085994720458984
sg34
I32
sg35
I36
sa(dp37
g31
I370
sg32
F0.18817496299743652
sg33
F0.27575206756591797
sg34
I24
sg35
I28
sa(dp38
g31
I437
sg32
F11.4617018699646
sg33
F0.00028967857360839844
sg34
I21
sg35
I21
sasS'total_cqs'
p39
I43
ssI4
(dp40
S'iters'
p41
I2
sS'meta'
p42
(lp43
(dp44
S'objective'
p45
I34
sS'query_time'
p46
F4.761147975921631
sS'comp_time'
p47
F0.32248425483703613
sS'exec_cq'
p48
I11
sS'total_cq'
p49
I11
sa(dp50
g45
I4
sg46
F0.16783881187438965
sg47
F0.2510361671447754
sg48
I2
sg49
I2
sasS'total_cqs'
p51
I11
ssI5
(dp52
S'iters'
p53
I3
sS'meta'
p54
(lp55
(dp56
S'objective'
p57
I0
sS'query_time'
p58
F33.60414481163025
sS'comp_time'
p59
F14.591594219207764
sS'exec_cq'
p60
I8
sS'total_cq'
p61
I8
sa(dp62
g57
I0
sg58
F0.7593460083007812
sg59
F2.2721147537231445
sg60
I5
sg61
I5
sa(dp63
g57
I5
sg58
F0.0069959163665771484
sg59
F0.010927915573120117
sg60
I2
sg61
I2
sasS'total_cqs'
p64
I8
ssI6
(dp65
S'iters'
p66
I4
sS'meta'
p67
(lp68
(dp69
S'objective'
p70
I5
sS'query_time'
p71
F36.9092218875885
sS'comp_time'
p72
F2.004877805709839
sS'exec_cq'
p73
I18
sS'total_cq'
p74
I18
sa(dp75
g70
I1
sg71
F0.7540199756622314
sg72
F2.7205252647399902
sg73
I7
sg74
I7
sa(dp76
g70
I1
sg71
F0.3642458915710449
sg72
F0.5427818298339844
sg73
I4
sg74
I4
sa(dp77
g70
I10
sg71
F0.23176193237304688
sg72
F0.5131251811981201
sg73
I2
sg74
I2
sasS'total_cqs'
p78
I18
ssI7
(dp79
S'iters'
p80
I3
sS'meta'
p81
(lp82
(dp83
S'objective'
p84
I1
sS'query_time'
p85
F12.3800950050354
sS'comp_time'
p86
F1.7813310623168945
sS'exec_cq'
p87
I9
sS'total_cq'
p88
I9
sa(dp89
g84
I1
sg85
F0.3633079528808594
sg86
F1.267225980758667
sg87
I6
sg88
I6
sa(dp90
g84
I4
sg85
F0.012866973876953125
sg86
F0.022749900817871094
sg87
I3
sg88
I3
sasS'total_cqs'
p91
I9
ssI8
(dp92
S'iters'
p93
I3
sS'meta'
p94
(lp95
(dp96
S'objective'
p97
I266
sS'query_time'
p98
F0.1389169692993164
sS'comp_time'
p99
F0.028790950775146484
sS'exec_cq'
p100
I27
sS'total_cq'
p101
I27
sa(dp102
g97
I232
sg98
F0.00014925003051757812
sg99
F0.0005588531494140625
sg100
I22
sg101
I22
sa(dp103
g97
I233
sg98
F7.081031799316406e-05
sg99
F0.0001900196075439453
sg100
I19
sg101
I19
sasS'total_cqs'
p104
I27
ssI9
(dp105
S'iters'
p106
I3
sS'meta'
p107
(lp108
(dp109
S'objective'
p110
I0
sS'query_time'
p111
F0.07900810241699219
sS'comp_time'
p112
F0.0048542022705078125
sS'exec_cq'
p113
I7
sS'total_cq'
p114
I7
sa(dp115
g110
I4
sg111
F4.482269287109375e-05
sg112
F0.0001690387725830078
sg113
I4
sg114
I4
sa(dp116
g110
I5
sg111
F1.0967254638671875e-05
sg112
F6.914138793945312e-05
sg113
I2
sg114
I2
sasS'total_cqs'
p117
I7
ssI10
(dp118
S'iters'
p119
I5
sS'meta'
p120
(lp121
(dp122
S'objective'
p123
I630
sS'query_time'
p124
F0.2533891201019287
sS'comp_time'
p125
F0.07823991775512695
sS'exec_cq'
p126
I51
sS'total_cq'
p127
I51
sa(dp128
g123
I338
sg124
F0.0006399154663085938
sg125
F0.0035631656646728516
sg126
I37
sg127
I37
sa(dp129
g123
I424
sg124
F0.00023984909057617188
sg125
F0.0011019706726074219
sg126
I25
sg127
I25
sa(dp130
g123
I35
sg124
F2.9087066650390625e-05
sg125
F0.0004067420959472656
sg126
I3
sg127
I3
sa(dp131
g123
I4
sg124
F1.5974044799804688e-05
sg125
F5.793571472167969e-05
sg126
I2
sg127
I2
sasS'total_cqs'
p132
I51
ssI11
(dp133
S'iters'
p134
I6
sS'meta'
p135
(lp136
(dp137
S'objective'
p138
I986
sS'query_time'
p139
F0.5780580043792725
sS'comp_time'
p140
F0.1759648323059082
sS'exec_cq'
p141
I63
sS'total_cq'
p142
I63
sa(dp143
g138
I941
sg139
F0.001344919204711914
sg140
F0.004985809326171875
sg141
I47
sg142
I47
sa(dp144
g138
I12
sg139
F0.00024199485778808594
sg140
F0.002732992172241211
sg141
I9
sg142
I9
sa(dp145
g138
I40
sg139
F3.600120544433594e-05
sg140
F0.00019812583923339844
sg141
I4
sg142
I4
sa(dp146
g138
I7
sg139
F2.2172927856445312e-05
sg140
F8.511543273925781e-05
sg141
I3
sg142
I3
sa(dp147
g138
I48
sg139
F1.4781951904296875e-05
sg140
F6.103515625e-05
sg141
I2
sg142
I2
sasS'total_cqs'
p148
I63
ssI12
(dp149
S'iters'
p150
I5
sS'meta'
p151
(lp152
(dp153
S'objective'
p154
I373
sS'query_time'
p155
F0.25594496726989746
sS'comp_time'
p156
F0.08735227584838867
sS'exec_cq'
p157
I50
sS'total_cq'
p158
I50
sa(dp159
g154
I364
sg155
F0.008745908737182617
sg156
F0.002438068389892578
sg157
I22
sg158
I33
sa(dp160
g154
I4
sg155
F0.00024318695068359375
sg156
F0.0021448135375976562
sg157
I8
sg158
I8
sa(dp161
g154
I5
sg155
F0.00015497207641601562
sg156
F0.0005500316619873047
sg157
I4
sg158
I4
sa(dp162
g154
I17
sg155
F0.00014090538024902344
sg156
F0.00030612945556640625
sg157
I2
sg158
I2
sasS'total_cqs'
p163
I50
ssI13
(dp164
S'iters'
p165
I3
sS'meta'
p166
(lp167
(dp168
S'objective'
p169
I8
sS'query_time'
p170
F0.12122297286987305
sS'comp_time'
p171
F0.03502154350280762
sS'exec_cq'
p172
I20
sS'total_cq'
p173
I20
sa(dp174
g169
I55
sg170
F7.295608520507812e-05
sg171
F0.00047850608825683594
sg172
I9
sg173
I9
sa(dp175
g169
I9
sg170
F2.09808349609375e-05
sg171
F0.0001761913299560547
sg172
I2
sg173
I2
sasS'total_cqs'
p176
I20
ssI14
(dp177
S'iters'
p178
I3
sS'meta'
p179
(lp180
(dp181
S'objective'
p182
I1
sS'query_time'
p183
F34.4212110042572
sS'comp_time'
p184
F0.8149099349975586
sS'exec_cq'
p185
I9
sS'total_cq'
p186
I9
sa(dp187
g182
I3
sg183
F0.08227086067199707
sg184
F0.5457820892333984
sg185
I4
sg186
I4
sa(dp188
g182
I3
sg183
F0.009164810180664062
sg184
F0.012628793716430664
sg185
I2
sg186
I2
sasS'total_cqs'
p189
I9
ssI15
(dp190
S'iters'
p191
I3
sS'meta'
p192
(lp193
(dp194
S'objective'
p195
I0
sS'query_time'
p196
F3.6384150981903076
sS'comp_time'
p197
F0.08820700645446777
sS'exec_cq'
p198
I11
sS'total_cq'
p199
I11
sa(dp200
g195
I1
sg196
F0.04061698913574219
sg197
F0.15642881393432617
sg198
I6
sg199
I6
sa(dp201
g195
I3
sg196
F0.026858091354370117
sg197
F0.05443167686462402
sg198
I3
sg199
I3
sasS'total_cqs'
p202
I11
ssI16
(dp203
S'iters'
p204
I1
sS'meta'
p205
(lp206
(dp207
S'objective'
p208
I22
sS'query_time'
p209
F0.009090900421142578
sS'comp_time'
p210
F0.003943204879760742
sS'exec_cq'
p211
I8
sS'total_cq'
p212
I8
sasS'total_cqs'
p213
I8
ssI17
(dp214
S'iters'
p215
I3
sS'meta'
p216
(lp217
(dp218
S'objective'
p219
I0
sS'query_time'
p220
F0.9499349594116211
sS'comp_time'
p221
F0.04085874557495117
sS'exec_cq'
p222
I11
sS'total_cq'
p223
I11
sa(dp224
g219
I3
sg220
F0.008461952209472656
sg221
F0.014595270156860352
sg222
I4
sg223
I4
sa(dp225
g219
I2
sg220
F0.0027828216552734375
sg221
F0.0040929317474365234
sg222
I2
sg223
I2
sasS'total_cqs'
p226
I11
ssI18
(dp227
S'iters'
p228
I2
sS'meta'
p229
(lp230
(dp231
S'objective'
p232
I30
sS'query_time'
p233
F0.2114260196685791
sS'comp_time'
p234
F0.02605128288269043
sS'exec_cq'
p235
I11
sS'total_cq'
p236
I11
sa(dp237
g232
I28
sg233
F0.00025916099548339844
sg234
F0.0006012916564941406
sg235
I9
sg236
I9
sasS'total_cqs'
p238
I11
ssI19
(dp239
S'iters'
p240
I0
sS'meta'
p241
(lp242
sS'total_cqs'
p243
I1
ssI20
(dp244
S'iters'
p245
I0
sS'meta'
p246
(lp247
sS'total_cqs'
p248
I1
ssI21
(dp249
S'iters'
p250
I0
sS'meta'
p251
(lp252
sS'total_cqs'
p253
I1
ssI22
(dp254
S'iters'
p255
I1
sS'meta'
p256
(lp257
(dp258
S'objective'
p259
I141
sS'query_time'
p260
F0.026513099670410156
sS'comp_time'
p261
F0.036002159118652344
sS'exec_cq'
p262
I18
sS'total_cq'
p263
I18
sasS'total_cqs'
p264
I18
ssI23
(dp265
S'iters'
p266
I3
sS'meta'
p267
(lp268
(dp269
S'objective'
p270
I104
sS'query_time'
p271
F0.05531787872314453
sS'comp_time'
p272
F0.022830963134765625
sS'exec_cq'
p273
I16
sS'total_cq'
p274
I16
sa(dp275
g270
I90
sg271
F0.0001049041748046875
sg272
F0.00021195411682128906
sg273
I14
sg274
I14
sa(dp276
g270
I79
sg271
F0.00014400482177734375
sg272
F0.00011110305786132812
sg273
I13
sg274
I13
sasS'total_cqs'
p277
I16
ssI24
(dp278
S'iters'
p279
I0
sS'meta'
p280
(lp281
sS'total_cqs'
p282
I1
ssI25
(dp283
S'iters'
p284
I0
sS'meta'
p285
(lp286
sS'total_cqs'
p287
I1
ssI26
(dp288
S'iters'
p289
I1
sS'meta'
p290
(lp291
(dp292
S'objective'
p293
I837
sS'query_time'
p294
F0.15665006637573242
sS'comp_time'
p295
F0.09827828407287598
sS'exec_cq'
p296
I42
sS'total_cq'
p297
I42
sasS'total_cqs'
p298
I42
ssI27
(dp299
S'iters'
p300
I3
sS'meta'
p301
(lp302
(dp303
S'objective'
p304
I305
sS'query_time'
p305
F22.91269087791443
sS'comp_time'
p306
F2.4572179317474365
sS'exec_cq'
p307
I30
sS'total_cq'
p308
I30
sa(dp309
g304
I0
sg305
F1.0873420238494873
sg306
F1.6271233558654785
sg307
I5
sg308
I5
sa(dp310
g304
I8
sg305
F0.015820026397705078
sg306
F0.036550045013427734
sg307
I2
sg308
I2
sasS'total_cqs'
p311
I30
ssI28
(dp312
S'iters'
p313
I0
sS'meta'
p314
(lp315
sS'total_cqs'
p316
I1
ssI29
(dp317
S'iters'
p318
I5
sS'meta'
p319
(lp320
(dp321
S'objective'
p322
I241
sS'query_time'
p323
F27.18381118774414
sS'comp_time'
p324
F0.3898923397064209
sS'exec_cq'
p325
I35
sS'total_cq'
p326
I49
sa(dp327
g322
I0
sg323
F0.0030939579010009766
sg324
F0.007880687713623047
sg325
I16
sg326
I16
sa(dp328
g322
I28
sg323
F0.002022981643676758
sg324
F0.007768392562866211
sg325
I10
sg326
I10
sa(dp329
g322
I5
sg323
F0.0009050369262695312
sg324
F0.0021085739135742188
sg325
I5
sg326
I5
sa(dp330
g322
I19
sg323
F0.0008401870727539062
sg324
F0.0014126300811767578
sg325
I3
sg326
I3
sasS'total_cqs'
p331
I49
ssI30
(dp332
S'iters'
p333
I1
sS'meta'
p334
(lp335
(dp336
S'objective'
p337
I1
sS'query_time'
p338
F0.6842348575592041
sS'comp_time'
p339
F0.013778924942016602
sS'exec_cq'
p340
I2
sS'total_cq'
p341
I2
sasS'total_cqs'
p342
I2
ssI31
(dp343
S'iters'
p344
I0
sS'meta'
p345
(lp346
sS'total_cqs'
p347
I1
ssI32
(dp348
S'iters'
p349
I1
sS'meta'
p350
(lp351
(dp352
S'objective'
p353
I1
sS'query_time'
p354
F0.015470027923583984
sS'comp_time'
p355
F0.0018930435180664062
sS'exec_cq'
p356
I2
sS'total_cq'
p357
I2
sasS'total_cqs'
p358
I2
ssI33
(dp359
S'iters'
p360
I5
sS'meta'
p361
(lp362
(dp363
S'objective'
p364
I3414
sS'query_time'
p365
F16.552990913391113
sS'comp_time'
p366
F0.8382799625396729
sS'exec_cq'
p367
I103
sS'total_cq'
p368
I103
sa(dp369
g364
I33
sg365
F0.007319927215576172
sg366
F0.07004117965698242
sg367
I16
sg368
I16
sa(dp370
g364
I83
sg365
F0.0041239261627197266
sg366
F0.025811433792114258
sg367
I9
sg368
I9
sa(dp371
g364
I9
sg365
F0.0019440650939941406
sg366
F0.004725217819213867
sg367
I5
sg368
I5
sa(dp372
g364
I66
sg365
F0.0002841949462890625
sg366
F0.0006957054138183594
sg367
I2
sg368
I2
sasS'total_cqs'
p373
I103
ssI34
(dp374
S'iters'
p375
I1
sS'meta'
p376
(lp377
(dp378
S'objective'
p379
I1
sS'query_time'
p380
F0.012166976928710938
sS'comp_time'
p381
F0.003055095672607422
sS'exec_cq'
p382
I2
sS'total_cq'
p383
I2
sasS'total_cqs'
p384
I2
ssI35
(dp385
S'iters'
p386
I4
sS'meta'
p387
(lp388
(dp389
S'objective'
p390
I1583
sS'query_time'
p391
F265.73368096351624
sS'comp_time'
p392
F13.80089783668518
sS'exec_cq'
p393
I70
sS'total_cq'
p394
I70
sa(dp395
g390
I91
sg391
F0.005339145660400391
sg392
F0.017933368682861328
sg393
I16
sg394
I16
sa(dp396
g390
I18
sg391
F0.001416921615600586
sg392
F0.0021920204162597656
sg393
I4
sg394
I4
sa(dp397
g390
I9
sg391
F0.000698089599609375
sg392
F0.0011012554168701172
sg393
I2
sg394
I2
sasS'total_cqs'
p398
I70
ssI36
(dp399
S'iters'
p400
I3
sS'meta'
p401
(lp402
(dp403
S'objective'
p404
I409
sS'query_time'
p405
F0.7677528858184814
sS'comp_time'
p406
F0.16610383987426758
sS'exec_cq'
p407
I33
sS'total_cq'
p408
I33
sa(dp409
g404
I419
sg405
F0.007028102874755859
sg406
F0.01580953598022461
sg407
I29
sg408
I29
sa(dp410
g404
I400
sg405
F0.002379179000854492
sg406
F0.003998994827270508
sg407
I25
sg408
I25
sasS'total_cqs'
p411
I33
ssI37
(dp412
S'iters'
p413
I1
sS'meta'
p414
(lp415
(dp416
S'objective'
p417
I1
sS'query_time'
p418
F0.006412029266357422
sS'comp_time'
p419
F0.0013265609741210938
sS'exec_cq'
p420
I2
sS'total_cq'
p421
I2
sasS'total_cqs'
p422
I2
ssI38
(dp423
S'iters'
p424
I2
sS'meta'
p425
(lp426
(dp427
S'objective'
p428
I0
sS'query_time'
p429
F0.02263498306274414
sS'comp_time'
p430
F0.0032110214233398438
sS'exec_cq'
p431
I4
sS'total_cq'
p432
I4
sa(dp433
g428
I3
sg429
F9.584426879882812e-05
sg430
F0.0002002716064453125
sg431
I2
sg432
I2
sasS'total_cqs'
p434
I4
ssI39
(dp435
S'iters'
p436
I2
sS'meta'
p437
(lp438
(dp439
S'objective'
p440
I680
sS'query_time'
p441
F0.0995931625366211
sS'comp_time'
p442
F0.15169477462768555
sS'exec_cq'
p443
I44
sS'total_cq'
p444
I44
sa(dp445
g440
I767
sg441
F0.0004150867462158203
sg442
F0.0009741783142089844
sg443
I37
sg444
I37
sasS'total_cqs'
p446
I44
ssI40
(dp447
S'iters'
p448
I1
sS'meta'
p449
(lp450
(dp451
S'objective'
p452
I14
sS'query_time'
p453
F0.022901058197021484
sS'comp_time'
p454
F0.006131172180175781
sS'exec_cq'
p455
I7
sS'total_cq'
p456
I7
sasS'total_cqs'
p457
I7
ssI41
(dp458
S'iters'
p459
I1
sS'meta'
p460
(lp461
(dp462
S'objective'
p463
I58
sS'query_time'
p464
F0.05532503128051758
sS'comp_time'
p465
F0.0157320499420166
sS'exec_cq'
p466
I12
sS'total_cq'
p467
I12
sasS'total_cqs'
p468
I12
ssI42
(dp469
S'iters'
p470
I1
sS'meta'
p471
(lp472
(dp473
S'objective'
p474
I797
sS'query_time'
p475
F0.04360485076904297
sS'comp_time'
p476
F0.14635133743286133
sS'exec_cq'
p477
I41
sS'total_cq'
p478
I41
sasS'total_cqs'
p479
I41
ssI43
(dp480
S'iters'
p481
I1
sS'meta'
p482
(lp483
(dp484
S'objective'
p485
I14
sS'query_time'
p486
F0.027575969696044922
sS'comp_time'
p487
F0.006086826324462891
sS'exec_cq'
p488
I7
sS'total_cq'
p489
I7
sasS'total_cqs'
p490
I7
ssI44
(dp491
S'iters'
p492
I3
sS'meta'
p493
(lp494
(dp495
S'objective'
p496
I916
sS'query_time'
p497
F0.08645319938659668
sS'comp_time'
p498
F0.09754610061645508
sS'exec_cq'
p499
I47
sS'total_cq'
p500
I47
sa(dp501
g496
I20
sg497
F0.00015497207641601562
sg498
F0.0018808841705322266
sg499
I3
sg500
I3
sa(dp502
g496
I11
sg497
F2.4080276489257812e-05
sg498
F0.00010609626770019531
sg499
I2
sg500
I2
sasS'total_cqs'
p503
I47
ssI45
(dp504
S'iters'
p505
I0
sS'meta'
p506
(lp507
sS'total_cqs'
p508
I1
ssI46
(dp509
S'iters'
p510
I1
sS'meta'
p511
(lp512
(dp513
S'objective'
p514
I9
sS'query_time'
p515
F0.011547088623046875
sS'comp_time'
p516
F0.004633188247680664
sS'exec_cq'
p517
I6
sS'total_cq'
p518
I6
sasS'total_cqs'
p519
I6
ssI47
(dp520
S'iters'
p521
I1
sS'meta'
p522
(lp523
(dp524
S'objective'
p525
I1
sS'query_time'
p526
F0.006147146224975586
sS'comp_time'
p527
F0.001050710678100586
sS'exec_cq'
p528
I2
sS'total_cq'
p529
I2
sasS'total_cqs'
p530
I2
ssI48
(dp531
S'iters'
p532
I0
sS'meta'
p533
(lp534
sS'total_cqs'
p535
I1
ssI49
(dp536
S'iters'
p537
I0
sS'meta'
p538
(lp539
sS'total_cqs'
p540
I1
ssI50
(dp541
S'iters'
p542
I1
sS'meta'
p543
(lp544
(dp545
S'objective'
p546
I5
sS'query_time'
p547
F0.009930849075317383
sS'comp_time'
p548
F0.0020380020141601562
sS'exec_cq'
p549
I5
sS'total_cq'
p550
I5
sasS'total_cqs'
p551
I5
ssI51
(dp552
S'iters'
p553
I1
sS'meta'
p554
(lp555
(dp556
S'objective'
p557
I1
sS'query_time'
p558
F0.007523059844970703
sS'comp_time'
p559
F0.0009942054748535156
sS'exec_cq'
p560
I2
sS'total_cq'
p561
I2
sasS'total_cqs'
p562
I2
ssI52
(dp563
S'iters'
p564
I1
sS'meta'
p565
(lp566
(dp567
S'objective'
p568
I1
sS'query_time'
p569
F0.005794048309326172
sS'comp_time'
p570
F0.001049041748046875
sS'exec_cq'
p571
I2
sS'total_cq'
p572
I2
sasS'total_cqs'
p573
I2
ssI53
(dp574
S'iters'
p575
I1
sS'meta'
p576
(lp577
(dp578
S'objective'
p579
I2
sS'query_time'
p580
F0.01628708839416504
sS'comp_time'
p581
F0.002933979034423828
sS'exec_cq'
p582
I4
sS'total_cq'
p583
I4
sasS'total_cqs'
p584
I4
ssI54
(dp585
S'iters'
p586
I2
sS'meta'
p587
(lp588
(dp589
S'objective'
p590
I0
sS'query_time'
p591
F0.008584022521972656
sS'comp_time'
p592
F0.0017642974853515625
sS'exec_cq'
p593
I3
sS'total_cq'
p594
I3
sa(dp595
g590
I1
sg591
F4.410743713378906e-05
sg592
F0.00014925003051757812
sg593
I2
sg594
I2
sasS'total_cqs'
p596
I3
ssI55
(dp597
S'iters'
p598
I8
sS'meta'
p599
(lp600
(dp601
S'objective'
p602
I4675
sS'query_time'
p603
F2.5988168716430664
sS'comp_time'
p604
F0.6559610366821289
sS'exec_cq'
p605
I109
sS'total_cq'
p606
I109
sa(dp607
g602
I4743
sg603
F0.0011820793151855469
sg604
F0.004319190979003906
sg605
I97
sg606
I97
sa(dp608
g602
I4539
sg603
F0.00043702125549316406
sg604
F0.0015819072723388672
sg605
I91
sg606
I91
sa(dp609
g602
I4517
sg603
F0.0004410743713378906
sg604
F0.0013892650604248047
sg605
I87
sg606
I87
sa(dp610
g602
I4399
sg603
F0.00041794776916503906
sg604
F0.0009191036224365234
sg605
I85
sg606
I85
sa(dp611
g602
I4326
sg603
F0.0003600120544433594
sg604
F0.0007047653198242188
sg605
I83
sg606
I83
sa(dp612
g602
I4252
sg603
F0.0003840923309326172
sg604
F0.0006878376007080078
sg605
I82
sg606
I82
sa(dp613
g602
I4173
sg603
F0.00034999847412109375
sg604
F0.0005462169647216797
sg605
I80
sg606
I80
sasS'total_cqs'
p614
I109
ssI56
(dp615
S'iters'
p616
I5
sS'meta'
p617
(lp618
(dp619
S'objective'
p620
I1720
sS'query_time'
p621
F1.685270071029663
sS'comp_time'
p622
F0.2968637943267822
sS'exec_cq'
p623
I67
sS'total_cq'
p624
I76
sa(dp625
g620
I1
sg621
F0.019977092742919922
sg622
F0.07845497131347656
sg623
I16
sg624
I16
sa(dp626
g620
I0
sg621
F0.0037369728088378906
sg622
F0.006444215774536133
sg623
I9
sg624
I9
sa(dp627
g620
I1
sg621
F0.002213001251220703
sg622
F0.004729747772216797
sg623
I6
sg624
I6
sa(dp628
g620
I41
sg621
F0.0009250640869140625
sg622
F0.0015218257904052734
sg623
I2
sg624
I2
sasS'total_cqs'
p629
I76
ssI57
(dp630
S'iters'
p631
I5
sS'meta'
p632
(lp633
(dp634
S'objective'
p635
I322
sS'query_time'
p636
F25.025679111480713
sS'comp_time'
p637
F0.2146010398864746
sS'exec_cq'
p638
I45
sS'total_cq'
p639
I51
sa(dp640
g635
I174
sg636
F0.003095865249633789
sg637
F0.006734132766723633
sg638
I27
sg639
I33
sa(dp641
g635
I1
sg636
F0.0028438568115234375
sg637
F0.038962364196777344
sg638
I13
sg639
I13
sa(dp642
g635
I3
sg636
F0.0012159347534179688
sg637
F0.0026578903198242188
sg638
I6
sg639
I6
sa(dp643
g635
I3
sg636
F0.0002079010009765625
sg637
F0.00034356117248535156
sg638
I2
sg639
I2
sasS'total_cqs'
p644
I51
ssI58
(dp645
S'iters'
p646
I6
sS'meta'
p647
(lp648
(dp649
S'objective'
p650
I79587
sS'query_time'
p651
F513.2955648899078
sS'comp_time'
p652
F27.648560762405396
sS'exec_cq'
p653
I486
sS'total_cq'
p654
I486
sa(dp655
g650
I85882
sg651
F9.95045018196106
sg652
F16.206465005874634
sg653
I414
sg654
I414
sa(dp656
g650
I175
sg651
F0.015642881393432617
sg652
F0.2163865566253662
sg653
I28
sg654
I28
sa(dp657
g650
I0
sg651
F0.007962942123413086
sg652
F0.28182458877563477
sg653
I14
sg654
I14
sa(dp658
g650
I37
sg651
F0.0024001598358154297
sg652
F0.015613317489624023
sg653
I8
sg654
I8
sa(dp659
g650
I89
sg651
F0.00039887428283691406
sg652
F0.0006859302520751953
sg653
I3
sg654
I3
sasS'total_cqs'
p660
I486
ssI59
(dp661
S'iters'
p662
I2
sS'meta'
p663
(lp664
(dp665
S'objective'
p666
I2
sS'query_time'
p667
F0.03613996505737305
sS'comp_time'
p668
F0.006243228912353516
sS'exec_cq'
p669
I7
sS'total_cq'
p670
I7
sa(dp671
g666
I1
sg667
F0.0001819133758544922
sg668
F0.0004050731658935547
sg669
I2
sg670
I2
sasS'total_cqs'
p672
I7
ssI60
(dp673
S'iters'
p674
I1
sS'meta'
p675
(lp676
(dp677
S'objective'
p678
I5
sS'query_time'
p679
F0.02438497543334961
sS'comp_time'
p680
F0.006064891815185547
sS'exec_cq'
p681
I3
sS'total_cq'
p682
I5
sasS'total_cqs'
p683
I5
ssI61
(dp684
S'iters'
p685
I0
sS'meta'
p686
(lp687
sS'total_cqs'
p688
I1
ssI62
(dp689
S'iters'
p690
I2
sS'meta'
p691
(lp692
(dp693
S'objective'
p694
I28
sS'query_time'
p695
F0.027185916900634766
sS'comp_time'
p696
F0.016966581344604492
sS'exec_cq'
p697
I12
sS'total_cq'
p698
I12
sa(dp699
g694
I33
sg695
F5.698204040527344e-05
sg696
F0.00018715858459472656
sg697
I9
sg698
I9
sasS'total_cqs'
p700
I12
ssI63
(dp701
S'iters'
p702
I0
sS'meta'
p703
(lp704
sS'total_cqs'
p705
I1
ssI64
(dp706
S'iters'
p707
I3
sS'meta'
p708
(lp709
(dp710
S'objective'
p711
I18
sS'query_time'
p712
F0.09346604347229004
sS'comp_time'
p713
F0.02021312713623047
sS'exec_cq'
p714
I12
sS'total_cq'
p715
I12
sa(dp716
g711
I6
sg712
F0.00011610984802246094
sg713
F0.0005195140838623047
sg714
I4
sg715
I4
sa(dp717
g711
I2
sg712
F7.414817810058594e-05
sg713
F0.0003044605255126953
sg714
I3
sg715
I3
sasS'total_cqs'
p718
I12
ssI65
(dp719
S'iters'
p720
I4
sS'meta'
p721
(lp722
(dp723
S'objective'
p724
I154
sS'query_time'
p725
F0.713386058807373
sS'comp_time'
p726
F0.05551481246948242
sS'exec_cq'
p727
I27
sS'total_cq'
p728
I27
sa(dp729
g724
I4
sg725
F0.0012969970703125
sg726
F0.0031440258026123047
sg727
I7
sg728
I7
sa(dp730
g724
I4
sg725
F0.0005688667297363281
sg726
F0.0009183883666992188
sg727
I3
sg728
I3
sa(dp731
g724
I13
sg725
F0.0002281665802001953
sg726
F0.00047588348388671875
sg727
I2
sg728
I2
sasS'total_cqs'
p732
I27
ssI66
(dp733
S'iters'
p734
I0
sS'meta'
p735
(lp736
sS'total_cqs'
p737
I1
ssI67
(dp738
S'iters'
p739
I2
sS'meta'
p740
(lp741
(dp742
S'objective'
p743
I516
sS'query_time'
p744
F1.1494660377502441
sS'comp_time'
p745
F0.08039093017578125
sS'exec_cq'
p746
I35
sS'total_cq'
p747
I35
sa(dp748
g743
I1
sg744
F0.00140380859375
sg745
F0.002997875213623047
sg746
I2
sg747
I2
sasS'total_cqs'
p749
I35
ssI68
(dp750
S'iters'
p751
I0
sS'meta'
p752
(lp753
sS'total_cqs'
p754
I1
ssI69
(dp755
S'iters'
p756
I1
sS'meta'
p757
(lp758
(dp759
S'objective'
p760
I1246
sS'query_time'
p761
F0.10630393028259277
sS'comp_time'
p762
F0.2142171859741211
sS'exec_cq'
p763
I51
sS'total_cq'
p764
I51
sasS'total_cqs'
p765
I51
ssI70
(dp766
S'iters'
p767
I1
sS'meta'
p768
(lp769
(dp770
S'objective'
p771
I9
sS'query_time'
p772
F0.012169837951660156
sS'comp_time'
p773
F0.0035791397094726562
sS'exec_cq'
p774
I6
sS'total_cq'
p775
I6
sasS'total_cqs'
p776
I6
ssI71
(dp777
S'iters'
p778
I5
sS'meta'
p779
(lp780
(dp781
S'objective'
p782
I3173
sS'query_time'
p783
F0.22830677032470703
sS'comp_time'
p784
F0.392406702041626
sS'exec_cq'
p785
I85
sS'total_cq'
p786
I85
sa(dp787
g782
I3100
sg783
F0.0004749298095703125
sg784
F0.0016255378723144531
sg785
I81
sg786
I81
sa(dp788
g782
I2963
sg783
F0.0004432201385498047
sg784
F0.0012497901916503906
sg785
I77
sg786
I77
sa(dp789
g782
I2838
sg783
F0.00020599365234375
sg784
F0.0007524490356445312
sg785
I75
sg786
I75
sa(dp790
g782
I6
sg783
F3.409385681152344e-05
sg784
F0.002534627914428711
sg785
I3
sg786
I3
sasS'total_cqs'
p791
I85
ssI72
(dp792
S'iters'
p793
I3
sS'meta'
p794
(lp795
(dp796
S'objective'
p797
I12
sS'query_time'
p798
F0.4211859703063965
sS'comp_time'
p799
F0.005010366439819336
sS'exec_cq'
p800
I8
sS'total_cq'
p801
I8
sa(dp802
g797
I6
sg798
F0.00010204315185546875
sg799
F0.00018072128295898438
sg800
I4
sg801
I5
sa(dp803
g797
I1
sg798
F1.4066696166992188e-05
sg799
F3.600120544433594e-05
sg800
I2
sg801
I3
sasS'total_cqs'
p804
I8
ssI73
(dp805
S'iters'
p806
I0
sS'meta'
p807
(lp808
sS'total_cqs'
p809
I1
ssI74
(dp810
S'iters'
p811
I0
sS'meta'
p812
(lp813
sS'total_cqs'
p814
I1
ssI75
(dp815
S'iters'
p816
I1
sS'meta'
p817
(lp818
(dp819
S'objective'
p820
I5
sS'query_time'
p821
F0.005766868591308594
sS'comp_time'
p822
F0.001634836196899414
sS'exec_cq'
p823
I5
sS'total_cq'
p824
I5
sasS'total_cqs'
p825
I5
ssI76
(dp826
S'iters'
p827
I1
sS'meta'
p828
(lp829
(dp830
S'objective'
p831
I1
sS'query_time'
p832
F0.0144500732421875
sS'comp_time'
p833
F0.001154184341430664
sS'exec_cq'
p834
I2
sS'total_cq'
p835
I2
sasS'total_cqs'
p836
I2
ssI77
(dp837
S'iters'
p838
I0
sS'meta'
p839
(lp840
sS'total_cqs'
p841
I1
ssI78
(dp842
S'iters'
p843
I0
sS'meta'
p844
(lp845
sS'total_cqs'
p846
I1
ssI103
(dp847
S'iters'
p848
I1
sS'meta'
p849
(lp850
(dp851
S'objective'
p852
I58
sS'query_time'
p853
F0.04557991027832031
sS'comp_time'
p854
F0.015381574630737305
sS'exec_cq'
p855
I12
sS'total_cq'
p856
I12
sasS'total_cqs'
p857
I12
ssI104
(dp858
S'iters'
p859
I2
sS'meta'
p860
(lp861
(dp862
S'objective'
p863
I0
sS'query_time'
p864
F1.306839942932129
sS'comp_time'
p865
F0.12662649154663086
sS'exec_cq'
p866
I4
sS'total_cq'
p867
I4
sa(dp868
g863
I3
sg864
F0.011266946792602539
sg865
F0.020405054092407227
sg866
I2
sg867
I2
sasS'total_cqs'
p869
I4
ssI105
(dp870
S'iters'
p871
I0
sS'meta'
p872
(lp873
sS'total_cqs'
p874
I1
ssI106
(dp875
S'iters'
p876
I1
sS'meta'
p877
(lp878
(dp879
S'objective'
p880
I2
sS'query_time'
p881
F0.016517162322998047
sS'comp_time'
p882
F0.0024487972259521484
sS'exec_cq'
p883
I4
sS'total_cq'
p884
I4
sasS'total_cqs'
p885
I4
ssI107
(dp886
S'iters'
p887
I2
sS'meta'
p888
(lp889
(dp890
S'objective'
p891
I96
sS'query_time'
p892
F0.05592083930969238
sS'comp_time'
p893
F0.027736186981201172
sS'exec_cq'
p894
I16
sS'total_cq'
p895
I16
sa(dp896
g891
I6
sg892
F3.409385681152344e-05
sg893
F0.0003199577331542969
sg894
I3
sg895
I3
sasS'total_cqs'
p897
I16
ssI108
(dp898
S'iters'
p899
I0
sS'meta'
p900
(lp901
sS'total_cqs'
p902
I1
ss.