(dp0
I1
(dp1
S'iters'
p2
I3
sS'meta'
p3
(lp4
(dp5
S'objective'
p6
I56
sS'query_time'
p7
F0.016218900680541992
sS'comp_time'
p8
F8.0108642578125e-05
sS'exec_cq'
p9
I2
sS'total_cq'
p10
I12
sa(dp11
g6
I51
sg7
F0.010344982147216797
sg8
F7.176399230957031e-05
sg9
I4
sg10
I11
sa(dp12
g6
I45
sg7
F0.008308887481689453
sg8
F8.487701416015625e-05
sg9
I4
sg10
I10
sasS'total_cqs'
p13
I12
ssI2
(dp14
S'iters'
p15
I8
sS'meta'
p16
(lp17
(dp18
S'objective'
p19
I326
sS'query_time'
p20
F0.029103994369506836
sS'comp_time'
p21
F9.965896606445312e-05
sS'exec_cq'
p22
I2
sS'total_cq'
p23
I27
sa(dp24
g19
I282
sg20
F0.019601821899414062
sg21
F0.00010585784912109375
sg22
I3
sg23
I26
sa(dp25
g19
I233
sg20
F0.015159130096435547
sg21
F8.702278137207031e-05
sg22
I3
sg23
I24
sa(dp26
g19
I235
sg20
F0.015284061431884766
sg21
F0.000102996826171875
sg22
I5
sg23
I22
sa(dp27
g19
I219
sg20
F0.020470142364501953
sg21
F9.679794311523438e-05
sg22
I5
sg23
I21
sa(dp28
g19
I203
sg20
F0.015578031539916992
sg21
F8.797645568847656e-05
sg22
I5
sg23
I20
sa(dp29
g19
I182
sg20
F0.013092041015625
sg21
F7.915496826171875e-05
sg22
I5
sg23
I19
sa(dp30
g19
I171
sg20
F0.008172988891601562
sg21
F7.224082946777344e-05
sg22
I5
sg23
I17
sasS'total_cqs'
p31
I27
ssI3
(dp32
S'iters'
p33
I5
sS'meta'
p34
(lp35
(dp36
S'objective'
p37
I532
sS'query_time'
p38
F52.53501009941101
sS'comp_time'
p39
F0.00019598007202148438
sS'exec_cq'
p40
I3
sS'total_cq'
p41
I43
sa(dp42
g37
I471
sg38
F7.278861999511719
sg39
F0.00039505958557128906
sg40
I4
sg41
I35
sa(dp43
g37
I499
sg38
F9.05010199546814
sg39
F0.0002579689025878906
sg40
I3
sg41
I31
sa(dp44
g37
I274
sg38
F4.475569009780884
sg39
F0.0001251697540283203
sg40
I3
sg41
I29
sa(dp45
g37
I367
sg38
F0.013694047927856445
sg39
F7.104873657226562e-05
sg40
I3
sg41
I21
sasS'total_cqs'
p46
I43
ssI4
(dp47
S'iters'
p48
I1
sS'meta'
p49
(lp50
(dp51
S'objective'
p52
I52
sS'query_time'
p53
F3.6486470699310303
sS'comp_time'
p54
F0.00023508071899414062
sS'exec_cq'
p55
I5
sS'total_cq'
p56
I11
sasS'total_cqs'
p57
I11
ssI5
(dp58
S'iters'
p59
I2
sS'meta'
p60
(lp61
(dp62
S'objective'
p63
I14
sS'query_time'
p64
F6.619214773178101
sS'comp_time'
p65
F0.00013589859008789062
sS'exec_cq'
p66
I1
sS'total_cq'
p67
I8
sa(dp68
g63
I1
sg64
F0.2956061363220215
sg65
F6.723403930664062e-05
sg66
I1
sg67
I3
sasS'total_cqs'
p69
I8
ssI6
(dp70
S'iters'
p71
I6
sS'meta'
p72
(lp73
(dp74
S'objective'
p75
I121
sS'query_time'
p76
F0.08839201927185059
sS'comp_time'
p77
F8.106231689453125e-05
sS'exec_cq'
p78
I1
sS'total_cq'
p79
I18
sa(dp80
g75
I112
sg76
F0.11287403106689453
sg77
F9.918212890625e-05
sg78
I1
sg79
I16
sa(dp81
g75
I101
sg76
F1.201024055480957
sg77
F0.00011396408081054688
sg78
I3
sg79
I15
sa(dp82
g75
I77
sg76
F8.077895164489746
sg77
F0.00022172927856445312
sg78
I3
sg79
I14
sa(dp83
g75
I72
sg76
F0.05375385284423828
sg77
F0.00013589859008789062
sg78
I3
sg79
I12
sa(dp84
g75
I64
sg76
F0.4151759147644043
sg77
F8.916854858398438e-05
sg78
I4
sg79
I11
sasS'total_cqs'
p85
I18
ssI7
(dp86
S'iters'
p87
I5
sS'meta'
p88
(lp89
(dp90
S'objective'
p91
I9
sS'query_time'
p92
F0.18486785888671875
sS'comp_time'
p93
F8.320808410644531e-05
sS'exec_cq'
p94
I1
sS'total_cq'
p95
I9
sa(dp96
g91
I11
sg92
F0.47928905487060547
sg93
F0.000125885009765625
sg94
I1
sg95
I6
sa(dp97
g91
I5
sg92
F3.9413821697235107
sg93
F0.0002760887145996094
sg94
I1
sg95
I5
sa(dp98
g91
I4
sg92
F0.24573016166687012
sg93
F6.771087646484375e-05
sg94
I1
sg95
I4
sa(dp99
g91
I4
sg92
F0.002340078353881836
sg93
F4.696846008300781e-05
sg94
I1
sg95
I2
sasS'total_cqs'
p100
I9
ssI8
(dp101
S'iters'
p102
I6
sS'meta'
p103
(lp104
(dp105
S'objective'
p106
I324
sS'query_time'
p107
F0.032156944274902344
sS'comp_time'
p108
F9.918212890625e-05
sS'exec_cq'
p109
I1
sS'total_cq'
p110
I27
sa(dp111
g106
I285
sg107
F0.025729894638061523
sg108
F9.107589721679688e-05
sg109
I1
sg110
I26
sa(dp112
g106
I266
sg107
F0.01728200912475586
sg108
F9.799003601074219e-05
sg109
I5
sg110
I23
sa(dp113
g106
I236
sg107
F0.02377009391784668
sg108
F8.416175842285156e-05
sg109
I6
sg110
I20
sa(dp114
g106
I228
sg107
F0.011324167251586914
sg108
F8.392333984375e-05
sg109
I6
sg110
I18
sa(dp115
g106
I216
sg107
F0.008778095245361328
sg108
F7.081031799316406e-05
sg109
I8
sg110
I17
sasS'total_cqs'
p116
I27
ssI9
(dp117
S'iters'
p118
I2
sS'meta'
p119
(lp120
(dp121
S'objective'
p122
I14
sS'query_time'
p123
F0.030241966247558594
sS'comp_time'
p124
F7.987022399902344e-05
sS'exec_cq'
p125
I1
sS'total_cq'
p126
I7
sa(dp127
g122
I3
sg123
F0.0070989131927490234
sg124
F6.699562072753906e-05
sg125
I1
sg126
I2
sasS'total_cqs'
p128
I7
ssI10
(dp129
S'iters'
p130
I8
sS'meta'
p131
(lp132
(dp133
S'objective'
p134
I1192
sS'query_time'
p135
F0.17508411407470703
sS'comp_time'
p136
F0.00013113021850585938
sS'exec_cq'
p137
I2
sS'total_cq'
p138
I51
sa(dp139
g134
I629
sg135
F0.0995171070098877
sg136
F0.0001201629638671875
sg137
I3
sg138
I49
sa(dp140
g134
I312
sg135
F0.047486066818237305
sg136
F0.00011396408081054688
sg137
I3
sg138
I36
sa(dp141
g134
I110
sg135
F0.051715850830078125
sg136
F8.606910705566406e-05
sg137
I1
sg138
I12
sa(dp142
g134
I43
sg135
F0.020494937896728516
sg136
F7.724761962890625e-05
sg137
I1
sg138
I9
sa(dp143
g134
I1
sg135
F0.0077190399169921875
sg136
F5.91278076171875e-05
sg137
I1
sg138
I5
sa(dp144
g134
I21
sg135
F0.008346080780029297
sg136
F5.1021575927734375e-05
sg137
I2
sg138
I3
sa(dp145
g134
I22
sg135
F0.0013959407806396484
sg136
F4.291534423828125e-05
sg137
I2
sg138
I2
sasS'total_cqs'
p146
I51
ssI11
(dp147
S'iters'
p148
I9
sS'meta'
p149
(lp150
(dp151
S'objective'
p152
I1892
sS'query_time'
p153
F0.07390308380126953
sS'comp_time'
p154
F0.0001201629638671875
sS'exec_cq'
p155
I2
sS'total_cq'
p156
I63
sa(dp157
g152
I1834
sg153
F0.12212896347045898
sg154
F0.0001220703125
sg155
I3
sg156
I62
sa(dp158
g152
I1694
sg153
F0.057694196701049805
sg154
F0.00013017654418945312
sg155
I4
sg156
I61
sa(dp159
g152
I1508
sg153
F0.1323709487915039
sg154
F0.00013899803161621094
sg155
I4
sg156
I58
sa(dp160
g152
I1071
sg153
F0.07694482803344727
sg154
F0.00013375282287597656
sg155
I5
sg156
I55
sa(dp161
g152
I86
sg153
F0.014236927032470703
sg154
F8.20159912109375e-05
sg155
I1
sg156
I8
sa(dp162
g152
I76
sg153
F0.011137962341308594
sg154
F7.891654968261719e-05
sg155
I1
sg156
I6
sa(dp163
g152
I10
sg153
F0.007791042327880859
sg154
F5.4836273193359375e-05
sg155
I1
sg156
I4
sa(dp164
g152
I5
sg153
F0.002930879592895508
sg154
F4.1961669921875e-05
sg155
I2
sg156
I2
sasS'total_cqs'
p165
I63
ssI12
(dp166
S'iters'
p167
I9
sS'meta'
p168
(lp169
(dp170
S'objective'
p171
I1135
sS'query_time'
p172
F0.08826708793640137
sS'comp_time'
p173
F0.00013494491577148438
sS'exec_cq'
p174
I2
sS'total_cq'
p175
I50
sa(dp176
g171
I431
sg172
F0.04998588562011719
sg173
F0.00011992454528808594
sg174
I2
sg175
I48
sa(dp177
g171
I404
sg172
F0.06466197967529297
sg173
F0.00010991096496582031
sg174
I4
sg175
I31
sa(dp178
g171
I515
sg172
F0.0384211540222168
sg173
F9.202957153320312e-05
sg174
I6
sg175
I24
sa(dp179
g171
I455
sg172
F0.023530006408691406
sg173
F0.00011920928955078125
sg174
I6
sg175
I21
sa(dp180
g171
I443
sg172
F0.0187380313873291
sg173
F8.296966552734375e-05
sg174
I7
sg175
I19
sa(dp181
g171
I420
sg172
F0.014505147933959961
sg173
F9.298324584960938e-05
sg174
I8
sg175
I18
sa(dp182
g171
I354
sg172
F0.013583183288574219
sg173
F9.322166442871094e-05
sg174
I8
sg175
I17
sa(dp183
g171
I5
sg172
F0.012830018997192383
sg173
F7.605552673339844e-05
sg174
I2
sg175
I3
sasS'total_cqs'
p184
I50
ssI13
(dp185
S'iters'
p186
I5
sS'meta'
p187
(lp188
(dp189
S'objective'
p190
I170
sS'query_time'
p191
F0.08978796005249023
sS'comp_time'
p192
F9.298324584960938e-05
sS'exec_cq'
p193
I1
sS'total_cq'
p194
I20
sa(dp195
g190
I10
sg191
F0.03148698806762695
sg192
F0.00010919570922851562
sg193
I4
sg194
I19
sa(dp196
g190
I16
sg191
F0.025149106979370117
sg192
F9.226799011230469e-05
sg193
I1
sg194
I10
sa(dp197
g190
I16
sg191
F0.012351036071777344
sg192
F7.486343383789062e-05
sg193
I1
sg194
I5
sa(dp198
g190
I9
sg191
F0.007097959518432617
sg192
F6.67572021484375e-05
sg193
I2
sg194
I2
sasS'total_cqs'
p199
I20
ssI14
(dp200
S'iters'
p201
I4
sS'meta'
p202
(lp203
(dp204
S'objective'
p205
I27
sS'query_time'
p206
F0.014326095581054688
sS'comp_time'
p207
F7.915496826171875e-05
sS'exec_cq'
p208
I1
sS'total_cq'
p209
I9
sa(dp210
g205
I20
sg206
F0.48888182640075684
sg207
F7.677078247070312e-05
sg208
I1
sg209
I8
sa(dp211
g205
I2
sg206
F0.9899590015411377
sg207
F9.226799011230469e-05
sg208
I1
sg209
I7
sa(dp212
g205
I1
sg206
F0.3607048988342285
sg207
F0.0001609325408935547
sg208
I1
sg209
I3
sasS'total_cqs'
p213
I9
ssI15
(dp214
S'iters'
p215
I3
sS'meta'
p216
(lp217
(dp218
S'objective'
p219
I14
sS'query_time'
p220
F0.10831809043884277
sS'comp_time'
p221
F7.605552673339844e-05
sS'exec_cq'
p222
I1
sS'total_cq'
p223
I11
sa(dp224
g219
I22
sg220
F0.11095905303955078
sg221
F9.083747863769531e-05
sg222
I2
sg223
I7
sa(dp225
g219
I17
sg220
F0.04230809211730957
sg221
F7.510185241699219e-05
sg222
I2
sg223
I6
sasS'total_cqs'
p226
I11
ssI16
(dp227
S'iters'
p228
I1
sS'meta'
p229
(lp230
(dp231
S'objective'
p232
I26
sS'query_time'
p233
F0.011845111846923828
sS'comp_time'
p234
F0.0001049041748046875
sS'exec_cq'
p235
I4
sS'total_cq'
p236
I8
sasS'total_cqs'
p237
I8
ssI17
(dp238
S'iters'
p239
I3
sS'meta'
p240
(lp241
(dp242
S'objective'
p243
I16
sS'query_time'
p244
F0.2588319778442383
sS'comp_time'
p245
F8.225440979003906e-05
sS'exec_cq'
p246
I2
sS'total_cq'
p247
I11
sa(dp248
g243
I19
sg244
F0.038548946380615234
sg245
F9.489059448242188e-05
sg246
I2
sg247
I8
sa(dp249
g243
I16
sg244
F0.03930997848510742
sg245
F8.082389831542969e-05
sg246
I2
sg247
I6
sasS'total_cqs'
p250
I11
ssI18
(dp251
S'iters'
p252
I3
sS'meta'
p253
(lp254
(dp255
S'objective'
p256
I46
sS'query_time'
p257
F0.08449387550354004
sS'comp_time'
p258
F7.82012939453125e-05
sS'exec_cq'
p259
I2
sS'total_cq'
p260
I11
sa(dp261
g256
I22
sg257
F0.017207860946655273
sg258
F7.104873657226562e-05
sg259
I2
sg260
I10
sa(dp262
g256
I25
sg257
F0.017095088958740234
sg258
F9.202957153320312e-05
sg259
I2
sg260
I8
sasS'total_cqs'
p263
I11
ssI19
(dp264
S'iters'
p265
I0
sS'meta'
p266
(lp267
sS'total_cqs'
p268
I1
ssI20
(dp269
S'iters'
p270
I0
sS'meta'
p271
(lp272
sS'total_cqs'
p273
I1
ssI21
(dp274
S'iters'
p275
I0
sS'meta'
p276
(lp277
sS'total_cqs'
p278
I1
ssI22
(dp279
S'iters'
p280
I1
sS'meta'
p281
(lp282
(dp283
S'objective'
p284
I151
sS'query_time'
p285
F0.05527305603027344
sS'comp_time'
p286
F9.703636169433594e-05
sS'exec_cq'
p287
I9
sS'total_cq'
p288
I18
sasS'total_cqs'
p289
I18
ssI23
(dp290
S'iters'
p291
I2
sS'meta'
p292
(lp293
(dp294
S'objective'
p295
I94
sS'query_time'
p296
F0.013506889343261719
sS'comp_time'
p297
F8.20159912109375e-05
sS'exec_cq'
p298
I1
sS'total_cq'
p299
I16
sa(dp300
g295
I97
sg296
F0.014589071273803711
sg297
F7.510185241699219e-05
sg298
I7
sg299
I14
sasS'total_cqs'
p301
I16
ssI24
(dp302
S'iters'
p303
I0
sS'meta'
p304
(lp305
sS'total_cqs'
p306
I1
ssI25
(dp307
S'iters'
p308
I0
sS'meta'
p309
(lp310
sS'total_cqs'
p311
I1
ssI26
(dp312
S'iters'
p313
I1
sS'meta'
p314
(lp315
(dp316
S'objective'
p317
I859
sS'query_time'
p318
F0.06718993186950684
sS'comp_time'
p319
F0.00011205673217773438
sS'exec_cq'
p320
I21
sS'total_cq'
p321
I42
sasS'total_cqs'
p322
I42
ssI27
(dp323
S'iters'
p324
I5
sS'meta'
p325
(lp326
(dp327
S'objective'
p328
I413
sS'query_time'
p329
F2.1420161724090576
sS'comp_time'
p330
F0.00011897087097167969
sS'exec_cq'
p331
I5
sS'total_cq'
p332
I30
sa(dp333
g328
I399
sg329
F9.581252813339233
sg330
F0.0006377696990966797
sg331
I10
sg332
I29
sa(dp334
g328
I385
sg329
F0.6852610111236572
sg330
F0.00016307830810546875
sg331
I12
sg332
I28
sa(dp335
g328
I348
sg329
F2.668894052505493
sg330
F0.0004620552062988281
sg331
I12
sg332
I27
sa(dp336
g328
I5
sg329
F1285.1407120227814
sg330
F0.00018715858459472656
sg331
I2
sg332
I2
sasS'total_cqs'
p337
I30
ssI28
(dp338
S'iters'
p339
I0
sS'meta'
p340
(lp341
sS'total_cqs'
p342
I1
ssI29
(dp343
S'iters'
p344
I10
sS'meta'
p345
(lp346
(dp347
S'objective'
p348
I931
sS'query_time'
p349
F1.1579458713531494
sS'comp_time'
p350
F0.00013399124145507812
sS'exec_cq'
p351
I1
sS'total_cq'
p352
I49
sa(dp353
g348
I982
sg349
F1.2726800441741943
sg350
F0.00012612342834472656
sg351
I1
sg352
I45
sa(dp354
g348
I870
sg349
F1.8414618968963623
sg350
F0.00012493133544921875
sg351
I1
sg352
I44
sa(dp355
g348
I858
sg349
F1.2971439361572266
sg350
F0.00044417381286621094
sg351
I1
sg352
I41
sa(dp356
g348
I748
sg349
F0.5944578647613525
sg350
F0.000118255615234375
sg351
I1
sg352
I40
sa(dp357
g348
I408
sg349
F0.44428396224975586
sg350
F0.0001270771026611328
sg351
I1
sg352
I38
sa(dp358
g348
I121
sg349
F0.11182093620300293
sg350
F0.0001659393310546875
sg351
I1
sg352
I11
sa(dp359
g348
I91
sg349
F0.4240868091583252
sg350
F9.083747863769531e-05
sg351
I1
sg352
I10
sa(dp360
g348
I48
sg349
F1.659679889678955
sg350
F0.00015091896057128906
sg351
I1
sg352
I9
sa(dp361
g348
I36
sg349
F0.13321805000305176
sg350
F0.00013494491577148438
sg351
I1
sg352
I7
sasS'total_cqs'
p362
I49
ssI30
(dp363
S'iters'
p364
I1
sS'meta'
p365
(lp366
(dp367
S'objective'
p368
I1
sS'query_time'
p369
F0.7483911514282227
sS'comp_time'
p370
F6.508827209472656e-05
sS'exec_cq'
p371
I1
sS'total_cq'
p372
I2
sasS'total_cqs'
p373
I2
ssI31
(dp374
S'iters'
p375
I0
sS'meta'
p376
(lp377
sS'total_cqs'
p378
I1
ssI32
(dp379
S'iters'
p380
I1
sS'meta'
p381
(lp382
(dp383
S'objective'
p384
I1
sS'query_time'
p385
F0.008184194564819336
sS'comp_time'
p386
F7.200241088867188e-05
sS'exec_cq'
p387
I1
sS'total_cq'
p388
I2
sasS'total_cqs'
p389
I2
ssI33
(dp390
S'iters'
p391
I17
sS'meta'
p392
(lp393
(dp394
S'objective'
p395
I5150
sS'query_time'
p396
F0.9320640563964844
sS'comp_time'
p397
F0.0001761913299560547
sS'exec_cq'
p398
I1
sS'total_cq'
p399
I103
sa(dp400
g395
I4881
sg396
F0.6265220642089844
sg397
F0.00019598007202148438
sg398
I1
sg399
I102
sa(dp401
g395
I4867
sg396
F3.6500301361083984
sg397
F0.00017786026000976562
sg398
I2
sg399
I100
sa(dp402
g395
I4543
sg396
F0.8230721950531006
sg397
F0.0001780986785888672
sg398
I4
sg399
I99
sa(dp403
g395
I4487
sg396
F0.6770839691162109
sg397
F0.00015211105346679688
sg398
I9
sg399
I95
sa(dp404
g395
I4441
sg396
F0.8193271160125732
sg397
F0.0002608299255371094
sg398
I9
sg399
I93
sa(dp405
g395
I4357
sg396
F0.6676251888275146
sg397
F0.0001747608184814453
sg398
I11
sg399
I92
sa(dp406
g395
I4162
sg396
F0.8986749649047852
sg397
F0.00016689300537109375
sg398
I12
sg399
I91
sa(dp407
g395
I4141
sg396
F1.114358901977539
sg397
F0.0008511543273925781
sg398
I14
sg399
I89
sa(dp408
g395
I3966
sg396
F0.8206679821014404
sg397
F0.00015306472778320312
sg398
I16
sg399
I88
sa(dp409
g395
I3792
sg396
F3.0709829330444336
sg397
F0.0001811981201171875
sg398
I16
sg399
I86
sa(dp410
g395
I3799
sg396
F2.889853000640869
sg397
F0.00018525123596191406
sg398
I20
sg399
I83
sa(dp411
g395
I3693
sg396
F0.5346560478210449
sg397
F0.00019788742065429688
sg398
I20
sg399
I82
sa(dp412
g395
I3648
sg396
F0.4633188247680664
sg397
F0.00016379356384277344
sg398
I22
sg399
I80
sa(dp413
g395
I3453
sg396
F0.3615710735321045
sg397
F0.00014400482177734375
sg398
I22
sg399
I79
sa(dp414
g395
I3350
sg396
F0.3794529438018799
sg397
F0.0001780986785888672
sg398
I22
sg399
I77
sa(dp415
g395
I11
sg396
F0.02086806297302246
sg397
F7.987022399902344e-05
sg398
I1
sg399
I2
sasS'total_cqs'
p416
I103
ssI34
(dp417
S'iters'
p418
I1
sS'meta'
p419
(lp420
(dp421
S'objective'
p422
I1
sS'query_time'
p423
F0.014783143997192383
sS'comp_time'
p424
F7.200241088867188e-05
sS'exec_cq'
p425
I1
sS'total_cq'
p426
I2
sasS'total_cqs'
p427
I2
ssI35
(dp428
S'iters'
p429
I13
sS'meta'
p430
(lp431
(dp432
S'objective'
p433
I2349
sS'query_time'
p434
F3.9995410442352295
sS'comp_time'
p435
F0.0001480579376220703
sS'exec_cq'
p436
I3
sS'total_cq'
p437
I70
sa(dp438
g433
I2217
sg434
F0.6715199947357178
sg435
F0.0001609325408935547
sg436
I3
sg437
I69
sa(dp439
g433
I1357
sg434
F0.33421897888183594
sg435
F0.0001399517059326172
sg436
I4
sg437
I67
sa(dp440
g433
I1711
sg434
F0.441007137298584
sg435
F0.0001442432403564453
sg436
I4
sg437
I54
sa(dp441
g433
I1656
sg434
F25.248533010482788
sg435
F0.0003209114074707031
sg436
I6
sg437
I53
sa(dp442
g433
I1585
sg434
F44.989404916763306
sg435
F0.0002627372741699219
sg436
I7
sg437
I52
sa(dp443
g433
I1490
sg434
F0.9571290016174316
sg435
F0.00014209747314453125
sg436
I8
sg437
I50
sa(dp444
g433
I1382
sg434
F0.936784029006958
sg435
F0.000125885009765625
sg436
I8
sg437
I48
sa(dp445
g433
I1378
sg434
F0.044982194900512695
sg435
F9.918212890625e-05
sg436
I8
sg437
I46
sa(dp446
g433
I1103
sg434
F24.482453107833862
sg435
F0.0001780986785888672
sg436
I10
sg437
I45
sa(dp447
g433
I1181
sg434
F0.9469859600067139
sg435
F0.00011992454528808594
sg436
I10
sg437
I42
sa(dp448
g433
I1149
sg434
F0.20949196815490723
sg435
F0.0001361370086669922
sg436
I14
sg437
I41
sa(dp449
g433
I1114
sg434
F0.16628384590148926
sg435
F0.00018596649169921875
sg436
I14
sg437
I40
sasS'total_cqs'
p450
I70
ssI36
(dp451
S'iters'
p452
I5
sS'meta'
p453
(lp454
(dp455
S'objective'
p456
I505
sS'query_time'
p457
F0.06429195404052734
sS'comp_time'
p458
F0.00010704994201660156
sS'exec_cq'
p459
I6
sS'total_cq'
p460
I33
sa(dp461
g456
I467
sg457
F0.1438889503479004
sg458
F0.00012111663818359375
sg459
I12
sg460
I32
sa(dp462
g456
I460
sg457
F0.026713132858276367
sg458
F9.083747863769531e-05
sg459
I12
sg460
I30
sa(dp463
g456
I412
sg457
F0.029245853424072266
sg458
F0.0001010894775390625
sg459
I12
sg460
I29
sa(dp464
g456
I410
sg457
F0.036112070083618164
sg458
F0.000102996826171875
sg459
I12
sg460
I27
sasS'total_cqs'
p465
I33
ssI37
(dp466
S'iters'
p467
I1
sS'meta'
p468
(lp469
(dp470
S'objective'
p471
I1
sS'query_time'
p472
F0.007592916488647461
sS'comp_time'
p473
F6.866455078125e-05
sS'exec_cq'
p474
I1
sS'total_cq'
p475
I2
sasS'total_cqs'
p476
I2
ssI38
(dp477
S'iters'
p478
I2
sS'meta'
p479
(lp480
(dp481
S'objective'
p482
I4
sS'query_time'
p483
F0.013792991638183594
sS'comp_time'
p484
F6.699562072753906e-05
sS'exec_cq'
p485
I1
sS'total_cq'
p486
I4
sa(dp487
g482
I1
sg483
F0.003423929214477539
sg484
F5.2928924560546875e-05
sg485
I1
sg486
I2
sasS'total_cqs'
p488
I4
ssI39
(dp489
S'iters'
p490
I4
sS'meta'
p491
(lp492
(dp493
S'objective'
p494
I696
sS'query_time'
p495
F0.051505088806152344
sS'comp_time'
p496
F0.00010991096496582031
sS'exec_cq'
p497
I8
sS'total_cq'
p498
I44
sa(dp499
g494
I73
sg495
F0.017652034759521484
sg496
F7.62939453125e-05
sg497
I2
sg498
I8
sa(dp500
g494
I54
sg495
F0.014354228973388672
sg496
F7.677078247070312e-05
sg497
I2
sg498
I7
sa(dp501
g494
I36
sg495
F0.04052996635437012
sg496
F8.893013000488281e-05
sg497
I2
sg498
I6
sasS'total_cqs'
p502
I44
ssI40
(dp503
S'iters'
p504
I1
sS'meta'
p505
(lp506
(dp507
S'objective'
p508
I18
sS'query_time'
p509
F0.023730993270874023
sS'comp_time'
p510
F0.00012922286987304688
sS'exec_cq'
p511
I3
sS'total_cq'
p512
I7
sasS'total_cqs'
p513
I7
ssI41
(dp514
S'iters'
p515
I2
sS'meta'
p516
(lp517
(dp518
S'objective'
p519
I60
sS'query_time'
p520
F0.040907859802246094
sS'comp_time'
p521
F8.20159912109375e-05
sS'exec_cq'
p522
I4
sS'total_cq'
p523
I12
sa(dp524
g519
I55
sg520
F0.014232158660888672
sg521
F8.392333984375e-05
sg522
I5
sg523
I11
sasS'total_cqs'
p525
I12
ssI42
(dp526
S'iters'
p527
I3
sS'meta'
p528
(lp529
(dp530
S'objective'
p531
I793
sS'query_time'
p532
F0.04689288139343262
sS'comp_time'
p533
F0.00011968612670898438
sS'exec_cq'
p534
I8
sS'total_cq'
p535
I41
sa(dp536
g531
I781
sg532
F0.026870012283325195
sg533
F0.00011897087097167969
sg534
I18
sg535
I40
sa(dp537
g531
I760
sg532
F0.013537168502807617
sg533
F0.00011110305786132812
sg534
I18
sg535
I39
sasS'total_cqs'
p538
I41
ssI43
(dp539
S'iters'
p540
I1
sS'meta'
p541
(lp542
(dp543
S'objective'
p544
I18
sS'query_time'
p545
F0.015241146087646484
sS'comp_time'
p546
F7.700920104980469e-05
sS'exec_cq'
p547
I3
sS'total_cq'
p548
I7
sasS'total_cqs'
p549
I7
ssI44
(dp550
S'iters'
p551
I4
sS'meta'
p552
(lp553
(dp554
S'objective'
p555
I774
sS'query_time'
p556
F0.046267032623291016
sS'comp_time'
p557
F0.0001201629638671875
sS'exec_cq'
p558
I3
sS'total_cq'
p559
I47
sa(dp560
g555
I877
sg556
F0.07183122634887695
sg557
F0.00012993812561035156
sg558
I9
sg559
I40
sa(dp561
g555
I794
sg556
F0.02959299087524414
sg557
F8.797645568847656e-05
sg558
I10
sg559
I39
sa(dp562
g555
I10
sg556
F0.004137992858886719
sg557
F4.410743713378906e-05
sg558
I2
sg559
I2
sasS'total_cqs'
p563
I47
ssI45
(dp564
S'iters'
p565
I0
sS'meta'
p566
(lp567
sS'total_cqs'
p568
I1
ssI46
(dp569
S'iters'
p570
I3
sS'meta'
p571
(lp572
(dp573
S'objective'
p574
I9
sS'query_time'
p575
F0.007821798324584961
sS'comp_time'
p576
F6.699562072753906e-05
sS'exec_cq'
p577
I1
sS'total_cq'
p578
I6
sa(dp579
g574
I5
sg575
F0.0030608177185058594
sg576
F7.677078247070312e-05
sg577
I1
sg578
I5
sa(dp580
g574
I2
sg575
F0.002663850784301758
sg576
F5.602836608886719e-05
sg577
I1
sg578
I4
sasS'total_cqs'
p581
I6
ssI47
(dp582
S'iters'
p583
I1
sS'meta'
p584
(lp585
(dp586
S'objective'
p587
I1
sS'query_time'
p588
F0.006386995315551758
sS'comp_time'
p589
F5.984306335449219e-05
sS'exec_cq'
p590
I1
sS'total_cq'
p591
I2
sasS'total_cqs'
p592
I2
ssI48
(dp593
S'iters'
p594
I0
sS'meta'
p595
(lp596
sS'total_cqs'
p597
I1
ssI49
(dp598
S'iters'
p599
I0
sS'meta'
p600
(lp601
sS'total_cqs'
p602
I1
ssI50
(dp603
S'iters'
p604
I2
sS'meta'
p605
(lp606
(dp607
S'objective'
p608
I5
sS'query_time'
p609
F0.004937887191772461
sS'comp_time'
p610
F5.8650970458984375e-05
sS'exec_cq'
p611
I1
sS'total_cq'
p612
I5
sa(dp613
g608
I2
sg609
F0.0036318302154541016
sg610
F5.793571472167969e-05
sg611
I1
sg612
I4
sasS'total_cqs'
p614
I5
ssI51
(dp615
S'iters'
p616
I1
sS'meta'
p617
(lp618
(dp619
S'objective'
p620
I1
sS'query_time'
p621
F0.005466938018798828
sS'comp_time'
p622
F6.604194641113281e-05
sS'exec_cq'
p623
I1
sS'total_cq'
p624
I2
sasS'total_cqs'
p625
I2
ssI52
(dp626
S'iters'
p627
I1
sS'meta'
p628
(lp629
(dp630
S'objective'
p631
I1
sS'query_time'
p632
F0.005527019500732422
sS'comp_time'
p633
F5.698204040527344e-05
sS'exec_cq'
p634
I1
sS'total_cq'
p635
I2
sasS'total_cqs'
p636
I2
ssI53
(dp637
S'iters'
p638
I2
sS'meta'
p639
(lp640
(dp641
S'objective'
p642
I2
sS'query_time'
p643
F0.01346898078918457
sS'comp_time'
p644
F0.00010395050048828125
sS'exec_cq'
p645
I1
sS'total_cq'
p646
I4
sa(dp647
g642
I0
sg643
F0.010499954223632812
sg644
F6.794929504394531e-05
sg645
I1
sg646
I3
sasS'total_cqs'
p648
I4
ssI54
(dp649
S'iters'
p650
I1
sS'meta'
p651
(lp652
(dp653
S'objective'
p654
I0
sS'query_time'
p655
F0.007234096527099609
sS'comp_time'
p656
F6.4849853515625e-05
sS'exec_cq'
p657
I1
sS'total_cq'
p658
I3
sasS'total_cqs'
p659
I3
ssI55
(dp660
S'iters'
p661
I11
sS'meta'
p662
(lp663
(dp664
S'objective'
p665
I5315
sS'query_time'
p666
F0.46468591690063477
sS'comp_time'
p667
F0.00017571449279785156
sS'exec_cq'
p668
I2
sS'total_cq'
p669
I109
sa(dp670
g665
I5205
sg666
F0.2382640838623047
sg667
F0.00019502639770507812
sg668
I5
sg669
I103
sa(dp671
g665
I5092
sg666
F0.36148786544799805
sg667
F0.0001773834228515625
sg668
I5
sg669
I99
sa(dp672
g665
I4885
sg666
F0.3659071922302246
sg667
F0.00017595291137695312
sg668
I10
sg669
I97
sa(dp673
g665
I4813
sg666
F0.14133381843566895
sg667
F0.00018310546875
sg668
I12
sg669
I95
sa(dp674
g665
I4691
sg666
F0.14663910865783691
sg667
F0.00016617774963378906
sg668
I16
sg669
I93
sa(dp675
g665
I4585
sg666
F0.21346807479858398
sg667
F0.000164031982421875
sg668
I31
sg669
I91
sa(dp676
g665
I4575
sg666
F0.08333277702331543
sg667
F0.00015306472778320312
sg668
I34
sg669
I89
sa(dp677
g665
I4392
sg666
F0.08891105651855469
sg667
F0.0001590251922607422
sg668
I34
sg669
I88
sa(dp678
g665
I4397
sg666
F0.14920997619628906
sg667
F0.00013303756713867188
sg668
I35
sg669
I86
sa(dp679
g665
I4344
sg666
F0.12357902526855469
sg667
F0.0001506805419921875
sg668
I37
sg669
I85
sasS'total_cqs'
p680
I109
ssI56
(dp681
S'iters'
p682
I10
sS'meta'
p683
(lp684
(dp685
S'objective'
p686
I2776
sS'query_time'
p687
F0.40981507301330566
sS'comp_time'
p688
F0.00017070770263671875
sS'exec_cq'
p689
I2
sS'total_cq'
p690
I76
sa(dp691
g686
I2073
sg687
F0.29635190963745117
sg688
F0.00015592575073242188
sg689
I2
sg690
I75
sa(dp692
g686
I2322
sg687
F0.44574904441833496
sg688
F0.00014209747314453125
sg689
I5
sg690
I66
sa(dp693
g686
I2240
sg687
F0.21651887893676758
sg688
F0.0001430511474609375
sg689
I5
sg690
I65
sa(dp694
g686
I2186
sg687
F0.23252105712890625
sg688
F0.00015997886657714844
sg689
I6
sg690
I63
sa(dp695
g686
I2039
sg687
F0.1878809928894043
sg688
F0.0001418590545654297
sg689
I7
sg690
I62
sa(dp696
g686
I2031
sg687
F0.3382570743560791
sg688
F0.0001761913299560547
sg689
I11
sg690
I59
sa(dp697
g686
I1980
sg687
F0.1798560619354248
sg688
F0.00015020370483398438
sg689
I13
sg690
I58
sa(dp698
g686
I1848
sg687
F0.18330597877502441
sg688
F0.00015997886657714844
sg689
I14
sg690
I57
sa(dp699
g686
I15
sg687
F0.029371023178100586
sg688
F7.581710815429688e-05
sg689
I1
sg690
I3
sasS'total_cqs'
p700
I76
ssI57
(dp701
S'iters'
p702
I8
sS'meta'
p703
(lp704
(dp705
S'objective'
p706
I1174
sS'query_time'
p707
F3.3799211978912354
sS'comp_time'
p708
F0.0001308917999267578
sS'exec_cq'
p709
I1
sS'total_cq'
p710
I51
sa(dp711
g706
I1030
sg707
F18.9689359664917
sg708
F0.0003981590270996094
sg709
I1
sg710
I49
sa(dp712
g706
I816
sg707
F0.9019479751586914
sg708
F0.00011610984802246094
sg709
I1
sg710
I46
sa(dp713
g706
I680
sg707
F2.1197588443756104
sg708
F0.00013399124145507812
sg709
I2
sg710
I40
sa(dp714
g706
I241
sg707
F0.13643383979797363
sg708
F0.00012993812561035156
sg709
I2
sg710
I34
sa(dp715
g706
I66
sg707
F0.11744308471679688
sg708
F0.0001361370086669922
sg709
I1
sg710
I10
sa(dp716
g706
I46
sg707
F0.5149540901184082
sg708
F0.0001392364501953125
sg709
I1
sg710
I6
sa(dp717
g706
I13
sg707
F0.004472017288208008
sg708
F7.915496826171875e-05
sg709
I1
sg710
I2
sasS'total_cqs'
p718
I51
ssI58
(dp719
S'iters'
p720
I23
sS'meta'
p721
(lp722
(dp723
S'objective'
p724
I99807
sS'query_time'
p725
F2.3574001789093018
sS'comp_time'
p726
F0.0005710124969482422
sS'exec_cq'
p727
I1
sS'total_cq'
p728
I486
sa(dp729
g724
I107154
sg725
F0.7235631942749023
sg726
F0.0005509853363037109
sg727
I2
sg728
I450
sa(dp730
g724
I106400
sg725
F0.5320708751678467
sg726
F0.0024628639221191406
sg727
I6
sg728
I448
sa(dp731
g724
I106303
sg725
F2.110881805419922
sg726
F0.0005211830139160156
sg727
I6
sg728
I446
sa(dp732
g724
I104308
sg725
F4.8860719203948975
sg726
F0.0005469322204589844
sg727
I6
sg728
I445
sa(dp733
g724
I99474
sg725
F2.50734281539917
sg726
F0.0005629062652587891
sg727
I9
sg728
I441
sa(dp734
g724
I101573
sg725
F3.377285957336426
sg726
F0.0008080005645751953
sg727
I10
sg728
I432
sa(dp735
g724
I100671
sg725
F1.5219261646270752
sg726
F0.0005762577056884766
sg727
I11
sg728
I431
sa(dp736
g724
I98210
sg725
F5.5312819480896
sg726
F0.0008289813995361328
sg727
I12
sg728
I429
sa(dp737
g724
I96105
sg725
F1.3542239665985107
sg726
F0.00041604042053222656
sg727
I14
sg728
I423
sa(dp738
g724
I97026
sg725
F11.730755805969238
sg726
F0.0011301040649414062
sg727
I14
sg728
I417
sa(dp739
g724
I96533
sg725
F2.5259339809417725
sg726
F0.0004019737243652344
sg727
I16
sg728
I416
sa(dp740
g724
I95509
sg725
F18.32369899749756
sg726
F0.0008628368377685547
sg727
I18
sg728
I414
sa(dp741
g724
I94661
sg725
F1.6272759437561035
sg726
F0.0007040500640869141
sg727
I19
sg728
I412
sa(dp742
g724
I92326
sg725
F0.45980119705200195
sg726
F0.0004889965057373047
sg727
I19
sg728
I410
sa(dp743
g724
I93003
sg725
F17.019904136657715
sg726
F0.0006678104400634766
sg727
I20
sg728
I405
sa(dp744
g724
I87550
sg725
F11.62404489517212
sg726
F0.0008711814880371094
sg727
I20
sg728
I404
sa(dp745
g724
I84577
sg725
F1.2085301876068115
sg726
F0.00047588348388671875
sg727
I20
sg728
I392
sa(dp746
g724
I2077
sg725
F0.24123716354370117
sg726
F8.416175842285156e-05
sg727
I1
sg728
I14
sa(dp747
g724
I121
sg725
F1.1187188625335693
sg726
F0.00014591217041015625
sg727
I1
sg728
I13
sa(dp748
g724
I726
sg725
F0.3399829864501953
sg726
F0.00011301040649414062
sg727
I1
sg728
I7
sa(dp749
g724
I65
sg725
F0.12169194221496582
sg726
F0.00011610984802246094
sg727
I1
sg728
I6
sa(dp750
g724
I56
sg725
F0.08815503120422363
sg726
F0.0001068115234375
sg727
I1
sg728
I3
sasS'total_cqs'
p751
I486
ssI59
(dp752
S'iters'
p753
I2
sS'meta'
p754
(lp755
(dp756
S'objective'
p757
I10
sS'query_time'
p758
F0.020780086517333984
sS'comp_time'
p759
F8.320808410644531e-05
sS'exec_cq'
p760
I3
sS'total_cq'
p761
I7
sa(dp762
g757
I1
sg758
F0.03516888618469238
sg759
F7.462501525878906e-05
sg760
I2
sg761
I2
sasS'total_cqs'
p763
I7
ssI60
(dp764
S'iters'
p765
I2
sS'meta'
p766
(lp767
(dp768
S'objective'
p769
I5
sS'query_time'
p770
F0.00617218017578125
sS'comp_time'
p771
F6.29425048828125e-05
sS'exec_cq'
p772
I1
sS'total_cq'
p773
I5
sa(dp774
g769
I2
sg770
F0.003348112106323242
sg771
F6.222724914550781e-05
sg772
I1
sg773
I4
sasS'total_cqs'
p775
I5
ssI61
(dp776
S'iters'
p777
I0
sS'meta'
p778
(lp779
sS'total_cqs'
p780
I1
ssI62
(dp781
S'iters'
p782
I4
sS'meta'
p783
(lp784
(dp785
S'objective'
p786
I56
sS'query_time'
p787
F0.015133142471313477
sS'comp_time'
p788
F9.822845458984375e-05
sS'exec_cq'
p789
I2
sS'total_cq'
p790
I12
sa(dp791
g786
I47
sg787
F0.012262105941772461
sg788
F7.319450378417969e-05
sg789
I2
sg790
I11
sa(dp792
g786
I37
sg787
F0.008465051651000977
sg788
F6.723403930664062e-05
sg789
I2
sg790
I10
sa(dp793
g786
I33
sg787
F0.00651097297668457
sg788
F6.4849853515625e-05
sg789
I3
sg790
I8
sasS'total_cqs'
p794
I12
ssI63
(dp795
S'iters'
p796
I0
sS'meta'
p797
(lp798
sS'total_cqs'
p799
I1
ssI64
(dp800
S'iters'
p801
I5
sS'meta'
p802
(lp803
(dp804
S'objective'
p805
I44
sS'query_time'
p806
F0.03649401664733887
sS'comp_time'
p807
F7.82012939453125e-05
sS'exec_cq'
p808
I1
sS'total_cq'
p809
I12
sa(dp810
g805
I39
sg806
F0.07539892196655273
sg807
F8.0108642578125e-05
sg808
I1
sg809
I10
sa(dp811
g805
I30
sg806
F0.02915787696838379
sg807
F8.320808410644531e-05
sg808
I1
sg809
I9
sa(dp812
g805
I10
sg806
F0.025016069412231445
sg807
F8.487701416015625e-05
sg808
I2
sg809
I8
sa(dp813
g805
I1
sg806
F0.0009088516235351562
sg807
F5.793571472167969e-05
sg808
I1
sg809
I2
sasS'total_cqs'
p814
I12
ssI65
(dp815
S'iters'
p816
I10
sS'meta'
p817
(lp818
(dp819
S'objective'
p820
I324
sS'query_time'
p821
F0.03379201889038086
sS'comp_time'
p822
F0.00010204315185546875
sS'exec_cq'
p823
I1
sS'total_cq'
p824
I27
sa(dp825
g820
I299
sg821
F0.025176048278808594
sg822
F0.0001010894775390625
sg823
I1
sg824
I26
sa(dp826
g820
I255
sg821
F0.06675195693969727
sg822
F0.00010609626770019531
sg823
I1
sg824
I25
sa(dp827
g820
I242
sg821
F0.029307126998901367
sg822
F0.00011420249938964844
sg823
I1
sg824
I23
sa(dp828
g820
I220
sg821
F0.13744282722473145
sg822
F0.00017309188842773438
sg823
I1
sg824
I22
sa(dp829
g820
I199
sg821
F0.04081010818481445
sg822
F0.00010418891906738281
sg823
I1
sg824
I21
sa(dp830
g820
I181
sg821
F0.022694826126098633
sg822
F9.179115295410156e-05
sg823
I2
sg824
I20
sa(dp831
g820
I133
sg821
F0.01587700843811035
sg822
F9.131431579589844e-05
sg823
I2
sg824
I19
sa(dp832
g820
I113
sg821
F0.01969003677368164
sg822
F8.106231689453125e-05
sg823
I5
sg824
I16
sa(dp833
g820
I3
sg821
F0.0015861988067626953
sg822
F4.482269287109375e-05
sg823
I1
sg824
I2
sasS'total_cqs'
p834
I27
ssI66
(dp835
S'iters'
p836
I0
sS'meta'
p837
(lp838
sS'total_cqs'
p839
I1
ssI67
(dp840
S'iters'
p841
I1
sS'meta'
p842
(lp843
(dp844
S'objective'
p845
I592
sS'query_time'
p846
F0.9178810119628906
sS'comp_time'
p847
F0.00011110305786132812
sS'exec_cq'
p848
I17
sS'total_cq'
p849
I35
sasS'total_cqs'
p850
I35
ssI68
(dp851
S'iters'
p852
I0
sS'meta'
p853
(lp854
sS'total_cqs'
p855
I1
ssI69
(dp856
S'iters'
p857
I1
sS'meta'
p858
(lp859
(dp860
S'objective'
p861
I1272
sS'query_time'
p862
F0.10931921005249023
sS'comp_time'
p863
F0.00011515617370605469
sS'exec_cq'
p864
I25
sS'total_cq'
p865
I51
sasS'total_cqs'
p866
I51
ssI70
(dp867
S'iters'
p868
I3
sS'meta'
p869
(lp870
(dp871
S'objective'
p872
I9
sS'query_time'
p873
F0.007080078125
sS'comp_time'
p874
F7.605552673339844e-05
sS'exec_cq'
p875
I1
sS'total_cq'
p876
I6
sa(dp877
g872
I5
sg873
F0.004640102386474609
sg874
F6.604194641113281e-05
sg875
I1
sg876
I5
sa(dp878
g872
I2
sg873
F0.010591983795166016
sg874
F7.605552673339844e-05
sg875
I1
sg876
I4
sasS'total_cqs'
p879
I6
ssI71
(dp880
S'iters'
p881
I3
sS'meta'
p882
(lp883
(dp884
S'objective'
p885
I3255
sS'query_time'
p886
F0.10326600074768066
sS'comp_time'
p887
F0.00015401840209960938
sS'exec_cq'
p888
I2
sS'total_cq'
p889
I85
sa(dp890
g885
I32
sg886
F0.011509180068969727
sg887
F8.082389831542969e-05
sg888
I2
sg889
I3
sa(dp891
g885
I28
sg886
F0.005287885665893555
sg887
F5.91278076171875e-05
sg888
I2
sg889
I2
sasS'total_cqs'
p892
I85
ssI72
(dp893
S'iters'
p894
I4
sS'meta'
p895
(lp896
(dp897
S'objective'
p898
I20
sS'query_time'
p899
F0.04634499549865723
sS'comp_time'
p900
F0.00010585784912109375
sS'exec_cq'
p901
I1
sS'total_cq'
p902
I8
sa(dp903
g898
I8
sg899
F0.06348299980163574
sg900
F9.202957153320312e-05
sg901
I1
sg902
I7
sa(dp904
g898
I6
sg899
F0.22216796875
sg900
F7.796287536621094e-05
sg901
I1
sg902
I5
sa(dp905
g898
I2
sg899
F0.005663156509399414
sg900
F6.699562072753906e-05
sg901
I1
sg902
I4
sasS'total_cqs'
p906
I8
ssI73
(dp907
S'iters'
p908
I0
sS'meta'
p909
(lp910
sS'total_cqs'
p911
I1
ssI74
(dp912
S'iters'
p913
I0
sS'meta'
p914
(lp915
sS'total_cqs'
p916
I1
ssI75
(dp917
S'iters'
p918
I2
sS'meta'
p919
(lp920
(dp921
S'objective'
p922
I5
sS'query_time'
p923
F0.006226062774658203
sS'comp_time'
p924
F6.008148193359375e-05
sS'exec_cq'
p925
I1
sS'total_cq'
p926
I5
sa(dp927
g922
I2
sg923
F0.003198862075805664
sg924
F5.173683166503906e-05
sg925
I1
sg926
I4
sasS'total_cqs'
p928
I5
ssI76
(dp929
S'iters'
p930
I1
sS'meta'
p931
(lp932
(dp933
S'objective'
p934
I1
sS'query_time'
p935
F0.009459972381591797
sS'comp_time'
p936
F7.009506225585938e-05
sS'exec_cq'
p937
I1
sS'total_cq'
p938
I2
sasS'total_cqs'
p939
I2
ssI77
(dp940
S'iters'
p941
I0
sS'meta'
p942
(lp943
sS'total_cqs'
p944
I1
ssI78
(dp945
S'iters'
p946
I0
sS'meta'
p947
(lp948
sS'total_cqs'
p949
I1
ssI103
(dp950
S'iters'
p951
I2
sS'meta'
p952
(lp953
(dp954
S'objective'
p955
I58
sS'query_time'
p956
F0.03644609451293945
sS'comp_time'
p957
F8.702278137207031e-05
sS'exec_cq'
p958
I3
sS'total_cq'
p959
I12
sa(dp960
g955
I54
sg956
F0.030551910400390625
sg957
F8.988380432128906e-05
sg958
I5
sg959
I11
sasS'total_cqs'
p961
I12
ssI104
(dp962
S'iters'
p963
I2
sS'meta'
p964
(lp965
(dp966
S'objective'
p967
I0
sS'query_time'
p968
F0.038786888122558594
sS'comp_time'
p969
F6.890296936035156e-05
sS'exec_cq'
p970
I1
sS'total_cq'
p971
I4
sa(dp972
g967
I1
sg968
F1.323071002960205
sg969
F8.296966552734375e-05
sg970
I1
sg971
I2
sasS'total_cqs'
p973
I4
ssI105
(dp974
S'iters'
p975
I0
sS'meta'
p976
(lp977
sS'total_cqs'
p978
I1
ssI106
(dp979
S'iters'
p980
I1
sS'meta'
p981
(lp982
(dp983
S'objective'
p984
I4
sS'query_time'
p985
F0.012730121612548828
sS'comp_time'
p986
F7.891654968261719e-05
sS'exec_cq'
p987
I2
sS'total_cq'
p988
I4
sasS'total_cqs'
p989
I4
ssI107
(dp990
S'iters'
p991
I2
sS'meta'
p992
(lp993
(dp994
S'objective'
p995
I104
sS'query_time'
p996
F0.02939009666442871
sS'comp_time'
p997
F8.392333984375e-05
sS'exec_cq'
p998
I1
sS'total_cq'
p999
I16
sa(dp1000
g995
I102
sg996
F0.05223584175109863
sg997
F8.916854858398438e-05
sg998
I7
sg999
I15
sasS'total_cqs'
p1001
I16
ssI108
(dp1002
S'iters'
p1003
I0
sS'meta'
p1004
(lp1005
sS'total_cqs'
p1006
I1
ss.