(dp0
I1
(dp1
S'iters'
p2
I2
sS'meta'
p3
(lp4
(dp5
S'objective'
p6
I44
sS'query_time'
p7
F0.014256000518798828
sS'comp_time'
p8
F0.018362998962402344
sS'exec_cq'
p9
I12
sS'total_cq'
p10
I12
sa(dp11
g6
I37
sg7
F5.793571472167969e-05
sg8
F0.00020623207092285156
sg9
I10
sg10
I10
sasS'total_cqs'
p12
I12
ssI2
(dp13
S'iters'
p14
I5
sS'meta'
p15
(lp16
(dp17
S'objective'
p18
I258
sS'query_time'
p19
F0.08208394050598145
sS'comp_time'
p20
F0.02925705909729004
sS'exec_cq'
p21
I27
sS'total_cq'
p22
I27
sa(dp23
g18
I240
sg19
F0.00018310546875
sg20
F0.0008320808410644531
sg21
I24
sg22
I24
sa(dp24
g18
I211
sg19
F0.00012373924255371094
sg20
F0.0005002021789550781
sg21
I21
sg22
I21
sa(dp25
g18
I189
sg19
F0.00010800361633300781
sg20
F0.0003197193145751953
sg21
I19
sg22
I19
sa(dp26
g18
I163
sg19
F7.891654968261719e-05
sg20
F0.0002579689025878906
sg21
I17
sg22
I17
sasS'total_cqs'
p27
I27
ssI3
(dp28
S'iters'
p29
I4
sS'meta'
p30
(lp31
(dp32
S'objective'
p33
I638
sS'query_time'
p34
F558.9293060302734
sS'comp_time'
p35
F1.610203742980957
sS'exec_cq'
p36
I39
sS'total_cq'
p37
I43
sa(dp38
g33
I520
sg34
F0.6016380786895752
sg35
F0.9893498420715332
sg36
I30
sg37
I36
sa(dp39
g33
I414
sg34
F0.009935855865478516
sg35
F0.008020877838134766
sg36
I23
sg37
I29
sa(dp40
g33
I449
sg34
F11.405306339263916
sg35
F0.0004143714904785156
sg36
I21
sg37
I21
sasS'total_cqs'
p41
I43
ssI4
(dp42
S'iters'
p43
I2
sS'meta'
p44
(lp45
(dp46
S'objective'
p47
I32
sS'query_time'
p48
F4.720468997955322
sS'comp_time'
p49
F0.3150942325592041
sS'exec_cq'
p50
I11
sS'total_cq'
p51
I11
sa(dp52
g47
I5
sg48
F0.16638684272766113
sg49
F0.2519078254699707
sg50
I2
sg51
I2
sasS'total_cqs'
p53
I11
ssI5
(dp54
S'iters'
p55
I2
sS'meta'
p56
(lp57
(dp58
S'objective'
p59
I0
sS'query_time'
p60
F33.18977618217468
sS'comp_time'
p61
F1.6486079692840576
sS'exec_cq'
p62
I8
sS'total_cq'
p63
I8
sa(dp64
g59
I2
sg60
F0.3029329776763916
sg61
F1.4625377655029297
sg62
I3
sg63
I3
sasS'total_cqs'
p65
I8
ssI6
(dp66
S'iters'
p67
I3
sS'meta'
p68
(lp69
(dp70
S'objective'
p71
I49
sS'query_time'
p72
F36.590250968933105
sS'comp_time'
p73
F1.642967939376831
sS'exec_cq'
p74
I18
sS'total_cq'
p75
I18
sa(dp76
g71
I1
sg72
F0.6881000995635986
sg73
F2.80031418800354
sg74
I7
sg75
I7
sa(dp77
g71
I5
sg72
F0.4183349609375
sg73
F2.462486982345581
sg74
I4
sg75
I4
sasS'total_cqs'
p78
I18
ssI7
(dp79
S'iters'
p80
I3
sS'meta'
p81
(lp82
(dp83
S'objective'
p84
I1
sS'query_time'
p85
F12.685887098312378
sS'comp_time'
p86
F1.8674912452697754
sS'exec_cq'
p87
I9
sS'total_cq'
p88
I9
sa(dp89
g84
I1
sg85
F0.027664899826049805
sg86
F0.07195281982421875
sg87
I5
sg88
I5
sa(dp90
g84
I7
sg85
F0.1266319751739502
sg86
F0.04226088523864746
sg87
I2
sg88
I2
sasS'total_cqs'
p91
I9
ssI8
(dp92
S'iters'
p93
I3
sS'meta'
p94
(lp95
(dp96
S'objective'
p97
I244
sS'query_time'
p98
F0.0873250961303711
sS'comp_time'
p99
F0.03619718551635742
sS'exec_cq'
p100
I27
sS'total_cq'
p101
I27
sa(dp102
g97
I249
sg98
F0.00021910667419433594
sg99
F0.0005693435668945312
sg100
I22
sg101
I22
sa(dp103
g97
I23
sg98
F4.792213439941406e-05
sg99
F0.0004489421844482422
sg100
I2
sg101
I2
sasS'total_cqs'
p104
I27
ssI9
(dp105
S'iters'
p106
I3
sS'meta'
p107
(lp108
(dp109
S'objective'
p110
I0
sS'query_time'
p111
F0.03966403007507324
sS'comp_time'
p112
F0.005074262619018555
sS'exec_cq'
p113
I7
sS'total_cq'
p114
I7
sa(dp115
g110
I2
sg111
F4.601478576660156e-05
sg112
F0.00016498565673828125
sg113
I4
sg114
I4
sa(dp116
g110
I6
sg111
F1.3113021850585938e-05
sg112
F8.20159912109375e-05
sg113
I2
sg114
I2
sasS'total_cqs'
p117
I7
ssI10
(dp118
S'iters'
p119
I4
sS'meta'
p120
(lp121
(dp122
S'objective'
p123
I680
sS'query_time'
p124
F0.25305724143981934
sS'comp_time'
p125
F0.08354997634887695
sS'exec_cq'
p126
I51
sS'total_cq'
p127
I51
sa(dp128
g123
I27
sg124
F0.0002818107604980469
sg125
F0.005199432373046875
sg126
I12
sg127
I12
sa(dp129
g123
I18
sg124
F7.510185241699219e-05
sg125
F0.0006761550903320312
sg126
I6
sg127
I6
sa(dp130
g123
I19
sg124
F1.4066696166992188e-05
sg125
F9.083747863769531e-05
sg126
I2
sg127
I2
sasS'total_cqs'
p131
I51
ssI11
(dp132
S'iters'
p133
I5
sS'meta'
p134
(lp135
(dp136
S'objective'
p137
I1018
sS'query_time'
p138
F0.4438769817352295
sS'comp_time'
p139
F0.17673182487487793
sS'exec_cq'
p140
I63
sS'total_cq'
p141
I63
sa(dp142
g137
I895
sg138
F0.0014100074768066406
sg139
F0.00466609001159668
sg140
I47
sg141
I47
sa(dp143
g137
I25
sg138
F0.0002570152282714844
sg139
F0.002577066421508789
sg140
I9
sg141
I9
sa(dp144
g137
I8
sg138
F3.504753112792969e-05
sg139
F0.0002238750457763672
sg140
I4
sg141
I4
sa(dp145
g137
I46
sg138
F1.5974044799804688e-05
sg139
F7.009506225585938e-05
sg140
I2
sg141
I2
sasS'total_cqs'
p146
I63
ssI12
(dp147
S'iters'
p148
I5
sS'meta'
p149
(lp150
(dp151
S'objective'
p152
I435
sS'query_time'
p153
F0.2420821189880371
sS'comp_time'
p154
F0.09270310401916504
sS'exec_cq'
p155
I50
sS'total_cq'
p156
I50
sa(dp157
g152
I277
sg153
F0.0004210472106933594
sg154
F0.0024099349975585938
sg155
I22
sg156
I33
sa(dp158
g152
I7
sg153
F0.00039076805114746094
sg154
F0.0018608570098876953
sg155
I8
sg156
I8
sa(dp159
g152
I9
sg153
F3.1948089599609375e-05
sg154
F0.0001671314239501953
sg155
I4
sg156
I4
sa(dp160
g152
I25
sg153
F1.4066696166992188e-05
sg154
F6.508827209472656e-05
sg155
I2
sg156
I2
sasS'total_cqs'
p161
I50
ssI13
(dp162
S'iters'
p163
I3
sS'meta'
p164
(lp165
(dp166
S'objective'
p167
I30
sS'query_time'
p168
F0.1260521411895752
sS'comp_time'
p169
F0.04507303237915039
sS'exec_cq'
p170
I20
sS'total_cq'
p171
I20
sa(dp172
g167
I16
sg168
F6.699562072753906e-05
sg169
F0.00037026405334472656
sg170
I9
sg171
I9
sa(dp173
g167
I3
sg168
F1.4066696166992188e-05
sg169
F0.0001308917999267578
sg170
I2
sg171
I2
sasS'total_cqs'
p174
I20
ssI14
(dp175
S'iters'
p176
I3
sS'meta'
p177
(lp178
(dp179
S'objective'
p180
I1
sS'query_time'
p181
F32.94161891937256
sS'comp_time'
p182
F1.4367148876190186
sS'exec_cq'
p183
I9
sS'total_cq'
p184
I9
sa(dp185
g180
I3
sg181
F0.11328697204589844
sg182
F0.6341338157653809
sg183
I5
sg184
I5
sa(dp186
g180
I8
sg181
F0.011049985885620117
sg182
F0.014841079711914062
sg183
I2
sg184
I2
sasS'total_cqs'
p187
I9
ssI15
(dp188
S'iters'
p189
I3
sS'meta'
p190
(lp191
(dp192
S'objective'
p193
I0
sS'query_time'
p194
F3.7241430282592773
sS'comp_time'
p195
F0.10074925422668457
sS'exec_cq'
p196
I11
sS'total_cq'
p197
I11
sa(dp198
g193
I1
sg194
F0.04263806343078613
sg195
F0.15623784065246582
sg196
I5
sg197
I5
sa(dp199
g193
I6
sg194
F0.012241125106811523
sg195
F0.017531394958496094
sg196
I3
sg197
I3
sasS'total_cqs'
p200
I11
ssI16
(dp201
S'iters'
p202
I1
sS'meta'
p203
(lp204
(dp205
S'objective'
p206
I20
sS'query_time'
p207
F0.021404027938842773
sS'comp_time'
p208
F0.004277944564819336
sS'exec_cq'
p209
I8
sS'total_cq'
p210
I8
sasS'total_cqs'
p211
I8
ssI17
(dp212
S'iters'
p213
I3
sS'meta'
p214
(lp215
(dp216
S'objective'
p217
I2
sS'query_time'
p218
F0.880871057510376
sS'comp_time'
p219
F0.04908633232116699
sS'exec_cq'
p220
I11
sS'total_cq'
p221
I11
sa(dp222
g217
I2
sg218
F0.008603811264038086
sg219
F0.029294490814208984
sg220
I6
sg221
I6
sa(dp223
g217
I4
sg218
F0.00029087066650390625
sg219
F0.0007090568542480469
sg220
I3
sg221
I3
sasS'total_cqs'
p224
I11
ssI18
(dp225
S'iters'
p226
I2
sS'meta'
p227
(lp228
(dp229
S'objective'
p230
I40
sS'query_time'
p231
F0.1913471221923828
sS'comp_time'
p232
F0.022524118423461914
sS'exec_cq'
p233
I11
sS'total_cq'
p234
I11
sa(dp235
g230
I31
sg231
F0.0004680156707763672
sg232
F0.0008680820465087891
sg233
I8
sg234
I9
sasS'total_cqs'
p236
I11
ssI19
(dp237
S'iters'
p238
I0
sS'meta'
p239
(lp240
sS'total_cqs'
p241
I1
ssI20
(dp242
S'iters'
p243
I0
sS'meta'
p244
(lp245
sS'total_cqs'
p246
I1
ssI21
(dp247
S'iters'
p248
I0
sS'meta'
p249
(lp250
sS'total_cqs'
p251
I1
ssI22
(dp252
S'iters'
p253
I1
sS'meta'
p254
(lp255
(dp256
S'objective'
p257
I135
sS'query_time'
p258
F0.044113874435424805
sS'comp_time'
p259
F0.03512215614318848
sS'exec_cq'
p260
I18
sS'total_cq'
p261
I18
sasS'total_cqs'
p262
I18
ssI23
(dp263
S'iters'
p264
I2
sS'meta'
p265
(lp266
(dp267
S'objective'
p268
I102
sS'query_time'
p269
F0.03517603874206543
sS'comp_time'
p270
F0.027721166610717773
sS'exec_cq'
p271
I16
sS'total_cq'
p272
I16
sa(dp273
g268
I87
sg269
F0.00011301040649414062
sg270
F0.00021886825561523438
sg271
I14
sg272
I14
sasS'total_cqs'
p274
I16
ssI24
(dp275
S'iters'
p276
I0
sS'meta'
p277
(lp278
sS'total_cqs'
p279
I1
ssI25
(dp280
S'iters'
p281
I0
sS'meta'
p282
(lp283
sS'total_cqs'
p284
I1
ssI26
(dp285
S'iters'
p286
I1
sS'meta'
p287
(lp288
(dp289
S'objective'
p290
I819
sS'query_time'
p291
F0.06343412399291992
sS'comp_time'
p292
F0.1220700740814209
sS'exec_cq'
p293
I42
sS'total_cq'
p294
I42
sasS'total_cqs'
p295
I42
ssI27
(dp296
S'iters'
p297
I3
sS'meta'
p298
(lp299
(dp300
S'objective'
p301
I293
sS'query_time'
p302
F22.38148593902588
sS'comp_time'
p303
F1.7201130390167236
sS'exec_cq'
p304
I30
sS'total_cq'
p305
I30
sa(dp306
g301
I2
sg302
F0.6066670417785645
sg303
F1.5430622100830078
sg304
I5
sg305
I5
sa(dp307
g301
I16
sg302
F0.31308794021606445
sg303
F0.8840904235839844
sg304
I2
sg305
I2
sasS'total_cqs'
p308
I30
ssI28
(dp309
S'iters'
p310
I0
sS'meta'
p311
(lp312
sS'total_cqs'
p313
I1
ssI29
(dp314
S'iters'
p315
I4
sS'meta'
p316
(lp317
(dp318
S'objective'
p319
I201
sS'query_time'
p320
F28.972949981689453
sS'comp_time'
p321
F0.4382600784301758
sS'exec_cq'
p322
I35
sS'total_cq'
p323
I49
sa(dp324
g319
I14
sg320
F0.003072977066040039
sg321
F0.014442682266235352
sg322
I16
sg323
I16
sa(dp325
g319
I7
sg320
F0.0018968582153320312
sg321
F0.003553628921508789
sg322
I9
sg323
I9
sa(dp326
g319
I23
sg320
F0.0008530616760253906
sg321
F0.0014939308166503906
sg322
I3
sg323
I3
sasS'total_cqs'
p327
I49
ssI30
(dp328
S'iters'
p329
I1
sS'meta'
p330
(lp331
(dp332
S'objective'
p333
I1
sS'query_time'
p334
F0.6462080478668213
sS'comp_time'
p335
F0.013089179992675781
sS'exec_cq'
p336
I2
sS'total_cq'
p337
I2
sasS'total_cqs'
p338
I2
ssI31
(dp339
S'iters'
p340
I0
sS'meta'
p341
(lp342
sS'total_cqs'
p343
I1
ssI32
(dp344
S'iters'
p345
I1
sS'meta'
p346
(lp347
(dp348
S'objective'
p349
I1
sS'query_time'
p350
F0.006645917892456055
sS'comp_time'
p351
F0.001371145248413086
sS'exec_cq'
p352
I2
sS'total_cq'
p353
I2
sasS'total_cqs'
p354
I2
ssI33
(dp355
S'iters'
p356
I4
sS'meta'
p357
(lp358
(dp359
S'objective'
p360
I3564
sS'query_time'
p361
F16.131019830703735
sS'comp_time'
p362
F1.0848467350006104
sS'exec_cq'
p363
I103
sS'total_cq'
p364
I103
sa(dp365
g360
I22
sg361
F0.008089065551757812
sg362
F0.047861576080322266
sg363
I16
sg364
I16
sa(dp366
g360
I1
sg361
F0.0027990341186523438
sg362
F0.007295370101928711
sg363
I9
sg364
I9
sa(dp367
g360
I24
sg361
F0.0007910728454589844
sg362
F0.0014832019805908203
sg363
I3
sg364
I3
sasS'total_cqs'
p368
I103
ssI34
(dp369
S'iters'
p370
I1
sS'meta'
p371
(lp372
(dp373
S'objective'
p374
I1
sS'query_time'
p375
F0.011268854141235352
sS'comp_time'
p376
F0.0020058155059814453
sS'exec_cq'
p377
I2
sS'total_cq'
p378
I2
sasS'total_cqs'
p379
I2
ssI35
(dp380
S'iters'
p381
I4
sS'meta'
p382
(lp383
(dp384
S'objective'
p385
I1421
sS'query_time'
p386
F264.31281995773315
sS'comp_time'
p387
F11.204681873321533
sS'exec_cq'
p388
I70
sS'total_cq'
p389
I70
sa(dp390
g385
I52
sg386
F0.0050811767578125
sg387
F0.015734195709228516
sg388
I16
sg389
I16
sa(dp391
g385
I10
sg386
F0.0023910999298095703
sg387
F0.009813070297241211
sg388
I10
sg389
I10
sa(dp392
g385
I11
sg386
F0.0007290840148925781
sg387
F0.0020172595977783203
sg388
I3
sg389
I3
sasS'total_cqs'
p393
I70
ssI36
(dp394
S'iters'
p395
I3
sS'meta'
p396
(lp397
(dp398
S'objective'
p399
I371
sS'query_time'
p400
F0.925422191619873
sS'comp_time'
p401
F0.07359981536865234
sS'exec_cq'
p402
I33
sS'total_cq'
p403
I33
sa(dp404
g399
I288
sg400
F0.0034661293029785156
sg401
F0.006493330001831055
sg402
I29
sg403
I29
sa(dp405
g399
I311
sg400
F0.0014002323150634766
sg401
F0.001850128173828125
sg402
I24
sg403
I25
sasS'total_cqs'
p406
I33
ssI37
(dp407
S'iters'
p408
I1
sS'meta'
p409
(lp410
(dp411
S'objective'
p412
I1
sS'query_time'
p413
F0.007833003997802734
sS'comp_time'
p414
F0.0016810894012451172
sS'exec_cq'
p415
I2
sS'total_cq'
p416
I2
sasS'total_cqs'
p417
I2
ssI38
(dp418
S'iters'
p419
I2
sS'meta'
p420
(lp421
(dp422
S'objective'
p423
I0
sS'query_time'
p424
F0.020169973373413086
sS'comp_time'
p425
F0.002627849578857422
sS'exec_cq'
p426
I4
sS'total_cq'
p427
I4
sa(dp428
g423
I3
sg424
F9.298324584960938e-05
sg425
F0.00018095970153808594
sg426
I2
sg427
I2
sasS'total_cqs'
p429
I4
ssI39
(dp430
S'iters'
p431
I2
sS'meta'
p432
(lp433
(dp434
S'objective'
p435
I698
sS'query_time'
p436
F0.17004895210266113
sS'comp_time'
p437
F0.19817709922790527
sS'exec_cq'
p438
I44
sS'total_cq'
p439
I44
sa(dp440
g435
I756
sg436
F0.00030303001403808594
sg437
F0.0008139610290527344
sg438
I37
sg439
I37
sasS'total_cqs'
p441
I44
ssI40
(dp442
S'iters'
p443
I1
sS'meta'
p444
(lp445
(dp446
S'objective'
p447
I14
sS'query_time'
p448
F0.023888111114501953
sS'comp_time'
p449
F0.005506753921508789
sS'exec_cq'
p450
I7
sS'total_cq'
p451
I7
sasS'total_cqs'
p452
I7
ssI41
(dp453
S'iters'
p454
I1
sS'meta'
p455
(lp456
(dp457
S'objective'
p458
I54
sS'query_time'
p459
F0.10484695434570312
sS'comp_time'
p460
F0.01614975929260254
sS'exec_cq'
p461
I12
sS'total_cq'
p462
I12
sasS'total_cqs'
p463
I12
ssI42
(dp464
S'iters'
p465
I1
sS'meta'
p466
(lp467
(dp468
S'objective'
p469
I779
sS'query_time'
p470
F0.04366898536682129
sS'comp_time'
p471
F0.13643217086791992
sS'exec_cq'
p472
I41
sS'total_cq'
p473
I41
sasS'total_cqs'
p474
I41
ssI43
(dp475
S'iters'
p476
I1
sS'meta'
p477
(lp478
(dp479
S'objective'
p480
I14
sS'query_time'
p481
F0.014908075332641602
sS'comp_time'
p482
F0.006091594696044922
sS'exec_cq'
p483
I7
sS'total_cq'
p484
I7
sasS'total_cqs'
p485
I7
ssI44
(dp486
S'iters'
p487
I4
sS'meta'
p488
(lp489
(dp490
S'objective'
p491
I692
sS'query_time'
p492
F0.08633780479431152
sS'comp_time'
p493
F0.10090041160583496
sS'exec_cq'
p494
I47
sS'total_cq'
p495
I47
sa(dp496
g491
I700
sg492
F0.00028896331787109375
sg493
F0.0010097026824951172
sg494
I40
sg495
I40
sa(dp497
g491
I17
sg492
F0.00020623207092285156
sg493
F0.0015916824340820312
sg494
I3
sg495
I3
sa(dp498
g491
I33
sg492
F2.09808349609375e-05
sg493
F8.225440979003906e-05
sg494
I2
sg495
I2
sasS'total_cqs'
p499
I47
ssI45
(dp500
S'iters'
p501
I0
sS'meta'
p502
(lp503
sS'total_cqs'
p504
I1
ssI46
(dp505
S'iters'
p506
I1
sS'meta'
p507
(lp508
(dp509
S'objective'
p510
I9
sS'query_time'
p511
F0.019917964935302734
sS'comp_time'
p512
F0.003343820571899414
sS'exec_cq'
p513
I6
sS'total_cq'
p514
I6
sasS'total_cqs'
p515
I6
ssI47
(dp516
S'iters'
p517
I1
sS'meta'
p518
(lp519
(dp520
S'objective'
p521
I1
sS'query_time'
p522
F0.008228063583374023
sS'comp_time'
p523
F0.0012249946594238281
sS'exec_cq'
p524
I2
sS'total_cq'
p525
I2
sasS'total_cqs'
p526
I2
ssI48
(dp527
S'iters'
p528
I0
sS'meta'
p529
(lp530
sS'total_cqs'
p531
I1
ssI49
(dp532
S'iters'
p533
I0
sS'meta'
p534
(lp535
sS'total_cqs'
p536
I1
ssI50
(dp537
S'iters'
p538
I1
sS'meta'
p539
(lp540
(dp541
S'objective'
p542
I5
sS'query_time'
p543
F0.006649017333984375
sS'comp_time'
p544
F0.002309083938598633
sS'exec_cq'
p545
I5
sS'total_cq'
p546
I5
sasS'total_cqs'
p547
I5
ssI51
(dp548
S'iters'
p549
I1
sS'meta'
p550
(lp551
(dp552
S'objective'
p553
I1
sS'query_time'
p554
F0.009716033935546875
sS'comp_time'
p555
F0.0025179386138916016
sS'exec_cq'
p556
I2
sS'total_cq'
p557
I2
sasS'total_cqs'
p558
I2
ssI52
(dp559
S'iters'
p560
I1
sS'meta'
p561
(lp562
(dp563
S'objective'
p564
I1
sS'query_time'
p565
F0.007283926010131836
sS'comp_time'
p566
F0.0013222694396972656
sS'exec_cq'
p567
I2
sS'total_cq'
p568
I2
sasS'total_cqs'
p569
I2
ssI53
(dp570
S'iters'
p571
I1
sS'meta'
p572
(lp573
(dp574
S'objective'
p575
I2
sS'query_time'
p576
F0.014280080795288086
sS'comp_time'
p577
F0.0023119449615478516
sS'exec_cq'
p578
I4
sS'total_cq'
p579
I4
sasS'total_cqs'
p580
I4
ssI54
(dp581
S'iters'
p582
I1
sS'meta'
p583
(lp584
(dp585
S'objective'
p586
I0
sS'query_time'
p587
F0.01092982292175293
sS'comp_time'
p588
F0.0016632080078125
sS'exec_cq'
p589
I3
sS'total_cq'
p590
I3
sasS'total_cqs'
p591
I3
ssI55
(dp592
S'iters'
p593
I5
sS'meta'
p594
(lp595
(dp596
S'objective'
p597
I4827
sS'query_time'
p598
F2.434206008911133
sS'comp_time'
p599
F0.6994147300720215
sS'exec_cq'
p600
I109
sS'total_cq'
p601
I109
sa(dp602
g597
I4673
sg598
F0.001104116439819336
sg599
F0.004183053970336914
sg600
I97
sg601
I97
sa(dp603
g597
I4334
sg598
F0.0007550716400146484
sg599
F0.0031278133392333984
sg600
I93
sg601
I93
sa(dp604
g597
I4352
sg598
F0.00039315223693847656
sg599
F0.0017037391662597656
sg600
I87
sg601
I87
sa(dp605
g597
I4302
sg598
F0.0003910064697265625
sg599
F0.0009019374847412109
sg600
I85
sg601
I85
sasS'total_cqs'
p606
I109
ssI56
(dp607
S'iters'
p608
I5
sS'meta'
p609
(lp610
(dp611
S'objective'
p612
I1600
sS'query_time'
p613
F1.780277967453003
sS'comp_time'
p614
F0.25978899002075195
sS'exec_cq'
p615
I67
sS'total_cq'
p616
I76
sa(dp617
g612
I9
sg613
F0.0075190067291259766
sg614
F0.0543365478515625
sg615
I16
sg616
I16
sa(dp618
g612
I7
sg613
F0.0032639503479003906
sg614
F0.010226726531982422
sg615
I8
sg616
I8
sa(dp619
g612
I3
sg613
F0.0015461444854736328
sg614
F0.0032706260681152344
sg615
I4
sg616
I4
sa(dp620
g612
I70
sg613
F0.00037598609924316406
sg614
F0.0007889270782470703
sg615
I2
sg616
I2
sasS'total_cqs'
p621
I76
ssI57
(dp622
S'iters'
p623
I5
sS'meta'
p624
(lp625
(dp626
S'objective'
p627
I4
sS'query_time'
p628
F24.6631920337677
sS'comp_time'
p629
F0.1876819133758545
sS'exec_cq'
p630
I45
sS'total_cq'
p631
I51
sa(dp632
g627
I3
sg628
F0.015418052673339844
sg629
F0.025113582611083984
sg630
I27
sg631
I27
sa(dp633
g627
I7
sg628
F0.002457141876220703
sg629
F0.003933906555175781
sg630
I13
sg631
I13
sa(dp634
g627
I1
sg628
F0.0014390945434570312
sg629
F0.003674030303955078
sg630
I6
sg631
I6
sa(dp635
g627
I22
sg628
F0.0009829998016357422
sg629
F0.0011038780212402344
sg630
I3
sg631
I3
sasS'total_cqs'
p636
I51
ssI58
(dp637
S'iters'
p638
I6
sS'meta'
p639
(lp640
(dp641
S'objective'
p642
I84055
sS'query_time'
p643
F523.942911863327
sS'comp_time'
p644
F34.885289669036865
sS'exec_cq'
p645
I486
sS'total_cq'
p646
I486
sa(dp647
g642
I87444
sg643
F9.485672950744629
sg644
F14.596053123474121
sg645
I414
sg646
I414
sa(dp648
g642
I199
sg643
F0.017734050750732422
sg644
F0.1825408935546875
sg645
I28
sg646
I28
sa(dp649
g642
I2
sg643
F0.012794971466064453
sg644
F3.3013556003570557
sg645
I16
sg646
I16
sa(dp650
g642
I12
sg643
F0.0047168731689453125
sg644
F0.07611680030822754
sg645
I9
sg646
I9
sa(dp651
g642
I81
sg643
F0.0005941390991210938
sg644
F0.0013589859008789062
sg645
I3
sg646
I3
sasS'total_cqs'
p652
I486
ssI59
(dp653
S'iters'
p654
I2
sS'meta'
p655
(lp656
(dp657
S'objective'
p658
I8
sS'query_time'
p659
F0.10931587219238281
sS'comp_time'
p660
F0.019866943359375
sS'exec_cq'
p661
I7
sS'total_cq'
p662
I7
sa(dp663
g658
I4
sg659
F0.00021386146545410156
sg660
F0.00042319297790527344
sg661
I2
sg662
I2
sasS'total_cqs'
p664
I7
ssI60
(dp665
S'iters'
p666
I1
sS'meta'
p667
(lp668
(dp669
S'objective'
p670
I5
sS'query_time'
p671
F0.010505199432373047
sS'comp_time'
p672
F0.002639293670654297
sS'exec_cq'
p673
I4
sS'total_cq'
p674
I5
sasS'total_cqs'
p675
I5
ssI61
(dp676
S'iters'
p677
I0
sS'meta'
p678
(lp679
sS'total_cqs'
p680
I1
ssI62
(dp681
S'iters'
p682
I2
sS'meta'
p683
(lp684
(dp685
S'objective'
p686
I40
sS'query_time'
p687
F0.016871929168701172
sS'comp_time'
p688
F0.01691150665283203
sS'exec_cq'
p689
I12
sS'total_cq'
p690
I12
sa(dp691
g686
I35
sg687
F6.890296936035156e-05
sg688
F0.00019669532775878906
sg689
I9
sg690
I9
sasS'total_cqs'
p692
I12
ssI63
(dp693
S'iters'
p694
I0
sS'meta'
p695
(lp696
sS'total_cqs'
p697
I1
ssI64
(dp698
S'iters'
p699
I3
sS'meta'
p700
(lp701
(dp702
S'objective'
p703
I2
sS'query_time'
p704
F0.1079399585723877
sS'comp_time'
p705
F0.02743697166442871
sS'exec_cq'
p706
I12
sS'total_cq'
p707
I12
sa(dp708
g703
I2
sg704
F0.00015807151794433594
sg705
F0.0005080699920654297
sg706
I4
sg707
I4
sa(dp709
g703
I5
sg704
F4.696846008300781e-05
sg705
F0.00012993812561035156
sg706
I2
sg707
I2
sasS'total_cqs'
p710
I12
ssI65
(dp711
S'iters'
p712
I3
sS'meta'
p713
(lp714
(dp715
S'objective'
p716
I168
sS'query_time'
p717
F0.802191972732544
sS'comp_time'
p718
F0.14889216423034668
sS'exec_cq'
p719
I27
sS'total_cq'
p720
I27
sa(dp721
g716
I1
sg717
F0.0016369819641113281
sg718
F0.003587007522583008
sg719
I7
sg720
I7
sa(dp722
g716
I2
sg717
F0.0003108978271484375
sg718
F0.0006477832794189453
sg719
I3
sg720
I3
sasS'total_cqs'
p723
I27
ssI66
(dp724
S'iters'
p725
I0
sS'meta'
p726
(lp727
sS'total_cqs'
p728
I1
ssI67
(dp729
S'iters'
p730
I2
sS'meta'
p731
(lp732
(dp733
S'objective'
p734
I504
sS'query_time'
p735
F1.12357497215271
sS'comp_time'
p736
F0.1434311866760254
sS'exec_cq'
p737
I35
sS'total_cq'
p738
I35
sa(dp739
g734
I7
sg735
F0.002579927444458008
sg736
F0.003505229949951172
sg737
I2
sg738
I2
sasS'total_cqs'
p740
I35
ssI68
(dp741
S'iters'
p742
I0
sS'meta'
p743
(lp744
sS'total_cqs'
p745
I1
ssI69
(dp746
S'iters'
p747
I1
sS'meta'
p748
(lp749
(dp750
S'objective'
p751
I1224
sS'query_time'
p752
F0.153533935546875
sS'comp_time'
p753
F0.24300789833068848
sS'exec_cq'
p754
I51
sS'total_cq'
p755
I51
sasS'total_cqs'
p756
I51
ssI70
(dp757
S'iters'
p758
I1
sS'meta'
p759
(lp760
(dp761
S'objective'
p762
I9
sS'query_time'
p763
F0.010998964309692383
sS'comp_time'
p764
F0.003106832504272461
sS'exec_cq'
p765
I6
sS'total_cq'
p766
I6
sasS'total_cqs'
p767
I6
ssI71
(dp768
S'iters'
p769
I2
sS'meta'
p770
(lp771
(dp772
S'objective'
p773
I3261
sS'query_time'
p774
F0.18925189971923828
sS'comp_time'
p775
F0.3498821258544922
sS'exec_cq'
p776
I85
sS'total_cq'
p777
I85
sa(dp778
g773
I27
sg774
F4.8160552978515625e-05
sg775
F0.0033521652221679688
sg776
I3
sg777
I3
sasS'total_cqs'
p779
I85
ssI72
(dp780
S'iters'
p781
I2
sS'meta'
p782
(lp783
(dp784
S'objective'
p785
I12
sS'query_time'
p786
F0.3421192169189453
sS'comp_time'
p787
F0.005661964416503906
sS'exec_cq'
p788
I8
sS'total_cq'
p789
I8
sa(dp790
g785
I8
sg786
F9.489059448242188e-05
sg787
F0.0001659393310546875
sg788
I5
sg789
I5
sasS'total_cqs'
p791
I8
ssI73
(dp792
S'iters'
p793
I0
sS'meta'
p794
(lp795
sS'total_cqs'
p796
I1
ssI74
(dp797
S'iters'
p798
I0
sS'meta'
p799
(lp800
sS'total_cqs'
p801
I1
ssI75
(dp802
S'iters'
p803
I1
sS'meta'
p804
(lp805
(dp806
S'objective'
p807
I5
sS'query_time'
p808
F0.0069179534912109375
sS'comp_time'
p809
F0.002232789993286133
sS'exec_cq'
p810
I5
sS'total_cq'
p811
I5
sasS'total_cqs'
p812
I5
ssI76
(dp813
S'iters'
p814
I1
sS'meta'
p815
(lp816
(dp817
S'objective'
p818
I1
sS'query_time'
p819
F0.014219045639038086
sS'comp_time'
p820
F0.0012590885162353516
sS'exec_cq'
p821
I2
sS'total_cq'
p822
I2
sasS'total_cqs'
p823
I2
ssI77
(dp824
S'iters'
p825
I0
sS'meta'
p826
(lp827
sS'total_cqs'
p828
I1
ssI78
(dp829
S'iters'
p830
I0
sS'meta'
p831
(lp832
sS'total_cqs'
p833
I1
ssI103
(dp834
S'iters'
p835
I1
sS'meta'
p836
(lp837
(dp838
S'objective'
p839
I54
sS'query_time'
p840
F0.048036813735961914
sS'comp_time'
p841
F0.015436172485351562
sS'exec_cq'
p842
I12
sS'total_cq'
p843
I12
sasS'total_cqs'
p844
I12
ssI104
(dp845
S'iters'
p846
I2
sS'meta'
p847
(lp848
(dp849
S'objective'
p850
I0
sS'query_time'
p851
F1.4017090797424316
sS'comp_time'
p852
F0.03197216987609863
sS'exec_cq'
p853
I4
sS'total_cq'
p854
I4
sa(dp855
g850
I3
sg851
F0.015425920486450195
sg852
F0.2894887924194336
sg853
I2
sg854
I2
sasS'total_cqs'
p856
I4
ssI105
(dp857
S'iters'
p858
I0
sS'meta'
p859
(lp860
sS'total_cqs'
p861
I1
ssI106
(dp862
S'iters'
p863
I1
sS'meta'
p864
(lp865
(dp866
S'objective'
p867
I2
sS'query_time'
p868
F0.015375137329101562
sS'comp_time'
p869
F0.001766204833984375
sS'exec_cq'
p870
I4
sS'total_cq'
p871
I4
sasS'total_cqs'
p872
I4
ssI107
(dp873
S'iters'
p874
I2
sS'meta'
p875
(lp876
(dp877
S'objective'
p878
I86
sS'query_time'
p879
F0.04892921447753906
sS'comp_time'
p880
F0.018790245056152344
sS'exec_cq'
p881
I16
sS'total_cq'
p882
I16
sa(dp883
g878
I7
sg879
F6.985664367675781e-05
sg880
F0.00032639503479003906
sg881
I3
sg882
I3
sasS'total_cqs'
p884
I16
ssI108
(dp885
S'iters'
p886
I0
sS'meta'
p887
(lp888
sS'total_cqs'
p889
I1
ss.