(dp0
I1
(dp1
S'iters'
p2
I3
sS'meta'
p3
(lp4
(dp5
S'objective'
p6
I8
sS'query_time'
p7
F0.032579898834228516
sS'total_cq'
p8
I12
sS'comp_time'
p9
F0.00041103363037109375
sa(dp10
g6
I8
sg7
F0.0011250972747802734
sg8
I10
sg9
F0.00019407272338867188
sa(dp11
g6
I7
sg7
F0.0011260509490966797
sg8
I9
sg9
F0.00017213821411132812
sasS'total_cqs'
p12
I12
ssI2
(dp13
g2
I8
sg3
(lp14
(dp15
g6
I19
sg7
F0.06392407417297363
sg8
I27
sg9
F0.0014371871948242188
sa(dp16
g6
I17
sg7
F0.0015289783477783203
sg8
I23
sg9
F0.0007300376892089844
sa(dp17
g6
I16
sg7
F0.0014100074768066406
sg8
I20
sg9
F0.0006921291351318359
sa(dp18
g6
I14
sg7
F0.001302957534790039
sg8
I18
sg9
F0.00038123130798339844
sa(dp19
g6
I14
sg7
F0.0012819766998291016
sg8
I16
sg9
F0.0003590583801269531
sa(dp20
g6
I13
sg7
F0.0012531280517578125
sg8
I15
sg9
F0.0002830028533935547
sa(dp21
g6
I12
sg7
F0.002379894256591797
sg8
I14
sg9
F0.00013399124145507812
sa(dp22
g6
I11
sg7
F0.001194000244140625
sg8
I13
sg9
F0.0001010894775390625
sasg12
I27
ssI3
(dp23
g2
I4
sg3
(lp24
(dp25
g6
I27
sg7
F562.6478090286255
sg8
I43
sg9
F4.252461910247803
sa(dp26
g6
I21
sg7
F0.6828181743621826
sg8
I35
sg9
F4.375144004821777
sa(dp27
g6
I12
sg7
F0.1160891056060791
sg8
I28
sg9
F0.7663600444793701
sa(dp28
g6
I18
sg7
F0.0011191368103027344
sg8
I20
sg9
F0.00011682510375976562
sasg12
I43
ssI4
(dp29
g2
I2
sg3
(lp30
(dp31
g6
I7
sg7
F3.12473201751709
sg8
I11
sg9
F0.6095330715179443
sa(dp32
g6
I0
sg7
F0.12050485610961914
sg8
I2
sg9
F0.6178572177886963
sasg12
I11
ssI5
(dp33
g2
I3
sg3
(lp34
(dp35
g6
I0
sg7
F25.232255935668945
sg8
I8
sg9
F3.1508541107177734
sa(dp36
g6
I0
sg7
F0.0161590576171875
sg8
I4
sg9
F0.2705080509185791
sa(dp37
g6
I0
sg7
F0.007929086685180664
sg8
I2
sg9
F0.0780329704284668
sasg12
I8
ssI6
(dp38
g2
I4
sg3
(lp39
(dp40
g6
I4
sg7
F27.35234498977661
sg8
I18
sg9
F3.068449020385742
sa(dp41
g6
I1
sg7
F0.7442541122436523
sg8
I7
sg9
F3.063270092010498
sa(dp42
g6
I0
sg7
F0.03434395790100098
sg8
I4
sg9
F0.33132100105285645
sa(dp43
g6
I0
sg7
F0.01661396026611328
sg8
I2
sg9
F0.15126895904541016
sasg12
I18
ssI7
(dp44
g2
I3
sg3
(lp45
(dp46
g6
I1
sg7
F8.575217008590698
sg8
I9
sg9
F1.362518072128296
sa(dp47
g6
I1
sg7
F0.015850067138671875
sg8
I5
sg9
F0.17446494102478027
sa(dp48
g6
I1
sg7
F0.008209943771362305
sg8
I3
sg9
F0.09334301948547363
sasg12
I9
ssI8
(dp49
g2
I5
sg3
(lp50
(dp51
g6
I17
sg7
F0.11504697799682617
sg8
I27
sg9
F0.0013141632080078125
sa(dp52
g6
I16
sg7
F0.0012497901916503906
sg8
I22
sg9
F0.0006690025329589844
sa(dp53
g6
I17
sg7
F0.0012340545654296875
sg8
I19
sg9
F0.0002410411834716797
sa(dp54
g6
I16
sg7
F0.001230001449584961
sg8
I18
sg9
F0.00017499923706054688
sa(dp55
g6
I15
sg7
F0.0004971027374267578
sg8
I17
sg9
F0.00011587142944335938
sasg12
I27
ssI9
(dp56
g2
I3
sg3
(lp57
(dp58
g6
I1
sg7
F0.06424188613891602
sg8
I7
sg9
F0.00027179718017578125
sa(dp59
g6
I0
sg7
F0.001302957534790039
sg8
I4
sg9
F0.00012111663818359375
sa(dp60
g6
I0
sg7
F0.0012238025665283203
sg8
I2
sg9
F0.00011396408081054688
sasg12
I7
ssI10
(dp61
g2
I6
sg3
(lp62
(dp63
g6
I23
sg7
F0.2147691249847412
sg8
I51
sg9
F0.00429987907409668
sa(dp64
g6
I13
sg7
F0.0011911392211914062
sg8
I37
sg9
F0.002210855484008789
sa(dp65
g6
I0
sg7
F0.0012478828430175781
sg8
I12
sg9
F0.0008158683776855469
sa(dp66
g6
I2
sg7
F0.001374959945678711
sg8
I6
sg9
F0.00020194053649902344
sa(dp67
g6
I0
sg7
F0.0014238357543945312
sg8
I4
sg9
F0.0001239776611328125
sa(dp68
g6
I0
sg7
F0.0013499259948730469
sg8
I2
sg9
F0.00013399124145507812
sasg12
I51
ssI11
(dp69
g2
I5
sg3
(lp70
(dp71
g6
I31
sg7
F0.4175379276275635
sg8
I63
sg9
F0.021886110305786133
sa(dp72
g6
I29
sg7
F0.0034580230712890625
sg8
I47
sg9
F0.006479024887084961
sa(dp73
g6
I1
sg7
F0.0013937950134277344
sg8
I9
sg9
F0.001683950424194336
sa(dp74
g6
I0
sg7
F0.0013000965118408203
sg8
I4
sg9
F0.00020074844360351562
sa(dp75
g6
I0
sg7
F0.0012998580932617188
sg8
I2
sg9
F0.00013399124145507812
sasg12
I63
ssI12
(dp76
g2
I5
sg3
(lp77
(dp78
g6
I16
sg7
F0.21879792213439941
sg8
I50
sg9
F0.005016803741455078
sa(dp79
g6
I17
sg7
F0.0013000965118408203
sg8
I33
sg9
F0.0030167102813720703
sa(dp80
g6
I0
sg7
F0.001422882080078125
sg8
I8
sg9
F0.0015990734100341797
sa(dp81
g6
I0
sg7
F0.0014030933380126953
sg8
I4
sg9
F0.0012958049774169922
sa(dp82
g6
I0
sg7
F0.0013298988342285156
sg8
I2
sg9
F0.00017404556274414062
sasg12
I50
ssI13
(dp83
g2
I3
sg3
(lp84
(dp85
g6
I2
sg7
F0.11510896682739258
sg8
I20
sg9
F0.0005049705505371094
sa(dp86
g6
I5
sg7
F0.0012161731719970703
sg8
I9
sg9
F0.00011706352233886719
sa(dp87
g6
I0
sg7
F0.0013580322265625
sg8
I2
sg9
F0.00010418891906738281
sasg12
I20
ssI14
(dp88
g2
I3
sg3
(lp89
(dp90
g6
I1
sg7
F24.08040189743042
sg8
I9
sg9
F1.4206430912017822
sa(dp91
g6
I1
sg7
F0.017075061798095703
sg8
I5
sg9
F0.17114901542663574
sa(dp92
g6
I0
sg7
F0.016566991806030273
sg8
I2
sg9
F0.09308815002441406
sasg12
I9
ssI15
(dp93
g2
I3
sg3
(lp94
(dp95
g6
I1
sg7
F2.373974084854126
sg8
I11
sg9
F0.2018439769744873
sa(dp96
g6
I2
sg7
F0.0012629032135009766
sg8
I6
sg9
F0.00421905517578125
sa(dp97
g6
I0
sg7
F0.0013511180877685547
sg8
I2
sg9
F0.0034399032592773438
sasg12
I11
ssI16
(dp98
g2
I1
sg3
(lp99
(dp100
g6
I6
sg7
F0.007740974426269531
sg8
I8
sg9
F0.00014591217041015625
sasg12
I8
ssI17
(dp101
g2
I3
sg3
(lp102
(dp103
g6
I1
sg7
F0.6195230484008789
sg8
I11
sg9
F0.06585288047790527
sa(dp104
g6
I2
sg7
F0.0014548301696777344
sg8
I6
sg9
F0.0018079280853271484
sa(dp105
g6
I0
sg7
F0.0014832019805908203
sg8
I2
sg9
F0.002051115036010742
sasg12
I11
ssI18
(dp106
g2
I4
sg3
(lp107
(dp108
g6
I5
sg7
F0.16498088836669922
sg8
I11
sg9
F0.009396791458129883
sa(dp109
g6
I6
sg7
F0.001190185546875
sg8
I8
sg9
F0.0018901824951171875
sa(dp110
g6
I5
sg7
F0.0013117790222167969
sg8
I7
sg9
F0.000579833984375
sa(dp111
g6
I4
sg7
F0.0013790130615234375
sg8
I6
sg9
F0.00019884109497070312
sasg12
I11
ssI19
(dp112
g2
I0
sg3
(lp113
sg12
I1
ssI20
(dp114
g2
I0
sg3
(lp115
sg12
I1
ssI21
(dp116
g2
I0
sg3
(lp117
sg12
I1
ssI22
(dp118
g2
I1
sg3
(lp119
(dp120
g6
I16
sg7
F0.03217792510986328
sg8
I18
sg9
F0.0003631114959716797
sasg12
I18
ssI23
(dp121
g2
I3
sg3
(lp122
(dp123
g6
I12
sg7
F0.03214907646179199
sg8
I16
sg9
F0.0006210803985595703
sa(dp124
g6
I12
sg7
F0.0018830299377441406
sg8
I14
sg9
F0.0012378692626953125
sa(dp125
g6
I11
sg7
F0.0013179779052734375
sg8
I13
sg9
F0.0001957416534423828
sasg12
I16
ssI24
(dp126
g2
I0
sg3
(lp127
sg12
I1
ssI25
(dp128
g2
I0
sg3
(lp129
sg12
I1
ssI26
(dp130
g2
I1
sg3
(lp131
(dp132
g6
I40
sg7
F0.0641939640045166
sg8
I42
sg9
F0.00016188621520996094
sasg12
I42
ssI27
(dp133
g2
I3
sg3
(lp134
(dp135
g6
I20
sg7
F14.392117977142334
sg8
I30
sg9
F2.8708369731903076
sa(dp136
g6
I1
sg7
F0.5258829593658447
sg8
I5
sg9
F2.9796628952026367
sa(dp137
g6
I0
sg7
F0.06512093544006348
sg8
I2
sg9
F0.8084909915924072
sasg12
I30
ssI28
(dp138
g2
I0
sg3
(lp139
sg12
I1
ssI29
(dp140
g2
I5
sg3
(lp141
(dp142
g6
I15
sg7
F140.19019293785095
sg8
I49
sg9
F23.583734035491943
sa(dp143
g6
I1
sg7
F0.032540082931518555
sg8
I17
sg9
F0.07954597473144531
sa(dp144
g6
I1
sg7
F0.03815889358520508
sg8
I9
sg9
F0.08190298080444336
sa(dp145
g6
I1
sg7
F0.008171796798706055
sg8
I5
sg9
F0.02262401580810547
sa(dp146
g6
I1
sg7
F0.0034132003784179688
sg8
I3
sg9
F0.010126829147338867
sasg12
I49
ssI30
(dp147
g2
I1
sg3
(lp148
(dp149
g6
I0
sg7
F0.4672210216522217
sg8
I2
sg9
F0.037014007568359375
sasg12
I2
ssI31
(dp150
g2
I0
sg3
(lp151
sg12
I1
ssI32
(dp152
g2
I1
sg3
(lp153
(dp154
g6
I0
sg7
F0.01607513427734375
sg8
I2
sg9
F0.0005598068237304688
sasg12
I2
ssI33
(dp155
g2
I5
sg3
(lp156
(dp157
g6
I71
sg7
F10.919389963150024
sg8
I103
sg9
F0.13872480392456055
sa(dp158
g6
I0
sg7
F0.015237092971801758
sg8
I16
sg9
F0.030123233795166016
sa(dp159
g6
I0
sg7
F0.003384828567504883
sg8
I8
sg9
F0.01700878143310547
sa(dp160
g6
I0
sg7
F0.003603219985961914
sg8
I4
sg9
F0.010950803756713867
sa(dp161
g6
I0
sg7
F0.0013020038604736328
sg8
I2
sg9
F0.004015207290649414
sasg12
I103
ssI34
(dp162
g2
I1
sg3
(lp163
(dp164
g6
I0
sg7
F0.01607203483581543
sg8
I2
sg9
F0.0009121894836425781
sasg12
I2
ssI35
(dp165
g2
I4
sg3
(lp166
(dp167
g6
I38
sg7
F264.1311779022217
sg8
I70
sg9
F27.446160793304443
sa(dp168
g6
I2
sg7
F0.009714126586914062
sg8
I16
sg9
F0.020277023315429688
sa(dp169
g6
I1
sg7
F0.0036051273345947266
sg8
I7
sg9
F0.011509180068969727
sa(dp170
g6
I1
sg7
F0.0013298988342285156
sg8
I3
sg9
F0.005280971527099609
sasg12
I70
ssI36
(dp171
g2
I4
sg3
(lp172
(dp173
g6
I25
sg7
F0.667543888092041
sg8
I33
sg9
F0.04064488410949707
sa(dp174
g6
I21
sg7
F0.007743120193481445
sg8
I29
sg9
F0.035269975662231445
sa(dp175
g6
I23
sg7
F0.0039691925048828125
sg8
I25
sg9
F0.013535022735595703
sa(dp176
g6
I22
sg7
F0.001558065414428711
sg8
I24
sg9
F0.003818035125732422
sasg12
I33
ssI37
(dp177
g2
I1
sg3
(lp178
(dp179
g6
I0
sg7
F0.007727146148681641
sg8
I2
sg9
F0.00048804283142089844
sasg12
I2
ssI38
(dp180
g2
I2
sg3
(lp181
(dp182
g6
I0
sg7
F0.03486204147338867
sg8
I4
sg9
F0.0010879039764404297
sa(dp183
g6
I0
sg7
F0.0012221336364746094
sg8
I2
sg9
F0.0008130073547363281
sasg12
I4
ssI39
(dp184
g2
I2
sg3
(lp185
(dp186
g6
I30
sg7
F0.12001204490661621
sg8
I44
sg9
F0.0030739307403564453
sa(dp187
g6
I35
sg7
F0.001191854476928711
sg8
I37
sg9
F0.0025899410247802734
sasg12
I44
ssI40
(dp188
g2
I1
sg3
(lp189
(dp190
g6
I5
sg7
F0.03251194953918457
sg8
I7
sg9
F0.0002949237823486328
sasg12
I7
ssI41
(dp191
g2
I1
sg3
(lp192
(dp193
g6
I10
sg7
F0.06425595283508301
sg8
I12
sg9
F0.00034308433532714844
sasg12
I12
ssI42
(dp194
g2
I3
sg3
(lp195
(dp196
g6
I39
sg7
F0.0641469955444336
sg8
I41
sg9
F0.00031280517578125
sa(dp197
g6
I38
sg7
F0.0017650127410888672
sg8
I40
sg9
F0.0002288818359375
sa(dp198
g6
I37
sg7
F0.0013420581817626953
sg8
I39
sg9
F0.00017905235290527344
sasg12
I41
ssI43
(dp199
g2
I1
sg3
(lp200
(dp201
g6
I5
sg7
F0.01582503318786621
sg8
I7
sg9
F0.00012922286987304688
sasg12
I7
ssI44
(dp202
g2
I4
sg3
(lp203
(dp204
g6
I33
sg7
F0.11467695236206055
sg8
I47
sg9
F0.0038633346557617188
sa(dp205
g6
I34
sg7
F0.0011761188507080078
sg8
I40
sg9
F0.0031189918518066406
sa(dp206
g6
I1
sg7
F0.001600027084350586
sg8
I3
sg9
F0.0009129047393798828
sa(dp207
g6
I0
sg7
F0.0014159679412841797
sg8
I2
sg9
F0.0003447532653808594
sasg12
I47
ssI45
(dp208
g2
I0
sg3
(lp209
sg12
I1
ssI46
(dp210
g2
I2
sg3
(lp211
(dp212
g6
I4
sg7
F0.015764951705932617
sg8
I6
sg9
F0.0005657672882080078
sa(dp213
g6
I3
sg7
F0.001447916030883789
sg8
I5
sg9
F0.00021910667419433594
sasg12
I6
ssI47
(dp214
g2
I1
sg3
(lp215
(dp216
g6
I0
sg7
F0.007731914520263672
sg8
I2
sg9
F0.0005738735198974609
sasg12
I2
ssI48
(dp217
g2
I0
sg3
(lp218
sg12
I1
ssI49
(dp219
g2
I0
sg3
(lp220
sg12
I1
ssI50
(dp221
g2
I3
sg3
(lp222
(dp223
g6
I3
sg7
F0.015890836715698242
sg8
I5
sg9
F0.00028586387634277344
sa(dp224
g6
I2
sg7
F0.0014951229095458984
sg8
I4
sg9
F0.0002548694610595703
sa(dp225
g6
I1
sg7
F0.001341104507446289
sg8
I3
sg9
F0.00022602081298828125
sasg12
I5
ssI51
(dp226
g2
I1
sg3
(lp227
(dp228
g6
I0
sg7
F0.007704019546508789
sg8
I2
sg9
F0.0003230571746826172
sasg12
I2
ssI52
(dp229
g2
I1
sg3
(lp230
(dp231
g6
I0
sg7
F0.00793600082397461
sg8
I2
sg9
F0.00045990943908691406
sasg12
I2
ssI53
(dp232
g2
I2
sg3
(lp233
(dp234
g6
I0
sg7
F0.033833980560302734
sg8
I4
sg9
F0.0010747909545898438
sa(dp235
g6
I0
sg7
F0.0012440681457519531
sg8
I2
sg9
F0.0010311603546142578
sasg12
I4
ssI54
(dp236
g2
I1
sg3
(lp237
(dp238
g6
I1
sg7
F0.007776021957397461
sg8
I3
sg9
F0.00043392181396484375
sasg12
I3
ssI55
(dp239
g2
I7
sg3
(lp240
(dp241
g6
I85
sg7
F1.570160150527954
sg8
I109
sg9
F0.04670310020446777
sa(dp242
g6
I85
sg7
F0.001336812973022461
sg8
I97
sg9
F0.002604961395263672
sa(dp243
g6
I83
sg7
F0.0014908313751220703
sg8
I91
sg9
F0.0012562274932861328
sa(dp244
g6
I83
sg7
F0.0015740394592285156
sg8
I87
sg9
F0.001705169677734375
sa(dp245
g6
I81
sg7
F0.0012679100036621094
sg8
I85
sg9
F0.0011699199676513672
sa(dp246
g6
I79
sg7
F0.0012118816375732422
sg8
I83
sg9
F0.0010578632354736328
sa(dp247
g6
I79
sg7
F0.001168966293334961
sg8
I81
sg9
F0.0011539459228515625
sasg12
I109
ssI56
(dp248
g2
I5
sg3
(lp249
(dp250
g6
I44
sg7
F2.477522134780884
sg8
I76
sg9
F0.1605818271636963
sa(dp251
g6
I0
sg7
F0.007135152816772461
sg8
I16
sg9
F0.015844106674194336
sa(dp252
g6
I0
sg7
F0.007793903350830078
sg8
I8
sg9
F0.014200925827026367
sa(dp253
g6
I0
sg7
F0.0013289451599121094
sg8
I4
sg9
F0.0024771690368652344
sa(dp254
g6
I0
sg7
F0.0014910697937011719
sg8
I2
sg9
F0.0016698837280273438
sasg12
I76
ssI57
(dp255
g2
I6
sg3
(lp256
(dp257
g6
I3
sg7
F65.56670093536377
sg8
I51
sg9
F5.853749990463257
sa(dp258
g6
I1
sg7
F0.017858028411865234
sg8
I27
sg9
F0.04566216468811035
sa(dp259
g6
I1
sg7
F0.005521059036254883
sg8
I13
sg9
F0.011790990829467773
sa(dp260
g6
I0
sg7
F0.003818035125732422
sg8
I6
sg9
F0.008224964141845703
sa(dp261
g6
I1
sg7
F0.0013649463653564453
sg8
I3
sg9
F0.002810955047607422
sa(dp262
g6
I0
sg7
F0.0013439655303955078
sg8
I2
sg9
F0.004166841506958008
sasg12
I51
ssI58
(dp263
g2
I7
sg3
(lp264
(dp265
g6
I342
sg7
F513.4917931556702
sg8
I486
sg9
F40.58163404464722
sa(dp266
g6
I358
sg7
F14.247890949249268
sg8
I414
sg9
F41.33415913581848
sa(dp267
g6
I0
sg7
F0.02373790740966797
sg8
I28
sg9
F0.04979133605957031
sa(dp268
g6
I0
sg7
F0.006783008575439453
sg8
I14
sg9
F0.02485203742980957
sa(dp269
g6
I1
sg7
F0.005578041076660156
sg8
I7
sg9
F0.021355152130126953
sa(dp270
g6
I0
sg7
F0.0011470317840576172
sg8
I4
sg9
F0.004724979400634766
sa(dp271
g6
I0
sg7
F0.0012140274047851562
sg8
I2
sg9
F0.0024912357330322266
sasg12
I486
ssI59
(dp272
g2
I2
sg3
(lp273
(dp274
g6
I3
sg7
F0.0646049976348877
sg8
I7
sg9
F0.0014989376068115234
sa(dp275
g6
I0
sg7
F0.0013709068298339844
sg8
I2
sg9
F0.0011749267578125
sasg12
I7
ssI60
(dp276
g2
I3
sg3
(lp277
(dp278
g6
I3
sg7
F0.015958070755004883
sg8
I5
sg9
F0.0006749629974365234
sa(dp279
g6
I2
sg7
F0.001608133316040039
sg8
I4
sg9
F0.0006299018859863281
sa(dp280
g6
I1
sg7
F0.001425027847290039
sg8
I3
sg9
F0.0001518726348876953
sasg12
I5
ssI61
(dp281
g2
I0
sg3
(lp282
sg12
I1
ssI62
(dp283
g2
I2
sg3
(lp284
(dp285
g6
I6
sg7
F0.032219886779785156
sg8
I12
sg9
F0.0004260540008544922
sa(dp286
g6
I7
sg7
F0.0016641616821289062
sg8
I9
sg9
F0.00021505355834960938
sasg12
I12
ssI63
(dp287
g2
I0
sg3
(lp288
sg12
I1
ssI64
(dp289
g2
I3
sg3
(lp290
(dp291
g6
I4
sg7
F0.11453700065612793
sg8
I12
sg9
F0.0050508975982666016
sa(dp292
g6
I0
sg7
F0.0012230873107910156
sg8
I4
sg9
F0.0015189647674560547
sa(dp293
g6
I0
sg7
F0.0012340545654296875
sg8
I2
sg9
F0.0013489723205566406
sasg12
I12
ssI65
(dp294
g2
I4
sg3
(lp295
(dp296
g6
I13
sg7
F0.6666598320007324
sg8
I27
sg9
F0.05630683898925781
sa(dp297
g6
I1
sg7
F0.0035109519958496094
sg8
I7
sg9
F0.008520126342773438
sa(dp298
g6
I0
sg7
F0.001608133316040039
sg8
I4
sg9
F0.005263805389404297
sa(dp299
g6
I0
sg7
F0.0012369155883789062
sg8
I2
sg9
F0.0010862350463867188
sasg12
I27
ssI66
(dp300
g2
I0
sg3
(lp301
sg12
I1
ssI67
(dp302
g2
I2
sg3
(lp303
(dp304
g6
I31
sg7
F0.7168431282043457
sg8
I35
sg9
F0.014175176620483398
sa(dp305
g6
I0
sg7
F0.00341796875
sg8
I2
sg9
F0.012641191482543945
sasg12
I35
ssI68
(dp306
g2
I0
sg3
(lp307
sg12
I1
ssI69
(dp308
g2
I1
sg3
(lp309
(dp310
g6
I49
sg7
F0.11436700820922852
sg8
I51
sg9
F0.0003771781921386719
sasg12
I51
ssI70
(dp311
g2
I2
sg3
(lp312
(dp313
g6
I4
sg7
F0.01592397689819336
sg8
I6
sg9
F0.0003840923309326172
sa(dp314
g6
I3
sg7
F0.0015561580657958984
sg8
I5
sg9
F0.00039005279541015625
sasg12
I6
ssI71
(dp315
g2
I6
sg3
(lp316
(dp317
g6
I77
sg7
F0.21480107307434082
sg8
I85
sg9
F0.0014748573303222656
sa(dp318
g6
I73
sg7
F0.0011777877807617188
sg8
I81
sg9
F0.0009658336639404297
sa(dp319
g6
I71
sg7
F0.0012578964233398438
sg8
I77
sg9
F0.0008609294891357422
sa(dp320
g6
I68
sg7
F0.0012269020080566406
sg8
I74
sg9
F0.0006299018859863281
sa(dp321
g6
I65
sg7
F0.0014879703521728516
sg8
I71
sg9
F0.0005223751068115234
sa(dp322
g6
I1
sg7
F0.0012249946594238281
sg8
I3
sg9
F0.0002961158752441406
sasg12
I85
ssI72
(dp323
g2
I3
sg3
(lp324
(dp325
g6
I2
sg7
F0.2650279998779297
sg8
I8
sg9
F0.0065691471099853516
sa(dp326
g6
I1
sg7
F0.0014600753784179688
sg8
I5
sg9
F0.0004360675811767578
sa(dp327
g6
I1
sg7
F0.00028204917907714844
sg8
I3
sg9
F0.00021076202392578125
sasg12
I8
ssI73
(dp328
g2
I0
sg3
(lp329
sg12
I1
ssI74
(dp330
g2
I0
sg3
(lp331
sg12
I1
ssI75
(dp332
g2
I3
sg3
(lp333
(dp334
g6
I3
sg7
F0.016011953353881836
sg8
I5
sg9
F0.0002048015594482422
sa(dp335
g6
I2
sg7
F0.0003898143768310547
sg8
I4
sg9
F0.00016689300537109375
sa(dp336
g6
I1
sg7
F0.0014069080352783203
sg8
I3
sg9
F0.00019216537475585938
sasg12
I5
ssI76
(dp337
g2
I1
sg3
(lp338
(dp339
g6
I0
sg7
F0.01579904556274414
sg8
I2
sg9
F0.0006601810455322266
sasg12
I2
ssI77
(dp340
g2
I0
sg3
(lp341
sg12
I1
ssI78
(dp342
g2
I0
sg3
(lp343
sg12
I1
ssI103
(dp344
g2
I1
sg3
(lp345
(dp346
g6
I10
sg7
F0.06474995613098145
sg8
I12
sg9
F0.00030493736267089844
sasg12
I12
ssI104
(dp347
g2
I2
sg3
(lp348
(dp349
g6
I0
sg7
F1.2693140506744385
sg8
I4
sg9
F0.11241793632507324
sa(dp350
g6
I0
sg7
F0.016037940979003906
sg8
I2
sg9
F0.10662007331848145
sasg12
I4
ssI105
(dp351
g2
I0
sg3
(lp352
sg12
I1
ssI106
(dp353
g2
I1
sg3
(lp354
(dp355
g6
I2
sg7
F0.01584911346435547
sg8
I4
sg9
F0.0001671314239501953
sasg12
I4
ssI107
(dp356
g2
I2
sg3
(lp357
(dp358
g6
I10
sg7
F0.0643310546875
sg8
I16
sg9
F0.00045609474182128906
sa(dp359
g6
I1
sg7
F0.001219034194946289
sg8
I3
sg9
F0.0003180503845214844
sasg12
I16
ssI108
(dp360
g2
I0
sg3
(lp361
sg12
I1
ss.