(dp0
I1
(dp1
S'iters'
p2
I2
sS'meta'
p3
(lp4
(dp5
S'objective'
p6
I52
sS'query_time'
p7
F0.11798596382141113
sS'comp_time'
p8
F0.01958918571472168
sS'exec_cq'
p9
I12
sS'total_cq'
p10
I12
sa(dp11
g6
I41
sg7
F6.008148193359375e-05
sg8
F0.00016999244689941406
sg9
I10
sg10
I10
sasS'total_cqs'
p12
I12
ssI2
(dp13
S'iters'
p14
I6
sS'meta'
p15
(lp16
(dp17
S'objective'
p18
I278
sS'query_time'
p19
F0.16756200790405273
sS'comp_time'
p20
F0.036531925201416016
sS'exec_cq'
p21
I27
sS'total_cq'
p22
I27
sa(dp23
g18
I230
sg19
F0.00020694732666015625
sg20
F0.005015850067138672
sg21
I24
sg22
I24
sa(dp24
g18
I199
sg19
F0.0001747608184814453
sg20
F0.0005426406860351562
sg21
I21
sg22
I21
sa(dp25
g18
I183
sg19
F0.0001609325408935547
sg20
F0.0005152225494384766
sg21
I19
sg22
I19
sa(dp26
g18
I157
sg19
F0.000141143798828125
sg20
F0.00044798851013183594
sg21
I17
sg22
I17
sa(dp27
g18
I130
sg19
F8.177757263183594e-05
sg20
F0.00019216537475585938
sg21
I15
sg22
I15
sasS'total_cqs'
p28
I27
ssI3
(dp29
S'iters'
p30
I4
sS'meta'
p31
(lp32
(dp33
S'objective'
p34
I636
sS'query_time'
p35
F233.28243207931519
sS'comp_time'
p36
F1.9233555793762207
sS'exec_cq'
p37
I39
sS'total_cq'
p38
I43
sa(dp39
g34
I551
sg35
F0.5619640350341797
sg36
F2.2246551513671875
sg37
I31
sg38
I35
sa(dp40
g34
I517
sg35
F12.748745203018188
sg36
F0.5622730255126953
sg37
I28
sg38
I28
sa(dp41
g34
I508
sg35
F0.02246260643005371
sg36
F0.00023031234741210938
sg37
I25
sg38
I25
sasS'total_cqs'
p42
I43
ssI4
(dp43
S'iters'
p44
I2
sS'meta'
p45
(lp46
(dp47
S'objective'
p48
I40
sS'query_time'
p49
F5.098809003829956
sS'comp_time'
p50
F0.34824323654174805
sS'exec_cq'
p51
I11
sS'total_cq'
p52
I11
sa(dp53
g48
I9
sg49
F0.17428803443908691
sg50
F0.27458620071411133
sg51
I2
sg52
I2
sasS'total_cqs'
p54
I11
ssI5
(dp55
S'iters'
p56
I3
sS'meta'
p57
(lp58
(dp59
S'objective'
p60
I0
sS'query_time'
p61
F35.22276711463928
sS'comp_time'
p62
F4.208575248718262
sS'exec_cq'
p63
I8
sS'total_cq'
p64
I8
sa(dp65
g60
I0
sg61
F0.32216405868530273
sg62
F0.6051497459411621
sg63
I5
sg64
I5
sa(dp66
g60
I7
sg61
F0.006379842758178711
sg62
F0.00989079475402832
sg63
I2
sg64
I2
sasS'total_cqs'
p67
I8
ssI6
(dp68
S'iters'
p69
I3
sS'meta'
p70
(lp71
(dp72
S'objective'
p73
I29
sS'query_time'
p74
F37.10561513900757
sS'comp_time'
p75
F1.8628568649291992
sS'exec_cq'
p76
I18
sS'total_cq'
p77
I18
sa(dp78
g73
I1
sg74
F0.8568968772888184
sg75
F3.024684190750122
sg76
I7
sg77
I7
sa(dp79
g73
I1
sg74
F0.3659379482269287
sg75
F1.1223819255828857
sg76
I3
sg77
I3
sasS'total_cqs'
p80
I18
ssI7
(dp81
S'iters'
p82
I3
sS'meta'
p83
(lp84
(dp85
S'objective'
p86
I1
sS'query_time'
p87
F13.382242918014526
sS'comp_time'
p88
F1.9884424209594727
sS'exec_cq'
p89
I9
sS'total_cq'
p90
I9
sa(dp91
g86
I0
sg87
F0.0979299545288086
sg88
F0.24997901916503906
sg89
I4
sg90
I4
sa(dp92
g86
I7
sg87
F0.12243890762329102
sg88
F0.04192805290222168
sg89
I2
sg90
I2
sasS'total_cqs'
p93
I9
ssI8
(dp94
S'iters'
p95
I3
sS'meta'
p96
(lp97
(dp98
S'objective'
p99
I272
sS'query_time'
p100
F0.21230792999267578
sS'comp_time'
p101
F0.02938985824584961
sS'exec_cq'
p102
I27
sS'total_cq'
p103
I27
sa(dp104
g99
I247
sg100
F0.00020503997802734375
sg101
F0.0007917881011962891
sg102
I24
sg103
I24
sa(dp105
g99
I232
sg100
F7.390975952148438e-05
sg101
F0.00023627281188964844
sg102
I19
sg103
I19
sasS'total_cqs'
p106
I27
ssI9
(dp107
S'iters'
p108
I3
sS'meta'
p109
(lp110
(dp111
S'objective'
p112
I6
sS'query_time'
p113
F0.06904792785644531
sS'comp_time'
p114
F0.005441427230834961
sS'exec_cq'
p115
I7
sS'total_cq'
p116
I7
sa(dp117
g112
I1
sg113
F3.1948089599609375e-05
sg114
F0.00020694732666015625
sg115
I4
sg116
I4
sa(dp118
g112
I6
sg113
F1.4066696166992188e-05
sg114
F6.914138793945312e-05
sg115
I2
sg116
I2
sasS'total_cqs'
p119
I7
ssI10
(dp120
S'iters'
p121
I5
sS'meta'
p122
(lp123
(dp124
S'objective'
p125
I596
sS'query_time'
p126
F0.369736909866333
sS'comp_time'
p127
F0.09215354919433594
sS'exec_cq'
p128
I51
sS'total_cq'
p129
I51
sa(dp130
g125
I339
sg126
F0.0006809234619140625
sg127
F0.005737781524658203
sg128
I37
sg129
I37
sa(dp131
g125
I5
sg126
F0.0016901493072509766
sg127
F0.006715059280395508
sg128
I12
sg129
I12
sa(dp132
g125
I21
sg126
F5.793571472167969e-05
sg127
F0.0004353523254394531
sg128
I6
sg129
I6
sa(dp133
g125
I36
sg126
F1.811981201171875e-05
sg127
F0.00011682510375976562
sg128
I2
sg129
I2
sasS'total_cqs'
p134
I51
ssI11
(dp135
S'iters'
p136
I5
sS'meta'
p137
(lp138
(dp139
S'objective'
p140
I980
sS'query_time'
p141
F0.5843558311462402
sS'comp_time'
p142
F0.1659379005432129
sS'exec_cq'
p143
I63
sS'total_cq'
p144
I63
sa(dp145
g140
I864
sg141
F0.0013937950134277344
sg142
F0.005186796188354492
sg143
I47
sg144
I47
sa(dp146
g140
I15
sg141
F0.0163729190826416
sg142
F0.0029888153076171875
sg143
I9
sg144
I9
sa(dp147
g140
I20
sg141
F3.600120544433594e-05
sg142
F0.0002830028533935547
sg143
I4
sg144
I4
sa(dp148
g140
I33
sg141
F1.811981201171875e-05
sg142
F0.0001590251922607422
sg143
I2
sg144
I2
sasS'total_cqs'
p149
I63
ssI12
(dp150
S'iters'
p151
I4
sS'meta'
p152
(lp153
(dp154
S'objective'
p155
I559
sS'query_time'
p156
F0.3443028926849365
sS'comp_time'
p157
F0.0912022590637207
sS'exec_cq'
p158
I50
sS'total_cq'
p159
I50
sa(dp160
g155
I383
sg156
F0.0005261898040771484
sg157
F0.002666950225830078
sg158
I33
sg159
I33
sa(dp161
g155
I7
sg156
F0.0014178752899169922
sg157
F0.001407623291015625
sg158
I8
sg159
I8
sa(dp162
g155
I30
sg156
F3.0040740966796875e-05
sg157
F0.00017309188842773438
sg158
I3
sg159
I3
sasS'total_cqs'
p163
I50
ssI13
(dp164
S'iters'
p165
I3
sS'meta'
p166
(lp167
(dp168
S'objective'
p169
I8
sS'query_time'
p170
F0.19143199920654297
sS'comp_time'
p171
F0.033489227294921875
sS'exec_cq'
p172
I20
sS'total_cq'
p173
I20
sa(dp174
g169
I35
sg170
F5.1021575927734375e-05
sg171
F0.0005171298980712891
sg172
I9
sg173
I9
sa(dp175
g169
I3
sg170
F0.0014979839324951172
sg171
F0.0001537799835205078
sg172
I2
sg173
I2
sasS'total_cqs'
p176
I20
ssI14
(dp177
S'iters'
p178
I2
sS'meta'
p179
(lp180
(dp181
S'objective'
p182
I1
sS'query_time'
p183
F34.194916009902954
sS'comp_time'
p184
F0.7573180198669434
sS'exec_cq'
p185
I9
sS'total_cq'
p186
I9
sa(dp187
g182
I4
sg183
F0.3016939163208008
sg184
F0.3722100257873535
sg185
I3
sg186
I3
sasS'total_cqs'
p188
I9
ssI15
(dp189
S'iters'
p190
I3
sS'meta'
p191
(lp192
(dp193
S'objective'
p194
I0
sS'query_time'
p195
F3.9928197860717773
sS'comp_time'
p196
F0.07729387283325195
sS'exec_cq'
p197
I11
sS'total_cq'
p198
I11
sa(dp199
g194
I1
sg195
F0.028560161590576172
sg196
F0.03284907341003418
sg197
I5
sg198
I5
sa(dp200
g194
I6
sg195
F0.001168966293334961
sg196
F0.0015540122985839844
sg197
I2
sg198
I2
sasS'total_cqs'
p201
I11
ssI16
(dp202
S'iters'
p203
I1
sS'meta'
p204
(lp205
(dp206
S'objective'
p207
I20
sS'query_time'
p208
F0.058296918869018555
sS'comp_time'
p209
F0.004637718200683594
sS'exec_cq'
p210
I8
sS'total_cq'
p211
I8
sasS'total_cqs'
p212
I8
ssI17
(dp213
S'iters'
p214
I2
sS'meta'
p215
(lp216
(dp217
S'objective'
p218
I2
sS'query_time'
p219
F0.8893489837646484
sS'comp_time'
p220
F0.04503774642944336
sS'exec_cq'
p221
I11
sS'total_cq'
p222
I11
sa(dp223
g218
I12
sg219
F0.00015616416931152344
sg220
F0.0003981590270996094
sg221
I5
sg222
I5
sasS'total_cqs'
p224
I11
ssI18
(dp225
S'iters'
p226
I2
sS'meta'
p227
(lp228
(dp229
S'objective'
p230
I20
sS'query_time'
p231
F0.25582408905029297
sS'comp_time'
p232
F0.02826404571533203
sS'exec_cq'
p233
I11
sS'total_cq'
p234
I11
sa(dp235
g230
I21
sg231
F0.00021004676818847656
sg232
F0.0004057884216308594
sg233
I7
sg234
I8
sasS'total_cqs'
p236
I11
ssI19
(dp237
S'iters'
p238
I0
sS'meta'
p239
(lp240
sS'total_cqs'
p241
I1
ssI20
(dp242
S'iters'
p243
I0
sS'meta'
p244
(lp245
sS'total_cqs'
p246
I1
ssI21
(dp247
S'iters'
p248
I0
sS'meta'
p249
(lp250
sS'total_cqs'
p251
I1
ssI22
(dp252
S'iters'
p253
I1
sS'meta'
p254
(lp255
(dp256
S'objective'
p257
I135
sS'query_time'
p258
F0.10803890228271484
sS'comp_time'
p259
F0.05585026741027832
sS'exec_cq'
p260
I18
sS'total_cq'
p261
I18
sasS'total_cqs'
p262
I18
ssI23
(dp263
S'iters'
p264
I2
sS'meta'
p265
(lp266
(dp267
S'objective'
p268
I96
sS'query_time'
p269
F0.12537312507629395
sS'comp_time'
p270
F0.02525949478149414
sS'exec_cq'
p271
I16
sS'total_cq'
p272
I16
sa(dp273
g268
I84
sg269
F0.000102996826171875
sg270
F0.0001995563507080078
sg271
I14
sg272
I14
sasS'total_cqs'
p274
I16
ssI24
(dp275
S'iters'
p276
I0
sS'meta'
p277
(lp278
sS'total_cqs'
p279
I1
ssI25
(dp280
S'iters'
p281
I0
sS'meta'
p282
(lp283
sS'total_cqs'
p284
I1
ssI26
(dp285
S'iters'
p286
I1
sS'meta'
p287
(lp288
(dp289
S'objective'
p290
I819
sS'query_time'
p291
F0.18384003639221191
sS'comp_time'
p292
F0.12151885032653809
sS'exec_cq'
p293
I42
sS'total_cq'
p294
I42
sasS'total_cqs'
p295
I42
ssI27
(dp296
S'iters'
p297
I3
sS'meta'
p298
(lp299
(dp300
S'objective'
p301
I227
sS'query_time'
p302
F23.417325973510742
sS'comp_time'
p303
F1.7533690929412842
sS'exec_cq'
p304
I30
sS'total_cq'
p305
I30
sa(dp306
g301
I9
sg302
F0.6288340091705322
sg303
F7.81472110748291
sg304
I5
sg305
I5
sa(dp307
g301
I5
sg302
F0.596060037612915
sg303
F0.9005343914031982
sg304
I2
sg305
I2
sasS'total_cqs'
p308
I30
ssI28
(dp309
S'iters'
p310
I0
sS'meta'
p311
(lp312
sS'total_cqs'
p313
I1
ssI29
(dp314
S'iters'
p315
I4
sS'meta'
p316
(lp317
(dp318
S'objective'
p319
I283
sS'query_time'
p320
F28.84697699546814
sS'comp_time'
p321
F0.33621811866760254
sS'exec_cq'
p322
I35
sS'total_cq'
p323
I49
sa(dp324
g319
I25
sg320
F0.023370981216430664
sg321
F0.04064607620239258
sg322
I17
sg323
I17
sa(dp325
g319
I35
sg320
F0.0015101432800292969
sg321
F0.004454612731933594
sg322
I9
sg323
I9
sa(dp326
g319
I4
sg320
F0.0008039474487304688
sg321
F0.0013849735260009766
sg322
I4
sg323
I4
sasS'total_cqs'
p327
I49
ssI30
(dp328
S'iters'
p329
I1
sS'meta'
p330
(lp331
(dp332
S'objective'
p333
I1
sS'query_time'
p334
F0.7159550189971924
sS'comp_time'
p335
F0.012109994888305664
sS'exec_cq'
p336
I2
sS'total_cq'
p337
I2
sasS'total_cqs'
p338
I2
ssI31
(dp339
S'iters'
p340
I0
sS'meta'
p341
(lp342
sS'total_cqs'
p343
I1
ssI32
(dp344
S'iters'
p345
I1
sS'meta'
p346
(lp347
(dp348
S'objective'
p349
I1
sS'query_time'
p350
F0.019755125045776367
sS'comp_time'
p351
F0.004126787185668945
sS'exec_cq'
p352
I2
sS'total_cq'
p353
I2
sasS'total_cqs'
p354
I2
ssI33
(dp355
S'iters'
p356
I5
sS'meta'
p357
(lp358
(dp359
S'objective'
p360
I3368
sS'query_time'
p361
F18.710488080978394
sS'comp_time'
p362
F1.0396521091461182
sS'exec_cq'
p363
I103
sS'total_cq'
p364
I103
sa(dp365
g360
I10
sg361
F0.009243965148925781
sg362
F0.06348800659179688
sg363
I16
sg364
I16
sa(dp366
g360
I32
sg361
F0.0025930404663085938
sg362
F0.015959501266479492
sg363
I9
sg364
I9
sa(dp367
g360
I12
sg361
F0.0013298988342285156
sg362
F0.0022809505462646484
sg363
I5
sg364
I5
sa(dp368
g360
I69
sg361
F0.0007419586181640625
sg362
F0.0004253387451171875
sg363
I2
sg364
I2
sasS'total_cqs'
p369
I103
ssI34
(dp370
S'iters'
p371
I1
sS'meta'
p372
(lp373
(dp374
S'objective'
p375
I1
sS'query_time'
p376
F0.01692795753479004
sS'comp_time'
p377
F0.002065896987915039
sS'exec_cq'
p378
I2
sS'total_cq'
p379
I2
sasS'total_cqs'
p380
I2
ssI35
(dp381
S'iters'
p382
I4
sS'meta'
p383
(lp384
(dp385
S'objective'
p386
I1283
sS'query_time'
p387
F71.4654610157013
sS'comp_time'
p388
F2.445366382598877
sS'exec_cq'
p389
I70
sS'total_cq'
p390
I70
sa(dp391
g386
I15
sg387
F0.004631996154785156
sg388
F0.016709327697753906
sg389
I16
sg390
I16
sa(dp392
g386
I7
sg387
F0.0016319751739501953
sg388
F0.002777099609375
sg389
I7
sg390
I7
sa(dp393
g386
I10
sg387
F0.0007309913635253906
sg388
F0.0018694400787353516
sg389
I3
sg390
I3
sasS'total_cqs'
p394
I70
ssI36
(dp395
S'iters'
p396
I3
sS'meta'
p397
(lp398
(dp399
S'objective'
p400
I385
sS'query_time'
p401
F0.8467116355895996
sS'comp_time'
p402
F0.14571070671081543
sS'exec_cq'
p403
I33
sS'total_cq'
p404
I33
sa(dp405
g400
I307
sg401
F0.0032355785369873047
sg402
F0.006021022796630859
sg403
I29
sg404
I29
sa(dp406
g400
I324
sg401
F0.0022628307342529297
sg402
F0.003663778305053711
sg403
I25
sg404
I25
sasS'total_cqs'
p407
I33
ssI37
(dp408
S'iters'
p409
I1
sS'meta'
p410
(lp411
(dp412
S'objective'
p413
I1
sS'query_time'
p414
F0.008646965026855469
sS'comp_time'
p415
F0.0017459392547607422
sS'exec_cq'
p416
I2
sS'total_cq'
p417
I2
sasS'total_cqs'
p418
I2
ssI38
(dp419
S'iters'
p420
I2
sS'meta'
p421
(lp422
(dp423
S'objective'
p424
I0
sS'query_time'
p425
F0.030597925186157227
sS'comp_time'
p426
F0.0026595592498779297
sS'exec_cq'
p427
I4
sS'total_cq'
p428
I4
sa(dp429
g424
I3
sg425
F9.918212890625e-05
sg426
F0.00017595291137695312
sg427
I2
sg428
I2
sasS'total_cqs'
p430
I4
ssI39
(dp431
S'iters'
p432
I2
sS'meta'
p433
(lp434
(dp435
S'objective'
p436
I638
sS'query_time'
p437
F0.4011409282684326
sS'comp_time'
p438
F0.16988706588745117
sS'exec_cq'
p439
I44
sS'total_cq'
p440
I44
sa(dp441
g436
I726
sg437
F0.00029015541076660156
sg438
F0.0008261203765869141
sg439
I37
sg440
I37
sasS'total_cqs'
p442
I44
ssI40
(dp443
S'iters'
p444
I1
sS'meta'
p445
(lp446
(dp447
S'objective'
p448
I14
sS'query_time'
p449
F0.03312087059020996
sS'comp_time'
p450
F0.006235599517822266
sS'exec_cq'
p451
I7
sS'total_cq'
p452
I7
sasS'total_cqs'
p453
I7
ssI41
(dp454
S'iters'
p455
I1
sS'meta'
p456
(lp457
(dp458
S'objective'
p459
I54
sS'query_time'
p460
F0.08876991271972656
sS'comp_time'
p461
F0.01570582389831543
sS'exec_cq'
p462
I12
sS'total_cq'
p463
I12
sasS'total_cqs'
p464
I12
ssI42
(dp465
S'iters'
p466
I1
sS'meta'
p467
(lp468
(dp469
S'objective'
p470
I779
sS'query_time'
p471
F0.10561609268188477
sS'comp_time'
p472
F0.15735507011413574
sS'exec_cq'
p473
I41
sS'total_cq'
p474
I41
sasS'total_cqs'
p475
I41
ssI43
(dp476
S'iters'
p477
I1
sS'meta'
p478
(lp479
(dp480
S'objective'
p481
I14
sS'query_time'
p482
F0.04021501541137695
sS'comp_time'
p483
F0.006854057312011719
sS'exec_cq'
p484
I7
sS'total_cq'
p485
I7
sasS'total_cqs'
p486
I7
ssI44
(dp487
S'iters'
p488
I4
sS'meta'
p489
(lp490
(dp491
S'objective'
p492
I902
sS'query_time'
p493
F0.14031291007995605
sS'comp_time'
p494
F0.1563854217529297
sS'exec_cq'
p495
I47
sS'total_cq'
p496
I47
sa(dp497
g492
I849
sg493
F0.00027298927307128906
sg494
F0.0009503364562988281
sg495
I40
sg496
I40
sa(dp498
g492
I23
sg493
F0.001435995101928711
sg494
F0.0014030933380126953
sg495
I3
sg496
I3
sa(dp499
g492
I41
sg493
F2.4080276489257812e-05
sg494
F9.703636169433594e-05
sg495
I2
sg496
I2
sasS'total_cqs'
p500
I47
ssI45
(dp501
S'iters'
p502
I0
sS'meta'
p503
(lp504
sS'total_cqs'
p505
I1
ssI46
(dp506
S'iters'
p507
I1
sS'meta'
p508
(lp509
(dp510
S'objective'
p511
I9
sS'query_time'
p512
F0.013576030731201172
sS'comp_time'
p513
F0.002493143081665039
sS'exec_cq'
p514
I4
sS'total_cq'
p515
I6
sasS'total_cqs'
p516
I6
ssI47
(dp517
S'iters'
p518
I1
sS'meta'
p519
(lp520
(dp521
S'objective'
p522
I1
sS'query_time'
p523
F0.009299993515014648
sS'comp_time'
p524
F0.0010867118835449219
sS'exec_cq'
p525
I2
sS'total_cq'
p526
I2
sasS'total_cqs'
p527
I2
ssI48
(dp528
S'iters'
p529
I0
sS'meta'
p530
(lp531
sS'total_cqs'
p532
I1
ssI49
(dp533
S'iters'
p534
I0
sS'meta'
p535
(lp536
sS'total_cqs'
p537
I1
ssI50
(dp538
S'iters'
p539
I1
sS'meta'
p540
(lp541
(dp542
S'objective'
p543
I5
sS'query_time'
p544
F0.014344930648803711
sS'comp_time'
p545
F0.001851797103881836
sS'exec_cq'
p546
I5
sS'total_cq'
p547
I5
sasS'total_cqs'
p548
I5
ssI51
(dp549
S'iters'
p550
I1
sS'meta'
p551
(lp552
(dp553
S'objective'
p554
I1
sS'query_time'
p555
F0.007809877395629883
sS'comp_time'
p556
F0.0010190010070800781
sS'exec_cq'
p557
I2
sS'total_cq'
p558
I2
sasS'total_cqs'
p559
I2
ssI52
(dp560
S'iters'
p561
I1
sS'meta'
p562
(lp563
(dp564
S'objective'
p565
I1
sS'query_time'
p566
F0.008340120315551758
sS'comp_time'
p567
F0.0009891986846923828
sS'exec_cq'
p568
I2
sS'total_cq'
p569
I2
sasS'total_cqs'
p570
I2
ssI53
(dp571
S'iters'
p572
I2
sS'meta'
p573
(lp574
(dp575
S'objective'
p576
I0
sS'query_time'
p577
F0.07593798637390137
sS'comp_time'
p578
F0.0023255348205566406
sS'exec_cq'
p579
I4
sS'total_cq'
p580
I4
sa(dp581
g576
I3
sg577
F9.512901306152344e-05
sg578
F0.00021982192993164062
sg579
I2
sg580
I2
sasS'total_cqs'
p582
I4
ssI54
(dp583
S'iters'
p584
I1
sS'meta'
p585
(lp586
(dp587
S'objective'
p588
I0
sS'query_time'
p589
F0.014950037002563477
sS'comp_time'
p590
F0.0018308162689208984
sS'exec_cq'
p591
I3
sS'total_cq'
p592
I3
sasS'total_cqs'
p593
I3
ssI55
(dp594
S'iters'
p595
I6
sS'meta'
p596
(lp597
(dp598
S'objective'
p599
I4689
sS'query_time'
p600
F2.5742480754852295
sS'comp_time'
p601
F0.80191969871521
sS'exec_cq'
p602
I109
sS'total_cq'
p603
I109
sa(dp604
g599
I4734
sg600
F0.0011410713195800781
sg601
F0.004271507263183594
sg602
I97
sg603
I97
sa(dp605
g599
I4630
sg600
F0.0004889965057373047
sg601
F0.0016298294067382812
sg602
I91
sg603
I91
sa(dp606
g599
I4514
sg600
F0.0004341602325439453
sg601
F0.0014388561248779297
sg602
I87
sg603
I87
sa(dp607
g599
I4396
sg600
F0.0003559589385986328
sg601
F0.0008559226989746094
sg602
I85
sg603
I85
sa(dp608
g599
I4317
sg600
F0.0003800392150878906
sg601
F0.0007863044738769531
sg602
I83
sg603
I83
sasS'total_cqs'
p609
I109
ssI56
(dp610
S'iters'
p611
I4
sS'meta'
p612
(lp613
(dp614
S'objective'
p615
I1684
sS'query_time'
p616
F1.7497990131378174
sS'comp_time'
p617
F0.35509800910949707
sS'exec_cq'
p618
I67
sS'total_cq'
p619
I76
sa(dp620
g615
I27
sg616
F0.007910013198852539
sg617
F0.09404492378234863
sg618
I16
sg619
I16
sa(dp621
g615
I13
sg616
F0.003963947296142578
sg617
F0.009953975677490234
sg618
I8
sg619
I8
sa(dp622
g615
I10
sg616
F0.0011398792266845703
sg617
F0.0018088817596435547
sg618
I5
sg619
I5
sasS'total_cqs'
p623
I76
ssI57
(dp624
S'iters'
p625
I5
sS'meta'
p626
(lp627
(dp628
S'objective'
p629
I328
sS'query_time'
p630
F25.581188201904297
sS'comp_time'
p631
F0.16582393646240234
sS'exec_cq'
p632
I45
sS'total_cq'
p633
I51
sa(dp634
g629
I99
sg630
F0.003220796585083008
sg631
F0.006717681884765625
sg632
I27
sg633
I33
sa(dp635
g629
I6
sg630
F0.003019094467163086
sg631
F0.05399322509765625
sg632
I13
sg633
I13
sa(dp636
g629
I5
sg630
F0.0015120506286621094
sg631
F0.002293109893798828
sg632
I5
sg633
I5
sa(dp637
g629
I15
sg630
F0.0006918907165527344
sg631
F0.0008699893951416016
sg632
I2
sg633
I2
sasS'total_cqs'
p638
I51
ssI58
(dp639
S'iters'
p640
I6
sS'meta'
p641
(lp642
(dp643
S'objective'
p644
I83469
sS'query_time'
p645
F334.3840310573578
sS'comp_time'
p646
F24.84554886817932
sS'exec_cq'
p647
I486
sS'total_cq'
p648
I486
sa(dp649
g644
I85769
sg645
F5.548353910446167
sg646
F9.483771800994873
sg647
I414
sg648
I414
sa(dp650
g644
I94
sg645
F0.016167879104614258
sg646
F0.19032049179077148
sg647
I28
sg648
I28
sa(dp651
g644
I7
sg645
F0.008301973342895508
sg646
F0.14886164665222168
sg647
I12
sg648
I12
sa(dp652
g644
I69
sg645
F0.002599000930786133
sg646
F0.015400886535644531
sg647
I6
sg648
I6
sa(dp653
g644
I5
sg645
F0.0004210472106933594
sg646
F0.0005862712860107422
sg647
I3
sg648
I3
sasS'total_cqs'
p654
I486
ssI59
(dp655
S'iters'
p656
I2
sS'meta'
p657
(lp658
(dp659
S'objective'
p660
I12
sS'query_time'
p661
F0.04872012138366699
sS'comp_time'
p662
F0.006152153015136719
sS'exec_cq'
p663
I7
sS'total_cq'
p664
I7
sa(dp665
g660
I6
sg661
F0.0001728534698486328
sg662
F0.0003910064697265625
sg663
I2
sg664
I2
sasS'total_cqs'
p666
I7
ssI60
(dp667
S'iters'
p668
I1
sS'meta'
p669
(lp670
(dp671
S'objective'
p672
I5
sS'query_time'
p673
F0.018559932708740234
sS'comp_time'
p674
F0.0035881996154785156
sS'exec_cq'
p675
I4
sS'total_cq'
p676
I5
sasS'total_cqs'
p677
I5
ssI61
(dp678
S'iters'
p679
I0
sS'meta'
p680
(lp681
sS'total_cqs'
p682
I1
ssI62
(dp683
S'iters'
p684
I2
sS'meta'
p685
(lp686
(dp687
S'objective'
p688
I50
sS'query_time'
p689
F0.030902862548828125
sS'comp_time'
p690
F0.018774747848510742
sS'exec_cq'
p691
I12
sS'total_cq'
p692
I12
sa(dp693
g688
I40
sg689
F4.100799560546875e-05
sg690
F0.00013899803161621094
sg691
I9
sg692
I9
sasS'total_cqs'
p694
I12
ssI63
(dp695
S'iters'
p696
I0
sS'meta'
p697
(lp698
sS'total_cqs'
p699
I1
ssI64
(dp700
S'iters'
p701
I3
sS'meta'
p702
(lp703
(dp704
S'objective'
p705
I6
sS'query_time'
p706
F0.15976405143737793
sS'comp_time'
p707
F0.019544124603271484
sS'exec_cq'
p708
I12
sS'total_cq'
p709
I12
sa(dp710
g705
I6
sg706
F0.0002219676971435547
sg707
F0.0008361339569091797
sg708
I4
sg709
I4
sa(dp711
g705
I9
sg706
F4.7206878662109375e-05
sg707
F0.00013065338134765625
sg708
I2
sg709
I2
sasS'total_cqs'
p712
I12
ssI65
(dp713
S'iters'
p714
I3
sS'meta'
p715
(lp716
(dp717
S'objective'
p718
I162
sS'query_time'
p719
F0.8781709671020508
sS'comp_time'
p720
F0.05475926399230957
sS'exec_cq'
p721
I27
sS'total_cq'
p722
I27
sa(dp723
g718
I12
sg719
F0.0016820430755615234
sg720
F0.003743886947631836
sg721
I7
sg722
I7
sa(dp724
g718
I6
sg719
F0.0007779598236083984
sg720
F0.0019211769104003906
sg721
I4
sg722
I4
sasS'total_cqs'
p725
I27
ssI66
(dp726
S'iters'
p727
I0
sS'meta'
p728
(lp729
sS'total_cqs'
p730
I1
ssI67
(dp731
S'iters'
p732
I2
sS'meta'
p733
(lp734
(dp735
S'objective'
p736
I540
sS'query_time'
p737
F1.1406409740447998
sS'comp_time'
p738
F0.14877605438232422
sS'exec_cq'
p739
I35
sS'total_cq'
p740
I35
sa(dp741
g736
I25
sg737
F0.001338958740234375
sg738
F0.0030813217163085938
sg739
I2
sg740
I2
sasS'total_cqs'
p742
I35
ssI68
(dp743
S'iters'
p744
I0
sS'meta'
p745
(lp746
sS'total_cqs'
p747
I1
ssI69
(dp748
S'iters'
p749
I1
sS'meta'
p750
(lp751
(dp752
S'objective'
p753
I1224
sS'query_time'
p754
F0.1873478889465332
sS'comp_time'
p755
F0.21840381622314453
sS'exec_cq'
p756
I51
sS'total_cq'
p757
I51
sasS'total_cqs'
p758
I51
ssI70
(dp759
S'iters'
p760
I1
sS'meta'
p761
(lp762
(dp763
S'objective'
p764
I9
sS'query_time'
p765
F0.01826310157775879
sS'comp_time'
p766
F0.003246784210205078
sS'exec_cq'
p767
I6
sS'total_cq'
p768
I6
sasS'total_cqs'
p769
I6
ssI71
(dp770
S'iters'
p771
I4
sS'meta'
p772
(lp773
(dp774
S'objective'
p775
I3079
sS'query_time'
p776
F0.33503198623657227
sS'comp_time'
p777
F0.4582371711730957
sS'exec_cq'
p778
I85
sS'total_cq'
p779
I85
sa(dp780
g775
I3107
sg776
F0.00040984153747558594
sg777
F0.0013964176177978516
sg778
I81
sg779
I81
sa(dp781
g775
I2999
sg776
F0.0002970695495605469
sg777
F0.001230001449584961
sg778
I77
sg779
I77
sa(dp782
g775
I51
sg776
F0.002783060073852539
sg777
F0.0034706592559814453
sg778
I3
sg779
I3
sasS'total_cqs'
p783
I85
ssI72
(dp784
S'iters'
p785
I3
sS'meta'
p786
(lp787
(dp788
S'objective'
p789
I14
sS'query_time'
p790
F0.3216710090637207
sS'comp_time'
p791
F0.004932880401611328
sS'exec_cq'
p792
I8
sS'total_cq'
p793
I8
sa(dp794
g789
I7
sg790
F0.0004239082336425781
sg791
F0.0012309551239013672
sg792
I4
sg793
I6
sa(dp795
g789
I0
sg790
F8.106231689453125e-05
sg791
F6.079673767089844e-05
sg792
I2
sg793
I3
sasS'total_cqs'
p796
I8
ssI73
(dp797
S'iters'
p798
I0
sS'meta'
p799
(lp800
sS'total_cqs'
p801
I1
ssI74
(dp802
S'iters'
p803
I0
sS'meta'
p804
(lp805
sS'total_cqs'
p806
I1
ssI75
(dp807
S'iters'
p808
I1
sS'meta'
p809
(lp810
(dp811
S'objective'
p812
I5
sS'query_time'
p813
F0.014580011367797852
sS'comp_time'
p814
F0.0017070770263671875
sS'exec_cq'
p815
I5
sS'total_cq'
p816
I5
sasS'total_cqs'
p817
I5
ssI76
(dp818
S'iters'
p819
I1
sS'meta'
p820
(lp821
(dp822
S'objective'
p823
I1
sS'query_time'
p824
F0.013731956481933594
sS'comp_time'
p825
F0.0015821456909179688
sS'exec_cq'
p826
I2
sS'total_cq'
p827
I2
sasS'total_cqs'
p828
I2
ssI77
(dp829
S'iters'
p830
I0
sS'meta'
p831
(lp832
sS'total_cqs'
p833
I1
ssI78
(dp834
S'iters'
p835
I0
sS'meta'
p836
(lp837
sS'total_cqs'
p838
I1
ssI103
(dp839
S'iters'
p840
I1
sS'meta'
p841
(lp842
(dp843
S'objective'
p844
I54
sS'query_time'
p845
F0.05952620506286621
sS'comp_time'
p846
F0.016424894332885742
sS'exec_cq'
p847
I12
sS'total_cq'
p848
I12
sasS'total_cqs'
p849
I12
ssI104
(dp850
S'iters'
p851
I1
sS'meta'
p852
(lp853
(dp854
S'objective'
p855
I2
sS'query_time'
p856
F1.3132669925689697
sS'comp_time'
p857
F0.1397404670715332
sS'exec_cq'
p858
I4
sS'total_cq'
p859
I4
sasS'total_cqs'
p860
I4
ssI105
(dp861
S'iters'
p862
I0
sS'meta'
p863
(lp864
sS'total_cqs'
p865
I1
ssI106
(dp866
S'iters'
p867
I1
sS'meta'
p868
(lp869
(dp870
S'objective'
p871
I2
sS'query_time'
p872
F0.019168853759765625
sS'comp_time'
p873
F0.0019161701202392578
sS'exec_cq'
p874
I4
sS'total_cq'
p875
I4
sasS'total_cqs'
p876
I4
ssI107
(dp877
S'iters'
p878
I2
sS'meta'
p879
(lp880
(dp881
S'objective'
p882
I80
sS'query_time'
p883
F0.07993006706237793
sS'comp_time'
p884
F0.02039194107055664
sS'exec_cq'
p885
I16
sS'total_cq'
p886
I16
sa(dp887
g882
I4
sg883
F0.005048036575317383
sg884
F0.00043892860412597656
sg885
I3
sg886
I3
sasS'total_cqs'
p888
I16
ssI108
(dp889
S'iters'
p890
I0
sS'meta'
p891
(lp892
sS'total_cqs'
p893
I1
ss.