(dp0
I1
(dp1
S'iters'
p2
I2
sS'meta'
p3
(lp4
(dp5
S'objective'
p6
I50
sS'query_time'
p7
F0.043968915939331055
sS'comp_time'
p8
F0.01909351348876953
sS'exec_cq'
p9
I12
sS'total_cq'
p10
I12
sa(dp11
g6
I44
sg7
F6.604194641113281e-05
sg8
F0.00021409988403320312
sg9
I10
sg10
I10
sasS'total_cqs'
p12
I12
ssI2
(dp13
S'iters'
p14
I4
sS'meta'
p15
(lp16
(dp17
S'objective'
p18
I262
sS'query_time'
p19
F0.05002593994140625
sS'comp_time'
p20
F0.029951095581054688
sS'exec_cq'
p21
I13
sS'total_cq'
p22
I27
sa(dp23
g18
I240
sg19
F0.05587291717529297
sg20
F0.0006856918334960938
sg21
I14
sg22
I24
sa(dp24
g18
I220
sg19
F8.606910705566406e-05
sg20
F0.0003762245178222656
sg21
I10
sg22
I21
sa(dp25
g18
I206
sg19
F5.602836608886719e-05
sg20
F0.00029778480529785156
sg21
I8
sg22
I19
sasS'total_cqs'
p26
I27
ssI3
(dp27
S'iters'
p28
I3
sS'meta'
p29
(lp30
(dp31
S'objective'
p32
I310
sS'query_time'
p33
F119.73771405220032
sS'comp_time'
p34
F2.309812068939209
sS'exec_cq'
p35
I14
sS'total_cq'
p36
I43
sa(dp37
g32
I6
sg33
F65.51732897758484
sg34
F0.5171411037445068
sg35
I16
sg36
I29
sa(dp38
g32
I249
sg33
F42.45743179321289
sg34
F0.6988897323608398
sg35
I9
sg36
I13
sasS'total_cqs'
p39
I43
ssI4
(dp40
S'iters'
p41
I2
sS'meta'
p42
(lp43
(dp44
S'objective'
p45
I34
sS'query_time'
p46
F5.3573899269104
sS'comp_time'
p47
F0.8819601535797119
sS'exec_cq'
p48
I11
sS'total_cq'
p49
I11
sa(dp50
g45
I4
sg46
F0.19623684883117676
sg47
F1.4375932216644287
sg48
I2
sg49
I2
sasS'total_cqs'
p51
I11
ssI5
(dp52
S'iters'
p53
I3
sS'meta'
p54
(lp55
(dp56
S'objective'
p57
I0
sS'query_time'
p58
F33.43730688095093
sS'comp_time'
p59
F5.46213698387146
sS'exec_cq'
p60
I8
sS'total_cq'
p61
I8
sa(dp62
g57
I0
sg58
F0.639660120010376
sg59
F1.846867322921753
sg60
I4
sg61
I4
sa(dp63
g57
I5
sg58
F0.004041194915771484
sg59
F0.020242691040039062
sg60
I2
sg61
I2
sasS'total_cqs'
p64
I8
ssI6
(dp65
S'iters'
p66
I3
sS'meta'
p67
(lp68
(dp69
S'objective'
p70
I67
sS'query_time'
p71
F38.04020094871521
sS'comp_time'
p72
F3.7655274868011475
sS'exec_cq'
p73
I18
sS'total_cq'
p74
I18
sa(dp75
g70
I0
sg71
F0.6441869735717773
sg72
F3.550391674041748
sg73
I7
sg74
I7
sa(dp76
g70
I4
sg71
F0.10061812400817871
sg72
F1.5152926445007324
sg73
I2
sg74
I2
sasS'total_cqs'
p77
I18
ssI7
(dp78
S'iters'
p79
I3
sS'meta'
p80
(lp81
(dp82
S'objective'
p83
I1
sS'query_time'
p84
F12.607299089431763
sS'comp_time'
p85
F1.9569337368011475
sS'exec_cq'
p86
I9
sS'total_cq'
p87
I9
sa(dp88
g83
I0
sg84
F0.2284848690032959
sg85
F0.9233353137969971
sg86
I4
sg87
I4
sa(dp89
g83
I5
sg84
F0.003946065902709961
sg85
F0.022193193435668945
sg86
I2
sg87
I2
sasS'total_cqs'
p90
I9
ssI8
(dp91
S'iters'
p92
I4
sS'meta'
p93
(lp94
(dp95
S'objective'
p96
I288
sS'query_time'
p97
F0.05495500564575195
sS'comp_time'
p98
F0.028909921646118164
sS'exec_cq'
p99
I13
sS'total_cq'
p100
I27
sa(dp101
g96
I207
sg97
F0.05755901336669922
sg98
F0.0006978511810302734
sg99
I14
sg100
I24
sa(dp102
g96
I216
sg97
F5.602836608886719e-05
sg98
F0.0002560615539550781
sg99
I10
sg100
I19
sa(dp103
g96
I199
sg97
F3.2901763916015625e-05
sg98
F9.989738464355469e-05
sg99
I9
sg100
I18
sasS'total_cqs'
p104
I27
ssI9
(dp105
S'iters'
p106
I2
sS'meta'
p107
(lp108
(dp109
S'objective'
p110
I8
sS'query_time'
p111
F0.0458831787109375
sS'comp_time'
p112
F0.0046002864837646484
sS'exec_cq'
p113
I7
sS'total_cq'
p114
I7
sa(dp115
g110
I4
sg111
F1.811981201171875e-05
sg112
F0.0002040863037109375
sg113
I2
sg114
I2
sasS'total_cqs'
p116
I7
ssI10
(dp117
S'iters'
p118
I5
sS'meta'
p119
(lp120
(dp121
S'objective'
p122
I632
sS'query_time'
p123
F0.24062585830688477
sS'comp_time'
p124
F0.09818315505981445
sS'exec_cq'
p125
I28
sS'total_cq'
p126
I51
sa(dp127
g122
I327
sg123
F0.24483895301818848
sg124
F0.001699209213256836
sg125
I23
sg126
I37
sa(dp128
g122
I2
sg123
F0.002029895782470703
sg124
F0.0014832019805908203
sg125
I12
sg126
I12
sa(dp129
g122
I4
sg123
F6.198883056640625e-05
sg124
F0.00036025047302246094
sg125
I6
sg126
I6
sa(dp130
g122
I4
sg123
F1.9073486328125e-05
sg124
F0.00011229515075683594
sg125
I2
sg126
I2
sasS'total_cqs'
p131
I51
ssI11
(dp132
S'iters'
p133
I5
sS'meta'
p134
(lp135
(dp136
S'objective'
p137
I1016
sS'query_time'
p138
F0.6163179874420166
sS'comp_time'
p139
F0.17280220985412598
sS'exec_cq'
p140
I63
sS'total_cq'
p141
I63
sa(dp142
g137
I808
sg138
F0.0013549327850341797
sg139
F0.006487369537353516
sg140
I47
sg141
I47
sa(dp143
g137
I16
sg138
F0.0016810894012451172
sg139
F0.002614736557006836
sg140
I9
sg141
I9
sa(dp144
g137
I47
sg138
F3.409385681152344e-05
sg139
F0.0002028942108154297
sg140
I4
sg141
I4
sa(dp145
g137
I10
sg138
F2.09808349609375e-05
sg139
F9.489059448242188e-05
sg140
I3
sg141
I3
sasS'total_cqs'
p146
I63
ssI12
(dp147
S'iters'
p148
I5
sS'meta'
p149
(lp150
(dp151
S'objective'
p152
I399
sS'query_time'
p153
F0.1975879669189453
sS'comp_time'
p154
F0.1327517032623291
sS'exec_cq'
p155
I28
sS'total_cq'
p156
I50
sa(dp157
g152
I363
sg153
F0.22130298614501953
sg154
F0.0030269622802734375
sg155
I22
sg156
I33
sa(dp158
g152
I1
sg153
F0.0013670921325683594
sg154
F0.0018780231475830078
sg155
I8
sg156
I8
sa(dp159
g152
I32
sg153
F2.5987625122070312e-05
sg154
F0.0001990795135498047
sg155
I3
sg156
I3
sa(dp160
g152
I3
sg153
F1.621246337890625e-05
sg154
F8.392333984375e-05
sg155
I2
sg156
I2
sasS'total_cqs'
p161
I50
ssI13
(dp162
S'iters'
p163
I3
sS'meta'
p164
(lp165
(dp166
S'objective'
p167
I0
sS'query_time'
p168
F0.14745187759399414
sS'comp_time'
p169
F0.031184911727905273
sS'exec_cq'
p170
I20
sS'total_cq'
p171
I20
sa(dp172
g167
I63
sg168
F4.506111145019531e-05
sg169
F0.00041103363037109375
sg170
I9
sg171
I9
sa(dp173
g167
I11
sg168
F0.0011899471282958984
sg169
F0.0001423358917236328
sg170
I2
sg171
I2
sasS'total_cqs'
p174
I20
ssI14
(dp175
S'iters'
p176
I3
sS'meta'
p177
(lp178
(dp179
S'objective'
p180
I1
sS'query_time'
p181
F33.933408975601196
sS'comp_time'
p182
F1.704604148864746
sS'exec_cq'
p183
I9
sS'total_cq'
p184
I9
sa(dp185
g180
I4
sg181
F0.005895137786865234
sg182
F0.16834139823913574
sg183
I4
sg184
I4
sa(dp186
g180
I3
sg181
F0.003465890884399414
sg182
F0.020200014114379883
sg183
I3
sg184
I3
sasS'total_cqs'
p187
I9
ssI15
(dp188
S'iters'
p189
I3
sS'meta'
p190
(lp191
(dp192
S'objective'
p193
I2
sS'query_time'
p194
F3.6756789684295654
sS'comp_time'
p195
F0.28682589530944824
sS'exec_cq'
p196
I11
sS'total_cq'
p197
I11
sa(dp198
g193
I0
sg194
F0.040659189224243164
sg195
F0.26038122177124023
sg196
I6
sg197
I6
sa(dp199
g193
I4
sg194
F0.02603006362915039
sg195
F0.24229025840759277
sg196
I3
sg197
I3
sasS'total_cqs'
p200
I11
ssI16
(dp201
S'iters'
p202
I1
sS'meta'
p203
(lp204
(dp205
S'objective'
p206
I22
sS'query_time'
p207
F0.019279956817626953
sS'comp_time'
p208
F0.005461931228637695
sS'exec_cq'
p209
I8
sS'total_cq'
p210
I8
sasS'total_cqs'
p211
I8
ssI17
(dp212
S'iters'
p213
I3
sS'meta'
p214
(lp215
(dp216
S'objective'
p217
I0
sS'query_time'
p218
F0.9003651142120361
sS'comp_time'
p219
F0.04955410957336426
sS'exec_cq'
p220
I11
sS'total_cq'
p221
I11
sa(dp222
g217
I1
sg218
F0.003525972366333008
sg219
F0.020574569702148438
sg220
I7
sg221
I7
sa(dp223
g217
I3
sg218
F0.003142118453979492
sg219
F0.020442962646484375
sg220
I3
sg221
I3
sasS'total_cqs'
p224
I11
ssI18
(dp225
S'iters'
p226
I1
sS'meta'
p227
(lp228
(dp229
S'objective'
p230
I46
sS'query_time'
p231
F0.23366498947143555
sS'comp_time'
p232
F0.024548768997192383
sS'exec_cq'
p233
I10
sS'total_cq'
p234
I11
sasS'total_cqs'
p235
I11
ssI19
(dp236
S'iters'
p237
I0
sS'meta'
p238
(lp239
sS'total_cqs'
p240
I1
ssI20
(dp241
S'iters'
p242
I0
sS'meta'
p243
(lp244
sS'total_cqs'
p245
I1
ssI21
(dp246
S'iters'
p247
I0
sS'meta'
p248
(lp249
sS'total_cqs'
p250
I1
ssI22
(dp251
S'iters'
p252
I1
sS'meta'
p253
(lp254
(dp255
S'objective'
p256
I141
sS'query_time'
p257
F0.06615304946899414
sS'comp_time'
p258
F0.032395124435424805
sS'exec_cq'
p259
I18
sS'total_cq'
p260
I18
sasS'total_cqs'
p261
I18
ssI23
(dp262
S'iters'
p263
I1
sS'meta'
p264
(lp265
(dp266
S'objective'
p267
I110
sS'query_time'
p268
F0.03426504135131836
sS'comp_time'
p269
F0.021460771560668945
sS'exec_cq'
p270
I8
sS'total_cq'
p271
I16
sasS'total_cqs'
p272
I16
ssI24
(dp273
S'iters'
p274
I0
sS'meta'
p275
(lp276
sS'total_cqs'
p277
I1
ssI25
(dp278
S'iters'
p279
I0
sS'meta'
p280
(lp281
sS'total_cqs'
p282
I1
ssI26
(dp283
S'iters'
p284
I1
sS'meta'
p285
(lp286
(dp287
S'objective'
p288
I837
sS'query_time'
p289
F0.15367603302001953
sS'comp_time'
p290
F0.11672163009643555
sS'exec_cq'
p291
I42
sS'total_cq'
p292
I42
sasS'total_cqs'
p293
I42
ssI27
(dp294
S'iters'
p295
I3
sS'meta'
p296
(lp297
(dp298
S'objective'
p299
I253
sS'query_time'
p300
F22.083076000213623
sS'comp_time'
p301
F4.479557275772095
sS'exec_cq'
p302
I30
sS'total_cq'
p303
I30
sa(dp304
g299
I0
sg300
F0.5378448963165283
sg301
F3.6124958992004395
sg302
I5
sg303
I5
sa(dp305
g299
I5
sg300
F0.3411109447479248
sg301
F1.9499971866607666
sg302
I2
sg303
I2
sasS'total_cqs'
p306
I30
ssI28
(dp307
S'iters'
p308
I0
sS'meta'
p309
(lp310
sS'total_cqs'
p311
I1
ssI29
(dp312
S'iters'
p313
I5
sS'meta'
p314
(lp315
(dp316
S'objective'
p317
I349
sS'query_time'
p318
F27.667314052581787
sS'comp_time'
p319
F0.8242239952087402
sS'exec_cq'
p320
I35
sS'total_cq'
p321
I49
sa(dp322
g317
I0
sg318
F0.05809807777404785
sg319
F0.4604611396789551
sg320
I17
sg321
I17
sa(dp323
g317
I1
sg318
F0.03178215026855469
sg319
F0.25690579414367676
sg320
I11
sg321
I11
sa(dp324
g317
I3
sg318
F0.006574869155883789
sg319
F0.1375138759613037
sg320
I4
sg321
I4
sa(dp325
g317
I23
sg318
F0.0018720626831054688
sg319
F0.007734060287475586
sg320
I2
sg321
I2
sasS'total_cqs'
p326
I49
ssI30
(dp327
S'iters'
p328
I1
sS'meta'
p329
(lp330
(dp331
S'objective'
p332
I1
sS'query_time'
p333
F0.7279391288757324
sS'comp_time'
p334
F0.04410099983215332
sS'exec_cq'
p335
I2
sS'total_cq'
p336
I2
sasS'total_cqs'
p337
I2
ssI31
(dp338
S'iters'
p339
I0
sS'meta'
p340
(lp341
sS'total_cqs'
p342
I1
ssI32
(dp343
S'iters'
p344
I1
sS'meta'
p345
(lp346
(dp347
S'objective'
p348
I1
sS'query_time'
p349
F0.010631084442138672
sS'comp_time'
p350
F0.0019338130950927734
sS'exec_cq'
p351
I2
sS'total_cq'
p352
I2
sasS'total_cqs'
p353
I2
ssI33
(dp354
S'iters'
p355
I5
sS'meta'
p356
(lp357
(dp358
S'objective'
p359
I3292
sS'query_time'
p360
F15.381917953491211
sS'comp_time'
p361
F1.3235108852386475
sS'exec_cq'
p362
I103
sS'total_cq'
p363
I103
sa(dp364
g359
I50
sg360
F0.00881505012512207
sg361
F0.029070138931274414
sg362
I16
sg363
I16
sa(dp365
g359
I15
sg360
F0.00403904914855957
sg361
F0.016344070434570312
sg362
I9
sg363
I9
sa(dp366
g359
I3
sg360
F0.0013651847839355469
sg361
F0.008252143859863281
sg362
I5
sg363
I5
sa(dp367
g359
I25
sg360
F0.0002980232238769531
sg361
F0.002199888229370117
sg362
I3
sg363
I3
sasS'total_cqs'
p368
I103
ssI34
(dp369
S'iters'
p370
I1
sS'meta'
p371
(lp372
(dp373
S'objective'
p374
I1
sS'query_time'
p375
F0.013525962829589844
sS'comp_time'
p376
F0.00263214111328125
sS'exec_cq'
p377
I2
sS'total_cq'
p378
I2
sasS'total_cqs'
p379
I2
ssI35
(dp380
S'iters'
p381
I5
sS'meta'
p382
(lp383
(dp384
S'objective'
p385
I1137
sS'query_time'
p386
F21.233638048171997
sS'comp_time'
p387
F0.26426005363464355
sS'exec_cq'
p388
I50
sS'total_cq'
p389
I70
sa(dp390
g385
I46
sg386
F0.14957094192504883
sg387
F0.020555973052978516
sg388
I16
sg389
I16
sa(dp391
g385
I2
sg386
F0.0042879581451416016
sg387
F0.014957189559936523
sg388
I9
sg389
I9
sa(dp392
g385
I1
sg386
F0.0017271041870117188
sg387
F0.007812738418579102
sg388
I4
sg389
I4
sa(dp393
g385
I19
sg386
F0.0007998943328857422
sg387
F0.004498720169067383
sg388
I2
sg389
I2
sasS'total_cqs'
p394
I70
ssI36
(dp395
S'iters'
p396
I1
sS'meta'
p397
(lp398
(dp399
S'objective'
p400
I509
sS'query_time'
p401
F0.6253440380096436
sS'comp_time'
p402
F0.12975621223449707
sS'exec_cq'
p403
I28
sS'total_cq'
p404
I33
sasS'total_cqs'
p405
I33
ssI37
(dp406
S'iters'
p407
I1
sS'meta'
p408
(lp409
(dp410
S'objective'
p411
I1
sS'query_time'
p412
F0.027981042861938477
sS'comp_time'
p413
F0.004370927810668945
sS'exec_cq'
p414
I2
sS'total_cq'
p415
I2
sasS'total_cqs'
p416
I2
ssI38
(dp417
S'iters'
p418
I2
sS'meta'
p419
(lp420
(dp421
S'objective'
p422
I0
sS'query_time'
p423
F0.029063940048217773
sS'comp_time'
p424
F0.0030202865600585938
sS'exec_cq'
p425
I4
sS'total_cq'
p426
I4
sa(dp427
g422
I3
sg423
F8.511543273925781e-05
sg424
F0.00042819976806640625
sg425
I2
sg426
I2
sasS'total_cqs'
p428
I4
ssI39
(dp429
S'iters'
p430
I2
sS'meta'
p431
(lp432
(dp433
S'objective'
p434
I746
sS'query_time'
p435
F0.5801980495452881
sS'comp_time'
p436
F0.14120793342590332
sS'exec_cq'
p437
I44
sS'total_cq'
p438
I44
sa(dp439
g434
I800
sg435
F0.0002980232238769531
sg436
F0.0017309188842773438
sg437
I37
sg438
I37
sasS'total_cqs'
p440
I44
ssI40
(dp441
S'iters'
p442
I1
sS'meta'
p443
(lp444
(dp445
S'objective'
p446
I14
sS'query_time'
p447
F0.13365697860717773
sS'comp_time'
p448
F0.007944107055664062
sS'exec_cq'
p449
I7
sS'total_cq'
p450
I7
sasS'total_cqs'
p451
I7
ssI41
(dp452
S'iters'
p453
I1
sS'meta'
p454
(lp455
(dp456
S'objective'
p457
I58
sS'query_time'
p458
F0.07209897041320801
sS'comp_time'
p459
F0.01677083969116211
sS'exec_cq'
p460
I12
sS'total_cq'
p461
I12
sasS'total_cqs'
p462
I12
ssI42
(dp463
S'iters'
p464
I1
sS'meta'
p465
(lp466
(dp467
S'objective'
p468
I797
sS'query_time'
p469
F0.07932591438293457
sS'comp_time'
p470
F0.15603160858154297
sS'exec_cq'
p471
I21
sS'total_cq'
p472
I41
sasS'total_cqs'
p473
I41
ssI43
(dp474
S'iters'
p475
I1
sS'meta'
p476
(lp477
(dp478
S'objective'
p479
I14
sS'query_time'
p480
F0.031681060791015625
sS'comp_time'
p481
F0.005788087844848633
sS'exec_cq'
p482
I7
sS'total_cq'
p483
I7
sasS'total_cqs'
p484
I7
ssI44
(dp485
S'iters'
p486
I4
sS'meta'
p487
(lp488
(dp489
S'objective'
p490
I686
sS'query_time'
p491
F0.2296750545501709
sS'comp_time'
p492
F0.16797327995300293
sS'exec_cq'
p493
I47
sS'total_cq'
p494
I47
sa(dp495
g490
I793
sg491
F0.00033211708068847656
sg492
F0.0016527175903320312
sg493
I40
sg494
I40
sa(dp496
g490
I23
sg491
F0.001764059066772461
sg492
F0.0017549991607666016
sg493
I3
sg494
I3
sa(dp497
g490
I34
sg491
F0.00011110305786132812
sg492
F0.0006992816925048828
sg493
I2
sg494
I2
sasS'total_cqs'
p498
I47
ssI45
(dp499
S'iters'
p500
I0
sS'meta'
p501
(lp502
sS'total_cqs'
p503
I1
ssI46
(dp504
S'iters'
p505
I1
sS'meta'
p506
(lp507
(dp508
S'objective'
p509
I9
sS'query_time'
p510
F0.018638134002685547
sS'comp_time'
p511
F0.0029213428497314453
sS'exec_cq'
p512
I4
sS'total_cq'
p513
I6
sasS'total_cqs'
p514
I6
ssI47
(dp515
S'iters'
p516
I1
sS'meta'
p517
(lp518
(dp519
S'objective'
p520
I1
sS'query_time'
p521
F0.008594036102294922
sS'comp_time'
p522
F0.0012028217315673828
sS'exec_cq'
p523
I2
sS'total_cq'
p524
I2
sasS'total_cqs'
p525
I2
ssI48
(dp526
S'iters'
p527
I0
sS'meta'
p528
(lp529
sS'total_cqs'
p530
I1
ssI49
(dp531
S'iters'
p532
I0
sS'meta'
p533
(lp534
sS'total_cqs'
p535
I1
ssI50
(dp536
S'iters'
p537
I1
sS'meta'
p538
(lp539
(dp540
S'objective'
p541
I5
sS'query_time'
p542
F0.013669013977050781
sS'comp_time'
p543
F0.0021800994873046875
sS'exec_cq'
p544
I5
sS'total_cq'
p545
I5
sasS'total_cqs'
p546
I5
ssI51
(dp547
S'iters'
p548
I1
sS'meta'
p549
(lp550
(dp551
S'objective'
p552
I1
sS'query_time'
p553
F0.01323699951171875
sS'comp_time'
p554
F0.0014510154724121094
sS'exec_cq'
p555
I2
sS'total_cq'
p556
I2
sasS'total_cqs'
p557
I2
ssI52
(dp558
S'iters'
p559
I1
sS'meta'
p560
(lp561
(dp562
S'objective'
p563
I1
sS'query_time'
p564
F0.012660026550292969
sS'comp_time'
p565
F0.0014972686767578125
sS'exec_cq'
p566
I2
sS'total_cq'
p567
I2
sasS'total_cqs'
p568
I2
ssI53
(dp569
S'iters'
p570
I1
sS'meta'
p571
(lp572
(dp573
S'objective'
p574
I2
sS'query_time'
p575
F0.0228269100189209
sS'comp_time'
p576
F0.0027761459350585938
sS'exec_cq'
p577
I4
sS'total_cq'
p578
I4
sasS'total_cqs'
p579
I4
ssI54
(dp580
S'iters'
p581
I2
sS'meta'
p582
(lp583
(dp584
S'objective'
p585
I0
sS'query_time'
p586
F0.011884927749633789
sS'comp_time'
p587
F0.001928091049194336
sS'exec_cq'
p588
I3
sS'total_cq'
p589
I3
sa(dp590
g585
I1
sg586
F5.1975250244140625e-05
sg587
F0.0002868175506591797
sg588
I2
sg589
I2
sasS'total_cqs'
p591
I3
ssI55
(dp592
S'iters'
p593
I6
sS'meta'
p594
(lp595
(dp596
S'objective'
p597
I4785
sS'query_time'
p598
F2.67556095123291
sS'comp_time'
p599
F0.5626978874206543
sS'exec_cq'
p600
I109
sS'total_cq'
p601
I109
sa(dp602
g597
I4704
sg598
F0.001168966293334961
sg599
F0.02537679672241211
sg600
I97
sg601
I97
sa(dp603
g597
I4565
sg598
F0.0004918575286865234
sg599
F0.005511045455932617
sg600
I91
sg601
I91
sa(dp604
g597
I4560
sg598
F0.00044989585876464844
sg599
F0.0028219223022460938
sg600
I87
sg601
I87
sa(dp605
g597
I4465
sg598
F0.0003910064697265625
sg599
F0.0015609264373779297
sg600
I85
sg601
I85
sa(dp606
g597
I4408
sg598
F0.0003581047058105469
sg599
F0.0013599395751953125
sg600
I83
sg601
I83
sasS'total_cqs'
p607
I109
ssI56
(dp608
S'iters'
p609
I5
sS'meta'
p610
(lp611
(dp612
S'objective'
p613
I1722
sS'query_time'
p614
F1.540006160736084
sS'comp_time'
p615
F0.283613920211792
sS'exec_cq'
p616
I67
sS'total_cq'
p617
I76
sa(dp618
g613
I4
sg614
F0.0073969364166259766
sg615
F0.019050121307373047
sg616
I16
sg617
I16
sa(dp619
g613
I15
sg614
F0.005569934844970703
sg615
F0.010310173034667969
sg616
I11
sg617
I11
sa(dp620
g613
I17
sg614
F0.0023429393768310547
sg615
F0.007029056549072266
sg616
I5
sg617
I5
sa(dp621
g613
I29
sg614
F0.0008440017700195312
sg615
F0.004111289978027344
sg616
I3
sg617
I3
sasS'total_cqs'
p622
I76
ssI57
(dp623
S'iters'
p624
I5
sS'meta'
p625
(lp626
(dp627
S'objective'
p628
I68
sS'query_time'
p629
F23.164647817611694
sS'comp_time'
p630
F0.39456701278686523
sS'exec_cq'
p631
I45
sS'total_cq'
p632
I51
sa(dp633
g628
I25
sg629
F0.014584064483642578
sg630
F0.03342103958129883
sg631
I27
sg632
I27
sa(dp634
g628
I0
sg629
F0.013447999954223633
sg630
F0.03327441215515137
sg631
I12
sg632
I12
sa(dp635
g628
I15
sg629
F0.004906892776489258
sg630
F0.11238598823547363
sg631
I6
sg632
I6
sa(dp636
g628
I3
sg629
F0.0010950565338134766
sg630
F0.003743886947631836
sg631
I2
sg632
I2
sasS'total_cqs'
p637
I51
ssI58
(dp638
S'iters'
p639
I7
sS'meta'
p640
(lp641
(dp642
S'objective'
p643
I81001
sS'query_time'
p644
F113.97091698646545
sS'comp_time'
p645
F15.164015054702759
sS'exec_cq'
p646
I348
sS'total_cq'
p647
I486
sa(dp648
g643
I83527
sg644
F0.04343390464782715
sg645
F1.7035713195800781
sg646
I276
sg647
I414
sa(dp649
g643
I52
sg644
F0.018952131271362305
sg645
F0.10236024856567383
sg646
I28
sg647
I28
sa(dp650
g643
I12
sg644
F0.00999307632446289
sg645
F0.02196812629699707
sg646
I12
sg647
I12
sa(dp651
g643
I47
sg644
F0.004704952239990234
sg645
F0.014893054962158203
sg646
I6
sg647
I6
sa(dp652
g643
I198
sg644
F0.0006918907165527344
sg645
F0.003197193145751953
sg646
I3
sg647
I3
sa(dp653
g643
I142
sg644
F0.00039005279541015625
sg645
F0.002604246139526367
sg646
I2
sg647
I2
sasS'total_cqs'
p654
I486
ssI59
(dp655
S'iters'
p656
I2
sS'meta'
p657
(lp658
(dp659
S'objective'
p660
I2
sS'query_time'
p661
F0.22093892097473145
sS'comp_time'
p662
F0.01960921287536621
sS'exec_cq'
p663
I7
sS'total_cq'
p664
I7
sa(dp665
g660
I1
sg661
F0.00018095970153808594
sg662
F0.0012018680572509766
sg663
I2
sg664
I2
sasS'total_cqs'
p666
I7
ssI60
(dp667
S'iters'
p668
I1
sS'meta'
p669
(lp670
(dp671
S'objective'
p672
I5
sS'query_time'
p673
F0.01656794548034668
sS'comp_time'
p674
F0.003373861312866211
sS'exec_cq'
p675
I3
sS'total_cq'
p676
I5
sasS'total_cqs'
p677
I5
ssI61
(dp678
S'iters'
p679
I0
sS'meta'
p680
(lp681
sS'total_cqs'
p682
I1
ssI62
(dp683
S'iters'
p684
I2
sS'meta'
p685
(lp686
(dp687
S'objective'
p688
I34
sS'query_time'
p689
F0.031203031539916992
sS'comp_time'
p690
F0.017015457153320312
sS'exec_cq'
p691
I12
sS'total_cq'
p692
I12
sa(dp693
g688
I36
sg689
F4.601478576660156e-05
sg690
F0.0001614093780517578
sg691
I9
sg692
I9
sasS'total_cqs'
p694
I12
ssI63
(dp695
S'iters'
p696
I0
sS'meta'
p697
(lp698
sS'total_cqs'
p699
I1
ssI64
(dp700
S'iters'
p701
I3
sS'meta'
p702
(lp703
(dp704
S'objective'
p705
I26
sS'query_time'
p706
F0.22478199005126953
sS'comp_time'
p707
F0.02091073989868164
sS'exec_cq'
p708
I12
sS'total_cq'
p709
I12
sa(dp710
g705
I4
sg706
F0.00011086463928222656
sg707
F0.0006663799285888672
sg708
I4
sg709
I4
sa(dp711
g705
I9
sg706
F4.9114227294921875e-05
sg707
F0.0002510547637939453
sg708
I2
sg709
I2
sasS'total_cqs'
p712
I12
ssI65
(dp713
S'iters'
p714
I3
sS'meta'
p715
(lp716
(dp717
S'objective'
p718
I182
sS'query_time'
p719
F0.8206260204315186
sS'comp_time'
p720
F0.2966756820678711
sS'exec_cq'
p721
I27
sS'total_cq'
p722
I27
sa(dp723
g718
I4
sg719
F0.00131988525390625
sg720
F0.0055599212646484375
sg721
I7
sg722
I7
sa(dp724
g718
I3
sg719
F0.00016307830810546875
sg720
F0.000978708267211914
sg721
I3
sg722
I3
sasS'total_cqs'
p725
I27
ssI66
(dp726
S'iters'
p727
I0
sS'meta'
p728
(lp729
sS'total_cqs'
p730
I1
ssI67
(dp731
S'iters'
p732
I2
sS'meta'
p733
(lp734
(dp735
S'objective'
p736
I564
sS'query_time'
p737
F1.1898910999298096
sS'comp_time'
p738
F0.1484060287475586
sS'exec_cq'
p739
I35
sS'total_cq'
p740
I35
sa(dp741
g736
I23
sg737
F0.002421855926513672
sg738
F0.013057947158813477
sg739
I2
sg740
I2
sasS'total_cqs'
p742
I35
ssI68
(dp743
S'iters'
p744
I0
sS'meta'
p745
(lp746
sS'total_cqs'
p747
I1
ssI69
(dp748
S'iters'
p749
I1
sS'meta'
p750
(lp751
(dp752
S'objective'
p753
I1246
sS'query_time'
p754
F0.1619260311126709
sS'comp_time'
p755
F0.13727879524230957
sS'exec_cq'
p756
I51
sS'total_cq'
p757
I51
sasS'total_cqs'
p758
I51
ssI70
(dp759
S'iters'
p760
I1
sS'meta'
p761
(lp762
(dp763
S'objective'
p764
I9
sS'query_time'
p765
F0.018365859985351562
sS'comp_time'
p766
F0.003525972366333008
sS'exec_cq'
p767
I6
sS'total_cq'
p768
I6
sasS'total_cqs'
p769
I6
ssI71
(dp770
S'iters'
p771
I4
sS'meta'
p772
(lp773
(dp774
S'objective'
p775
I3087
sS'query_time'
p776
F0.3045480251312256
sS'comp_time'
p777
F0.4197518825531006
sS'exec_cq'
p778
I73
sS'total_cq'
p779
I85
sa(dp780
g775
I2961
sg776
F0.00029087066650390625
sg777
F0.0011968612670898438
sg778
I69
sg779
I81
sa(dp781
g775
I2832
sg776
F0.00022101402282714844
sg777
F0.00098419189453125
sg778
I65
sg779
I77
sa(dp782
g775
I37
sg776
F0.002546072006225586
sg777
F0.0030188560485839844
sg778
I3
sg779
I3
sasS'total_cqs'
p783
I85
ssI72
(dp784
S'iters'
p785
I3
sS'meta'
p786
(lp787
(dp788
S'objective'
p789
I6
sS'query_time'
p790
F0.26477909088134766
sS'comp_time'
p791
F0.006340980529785156
sS'exec_cq'
p792
I4
sS'total_cq'
p793
I8
sa(dp794
g789
I3
sg790
F0.02754497528076172
sg791
F0.0003345012664794922
sg792
I4
sg793
I5
sa(dp795
g789
I2
sg790
F1.7881393432617188e-05
sg791
F9.107589721679688e-05
sg792
I2
sg793
I3
sasS'total_cqs'
p796
I8
ssI73
(dp797
S'iters'
p798
I0
sS'meta'
p799
(lp800
sS'total_cqs'
p801
I1
ssI74
(dp802
S'iters'
p803
I0
sS'meta'
p804
(lp805
sS'total_cqs'
p806
I1
ssI75
(dp807
S'iters'
p808
I1
sS'meta'
p809
(lp810
(dp811
S'objective'
p812
I5
sS'query_time'
p813
F0.15191984176635742
sS'comp_time'
p814
F0.002317190170288086
sS'exec_cq'
p815
I5
sS'total_cq'
p816
I5
sasS'total_cqs'
p817
I5
ssI76
(dp818
S'iters'
p819
I1
sS'meta'
p820
(lp821
(dp822
S'objective'
p823
I1
sS'query_time'
p824
F0.01306605339050293
sS'comp_time'
p825
F0.0011754035949707031
sS'exec_cq'
p826
I2
sS'total_cq'
p827
I2
sasS'total_cqs'
p828
I2
ssI77
(dp829
S'iters'
p830
I0
sS'meta'
p831
(lp832
sS'total_cqs'
p833
I1
ssI78
(dp834
S'iters'
p835
I0
sS'meta'
p836
(lp837
sS'total_cqs'
p838
I1
ssI103
(dp839
S'iters'
p840
I1
sS'meta'
p841
(lp842
(dp843
S'objective'
p844
I58
sS'query_time'
p845
F0.05560493469238281
sS'comp_time'
p846
F0.016089200973510742
sS'exec_cq'
p847
I12
sS'total_cq'
p848
I12
sasS'total_cqs'
p849
I12
ssI104
(dp850
S'iters'
p851
I2
sS'meta'
p852
(lp853
(dp854
S'objective'
p855
I0
sS'query_time'
p856
F1.3713979721069336
sS'comp_time'
p857
F0.08105182647705078
sS'exec_cq'
p858
I4
sS'total_cq'
p859
I4
sa(dp860
g855
I3
sg856
F0.012456893920898438
sg857
F0.07541918754577637
sg858
I2
sg859
I2
sasS'total_cqs'
p861
I4
ssI105
(dp862
S'iters'
p863
I0
sS'meta'
p864
(lp865
sS'total_cqs'
p866
I1
ssI106
(dp867
S'iters'
p868
I1
sS'meta'
p869
(lp870
(dp871
S'objective'
p872
I2
sS'query_time'
p873
F0.021275997161865234
sS'comp_time'
p874
F0.0018608570098876953
sS'exec_cq'
p875
I4
sS'total_cq'
p876
I4
sasS'total_cqs'
p877
I4
ssI107
(dp878
S'iters'
p879
I2
sS'meta'
p880
(lp881
(dp882
S'objective'
p883
I96
sS'query_time'
p884
F0.07640790939331055
sS'comp_time'
p885
F0.018490076065063477
sS'exec_cq'
p886
I16
sS'total_cq'
p887
I16
sa(dp888
g883
I6
sg884
F0.004019021987915039
sg885
F0.0004069805145263672
sg886
I3
sg887
I3
sasS'total_cqs'
p889
I16
ssI108
(dp890
S'iters'
p891
I0
sS'meta'
p892
(lp893
sS'total_cqs'
p894
I1
ss.