(dp0
I1
(dp1
S'iters'
p2
I3
sS'meta'
p3
(lp4
(dp5
S'objective'
p6
I8
sS'query_time'
p7
F0.0013148784637451172
sS'total_cq'
p8
I12
sS'comp_time'
p9
F0.0003769397735595703
sa(dp10
g6
I8
sg7
F0.0012269020080566406
sg8
I10
sg9
F0.0001251697540283203
sa(dp11
g6
I7
sg7
F0.0014560222625732422
sg8
I9
sg9
F0.00014209747314453125
sasS'total_cqs'
p12
I12
ssI2
(dp13
g2
I7
sg3
(lp14
(dp15
g6
I19
sg7
F0.06460714340209961
sg8
I27
sg9
F0.0016939640045166016
sa(dp16
g6
I17
sg7
F0.0322420597076416
sg8
I23
sg9
F0.0021209716796875
sa(dp17
g6
I16
sg7
F0.001219034194946289
sg8
I20
sg9
F0.0017247200012207031
sa(dp18
g6
I16
sg7
F0.0013980865478515625
sg8
I18
sg9
F0.0004601478576660156
sa(dp19
g6
I15
sg7
F0.0014240741729736328
sg8
I17
sg9
F0.00014209747314453125
sa(dp20
g6
I12
sg7
F0.001203775405883789
sg8
I16
sg9
F0.0003681182861328125
sa(dp21
g6
I12
sg7
F0.0012488365173339844
sg8
I14
sg9
F0.00014472007751464844
sasg12
I27
ssI3
(dp22
g2
I4
sg3
(lp23
(dp24
g6
I27
sg7
F202.6793248653412
sg8
I43
sg9
F0.08582019805908203
sa(dp25
g6
I21
sg7
F226.43326711654663
sg8
I35
sg9
F5.426086902618408
sa(dp26
g6
I12
sg7
F121.47250485420227
sg8
I28
sg9
F1.5373528003692627
sa(dp27
g6
I18
sg7
F10.77052092552185
sg8
I20
sg9
F0.00015401840209960938
sasg12
I43
ssI4
(dp28
g2
I2
sg3
(lp29
(dp30
g6
I7
sg7
F0.23028302192687988
sg8
I11
sg9
F1.437859058380127
sa(dp31
g6
I0
sg7
F0.22021102905273438
sg8
I2
sg9
F1.2941467761993408
sasg12
I11
ssI5
(dp32
g2
I3
sg3
(lp33
(dp34
g6
I0
sg7
F25.22638702392578
sg8
I8
sg9
F6.646147966384888
sa(dp35
g6
I0
sg7
F0.016399860382080078
sg8
I4
sg9
F0.43668389320373535
sa(dp36
g6
I0
sg7
F0.007922172546386719
sg8
I2
sg9
F0.049925804138183594
sasg12
I8
ssI6
(dp37
g2
I4
sg3
(lp38
(dp39
g6
I4
sg7
F28.874876976013184
sg8
I18
sg9
F6.972443103790283
sa(dp40
g6
I1
sg7
F1.015516996383667
sg8
I7
sg9
F6.710305213928223
sa(dp41
g6
I0
sg7
F0.0329439640045166
sg8
I4
sg9
F0.23294711112976074
sa(dp42
g6
I0
sg7
F0.01930999755859375
sg8
I2
sg9
F0.13186407089233398
sasg12
I18
ssI7
(dp43
g2
I3
sg3
(lp44
(dp45
g6
I1
sg7
F8.860298871994019
sg8
I9
sg9
F3.357167959213257
sa(dp46
g6
I1
sg7
F0.021146774291992188
sg8
I5
sg9
F0.39565086364746094
sa(dp47
g6
I0
sg7
F0.008808135986328125
sg8
I2
sg9
F0.2985978126525879
sasg12
I9
ssI8
(dp48
g2
I4
sg3
(lp49
(dp50
g6
I21
sg7
F0.06441497802734375
sg8
I27
sg9
F0.0017490386962890625
sa(dp51
g6
I14
sg7
F0.03369021415710449
sg8
I24
sg9
F0.0024137496948242188
sa(dp52
g6
I17
sg7
F0.0004909038543701172
sg8
I19
sg9
F0.00019884109497070312
sa(dp53
g6
I16
sg7
F0.0013310909271240234
sg8
I18
sg9
F0.00015616416931152344
sasg12
I27
ssI9
(dp54
g2
I3
sg3
(lp55
(dp56
g6
I1
sg7
F0.03188610076904297
sg8
I7
sg9
F0.0003840923309326172
sa(dp57
g6
I0
sg7
F0.0011639595031738281
sg8
I4
sg9
F0.00012111663818359375
sa(dp58
g6
I0
sg7
F0.0014159679412841797
sg8
I2
sg9
F0.00011706352233886719
sasg12
I7
ssI10
(dp59
g2
I6
sg3
(lp60
(dp61
g6
I27
sg7
F0.0016222000122070312
sg8
I51
sg9
F0.0026998519897460938
sa(dp62
g6
I11
sg7
F0.007821083068847656
sg8
I39
sg9
F0.007833003997802734
sa(dp63
g6
I17
sg7
F0.001352071762084961
sg8
I25
sg9
F0.0022678375244140625
sa(dp64
g6
I15
sg7
F0.0014948844909667969
sg8
I21
sg9
F0.00036907196044921875
sa(dp65
g6
I1
sg7
F0.0014529228210449219
sg8
I3
sg9
F0.00022864341735839844
sa(dp66
g6
I0
sg7
F0.001210927963256836
sg8
I2
sg9
F0.0001308917999267578
sasg12
I51
ssI11
(dp67
g2
I5
sg3
(lp68
(dp69
g6
I31
sg7
F0.3154170513153076
sg8
I63
sg9
F0.07452011108398438
sa(dp70
g6
I29
sg7
F0.0020780563354492188
sg8
I47
sg9
F0.019544363021850586
sa(dp71
g6
I1
sg7
F0.001528024673461914
sg8
I9
sg9
F0.0028138160705566406
sa(dp72
g6
I0
sg7
F0.0014390945434570312
sg8
I4
sg9
F0.0005650520324707031
sa(dp73
g6
I0
sg7
F0.0013659000396728516
sg8
I2
sg9
F0.00024509429931640625
sasg12
I63
ssI12
(dp74
g2
I5
sg3
(lp75
(dp76
g6
I16
sg7
F0.0076868534088134766
sg8
I50
sg9
F0.002830982208251953
sa(dp77
g6
I17
sg7
F0.0014309883117675781
sg8
I33
sg9
F0.007097005844116211
sa(dp78
g6
I0
sg7
F0.0011818408966064453
sg8
I8
sg9
F0.002699136734008789
sa(dp79
g6
I0
sg7
F0.001322031021118164
sg8
I4
sg9
F0.0026960372924804688
sa(dp80
g6
I0
sg7
F0.0013041496276855469
sg8
I2
sg9
F0.0002510547637939453
sasg12
I50
ssI13
(dp81
g2
I3
sg3
(lp82
(dp83
g6
I2
sg7
F0.06419897079467773
sg8
I20
sg9
F0.0009310245513916016
sa(dp84
g6
I5
sg7
F0.001344919204711914
sg8
I9
sg9
F0.00011968612670898438
sa(dp85
g6
I0
sg7
F0.0012590885162353516
sg8
I2
sg9
F0.0001289844512939453
sasg12
I20
ssI14
(dp86
g2
I3
sg3
(lp87
(dp88
g6
I1
sg7
F24.268388986587524
sg8
I9
sg9
F3.578512191772461
sa(dp89
g6
I1
sg7
F0.016510009765625
sg8
I5
sg9
F0.40644216537475586
sa(dp90
g6
I0
sg7
F0.010426044464111328
sg8
I2
sg9
F0.08181595802307129
sasg12
I9
ssI15
(dp91
g2
I3
sg3
(lp92
(dp93
g6
I1
sg7
F2.341438055038452
sg8
I11
sg9
F0.8156588077545166
sa(dp94
g6
I2
sg7
F0.0013580322265625
sg8
I6
sg9
F0.007380962371826172
sa(dp95
g6
I0
sg7
F0.0015330314636230469
sg8
I2
sg9
F0.005458831787109375
sasg12
I11
ssI16
(dp96
g2
I1
sg3
(lp97
(dp98
g6
I6
sg7
F0.016131162643432617
sg8
I8
sg9
F0.00019121170043945312
sasg12
I8
ssI17
(dp99
g2
I3
sg3
(lp100
(dp101
g6
I1
sg7
F0.6196451187133789
sg8
I11
sg9
F0.29512906074523926
sa(dp102
g6
I2
sg7
F0.0012078285217285156
sg8
I6
sg9
F0.0030770301818847656
sa(dp103
g6
I0
sg7
F0.001310110092163086
sg8
I2
sg9
F0.0033180713653564453
sasg12
I11
ssI18
(dp104
g2
I4
sg3
(lp105
(dp106
g6
I9
sg7
F0.11560893058776855
sg8
I11
sg9
F0.0017600059509277344
sa(dp107
g6
I4
sg7
F0.007699012756347656
sg8
I10
sg9
F0.014171838760375977
sa(dp108
g6
I5
sg7
F0.06567192077636719
sg8
I7
sg9
F0.005789041519165039
sa(dp109
g6
I4
sg7
F0.0012559890747070312
sg8
I6
sg9
F0.00029206275939941406
sasg12
I11
ssI19
(dp110
g2
I0
sg3
(lp111
sg12
I1
ssI20
(dp112
g2
I0
sg3
(lp113
sg12
I1
ssI21
(dp114
g2
I0
sg3
(lp115
sg12
I1
ssI22
(dp116
g2
I1
sg3
(lp117
(dp118
g6
I16
sg7
F0.032293081283569336
sg8
I18
sg9
F0.0004951953887939453
sasg12
I18
ssI23
(dp119
g2
I2
sg3
(lp120
(dp121
g6
I14
sg7
F0.03261613845825195
sg8
I16
sg9
F0.0018010139465332031
sa(dp122
g6
I13
sg7
F0.0014979839324951172
sg8
I15
sg9
F0.00020384788513183594
sasg12
I16
ssI24
(dp123
g2
I0
sg3
(lp124
sg12
I1
ssI25
(dp125
g2
I0
sg3
(lp126
sg12
I1
ssI26
(dp127
g2
I1
sg3
(lp128
(dp129
g6
I40
sg7
F0.0643150806427002
sg8
I42
sg9
F0.00022721290588378906
sasg12
I42
ssI27
(dp130
g2
I3
sg3
(lp131
(dp132
g6
I20
sg7
F12.025050163269043
sg8
I30
sg9
F8.32676100730896
sa(dp133
g6
I1
sg7
F0.8927159309387207
sg8
I5
sg9
F6.290072679519653
sa(dp134
g6
I0
sg7
F0.5040810108184814
sg8
I2
sg9
F1.7776727676391602
sasg12
I30
ssI28
(dp135
g2
I0
sg3
(lp136
sg12
I1
ssI29
(dp137
g2
I6
sg3
(lp138
(dp139
g6
I15
sg7
F17.592770099639893
sg8
I49
sg9
F1.4193379878997803
sa(dp140
g6
I1
sg7
F0.32880091667175293
sg8
I17
sg9
F1.0382213592529297
sa(dp141
g6
I1
sg7
F0.3530409336090088
sg8
I9
sg9
F0.943483829498291
sa(dp142
g6
I1
sg7
F0.0077800750732421875
sg8
I5
sg9
F0.06809687614440918
sa(dp143
g6
I1
sg7
F0.2822878360748291
sg8
I3
sg9
F0.05021190643310547
sa(dp144
g6
I0
sg7
F0.003422975540161133
sg8
I2
sg9
F0.020266056060791016
sasg12
I49
ssI30
(dp145
g2
I1
sg3
(lp146
(dp147
g6
I0
sg7
F0.41561293601989746
sg8
I2
sg9
F0.05527782440185547
sasg12
I2
ssI31
(dp148
g2
I0
sg3
(lp149
sg12
I1
ssI32
(dp150
g2
I1
sg3
(lp151
(dp152
g6
I0
sg7
F0.0013031959533691406
sg8
I2
sg9
F0.0005369186401367188
sasg12
I2
ssI33
(dp153
g2
I5
sg3
(lp154
(dp155
g6
I71
sg7
F10.16480302810669
sg8
I103
sg9
F1.071768045425415
sa(dp156
g6
I0
sg7
F0.008455991744995117
sg8
I16
sg9
F0.34595584869384766
sa(dp157
g6
I0
sg7
F0.003787994384765625
sg8
I8
sg9
F0.03395390510559082
sa(dp158
g6
I0
sg7
F0.001486063003540039
sg8
I4
sg9
F0.017183780670166016
sa(dp159
g6
I0
sg7
F0.0013461112976074219
sg8
I2
sg9
F0.005916118621826172
sasg12
I103
ssI34
(dp160
g2
I1
sg3
(lp161
(dp162
g6
I0
sg7
F0.016241073608398438
sg8
I2
sg9
F0.001573801040649414
sasg12
I2
ssI35
(dp163
g2
I5
sg3
(lp164
(dp165
g6
I54
sg7
F250.03372502326965
sg8
I70
sg9
F81.90481281280518
sa(dp166
g6
I30
sg7
F14.729075908660889
sg8
I62
sg9
F0.1006479263305664
sa(dp167
g6
I2
sg7
F0.004161834716796875
sg8
I16
sg9
F0.04015398025512695
sa(dp168
g6
I1
sg7
F0.003920793533325195
sg8
I7
sg9
F0.01972484588623047
sa(dp169
g6
I1
sg7
F0.0011861324310302734
sg8
I3
sg9
F0.008135080337524414
sasg12
I70
ssI36
(dp170
g2
I2
sg3
(lp171
(dp172
g6
I25
sg7
F0.9317629337310791
sg8
I33
sg9
F0.029170989990234375
sa(dp173
g6
I27
sg7
F0.0049440860748291016
sg8
I29
sg9
F0.005594015121459961
sasg12
I33
ssI37
(dp174
g2
I1
sg3
(lp175
(dp176
g6
I0
sg7
F0.007688045501708984
sg8
I2
sg9
F0.0006570816040039062
sasg12
I2
ssI38
(dp177
g2
I2
sg3
(lp178
(dp179
g6
I0
sg7
F0.032145023345947266
sg8
I4
sg9
F0.0014252662658691406
sa(dp180
g6
I0
sg7
F0.0012631416320800781
sg8
I2
sg9
F0.001508951187133789
sasg12
I4
ssI39
(dp181
g2
I2
sg3
(lp182
(dp183
g6
I30
sg7
F0.11458897590637207
sg8
I44
sg9
F0.013139963150024414
sa(dp184
g6
I35
sg7
F0.0011920928955078125
sg8
I37
sg9
F0.006272077560424805
sasg12
I44
ssI40
(dp185
g2
I1
sg3
(lp186
(dp187
g6
I5
sg7
F0.0321202278137207
sg8
I7
sg9
F0.00026607513427734375
sasg12
I7
ssI41
(dp188
g2
I1
sg3
(lp189
(dp190
g6
I10
sg7
F0.06437206268310547
sg8
I12
sg9
F0.0002949237823486328
sasg12
I12
ssI42
(dp191
g2
I2
sg3
(lp192
(dp193
g6
I39
sg7
F0.032034873962402344
sg8
I41
sg9
F0.0003077983856201172
sa(dp194
g6
I38
sg7
F0.0012440681457519531
sg8
I40
sg9
F0.0001900196075439453
sasg12
I41
ssI43
(dp195
g2
I1
sg3
(lp196
(dp197
g6
I5
sg7
F0.01565098762512207
sg8
I7
sg9
F0.0001399517059326172
sasg12
I7
ssI44
(dp198
g2
I4
sg3
(lp199
(dp200
g6
I33
sg7
F0.1148381233215332
sg8
I47
sg9
F0.008470773696899414
sa(dp201
g6
I34
sg7
F0.0012698173522949219
sg8
I40
sg9
F0.004438161849975586
sa(dp202
g6
I1
sg7
F0.0013260841369628906
sg8
I3
sg9
F0.0013451576232910156
sa(dp203
g6
I0
sg7
F0.0014219284057617188
sg8
I2
sg9
F0.000186920166015625
sasg12
I47
ssI45
(dp204
g2
I0
sg3
(lp205
sg12
I1
ssI46
(dp206
g2
I2
sg3
(lp207
(dp208
g6
I4
sg7
F0.003567218780517578
sg8
I6
sg9
F0.0006589889526367188
sa(dp209
g6
I3
sg7
F0.004761695861816406
sg8
I5
sg9
F0.00038504600524902344
sasg12
I6
ssI47
(dp210
g2
I1
sg3
(lp211
(dp212
g6
I0
sg7
F0.0012631416320800781
sg8
I2
sg9
F0.0005598068237304688
sasg12
I2
ssI48
(dp213
g2
I0
sg3
(lp214
sg12
I1
ssI49
(dp215
g2
I0
sg3
(lp216
sg12
I1
ssI50
(dp217
g2
I3
sg3
(lp218
(dp219
g6
I3
sg7
F0.007775068283081055
sg8
I5
sg9
F0.0003082752227783203
sa(dp220
g6
I2
sg7
F0.0012760162353515625
sg8
I4
sg9
F0.00022530555725097656
sa(dp221
g6
I1
sg7
F0.0012180805206298828
sg8
I3
sg9
F0.0001881122589111328
sasg12
I5
ssI51
(dp222
g2
I1
sg3
(lp223
(dp224
g6
I0
sg7
F0.009256839752197266
sg8
I2
sg9
F0.0003819465637207031
sasg12
I2
ssI52
(dp225
g2
I1
sg3
(lp226
(dp227
g6
I0
sg7
F0.00039505958557128906
sg8
I2
sg9
F0.0005180835723876953
sasg12
I2
ssI53
(dp228
g2
I2
sg3
(lp229
(dp230
g6
I0
sg7
F0.03236889839172363
sg8
I4
sg9
F0.0023941993713378906
sa(dp231
g6
I0
sg7
F0.0012860298156738281
sg8
I2
sg9
F0.0021991729736328125
sasg12
I4
ssI54
(dp232
g2
I1
sg3
(lp233
(dp234
g6
I1
sg7
F0.007847070693969727
sg8
I3
sg9
F0.0006449222564697266
sasg12
I3
ssI55
(dp235
g2
I7
sg3
(lp236
(dp237
g6
I85
sg7
F1.6701359748840332
sg8
I109
sg9
F0.2770118713378906
sa(dp238
g6
I85
sg7
F0.0016968250274658203
sg8
I97
sg9
F0.011403322219848633
sa(dp239
g6
I83
sg7
F0.0013349056243896484
sg8
I91
sg9
F0.007239103317260742
sa(dp240
g6
I83
sg7
F0.0015609264373779297
sg8
I87
sg9
F0.006381034851074219
sa(dp241
g6
I81
sg7
F0.0013120174407958984
sg8
I85
sg9
F0.005696773529052734
sa(dp242
g6
I79
sg7
F0.0015180110931396484
sg8
I83
sg9
F0.0051991939544677734
sa(dp243
g6
I79
sg7
F0.0013151168823242188
sg8
I81
sg9
F0.004248857498168945
sasg12
I109
ssI56
(dp244
g2
I5
sg3
(lp245
(dp246
g6
I44
sg7
F1.1197788715362549
sg8
I76
sg9
F0.08891963958740234
sa(dp247
g6
I0
sg7
F0.008162975311279297
sg8
I16
sg9
F0.04135012626647949
sa(dp248
g6
I0
sg7
F0.003557920455932617
sg8
I8
sg9
F0.02617621421813965
sa(dp249
g6
I0
sg7
F0.0012869834899902344
sg8
I4
sg9
F0.003777027130126953
sa(dp250
g6
I0
sg7
F0.0015189647674560547
sg8
I2
sg9
F0.0024280548095703125
sasg12
I76
ssI57
(dp251
g2
I5
sg3
(lp252
(dp253
g6
I3
sg7
F18.99393892288208
sg8
I51
sg9
F0.17458701133728027
sa(dp254
g6
I1
sg7
F0.0158541202545166
sg8
I27
sg9
F0.1244809627532959
sa(dp255
g6
I1
sg7
F0.003512144088745117
sg8
I13
sg9
F0.02398514747619629
sa(dp256
g6
I0
sg7
F0.0035948753356933594
sg8
I6
sg9
F0.015759944915771484
sa(dp257
g6
I1
sg7
F0.0014901161193847656
sg8
I3
sg9
F0.003565073013305664
sasg12
I51
ssI58
(dp258
g2
I26
sg3
(lp259
(dp260
g6
I438
sg7
F404.06336784362793
sg8
I486
sg9
F365.32078528404236
sa(dp261
g6
I430
sg7
F6.225629806518555
sg8
I462
sg9
F222.20059776306152
sa(dp262
g6
I434
sg7
F5.567820072174072
sg8
I446
sg9
F131.32526564598083
sa(dp263
g6
I432
sg7
F3.626614809036255
sg8
I440
sg9
F122.29050016403198
sa(dp264
g6
I428
sg7
F0.37700581550598145
sg8
I436
sg9
F36.84346675872803
sa(dp265
g6
I424
sg7
F1.6374740600585938
sg8
I432
sg9
F9.18588638305664
sa(dp266
g6
I420
sg7
F1.4710330963134766
sg8
I428
sg9
F8.734539031982422
sa(dp267
g6
I418
sg7
F0.022408008575439453
sg8
I424
sg9
F1.2372782230377197
sa(dp268
g6
I415
sg7
F0.019375085830688477
sg8
I421
sg9
F2.5954763889312744
sa(dp269
g6
I412
sg7
F0.017605066299438477
sg8
I418
sg9
F1.177081823348999
sa(dp270
g6
I411
sg7
F0.01631021499633789
sg8
I415
sg9
F1.1945562362670898
sa(dp271
g6
I409
sg7
F0.01627516746520996
sg8
I413
sg9
F1.156404972076416
sa(dp272
g6
I409
sg7
F0.008992195129394531
sg8
I411
sg9
F1.1444339752197266
sa(dp273
g6
I408
sg7
F0.008921146392822266
sg8
I410
sg9
F0.3269171714782715
sa(dp274
g6
I407
sg7
F0.0011458396911621094
sg8
I409
sg9
F0.07142877578735352
sa(dp275
g6
I406
sg7
F0.0012140274047851562
sg8
I408
sg9
F0.05750083923339844
sa(dp276
g6
I405
sg7
F0.0013649463653564453
sg8
I407
sg9
F0.05362105369567871
sa(dp277
g6
I404
sg7
F0.0018680095672607422
sg8
I406
sg9
F0.0021910667419433594
sa(dp278
g6
I403
sg7
F0.0014650821685791016
sg8
I405
sg9
F0.0009777545928955078
sa(dp279
g6
I260
sg7
F104.2896158695221
sg8
I404
sg9
F4.757578134536743
sa(dp280
g6
I276
sg7
F0.04521632194519043
sg8
I332
sg9
F1.5292882919311523
sa(dp281
g6
I0
sg7
F0.01797795295715332
sg8
I28
sg9
F0.12445521354675293
sa(dp282
g6
I0
sg7
F0.009207963943481445
sg8
I14
sg9
F0.05631899833679199
sa(dp283
g6
I1
sg7
F0.00775599479675293
sg8
I7
sg9
F0.04191088676452637
sa(dp284
g6
I0
sg7
F0.001363992691040039
sg8
I4
sg9
F0.007823944091796875
sa(dp285
g6
I0
sg7
F0.0014371871948242188
sg8
I2
sg9
F0.003941059112548828
sasg12
I486
ssI59
(dp286
g2
I2
sg3
(lp287
(dp288
g6
I3
sg7
F0.06438612937927246
sg8
I7
sg9
F0.002268075942993164
sa(dp289
g6
I0
sg7
F0.0015230178833007812
sg8
I2
sg9
F0.0019919872283935547
sasg12
I7
ssI60
(dp290
g2
I4
sg3
(lp291
(dp292
g6
I3
sg7
F0.0073430538177490234
sg8
I5
sg9
F0.00016117095947265625
sa(dp293
g6
I2
sg7
F0.0033850669860839844
sg8
I4
sg9
F0.0008831024169921875
sa(dp294
g6
I1
sg7
F0.0012249946594238281
sg8
I3
sg9
F0.0007951259613037109
sa(dp295
g6
I0
sg7
F0.0014348030090332031
sg8
I2
sg9
F0.00010418891906738281
sasg12
I5
ssI61
(dp296
g2
I0
sg3
(lp297
sg12
I1
ssI62
(dp298
g2
I2
sg3
(lp299
(dp300
g6
I6
sg7
F0.01598501205444336
sg8
I12
sg9
F0.000431060791015625
sa(dp301
g6
I7
sg7
F0.0016560554504394531
sg8
I9
sg9
F0.00015306472778320312
sasg12
I12
ssI63
(dp302
g2
I0
sg3
(lp303
sg12
I1
ssI64
(dp304
g2
I3
sg3
(lp305
(dp306
g6
I4
sg7
F0.06437301635742188
sg8
I12
sg9
F0.012431859970092773
sa(dp307
g6
I0
sg7
F0.0016510486602783203
sg8
I4
sg9
F0.0019986629486083984
sa(dp308
g6
I0
sg7
F0.001371145248413086
sg8
I2
sg9
F0.0019528865814208984
sasg12
I12
ssI65
(dp309
g2
I4
sg3
(lp310
(dp311
g6
I13
sg7
F0.5664620399475098
sg8
I27
sg9
F0.14409804344177246
sa(dp312
g6
I1
sg7
F0.003654956817626953
sg8
I7
sg9
F0.015871047973632812
sa(dp313
g6
I0
sg7
F0.0015740394592285156
sg8
I4
sg9
F0.0061228275299072266
sa(dp314
g6
I0
sg7
F0.001260995864868164
sg8
I2
sg9
F0.0016679763793945312
sasg12
I27
ssI66
(dp315
g2
I0
sg3
(lp316
sg12
I1
ssI67
(dp317
g2
I2
sg3
(lp318
(dp319
g6
I31
sg7
F0.666046142578125
sg8
I35
sg9
F0.033735036849975586
sa(dp320
g6
I0
sg7
F0.0013511180877685547
sg8
I2
sg9
F0.015616178512573242
sasg12
I35
ssI68
(dp321
g2
I0
sg3
(lp322
sg12
I1
ssI69
(dp323
g2
I1
sg3
(lp324
(dp325
g6
I49
sg7
F0.11443495750427246
sg8
I51
sg9
F0.0016601085662841797
sasg12
I51
ssI70
(dp326
g2
I2
sg3
(lp327
(dp328
g6
I4
sg7
F0.01588296890258789
sg8
I6
sg9
F0.0006589889526367188
sa(dp329
g6
I3
sg7
F0.0013079643249511719
sg8
I5
sg9
F0.0004980564117431641
sasg12
I6
ssI71
(dp330
g2
I6
sg3
(lp331
(dp332
g6
I77
sg7
F0.1648569107055664
sg8
I85
sg9
F0.0035500526428222656
sa(dp333
g6
I73
sg7
F0.0012021064758300781
sg8
I81
sg9
F0.002190113067626953
sa(dp334
g6
I71
sg7
F0.0012578964233398438
sg8
I77
sg9
F0.0018329620361328125
sa(dp335
g6
I68
sg7
F0.0012271404266357422
sg8
I74
sg9
F0.001592874526977539
sa(dp336
g6
I65
sg7
F0.0014569759368896484
sg8
I71
sg9
F0.0013420581817626953
sa(dp337
g6
I1
sg7
F0.0014629364013671875
sg8
I3
sg9
F0.0004100799560546875
sasg12
I85
ssI72
(dp338
g2
I3
sg3
(lp339
(dp340
g6
I4
sg7
F0.03200888633728027
sg8
I8
sg9
F0.0008368492126464844
sa(dp341
g6
I0
sg7
F0.21616816520690918
sg8
I6
sg9
F0.00881505012512207
sa(dp342
g6
I1
sg7
F0.0013508796691894531
sg8
I3
sg9
F0.0001068115234375
sasg12
I8
ssI73
(dp343
g2
I0
sg3
(lp344
sg12
I1
ssI74
(dp345
g2
I0
sg3
(lp346
sg12
I1
ssI75
(dp347
g2
I3
sg3
(lp348
(dp349
g6
I3
sg7
F0.00745391845703125
sg8
I5
sg9
F0.0002918243408203125
sa(dp350
g6
I2
sg7
F0.0012509822845458984
sg8
I4
sg9
F0.00013303756713867188
sa(dp351
g6
I1
sg7
F0.0015261173248291016
sg8
I3
sg9
F0.00012993812561035156
sasg12
I5
ssI76
(dp352
g2
I1
sg3
(lp353
(dp354
g6
I0
sg7
F0.016073942184448242
sg8
I2
sg9
F0.0009489059448242188
sasg12
I2
ssI77
(dp355
g2
I0
sg3
(lp356
sg12
I1
ssI78
(dp357
g2
I0
sg3
(lp358
sg12
I1
ssI103
(dp359
g2
I1
sg3
(lp360
(dp361
g6
I10
sg7
F0.0641019344329834
sg8
I12
sg9
F0.0004229545593261719
sasg12
I12
ssI104
(dp362
g2
I2
sg3
(lp363
(dp364
g6
I0
sg7
F1.169064998626709
sg8
I4
sg9
F0.15857577323913574
sa(dp365
g6
I0
sg7
F0.017194032669067383
sg8
I2
sg9
F0.14305996894836426
sasg12
I4
ssI105
(dp366
g2
I0
sg3
(lp367
sg12
I1
ssI106
(dp368
g2
I1
sg3
(lp369
(dp370
g6
I2
sg7
F0.03214383125305176
sg8
I4
sg9
F0.00025391578674316406
sasg12
I4
ssI107
(dp371
g2
I2
sg3
(lp372
(dp373
g6
I10
sg7
F0.0648338794708252
sg8
I16
sg9
F0.0005309581756591797
sa(dp374
g6
I1
sg7
F0.0013611316680908203
sg8
I3
sg9
F0.0003561973571777344
sasg12
I16
ssI108
(dp375
g2
I0
sg3
(lp376
sg12
I1
ss.