(dp0
I1
(dp1
S'iters'
p2
I4
sS'meta'
p3
(lp4
(dp5
S'objective'
p6
I46
sS'query_time'
p7
F0.052902936935424805
sS'comp_time'
p8
F0.02100515365600586
sS'exec_cq'
p9
I12
sS'total_cq'
p10
I12
sa(dp11
g6
I48
sg7
F5.507469177246094e-05
sg8
F0.0002067089080810547
sg9
I10
sg10
I10
sa(dp12
g6
I51
sg7
F3.814697265625e-05
sg8
F0.00011014938354492188
sg9
I9
sg10
I9
sa(dp13
g6
I51
sg7
F3.504753112792969e-05
sg8
F9.34600830078125e-05
sg9
I8
sg10
I8
sasS'total_cqs'
p14
I12
ssI2
(dp15
S'iters'
p16
I8
sS'meta'
p17
(lp18
(dp19
S'objective'
p20
I284
sS'query_time'
p21
F0.0647430419921875
sS'comp_time'
p22
F0.03322601318359375
sS'exec_cq'
p23
I14
sS'total_cq'
p24
I27
sa(dp25
g20
I163
sg21
F0.05246400833129883
sg22
F0.0006840229034423828
sg23
I13
sg24
I24
sa(dp26
g20
I201
sg21
F6.29425048828125e-05
sg22
F0.00032782554626464844
sg23
I11
sg24
I20
sa(dp27
g20
I178
sg21
F4.410743713378906e-05
sg22
F0.000164031982421875
sg23
I10
sg24
I19
sa(dp28
g20
I167
sg21
F2.9087066650390625e-05
sg22
F9.703636169433594e-05
sg23
I8
sg24
I17
sa(dp29
g20
I152
sg21
F4.291534423828125e-05
sg22
F0.0001628398895263672
sg23
I9
sg24
I15
sa(dp30
g20
I154
sg21
F5.817413330078125e-05
sg22
F0.00011396408081054688
sg23
I14
sg24
I14
sa(dp31
g20
I159
sg21
F4.792213439941406e-05
sg22
F9.465217590332031e-05
sg23
I13
sg24
I13
sasS'total_cqs'
p32
I27
ssI3
(dp33
S'iters'
p34
I4
sS'meta'
p35
(lp36
(dp37
S'objective'
p38
I200
sS'query_time'
p39
F78.9628918170929
sS'comp_time'
p40
F0.5902972221374512
sS'exec_cq'
p41
I16
sS'total_cq'
p42
I43
sa(dp43
g38
I19
sg39
F107.54947304725647
sg40
F2.2148354053497314
sg41
I14
sg42
I27
sa(dp44
g38
I11
sg39
F42.16975688934326
sg40
F0.6709139347076416
sg41
I9
sg42
I13
sa(dp45
g38
I131
sg39
F11.386706829071045
sg40
F0.002941131591796875
sg41
I6
sg42
I6
sasS'total_cqs'
p46
I43
ssI4
(dp47
S'iters'
p48
I2
sS'meta'
p49
(lp50
(dp51
S'objective'
p52
I42
sS'query_time'
p53
F4.976507902145386
sS'comp_time'
p54
F0.8412389755249023
sS'exec_cq'
p55
I11
sS'total_cq'
p56
I11
sa(dp57
g52
I10
sg53
F0.20779895782470703
sg54
F0.85394287109375
sg55
I2
sg56
I2
sasS'total_cqs'
p58
I11
ssI5
(dp59
S'iters'
p60
I3
sS'meta'
p61
(lp62
(dp63
S'objective'
p64
I0
sS'query_time'
p65
F35.65318703651428
sS'comp_time'
p66
F3.688488483428955
sS'exec_cq'
p67
I8
sS'total_cq'
p68
I8
sa(dp69
g64
I0
sg65
F0.757404088973999
sg66
F3.281028985977173
sg67
I4
sg68
I4
sa(dp70
g64
I7
sg65
F0.28278613090515137
sg66
F1.1531908512115479
sg67
I2
sg68
I2
sasS'total_cqs'
p71
I8
ssI6
(dp72
S'iters'
p73
I4
sS'meta'
p74
(lp75
(dp76
S'objective'
p77
I103
sS'query_time'
p78
F37.86912488937378
sS'comp_time'
p79
F3.5367560386657715
sS'exec_cq'
p80
I18
sS'total_cq'
p81
I18
sa(dp82
g77
I0
sg78
F0.6497650146484375
sg79
F3.445167064666748
sg80
I7
sg81
I7
sa(dp83
g77
I1
sg78
F0.5895140171051025
sg79
F3.3631839752197266
sg80
I4
sg81
I4
sa(dp84
g77
I7
sg78
F0.09365296363830566
sg79
F1.4753386974334717
sg80
I2
sg81
I2
sasS'total_cqs'
p85
I18
ssI7
(dp86
S'iters'
p87
I4
sS'meta'
p88
(lp89
(dp90
S'objective'
p91
I1
sS'query_time'
p92
F12.567968845367432
sS'comp_time'
p93
F1.9806971549987793
sS'exec_cq'
p94
I9
sS'total_cq'
p95
I9
sa(dp96
g91
I1
sg92
F0.250791072845459
sg93
F0.8853878974914551
sg94
I5
sg95
I5
sa(dp97
g91
I6
sg92
F0.029759883880615234
sg93
F0.45084476470947266
sg94
I3
sg95
I3
sa(dp98
g91
I1
sg92
F0.009294986724853516
sg93
F0.05793499946594238
sg94
I2
sg95
I2
sasS'total_cqs'
p99
I9
ssI8
(dp100
S'iters'
p101
I5
sS'meta'
p102
(lp103
(dp104
S'objective'
p105
I178
sS'query_time'
p106
F0.09997105598449707
sS'comp_time'
p107
F0.024445056915283203
sS'exec_cq'
p108
I14
sS'total_cq'
p109
I27
sa(dp110
g105
I246
sg106
F4.410743713378906e-05
sg107
F0.0002269744873046875
sg108
I9
sg109
I22
sa(dp111
g105
I182
sg106
F0.05697298049926758
sg107
F0.0004677772521972656
sg108
I13
sg109
I21
sa(dp112
g105
I196
sg106
F7.581710815429688e-05
sg107
F0.00016760826110839844
sg108
I18
sg109
I18
sa(dp113
g105
I207
sg106
F6.890296936035156e-05
sg107
F9.775161743164062e-05
sg108
I17
sg109
I17
sasS'total_cqs'
p114
I27
ssI9
(dp115
S'iters'
p116
I4
sS'meta'
p117
(lp118
(dp119
S'objective'
p120
I2
sS'query_time'
p121
F0.05828595161437988
sS'comp_time'
p122
F0.005882740020751953
sS'exec_cq'
p123
I7
sS'total_cq'
p124
I7
sa(dp125
g120
I1
sg121
F5.078315734863281e-05
sg122
F0.0002949237823486328
sg123
I5
sg124
I5
sa(dp126
g120
I2
sg121
F0.0013689994812011719
sg122
F0.00019621849060058594
sg123
I3
sg124
I3
sa(dp127
g120
I3
sg121
F2.002716064453125e-05
sg122
F9.822845458984375e-05
sg123
I2
sg124
I2
sasS'total_cqs'
p128
I7
ssI10
(dp129
S'iters'
p130
I6
sS'meta'
p131
(lp132
(dp133
S'objective'
p134
I660
sS'query_time'
p135
F0.23379111289978027
sS'comp_time'
p136
F0.10003280639648438
sS'exec_cq'
p137
I28
sS'total_cq'
p138
I51
sa(dp139
g134
I319
sg135
F0.4108908176422119
sg136
F0.0015037059783935547
sg137
I23
sg138
I37
sa(dp140
g134
I9
sg135
F0.010268926620483398
sg136
F0.001127004623413086
sg137
I12
sg138
I12
sa(dp141
g134
I30
sg135
F4.982948303222656e-05
sg136
F0.00029015541076660156
sg137
I6
sg138
I6
sa(dp142
g134
I7
sg135
F2.6941299438476562e-05
sg136
F0.0001468658447265625
sg137
I3
sg138
I3
sa(dp143
g134
I28
sg135
F1.5974044799804688e-05
sg136
F8.20159912109375e-05
sg137
I2
sg138
I2
sasS'total_cqs'
p144
I51
ssI11
(dp145
S'iters'
p146
I6
sS'meta'
p147
(lp148
(dp149
S'objective'
p150
I960
sS'query_time'
p151
F0.5677192211151123
sS'comp_time'
p152
F0.19173002243041992
sS'exec_cq'
p153
I63
sS'total_cq'
p154
I63
sa(dp155
g150
I974
sg151
F0.0013530254364013672
sg152
F0.00720977783203125
sg153
I47
sg154
I47
sa(dp156
g150
I11
sg151
F0.002000093460083008
sg152
F0.0029425621032714844
sg153
I9
sg154
I9
sa(dp157
g150
I2
sg151
F4.410743713378906e-05
sg152
F0.0001938343048095703
sg153
I5
sg154
I5
sa(dp158
g150
I56
sg151
F2.288818359375e-05
sg152
F0.00010991096496582031
sg153
I3
sg154
I3
sa(dp159
g150
I3
sg151
F1.811981201171875e-05
sg152
F0.0001506805419921875
sg153
I2
sg154
I2
sasS'total_cqs'
p160
I63
ssI12
(dp161
S'iters'
p162
I6
sS'meta'
p163
(lp164
(dp165
S'objective'
p166
I575
sS'query_time'
p167
F0.21138405799865723
sS'comp_time'
p168
F0.08879494667053223
sS'exec_cq'
p169
I28
sS'total_cq'
p170
I50
sa(dp171
g166
I481
sg167
F0.17255496978759766
sg168
F0.0030488967895507812
sg169
I22
sg170
I33
sa(dp172
g166
I505
sg167
F0.0001220703125
sg168
F0.0006918907165527344
sg169
I15
sg170
I26
sa(dp173
g166
I7
sg167
F0.0013248920440673828
sg168
F0.0005068778991699219
sg169
I5
sg170
I5
sa(dp174
g166
I10
sg167
F3.314018249511719e-05
sg168
F0.00017714500427246094
sg169
I3
sg170
I3
sa(dp175
g166
I16
sg167
F2.002716064453125e-05
sg168
F0.00011467933654785156
sg169
I2
sg170
I2
sasS'total_cqs'
p176
I50
ssI13
(dp177
S'iters'
p178
I3
sS'meta'
p179
(lp180
(dp181
S'objective'
p182
I16
sS'query_time'
p183
F0.16175007820129395
sS'comp_time'
p184
F0.030508041381835938
sS'exec_cq'
p185
I20
sS'total_cq'
p186
I20
sa(dp187
g182
I73
sg183
F4.792213439941406e-05
sg184
F0.0004372596740722656
sg185
I9
sg186
I9
sa(dp188
g182
I18
sg183
F0.0013480186462402344
sg184
F0.00016427040100097656
sg185
I2
sg186
I2
sasS'total_cqs'
p189
I20
ssI14
(dp190
S'iters'
p191
I4
sS'meta'
p192
(lp193
(dp194
S'objective'
p195
I1
sS'query_time'
p196
F32.19156002998352
sS'comp_time'
p197
F2.7483208179473877
sS'exec_cq'
p198
I9
sS'total_cq'
p199
I9
sa(dp200
g195
I5
sg196
F0.01024317741394043
sg197
F0.36516284942626953
sg198
I4
sg199
I4
sa(dp201
g195
I2
sg196
F0.008523941040039062
sg197
F0.04436826705932617
sg198
I3
sg199
I3
sa(dp202
g195
I4
sg196
F0.008314132690429688
sg197
F0.3081347942352295
sg198
I2
sg199
I2
sasS'total_cqs'
p203
I9
ssI15
(dp204
S'iters'
p205
I4
sS'meta'
p206
(lp207
(dp208
S'objective'
p209
I8
sS'query_time'
p210
F3.8477959632873535
sS'comp_time'
p211
F0.3081367015838623
sS'exec_cq'
p212
I11
sS'total_cq'
p213
I11
sa(dp214
g209
I1
sg210
F0.04327106475830078
sg211
F0.29315733909606934
sg212
I6
sg213
I6
sa(dp215
g209
I7
sg210
F0.0014629364013671875
sg211
F0.008132457733154297
sg212
I3
sg213
I3
sa(dp216
g209
I2
sg210
F0.0010290145874023438
sg211
F0.005972862243652344
sg212
I2
sg213
I2
sasS'total_cqs'
p217
I11
ssI16
(dp218
S'iters'
p219
I1
sS'meta'
p220
(lp221
(dp222
S'objective'
p223
I34
sS'query_time'
p224
F0.03449082374572754
sS'comp_time'
p225
F0.0048830509185791016
sS'exec_cq'
p226
I8
sS'total_cq'
p227
I8
sasS'total_cqs'
p228
I8
ssI17
(dp229
S'iters'
p230
I4
sS'meta'
p231
(lp232
(dp233
S'objective'
p234
I2
sS'query_time'
p235
F0.8981459140777588
sS'comp_time'
p236
F0.04787302017211914
sS'exec_cq'
p237
I11
sS'total_cq'
p238
I11
sa(dp239
g234
I4
sg235
F0.003194093704223633
sg236
F0.019675016403198242
sg237
I7
sg238
I7
sa(dp240
g234
I1
sg235
F0.0026199817657470703
sg236
F0.018900156021118164
sg237
I3
sg238
I3
sa(dp241
g234
I5
sg235
F0.00015115737915039062
sg236
F0.0009932518005371094
sg237
I2
sg238
I2
sasS'total_cqs'
p242
I11
ssI18
(dp243
S'iters'
p244
I2
sS'meta'
p245
(lp246
(dp247
S'objective'
p248
I46
sS'query_time'
p249
F0.19096589088439941
sS'comp_time'
p250
F0.04084944725036621
sS'exec_cq'
p251
I11
sS'total_cq'
p252
I11
sa(dp253
g248
I54
sg249
F0.0009720325469970703
sg250
F0.0010790824890136719
sg251
I10
sg252
I10
sasS'total_cqs'
p254
I11
ssI19
(dp255
S'iters'
p256
I0
sS'meta'
p257
(lp258
sS'total_cqs'
p259
I1
ssI20
(dp260
S'iters'
p261
I0
sS'meta'
p262
(lp263
sS'total_cqs'
p264
I1
ssI21
(dp265
S'iters'
p266
I0
sS'meta'
p267
(lp268
sS'total_cqs'
p269
I1
ssI22
(dp270
S'iters'
p271
I1
sS'meta'
p272
(lp273
(dp274
S'objective'
p275
I169
sS'query_time'
p276
F0.08494091033935547
sS'comp_time'
p277
F0.034775495529174805
sS'exec_cq'
p278
I18
sS'total_cq'
p279
I18
sasS'total_cqs'
p280
I18
ssI23
(dp281
S'iters'
p282
I3
sS'meta'
p283
(lp284
(dp285
S'objective'
p286
I100
sS'query_time'
p287
F0.03175616264343262
sS'comp_time'
p288
F0.025290966033935547
sS'exec_cq'
p289
I8
sS'total_cq'
p290
I16
sa(dp291
g286
I114
sg287
F0.030118942260742188
sg288
F0.00046706199645996094
sg289
I14
sg290
I14
sa(dp292
g286
I114
sg287
F5.698204040527344e-05
sg288
F9.918212890625e-05
sg289
I13
sg290
I13
sasS'total_cqs'
p293
I16
ssI24
(dp294
S'iters'
p295
I0
sS'meta'
p296
(lp297
sS'total_cqs'
p298
I1
ssI25
(dp299
S'iters'
p300
I0
sS'meta'
p301
(lp302
sS'total_cqs'
p303
I1
ssI26
(dp304
S'iters'
p305
I1
sS'meta'
p306
(lp307
(dp308
S'objective'
p309
I901
sS'query_time'
p310
F0.24268507957458496
sS'comp_time'
p311
F0.11239218711853027
sS'exec_cq'
p312
I42
sS'total_cq'
p313
I42
sasS'total_cqs'
p314
I42
ssI27
(dp315
S'iters'
p316
I4
sS'meta'
p317
(lp318
(dp319
S'objective'
p320
I317
sS'query_time'
p321
F22.036393880844116
sS'comp_time'
p322
F3.9047060012817383
sS'exec_cq'
p323
I30
sS'total_cq'
p324
I30
sa(dp325
g320
I2
sg321
F0.6451637744903564
sg322
F3.8751230239868164
sg323
I5
sg324
I5
sa(dp326
g320
I10
sg321
F0.08482503890991211
sg322
F1.1280272006988525
sg323
I3
sg324
I3
sa(dp327
g320
I11
sg321
F0.023587942123413086
sg322
F0.42046523094177246
sg323
I2
sg324
I2
sasS'total_cqs'
p328
I30
ssI28
(dp329
S'iters'
p330
I0
sS'meta'
p331
(lp332
sS'total_cqs'
p333
I1
ssI29
(dp334
S'iters'
p335
I7
sS'meta'
p336
(lp337
(dp338
S'objective'
p339
I373
sS'query_time'
p340
F26.62278389930725
sS'comp_time'
p341
F0.951988935470581
sS'exec_cq'
p342
I35
sS'total_cq'
p343
I49
sa(dp344
g339
I26
sg340
F0.07340884208679199
sg341
F0.7067821025848389
sg342
I17
sg343
I17
sa(dp345
g339
I22
sg340
F0.009593009948730469
sg341
F0.039063215255737305
sg342
I10
sg343
I10
sa(dp346
g339
I5
sg340
F0.006977081298828125
sg341
F0.03466510772705078
sg342
I6
sg343
I6
sa(dp347
g339
I1
sg340
F0.005278110504150391
sg341
F0.15855646133422852
sg342
I4
sg343
I4
sa(dp348
g339
I15
sg340
F0.001026153564453125
sg341
F0.005967855453491211
sg342
I3
sg343
I3
sa(dp349
g339
I4
sg340
F0.0012450218200683594
sg341
F0.005571842193603516
sg342
I2
sg343
I2
sasS'total_cqs'
p350
I49
ssI30
(dp351
S'iters'
p352
I1
sS'meta'
p353
(lp354
(dp355
S'objective'
p356
I1
sS'query_time'
p357
F0.6950259208679199
sS'comp_time'
p358
F0.04231667518615723
sS'exec_cq'
p359
I2
sS'total_cq'
p360
I2
sasS'total_cqs'
p361
I2
ssI31
(dp362
S'iters'
p363
I0
sS'meta'
p364
(lp365
sS'total_cqs'
p366
I1
ssI32
(dp367
S'iters'
p368
I1
sS'meta'
p369
(lp370
(dp371
S'objective'
p372
I1
sS'query_time'
p373
F0.011216878890991211
sS'comp_time'
p374
F0.0016350746154785156
sS'exec_cq'
p375
I2
sS'total_cq'
p376
I2
sasS'total_cqs'
p377
I2
ssI33
(dp378
S'iters'
p379
I7
sS'meta'
p380
(lp381
(dp382
S'objective'
p383
I4050
sS'query_time'
p384
F16.2368381023407
sS'comp_time'
p385
F0.9818220138549805
sS'exec_cq'
p386
I103
sS'total_cq'
p387
I103
sa(dp388
g383
I5
sg384
F0.007771015167236328
sg385
F0.02691793441772461
sg386
I16
sg387
I16
sa(dp389
g383
I3
sg384
F0.004232168197631836
sg385
F0.014534473419189453
sg386
I10
sg387
I10
sa(dp390
g383
I10
sg384
F0.002234935760498047
sg385
F0.011368989944458008
sg386
I6
sg387
I6
sa(dp391
g383
I52
sg384
F0.0016140937805175781
sg385
F0.008462905883789062
sg386
I4
sg387
I4
sa(dp392
g383
I5
sg384
F0.0009629726409912109
sg385
F0.006111621856689453
sg386
I3
sg387
I3
sa(dp393
g383
I2
sg384
F0.00074005126953125
sg385
F0.005449056625366211
sg386
I2
sg387
I2
sasS'total_cqs'
p394
I103
ssI34
(dp395
S'iters'
p396
I1
sS'meta'
p397
(lp398
(dp399
S'objective'
p400
I1
sS'query_time'
p401
F0.01926398277282715
sS'comp_time'
p402
F0.0019290447235107422
sS'exec_cq'
p403
I2
sS'total_cq'
p404
I2
sasS'total_cqs'
p405
I2
ssI35
(dp406
S'iters'
p407
I6
sS'meta'
p408
(lp409
(dp410
S'objective'
p411
I1339
sS'query_time'
p412
F20.16431212425232
sS'comp_time'
p413
F0.2739570140838623
sS'exec_cq'
p414
I50
sS'total_cq'
p415
I70
sa(dp416
g411
I3
sg412
F0.27042198181152344
sg413
F0.01766514778137207
sg414
I16
sg415
I16
sa(dp417
g411
I6
sg412
F0.002964019775390625
sg413
F0.01069188117980957
sg414
I9
sg415
I9
sa(dp418
g411
I19
sg412
F0.001132965087890625
sg413
F0.007660865783691406
sg414
I4
sg415
I4
sa(dp419
g411
I4
sg412
F0.0010859966278076172
sg413
F0.006743669509887695
sg414
I3
sg415
I3
sa(dp420
g411
I36
sg412
F0.0003619194030761719
sg413
F0.0025191307067871094
sg414
I2
sg415
I2
sasS'total_cqs'
p421
I70
ssI36
(dp422
S'iters'
p423
I2
sS'meta'
p424
(lp425
(dp426
S'objective'
p427
I395
sS'query_time'
p428
F1.1689739227294922
sS'comp_time'
p429
F0.14838504791259766
sS'exec_cq'
p430
I33
sS'total_cq'
p431
I33
sa(dp432
g427
I476
sg428
F0.0048868656158447266
sg429
F0.006588935852050781
sg430
I28
sg431
I29
sasS'total_cqs'
p433
I33
ssI37
(dp434
S'iters'
p435
I1
sS'meta'
p436
(lp437
(dp438
S'objective'
p439
I1
sS'query_time'
p440
F0.010648012161254883
sS'comp_time'
p441
F0.0014643669128417969
sS'exec_cq'
p442
I2
sS'total_cq'
p443
I2
sasS'total_cqs'
p444
I2
ssI38
(dp445
S'iters'
p446
I2
sS'meta'
p447
(lp448
(dp449
S'objective'
p450
I0
sS'query_time'
p451
F0.02665400505065918
sS'comp_time'
p452
F0.0029096603393554688
sS'exec_cq'
p453
I4
sS'total_cq'
p454
I4
sa(dp455
g450
I3
sg451
F7.987022399902344e-05
sg452
F0.0005171298980712891
sg453
I2
sg454
I2
sasS'total_cqs'
p456
I4
ssI39
(dp457
S'iters'
p458
I2
sS'meta'
p459
(lp460
(dp461
S'objective'
p462
I654
sS'query_time'
p463
F0.21896600723266602
sS'comp_time'
p464
F0.23566937446594238
sS'exec_cq'
p465
I44
sS'total_cq'
p466
I44
sa(dp467
g462
I820
sg463
F0.0003459453582763672
sg464
F0.003934144973754883
sg465
I37
sg466
I37
sasS'total_cqs'
p468
I44
ssI40
(dp469
S'iters'
p470
I1
sS'meta'
p471
(lp472
(dp473
S'objective'
p474
I26
sS'query_time'
p475
F0.03603410720825195
sS'comp_time'
p476
F0.006189107894897461
sS'exec_cq'
p477
I7
sS'total_cq'
p478
I7
sasS'total_cqs'
p479
I7
ssI41
(dp480
S'iters'
p481
I2
sS'meta'
p482
(lp483
(dp484
S'objective'
p485
I70
sS'query_time'
p486
F0.06371521949768066
sS'comp_time'
p487
F0.017860889434814453
sS'exec_cq'
p488
I12
sS'total_cq'
p489
I12
sa(dp490
g485
I72
sg486
F6.198883056640625e-05
sg487
F0.0001850128173828125
sg488
I11
sg489
I11
sasS'total_cqs'
p491
I12
ssI42
(dp492
S'iters'
p493
I2
sS'meta'
p494
(lp495
(dp496
S'objective'
p497
I809
sS'query_time'
p498
F0.17330384254455566
sS'comp_time'
p499
F0.25002098083496094
sS'exec_cq'
p500
I21
sS'total_cq'
p501
I41
sa(dp502
g497
I833
sg498
F8.58306884765625e-05
sg499
F0.00019502639770507812
sg500
I20
sg501
I40
sasS'total_cqs'
p503
I41
ssI43
(dp504
S'iters'
p505
I1
sS'meta'
p506
(lp507
(dp508
S'objective'
p509
I26
sS'query_time'
p510
F0.027772903442382812
sS'comp_time'
p511
F0.00571131706237793
sS'exec_cq'
p512
I7
sS'total_cq'
p513
I7
sasS'total_cqs'
p514
I7
ssI44
(dp515
S'iters'
p516
I4
sS'meta'
p517
(lp518
(dp519
S'objective'
p520
I816
sS'query_time'
p521
F0.3188748359680176
sS'comp_time'
p522
F0.1555798053741455
sS'exec_cq'
p523
I47
sS'total_cq'
p524
I47
sa(dp525
g520
I868
sg521
F0.00045299530029296875
sg522
F0.002022981643676758
sg523
I40
sg524
I40
sa(dp526
g520
I14
sg521
F0.006021976470947266
sg522
F0.002335071563720703
sg523
I3
sg524
I3
sa(dp527
g520
I17
sg521
F3.409385681152344e-05
sg522
F0.0001780986785888672
sg523
I2
sg524
I2
sasS'total_cqs'
p528
I47
ssI45
(dp529
S'iters'
p530
I0
sS'meta'
p531
(lp532
sS'total_cqs'
p533
I1
ssI46
(dp534
S'iters'
p535
I3
sS'meta'
p536
(lp537
(dp538
S'objective'
p539
I9
sS'query_time'
p540
F0.017234086990356445
sS'comp_time'
p541
F0.0029039382934570312
sS'exec_cq'
p542
I4
sS'total_cq'
p543
I6
sa(dp544
g539
I7
sg540
F0.005348920822143555
sg541
F0.00031304359436035156
sg542
I5
sg543
I5
sa(dp545
g539
I9
sg540
F2.384185791015625e-05
sg541
F7.271766662597656e-05
sg542
I4
sg543
I4
sasS'total_cqs'
p546
I6
ssI47
(dp547
S'iters'
p548
I1
sS'meta'
p549
(lp550
(dp551
S'objective'
p552
I1
sS'query_time'
p553
F0.009259939193725586
sS'comp_time'
p554
F0.0013799667358398438
sS'exec_cq'
p555
I2
sS'total_cq'
p556
I2
sasS'total_cqs'
p557
I2
ssI48
(dp558
S'iters'
p559
I0
sS'meta'
p560
(lp561
sS'total_cqs'
p562
I1
ssI49
(dp563
S'iters'
p564
I0
sS'meta'
p565
(lp566
sS'total_cqs'
p567
I1
ssI50
(dp568
S'iters'
p569
I4
sS'meta'
p570
(lp571
(dp572
S'objective'
p573
I5
sS'query_time'
p574
F0.013434886932373047
sS'comp_time'
p575
F0.0022585391998291016
sS'exec_cq'
p576
I5
sS'total_cq'
p577
I5
sa(dp578
g573
I2
sg574
F3.0994415283203125e-05
sg575
F0.00013494491577148438
sg576
I4
sg577
I4
sa(dp579
g573
I0
sg574
F2.4080276489257812e-05
sg575
F0.00011205673217773438
sg576
I3
sg577
I3
sa(dp580
g573
I1
sg574
F2.002716064453125e-05
sg575
F9.918212890625e-05
sg576
I2
sg577
I2
sasS'total_cqs'
p581
I5
ssI51
(dp582
S'iters'
p583
I1
sS'meta'
p584
(lp585
(dp586
S'objective'
p587
I1
sS'query_time'
p588
F0.00733494758605957
sS'comp_time'
p589
F0.0016520023345947266
sS'exec_cq'
p590
I2
sS'total_cq'
p591
I2
sasS'total_cqs'
p592
I2
ssI52
(dp593
S'iters'
p594
I1
sS'meta'
p595
(lp596
(dp597
S'objective'
p598
I1
sS'query_time'
p599
F0.009172916412353516
sS'comp_time'
p600
F0.0012629032135009766
sS'exec_cq'
p601
I2
sS'total_cq'
p602
I2
sasS'total_cqs'
p603
I2
ssI53
(dp604
S'iters'
p605
I2
sS'meta'
p606
(lp607
(dp608
S'objective'
p609
I4
sS'query_time'
p610
F0.022073984146118164
sS'comp_time'
p611
F0.0027070045471191406
sS'exec_cq'
p612
I4
sS'total_cq'
p613
I4
sa(dp614
g609
I1
sg610
F0.00010013580322265625
sg611
F0.0006549358367919922
sg612
I2
sg613
I2
sasS'total_cqs'
p615
I4
ssI54
(dp616
S'iters'
p617
I2
sS'meta'
p618
(lp619
(dp620
S'objective'
p621
I0
sS'query_time'
p622
F0.011928081512451172
sS'comp_time'
p623
F0.0016431808471679688
sS'exec_cq'
p624
I3
sS'total_cq'
p625
I3
sa(dp626
g621
I1
sg622
F4.1961669921875e-05
sg623
F0.000263214111328125
sg624
I2
sg625
I2
sasS'total_cqs'
p627
I3
ssI55
(dp628
S'iters'
p629
I9
sS'meta'
p630
(lp631
(dp632
S'objective'
p633
I4959
sS'query_time'
p634
F2.233726978302002
sS'comp_time'
p635
F0.8456063270568848
sS'exec_cq'
p636
I109
sS'total_cq'
p637
I109
sa(dp638
g633
I4727
sg634
F0.0009171962738037109
sg635
F0.003924369812011719
sg636
I97
sg637
I97
sa(dp639
g633
I4514
sg634
F0.00040411949157714844
sg635
F0.0018949508666992188
sg636
I91
sg637
I91
sa(dp640
g633
I4540
sg634
F0.00041604042053222656
sg635
F0.0015881061553955078
sg636
I87
sg637
I87
sa(dp641
g633
I4478
sg634
F0.00034308433532714844
sg635
F0.0012052059173583984
sg636
I85
sg637
I85
sa(dp642
g633
I4392
sg634
F0.0003750324249267578
sg635
F0.0011241436004638672
sg636
I84
sg637
I84
sa(dp643
g633
I4304
sg634
F0.00032901763916015625
sg635
F0.0010943412780761719
sg636
I82
sg637
I82
sa(dp644
g633
I4216
sg634
F0.0003249645233154297
sg635
F0.0009579658508300781
sg636
I81
sg637
I81
sa(dp645
g633
I4303
sg634
F0.0003209114074707031
sg635
F0.0008611679077148438
sg636
I79
sg637
I79
sasS'total_cqs'
p646
I109
ssI56
(dp647
S'iters'
p648
I7
sS'meta'
p649
(lp650
(dp651
S'objective'
p652
I1790
sS'query_time'
p653
F2.3964169025421143
sS'comp_time'
p654
F0.48564696311950684
sS'exec_cq'
p655
I67
sS'total_cq'
p656
I76
sa(dp657
g652
I0
sg653
F0.0076220035552978516
sg654
F0.019117116928100586
sg655
I16
sg656
I16
sa(dp658
g652
I10
sg653
F0.00397801399230957
sg654
F0.01000666618347168
sg655
I9
sg656
I9
sa(dp659
g652
I1
sg653
F0.0017070770263671875
sg654
F0.005448102951049805
sg655
I7
sg656
I7
sa(dp660
g652
I11
sg653
F0.0014188289642333984
sg654
F0.004520893096923828
sg655
I5
sg656
I5
sa(dp661
g652
I2
sg653
F0.00042700767517089844
sg654
F0.0031976699829101562
sg655
I3
sg656
I3
sa(dp662
g652
I18
sg653
F0.00026702880859375
sg654
F0.002076864242553711
sg655
I2
sg656
I2
sasS'total_cqs'
p663
I76
ssI57
(dp664
S'iters'
p665
I6
sS'meta'
p666
(lp667
(dp668
S'objective'
p669
I112
sS'query_time'
p670
F24.117426872253418
sS'comp_time'
p671
F0.3944411277770996
sS'exec_cq'
p672
I45
sS'total_cq'
p673
I51
sa(dp674
g669
I49
sg670
F0.01447916030883789
sg671
F0.032858848571777344
sg672
I27
sg673
I27
sa(dp675
g669
I65
sg670
F0.002701997756958008
sg671
F0.0071256160736083984
sg672
I13
sg673
I13
sa(dp676
g669
I7
sg670
F0.001672983169555664
sg671
F0.005939960479736328
sg672
I5
sg673
I5
sa(dp677
g669
I12
sg670
F0.0008540153503417969
sg671
F0.005219221115112305
sg672
I3
sg673
I3
sa(dp678
g669
I24
sg670
F0.0003020763397216797
sg671
F0.0023162364959716797
sg672
I2
sg673
I2
sasS'total_cqs'
p679
I51
ssI58
(dp680
S'iters'
p681
I7
sS'meta'
p682
(lp683
(dp684
S'objective'
p685
I84065
sS'query_time'
p686
F111.86572003364563
sS'comp_time'
p687
F14.537914037704468
sS'exec_cq'
p688
I348
sS'total_cq'
p689
I486
sa(dp690
g685
I87007
sg686
F0.044159889221191406
sg687
F1.6572561264038086
sg688
I276
sg689
I414
sa(dp691
g685
I152
sg686
F0.021235942840576172
sg687
F0.0983114242553711
sg688
I28
sg689
I28
sa(dp692
g685
I7
sg686
F0.01096796989440918
sg687
F0.01941990852355957
sg688
I14
sg689
I14
sa(dp693
g685
I16
sg686
F0.0019750595092773438
sg687
F0.006058931350708008
sg688
I8
sg689
I8
sa(dp694
g685
I170
sg686
F0.0006401538848876953
sg687
F0.002907991409301758
sg688
I4
sg689
I4
sa(dp695
g685
I363
sg686
F0.0002799034118652344
sg687
F0.0015079975128173828
sg688
I2
sg689
I2
sasS'total_cqs'
p696
I486
ssI59
(dp697
S'iters'
p698
I2
sS'meta'
p699
(lp700
(dp701
S'objective'
p702
I20
sS'query_time'
p703
F0.05005598068237305
sS'comp_time'
p704
F0.016103744506835938
sS'exec_cq'
p705
I7
sS'total_cq'
p706
I7
sa(dp707
g702
I2
sg703
F0.00017595291137695312
sg704
F0.0012021064758300781
sg705
I2
sg706
I2
sasS'total_cqs'
p708
I7
ssI60
(dp709
S'iters'
p710
I3
sS'meta'
p711
(lp712
(dp713
S'objective'
p714
I5
sS'query_time'
p715
F0.012650012969970703
sS'comp_time'
p716
F0.0032989978790283203
sS'exec_cq'
p717
I3
sS'total_cq'
p718
I5
sa(dp719
g714
I4
sg715
F0.003342151641845703
sg716
F0.00016832351684570312
sg717
I2
sg718
I4
sa(dp720
g714
I5
sg715
F5.1975250244140625e-05
sg716
F0.00013685226440429688
sg717
I2
sg718
I3
sasS'total_cqs'
p721
I5
ssI61
(dp722
S'iters'
p723
I0
sS'meta'
p724
(lp725
sS'total_cqs'
p726
I1
ssI62
(dp727
S'iters'
p728
I3
sS'meta'
p729
(lp730
(dp731
S'objective'
p732
I20
sS'query_time'
p733
F0.05868220329284668
sS'comp_time'
p734
F0.020531177520751953
sS'exec_cq'
p735
I12
sS'total_cq'
p736
I12
sa(dp737
g732
I41
sg733
F5.1021575927734375e-05
sg734
F0.00018644332885742188
sg735
I9
sg736
I9
sa(dp738
g732
I43
sg733
F3.504753112792969e-05
sg734
F0.0001068115234375
sg735
I8
sg736
I8
sasS'total_cqs'
p739
I12
ssI63
(dp740
S'iters'
p741
I0
sS'meta'
p742
(lp743
sS'total_cqs'
p744
I1
ssI64
(dp745
S'iters'
p746
I3
sS'meta'
p747
(lp748
(dp749
S'objective'
p750
I22
sS'query_time'
p751
F0.1375868320465088
sS'comp_time'
p752
F0.025106191635131836
sS'exec_cq'
p753
I12
sS'total_cq'
p754
I12
sa(dp755
g750
I4
sg751
F9.799003601074219e-05
sg752
F0.0005931854248046875
sg753
I4
sg754
I4
sa(dp756
g750
I10
sg751
F2.384185791015625e-05
sg752
F0.00015401840209960938
sg753
I2
sg754
I2
sasS'total_cqs'
p757
I12
ssI65
(dp758
S'iters'
p759
I4
sS'meta'
p760
(lp761
(dp762
S'objective'
p763
I212
sS'query_time'
p764
F0.7370419502258301
sS'comp_time'
p765
F0.33944082260131836
sS'exec_cq'
p766
I27
sS'total_cq'
p767
I27
sa(dp768
g763
I3
sg764
F0.0014901161193847656
sg765
F0.005671977996826172
sg766
I7
sg767
I7
sa(dp769
g763
I4
sg764
F0.0001609325408935547
sg765
F0.001035451889038086
sg766
I3
sg767
I3
sa(dp770
g763
I16
sg764
F8.392333984375e-05
sg765
F0.0005872249603271484
sg766
I2
sg767
I2
sasS'total_cqs'
p771
I27
ssI66
(dp772
S'iters'
p773
I0
sS'meta'
p774
(lp775
sS'total_cqs'
p776
I1
ssI67
(dp777
S'iters'
p778
I2
sS'meta'
p779
(lp780
(dp781
S'objective'
p782
I614
sS'query_time'
p783
F1.0023059844970703
sS'comp_time'
p784
F0.0957036018371582
sS'exec_cq'
p785
I35
sS'total_cq'
p786
I35
sa(dp787
g782
I6
sg783
F0.0016398429870605469
sg784
F0.009487152099609375
sg785
I2
sg786
I2
sasS'total_cqs'
p788
I35
ssI68
(dp789
S'iters'
p790
I0
sS'meta'
p791
(lp792
sS'total_cqs'
p793
I1
ssI69
(dp794
S'iters'
p795
I1
sS'meta'
p796
(lp797
(dp798
S'objective'
p799
I1324
sS'query_time'
p800
F0.18439292907714844
sS'comp_time'
p801
F0.2105250358581543
sS'exec_cq'
p802
I51
sS'total_cq'
p803
I51
sasS'total_cqs'
p804
I51
ssI70
(dp805
S'iters'
p806
I4
sS'meta'
p807
(lp808
(dp809
S'objective'
p810
I11
sS'query_time'
p811
F0.02287602424621582
sS'comp_time'
p812
F0.003923654556274414
sS'exec_cq'
p813
I6
sS'total_cq'
p814
I6
sa(dp815
g810
I8
sg811
F6.079673767089844e-05
sg812
F0.00028967857360839844
sg813
I5
sg814
I5
sa(dp816
g810
I6
sg811
F4.506111145019531e-05
sg812
F0.00023484230041503906
sg813
I4
sg814
I4
sa(dp817
g810
I7
sg811
F0.0001327991485595703
sg812
F0.0001976490020751953
sg813
I3
sg814
I3
sasS'total_cqs'
p818
I6
ssI71
(dp819
S'iters'
p820
I8
sS'meta'
p821
(lp822
(dp823
S'objective'
p824
I3295
sS'query_time'
p825
F0.3194451332092285
sS'comp_time'
p826
F0.4436190128326416
sS'exec_cq'
p827
I73
sS'total_cq'
p828
I85
sa(dp829
g824
I3129
sg825
F0.0003218650817871094
sg826
F0.00109100341796875
sg827
I70
sg828
I82
sa(dp830
g824
I3012
sg825
F0.0002300739288330078
sg826
F0.0010180473327636719
sg827
I66
sg828
I78
sa(dp831
g824
I2897
sg825
F0.0002129077911376953
sg826
F0.0008707046508789062
sg827
I62
sg828
I74
sa(dp832
g824
I2895
sg825
F0.00019598007202148438
sg826
F0.0006649494171142578
sg827
I59
sg828
I71
sa(dp833
g824
I2831
sg825
F0.00018405914306640625
sg826
F0.0005319118499755859
sg827
I57
sg828
I69
sa(dp834
g824
I15
sg825
F0.0031280517578125
sg826
F0.002565145492553711
sg827
I3
sg828
I3
sa(dp835
g824
I23
sg825
F0.004057884216308594
sg826
F0.00023293495178222656
sg827
I2
sg828
I2
sasS'total_cqs'
p836
I85
ssI72
(dp837
S'iters'
p838
I4
sS'meta'
p839
(lp840
(dp841
S'objective'
p842
I8
sS'query_time'
p843
F0.027452945709228516
sS'comp_time'
p844
F0.003794431686401367
sS'exec_cq'
p845
I4
sS'total_cq'
p846
I8
sa(dp847
g842
I4
sg843
F0.35417699813842773
sg844
F0.004757404327392578
sg845
I4
sg846
I6
sa(dp848
g842
I1
sg843
F0.00010013580322265625
sg844
F0.0004000663757324219
sg845
I2
sg846
I4
sa(dp849
g842
I4
sg843
F3.790855407714844e-05
sg844
F0.00021958351135253906
sg845
I2
sg846
I2
sasS'total_cqs'
p850
I8
ssI73
(dp851
S'iters'
p852
I0
sS'meta'
p853
(lp854
sS'total_cqs'
p855
I1
ssI74
(dp856
S'iters'
p857
I0
sS'meta'
p858
(lp859
sS'total_cqs'
p860
I1
ssI75
(dp861
S'iters'
p862
I4
sS'meta'
p863
(lp864
(dp865
S'objective'
p866
I5
sS'query_time'
p867
F0.012700796127319336
sS'comp_time'
p868
F0.0016498565673828125
sS'exec_cq'
p869
I5
sS'total_cq'
p870
I5
sa(dp871
g866
I2
sg867
F2.384185791015625e-05
sg868
F0.00010418891906738281
sg869
I4
sg870
I4
sa(dp872
g866
I0
sg867
F1.7881393432617188e-05
sg868
F7.82012939453125e-05
sg869
I3
sg870
I3
sa(dp873
g866
I1
sg867
F1.5020370483398438e-05
sg868
F6.818771362304688e-05
sg869
I2
sg870
I2
sasS'total_cqs'
p874
I5
ssI76
(dp875
S'iters'
p876
I1
sS'meta'
p877
(lp878
(dp879
S'objective'
p880
I1
sS'query_time'
p881
F0.011050939559936523
sS'comp_time'
p882
F0.0009400844573974609
sS'exec_cq'
p883
I2
sS'total_cq'
p884
I2
sasS'total_cqs'
p885
I2
ssI77
(dp886
S'iters'
p887
I0
sS'meta'
p888
(lp889
sS'total_cqs'
p890
I1
ssI78
(dp891
S'iters'
p892
I0
sS'meta'
p893
(lp894
sS'total_cqs'
p895
I1
ssI103
(dp896
S'iters'
p897
I2
sS'meta'
p898
(lp899
(dp900
S'objective'
p901
I54
sS'query_time'
p902
F0.06415915489196777
sS'comp_time'
p903
F0.01572561264038086
sS'exec_cq'
p904
I12
sS'total_cq'
p905
I12
sa(dp906
g901
I64
sg902
F6.198883056640625e-05
sg903
F0.00019812583923339844
sg904
I11
sg905
I11
sasS'total_cqs'
p907
I12
ssI104
(dp908
S'iters'
p909
I2
sS'meta'
p910
(lp911
(dp912
S'objective'
p913
I0
sS'query_time'
p914
F1.269171953201294
sS'comp_time'
p915
F0.16251182556152344
sS'exec_cq'
p916
I4
sS'total_cq'
p917
I4
sa(dp918
g913
I3
sg914
F0.011065006256103516
sg915
F0.14988231658935547
sg916
I2
sg917
I2
sasS'total_cqs'
p919
I4
ssI105
(dp920
S'iters'
p921
I0
sS'meta'
p922
(lp923
sS'total_cqs'
p924
I1
ssI106
(dp925
S'iters'
p926
I1
sS'meta'
p927
(lp928
(dp929
S'objective'
p930
I8
sS'query_time'
p931
F0.019494056701660156
sS'comp_time'
p932
F0.001809835433959961
sS'exec_cq'
p933
I4
sS'total_cq'
p934
I4
sasS'total_cqs'
p935
I4
ssI107
(dp936
S'iters'
p937
I2
sS'meta'
p938
(lp939
(dp940
S'objective'
p941
I90
sS'query_time'
p942
F0.09432220458984375
sS'comp_time'
p943
F0.0196688175201416
sS'exec_cq'
p944
I16
sS'total_cq'
p945
I16
sa(dp946
g941
I21
sg942
F0.007644176483154297
sg943
F0.0004985332489013672
sg944
I3
sg945
I3
sasS'total_cqs'
p947
I16
ssI108
(dp948
S'iters'
p949
I0
sS'meta'
p950
(lp951
sS'total_cqs'
p952
I1
ss.