(dp0
I1
(dp1
S'iters'
p2
I4
sS'meta'
p3
(lp4
(dp5
S'objective'
p6
I58
sS'query_time'
p7
F0.03359699249267578
sS'comp_time'
p8
F0.020589113235473633
sS'exec_cq'
p9
I12
sS'total_cq'
p10
I12
sa(dp11
g6
I48
sg7
F5.91278076171875e-05
sg8
F0.00019407272338867188
sg9
I10
sg10
I10
sa(dp12
g6
I44
sg7
F4.00543212890625e-05
sg8
F0.0001049041748046875
sg9
I9
sg10
I9
sa(dp13
g6
I43
sg7
F4.100799560546875e-05
sg8
F0.0001010894775390625
sg9
I8
sg10
I8
sasS'total_cqs'
p14
I12
ssI2
(dp15
S'iters'
p16
I7
sS'meta'
p17
(lp18
(dp19
S'objective'
p20
I264
sS'query_time'
p21
F0.06691288948059082
sS'comp_time'
p22
F0.03403186798095703
sS'exec_cq'
p23
I14
sS'total_cq'
p24
I27
sa(dp25
g20
I257
sg21
F6.890296936035156e-05
sg22
F0.0003669261932373047
sg23
I11
sg24
I24
sa(dp26
g20
I189
sg21
F0.05635499954223633
sg22
F0.0005805492401123047
sg23
I13
sg24
I22
sa(dp27
g20
I189
sg21
F7.510185241699219e-05
sg22
F0.00037407875061035156
sg23
I9
sg24
I19
sa(dp28
g20
I204
sg21
F4.00543212890625e-05
sg22
F0.0002143383026123047
sg23
I7
sg24
I17
sa(dp29
g20
I161
sg21
F7.891654968261719e-05
sg22
F0.00031113624572753906
sg23
I10
sg24
I16
sa(dp30
g20
I169
sg21
F6.222724914550781e-05
sg22
F0.00016427040100097656
sg23
I14
sg24
I14
sasS'total_cqs'
p31
I27
ssI3
(dp32
S'iters'
p33
I4
sS'meta'
p34
(lp35
(dp36
S'objective'
p37
I342
sS'query_time'
p38
F75.71844387054443
sS'comp_time'
p39
F0.5658349990844727
sS'exec_cq'
p40
I16
sS'total_cq'
p41
I43
sa(dp42
g37
I40
sg38
F108.29704403877258
sg39
F2.399972677230835
sg40
I14
sg41
I27
sa(dp43
g37
I20
sg38
F42.13612484931946
sg39
F0.6667776107788086
sg40
I9
sg41
I13
sa(dp44
g37
I137
sg38
F11.21641206741333
sg39
F0.002358675003051758
sg40
I6
sg41
I6
sasS'total_cqs'
p45
I43
ssI4
(dp46
S'iters'
p47
I2
sS'meta'
p48
(lp49
(dp50
S'objective'
p51
I54
sS'query_time'
p52
F4.910093069076538
sS'comp_time'
p53
F1.0184080600738525
sS'exec_cq'
p54
I11
sS'total_cq'
p55
I11
sa(dp56
g51
I2
sg52
F0.20281314849853516
sg53
F1.0896902084350586
sg54
I2
sg55
I2
sasS'total_cqs'
p57
I11
ssI5
(dp58
S'iters'
p59
I3
sS'meta'
p60
(lp61
(dp62
S'objective'
p63
I0
sS'query_time'
p64
F34.28698182106018
sS'comp_time'
p65
F5.014998912811279
sS'exec_cq'
p66
I8
sS'total_cq'
p67
I8
sa(dp68
g63
I0
sg64
F1.073498010635376
sg65
F3.452029228210449
sg66
I4
sg67
I4
sa(dp69
g63
I3
sg64
F0.28284502029418945
sg65
F1.153075933456421
sg66
I2
sg67
I2
sasS'total_cqs'
p70
I8
ssI6
(dp71
S'iters'
p72
I4
sS'meta'
p73
(lp74
(dp75
S'objective'
p76
I53
sS'query_time'
p77
F36.708698987960815
sS'comp_time'
p78
F4.40225887298584
sS'exec_cq'
p79
I18
sS'total_cq'
p80
I18
sa(dp81
g76
I1
sg77
F0.6683459281921387
sg78
F3.4782700538635254
sg79
I7
sg80
I7
sa(dp82
g76
I7
sg77
F0.018018007278442383
sg78
F0.08906388282775879
sg79
I3
sg80
I3
sa(dp83
g76
I1
sg77
F0.012290000915527344
sg78
F0.2535228729248047
sg79
I2
sg80
I2
sasS'total_cqs'
p84
I18
ssI7
(dp85
S'iters'
p86
I4
sS'meta'
p87
(lp88
(dp89
S'objective'
p90
I1
sS'query_time'
p91
F12.318286180496216
sS'comp_time'
p92
F1.9331181049346924
sS'exec_cq'
p93
I9
sS'total_cq'
p94
I9
sa(dp95
g90
I0
sg91
F0.013605117797851562
sg92
F0.2213139533996582
sg93
I5
sg94
I5
sa(dp96
g90
I1
sg91
F0.004722118377685547
sg92
F0.02395915985107422
sg93
I3
sg94
I3
sa(dp97
g90
I3
sg91
F0.0033540725708007812
sg92
F0.020932674407958984
sg93
I2
sg94
I2
sasS'total_cqs'
p98
I9
ssI8
(dp99
S'iters'
p100
I5
sS'meta'
p101
(lp102
(dp103
S'objective'
p104
I242
sS'query_time'
p105
F0.08719491958618164
sS'comp_time'
p106
F0.031177043914794922
sS'exec_cq'
p107
I14
sS'total_cq'
p108
I27
sa(dp109
g104
I168
sg105
F0.07006096839904785
sg106
F0.0009391307830810547
sg107
I13
sg108
I22
sa(dp110
g104
I201
sg105
F6.29425048828125e-05
sg106
F0.0002720355987548828
sg107
I9
sg108
I19
sa(dp111
g104
I196
sg105
F7.796287536621094e-05
sg106
F0.00021386146545410156
sg107
I10
sg108
I18
sa(dp112
g104
I192
sg105
F5.793571472167969e-05
sg106
F0.00016736984252929688
sg107
I9
sg108
I17
sasS'total_cqs'
p113
I27
ssI9
(dp114
S'iters'
p115
I3
sS'meta'
p116
(lp117
(dp118
S'objective'
p119
I4
sS'query_time'
p120
F0.04591822624206543
sS'comp_time'
p121
F0.004632234573364258
sS'exec_cq'
p122
I7
sS'total_cq'
p123
I7
sa(dp124
g119
I4
sg120
F2.6941299438476562e-05
sg121
F0.00019502639770507812
sg122
I4
sg123
I4
sa(dp125
g119
I2
sg120
F1.4066696166992188e-05
sg121
F7.200241088867188e-05
sg122
I2
sg123
I2
sasS'total_cqs'
p126
I7
ssI10
(dp127
S'iters'
p128
I7
sS'meta'
p129
(lp130
(dp131
S'objective'
p132
I714
sS'query_time'
p133
F0.16645503044128418
sS'comp_time'
p134
F0.09176278114318848
sS'exec_cq'
p135
I28
sS'total_cq'
p136
I51
sa(dp137
g132
I296
sg133
F0.1438589096069336
sg134
F0.0017032623291015625
sg135
I23
sg136
I37
sa(dp138
g132
I4
sg133
F0.0020830631256103516
sg134
F0.001190185546875
sg135
I12
sg136
I12
sa(dp139
g132
I5
sg133
F0.00010204315185546875
sg134
F0.0004818439483642578
sg135
I8
sg136
I8
sa(dp140
g132
I5
sg133
F4.601478576660156e-05
sg134
F0.00022292137145996094
sg135
I5
sg136
I5
sa(dp141
g132
I3
sg133
F2.7894973754882812e-05
sg134
F0.000164031982421875
sg135
I3
sg136
I3
sa(dp142
g132
I6
sg133
F1.4781951904296875e-05
sg134
F7.891654968261719e-05
sg135
I2
sg136
I2
sasS'total_cqs'
p143
I51
ssI11
(dp144
S'iters'
p145
I5
sS'meta'
p146
(lp147
(dp148
S'objective'
p149
I976
sS'query_time'
p150
F0.591278076171875
sS'comp_time'
p151
F0.17576932907104492
sS'exec_cq'
p152
I63
sS'total_cq'
p153
I63
sa(dp154
g149
I872
sg150
F0.0013170242309570312
sg151
F0.006884336471557617
sg152
I47
sg153
I47
sa(dp155
g149
I8
sg150
F0.0016360282897949219
sg151
F0.002749919891357422
sg152
I9
sg153
I9
sa(dp156
g149
I16
sg150
F3.3855438232421875e-05
sg151
F0.000213623046875
sg152
I4
sg153
I4
sa(dp157
g149
I38
sg150
F1.811981201171875e-05
sg151
F0.00015783309936523438
sg152
I2
sg153
I2
sasS'total_cqs'
p158
I63
ssI12
(dp159
S'iters'
p160
I8
sS'meta'
p161
(lp162
(dp163
S'objective'
p164
I373
sS'query_time'
p165
F0.1710648536682129
sS'comp_time'
p166
F0.08361601829528809
sS'exec_cq'
p167
I28
sS'total_cq'
p168
I50
sa(dp169
g164
I444
sg165
F0.18180108070373535
sg166
F0.003551006317138672
sg167
I22
sg168
I33
sa(dp170
g164
I460
sg165
F0.00020694732666015625
sg166
F0.0011022090911865234
sg167
I16
sg168
I27
sa(dp171
g164
I417
sg165
F0.0001418590545654297
sg166
F0.00044465065002441406
sg167
I13
sg168
I24
sa(dp172
g164
I340
sg165
F9.512901306152344e-05
sg166
F0.000431060791015625
sg167
I11
sg168
I22
sa(dp173
g164
I329
sg165
F9.799003601074219e-05
sg166
F0.00036525726318359375
sg167
I11
sg168
I19
sa(dp174
g164
I338
sg165
F5.0067901611328125e-05
sg166
F0.0002446174621582031
sg167
I9
sg168
I17
sa(dp175
g164
I12
sg165
F0.0022649765014648438
sg166
F0.0004067420959472656
sg167
I2
sg168
I2
sasS'total_cqs'
p176
I50
ssI13
(dp177
S'iters'
p178
I5
sS'meta'
p179
(lp180
(dp181
S'objective'
p182
I24
sS'query_time'
p183
F0.14538192749023438
sS'comp_time'
p184
F0.0276336669921875
sS'exec_cq'
p185
I20
sS'total_cq'
p186
I20
sa(dp187
g182
I1
sg183
F0.0021820068359375
sg184
F0.0007722377777099609
sg185
I11
sg186
I11
sa(dp188
g182
I6
sg183
F4.291534423828125e-05
sg184
F0.00023126602172851562
sg185
I5
sg186
I5
sa(dp189
g182
I12
sg183
F2.193450927734375e-05
sg184
F0.00011682510375976562
sg185
I3
sg186
I3
sa(dp190
g182
I5
sg183
F1.6927719116210938e-05
sg184
F8.177757263183594e-05
sg185
I2
sg186
I2
sasS'total_cqs'
p191
I20
ssI14
(dp192
S'iters'
p193
I3
sS'meta'
p194
(lp195
(dp196
S'objective'
p197
I1
sS'query_time'
p198
F33.17940306663513
sS'comp_time'
p199
F2.0761168003082275
sS'exec_cq'
p200
I9
sS'total_cq'
p201
I9
sa(dp202
g197
I2
sg198
F0.006100893020629883
sg199
F0.19869613647460938
sg200
I4
sg201
I4
sa(dp203
g197
I4
sg198
F0.00545811653137207
sg199
F0.032015085220336914
sg200
I2
sg201
I2
sasS'total_cqs'
p204
I9
ssI15
(dp205
S'iters'
p206
I4
sS'meta'
p207
(lp208
(dp209
S'objective'
p210
I0
sS'query_time'
p211
F4.064439058303833
sS'comp_time'
p212
F0.41860270500183105
sS'exec_cq'
p213
I11
sS'total_cq'
p214
I11
sa(dp215
g210
I1
sg211
F0.028926849365234375
sg212
F0.22406506538391113
sg213
I5
sg214
I5
sa(dp216
g210
I4
sg211
F0.02588200569152832
sg212
F0.2946889400482178
sg213
I3
sg214
I3
sa(dp217
g210
I2
sg211
F0.014221906661987305
sg212
F0.07969832420349121
sg213
I2
sg214
I2
sasS'total_cqs'
p218
I11
ssI16
(dp219
S'iters'
p220
I1
sS'meta'
p221
(lp222
(dp223
S'objective'
p224
I30
sS'query_time'
p225
F0.031021833419799805
sS'comp_time'
p226
F0.006589174270629883
sS'exec_cq'
p227
I8
sS'total_cq'
p228
I8
sasS'total_cqs'
p229
I8
ssI17
(dp230
S'iters'
p231
I4
sS'meta'
p232
(lp233
(dp234
S'objective'
p235
I2
sS'query_time'
p236
F0.9015049934387207
sS'comp_time'
p237
F0.04900860786437988
sS'exec_cq'
p238
I11
sS'total_cq'
p239
I11
sa(dp240
g235
I0
sg236
F0.008574962615966797
sg237
F0.028535127639770508
sg238
I6
sg239
I6
sa(dp241
g235
I5
sg236
F0.0025129318237304688
sg237
F0.15202593803405762
sg238
I3
sg239
I3
sa(dp242
g235
I2
sg236
F0.001931905746459961
sg237
F0.011256933212280273
sg238
I2
sg239
I2
sasS'total_cqs'
p243
I11
ssI18
(dp244
S'iters'
p245
I3
sS'meta'
p246
(lp247
(dp248
S'objective'
p249
I46
sS'query_time'
p250
F0.11448788642883301
sS'comp_time'
p251
F0.021869182586669922
sS'exec_cq'
p252
I5
sS'total_cq'
p253
I11
sa(dp254
g249
I12
sg250
F0.007364988327026367
sg251
F0.006818056106567383
sg252
I5
sg253
I10
sa(dp255
g249
I26
sg250
F0.1004788875579834
sg251
F0.0004839897155761719
sg252
I7
sg253
I7
sasS'total_cqs'
p256
I11
ssI19
(dp257
S'iters'
p258
I0
sS'meta'
p259
(lp260
sS'total_cqs'
p261
I1
ssI20
(dp262
S'iters'
p263
I0
sS'meta'
p264
(lp265
sS'total_cqs'
p266
I1
ssI21
(dp267
S'iters'
p268
I0
sS'meta'
p269
(lp270
sS'total_cqs'
p271
I1
ssI22
(dp272
S'iters'
p273
I1
sS'meta'
p274
(lp275
(dp276
S'objective'
p277
I159
sS'query_time'
p278
F0.052503108978271484
sS'comp_time'
p279
F0.028146028518676758
sS'exec_cq'
p280
I18
sS'total_cq'
p281
I18
sasS'total_cqs'
p282
I18
ssI23
(dp283
S'iters'
p284
I3
sS'meta'
p285
(lp286
(dp287
S'objective'
p288
I88
sS'query_time'
p289
F0.07854795455932617
sS'comp_time'
p290
F0.028201818466186523
sS'exec_cq'
p291
I8
sS'total_cq'
p292
I16
sa(dp293
g288
I80
sg289
F0.027987957000732422
sg290
F0.0005249977111816406
sg291
I8
sg292
I14
sa(dp294
g288
I86
sg289
F3.409385681152344e-05
sg290
F9.989738464355469e-05
sg291
I7
sg292
I13
sasS'total_cqs'
p295
I16
ssI24
(dp296
S'iters'
p297
I0
sS'meta'
p298
(lp299
sS'total_cqs'
p300
I1
ssI25
(dp301
S'iters'
p302
I0
sS'meta'
p303
(lp304
sS'total_cqs'
p305
I1
ssI26
(dp306
S'iters'
p307
I1
sS'meta'
p308
(lp309
(dp310
S'objective'
p311
I879
sS'query_time'
p312
F0.1601240634918213
sS'comp_time'
p313
F0.09693384170532227
sS'exec_cq'
p314
I42
sS'total_cq'
p315
I42
sasS'total_cqs'
p316
I42
ssI27
(dp317
S'iters'
p318
I4
sS'meta'
p319
(lp320
(dp321
S'objective'
p322
I273
sS'query_time'
p323
F23.08191204071045
sS'comp_time'
p324
F3.9434566497802734
sS'exec_cq'
p325
I30
sS'total_cq'
p326
I30
sa(dp327
g322
I10
sg323
F0.6211810111999512
sg324
F3.6743621826171875
sg325
I5
sg326
I5
sa(dp328
g322
I15
sg323
F0.07178616523742676
sg324
F0.957942008972168
sg325
I3
sg326
I3
sa(dp329
g322
I4
sg323
F0.011106014251708984
sg324
F0.18518447875976562
sg325
I2
sg326
I2
sasS'total_cqs'
p330
I30
ssI28
(dp331
S'iters'
p332
I0
sS'meta'
p333
(lp334
sS'total_cqs'
p335
I1
ssI29
(dp336
S'iters'
p337
I6
sS'meta'
p338
(lp339
(dp340
S'objective'
p341
I439
sS'query_time'
p342
F27.987478017807007
sS'comp_time'
p343
F0.7384545803070068
sS'exec_cq'
p344
I35
sS'total_cq'
p345
I49
sa(dp346
g341
I11
sg342
F0.06027698516845703
sg343
F0.5193910598754883
sg344
I17
sg345
I17
sa(dp347
g341
I1
sg342
F0.051390886306762695
sg343
F0.5013811588287354
sg344
I9
sg345
I9
sa(dp348
g341
I0
sg342
F0.012245893478393555
sg343
F0.053880929946899414
sg344
I6
sg345
I6
sa(dp349
g341
I2
sg342
F0.10345292091369629
sg343
F0.030368804931640625
sg344
I4
sg345
I4
sa(dp350
g341
I3
sg342
F0.0018339157104492188
sg343
F0.00894618034362793
sg344
I3
sg345
I3
sasS'total_cqs'
p351
I49
ssI30
(dp352
S'iters'
p353
I1
sS'meta'
p354
(lp355
(dp356
S'objective'
p357
I1
sS'query_time'
p358
F0.6558840274810791
sS'comp_time'
p359
F0.04055500030517578
sS'exec_cq'
p360
I2
sS'total_cq'
p361
I2
sasS'total_cqs'
p362
I2
ssI31
(dp363
S'iters'
p364
I0
sS'meta'
p365
(lp366
sS'total_cqs'
p367
I1
ssI32
(dp368
S'iters'
p369
I1
sS'meta'
p370
(lp371
(dp372
S'objective'
p373
I1
sS'query_time'
p374
F0.012994050979614258
sS'comp_time'
p375
F0.0019211769104003906
sS'exec_cq'
p376
I2
sS'total_cq'
p377
I2
sasS'total_cqs'
p378
I2
ssI33
(dp379
S'iters'
p380
I6
sS'meta'
p381
(lp382
(dp383
S'objective'
p384
I3528
sS'query_time'
p385
F15.57687497138977
sS'comp_time'
p386
F1.0980231761932373
sS'exec_cq'
p387
I103
sS'total_cq'
p388
I103
sa(dp389
g384
I24
sg385
F0.009279012680053711
sg386
F0.325911283493042
sg387
I16
sg388
I16
sa(dp390
g384
I15
sg385
F0.0038878917694091797
sg386
F0.015967130661010742
sg387
I9
sg388
I9
sa(dp391
g384
I9
sg385
F0.002131938934326172
sg386
F0.007809638977050781
sg387
I5
sg388
I5
sa(dp392
g384
I42
sg385
F0.0005741119384765625
sg386
F0.003503084182739258
sg387
I3
sg388
I3
sa(dp393
g384
I16
sg385
F0.00023293495178222656
sg386
F0.001753091812133789
sg387
I2
sg388
I2
sasS'total_cqs'
p394
I103
ssI34
(dp395
S'iters'
p396
I1
sS'meta'
p397
(lp398
(dp399
S'objective'
p400
I1
sS'query_time'
p401
F0.014445066452026367
sS'comp_time'
p402
F0.002077341079711914
sS'exec_cq'
p403
I2
sS'total_cq'
p404
I2
sasS'total_cqs'
p405
I2
ssI35
(dp406
S'iters'
p407
I6
sS'meta'
p408
(lp409
(dp410
S'objective'
p411
I1555
sS'query_time'
p412
F22.13431191444397
sS'comp_time'
p413
F0.28711509704589844
sS'exec_cq'
p414
I50
sS'total_cq'
p415
I70
sa(dp416
g411
I13
sg412
F0.09877300262451172
sg413
F0.014821290969848633
sg414
I16
sg415
I16
sa(dp417
g411
I1
sg412
F0.0034410953521728516
sg413
F0.010798215866088867
sg414
I11
sg415
I11
sa(dp418
g411
I10
sg412
F0.0013110637664794922
sg413
F0.004808187484741211
sg414
I4
sg415
I4
sa(dp419
g411
I5
sg412
F0.0005528926849365234
sg413
F0.0033659934997558594
sg414
I3
sg415
I3
sa(dp420
g411
I8
sg412
F0.00029397010803222656
sg413
F0.0022051334381103516
sg414
I2
sg415
I2
sasS'total_cqs'
p421
I70
ssI36
(dp422
S'iters'
p423
I2
sS'meta'
p424
(lp425
(dp426
S'objective'
p427
I427
sS'query_time'
p428
F0.7959461212158203
sS'comp_time'
p429
F0.17084240913391113
sS'exec_cq'
p430
I33
sS'total_cq'
p431
I33
sa(dp432
g427
I474
sg428
F0.005772829055786133
sg429
F0.008369922637939453
sg430
I28
sg431
I29
sasS'total_cqs'
p433
I33
ssI37
(dp434
S'iters'
p435
I1
sS'meta'
p436
(lp437
(dp438
S'objective'
p439
I1
sS'query_time'
p440
F0.009278059005737305
sS'comp_time'
p441
F0.0018951892852783203
sS'exec_cq'
p442
I2
sS'total_cq'
p443
I2
sasS'total_cqs'
p444
I2
ssI38
(dp445
S'iters'
p446
I2
sS'meta'
p447
(lp448
(dp449
S'objective'
p450
I0
sS'query_time'
p451
F0.026242971420288086
sS'comp_time'
p452
F0.002450227737426758
sS'exec_cq'
p453
I4
sS'total_cq'
p454
I4
sa(dp455
g450
I1
sg451
F0.00010013580322265625
sg452
F0.0004811286926269531
sg453
I2
sg454
I2
sasS'total_cqs'
p456
I4
ssI39
(dp457
S'iters'
p458
I2
sS'meta'
p459
(lp460
(dp461
S'objective'
p462
I728
sS'query_time'
p463
F0.19101500511169434
sS'comp_time'
p464
F0.1423497200012207
sS'exec_cq'
p465
I44
sS'total_cq'
p466
I44
sa(dp467
g462
I835
sg463
F0.00033593177795410156
sg464
F0.0019075870513916016
sg465
I37
sg466
I37
sasS'total_cqs'
p468
I44
ssI40
(dp469
S'iters'
p470
I1
sS'meta'
p471
(lp472
(dp473
S'objective'
p474
I22
sS'query_time'
p475
F0.029538869857788086
sS'comp_time'
p476
F0.005921125411987305
sS'exec_cq'
p477
I7
sS'total_cq'
p478
I7
sasS'total_cqs'
p479
I7
ssI41
(dp480
S'iters'
p481
I1
sS'meta'
p482
(lp483
(dp484
S'objective'
p485
I70
sS'query_time'
p486
F0.06859588623046875
sS'comp_time'
p487
F0.016106605529785156
sS'exec_cq'
p488
I12
sS'total_cq'
p489
I12
sasS'total_cqs'
p490
I12
ssI42
(dp491
S'iters'
p492
I4
sS'meta'
p493
(lp494
(dp495
S'objective'
p496
I809
sS'query_time'
p497
F0.05489015579223633
sS'comp_time'
p498
F0.14952802658081055
sS'exec_cq'
p499
I20
sS'total_cq'
p500
I41
sa(dp501
g496
I797
sg497
F0.03160214424133301
sg498
F0.0002791881561279297
sg499
I21
sg500
I40
sa(dp502
g496
I770
sg497
F0.00014901161193847656
sg498
F0.00019216537475585938
sg499
I29
sg500
I39
sa(dp503
g496
I769
sg497
F0.00011610984802246094
sg498
F0.0001461505889892578
sg499
I28
sg500
I38
sasS'total_cqs'
p504
I41
ssI43
(dp505
S'iters'
p506
I1
sS'meta'
p507
(lp508
(dp509
S'objective'
p510
I22
sS'query_time'
p511
F0.03834819793701172
sS'comp_time'
p512
F0.0059468746185302734
sS'exec_cq'
p513
I7
sS'total_cq'
p514
I7
sasS'total_cqs'
p515
I7
ssI44
(dp516
S'iters'
p517
I4
sS'meta'
p518
(lp519
(dp520
S'objective'
p521
I952
sS'query_time'
p522
F0.2676970958709717
sS'comp_time'
p523
F0.10279989242553711
sS'exec_cq'
p524
I47
sS'total_cq'
p525
I47
sa(dp526
g521
I874
sg522
F0.00032019615173339844
sg523
F0.001617431640625
sg524
I40
sg525
I40
sa(dp527
g521
I3
sg522
F0.002315998077392578
sg523
F0.002164125442504883
sg524
I3
sg525
I3
sa(dp528
g521
I14
sg522
F3.504753112792969e-05
sg523
F0.00016880035400390625
sg524
I2
sg525
I2
sasS'total_cqs'
p529
I47
ssI45
(dp530
S'iters'
p531
I0
sS'meta'
p532
(lp533
sS'total_cqs'
p534
I1
ssI46
(dp535
S'iters'
p536
I1
sS'meta'
p537
(lp538
(dp539
S'objective'
p540
I15
sS'query_time'
p541
F0.02433300018310547
sS'comp_time'
p542
F0.002892017364501953
sS'exec_cq'
p543
I6
sS'total_cq'
p544
I6
sasS'total_cqs'
p545
I6
ssI47
(dp546
S'iters'
p547
I1
sS'meta'
p548
(lp549
(dp550
S'objective'
p551
I1
sS'query_time'
p552
F0.008743047714233398
sS'comp_time'
p553
F0.001196146011352539
sS'exec_cq'
p554
I2
sS'total_cq'
p555
I2
sasS'total_cqs'
p556
I2
ssI48
(dp557
S'iters'
p558
I0
sS'meta'
p559
(lp560
sS'total_cqs'
p561
I1
ssI49
(dp562
S'iters'
p563
I0
sS'meta'
p564
(lp565
sS'total_cqs'
p566
I1
ssI50
(dp567
S'iters'
p568
I3
sS'meta'
p569
(lp570
(dp571
S'objective'
p572
I5
sS'query_time'
p573
F0.03408098220825195
sS'comp_time'
p574
F0.0027458667755126953
sS'exec_cq'
p575
I5
sS'total_cq'
p576
I5
sa(dp577
g572
I2
sg573
F2.6941299438476562e-05
sg574
F0.00012564659118652344
sg575
I4
sg576
I4
sa(dp578
g572
I0
sg573
F2.002716064453125e-05
sg574
F9.393692016601562e-05
sg575
I3
sg576
I3
sasS'total_cqs'
p579
I5
ssI51
(dp580
S'iters'
p581
I1
sS'meta'
p582
(lp583
(dp584
S'objective'
p585
I1
sS'query_time'
p586
F0.008146047592163086
sS'comp_time'
p587
F0.0009641647338867188
sS'exec_cq'
p588
I2
sS'total_cq'
p589
I2
sasS'total_cqs'
p590
I2
ssI52
(dp591
S'iters'
p592
I1
sS'meta'
p593
(lp594
(dp595
S'objective'
p596
I1
sS'query_time'
p597
F0.010838985443115234
sS'comp_time'
p598
F0.0013871192932128906
sS'exec_cq'
p599
I2
sS'total_cq'
p600
I2
sasS'total_cqs'
p601
I2
ssI53
(dp602
S'iters'
p603
I3
sS'meta'
p604
(lp605
(dp606
S'objective'
p607
I2
sS'query_time'
p608
F0.03217506408691406
sS'comp_time'
p609
F0.005515575408935547
sS'exec_cq'
p610
I4
sS'total_cq'
p611
I4
sa(dp612
g607
I0
sg608
F6.890296936035156e-05
sg609
F0.00045680999755859375
sg610
I3
sg611
I3
sa(dp613
g607
I1
sg608
F6.198883056640625e-05
sg609
F0.00045013427734375
sg610
I2
sg611
I2
sasS'total_cqs'
p614
I4
ssI54
(dp615
S'iters'
p616
I2
sS'meta'
p617
(lp618
(dp619
S'objective'
p620
I0
sS'query_time'
p621
F0.009253978729248047
sS'comp_time'
p622
F0.0014545917510986328
sS'exec_cq'
p623
I3
sS'total_cq'
p624
I3
sa(dp625
g620
I1
sg621
F3.409385681152344e-05
sg622
F0.00022172927856445312
sg623
I2
sg624
I2
sasS'total_cqs'
p626
I3
ssI55
(dp627
S'iters'
p628
I9
sS'meta'
p629
(lp630
(dp631
S'objective'
p632
I4469
sS'query_time'
p633
F2.3148398399353027
sS'comp_time'
p634
F0.6521704196929932
sS'exec_cq'
p635
I109
sS'total_cq'
p636
I109
sa(dp637
g632
I4702
sg633
F0.0009419918060302734
sg634
F0.0043108463287353516
sg635
I97
sg636
I97
sa(dp638
g632
I4621
sg633
F0.00047206878662109375
sg634
F0.002089977264404297
sg635
I91
sg636
I91
sa(dp639
g632
I4542
sg633
F0.0003859996795654297
sg634
F0.0017371177673339844
sg635
I87
sg636
I87
sa(dp640
g632
I4476
sg633
F0.0004048347473144531
sg634
F0.001416921615600586
sg635
I85
sg636
I85
sa(dp641
g632
I4382
sg633
F0.00037407875061035156
sg634
F0.0012989044189453125
sg635
I83
sg636
I83
sa(dp642
g632
I4287
sg633
F0.0003139972686767578
sg634
F0.0012042522430419922
sg635
I81
sg636
I81
sa(dp643
g632
I4266
sg633
F0.0003361701965332031
sg634
F0.0007536411285400391
sg635
I80
sg636
I80
sa(dp644
g632
I4266
sg633
F0.000308990478515625
sg634
F0.000659942626953125
sg635
I79
sg636
I79
sasS'total_cqs'
p645
I109
ssI56
(dp646
S'iters'
p647
I5
sS'meta'
p648
(lp649
(dp650
S'objective'
p651
I1682
sS'query_time'
p652
F1.5464990139007568
sS'comp_time'
p653
F0.2604501247406006
sS'exec_cq'
p654
I67
sS'total_cq'
p655
I76
sa(dp656
g651
I10
sg652
F0.00799417495727539
sg653
F0.017690181732177734
sg654
I16
sg655
I16
sa(dp657
g651
I0
sg652
F0.003030061721801758
sg653
F0.010645389556884766
sg654
I8
sg655
I8
sa(dp658
g651
I1
sg652
F0.00044608116149902344
sg653
F0.0020411014556884766
sg654
I4
sg655
I4
sa(dp659
g651
I36
sg652
F0.00016498565673828125
sg653
F0.002401113510131836
sg654
I2
sg655
I2
sasS'total_cqs'
p660
I76
ssI57
(dp661
S'iters'
p662
I7
sS'meta'
p663
(lp664
(dp665
S'objective'
p666
I12
sS'query_time'
p667
F24.699036836624146
sS'comp_time'
p668
F0.4898838996887207
sS'exec_cq'
p669
I45
sS'total_cq'
p670
I51
sa(dp671
g666
I49
sg667
F0.01621103286743164
sg668
F0.033811330795288086
sg669
I27
sg670
I27
sa(dp672
g666
I8
sg667
F0.0024399757385253906
sg668
F0.007622241973876953
sg669
I12
sg670
I12
sa(dp673
g666
I0
sg667
F0.0014879703521728516
sg668
F0.004988193511962891
sg669
I6
sg670
I6
sa(dp674
g666
I10
sg667
F0.0005500316619873047
sg668
F0.0030257701873779297
sg669
I4
sg670
I4
sa(dp675
g666
I2
sg667
F0.0004999637603759766
sg668
F0.0028977394104003906
sg669
I3
sg670
I3
sa(dp676
g666
I12
sg667
F0.00019097328186035156
sg668
F0.0012035369873046875
sg669
I2
sg670
I2
sasS'total_cqs'
p677
I51
ssI58
(dp678
S'iters'
p679
I7
sS'meta'
p680
(lp681
(dp682
S'objective'
p683
I81273
sS'query_time'
p684
F113.85455894470215
sS'comp_time'
p685
F15.67009973526001
sS'exec_cq'
p686
I348
sS'total_cq'
p687
I486
sa(dp688
g683
I88535
sg684
F0.03786301612854004
sg685
F1.2684078216552734
sg686
I276
sg687
I414
sa(dp689
g683
I66
sg684
F0.006821155548095703
sg685
F0.0696864128112793
sg686
I24
sg687
I24
sa(dp690
g683
I57
sg684
F0.0008180141448974609
sg685
F0.0032095909118652344
sg686
I12
sg687
I12
sa(dp691
g683
I0
sg684
F0.00030112266540527344
sg685
F0.001547098159790039
sg686
I8
sg687
I8
sa(dp692
g683
I122
sg684
F0.00016307830810546875
sg685
F0.0014863014221191406
sg686
I3
sg687
I3
sa(dp693
g683
I34
sg684
F0.00013589859008789062
sg685
F0.0009756088256835938
sg686
I2
sg687
I2
sasS'total_cqs'
p694
I486
ssI59
(dp695
S'iters'
p696
I2
sS'meta'
p697
(lp698
(dp699
S'objective'
p700
I20
sS'query_time'
p701
F0.04582619667053223
sS'comp_time'
p702
F0.01550149917602539
sS'exec_cq'
p703
I7
sS'total_cq'
p704
I7
sa(dp705
g700
I2
sg701
F0.00016498565673828125
sg702
F0.001069784164428711
sg703
I2
sg704
I2
sasS'total_cqs'
p706
I7
ssI60
(dp707
S'iters'
p708
I1
sS'meta'
p709
(lp710
(dp711
S'objective'
p712
I9
sS'query_time'
p713
F0.01630377769470215
sS'comp_time'
p714
F0.003522157669067383
sS'exec_cq'
p715
I3
sS'total_cq'
p716
I5
sasS'total_cqs'
p717
I5
ssI61
(dp718
S'iters'
p719
I0
sS'meta'
p720
(lp721
sS'total_cqs'
p722
I1
ssI62
(dp723
S'iters'
p724
I3
sS'meta'
p725
(lp726
(dp727
S'objective'
p728
I54
sS'query_time'
p729
F0.0353548526763916
sS'comp_time'
p730
F0.017642974853515625
sS'exec_cq'
p731
I12
sS'total_cq'
p732
I12
sa(dp733
g728
I56
sg729
F4.410743713378906e-05
sg730
F0.00019407272338867188
sg731
I9
sg732
I9
sa(dp734
g728
I53
sg729
F3.2901763916015625e-05
sg730
F8.797645568847656e-05
sg731
I8
sg732
I8
sasS'total_cqs'
p735
I12
ssI63
(dp736
S'iters'
p737
I0
sS'meta'
p738
(lp739
sS'total_cqs'
p740
I1
ssI64
(dp741
S'iters'
p742
I3
sS'meta'
p743
(lp744
(dp745
S'objective'
p746
I14
sS'query_time'
p747
F0.11773204803466797
sS'comp_time'
p748
F0.13361001014709473
sS'exec_cq'
p749
I12
sS'total_cq'
p750
I12
sa(dp751
g746
I2
sg747
F0.00020194053649902344
sg748
F0.0012600421905517578
sg749
I4
sg750
I4
sa(dp752
g746
I7
sg747
F0.00012612342834472656
sg748
F0.0008389949798583984
sg749
I2
sg750
I2
sasS'total_cqs'
p753
I12
ssI65
(dp754
S'iters'
p755
I5
sS'meta'
p756
(lp757
(dp758
S'objective'
p759
I158
sS'query_time'
p760
F0.9117600917816162
sS'comp_time'
p761
F0.3496279716491699
sS'exec_cq'
p762
I27
sS'total_cq'
p763
I27
sa(dp764
g759
I4
sg760
F0.002117156982421875
sg761
F0.007697343826293945
sg762
I7
sg763
I7
sa(dp765
g759
I7
sg760
F0.001483917236328125
sg761
F0.0060808658599853516
sg762
I5
sg763
I5
sa(dp766
g759
I3
sg760
F0.0005249977111816406
sg761
F0.003794431686401367
sg762
I3
sg763
I3
sa(dp767
g759
I5
sg760
F0.0001850128173828125
sg761
F0.0012750625610351562
sg762
I2
sg763
I2
sasS'total_cqs'
p768
I27
ssI66
(dp769
S'iters'
p770
I0
sS'meta'
p771
(lp772
sS'total_cqs'
p773
I1
ssI67
(dp774
S'iters'
p775
I2
sS'meta'
p776
(lp777
(dp778
S'objective'
p779
I606
sS'query_time'
p780
F1.0292041301727295
sS'comp_time'
p781
F0.11442804336547852
sS'exec_cq'
p782
I35
sS'total_cq'
p783
I35
sa(dp784
g779
I8
sg780
F0.0011789798736572266
sg781
F0.006680011749267578
sg782
I2
sg783
I2
sasS'total_cqs'
p785
I35
ssI68
(dp786
S'iters'
p787
I0
sS'meta'
p788
(lp789
sS'total_cqs'
p790
I1
ssI69
(dp791
S'iters'
p792
I1
sS'meta'
p793
(lp794
(dp795
S'objective'
p796
I1298
sS'query_time'
p797
F0.1666109561920166
sS'comp_time'
p798
F0.22168612480163574
sS'exec_cq'
p799
I51
sS'total_cq'
p800
I51
sasS'total_cqs'
p801
I51
ssI70
(dp802
S'iters'
p803
I2
sS'meta'
p804
(lp805
(dp806
S'objective'
p807
I11
sS'query_time'
p808
F0.019845962524414062
sS'comp_time'
p809
F0.003611326217651367
sS'exec_cq'
p810
I6
sS'total_cq'
p811
I6
sa(dp812
g807
I10
sg808
F5.1021575927734375e-05
sg809
F0.0002720355987548828
sg810
I5
sg811
I5
sasS'total_cqs'
p813
I6
ssI71
(dp814
S'iters'
p815
I6
sS'meta'
p816
(lp817
(dp818
S'objective'
p819
I3233
sS'query_time'
p820
F0.32037997245788574
sS'comp_time'
p821
F0.22142386436462402
sS'exec_cq'
p822
I73
sS'total_cq'
p823
I85
sa(dp824
g819
I3084
sg820
F0.0002949237823486328
sg821
F0.0011470317840576172
sg822
I69
sg823
I81
sa(dp825
g819
I2912
sg820
F0.0003650188446044922
sg821
F0.001355886459350586
sg822
I65
sg823
I77
sa(dp826
g819
I2798
sg820
F0.0003409385681152344
sg821
F0.0011074542999267578
sg822
I62
sg823
I74
sa(dp827
g819
I9
sg820
F0.0026540756225585938
sg821
F0.0038368701934814453
sg822
I3
sg823
I3
sa(dp828
g819
I31
sg820
F0.004279136657714844
sg821
F0.0003707408905029297
sg822
I2
sg823
I2
sasS'total_cqs'
p829
I85
ssI72
(dp830
S'iters'
p831
I3
sS'meta'
p832
(lp833
(dp834
S'objective'
p835
I16
sS'query_time'
p836
F0.034976959228515625
sS'comp_time'
p837
F0.0042989253997802734
sS'exec_cq'
p838
I4
sS'total_cq'
p839
I8
sa(dp840
g835
I2
sg836
F0.24955010414123535
sg837
F0.002597332000732422
sg838
I4
sg839
I6
sa(dp841
g835
I6
sg836
F7.796287536621094e-05
sg837
F0.00027108192443847656
sg838
I2
sg839
I3
sasS'total_cqs'
p842
I8
ssI73
(dp843
S'iters'
p844
I0
sS'meta'
p845
(lp846
sS'total_cqs'
p847
I1
ssI74
(dp848
S'iters'
p849
I0
sS'meta'
p850
(lp851
sS'total_cqs'
p852
I1
ssI75
(dp853
S'iters'
p854
I3
sS'meta'
p855
(lp856
(dp857
S'objective'
p858
I5
sS'query_time'
p859
F0.012892007827758789
sS'comp_time'
p860
F0.002101898193359375
sS'exec_cq'
p861
I5
sS'total_cq'
p862
I5
sa(dp863
g858
I2
sg859
F2.9087066650390625e-05
sg860
F0.00011730194091796875
sg861
I4
sg862
I4
sa(dp864
g858
I0
sg859
F2.2172927856445312e-05
sg860
F9.274482727050781e-05
sg861
I3
sg862
I3
sasS'total_cqs'
p865
I5
ssI76
(dp866
S'iters'
p867
I1
sS'meta'
p868
(lp869
(dp870
S'objective'
p871
I1
sS'query_time'
p872
F0.021345138549804688
sS'comp_time'
p873
F0.0017979145050048828
sS'exec_cq'
p874
I2
sS'total_cq'
p875
I2
sasS'total_cqs'
p876
I2
ssI77
(dp877
S'iters'
p878
I0
sS'meta'
p879
(lp880
sS'total_cqs'
p881
I1
ssI78
(dp882
S'iters'
p883
I0
sS'meta'
p884
(lp885
sS'total_cqs'
p886
I1
ssI103
(dp887
S'iters'
p888
I2
sS'meta'
p889
(lp890
(dp891
S'objective'
p892
I68
sS'query_time'
p893
F0.05785107612609863
sS'comp_time'
p894
F0.018826961517333984
sS'exec_cq'
p895
I12
sS'total_cq'
p896
I12
sa(dp897
g892
I65
sg893
F6.29425048828125e-05
sg894
F0.00019311904907226562
sg895
I11
sg896
I11
sasS'total_cqs'
p898
I12
ssI104
(dp899
S'iters'
p900
I2
sS'meta'
p901
(lp902
(dp903
S'objective'
p904
I0
sS'query_time'
p905
F1.443011999130249
sS'comp_time'
p906
F0.08255600929260254
sS'exec_cq'
p907
I4
sS'total_cq'
p908
I4
sa(dp909
g904
I1
sg905
F0.10510396957397461
sg906
F0.07431769371032715
sg907
I2
sg908
I2
sasS'total_cqs'
p910
I4
ssI105
(dp911
S'iters'
p912
I0
sS'meta'
p913
(lp914
sS'total_cqs'
p915
I1
ssI106
(dp916
S'iters'
p917
I1
sS'meta'
p918
(lp919
(dp920
S'objective'
p921
I6
sS'query_time'
p922
F0.01892399787902832
sS'comp_time'
p923
F0.001851797103881836
sS'exec_cq'
p924
I4
sS'total_cq'
p925
I4
sasS'total_cqs'
p926
I4
ssI107
(dp927
S'iters'
p928
I2
sS'meta'
p929
(lp930
(dp931
S'objective'
p932
I80
sS'query_time'
p933
F0.06978011131286621
sS'comp_time'
p934
F0.019242048263549805
sS'exec_cq'
p935
I16
sS'total_cq'
p936
I16
sa(dp937
g932
I18
sg933
F0.003876924514770508
sg934
F0.00026416778564453125
sg935
I3
sg936
I3
sasS'total_cqs'
p938
I16
ssI108
(dp939
S'iters'
p940
I0
sS'meta'
p941
(lp942
sS'total_cqs'
p943
I1
ss.