(dp0
I1
(dp1
S'iters'
p2
I1
sS'meta'
p3
(lp4
(dp5
S'objective'
p6
I54
sS'query_time'
p7
F0.016958951950073242
sS'comp_time'
p8
F6.103515625e-05
sS'exec_cq'
p9
I1
sS'total_cq'
p10
I12
sasS'total_cqs'
p11
I12
ssI2
(dp12
S'iters'
p13
I1
sS'meta'
p14
(lp15
(dp16
S'objective'
p17
I324
sS'query_time'
p18
F0.02481985092163086
sS'comp_time'
p19
F9.489059448242188e-05
sS'exec_cq'
p20
I1
sS'total_cq'
p21
I27
sasS'total_cqs'
p22
I27
ssI3
(dp23
S'iters'
p24
I1
sS'meta'
p25
(lp26
(dp27
S'objective'
p28
I860
sS'query_time'
p29
F0.013278007507324219
sS'comp_time'
p30
F0.00010514259338378906
sS'exec_cq'
p31
I1
sS'total_cq'
p32
I43
sasS'total_cqs'
p33
I43
ssI4
(dp34
S'iters'
p35
I1
sS'meta'
p36
(lp37
(dp38
S'objective'
p39
I44
sS'query_time'
p40
F2.937065839767456
sS'comp_time'
p41
F0.0007719993591308594
sS'exec_cq'
p42
I1
sS'total_cq'
p43
I11
sasS'total_cqs'
p44
I11
ssI5
(dp45
S'iters'
p46
I1
sS'meta'
p47
(lp48
(dp49
S'objective'
p50
I20
sS'query_time'
p51
F0.35440516471862793
sS'comp_time'
p52
F6.771087646484375e-05
sS'exec_cq'
p53
I1
sS'total_cq'
p54
I8
sasS'total_cqs'
p55
I8
ssI6
(dp56
S'iters'
p57
I2
sS'meta'
p58
(lp59
(dp60
S'objective'
p61
I133
sS'query_time'
p62
F0.524928092956543
sS'comp_time'
p63
F8.392333984375e-05
sS'exec_cq'
p64
I1
sS'total_cq'
p65
I18
sa(dp66
g61
I17
sg62
F0.005578041076660156
sg63
F6.127357482910156e-05
sg64
I1
sg65
I2
sasS'total_cqs'
p67
I18
ssI7
(dp68
S'iters'
p69
I1
sS'meta'
p70
(lp71
(dp72
S'objective'
p73
I27
sS'query_time'
p74
F0.2535710334777832
sS'comp_time'
p75
F7.891654968261719e-05
sS'exec_cq'
p76
I1
sS'total_cq'
p77
I9
sasS'total_cqs'
p78
I9
ssI8
(dp79
S'iters'
p80
I2
sS'meta'
p81
(lp82
(dp83
S'objective'
p84
I286
sS'query_time'
p85
F0.031162023544311523
sS'comp_time'
p86
F8.487701416015625e-05
sS'exec_cq'
p87
I1
sS'total_cq'
p88
I27
sa(dp89
g84
I8
sg85
F0.011948108673095703
sg86
F8.20159912109375e-05
sg87
I2
sg88
I2
sasS'total_cqs'
p90
I27
ssI9
(dp91
S'iters'
p92
I2
sS'meta'
p93
(lp94
(dp95
S'objective'
p96
I10
sS'query_time'
p97
F0.015223026275634766
sS'comp_time'
p98
F7.700920104980469e-05
sS'exec_cq'
p99
I1
sS'total_cq'
p100
I7
sa(dp101
g96
I5
sg97
F0.018275022506713867
sg98
F6.914138793945312e-05
sg99
I2
sg100
I5
sasS'total_cqs'
p102
I7
ssI10
(dp103
S'iters'
p104
I3
sS'meta'
p105
(lp106
(dp107
S'objective'
p108
I636
sS'query_time'
p109
F0.050813913345336914
sS'comp_time'
p110
F0.00011491775512695312
sS'exec_cq'
p111
I1
sS'total_cq'
p112
I51
sa(dp113
g108
I53
sg109
F0.06346607208251953
sg110
F9.107589721679688e-05
sg111
I2
sg112
I12
sa(dp114
g108
I97
sg109
F0.012845039367675781
sg110
F7.295608520507812e-05
sg111
I2
sg112
I8
sasS'total_cqs'
p115
I51
ssI11
(dp116
S'iters'
p117
I2
sS'meta'
p118
(lp119
(dp120
S'objective'
p121
I1210
sS'query_time'
p122
F0.14747190475463867
sS'comp_time'
p123
F0.0001499652862548828
sS'exec_cq'
p124
I1
sS'total_cq'
p125
I63
sa(dp126
g121
I277
sg122
F0.02548980712890625
sg123
F8.606910705566406e-05
sg124
I2
sg125
I9
sasS'total_cqs'
p127
I63
ssI12
(dp128
S'iters'
p129
I2
sS'meta'
p130
(lp131
(dp132
S'objective'
p133
I847
sS'query_time'
p134
F0.07178306579589844
sS'comp_time'
p135
F0.00012302398681640625
sS'exec_cq'
p136
I1
sS'total_cq'
p137
I50
sa(dp138
g133
I114
sg134
F0.03159904479980469
sg135
F8.416175842285156e-05
sg136
I2
sg137
I8
sasS'total_cqs'
p139
I50
ssI13
(dp140
S'iters'
p141
I3
sS'meta'
p142
(lp143
(dp144
S'objective'
p145
I36
sS'query_time'
p146
F0.040554046630859375
sS'comp_time'
p147
F9.393692016601562e-05
sS'exec_cq'
p148
I1
sS'total_cq'
p149
I20
sa(dp150
g145
I41
sg146
F0.06857180595397949
sg147
F8.988380432128906e-05
sg148
I2
sg149
I11
sa(dp151
g145
I42
sg146
F0.010253190994262695
sg147
F5.698204040527344e-05
sg148
I2
sg149
I8
sasS'total_cqs'
p152
I20
ssI14
(dp153
S'iters'
p154
I2
sS'meta'
p155
(lp156
(dp157
S'objective'
p158
I23
sS'query_time'
p159
F0.3701968193054199
sS'comp_time'
p160
F6.985664367675781e-05
sS'exec_cq'
p161
I1
sS'total_cq'
p162
I9
sa(dp163
g158
I7
sg159
F0.00626683235168457
sg160
F4.696846008300781e-05
sg161
I1
sg162
I2
sasS'total_cqs'
p164
I9
ssI15
(dp165
S'iters'
p166
I3
sS'meta'
p167
(lp168
(dp169
S'objective'
p170
I18
sS'query_time'
p171
F0.04811692237854004
sS'comp_time'
p172
F8.726119995117188e-05
sS'exec_cq'
p173
I1
sS'total_cq'
p174
I11
sa(dp175
g170
I12
sg171
F0.002847909927368164
sg172
F6.699562072753906e-05
sg173
I1
sg174
I3
sa(dp176
g170
I4
sg171
F0.002869844436645508
sg172
F5.507469177246094e-05
sg173
I1
sg174
I2
sasS'total_cqs'
p177
I11
ssI16
(dp178
S'iters'
p179
I1
sS'meta'
p180
(lp181
(dp182
S'objective'
p183
I20
sS'query_time'
p184
F0.010236024856567383
sS'comp_time'
p185
F8.702278137207031e-05
sS'exec_cq'
p186
I1
sS'total_cq'
p187
I8
sasS'total_cqs'
p188
I8
ssI17
(dp189
S'iters'
p190
I1
sS'meta'
p191
(lp192
(dp193
S'objective'
p194
I44
sS'query_time'
p195
F0.03546500205993652
sS'comp_time'
p196
F8.0108642578125e-05
sS'exec_cq'
p197
I1
sS'total_cq'
p198
I11
sasS'total_cqs'
p199
I11
ssI18
(dp200
S'iters'
p201
I1
sS'meta'
p202
(lp203
(dp204
S'objective'
p205
I44
sS'query_time'
p206
F0.016742229461669922
sS'comp_time'
p207
F8.082389831542969e-05
sS'exec_cq'
p208
I1
sS'total_cq'
p209
I11
sasS'total_cqs'
p210
I11
ssI22
(dp211
S'iters'
p212
I1
sS'meta'
p213
(lp214
(dp215
S'objective'
p216
I135
sS'query_time'
p217
F0.03633713722229004
sS'comp_time'
p218
F8.988380432128906e-05
sS'exec_cq'
p219
I1
sS'total_cq'
p220
I18
sasS'total_cqs'
p221
I18
ssI23
(dp222
S'iters'
p223
I1
sS'meta'
p224
(lp225
(dp226
S'objective'
p227
I104
sS'query_time'
p228
F0.014786005020141602
sS'comp_time'
p229
F9.083747863769531e-05
sS'exec_cq'
p230
I1
sS'total_cq'
p231
I16
sasS'total_cqs'
p232
I16
ssI26
(dp233
S'iters'
p234
I1
sS'meta'
p235
(lp236
(dp237
S'objective'
p238
I819
sS'query_time'
p239
F0.053076982498168945
sS'comp_time'
p240
F0.0001270771026611328
sS'exec_cq'
p241
I1
sS'total_cq'
p242
I42
sasS'total_cqs'
p243
I42
ssI27
(dp244
S'iters'
p245
I2
sS'meta'
p246
(lp247
(dp248
S'objective'
p249
I363
sS'query_time'
p250
F2.7533278465270996
sS'comp_time'
p251
F0.00010204315185546875
sS'exec_cq'
p252
I1
sS'total_cq'
p253
I30
sa(dp254
g249
I9
sg250
F1193.0835599899292
sg251
F0.0001239776611328125
sg252
I2
sg253
I2
sasS'total_cqs'
p255
I30
ssI29
(dp256
S'iters'
p257
I2
sS'meta'
p258
(lp259
(dp260
S'objective'
p261
I619
sS'query_time'
p262
F0.4008619785308838
sS'comp_time'
p263
F0.00011706352233886719
sS'exec_cq'
p264
I1
sS'total_cq'
p265
I49
sa(dp266
g261
I205
sg262
F0.10985112190246582
sg263
F7.677078247070312e-05
sg264
I1
sg265
I9
sasS'total_cqs'
p267
I49
ssI30
(dp268
S'iters'
p269
I1
sS'meta'
p270
(lp271
(dp272
S'objective'
p273
I1
sS'query_time'
p274
F0.5777928829193115
sS'comp_time'
p275
F6.103515625e-05
sS'exec_cq'
p276
I1
sS'total_cq'
p277
I2
sasS'total_cqs'
p278
I2
ssI32
(dp279
S'iters'
p280
I1
sS'meta'
p281
(lp282
(dp283
S'objective'
p284
I1
sS'query_time'
p285
F0.009195804595947266
sS'comp_time'
p286
F6.67572021484375e-05
sS'exec_cq'
p287
I1
sS'total_cq'
p288
I2
sasS'total_cqs'
p289
I2
ssI33
(dp290
S'iters'
p291
I3
sS'meta'
p292
(lp293
(dp294
S'objective'
p295
I3426
sS'query_time'
p296
F0.5710978507995605
sS'comp_time'
p297
F0.00019216537475585938
sS'exec_cq'
p298
I1
sS'total_cq'
p299
I103
sa(dp300
g295
I59
sg296
F0.049610137939453125
sg297
F0.00010395050048828125
sg298
I1
sg299
I16
sa(dp301
g295
I306
sg296
F0.15808510780334473
sg297
F9.012222290039062e-05
sg298
I1
sg299
I7
sasS'total_cqs'
p302
I103
ssI34
(dp303
S'iters'
p304
I1
sS'meta'
p305
(lp306
(dp307
S'objective'
p308
I1
sS'query_time'
p309
F0.011644840240478516
sS'comp_time'
p310
F6.914138793945312e-05
sS'exec_cq'
p311
I1
sS'total_cq'
p312
I2
sasS'total_cqs'
p313
I2
ssI35
(dp314
S'iters'
p315
I2
sS'meta'
p316
(lp317
(dp318
S'objective'
p319
I2237
sS'query_time'
p320
F0.4068567752838135
sS'comp_time'
p321
F0.0001499652862548828
sS'exec_cq'
p322
I1
sS'total_cq'
p323
I70
sa(dp324
g319
I16
sg320
F0.005323886871337891
sg321
F6.699562072753906e-05
sg322
I1
sg323
I2
sasS'total_cqs'
p325
I70
ssI36
(dp326
S'iters'
p327
I1
sS'meta'
p328
(lp329
(dp330
S'objective'
p331
I495
sS'query_time'
p332
F0.1393280029296875
sS'comp_time'
p333
F0.00010395050048828125
sS'exec_cq'
p334
I1
sS'total_cq'
p335
I33
sasS'total_cqs'
p336
I33
ssI37
(dp337
S'iters'
p338
I1
sS'meta'
p339
(lp340
(dp341
S'objective'
p342
I1
sS'query_time'
p343
F0.006825923919677734
sS'comp_time'
p344
F6.222724914550781e-05
sS'exec_cq'
p345
I1
sS'total_cq'
p346
I2
sasS'total_cqs'
p347
I2
ssI38
(dp348
S'iters'
p349
I1
sS'meta'
p350
(lp351
(dp352
S'objective'
p353
I2
sS'query_time'
p354
F0.012206077575683594
sS'comp_time'
p355
F5.888938903808594e-05
sS'exec_cq'
p356
I1
sS'total_cq'
p357
I4
sasS'total_cqs'
p358
I4
ssI39
(dp359
S'iters'
p360
I1
sS'meta'
p361
(lp362
(dp363
S'objective'
p364
I902
sS'query_time'
p365
F0.0746009349822998
sS'comp_time'
p366
F0.0001251697540283203
sS'exec_cq'
p367
I1
sS'total_cq'
p368
I44
sasS'total_cqs'
p369
I44
ssI40
(dp370
S'iters'
p371
I1
sS'meta'
p372
(lp373
(dp374
S'objective'
p375
I14
sS'query_time'
p376
F0.013801097869873047
sS'comp_time'
p377
F7.295608520507812e-05
sS'exec_cq'
p378
I1
sS'total_cq'
p379
I7
sasS'total_cqs'
p380
I7
ssI41
(dp381
S'iters'
p382
I1
sS'meta'
p383
(lp384
(dp385
S'objective'
p386
I54
sS'query_time'
p387
F0.017876863479614258
sS'comp_time'
p388
F7.104873657226562e-05
sS'exec_cq'
p389
I1
sS'total_cq'
p390
I12
sasS'total_cqs'
p391
I12
ssI42
(dp392
S'iters'
p393
I1
sS'meta'
p394
(lp395
(dp396
S'objective'
p397
I779
sS'query_time'
p398
F0.02619194984436035
sS'comp_time'
p399
F0.0001010894775390625
sS'exec_cq'
p400
I1
sS'total_cq'
p401
I41
sasS'total_cqs'
p402
I41
ssI43
(dp403
S'iters'
p404
I1
sS'meta'
p405
(lp406
(dp407
S'objective'
p408
I14
sS'query_time'
p409
F0.014750003814697266
sS'comp_time'
p410
F7.987022399902344e-05
sS'exec_cq'
p411
I1
sS'total_cq'
p412
I7
sasS'total_cqs'
p413
I7
ssI44
(dp414
S'iters'
p415
I2
sS'meta'
p416
(lp417
(dp418
S'objective'
p419
I1010
sS'query_time'
p420
F0.044998884201049805
sS'comp_time'
p421
F0.00011992454528808594
sS'exec_cq'
p422
I1
sS'total_cq'
p423
I47
sa(dp424
g419
I35
sg420
F0.02579212188720703
sg421
F8.392333984375e-05
sg422
I2
sg423
I2
sasS'total_cqs'
p425
I47
ssI46
(dp426
S'iters'
p427
I1
sS'meta'
p428
(lp429
(dp430
S'objective'
p431
I9
sS'query_time'
p432
F0.006026029586791992
sS'comp_time'
p433
F7.700920104980469e-05
sS'exec_cq'
p434
I1
sS'total_cq'
p435
I6
sasS'total_cqs'
p436
I6
ssI47
(dp437
S'iters'
p438
I1
sS'meta'
p439
(lp440
(dp441
S'objective'
p442
I1
sS'query_time'
p443
F0.006556987762451172
sS'comp_time'
p444
F6.389617919921875e-05
sS'exec_cq'
p445
I1
sS'total_cq'
p446
I2
sasS'total_cqs'
p447
I2
ssI50
(dp448
S'iters'
p449
I1
sS'meta'
p450
(lp451
(dp452
S'objective'
p453
I5
sS'query_time'
p454
F0.006376981735229492
sS'comp_time'
p455
F6.29425048828125e-05
sS'exec_cq'
p456
I1
sS'total_cq'
p457
I5
sasS'total_cqs'
p458
I5
ssI51
(dp459
S'iters'
p460
I1
sS'meta'
p461
(lp462
(dp463
S'objective'
p464
I1
sS'query_time'
p465
F0.005499124526977539
sS'comp_time'
p466
F6.628036499023438e-05
sS'exec_cq'
p467
I1
sS'total_cq'
p468
I2
sasS'total_cqs'
p469
I2
ssI52
(dp470
S'iters'
p471
I1
sS'meta'
p472
(lp473
(dp474
S'objective'
p475
I1
sS'query_time'
p476
F0.006091117858886719
sS'comp_time'
p477
F6.818771362304688e-05
sS'exec_cq'
p478
I1
sS'total_cq'
p479
I2
sasS'total_cqs'
p480
I2
ssI53
(dp481
S'iters'
p482
I1
sS'meta'
p483
(lp484
(dp485
S'objective'
p486
I2
sS'query_time'
p487
F0.011978864669799805
sS'comp_time'
p488
F7.486343383789062e-05
sS'exec_cq'
p489
I1
sS'total_cq'
p490
I4
sasS'total_cqs'
p491
I4
ssI54
(dp492
S'iters'
p493
I1
sS'meta'
p494
(lp495
(dp496
S'objective'
p497
I0
sS'query_time'
p498
F0.01749110221862793
sS'comp_time'
p499
F7.104873657226562e-05
sS'exec_cq'
p500
I1
sS'total_cq'
p501
I3
sasS'total_cqs'
p502
I3
ssI55
(dp503
S'iters'
p504
I2
sS'meta'
p505
(lp506
(dp507
S'objective'
p508
I5577
sS'query_time'
p509
F0.20128679275512695
sS'comp_time'
p510
F0.0001678466796875
sS'exec_cq'
p511
I1
sS'total_cq'
p512
I109
sa(dp513
g508
I9
sg509
F0.003670215606689453
sg510
F9.894371032714844e-05
sg511
I1
sg512
I2
sasS'total_cqs'
p514
I109
ssI56
(dp515
S'iters'
p516
I1
sS'meta'
p517
(lp518
(dp519
S'objective'
p520
I2774
sS'query_time'
p521
F0.23304390907287598
sS'comp_time'
p522
F0.00012493133544921875
sS'exec_cq'
p523
I1
sS'total_cq'
p524
I76
sasS'total_cqs'
p525
I76
ssI57
(dp526
S'iters'
p527
I4
sS'meta'
p528
(lp529
(dp530
S'objective'
p531
I870
sS'query_time'
p532
F0.42008209228515625
sS'comp_time'
p533
F0.00012993812561035156
sS'exec_cq'
p534
I1
sS'total_cq'
p535
I51
sa(dp536
g531
I64
sg532
F0.06706905364990234
sg533
F7.414817810058594e-05
sg534
I1
sg535
I7
sa(dp537
g531
I118
sg532
F0.08113789558410645
sg533
F6.628036499023438e-05
sg534
I1
sg535
I4
sa(dp538
g531
I30
sg532
F4.310550928115845
sg533
F0.000102996826171875
sg534
I2
sg535
I3
sasS'total_cqs'
p539
I51
ssI58
(dp540
S'iters'
p541
I3
sS'meta'
p542
(lp543
(dp544
S'objective'
p545
I115259
sS'query_time'
p546
F1.6599640846252441
sS'comp_time'
p547
F0.0005710124969482422
sS'exec_cq'
p548
I1
sS'total_cq'
p549
I486
sa(dp550
g545
I885
sg546
F0.03392815589904785
sg547
F8.320808410644531e-05
sg548
I1
sg549
I5
sa(dp551
g545
I241
sg546
F0.057753801345825195
sg547
F7.176399230957031e-05
sg548
I1
sg549
I3
sasS'total_cqs'
p552
I486
ssI59
(dp553
S'iters'
p554
I2
sS'meta'
p555
(lp556
(dp557
S'objective'
p558
I12
sS'query_time'
p559
F0.0163729190826416
sS'comp_time'
p560
F7.987022399902344e-05
sS'exec_cq'
p561
I1
sS'total_cq'
p562
I7
sa(dp563
g558
I6
sg559
F0.03518509864807129
sg560
F8.20159912109375e-05
sg561
I2
sg562
I2
sasS'total_cqs'
p564
I7
ssI60
(dp565
S'iters'
p566
I1
sS'meta'
p567
(lp568
(dp569
S'objective'
p570
I5
sS'query_time'
p571
F0.005435943603515625
sS'comp_time'
p572
F6.604194641113281e-05
sS'exec_cq'
p573
I1
sS'total_cq'
p574
I5
sasS'total_cqs'
p575
I5
ssI62
(dp576
S'iters'
p577
I1
sS'meta'
p578
(lp579
(dp580
S'objective'
p581
I54
sS'query_time'
p582
F0.021018028259277344
sS'comp_time'
p583
F7.390975952148438e-05
sS'exec_cq'
p584
I1
sS'total_cq'
p585
I12
sasS'total_cqs'
p586
I12
ssI64
(dp587
S'iters'
p588
I3
sS'meta'
p589
(lp590
(dp591
S'objective'
p592
I2
sS'query_time'
p593
F0.03703808784484863
sS'comp_time'
p594
F6.937980651855469e-05
sS'exec_cq'
p595
I1
sS'total_cq'
p596
I12
sa(dp597
g592
I26
sg593
F0.002485036849975586
sg594
F4.696846008300781e-05
sg595
I1
sg596
I4
sa(dp598
g592
I8
sg593
F0.003751039505004883
sg594
F5.3882598876953125e-05
sg595
I1
sg596
I3
sasS'total_cqs'
p599
I12
ssI65
(dp600
S'iters'
p601
I1
sS'meta'
p602
(lp603
(dp604
S'objective'
p605
I324
sS'query_time'
p606
F0.028083086013793945
sS'comp_time'
p607
F0.0001049041748046875
sS'exec_cq'
p608
I1
sS'total_cq'
p609
I27
sasS'total_cqs'
p610
I27
ssI67
(dp611
S'iters'
p612
I1
sS'meta'
p613
(lp614
(dp615
S'objective'
p616
I560
sS'query_time'
p617
F0.5368430614471436
sS'comp_time'
p618
F0.00011515617370605469
sS'exec_cq'
p619
I1
sS'total_cq'
p620
I35
sasS'total_cqs'
p621
I35
ssI69
(dp622
S'iters'
p623
I1
sS'meta'
p624
(lp625
(dp626
S'objective'
p627
I1224
sS'query_time'
p628
F0.08203816413879395
sS'comp_time'
p629
F0.00011515617370605469
sS'exec_cq'
p630
I1
sS'total_cq'
p631
I51
sasS'total_cqs'
p632
I51
ssI70
(dp633
S'iters'
p634
I1
sS'meta'
p635
(lp636
(dp637
S'objective'
p638
I9
sS'query_time'
p639
F0.009133100509643555
sS'comp_time'
p640
F6.771087646484375e-05
sS'exec_cq'
p641
I1
sS'total_cq'
p642
I6
sasS'total_cqs'
p643
I6
ssI71
(dp644
S'iters'
p645
I1
sS'meta'
p646
(lp647
(dp648
S'objective'
p649
I3485
sS'query_time'
p650
F0.07674598693847656
sS'comp_time'
p651
F0.00012803077697753906
sS'exec_cq'
p652
I1
sS'total_cq'
p653
I85
sasS'total_cqs'
p654
I85
ssI72
(dp655
S'iters'
p656
I1
sS'meta'
p657
(lp658
(dp659
S'objective'
p660
I20
sS'query_time'
p661
F0.00783991813659668
sS'comp_time'
p662
F6.794929504394531e-05
sS'exec_cq'
p663
I1
sS'total_cq'
p664
I8
sasS'total_cqs'
p665
I8
ssI75
(dp666
S'iters'
p667
I1
sS'meta'
p668
(lp669
(dp670
S'objective'
p671
I5
sS'query_time'
p672
F0.00432586669921875
sS'comp_time'
p673
F6.008148193359375e-05
sS'exec_cq'
p674
I1
sS'total_cq'
p675
I5
sasS'total_cqs'
p676
I5
ssI76
(dp677
S'iters'
p678
I1
sS'meta'
p679
(lp680
(dp681
S'objective'
p682
I1
sS'query_time'
p683
F0.008936166763305664
sS'comp_time'
p684
F7.796287536621094e-05
sS'exec_cq'
p685
I1
sS'total_cq'
p686
I2
sasS'total_cqs'
p687
I2
ssI103
(dp688
S'iters'
p689
I1
sS'meta'
p690
(lp691
(dp692
S'objective'
p693
I54
sS'query_time'
p694
F0.028923988342285156
sS'comp_time'
p695
F8.106231689453125e-05
sS'exec_cq'
p696
I1
sS'total_cq'
p697
I12
sasS'total_cqs'
p698
I12
ssI104
(dp699
S'iters'
p700
I1
sS'meta'
p701
(lp702
(dp703
S'objective'
p704
I2
sS'query_time'
p705
F1.1097629070281982
sS'comp_time'
p706
F8.797645568847656e-05
sS'exec_cq'
p707
I1
sS'total_cq'
p708
I4
sasS'total_cqs'
p709
I4
ssI106
(dp710
S'iters'
p711
I1
sS'meta'
p712
(lp713
(dp714
S'objective'
p715
I2
sS'query_time'
p716
F0.012996912002563477
sS'comp_time'
p717
F7.009506225585938e-05
sS'exec_cq'
p718
I1
sS'total_cq'
p719
I4
sasS'total_cqs'
p720
I4
ssI107
(dp721
S'iters'
p722
I1
sS'meta'
p723
(lp724
(dp725
S'objective'
p726
I104
sS'query_time'
p727
F0.04873204231262207
sS'comp_time'
p728
F8.606910705566406e-05
sS'exec_cq'
p729
I1
sS'total_cq'
p730
I16
sasS'total_cqs'
p731
I16
ss.