(dp0
I1
(dp1
S'iters'
p2
I2
sS'meta'
p3
(lp4
(dp5
S'objective'
p6
I48
sS'query_time'
p7
F0.06166791915893555
sS'comp_time'
p8
F0.022949695587158203
sS'exec_cq'
p9
I12
sS'total_cq'
p10
I12
sa(dp11
g6
I39
sg7
F5.698204040527344e-05
sg8
F0.00016689300537109375
sg9
I10
sg10
I10
sasS'total_cqs'
p12
I12
ssI2
(dp13
S'iters'
p14
I4
sS'meta'
p15
(lp16
(dp17
S'objective'
p18
I270
sS'query_time'
p19
F0.1522989273071289
sS'comp_time'
p20
F0.04041624069213867
sS'exec_cq'
p21
I27
sS'total_cq'
p22
I27
sa(dp23
g18
I222
sg19
F0.00021409988403320312
sg20
F0.0009264945983886719
sg21
I23
sg22
I23
sa(dp24
g18
I209
sg19
F0.000164031982421875
sg20
F0.0005173683166503906
sg21
I20
sg22
I20
sa(dp25
g18
I187
sg19
F0.00013780593872070312
sg20
F0.0004470348358154297
sg21
I18
sg22
I18
sasS'total_cqs'
p26
I27
ssI3
(dp27
S'iters'
p28
I3
sS'meta'
p29
(lp30
(dp31
S'objective'
p32
I554
sS'query_time'
p33
F187.59260201454163
sS'comp_time'
p34
F1.5053644180297852
sS'exec_cq'
p35
I30
sS'total_cq'
p36
I43
sa(dp37
g32
I502
sg33
F43.57955718040466
sg34
F0.23990774154663086
sg35
I32
sg36
I36
sa(dp38
g32
I540
sg33
F12.21316385269165
sg34
F0.2462911605834961
sg35
I28
sg36
I28
sasS'total_cqs'
p39
I43
ssI4
(dp40
S'iters'
p41
I2
sS'meta'
p42
(lp43
(dp44
S'objective'
p45
I42
sS'query_time'
p46
F4.748768091201782
sS'comp_time'
p47
F0.31676506996154785
sS'exec_cq'
p48
I11
sS'total_cq'
p49
I11
sa(dp50
g45
I10
sg46
F0.21807503700256348
sg47
F0.27995991706848145
sg48
I2
sg49
I2
sasS'total_cqs'
p51
I11
ssI5
(dp52
S'iters'
p53
I2
sS'meta'
p54
(lp55
(dp56
S'objective'
p57
I0
sS'query_time'
p58
F34.59152293205261
sS'comp_time'
p59
F2.331684112548828
sS'exec_cq'
p60
I8
sS'total_cq'
p61
I8
sa(dp62
g57
I2
sg58
F0.09273600578308105
sg59
F0.4791288375854492
sg60
I3
sg61
I3
sasS'total_cqs'
p63
I8
ssI6
(dp64
S'iters'
p65
I3
sS'meta'
p66
(lp67
(dp68
S'objective'
p69
I37
sS'query_time'
p70
F37.40279221534729
sS'comp_time'
p71
F2.56152606010437
sS'exec_cq'
p72
I18
sS'total_cq'
p73
I18
sa(dp74
g69
I1
sg70
F1.057046890258789
sg71
F3.6314008235931396
sg72
I7
sg73
I7
sa(dp75
g69
I2
sg70
F0.13024497032165527
sg71
F0.8991391658782959
sg72
I3
sg73
I3
sasS'total_cqs'
p76
I18
ssI7
(dp77
S'iters'
p78
I3
sS'meta'
p79
(lp80
(dp81
S'objective'
p82
I1
sS'query_time'
p83
F12.447936058044434
sS'comp_time'
p84
F2.3766069412231445
sS'exec_cq'
p85
I9
sS'total_cq'
p86
I9
sa(dp87
g82
I0
sg83
F0.005609989166259766
sg84
F0.007577180862426758
sg85
I4
sg86
I4
sa(dp88
g82
I7
sg83
F0.003668069839477539
sg84
F0.00561213493347168
sg85
I2
sg86
I2
sasS'total_cqs'
p89
I9
ssI8
(dp90
S'iters'
p91
I2
sS'meta'
p92
(lp93
(dp94
S'objective'
p95
I294
sS'query_time'
p96
F0.2318720817565918
sS'comp_time'
p97
F0.02934122085571289
sS'exec_cq'
p98
I27
sS'total_cq'
p99
I27
sa(dp100
g95
I282
sg96
F0.00017905235290527344
sg97
F0.0005261898040771484
sg98
I24
sg99
I24
sasS'total_cqs'
p101
I27
ssI9
(dp102
S'iters'
p103
I3
sS'meta'
p104
(lp105
(dp106
S'objective'
p107
I4
sS'query_time'
p108
F0.050460100173950195
sS'comp_time'
p109
F0.0048828125
sS'exec_cq'
p110
I7
sS'total_cq'
p111
I7
sa(dp112
g107
I0
sg108
F2.7894973754882812e-05
sg109
F0.00019407272338867188
sg110
I4
sg111
I4
sa(dp113
g107
I6
sg108
F0.0010218620300292969
sg109
F9.679794311523438e-05
sg110
I2
sg111
I2
sasS'total_cqs'
p114
I7
ssI10
(dp115
S'iters'
p116
I5
sS'meta'
p117
(lp118
(dp119
S'objective'
p120
I670
sS'query_time'
p121
F0.32459282875061035
sS'comp_time'
p122
F0.09845209121704102
sS'exec_cq'
p123
I51
sS'total_cq'
p124
I51
sa(dp125
g120
I432
sg121
F0.00045108795166015625
sg122
F0.003092050552368164
sg123
I37
sg124
I37
sa(dp126
g120
I21
sg121
F0.001873016357421875
sg122
F0.0038602352142333984
sg123
I12
sg124
I12
sa(dp127
g120
I8
sg121
F7.891654968261719e-05
sg122
F0.000865936279296875
sg123
I6
sg124
I6
sa(dp128
g120
I30
sg121
F4.291534423828125e-05
sg122
F0.0002472400665283203
sg123
I3
sg124
I3
sasS'total_cqs'
p129
I51
ssI11
(dp130
S'iters'
p131
I5
sS'meta'
p132
(lp133
(dp134
S'objective'
p135
I1062
sS'query_time'
p136
F0.570734977722168
sS'comp_time'
p137
F0.1568131446838379
sS'exec_cq'
p138
I63
sS'total_cq'
p139
I63
sa(dp140
g135
I951
sg136
F0.0014200210571289062
sg137
F0.004747867584228516
sg138
I47
sg139
I47
sa(dp141
g135
I2
sg136
F0.0021359920501708984
sg137
F0.002477407455444336
sg138
I9
sg139
I9
sa(dp142
g135
I14
sg136
F4.00543212890625e-05
sg137
F0.00029015541076660156
sg138
I4
sg139
I4
sa(dp143
g135
I59
sg136
F1.811981201171875e-05
sg137
F0.0001819133758544922
sg138
I2
sg139
I2
sasS'total_cqs'
p144
I63
ssI12
(dp145
S'iters'
p146
I4
sS'meta'
p147
(lp148
(dp149
S'objective'
p150
I405
sS'query_time'
p151
F0.3996150493621826
sS'comp_time'
p152
F0.08951783180236816
sS'exec_cq'
p153
I50
sS'total_cq'
p154
I50
sa(dp155
g150
I416
sg151
F0.0005619525909423828
sg152
F0.002888202667236328
sg153
I33
sg154
I33
sa(dp156
g150
I0
sg151
F0.0016019344329833984
sg152
F0.0013942718505859375
sg153
I8
sg154
I8
sa(dp157
g150
I6
sg151
F3.0994415283203125e-05
sg152
F0.00017404556274414062
sg153
I3
sg154
I3
sasS'total_cqs'
p158
I50
ssI13
(dp159
S'iters'
p160
I3
sS'meta'
p161
(lp162
(dp163
S'objective'
p164
I38
sS'query_time'
p165
F0.1618330478668213
sS'comp_time'
p166
F0.03641986846923828
sS'exec_cq'
p167
I20
sS'total_cq'
p168
I20
sa(dp169
g164
I42
sg165
F5.984306335449219e-05
sg166
F0.0005779266357421875
sg167
I9
sg168
I9
sa(dp170
g164
I18
sg165
F0.0015289783477783203
sg166
F0.0002110004425048828
sg167
I2
sg168
I2
sasS'total_cqs'
p171
I20
ssI14
(dp172
S'iters'
p173
I3
sS'meta'
p174
(lp175
(dp176
S'objective'
p177
I1
sS'query_time'
p178
F34.48347187042236
sS'comp_time'
p179
F1.7326993942260742
sS'exec_cq'
p180
I9
sS'total_cq'
p181
I9
sa(dp182
g177
I0
sg178
F0.34082913398742676
sg179
F0.6731207370758057
sg180
I4
sg181
I4
sa(dp183
g177
I7
sg178
F0.07444405555725098
sg179
F0.512587308883667
sg180
I2
sg181
I2
sasS'total_cqs'
p184
I9
ssI15
(dp185
S'iters'
p186
I3
sS'meta'
p187
(lp188
(dp189
S'objective'
p190
I2
sS'query_time'
p191
F4.019075155258179
sS'comp_time'
p192
F0.4159414768218994
sS'exec_cq'
p193
I11
sS'total_cq'
p194
I11
sa(dp195
g190
I8
sg191
F0.0007600784301757812
sg192
F0.0015904903411865234
sg193
I6
sg194
I6
sa(dp196
g190
I10
sg191
F0.00036978721618652344
sg192
F0.0007121562957763672
sg193
I2
sg194
I2
sasS'total_cqs'
p197
I11
ssI16
(dp198
S'iters'
p199
I1
sS'meta'
p200
(lp201
(dp202
S'objective'
p203
I20
sS'query_time'
p204
F0.029685020446777344
sS'comp_time'
p205
F0.004149913787841797
sS'exec_cq'
p206
I8
sS'total_cq'
p207
I8
sasS'total_cqs'
p208
I8
ssI17
(dp209
S'iters'
p210
I2
sS'meta'
p211
(lp212
(dp213
S'objective'
p214
I0
sS'query_time'
p215
F0.8881151676177979
sS'comp_time'
p216
F0.029296159744262695
sS'exec_cq'
p217
I11
sS'total_cq'
p218
I11
sa(dp219
g214
I11
sg215
F0.0001800060272216797
sg216
F0.0005221366882324219
sg217
I5
sg218
I5
sasS'total_cqs'
p220
I11
ssI18
(dp221
S'iters'
p222
I2
sS'meta'
p223
(lp224
(dp225
S'objective'
p226
I34
sS'query_time'
p227
F0.19721508026123047
sS'comp_time'
p228
F0.02267313003540039
sS'exec_cq'
p229
I11
sS'total_cq'
p230
I11
sa(dp231
g226
I28
sg227
F0.0004830360412597656
sg228
F0.0008633136749267578
sg229
I8
sg230
I9
sasS'total_cqs'
p232
I11
ssI19
(dp233
S'iters'
p234
I0
sS'meta'
p235
(lp236
sS'total_cqs'
p237
I1
ssI20
(dp238
S'iters'
p239
I0
sS'meta'
p240
(lp241
sS'total_cqs'
p242
I1
ssI21
(dp243
S'iters'
p244
I0
sS'meta'
p245
(lp246
sS'total_cqs'
p247
I1
ssI22
(dp248
S'iters'
p249
I1
sS'meta'
p250
(lp251
(dp252
S'objective'
p253
I135
sS'query_time'
p254
F0.06797099113464355
sS'comp_time'
p255
F0.029036998748779297
sS'exec_cq'
p256
I18
sS'total_cq'
p257
I18
sasS'total_cqs'
p258
I18
ssI23
(dp259
S'iters'
p260
I1
sS'meta'
p261
(lp262
(dp263
S'objective'
p264
I104
sS'query_time'
p265
F0.07747602462768555
sS'comp_time'
p266
F0.025256633758544922
sS'exec_cq'
p267
I16
sS'total_cq'
p268
I16
sasS'total_cqs'
p269
I16
ssI24
(dp270
S'iters'
p271
I0
sS'meta'
p272
(lp273
sS'total_cqs'
p274
I1
ssI25
(dp275
S'iters'
p276
I0
sS'meta'
p277
(lp278
sS'total_cqs'
p279
I1
ssI26
(dp280
S'iters'
p281
I1
sS'meta'
p282
(lp283
(dp284
S'objective'
p285
I819
sS'query_time'
p286
F0.18199777603149414
sS'comp_time'
p287
F0.11014175415039062
sS'exec_cq'
p288
I42
sS'total_cq'
p289
I42
sasS'total_cqs'
p290
I42
ssI27
(dp291
S'iters'
p292
I3
sS'meta'
p293
(lp294
(dp295
S'objective'
p296
I307
sS'query_time'
p297
F22.67960214614868
sS'comp_time'
p298
F1.7056457996368408
sS'exec_cq'
p299
I30
sS'total_cq'
p300
I30
sa(dp301
g296
I1
sg297
F0.4461338520050049
sg298
F1.458631992340088
sg299
I5
sg300
I5
sa(dp302
g296
I20
sg297
F0.0865480899810791
sg298
F0.28299999237060547
sg299
I2
sg300
I2
sasS'total_cqs'
p303
I30
ssI28
(dp304
S'iters'
p305
I0
sS'meta'
p306
(lp307
sS'total_cqs'
p308
I1
ssI29
(dp309
S'iters'
p310
I5
sS'meta'
p311
(lp312
(dp313
S'objective'
p314
I231
sS'query_time'
p315
F28.65376591682434
sS'comp_time'
p316
F0.33341407775878906
sS'exec_cq'
p317
I35
sS'total_cq'
p318
I49
sa(dp319
g314
I3
sg315
F0.0023980140686035156
sg316
F0.009646415710449219
sg317
I16
sg318
I16
sa(dp320
g314
I9
sg315
F0.001425027847290039
sg316
F0.002452850341796875
sg317
I9
sg318
I9
sa(dp321
g314
I12
sg315
F0.000743865966796875
sg316
F0.0032613277435302734
sg317
I5
sg318
I5
sa(dp322
g314
I28
sg315
F0.0006568431854248047
sg316
F0.0011413097381591797
sg317
I3
sg318
I3
sasS'total_cqs'
p323
I49
ssI30
(dp324
S'iters'
p325
I1
sS'meta'
p326
(lp327
(dp328
S'objective'
p329
I1
sS'query_time'
p330
F0.6832020282745361
sS'comp_time'
p331
F0.012711048126220703
sS'exec_cq'
p332
I2
sS'total_cq'
p333
I2
sasS'total_cqs'
p334
I2
ssI31
(dp335
S'iters'
p336
I0
sS'meta'
p337
(lp338
sS'total_cqs'
p339
I1
ssI32
(dp340
S'iters'
p341
I1
sS'meta'
p342
(lp343
(dp344
S'objective'
p345
I1
sS'query_time'
p346
F0.015239953994750977
sS'comp_time'
p347
F0.0023679733276367188
sS'exec_cq'
p348
I2
sS'total_cq'
p349
I2
sasS'total_cqs'
p350
I2
ssI33
(dp351
S'iters'
p352
I4
sS'meta'
p353
(lp354
(dp355
S'objective'
p356
I3540
sS'query_time'
p357
F17.083643198013306
sS'comp_time'
p358
F0.9881391525268555
sS'exec_cq'
p359
I103
sS'total_cq'
p360
I103
sa(dp361
g356
I4
sg357
F0.008701086044311523
sg358
F0.04396557807922363
sg359
I16
sg360
I16
sa(dp362
g356
I18
sg357
F0.0036478042602539062
sg358
F0.021930456161499023
sg359
I8
sg360
I8
sa(dp363
g356
I13
sg357
F0.001516103744506836
sg358
F0.002252817153930664
sg359
I4
sg360
I4
sasS'total_cqs'
p364
I103
ssI34
(dp365
S'iters'
p366
I1
sS'meta'
p367
(lp368
(dp369
S'objective'
p370
I1
sS'query_time'
p371
F0.02118706703186035
sS'comp_time'
p372
F0.002736806869506836
sS'exec_cq'
p373
I2
sS'total_cq'
p374
I2
sasS'total_cqs'
p375
I2
ssI35
(dp376
S'iters'
p377
I5
sS'meta'
p378
(lp379
(dp380
S'objective'
p381
I1177
sS'query_time'
p382
F24.64678692817688
sS'comp_time'
p383
F0.2509486675262451
sS'exec_cq'
p384
I50
sS'total_cq'
p385
I70
sa(dp386
g381
I158
sg382
F0.004272937774658203
sg383
F0.01642894744873047
sg384
I16
sg385
I16
sa(dp387
g381
I4
sg382
F0.09229898452758789
sg383
F0.01062917709350586
sg384
I10
sg385
I10
sa(dp388
g381
I13
sg382
F0.0011332035064697266
sg383
F0.0019655227661132812
sg384
I4
sg385
I4
sa(dp389
g381
I31
sg382
F0.0006821155548095703
sg383
F0.0011336803436279297
sg384
I2
sg385
I2
sasS'total_cqs'
p390
I70
ssI36
(dp391
S'iters'
p392
I3
sS'meta'
p393
(lp394
(dp395
S'objective'
p396
I425
sS'query_time'
p397
F0.7787380218505859
sS'comp_time'
p398
F0.14777350425720215
sS'exec_cq'
p399
I33
sS'total_cq'
p400
I33
sa(dp401
g396
I423
sg397
F0.0042951107025146484
sg398
F0.007773876190185547
sg399
I29
sg400
I29
sa(dp402
g396
I392
sg397
F0.003126859664916992
sg398
F0.004826545715332031
sg399
I25
sg400
I25
sasS'total_cqs'
p403
I33
ssI37
(dp404
S'iters'
p405
I1
sS'meta'
p406
(lp407
(dp408
S'objective'
p409
I1
sS'query_time'
p410
F0.008896827697753906
sS'comp_time'
p411
F0.0014519691467285156
sS'exec_cq'
p412
I2
sS'total_cq'
p413
I2
sasS'total_cqs'
p414
I2
ssI38
(dp415
S'iters'
p416
I2
sS'meta'
p417
(lp418
(dp419
S'objective'
p420
I0
sS'query_time'
p421
F0.023101091384887695
sS'comp_time'
p422
F0.0033168792724609375
sS'exec_cq'
p423
I4
sS'total_cq'
p424
I4
sa(dp425
g420
I3
sg421
F9.608268737792969e-05
sg422
F0.00018715858459472656
sg423
I2
sg424
I2
sasS'total_cqs'
p426
I4
ssI39
(dp427
S'iters'
p428
I2
sS'meta'
p429
(lp430
(dp431
S'objective'
p432
I582
sS'query_time'
p433
F0.138779878616333
sS'comp_time'
p434
F0.14340877532958984
sS'exec_cq'
p435
I44
sS'total_cq'
p436
I44
sa(dp437
g432
I698
sg433
F0.00030303001403808594
sg434
F0.0008037090301513672
sg435
I37
sg436
I37
sasS'total_cqs'
p438
I44
ssI40
(dp439
S'iters'
p440
I1
sS'meta'
p441
(lp442
(dp443
S'objective'
p444
I14
sS'query_time'
p445
F0.031369924545288086
sS'comp_time'
p446
F0.005716800689697266
sS'exec_cq'
p447
I7
sS'total_cq'
p448
I7
sasS'total_cqs'
p449
I7
ssI41
(dp450
S'iters'
p451
I1
sS'meta'
p452
(lp453
(dp454
S'objective'
p455
I54
sS'query_time'
p456
F0.07998800277709961
sS'comp_time'
p457
F0.022284746170043945
sS'exec_cq'
p458
I12
sS'total_cq'
p459
I12
sasS'total_cqs'
p460
I12
ssI42
(dp461
S'iters'
p462
I1
sS'meta'
p463
(lp464
(dp465
S'objective'
p466
I779
sS'query_time'
p467
F0.11777591705322266
sS'comp_time'
p468
F0.07952451705932617
sS'exec_cq'
p469
I41
sS'total_cq'
p470
I41
sasS'total_cqs'
p471
I41
ssI43
(dp472
S'iters'
p473
I1
sS'meta'
p474
(lp475
(dp476
S'objective'
p477
I14
sS'query_time'
p478
F0.025409936904907227
sS'comp_time'
p479
F0.00556635856628418
sS'exec_cq'
p480
I7
sS'total_cq'
p481
I7
sasS'total_cqs'
p482
I7
ssI44
(dp483
S'iters'
p484
I4
sS'meta'
p485
(lp486
(dp487
S'objective'
p488
I734
sS'query_time'
p489
F0.1445779800415039
sS'comp_time'
p490
F0.11755514144897461
sS'exec_cq'
p491
I47
sS'total_cq'
p492
I47
sa(dp493
g488
I687
sg489
F0.0002970695495605469
sg490
F0.0010552406311035156
sg491
I40
sg492
I40
sa(dp494
g488
I30
sg489
F0.0013630390167236328
sg490
F0.001583099365234375
sg491
I3
sg492
I3
sa(dp495
g488
I18
sg489
F2.5987625122070312e-05
sg490
F0.00010466575622558594
sg491
I2
sg492
I2
sasS'total_cqs'
p496
I47
ssI45
(dp497
S'iters'
p498
I0
sS'meta'
p499
(lp500
sS'total_cqs'
p501
I1
ssI46
(dp502
S'iters'
p503
I1
sS'meta'
p504
(lp505
(dp506
S'objective'
p507
I9
sS'query_time'
p508
F0.03219103813171387
sS'comp_time'
p509
F0.00540924072265625
sS'exec_cq'
p510
I6
sS'total_cq'
p511
I6
sasS'total_cqs'
p512
I6
ssI47
(dp513
S'iters'
p514
I1
sS'meta'
p515
(lp516
(dp517
S'objective'
p518
I1
sS'query_time'
p519
F0.014538764953613281
sS'comp_time'
p520
F0.0013120174407958984
sS'exec_cq'
p521
I2
sS'total_cq'
p522
I2
sasS'total_cqs'
p523
I2
ssI48
(dp524
S'iters'
p525
I0
sS'meta'
p526
(lp527
sS'total_cqs'
p528
I1
ssI49
(dp529
S'iters'
p530
I0
sS'meta'
p531
(lp532
sS'total_cqs'
p533
I1
ssI50
(dp534
S'iters'
p535
I1
sS'meta'
p536
(lp537
(dp538
S'objective'
p539
I5
sS'query_time'
p540
F0.018961191177368164
sS'comp_time'
p541
F0.002410888671875
sS'exec_cq'
p542
I5
sS'total_cq'
p543
I5
sasS'total_cqs'
p544
I5
ssI51
(dp545
S'iters'
p546
I1
sS'meta'
p547
(lp548
(dp549
S'objective'
p550
I1
sS'query_time'
p551
F0.008491039276123047
sS'comp_time'
p552
F0.0010042190551757812
sS'exec_cq'
p553
I2
sS'total_cq'
p554
I2
sasS'total_cqs'
p555
I2
ssI52
(dp556
S'iters'
p557
I1
sS'meta'
p558
(lp559
(dp560
S'objective'
p561
I1
sS'query_time'
p562
F0.03506588935852051
sS'comp_time'
p563
F0.0024733543395996094
sS'exec_cq'
p564
I2
sS'total_cq'
p565
I2
sasS'total_cqs'
p566
I2
ssI53
(dp567
S'iters'
p568
I1
sS'meta'
p569
(lp570
(dp571
S'objective'
p572
I2
sS'query_time'
p573
F0.0237119197845459
sS'comp_time'
p574
F0.0023849010467529297
sS'exec_cq'
p575
I4
sS'total_cq'
p576
I4
sasS'total_cqs'
p577
I4
ssI54
(dp578
S'iters'
p579
I1
sS'meta'
p580
(lp581
(dp582
S'objective'
p583
I0
sS'query_time'
p584
F0.011168956756591797
sS'comp_time'
p585
F0.001653909683227539
sS'exec_cq'
p586
I3
sS'total_cq'
p587
I3
sasS'total_cqs'
p588
I3
ssI55
(dp589
S'iters'
p590
I4
sS'meta'
p591
(lp592
(dp593
S'objective'
p594
I4599
sS'query_time'
p595
F2.2461280822753906
sS'comp_time'
p596
F0.6156864166259766
sS'exec_cq'
p597
I109
sS'total_cq'
p598
I109
sa(dp599
g594
I66
sg595
F0.008442163467407227
sg596
F0.15672922134399414
sg597
I10
sg598
I10
sa(dp600
g594
I16
sg595
F0.006200075149536133
sg596
F0.027584314346313477
sg597
I6
sg598
I6
sa(dp601
g594
I19
sg595
F0.00019598007202148438
sg596
F0.00044989585876464844
sg597
I2
sg598
I2
sasS'total_cqs'
p602
I109
ssI56
(dp603
S'iters'
p604
I4
sS'meta'
p605
(lp606
(dp607
S'objective'
p608
I1754
sS'query_time'
p609
F1.7826318740844727
sS'comp_time'
p610
F0.266981840133667
sS'exec_cq'
p611
I67
sS'total_cq'
p612
I76
sa(dp613
g608
I12
sg609
F0.008178949356079102
sg610
F0.08768510818481445
sg611
I16
sg612
I16
sa(dp614
g608
I1
sg609
F0.0014281272888183594
sg610
F0.0026900768280029297
sg611
I6
sg612
I6
sa(dp615
g608
I2
sg609
F0.0009090900421142578
sg610
F0.0023200511932373047
sg611
I3
sg612
I3
sasS'total_cqs'
p616
I76
ssI57
(dp617
S'iters'
p618
I5
sS'meta'
p619
(lp620
(dp621
S'objective'
p622
I310
sS'query_time'
p623
F25.001667976379395
sS'comp_time'
p624
F0.1594228744506836
sS'exec_cq'
p625
I45
sS'total_cq'
p626
I51
sa(dp627
g622
I56
sg623
F0.021685123443603516
sg624
F0.04389381408691406
sg625
I31
sg626
I31
sa(dp628
g622
I13
sg623
F0.014109134674072266
sg624
F0.2132890224456787
sg625
I13
sg626
I13
sa(dp629
g622
I1
sg623
F0.005292177200317383
sg624
F0.006547212600708008
sg625
I6
sg626
I6
sa(dp630
g622
I4
sg623
F0.0009791851043701172
sg624
F0.0008931159973144531
sg625
I3
sg626
I3
sasS'total_cqs'
p631
I51
ssI58
(dp632
S'iters'
p633
I6
sS'meta'
p634
(lp635
(dp636
S'objective'
p637
I81205
sS'query_time'
p638
F327.0795795917511
sS'comp_time'
p639
F25.476701021194458
sS'exec_cq'
p640
I486
sS'total_cq'
p641
I486
sa(dp642
g637
I85411
sg638
F5.584465980529785
sg639
F9.416494846343994
sg640
I414
sg641
I414
sa(dp643
g637
I261
sg638
F0.016170978546142578
sg639
F0.29080939292907715
sg640
I28
sg641
I28
sa(dp644
g637
I41
sg638
F0.010637044906616211
sg639
F0.3587677478790283
sg640
I13
sg641
I13
sa(dp645
g637
I41
sg638
F0.0014410018920898438
sg639
F0.00593113899230957
sg640
I6
sg641
I6
sa(dp646
g637
I11
sg638
F0.00024199485778808594
sg639
F0.0005340576171875
sg640
I2
sg641
I2
sasS'total_cqs'
p647
I486
ssI59
(dp648
S'iters'
p649
I2
sS'meta'
p650
(lp651
(dp652
S'objective'
p653
I6
sS'query_time'
p654
F0.046556949615478516
sS'comp_time'
p655
F0.006100893020629883
sS'exec_cq'
p656
I7
sS'total_cq'
p657
I7
sa(dp658
g653
I3
sg654
F0.00015807151794433594
sg655
F0.0003437995910644531
sg656
I2
sg657
I2
sasS'total_cqs'
p659
I7
ssI60
(dp660
S'iters'
p661
I1
sS'meta'
p662
(lp663
(dp664
S'objective'
p665
I5
sS'query_time'
p666
F0.0316319465637207
sS'comp_time'
p667
F0.0029659271240234375
sS'exec_cq'
p668
I4
sS'total_cq'
p669
I5
sasS'total_cqs'
p670
I5
ssI61
(dp671
S'iters'
p672
I0
sS'meta'
p673
(lp674
sS'total_cqs'
p675
I1
ssI62
(dp676
S'iters'
p677
I2
sS'meta'
p678
(lp679
(dp680
S'objective'
p681
I22
sS'query_time'
p682
F0.030386924743652344
sS'comp_time'
p683
F0.015455245971679688
sS'exec_cq'
p684
I12
sS'total_cq'
p685
I12
sa(dp686
g681
I26
sg682
F5.4836273193359375e-05
sg683
F0.00015497207641601562
sg684
I9
sg685
I9
sasS'total_cqs'
p687
I12
ssI63
(dp688
S'iters'
p689
I0
sS'meta'
p690
(lp691
sS'total_cqs'
p692
I1
ssI64
(dp693
S'iters'
p694
I3
sS'meta'
p695
(lp696
(dp697
S'objective'
p698
I8
sS'query_time'
p699
F0.1255350112915039
sS'comp_time'
p700
F0.01970505714416504
sS'exec_cq'
p701
I12
sS'total_cq'
p702
I12
sa(dp703
g698
I7
sg699
F0.00011897087097167969
sg700
F0.0008673667907714844
sg701
I4
sg702
I4
sa(dp704
g698
I3
sg699
F5.817413330078125e-05
sg700
F0.00016021728515625
sg701
I2
sg702
I2
sasS'total_cqs'
p705
I12
ssI65
(dp706
S'iters'
p707
I3
sS'meta'
p708
(lp709
(dp710
S'objective'
p711
I154
sS'query_time'
p712
F1.141200065612793
sS'comp_time'
p713
F0.05481910705566406
sS'exec_cq'
p714
I27
sS'total_cq'
p715
I27
sa(dp716
g711
I6
sg712
F0.0012569427490234375
sg713
F0.002650737762451172
sg714
I7
sg715
I7
sa(dp717
g711
I1
sg712
F0.00015807151794433594
sg713
F0.0003719329833984375
sg714
I3
sg715
I3
sasS'total_cqs'
p718
I27
ssI66
(dp719
S'iters'
p720
I0
sS'meta'
p721
(lp722
sS'total_cqs'
p723
I1
ssI67
(dp724
S'iters'
p725
I2
sS'meta'
p726
(lp727
(dp728
S'objective'
p729
I548
sS'query_time'
p730
F1.177196979522705
sS'comp_time'
p731
F0.15108323097229004
sS'exec_cq'
p732
I35
sS'total_cq'
p733
I35
sa(dp734
g729
I29
sg730
F0.002228975296020508
sg731
F0.002782106399536133
sg732
I2
sg733
I2
sasS'total_cqs'
p735
I35
ssI68
(dp736
S'iters'
p737
I0
sS'meta'
p738
(lp739
sS'total_cqs'
p740
I1
ssI69
(dp741
S'iters'
p742
I1
sS'meta'
p743
(lp744
(dp745
S'objective'
p746
I1224
sS'query_time'
p747
F0.18187785148620605
sS'comp_time'
p748
F0.3799779415130615
sS'exec_cq'
p749
I51
sS'total_cq'
p750
I51
sasS'total_cqs'
p751
I51
ssI70
(dp752
S'iters'
p753
I1
sS'meta'
p754
(lp755
(dp756
S'objective'
p757
I9
sS'query_time'
p758
F0.02098989486694336
sS'comp_time'
p759
F0.0032701492309570312
sS'exec_cq'
p760
I6
sS'total_cq'
p761
I6
sasS'total_cqs'
p762
I6
ssI71
(dp763
S'iters'
p764
I4
sS'meta'
p765
(lp766
(dp767
S'objective'
p768
I3307
sS'query_time'
p769
F0.3773622512817383
sS'comp_time'
p770
F0.27994680404663086
sS'exec_cq'
p771
I85
sS'total_cq'
p772
I85
sa(dp773
g768
I3145
sg769
F0.00041604042053222656
sg770
F0.0012249946594238281
sg771
I82
sg772
I82
sa(dp774
g768
I3017
sg769
F0.0003371238708496094
sg770
F0.0011432170867919922
sg771
I79
sg772
I79
sa(dp775
g768
I22
sg769
F0.0027849674224853516
sg770
F0.0035037994384765625
sg771
I3
sg772
I3
sasS'total_cqs'
p776
I85
ssI72
(dp777
S'iters'
p778
I2
sS'meta'
p779
(lp780
(dp781
S'objective'
p782
I8
sS'query_time'
p783
F0.32058119773864746
sS'comp_time'
p784
F0.0049517154693603516
sS'exec_cq'
p785
I8
sS'total_cq'
p786
I8
sa(dp787
g782
I6
sg783
F0.0001049041748046875
sg784
F0.00017404556274414062
sg785
I5
sg786
I5
sasS'total_cqs'
p788
I8
ssI73
(dp789
S'iters'
p790
I0
sS'meta'
p791
(lp792
sS'total_cqs'
p793
I1
ssI74
(dp794
S'iters'
p795
I0
sS'meta'
p796
(lp797
sS'total_cqs'
p798
I1
ssI75
(dp799
S'iters'
p800
I1
sS'meta'
p801
(lp802
(dp803
S'objective'
p804
I5
sS'query_time'
p805
F0.012801885604858398
sS'comp_time'
p806
F0.0020751953125
sS'exec_cq'
p807
I5
sS'total_cq'
p808
I5
sasS'total_cqs'
p809
I5
ssI76
(dp810
S'iters'
p811
I1
sS'meta'
p812
(lp813
(dp814
S'objective'
p815
I1
sS'query_time'
p816
F0.011632919311523438
sS'comp_time'
p817
F0.001043081283569336
sS'exec_cq'
p818
I2
sS'total_cq'
p819
I2
sasS'total_cqs'
p820
I2
ssI77
(dp821
S'iters'
p822
I0
sS'meta'
p823
(lp824
sS'total_cqs'
p825
I1
ssI78
(dp826
S'iters'
p827
I0
sS'meta'
p828
(lp829
sS'total_cqs'
p830
I1
ssI103
(dp831
S'iters'
p832
I1
sS'meta'
p833
(lp834
(dp835
S'objective'
p836
I54
sS'query_time'
p837
F0.06351900100708008
sS'comp_time'
p838
F0.015483379364013672
sS'exec_cq'
p839
I12
sS'total_cq'
p840
I12
sasS'total_cqs'
p841
I12
ssI104
(dp842
S'iters'
p843
I2
sS'meta'
p844
(lp845
(dp846
S'objective'
p847
I2
sS'query_time'
p848
F1.3857941627502441
sS'comp_time'
p849
F0.05781245231628418
sS'exec_cq'
p850
I4
sS'total_cq'
p851
I4
sa(dp852
g847
I2
sg848
F0.014081001281738281
sg849
F0.10536050796508789
sg850
I2
sg851
I2
sasS'total_cqs'
p853
I4
ssI105
(dp854
S'iters'
p855
I0
sS'meta'
p856
(lp857
sS'total_cqs'
p858
I1
ssI106
(dp859
S'iters'
p860
I1
sS'meta'
p861
(lp862
(dp863
S'objective'
p864
I2
sS'query_time'
p865
F0.01760697364807129
sS'comp_time'
p866
F0.0018107891082763672
sS'exec_cq'
p867
I4
sS'total_cq'
p868
I4
sasS'total_cqs'
p869
I4
ssI107
(dp870
S'iters'
p871
I2
sS'meta'
p872
(lp873
(dp874
S'objective'
p875
I76
sS'query_time'
p876
F0.08101201057434082
sS'comp_time'
p877
F0.02525019645690918
sS'exec_cq'
p878
I16
sS'total_cq'
p879
I16
sa(dp880
g875
I2
sg876
F0.005462169647216797
sg877
F0.0003287792205810547
sg878
I3
sg879
I3
sasS'total_cqs'
p881
I16
ssI108
(dp882
S'iters'
p883
I0
sS'meta'
p884
(lp885
sS'total_cqs'
p886
I1
ss.