(dp0
I1
(dp1
S'iters'
p2
I2
sS'meta'
p3
(lp4
(dp5
S'objective'
p6
I46
sS'query_time'
p7
F0.036727190017700195
sS'comp_time'
p8
F0.019565820693969727
sS'exec_cq'
p9
I12
sS'total_cq'
p10
I12
sa(dp11
g6
I38
sg7
F7.104873657226562e-05
sg8
F0.0002238750457763672
sg9
I10
sg10
I10
sasS'total_cqs'
p12
I12
ssI2
(dp13
S'iters'
p14
I2
sS'meta'
p15
(lp16
(dp17
S'objective'
p18
I200
sS'query_time'
p19
F0.09035587310791016
sS'comp_time'
p20
F0.06042170524597168
sS'exec_cq'
p21
I13
sS'total_cq'
p22
I27
sa(dp23
g18
I235
sg19
F6.794929504394531e-05
sg20
F0.0003619194030761719
sg21
I9
sg22
I23
sasS'total_cqs'
p24
I27
ssI3
(dp25
S'iters'
p26
I4
sS'meta'
p27
(lp28
(dp29
S'objective'
p30
I228
sS'query_time'
p31
F78.34996199607849
sS'comp_time'
p32
F0.6239912509918213
sS'exec_cq'
p33
I16
sS'total_cq'
p34
I43
sa(dp35
g30
I27
sg31
F108.8899359703064
sg32
F2.2033307552337646
sg33
I14
sg34
I27
sa(dp36
g30
I87
sg31
F42.426942110061646
sg32
F0.6624941825866699
sg33
I9
sg34
I13
sa(dp37
g30
I111
sg31
F11.266057968139648
sg32
F0.0019450187683105469
sg33
I6
sg34
I6
sasS'total_cqs'
p38
I43
ssI4
(dp39
S'iters'
p40
I2
sS'meta'
p41
(lp42
(dp43
S'objective'
p44
I24
sS'query_time'
p45
F5.041122913360596
sS'comp_time'
p46
F0.8554952144622803
sS'exec_cq'
p47
I11
sS'total_cq'
p48
I11
sa(dp49
g44
I1
sg45
F0.19776415824890137
sg46
F0.8420395851135254
sg47
I2
sg48
I2
sasS'total_cqs'
p50
I11
ssI5
(dp51
S'iters'
p52
I2
sS'meta'
p53
(lp54
(dp55
S'objective'
p56
I0
sS'query_time'
p57
F33.862499952316284
sS'comp_time'
p58
F3.908086061477661
sS'exec_cq'
p59
I8
sS'total_cq'
p60
I8
sa(dp61
g56
I2
sg57
F0.40224599838256836
sg58
F1.7376182079315186
sg59
I3
sg60
I3
sasS'total_cqs'
p62
I8
ssI6
(dp63
S'iters'
p64
I3
sS'meta'
p65
(lp66
(dp67
S'objective'
p68
I61
sS'query_time'
p69
F37.73901891708374
sS'comp_time'
p70
F3.610247850418091
sS'exec_cq'
p71
I18
sS'total_cq'
p72
I18
sa(dp73
g68
I1
sg69
F0.6278588771820068
sg70
F3.4944002628326416
sg71
I7
sg72
I7
sa(dp74
g68
I8
sg69
F0.457474946975708
sg70
F2.7766342163085938
sg71
I3
sg72
I3
sasS'total_cqs'
p75
I18
ssI7
(dp76
S'iters'
p77
I3
sS'meta'
p78
(lp79
(dp80
S'objective'
p81
I1
sS'query_time'
p82
F14.21812391281128
sS'comp_time'
p83
F2.002685785293579
sS'exec_cq'
p84
I9
sS'total_cq'
p85
I9
sa(dp86
g81
I2
sg82
F0.005391120910644531
sg83
F0.028011322021484375
sg84
I4
sg85
I4
sa(dp87
g81
I8
sg82
F0.003529071807861328
sg83
F0.16252899169921875
sg84
I2
sg85
I2
sasS'total_cqs'
p88
I9
ssI8
(dp89
S'iters'
p90
I3
sS'meta'
p91
(lp92
(dp93
S'objective'
p94
I294
sS'query_time'
p95
F0.07715487480163574
sS'comp_time'
p96
F0.03716158866882324
sS'exec_cq'
p97
I13
sS'total_cq'
p98
I27
sa(dp99
g94
I120
sg95
F0.08808302879333496
sg96
F0.0007338523864746094
sg97
I14
sg98
I24
sa(dp100
g94
I174
sg95
F5.602836608886719e-05
sg96
F0.0003714561462402344
sg97
I10
sg98
I19
sasS'total_cqs'
p101
I27
ssI9
(dp102
S'iters'
p103
I3
sS'meta'
p104
(lp105
(dp106
S'objective'
p107
I6
sS'query_time'
p108
F0.05950784683227539
sS'comp_time'
p109
F0.011280298233032227
sS'exec_cq'
p110
I7
sS'total_cq'
p111
I7
sa(dp112
g107
I1
sg108
F2.7894973754882812e-05
sg109
F0.00019812583923339844
sg110
I4
sg111
I4
sa(dp113
g107
I5
sg108
F1.4066696166992188e-05
sg109
F7.009506225585938e-05
sg110
I2
sg111
I2
sasS'total_cqs'
p114
I7
ssI10
(dp115
S'iters'
p116
I4
sS'meta'
p117
(lp118
(dp119
S'objective'
p120
I456
sS'query_time'
p121
F0.17023181915283203
sS'comp_time'
p122
F0.08077096939086914
sS'exec_cq'
p123
I23
sS'total_cq'
p124
I51
sa(dp125
g120
I3
sg121
F0.001477956771850586
sg122
F0.0014657974243164062
sg123
I12
sg124
I12
sa(dp126
g120
I30
sg121
F5.2928924560546875e-05
sg122
F0.00028324127197265625
sg123
I6
sg124
I6
sa(dp127
g120
I21
sg121
F2.5987625122070312e-05
sg122
F0.00014472007751464844
sg123
I3
sg124
I3
sasS'total_cqs'
p128
I51
ssI11
(dp129
S'iters'
p130
I4
sS'meta'
p131
(lp132
(dp133
S'objective'
p134
I956
sS'query_time'
p135
F0.587770938873291
sS'comp_time'
p136
F0.1892378330230713
sS'exec_cq'
p137
I63
sS'total_cq'
p138
I63
sa(dp139
g134
I958
sg135
F0.0013959407806396484
sg136
F0.00699305534362793
sg137
I47
sg138
I47
sa(dp140
g134
I20
sg135
F0.001950979232788086
sg136
F0.0028259754180908203
sg137
I9
sg138
I9
sa(dp141
g134
I4
sg135
F9.202957153320312e-05
sg136
F0.0005357265472412109
sg137
I6
sg138
I6
sasS'total_cqs'
p142
I63
ssI12
(dp143
S'iters'
p144
I5
sS'meta'
p145
(lp146
(dp147
S'objective'
p148
I407
sS'query_time'
p149
F0.16977810859680176
sS'comp_time'
p150
F0.08249616622924805
sS'exec_cq'
p151
I28
sS'total_cq'
p152
I50
sa(dp153
g148
I275
sg149
F0.14380288124084473
sg150
F0.0032646656036376953
sg151
I22
sg152
I33
sa(dp154
g148
I15
sg149
F0.001851797103881836
sg150
F0.0017688274383544922
sg151
I8
sg152
I8
sa(dp155
g148
I26
sg149
F2.9087066650390625e-05
sg150
F0.00015926361083984375
sg151
I4
sg152
I4
sa(dp156
g148
I20
sg149
F1.621246337890625e-05
sg150
F9.250640869140625e-05
sg151
I2
sg152
I2
sasS'total_cqs'
p157
I50
ssI13
(dp158
S'iters'
p159
I3
sS'meta'
p160
(lp161
(dp162
S'objective'
p163
I14
sS'query_time'
p164
F0.1519019603729248
sS'comp_time'
p165
F0.02824568748474121
sS'exec_cq'
p166
I20
sS'total_cq'
p167
I20
sa(dp168
g163
I52
sg164
F7.891654968261719e-05
sg165
F0.0005168914794921875
sg166
I9
sg167
I9
sa(dp169
g163
I17
sg164
F0.0018279552459716797
sg165
F0.00018453598022460938
sg166
I2
sg167
I2
sasS'total_cqs'
p170
I20
ssI14
(dp171
S'iters'
p172
I3
sS'meta'
p173
(lp174
(dp175
S'objective'
p176
I1
sS'query_time'
p177
F33.74241399765015
sS'comp_time'
p178
F1.596163272857666
sS'exec_cq'
p179
I9
sS'total_cq'
p180
I9
sa(dp181
g176
I2
sg177
F0.010502099990844727
sg178
F0.1808021068572998
sg179
I5
sg180
I5
sa(dp182
g176
I6
sg177
F0.006421089172363281
sg178
F0.03225588798522949
sg179
I2
sg180
I2
sasS'total_cqs'
p183
I9
ssI15
(dp184
S'iters'
p185
I3
sS'meta'
p186
(lp187
(dp188
S'objective'
p189
I2
sS'query_time'
p190
F3.7199819087982178
sS'comp_time'
p191
F0.3004300594329834
sS'exec_cq'
p192
I11
sS'total_cq'
p193
I11
sa(dp194
g189
I2
sg190
F0.03992009162902832
sg191
F0.26607251167297363
sg192
I5
sg193
I5
sa(dp195
g189
I7
sg190
F0.01510000228881836
sg191
F0.18842196464538574
sg192
I3
sg193
I3
sasS'total_cqs'
p196
I11
ssI16
(dp197
S'iters'
p198
I1
sS'meta'
p199
(lp200
(dp201
S'objective'
p202
I20
sS'query_time'
p203
F0.03392314910888672
sS'comp_time'
p204
F0.003920078277587891
sS'exec_cq'
p205
I8
sS'total_cq'
p206
I8
sasS'total_cqs'
p207
I8
ssI17
(dp208
S'iters'
p209
I3
sS'meta'
p210
(lp211
(dp212
S'objective'
p213
I2
sS'query_time'
p214
F0.9867231845855713
sS'comp_time'
p215
F0.05260324478149414
sS'exec_cq'
p216
I11
sS'total_cq'
p217
I11
sa(dp218
g213
I0
sg214
F0.009079217910766602
sg215
F0.030047893524169922
sg216
I6
sg217
I6
sa(dp219
g213
I6
sg214
F0.0023870468139648438
sg215
F0.145097017288208
sg216
I2
sg217
I2
sasS'total_cqs'
p220
I11
ssI18
(dp221
S'iters'
p222
I1
sS'meta'
p223
(lp224
(dp225
S'objective'
p226
I44
sS'query_time'
p227
F0.22905802726745605
sS'comp_time'
p228
F0.020663738250732422
sS'exec_cq'
p229
I10
sS'total_cq'
p230
I11
sasS'total_cqs'
p231
I11
ssI19
(dp232
S'iters'
p233
I0
sS'meta'
p234
(lp235
sS'total_cqs'
p236
I1
ssI20
(dp237
S'iters'
p238
I0
sS'meta'
p239
(lp240
sS'total_cqs'
p241
I1
ssI21
(dp242
S'iters'
p243
I0
sS'meta'
p244
(lp245
sS'total_cqs'
p246
I1
ssI22
(dp247
S'iters'
p248
I1
sS'meta'
p249
(lp250
(dp251
S'objective'
p252
I135
sS'query_time'
p253
F0.0556941032409668
sS'comp_time'
p254
F0.0309906005859375
sS'exec_cq'
p255
I18
sS'total_cq'
p256
I18
sasS'total_cqs'
p257
I18
ssI23
(dp258
S'iters'
p259
I1
sS'meta'
p260
(lp261
(dp262
S'objective'
p263
I104
sS'query_time'
p264
F0.05011296272277832
sS'comp_time'
p265
F0.041498661041259766
sS'exec_cq'
p266
I8
sS'total_cq'
p267
I16
sasS'total_cqs'
p268
I16
ssI24
(dp269
S'iters'
p270
I0
sS'meta'
p271
(lp272
sS'total_cqs'
p273
I1
ssI25
(dp274
S'iters'
p275
I0
sS'meta'
p276
(lp277
sS'total_cqs'
p278
I1
ssI26
(dp279
S'iters'
p280
I1
sS'meta'
p281
(lp282
(dp283
S'objective'
p284
I819
sS'query_time'
p285
F0.15513920783996582
sS'comp_time'
p286
F0.117706298828125
sS'exec_cq'
p287
I42
sS'total_cq'
p288
I42
sasS'total_cqs'
p289
I42
ssI27
(dp290
S'iters'
p291
I3
sS'meta'
p292
(lp293
(dp294
S'objective'
p295
I299
sS'query_time'
p296
F22.772419929504395
sS'comp_time'
p297
F4.212482213973999
sS'exec_cq'
p298
I30
sS'total_cq'
p299
I30
sa(dp300
g295
I1
sg296
F0.8870079517364502
sg297
F4.1633546352386475
sg298
I5
sg299
I5
sa(dp301
g295
I18
sg296
F0.07263994216918945
sg297
F0.9071950912475586
sg298
I2
sg299
I2
sasS'total_cqs'
p302
I30
ssI28
(dp303
S'iters'
p304
I0
sS'meta'
p305
(lp306
sS'total_cqs'
p307
I1
ssI29
(dp308
S'iters'
p309
I4
sS'meta'
p310
(lp311
(dp312
S'objective'
p313
I291
sS'query_time'
p314
F27.62241506576538
sS'comp_time'
p315
F0.9249179363250732
sS'exec_cq'
p316
I35
sS'total_cq'
p317
I49
sa(dp318
g313
I27
sg314
F0.0514829158782959
sg315
F0.510004997253418
sg316
I17
sg317
I17
sa(dp319
g313
I1
sg314
F0.045044898986816406
sg315
F0.41495275497436523
sg316
I9
sg317
I9
sa(dp320
g313
I26
sg314
F0.005042076110839844
sg315
F0.027255535125732422
sg316
I3
sg317
I3
sasS'total_cqs'
p321
I49
ssI30
(dp322
S'iters'
p323
I1
sS'meta'
p324
(lp325
(dp326
S'objective'
p327
I1
sS'query_time'
p328
F0.7020840644836426
sS'comp_time'
p329
F0.03893709182739258
sS'exec_cq'
p330
I2
sS'total_cq'
p331
I2
sasS'total_cqs'
p332
I2
ssI31
(dp333
S'iters'
p334
I0
sS'meta'
p335
(lp336
sS'total_cqs'
p337
I1
ssI32
(dp338
S'iters'
p339
I1
sS'meta'
p340
(lp341
(dp342
S'objective'
p343
I1
sS'query_time'
p344
F0.015964984893798828
sS'comp_time'
p345
F0.004239559173583984
sS'exec_cq'
p346
I2
sS'total_cq'
p347
I2
sasS'total_cqs'
p348
I2
ssI33
(dp349
S'iters'
p350
I5
sS'meta'
p351
(lp352
(dp353
S'objective'
p354
I3470
sS'query_time'
p355
F15.907612085342407
sS'comp_time'
p356
F1.0104081630706787
sS'exec_cq'
p357
I103
sS'total_cq'
p358
I103
sa(dp359
g354
I75
sg355
F0.007308006286621094
sg356
F0.1860816478729248
sg357
I16
sg358
I16
sa(dp360
g354
I3
sg355
F0.002493143081665039
sg356
F0.013143062591552734
sg357
I9
sg358
I9
sa(dp361
g354
I18
sg355
F0.0014388561248779297
sg356
F0.0069446563720703125
sg357
I5
sg358
I5
sa(dp362
g354
I69
sg355
F0.0001800060272216797
sg356
F0.0012288093566894531
sg357
I2
sg358
I2
sasS'total_cqs'
p363
I103
ssI34
(dp364
S'iters'
p365
I1
sS'meta'
p366
(lp367
(dp368
S'objective'
p369
I1
sS'query_time'
p370
F0.0231020450592041
sS'comp_time'
p371
F0.001950979232788086
sS'exec_cq'
p372
I2
sS'total_cq'
p373
I2
sasS'total_cqs'
p374
I2
ssI35
(dp375
S'iters'
p376
I4
sS'meta'
p377
(lp378
(dp379
S'objective'
p380
I1373
sS'query_time'
p381
F20.762113094329834
sS'comp_time'
p382
F0.4217650890350342
sS'exec_cq'
p383
I50
sS'total_cq'
p384
I70
sa(dp385
g380
I42
sg381
F0.10285282135009766
sg382
F0.01491403579711914
sg383
I16
sg384
I16
sa(dp386
g380
I7
sg381
F0.0019030570983886719
sg382
F0.006460905075073242
sg383
I7
sg384
I7
sa(dp387
g380
I15
sg381
F0.0008230209350585938
sg382
F0.004850864410400391
sg383
I3
sg384
I3
sasS'total_cqs'
p388
I70
ssI36
(dp389
S'iters'
p390
I2
sS'meta'
p391
(lp392
(dp393
S'objective'
p394
I427
sS'query_time'
p395
F1.0566911697387695
sS'comp_time'
p396
F0.22527027130126953
sS'exec_cq'
p397
I33
sS'total_cq'
p398
I33
sa(dp399
g394
I428
sg395
F0.004420042037963867
sg396
F0.006430864334106445
sg397
I28
sg398
I29
sasS'total_cqs'
p400
I33
ssI37
(dp401
S'iters'
p402
I1
sS'meta'
p403
(lp404
(dp405
S'objective'
p406
I1
sS'query_time'
p407
F0.009181976318359375
sS'comp_time'
p408
F0.0010938644409179688
sS'exec_cq'
p409
I2
sS'total_cq'
p410
I2
sasS'total_cqs'
p411
I2
ssI38
(dp412
S'iters'
p413
I2
sS'meta'
p414
(lp415
(dp416
S'objective'
p417
I0
sS'query_time'
p418
F0.036373138427734375
sS'comp_time'
p419
F0.004095792770385742
sS'exec_cq'
p420
I4
sS'total_cq'
p421
I4
sa(dp422
g417
I3
sg418
F0.00011610984802246094
sg419
F0.0004923343658447266
sg420
I2
sg421
I2
sasS'total_cqs'
p423
I4
ssI39
(dp424
S'iters'
p425
I2
sS'meta'
p426
(lp427
(dp428
S'objective'
p429
I630
sS'query_time'
p430
F0.22763395309448242
sS'comp_time'
p431
F0.15679097175598145
sS'exec_cq'
p432
I44
sS'total_cq'
p433
I44
sa(dp434
g429
I722
sg430
F0.00030803680419921875
sg431
F0.001985788345336914
sg432
I37
sg433
I37
sasS'total_cqs'
p435
I44
ssI40
(dp436
S'iters'
p437
I1
sS'meta'
p438
(lp439
(dp440
S'objective'
p441
I14
sS'query_time'
p442
F0.03486990928649902
sS'comp_time'
p443
F0.006631135940551758
sS'exec_cq'
p444
I7
sS'total_cq'
p445
I7
sasS'total_cqs'
p446
I7
ssI41
(dp447
S'iters'
p448
I1
sS'meta'
p449
(lp450
(dp451
S'objective'
p452
I54
sS'query_time'
p453
F0.11748814582824707
sS'comp_time'
p454
F0.01889204978942871
sS'exec_cq'
p455
I12
sS'total_cq'
p456
I12
sasS'total_cqs'
p457
I12
ssI42
(dp458
S'iters'
p459
I1
sS'meta'
p460
(lp461
(dp462
S'objective'
p463
I779
sS'query_time'
p464
F0.07546305656433105
sS'comp_time'
p465
F0.1517810821533203
sS'exec_cq'
p466
I21
sS'total_cq'
p467
I41
sasS'total_cqs'
p468
I41
ssI43
(dp469
S'iters'
p470
I1
sS'meta'
p471
(lp472
(dp473
S'objective'
p474
I14
sS'query_time'
p475
F0.0706779956817627
sS'comp_time'
p476
F0.019101619720458984
sS'exec_cq'
p477
I7
sS'total_cq'
p478
I7
sasS'total_cqs'
p479
I7
ssI44
(dp480
S'iters'
p481
I4
sS'meta'
p482
(lp483
(dp484
S'objective'
p485
I850
sS'query_time'
p486
F0.1503608226776123
sS'comp_time'
p487
F0.10676312446594238
sS'exec_cq'
p488
I47
sS'total_cq'
p489
I47
sa(dp490
g485
I777
sg486
F0.0003330707550048828
sg487
F0.0018148422241210938
sg488
I40
sg489
I40
sa(dp491
g485
I42
sg486
F0.0016660690307617188
sg487
F0.0020072460174560547
sg488
I3
sg489
I3
sa(dp492
g485
I20
sg486
F2.5033950805664062e-05
sg487
F0.00014019012451171875
sg488
I2
sg489
I2
sasS'total_cqs'
p493
I47
ssI45
(dp494
S'iters'
p495
I0
sS'meta'
p496
(lp497
sS'total_cqs'
p498
I1
ssI46
(dp499
S'iters'
p500
I1
sS'meta'
p501
(lp502
(dp503
S'objective'
p504
I9
sS'query_time'
p505
F0.07825303077697754
sS'comp_time'
p506
F0.003095865249633789
sS'exec_cq'
p507
I4
sS'total_cq'
p508
I6
sasS'total_cqs'
p509
I6
ssI47
(dp510
S'iters'
p511
I1
sS'meta'
p512
(lp513
(dp514
S'objective'
p515
I1
sS'query_time'
p516
F0.009582996368408203
sS'comp_time'
p517
F0.0012030601501464844
sS'exec_cq'
p518
I2
sS'total_cq'
p519
I2
sasS'total_cqs'
p520
I2
ssI48
(dp521
S'iters'
p522
I0
sS'meta'
p523
(lp524
sS'total_cqs'
p525
I1
ssI49
(dp526
S'iters'
p527
I0
sS'meta'
p528
(lp529
sS'total_cqs'
p530
I1
ssI50
(dp531
S'iters'
p532
I1
sS'meta'
p533
(lp534
(dp535
S'objective'
p536
I5
sS'query_time'
p537
F0.019804954528808594
sS'comp_time'
p538
F0.0021698474884033203
sS'exec_cq'
p539
I5
sS'total_cq'
p540
I5
sasS'total_cqs'
p541
I5
ssI51
(dp542
S'iters'
p543
I1
sS'meta'
p544
(lp545
(dp546
S'objective'
p547
I1
sS'query_time'
p548
F0.009438037872314453
sS'comp_time'
p549
F0.0010001659393310547
sS'exec_cq'
p550
I2
sS'total_cq'
p551
I2
sasS'total_cqs'
p552
I2
ssI52
(dp553
S'iters'
p554
I1
sS'meta'
p555
(lp556
(dp557
S'objective'
p558
I1
sS'query_time'
p559
F0.014427900314331055
sS'comp_time'
p560
F0.0017139911651611328
sS'exec_cq'
p561
I2
sS'total_cq'
p562
I2
sasS'total_cqs'
p563
I2
ssI53
(dp564
S'iters'
p565
I1
sS'meta'
p566
(lp567
(dp568
S'objective'
p569
I2
sS'query_time'
p570
F0.025649070739746094
sS'comp_time'
p571
F0.0026950836181640625
sS'exec_cq'
p572
I4
sS'total_cq'
p573
I4
sasS'total_cqs'
p574
I4
ssI54
(dp575
S'iters'
p576
I1
sS'meta'
p577
(lp578
(dp579
S'objective'
p580
I0
sS'query_time'
p581
F0.012650012969970703
sS'comp_time'
p582
F0.0020232200622558594
sS'exec_cq'
p583
I3
sS'total_cq'
p584
I3
sasS'total_cqs'
p585
I3
ssI55
(dp586
S'iters'
p587
I4
sS'meta'
p588
(lp589
(dp590
S'objective'
p591
I4835
sS'query_time'
p592
F2.3290610313415527
sS'comp_time'
p593
F0.7409336566925049
sS'exec_cq'
p594
I109
sS'total_cq'
p595
I109
sa(dp596
g591
I6
sg592
F0.010127067565917969
sg593
F0.041851043701171875
sg594
I10
sg595
I10
sa(dp597
g591
I63
sg592
F0.006520986557006836
sg593
F0.028516769409179688
sg594
I5
sg595
I5
sa(dp598
g591
I40
sg592
F0.2085731029510498
sg593
F0.017522335052490234
sg594
I3
sg595
I3
sasS'total_cqs'
p599
I109
ssI56
(dp600
S'iters'
p601
I4
sS'meta'
p602
(lp603
(dp604
S'objective'
p605
I1694
sS'query_time'
p606
F1.648008108139038
sS'comp_time'
p607
F0.3714900016784668
sS'exec_cq'
p608
I67
sS'total_cq'
p609
I76
sa(dp610
g605
I28
sg606
F0.007806062698364258
sg607
F0.021368980407714844
sg608
I16
sg609
I16
sa(dp611
g605
I42
sg606
F0.0041790008544921875
sg607
F0.013777017593383789
sg608
I9
sg609
I9
sa(dp612
g605
I12
sg606
F0.00026416778564453125
sg607
F0.0014057159423828125
sg608
I3
sg609
I3
sasS'total_cqs'
p613
I76
ssI57
(dp614
S'iters'
p615
I5
sS'meta'
p616
(lp617
(dp618
S'objective'
p619
I126
sS'query_time'
p620
F23.6384539604187
sS'comp_time'
p621
F0.9477808475494385
sS'exec_cq'
p622
I45
sS'total_cq'
p623
I51
sa(dp624
g619
I6
sg620
F0.014647960662841797
sg621
F0.03368377685546875
sg622
I27
sg623
I27
sa(dp625
g619
I0
sg620
F0.0024411678314208984
sg621
F0.007623195648193359
sg622
I12
sg623
I12
sa(dp626
g619
I5
sg620
F0.001522064208984375
sg621
F0.004976987838745117
sg622
I6
sg623
I6
sa(dp627
g619
I8
sg620
F0.00047898292541503906
sg621
F0.002850055694580078
sg622
I2
sg623
I2
sasS'total_cqs'
p628
I51
ssI58
(dp629
S'iters'
p630
I6
sS'meta'
p631
(lp632
(dp633
S'objective'
p634
I84541
sS'query_time'
p635
F113.48041987419128
sS'comp_time'
p636
F16.57588481903076
sS'exec_cq'
p637
I348
sS'total_cq'
p638
I486
sa(dp639
g634
I85799
sg635
F0.03874611854553223
sg636
F1.8991880416870117
sg637
I276
sg638
I414
sa(dp640
g634
I29
sg635
F0.01601696014404297
sg636
F0.08388614654541016
sg637
I28
sg638
I28
sa(dp641
g634
I63
sg635
F0.006713151931762695
sg636
F0.01864910125732422
sg637
I14
sg638
I14
sa(dp642
g634
I40
sg635
F0.004201173782348633
sg636
F0.014974355697631836
sg637
I8
sg638
I8
sa(dp643
g634
I5
sg635
F0.001901865005493164
sg636
F0.008278131484985352
sg637
I3
sg638
I3
sasS'total_cqs'
p644
I486
ssI59
(dp645
S'iters'
p646
I2
sS'meta'
p647
(lp648
(dp649
S'objective'
p650
I8
sS'query_time'
p651
F0.050984859466552734
sS'comp_time'
p652
F0.025762081146240234
sS'exec_cq'
p653
I7
sS'total_cq'
p654
I7
sa(dp655
g650
I4
sg651
F0.00016307830810546875
sg652
F0.001222372055053711
sg653
I2
sg654
I2
sasS'total_cqs'
p656
I7
ssI60
(dp657
S'iters'
p658
I2
sS'meta'
p659
(lp660
(dp661
S'objective'
p662
I7
sS'query_time'
p663
F0.026707887649536133
sS'comp_time'
p664
F0.0034470558166503906
sS'exec_cq'
p665
I2
sS'total_cq'
p666
I5
sa(dp667
g662
I1
sg663
F0.016165971755981445
sg664
F0.00020623207092285156
sg665
I3
sg666
I4
sasS'total_cqs'
p668
I5
ssI61
(dp669
S'iters'
p670
I0
sS'meta'
p671
(lp672
sS'total_cqs'
p673
I1
ssI62
(dp674
S'iters'
p675
I2
sS'meta'
p676
(lp677
(dp678
S'objective'
p679
I44
sS'query_time'
p680
F0.06249403953552246
sS'comp_time'
p681
F0.026748180389404297
sS'exec_cq'
p682
I12
sS'total_cq'
p683
I12
sa(dp684
g679
I37
sg680
F5.602836608886719e-05
sg681
F0.0002338886260986328
sg682
I9
sg683
I9
sasS'total_cqs'
p685
I12
ssI63
(dp686
S'iters'
p687
I0
sS'meta'
p688
(lp689
sS'total_cqs'
p690
I1
ssI64
(dp691
S'iters'
p692
I3
sS'meta'
p693
(lp694
(dp695
S'objective'
p696
I24
sS'query_time'
p697
F0.28343796730041504
sS'comp_time'
p698
F0.0215151309967041
sS'exec_cq'
p699
I12
sS'total_cq'
p700
I12
sa(dp701
g696
I1
sg697
F0.00019097328186035156
sg698
F0.0012729167938232422
sg699
I4
sg700
I4
sa(dp702
g696
I11
sg697
F4.100799560546875e-05
sg698
F0.00023293495178222656
sg699
I2
sg700
I2
sasS'total_cqs'
p703
I12
ssI65
(dp704
S'iters'
p705
I3
sS'meta'
p706
(lp707
(dp708
S'objective'
p709
I106
sS'query_time'
p710
F0.8676841259002686
sS'comp_time'
p711
F0.365246057510376
sS'exec_cq'
p712
I27
sS'total_cq'
p713
I27
sa(dp714
g709
I6
sg710
F0.0017349720001220703
sg711
F0.005776166915893555
sg712
I7
sg713
I7
sa(dp715
g709
I11
sg710
F0.000843048095703125
sg711
F0.0048351287841796875
sg712
I3
sg713
I3
sasS'total_cqs'
p716
I27
ssI66
(dp717
S'iters'
p718
I0
sS'meta'
p719
(lp720
sS'total_cqs'
p721
I1
ssI67
(dp722
S'iters'
p723
I2
sS'meta'
p724
(lp725
(dp726
S'objective'
p727
I528
sS'query_time'
p728
F1.2159080505371094
sS'comp_time'
p729
F0.15720701217651367
sS'exec_cq'
p730
I35
sS'total_cq'
p731
I35
sa(dp732
g727
I19
sg728
F0.0012249946594238281
sg729
F0.007106781005859375
sg730
I2
sg731
I2
sasS'total_cqs'
p733
I35
ssI68
(dp734
S'iters'
p735
I0
sS'meta'
p736
(lp737
sS'total_cqs'
p738
I1
ssI69
(dp739
S'iters'
p740
I1
sS'meta'
p741
(lp742
(dp743
S'objective'
p744
I1224
sS'query_time'
p745
F0.16509699821472168
sS'comp_time'
p746
F0.1084132194519043
sS'exec_cq'
p747
I51
sS'total_cq'
p748
I51
sasS'total_cqs'
p749
I51
ssI70
(dp750
S'iters'
p751
I1
sS'meta'
p752
(lp753
(dp754
S'objective'
p755
I9
sS'query_time'
p756
F0.02385401725769043
sS'comp_time'
p757
F0.0034170150756835938
sS'exec_cq'
p758
I6
sS'total_cq'
p759
I6
sasS'total_cqs'
p760
I6
ssI71
(dp761
S'iters'
p762
I2
sS'meta'
p763
(lp764
(dp765
S'objective'
p766
I3215
sS'query_time'
p767
F0.3328678607940674
sS'comp_time'
p768
F0.42203807830810547
sS'exec_cq'
p769
I73
sS'total_cq'
p770
I85
sa(dp771
g766
I50
sg767
F0.0016350746154785156
sg768
F0.003832101821899414
sg769
I3
sg770
I3
sasS'total_cqs'
p772
I85
ssI72
(dp773
S'iters'
p774
I3
sS'meta'
p775
(lp776
(dp777
S'objective'
p778
I14
sS'query_time'
p779
F0.26343297958374023
sS'comp_time'
p780
F0.005316019058227539
sS'exec_cq'
p781
I4
sS'total_cq'
p782
I8
sa(dp783
g778
I7
sg779
F0.028417110443115234
sg780
F0.0003108978271484375
sg781
I4
sg782
I5
sa(dp784
g778
I0
sg779
F5.698204040527344e-05
sg780
F0.0002579689025878906
sg781
I2
sg782
I3
sasS'total_cqs'
p785
I8
ssI73
(dp786
S'iters'
p787
I0
sS'meta'
p788
(lp789
sS'total_cqs'
p790
I1
ssI74
(dp791
S'iters'
p792
I0
sS'meta'
p793
(lp794
sS'total_cqs'
p795
I1
ssI75
(dp796
S'iters'
p797
I1
sS'meta'
p798
(lp799
(dp800
S'objective'
p801
I5
sS'query_time'
p802
F0.011934995651245117
sS'comp_time'
p803
F0.0020689964294433594
sS'exec_cq'
p804
I5
sS'total_cq'
p805
I5
sasS'total_cqs'
p806
I5
ssI76
(dp807
S'iters'
p808
I1
sS'meta'
p809
(lp810
(dp811
S'objective'
p812
I1
sS'query_time'
p813
F0.011248111724853516
sS'comp_time'
p814
F0.0013377666473388672
sS'exec_cq'
p815
I2
sS'total_cq'
p816
I2
sasS'total_cqs'
p817
I2
ssI77
(dp818
S'iters'
p819
I0
sS'meta'
p820
(lp821
sS'total_cqs'
p822
I1
ssI78
(dp823
S'iters'
p824
I0
sS'meta'
p825
(lp826
sS'total_cqs'
p827
I1
ssI103
(dp828
S'iters'
p829
I1
sS'meta'
p830
(lp831
(dp832
S'objective'
p833
I54
sS'query_time'
p834
F0.0546109676361084
sS'comp_time'
p835
F0.015836715698242188
sS'exec_cq'
p836
I12
sS'total_cq'
p837
I12
sasS'total_cqs'
p838
I12
ssI104
(dp839
S'iters'
p840
I1
sS'meta'
p841
(lp842
(dp843
S'objective'
p844
I2
sS'query_time'
p845
F1.2572128772735596
sS'comp_time'
p846
F0.20180630683898926
sS'exec_cq'
p847
I4
sS'total_cq'
p848
I4
sasS'total_cqs'
p849
I4
ssI105
(dp850
S'iters'
p851
I0
sS'meta'
p852
(lp853
sS'total_cqs'
p854
I1
ssI106
(dp855
S'iters'
p856
I1
sS'meta'
p857
(lp858
(dp859
S'objective'
p860
I2
sS'query_time'
p861
F0.021316051483154297
sS'comp_time'
p862
F0.0020661354064941406
sS'exec_cq'
p863
I4
sS'total_cq'
p864
I4
sasS'total_cqs'
p865
I4
ssI107
(dp866
S'iters'
p867
I2
sS'meta'
p868
(lp869
(dp870
S'objective'
p871
I54
sS'query_time'
p872
F0.07624411582946777
sS'comp_time'
p873
F0.08570599555969238
sS'exec_cq'
p874
I16
sS'total_cq'
p875
I16
sa(dp876
g871
I9
sg872
F0.004854917526245117
sg873
F0.0004177093505859375
sg874
I3
sg875
I3
sasS'total_cqs'
p877
I16
ssI108
(dp878
S'iters'
p879
I0
sS'meta'
p880
(lp881
sS'total_cqs'
p882
I1
ss.