(dp0
I1
(dp1
S'iters'
p2
I2
sS'meta'
p3
(lp4
(dp5
S'objective'
p6
I44
sS'query_time'
p7
F0.06925487518310547
sS'comp_time'
p8
F0.016118764877319336
sS'exec_cq'
p9
I12
sS'total_cq'
p10
I12
sa(dp11
g6
I37
sg7
F5.888938903808594e-05
sg8
F0.00018715858459472656
sg9
I10
sg10
I10
sasS'total_cqs'
p12
I12
ssI2
(dp13
S'iters'
p14
I3
sS'meta'
p15
(lp16
(dp17
S'objective'
p18
I256
sS'query_time'
p19
F0.17736172676086426
sS'comp_time'
p20
F0.037174224853515625
sS'exec_cq'
p21
I27
sS'total_cq'
p22
I27
sa(dp23
g18
I211
sg19
F0.00025391578674316406
sg20
F0.0009002685546875
sg21
I24
sg22
I24
sa(dp24
g18
I210
sg19
F0.00020813941955566406
sg20
F0.0006124973297119141
sg21
I21
sg22
I21
sasS'total_cqs'
p25
I27
ssI3
(dp26
S'iters'
p27
I4
sS'meta'
p28
(lp29
(dp30
S'objective'
p31
I606
sS'query_time'
p32
F229.5028657913208
sS'comp_time'
p33
F1.8005964756011963
sS'exec_cq'
p34
I39
sS'total_cq'
p35
I43
sa(dp36
g31
I564
sg32
F0.5768980979919434
sg33
F2.21936297416687
sg34
I31
sg35
I35
sa(dp37
g31
I552
sg32
F12.432446718215942
sg33
F0.7171547412872314
sg34
I28
sg35
I28
sa(dp38
g31
I525
sg32
F0.012139320373535156
sg33
F0.000225067138671875
sg34
I25
sg35
I25
sasS'total_cqs'
p39
I43
ssI4
(dp40
S'iters'
p41
I2
sS'meta'
p42
(lp43
(dp44
S'objective'
p45
I40
sS'query_time'
p46
F5.186155080795288
sS'comp_time'
p47
F0.3303849697113037
sS'exec_cq'
p48
I11
sS'total_cq'
p49
I11
sa(dp50
g45
I9
sg46
F0.17056608200073242
sg47
F0.26687192916870117
sg48
I2
sg49
I2
sasS'total_cqs'
p51
I11
ssI5
(dp52
S'iters'
p53
I3
sS'meta'
p54
(lp55
(dp56
S'objective'
p57
I0
sS'query_time'
p58
F31.948580026626587
sS'comp_time'
p59
F2.2700464725494385
sS'exec_cq'
p60
I8
sS'total_cq'
p61
I8
sa(dp62
g57
I0
sg58
F0.10494399070739746
sg59
F0.5704367160797119
sg60
I5
sg61
I5
sa(dp63
g57
I7
sg58
F0.00426793098449707
sg59
F0.005110979080200195
sg60
I2
sg61
I2
sasS'total_cqs'
p64
I8
ssI6
(dp65
S'iters'
p66
I3
sS'meta'
p67
(lp68
(dp69
S'objective'
p70
I17
sS'query_time'
p71
F34.86689805984497
sS'comp_time'
p72
F1.4967858791351318
sS'exec_cq'
p73
I18
sS'total_cq'
p74
I18
sa(dp75
g70
I1
sg71
F0.6609389781951904
sg72
F16.1871018409729
sg73
I7
sg74
I7
sa(dp76
g70
I2
sg71
F0.10742902755737305
sg72
F0.5107123851776123
sg73
I4
sg74
I4
sasS'total_cqs'
p77
I18
ssI7
(dp78
S'iters'
p79
I3
sS'meta'
p80
(lp81
(dp82
S'objective'
p83
I1
sS'query_time'
p84
F13.450033903121948
sS'comp_time'
p85
F1.138948678970337
sS'exec_cq'
p86
I9
sS'total_cq'
p87
I9
sa(dp88
g83
I0
sg84
F0.28540706634521484
sg85
F0.582819938659668
sg86
I5
sg87
I5
sa(dp89
g83
I7
sg84
F0.040384769439697266
sg85
F0.2175731658935547
sg86
I2
sg87
I2
sasS'total_cqs'
p90
I9
ssI8
(dp91
S'iters'
p92
I3
sS'meta'
p93
(lp94
(dp95
S'objective'
p96
I268
sS'query_time'
p97
F0.18724918365478516
sS'comp_time'
p98
F0.030757904052734375
sS'exec_cq'
p99
I27
sS'total_cq'
p100
I27
sa(dp101
g96
I235
sg97
F0.0002181529998779297
sg98
F0.0007007122039794922
sg99
I22
sg100
I22
sa(dp102
g96
I10
sg97
F0.0017769336700439453
sg98
F0.00041985511779785156
sg99
I2
sg100
I2
sasS'total_cqs'
p103
I27
ssI9
(dp104
S'iters'
p105
I3
sS'meta'
p106
(lp107
(dp108
S'objective'
p109
I4
sS'query_time'
p110
F0.044947147369384766
sS'comp_time'
p111
F0.004762411117553711
sS'exec_cq'
p112
I7
sS'total_cq'
p113
I7
sa(dp114
g109
I0
sg110
F2.9802322387695312e-05
sg111
F0.00019288063049316406
sg112
I4
sg113
I4
sa(dp115
g109
I6
sg110
F0.0013909339904785156
sg111
F0.00010418891906738281
sg112
I2
sg113
I2
sasS'total_cqs'
p116
I7
ssI10
(dp117
S'iters'
p118
I5
sS'meta'
p119
(lp120
(dp121
S'objective'
p122
I542
sS'query_time'
p123
F0.4145779609680176
sS'comp_time'
p124
F0.07714343070983887
sS'exec_cq'
p125
I51
sS'total_cq'
p126
I51
sa(dp127
g122
I354
sg123
F0.0006308555603027344
sg124
F0.0032122135162353516
sg125
I37
sg126
I37
sa(dp128
g122
I0
sg123
F0.0016808509826660156
sg124
F0.003983736038208008
sg125
I12
sg126
I12
sa(dp129
g122
I5
sg123
F8.797645568847656e-05
sg124
F0.0008080005645751953
sg125
I7
sg126
I7
sa(dp130
g122
I27
sg123
F2.09808349609375e-05
sg124
F0.00014400482177734375
sg125
I3
sg126
I3
sasS'total_cqs'
p131
I51
ssI11
(dp132
S'iters'
p133
I4
sS'meta'
p134
(lp135
(dp136
S'objective'
p137
I1062
sS'query_time'
p138
F0.9174759387969971
sS'comp_time'
p139
F0.16065382957458496
sS'exec_cq'
p140
I63
sS'total_cq'
p141
I63
sa(dp142
g137
I929
sg138
F0.0014410018920898438
sg139
F0.005273103713989258
sg140
I47
sg141
I47
sa(dp143
g137
I9
sg138
F0.0018928050994873047
sg139
F0.002723217010498047
sg140
I9
sg141
I9
sa(dp144
g137
I31
sg138
F3.600120544433594e-05
sg139
F0.00022482872009277344
sg140
I4
sg141
I4
sasS'total_cqs'
p145
I63
ssI12
(dp146
S'iters'
p147
I4
sS'meta'
p148
(lp149
(dp150
S'objective'
p151
I435
sS'query_time'
p152
F0.4258568286895752
sS'comp_time'
p153
F0.08408331871032715
sS'exec_cq'
p154
I50
sS'total_cq'
p155
I50
sa(dp156
g151
I405
sg152
F0.0004482269287109375
sg153
F0.0025534629821777344
sg154
I33
sg155
I33
sa(dp157
g151
I3
sg152
F0.0033659934997558594
sg153
F0.0012972354888916016
sg154
I8
sg155
I8
sa(dp158
g151
I14
sg152
F3.600120544433594e-05
sg153
F0.00016498565673828125
sg154
I3
sg155
I3
sasS'total_cqs'
p159
I50
ssI13
(dp160
S'iters'
p161
I4
sS'meta'
p162
(lp163
(dp164
S'objective'
p165
I8
sS'query_time'
p166
F0.1753828525543213
sS'comp_time'
p167
F0.02883124351501465
sS'exec_cq'
p168
I20
sS'total_cq'
p169
I20
sa(dp170
g165
I1
sg166
F0.0018150806427001953
sg167
F0.003882169723510742
sg168
I11
sg169
I11
sa(dp171
g165
I5
sg166
F3.695487976074219e-05
sg167
F0.0002830028533935547
sg168
I5
sg169
I5
sa(dp172
g165
I10
sg166
F2.3126602172851562e-05
sg167
F0.00010037422180175781
sg168
I3
sg169
I3
sasS'total_cqs'
p173
I20
ssI14
(dp174
S'iters'
p175
I3
sS'meta'
p176
(lp177
(dp178
S'objective'
p179
I1
sS'query_time'
p180
F32.22763514518738
sS'comp_time'
p181
F1.2523550987243652
sS'exec_cq'
p182
I9
sS'total_cq'
p183
I9
sa(dp184
g179
I1
sg180
F0.30114102363586426
sg181
F0.49962902069091797
sg182
I4
sg183
I4
sa(dp185
g179
I6
sg180
F0.009224176406860352
sg181
F0.010979890823364258
sg182
I2
sg183
I2
sasS'total_cqs'
p186
I9
ssI15
(dp187
S'iters'
p188
I3
sS'meta'
p189
(lp190
(dp191
S'objective'
p192
I0
sS'query_time'
p193
F3.771239995956421
sS'comp_time'
p194
F0.0884406566619873
sS'exec_cq'
p195
I11
sS'total_cq'
p196
I11
sa(dp197
g192
I1
sg193
F0.04285621643066406
sg194
F0.15372991561889648
sg195
I5
sg196
I5
sa(dp198
g192
I5
sg193
F0.026819944381713867
sg194
F0.02709221839904785
sg195
I3
sg196
I3
sasS'total_cqs'
p199
I11
ssI16
(dp200
S'iters'
p201
I1
sS'meta'
p202
(lp203
(dp204
S'objective'
p205
I20
sS'query_time'
p206
F0.03102707862854004
sS'comp_time'
p207
F0.004390239715576172
sS'exec_cq'
p208
I8
sS'total_cq'
p209
I8
sasS'total_cqs'
p210
I8
ssI17
(dp211
S'iters'
p212
I3
sS'meta'
p213
(lp214
(dp215
S'objective'
p216
I0
sS'query_time'
p217
F0.9426620006561279
sS'comp_time'
p218
F0.058916568756103516
sS'exec_cq'
p219
I11
sS'total_cq'
p220
I11
sa(dp221
g216
I1
sg217
F0.0037660598754882812
sg218
F0.0076751708984375
sg219
I7
sg220
I7
sa(dp222
g216
I6
sg217
F0.0028409957885742188
sg218
F0.005068063735961914
sg219
I2
sg220
I2
sasS'total_cqs'
p223
I11
ssI18
(dp224
S'iters'
p225
I2
sS'meta'
p226
(lp227
(dp228
S'objective'
p229
I30
sS'query_time'
p230
F0.19980978965759277
sS'comp_time'
p231
F0.023275136947631836
sS'exec_cq'
p232
I11
sS'total_cq'
p233
I11
sa(dp234
g229
I26
sg230
F0.00043487548828125
sg231
F0.0007789134979248047
sg232
I8
sg233
I8
sasS'total_cqs'
p235
I11
ssI22
(dp236
S'iters'
p237
I1
sS'meta'
p238
(lp239
(dp240
S'objective'
p241
I135
sS'query_time'
p242
F0.07428288459777832
sS'comp_time'
p243
F0.03148174285888672
sS'exec_cq'
p244
I18
sS'total_cq'
p245
I18
sasS'total_cqs'
p246
I18
ssI23
(dp247
S'iters'
p248
I2
sS'meta'
p249
(lp250
(dp251
S'objective'
p252
I98
sS'query_time'
p253
F0.052449941635131836
sS'comp_time'
p254
F0.023101329803466797
sS'exec_cq'
p255
I16
sS'total_cq'
p256
I16
sa(dp257
g252
I85
sg253
F9.918212890625e-05
sg254
F0.00020194053649902344
sg255
I14
sg256
I14
sasS'total_cqs'
p258
I16
ssI26
(dp259
S'iters'
p260
I1
sS'meta'
p261
(lp262
(dp263
S'objective'
p264
I819
sS'query_time'
p265
F0.13015079498291016
sS'comp_time'
p266
F0.10901093482971191
sS'exec_cq'
p267
I42
sS'total_cq'
p268
I42
sasS'total_cqs'
p269
I42
ssI27
(dp270
S'iters'
p271
I3
sS'meta'
p272
(lp273
(dp274
S'objective'
p275
I263
sS'query_time'
p276
F22.070297956466675
sS'comp_time'
p277
F2.0330350399017334
sS'exec_cq'
p278
I30
sS'total_cq'
p279
I30
sa(dp280
g275
I3
sg276
F0.4678049087524414
sg277
F2.220745325088501
sg278
I5
sg279
I5
sa(dp281
g275
I8
sg276
F0.08979415893554688
sg277
F0.49633193016052246
sg278
I2
sg279
I2
sasS'total_cqs'
p282
I30
ssI29
(dp283
S'iters'
p284
I4
sS'meta'
p285
(lp286
(dp287
S'objective'
p288
I355
sS'query_time'
p289
F28.094988107681274
sS'comp_time'
p290
F0.45135998725891113
sS'exec_cq'
p291
I35
sS'total_cq'
p292
I49
sa(dp293
g288
I19
sg289
F0.09166979789733887
sg290
F1.3039898872375488
sg291
I16
sg292
I16
sa(dp294
g288
I3
sg289
F0.026219844818115234
sg290
F0.3501765727996826
sg291
I7
sg292
I7
sa(dp295
g288
I17
sg289
F0.0032351016998291016
sg290
F0.005565166473388672
sg291
I3
sg292
I3
sasS'total_cqs'
p296
I49
ssI30
(dp297
S'iters'
p298
I1
sS'meta'
p299
(lp300
(dp301
S'objective'
p302
I1
sS'query_time'
p303
F0.7208309173583984
sS'comp_time'
p304
F0.011992216110229492
sS'exec_cq'
p305
I2
sS'total_cq'
p306
I2
sasS'total_cqs'
p307
I2
ssI32
(dp308
S'iters'
p309
I1
sS'meta'
p310
(lp311
(dp312
S'objective'
p313
I1
sS'query_time'
p314
F0.014992952346801758
sS'comp_time'
p315
F0.0017938613891601562
sS'exec_cq'
p316
I2
sS'total_cq'
p317
I2
sasS'total_cqs'
p318
I2
ssI33
(dp319
S'iters'
p320
I4
sS'meta'
p321
(lp322
(dp323
S'objective'
p324
I4072
sS'query_time'
p325
F19.349495887756348
sS'comp_time'
p326
F0.8769443035125732
sS'exec_cq'
p327
I103
sS'total_cq'
p328
I103
sa(dp329
g324
I12
sg325
F0.010228872299194336
sg326
F0.07933497428894043
sg327
I16
sg328
I16
sa(dp330
g324
I29
sg325
F0.004244804382324219
sg326
F0.018979549407958984
sg327
I8
sg328
I8
sa(dp331
g324
I28
sg325
F0.00048804283142089844
sg326
F0.0010800361633300781
sg327
I2
sg328
I2
sasS'total_cqs'
p332
I103
ssI34
(dp333
S'iters'
p334
I1
sS'meta'
p335
(lp336
(dp337
S'objective'
p338
I1
sS'query_time'
p339
F0.019388914108276367
sS'comp_time'
p340
F0.002115011215209961
sS'exec_cq'
p341
I2
sS'total_cq'
p342
I2
sasS'total_cqs'
p343
I2
ssI35
(dp344
S'iters'
p345
I4
sS'meta'
p346
(lp347
(dp348
S'objective'
p349
I1221
sS'query_time'
p350
F73.53718495368958
sS'comp_time'
p351
F2.727013111114502
sS'exec_cq'
p352
I70
sS'total_cq'
p353
I70
sa(dp354
g349
I106
sg350
F0.0049588680267333984
sg351
F0.015006542205810547
sg352
I16
sg353
I16
sa(dp355
g349
I19
sg350
F0.0022759437561035156
sg351
F0.00429987907409668
sg352
I9
sg353
I9
sa(dp356
g349
I54
sg350
F0.0006601810455322266
sg351
F0.0010099411010742188
sg352
I4
sg353
I4
sasS'total_cqs'
p357
I70
ssI36
(dp358
S'iters'
p359
I3
sS'meta'
p360
(lp361
(dp362
S'objective'
p363
I397
sS'query_time'
p364
F0.8934979438781738
sS'comp_time'
p365
F0.07580804824829102
sS'exec_cq'
p366
I33
sS'total_cq'
p367
I33
sa(dp368
g363
I337
sg364
F0.003242015838623047
sg365
F0.006580352783203125
sg366
I29
sg367
I29
sa(dp369
g363
I342
sg364
F0.0012638568878173828
sg365
F0.0018625259399414062
sg366
I24
sg367
I25
sasS'total_cqs'
p370
I33
ssI37
(dp371
S'iters'
p372
I1
sS'meta'
p373
(lp374
(dp375
S'objective'
p376
I1
sS'query_time'
p377
F0.008727073669433594
sS'comp_time'
p378
F0.0015232563018798828
sS'exec_cq'
p379
I2
sS'total_cq'
p380
I2
sasS'total_cqs'
p381
I2
ssI38
(dp382
S'iters'
p383
I2
sS'meta'
p384
(lp385
(dp386
S'objective'
p387
I0
sS'query_time'
p388
F0.04327392578125
sS'comp_time'
p389
F0.00304412841796875
sS'exec_cq'
p390
I4
sS'total_cq'
p391
I4
sa(dp392
g387
I3
sg388
F8.678436279296875e-05
sg389
F0.0002541542053222656
sg390
I2
sg391
I2
sasS'total_cqs'
p393
I4
ssI39
(dp394
S'iters'
p395
I2
sS'meta'
p396
(lp397
(dp398
S'objective'
p399
I650
sS'query_time'
p400
F0.24634313583374023
sS'comp_time'
p401
F0.07055330276489258
sS'exec_cq'
p402
I44
sS'total_cq'
p403
I44
sa(dp404
g399
I732
sg400
F0.00034499168395996094
sg401
F0.0008985996246337891
sg402
I37
sg403
I37
sasS'total_cqs'
p405
I44
ssI40
(dp406
S'iters'
p407
I1
sS'meta'
p408
(lp409
(dp410
S'objective'
p411
I14
sS'query_time'
p412
F0.04314994812011719
sS'comp_time'
p413
F0.005551815032958984
sS'exec_cq'
p414
I7
sS'total_cq'
p415
I7
sasS'total_cqs'
p416
I7
ssI41
(dp417
S'iters'
p418
I1
sS'meta'
p419
(lp420
(dp421
S'objective'
p422
I54
sS'query_time'
p423
F0.0794379711151123
sS'comp_time'
p424
F0.016158103942871094
sS'exec_cq'
p425
I12
sS'total_cq'
p426
I12
sasS'total_cqs'
p427
I12
ssI42
(dp428
S'iters'
p429
I1
sS'meta'
p430
(lp431
(dp432
S'objective'
p433
I779
sS'query_time'
p434
F0.10510587692260742
sS'comp_time'
p435
F0.13248872756958008
sS'exec_cq'
p436
I41
sS'total_cq'
p437
I41
sasS'total_cqs'
p438
I41
ssI43
(dp439
S'iters'
p440
I1
sS'meta'
p441
(lp442
(dp443
S'objective'
p444
I14
sS'query_time'
p445
F0.05031609535217285
sS'comp_time'
p446
F0.009674072265625
sS'exec_cq'
p447
I7
sS'total_cq'
p448
I7
sasS'total_cqs'
p449
I7
ssI44
(dp450
S'iters'
p451
I4
sS'meta'
p452
(lp453
(dp454
S'objective'
p455
I682
sS'query_time'
p456
F0.3005859851837158
sS'comp_time'
p457
F0.14882612228393555
sS'exec_cq'
p458
I47
sS'total_cq'
p459
I47
sa(dp460
g455
I641
sg456
F0.000286102294921875
sg457
F0.0009379386901855469
sg458
I40
sg459
I40
sa(dp461
g455
I42
sg456
F0.0019159317016601562
sg457
F0.001394033432006836
sg458
I3
sg459
I3
sa(dp462
g455
I7
sg456
F2.5033950805664062e-05
sg457
F0.00020003318786621094
sg458
I2
sg459
I2
sasS'total_cqs'
p463
I47
ssI46
(dp464
S'iters'
p465
I1
sS'meta'
p466
(lp467
(dp468
S'objective'
p469
I9
sS'query_time'
p470
F0.021930932998657227
sS'comp_time'
p471
F0.002547025680541992
sS'exec_cq'
p472
I4
sS'total_cq'
p473
I6
sasS'total_cqs'
p474
I6
ssI47
(dp475
S'iters'
p476
I1
sS'meta'
p477
(lp478
(dp479
S'objective'
p480
I1
sS'query_time'
p481
F0.00876307487487793
sS'comp_time'
p482
F0.0010628700256347656
sS'exec_cq'
p483
I2
sS'total_cq'
p484
I2
sasS'total_cqs'
p485
I2
ssI50
(dp486
S'iters'
p487
I1
sS'meta'
p488
(lp489
(dp490
S'objective'
p491
I5
sS'query_time'
p492
F0.017161130905151367
sS'comp_time'
p493
F0.002132892608642578
sS'exec_cq'
p494
I5
sS'total_cq'
p495
I5
sasS'total_cqs'
p496
I5
ssI51
(dp497
S'iters'
p498
I1
sS'meta'
p499
(lp500
(dp501
S'objective'
p502
I1
sS'query_time'
p503
F0.008049964904785156
sS'comp_time'
p504
F0.0008864402770996094
sS'exec_cq'
p505
I2
sS'total_cq'
p506
I2
sasS'total_cqs'
p507
I2
ssI52
(dp508
S'iters'
p509
I1
sS'meta'
p510
(lp511
(dp512
S'objective'
p513
I1
sS'query_time'
p514
F0.04117703437805176
sS'comp_time'
p515
F0.0010881423950195312
sS'exec_cq'
p516
I2
sS'total_cq'
p517
I2
sasS'total_cqs'
p518
I2
ssI53
(dp519
S'iters'
p520
I2
sS'meta'
p521
(lp522
(dp523
S'objective'
p524
I0
sS'query_time'
p525
F0.022619962692260742
sS'comp_time'
p526
F0.002609729766845703
sS'exec_cq'
p527
I4
sS'total_cq'
p528
I4
sa(dp529
g524
I3
sg525
F0.0001068115234375
sg526
F0.0002429485321044922
sg527
I2
sg528
I2
sasS'total_cqs'
p530
I4
ssI54
(dp531
S'iters'
p532
I1
sS'meta'
p533
(lp534
(dp535
S'objective'
p536
I0
sS'query_time'
p537
F0.012362957000732422
sS'comp_time'
p538
F0.001506805419921875
sS'exec_cq'
p539
I3
sS'total_cq'
p540
I3
sasS'total_cqs'
p541
I3
ssI55
(dp542
S'iters'
p543
I5
sS'meta'
p544
(lp545
(dp546
S'objective'
p547
I4777
sS'query_time'
p548
F2.3033530712127686
sS'comp_time'
p549
F0.6854729652404785
sS'exec_cq'
p550
I109
sS'total_cq'
p551
I109
sa(dp552
g547
I4686
sg548
F0.0007600784301757812
sg549
F0.0033638477325439453
sg550
I97
sg551
I97
sa(dp553
g547
I4582
sg548
F0.000308990478515625
sg549
F0.0011968612670898438
sg550
I91
sg551
I91
sa(dp554
g547
I4501
sg548
F0.00029087066650390625
sg549
F0.0010228157043457031
sg550
I87
sg551
I87
sa(dp555
g547
I4437
sg548
F0.0002799034118652344
sg549
F0.0006427764892578125
sg550
I85
sg551
I85
sasS'total_cqs'
p556
I109
ssI56
(dp557
S'iters'
p558
I4
sS'meta'
p559
(lp560
(dp561
S'objective'
p562
I1746
sS'query_time'
p563
F1.677030086517334
sS'comp_time'
p564
F0.4104785919189453
sS'exec_cq'
p565
I67
sS'total_cq'
p566
I76
sa(dp567
g562
I6
sg563
F0.005897998809814453
sg564
F0.10254716873168945
sg565
I16
sg566
I16
sa(dp568
g562
I28
sg563
F0.0032129287719726562
sg564
F0.013620615005493164
sg565
I11
sg566
I11
sa(dp569
g562
I8
sg563
F0.0005888938903808594
sg564
F0.0048542022705078125
sg565
I7
sg566
I7
sasS'total_cqs'
p570
I76
ssI57
(dp571
S'iters'
p572
I5
sS'meta'
p573
(lp574
(dp575
S'objective'
p576
I318
sS'query_time'
p577
F24.916438102722168
sS'comp_time'
p578
F0.15303659439086914
sS'exec_cq'
p579
I45
sS'total_cq'
p580
I51
sa(dp581
g576
I26
sg577
F0.021036863327026367
sg578
F0.04068136215209961
sg579
I31
sg580
I31
sa(dp582
g576
I2
sg577
F0.02019214630126953
sg578
F0.4140462875366211
sg579
I16
sg580
I16
sa(dp583
g576
I6
sg577
F0.00820612907409668
sg578
F0.031731367111206055
sg579
I9
sg580
I9
sa(dp584
g576
I1
sg577
F0.0011949539184570312
sg578
F0.0011696815490722656
sg579
I3
sg580
I3
sasS'total_cqs'
p585
I51
ssI58
(dp586
S'iters'
p587
I6
sS'meta'
p588
(lp589
(dp590
S'objective'
p591
I83751
sS'query_time'
p592
F332.3917019367218
sS'comp_time'
p593
F28.60456609725952
sS'exec_cq'
p594
I486
sS'total_cq'
p595
I486
sa(dp596
g591
I84848
sg592
F5.629246950149536
sg593
F8.977876663208008
sg594
I414
sg595
I414
sa(dp597
g591
I185
sg592
F0.015529870986938477
sg593
F0.2083275318145752
sg594
I28
sg595
I28
sa(dp598
g591
I17
sg592
F0.00875091552734375
sg593
F0.22415733337402344
sg594
I13
sg595
I13
sa(dp599
g591
I107
sg592
F0.0021228790283203125
sg593
F0.00496220588684082
sg594
I5
sg595
I5
sa(dp600
g591
I32
sg592
F0.00030493736267089844
sg593
F0.0004763603210449219
sg594
I2
sg595
I2
sasS'total_cqs'
p601
I486
ssI59
(dp602
S'iters'
p603
I2
sS'meta'
p604
(lp605
(dp606
S'objective'
p607
I6
sS'query_time'
p608
F0.06507396697998047
sS'comp_time'
p609
F0.005302906036376953
sS'exec_cq'
p610
I7
sS'total_cq'
p611
I7
sa(dp612
g607
I3
sg608
F0.0002560615539550781
sg609
F0.00048422813415527344
sg610
I2
sg611
I2
sasS'total_cqs'
p613
I7
ssI60
(dp614
S'iters'
p615
I1
sS'meta'
p616
(lp617
(dp618
S'objective'
p619
I5
sS'query_time'
p620
F0.017594099044799805
sS'comp_time'
p621
F0.003293752670288086
sS'exec_cq'
p622
I4
sS'total_cq'
p623
I5
sasS'total_cqs'
p624
I5
ssI62
(dp625
S'iters'
p626
I2
sS'meta'
p627
(lp628
(dp629
S'objective'
p630
I52
sS'query_time'
p631
F0.030078887939453125
sS'comp_time'
p632
F0.017012834548950195
sS'exec_cq'
p633
I12
sS'total_cq'
p634
I12
sa(dp635
g630
I41
sg631
F5.3882598876953125e-05
sg632
F0.00018024444580078125
sg633
I9
sg634
I9
sasS'total_cqs'
p636
I12
ssI64
(dp637
S'iters'
p638
I3
sS'meta'
p639
(lp640
(dp641
S'objective'
p642
I24
sS'query_time'
p643
F0.12324094772338867
sS'comp_time'
p644
F0.020272493362426758
sS'exec_cq'
p645
I12
sS'total_cq'
p646
I12
sa(dp647
g642
I1
sg643
F0.0002410411834716797
sg644
F0.0012011528015136719
sg645
I4
sg646
I4
sa(dp648
g642
I10
sg643
F6.794929504394531e-05
sg644
F0.0001971721649169922
sg645
I2
sg646
I2
sasS'total_cqs'
p649
I12
ssI65
(dp650
S'iters'
p651
I3
sS'meta'
p652
(lp653
(dp654
S'objective'
p655
I144
sS'query_time'
p656
F0.787973165512085
sS'comp_time'
p657
F0.22847342491149902
sS'exec_cq'
p658
I27
sS'total_cq'
p659
I27
sa(dp660
g655
I3
sg656
F0.0019648075103759766
sg657
F0.0030722618103027344
sg658
I7
sg659
I7
sa(dp661
g655
I3
sg656
F0.0008571147918701172
sg657
F0.001926422119140625
sg658
I4
sg659
I4
sasS'total_cqs'
p662
I27
ssI67
(dp663
S'iters'
p664
I2
sS'meta'
p665
(lp666
(dp667
S'objective'
p668
I554
sS'query_time'
p669
F1.0681800842285156
sS'comp_time'
p670
F0.11222720146179199
sS'exec_cq'
p671
I35
sS'total_cq'
p672
I35
sa(dp673
g668
I32
sg669
F0.0013561248779296875
sg670
F0.0031630992889404297
sg671
I2
sg672
I2
sasS'total_cqs'
p674
I35
ssI69
(dp675
S'iters'
p676
I1
sS'meta'
p677
(lp678
(dp679
S'objective'
p680
I1224
sS'query_time'
p681
F0.16064000129699707
sS'comp_time'
p682
F0.10158514976501465
sS'exec_cq'
p683
I51
sS'total_cq'
p684
I51
sasS'total_cqs'
p685
I51
ssI70
(dp686
S'iters'
p687
I1
sS'meta'
p688
(lp689
(dp690
S'objective'
p691
I9
sS'query_time'
p692
F0.02074909210205078
sS'comp_time'
p693
F0.0026061534881591797
sS'exec_cq'
p694
I6
sS'total_cq'
p695
I6
sasS'total_cqs'
p696
I6
ssI71
(dp697
S'iters'
p698
I3
sS'meta'
p699
(lp700
(dp701
S'objective'
p702
I3131
sS'query_time'
p703
F0.3526463508605957
sS'comp_time'
p704
F0.27266407012939453
sS'exec_cq'
p705
I85
sS'total_cq'
p706
I85
sa(dp707
g702
I3023
sg703
F0.00046706199645996094
sg704
F0.0016710758209228516
sg705
I81
sg706
I81
sa(dp708
g702
I15
sg703
F0.0018129348754882812
sg704
F0.004387378692626953
sg705
I3
sg706
I3
sasS'total_cqs'
p709
I85
ssI72
(dp710
S'iters'
p711
I3
sS'meta'
p712
(lp713
(dp714
S'objective'
p715
I12
sS'query_time'
p716
F0.28542327880859375
sS'comp_time'
p717
F0.007539272308349609
sS'exec_cq'
p718
I8
sS'total_cq'
p719
I8
sa(dp720
g715
I6
sg716
F7.390975952148438e-05
sg717
F0.00015997886657714844
sg718
I4
sg719
I5
sa(dp721
g715
I1
sg716
F2.09808349609375e-05
sg717
F4.00543212890625e-05
sg718
I2
sg719
I3
sasS'total_cqs'
p722
I8
ssI75
(dp723
S'iters'
p724
I1
sS'meta'
p725
(lp726
(dp727
S'objective'
p728
I5
sS'query_time'
p729
F0.011420965194702148
sS'comp_time'
p730
F0.002069711685180664
sS'exec_cq'
p731
I5
sS'total_cq'
p732
I5
sasS'total_cqs'
p733
I5
ssI76
(dp734
S'iters'
p735
I1
sS'meta'
p736
(lp737
(dp738
S'objective'
p739
I1
sS'query_time'
p740
F0.019340038299560547
sS'comp_time'
p741
F0.0012047290802001953
sS'exec_cq'
p742
I2
sS'total_cq'
p743
I2
sasS'total_cqs'
p744
I2
ssI103
(dp745
S'iters'
p746
I1
sS'meta'
p747
(lp748
(dp749
S'objective'
p750
I54
sS'query_time'
p751
F0.07670402526855469
sS'comp_time'
p752
F0.01968240737915039
sS'exec_cq'
p753
I12
sS'total_cq'
p754
I12
sasS'total_cqs'
p755
I12
ssI104
(dp756
S'iters'
p757
I2
sS'meta'
p758
(lp759
(dp760
S'objective'
p761
I0
sS'query_time'
p762
F1.4730360507965088
sS'comp_time'
p763
F0.13137030601501465
sS'exec_cq'
p764
I4
sS'total_cq'
p765
I4
sa(dp766
g761
I3
sg762
F0.011245965957641602
sg763
F0.018178224563598633
sg764
I2
sg765
I2
sasS'total_cqs'
p767
I4
ssI106
(dp768
S'iters'
p769
I1
sS'meta'
p770
(lp771
(dp772
S'objective'
p773
I2
sS'query_time'
p774
F0.01796102523803711
sS'comp_time'
p775
F0.0019185543060302734
sS'exec_cq'
p776
I4
sS'total_cq'
p777
I4
sasS'total_cqs'
p778
I4
ssI107
(dp779
S'iters'
p780
I2
sS'meta'
p781
(lp782
(dp783
S'objective'
p784
I58
sS'query_time'
p785
F0.08094906806945801
sS'comp_time'
p786
F0.08444571495056152
sS'exec_cq'
p787
I16
sS'total_cq'
p788
I16
sa(dp789
g784
I7
sg785
F0.004853963851928711
sg786
F0.00029587745666503906
sg787
I3
sg788
I3
sasS'total_cqs'
p790
I16
ss.