(dp0
I1
(dp1
S'iters'
p2
I2
sS'meta'
p3
(lp4
(dp5
S'objective'
p6
I36
sS'query_time'
p7
F0.01583409309387207
sS'comp_time'
p8
F0.0002472400665283203
sS'exec_cq'
p9
I12
sS'total_cq'
p10
I12
sa(dp11
g6
I33
sg7
F4.601478576660156e-05
sg8
F0.00010895729064941406
sg9
I10
sg10
I10
sasS'total_cqs'
p12
I12
ssI2
(dp13
S'iters'
p14
I3
sS'meta'
p15
(lp16
(dp17
S'objective'
p18
I260
sS'query_time'
p19
F0.061138153076171875
sS'comp_time'
p20
F0.001249074935913086
sS'exec_cq'
p21
I27
sS'total_cq'
p22
I27
sa(dp23
g18
I235
sg19
F0.00017499923706054688
sg20
F0.0008122920989990234
sg21
I24
sg22
I24
sa(dp24
g18
I223
sg19
F0.00015091896057128906
sg20
F0.0007491111755371094
sg21
I21
sg22
I21
sasS'total_cqs'
p25
I27
ssI3
(dp26
S'iters'
p27
I4
sS'meta'
p28
(lp29
(dp30
S'objective'
p31
I566
sS'query_time'
p32
F570.532968044281
sS'comp_time'
p33
F2.951029062271118
sS'exec_cq'
p34
I43
sS'total_cq'
p35
I43
sa(dp36
g31
I458
sg32
F0.07328414916992188
sg33
F0.7833559513092041
sg34
I36
sg35
I36
sa(dp37
g31
I355
sg32
F0.19695687294006348
sg33
F0.8532590866088867
sg34
I28
sg35
I28
sa(dp38
g31
I395
sg32
F0.00011801719665527344
sg33
F0.00015091896057128906
sg34
I20
sg35
I20
sasS'total_cqs'
p39
I43
ssI4
(dp40
S'iters'
p41
I2
sS'meta'
p42
(lp43
(dp44
S'objective'
p45
I28
sS'query_time'
p46
F4.473573923110962
sS'comp_time'
p47
F0.8952159881591797
sS'exec_cq'
p48
I11
sS'total_cq'
p49
I11
sa(dp50
g45
I3
sg46
F0.16684293746948242
sg47
F0.8626580238342285
sg48
I2
sg49
I2
sasS'total_cqs'
p51
I11
ssI5
(dp52
S'iters'
p53
I3
sS'meta'
p54
(lp55
(dp56
S'objective'
p57
I0
sS'query_time'
p58
F31.838522911071777
sS'comp_time'
p59
F3.6394970417022705
sS'exec_cq'
p60
I8
sS'total_cq'
p61
I8
sa(dp62
g57
I0
sg58
F0.01192617416381836
sg59
F0.09256887435913086
sg60
I4
sg61
I4
sa(dp63
g57
I7
sg58
F0.007657051086425781
sg59
F0.06715226173400879
sg60
I2
sg61
I2
sasS'total_cqs'
p64
I8
ssI6
(dp65
S'iters'
p66
I3
sS'meta'
p67
(lp68
(dp69
S'objective'
p70
I15
sS'query_time'
p71
F31.985427856445312
sS'comp_time'
p72
F3.310349941253662
sS'exec_cq'
p73
I18
sS'total_cq'
p74
I18
sa(dp75
g70
I0
sg71
F0.9201869964599609
sg72
F3.4297738075256348
sg73
I7
sg74
I7
sa(dp76
g70
I3
sg71
F0.19693613052368164
sg72
F2.2556638717651367
sg73
I3
sg74
I3
sasS'total_cqs'
p77
I18
ssI7
(dp78
S'iters'
p79
I3
sS'meta'
p80
(lp81
(dp82
S'objective'
p83
I1
sS'query_time'
p84
F12.78772783279419
sS'comp_time'
p85
F2.3043339252471924
sS'exec_cq'
p86
I9
sS'total_cq'
p87
I9
sa(dp88
g83
I0
sg84
F0.27199506759643555
sg85
F1.0162341594696045
sg86
I5
sg87
I5
sa(dp89
g83
I7
sg84
F0.0040149688720703125
sg85
F0.032675981521606445
sg86
I2
sg87
I2
sasS'total_cqs'
p90
I9
ssI8
(dp91
S'iters'
p92
I3
sS'meta'
p93
(lp94
(dp95
S'objective'
p96
I274
sS'query_time'
p97
F0.28995203971862793
sS'comp_time'
p98
F0.0026330947875976562
sS'exec_cq'
p99
I27
sS'total_cq'
p100
I27
sa(dp101
g96
I240
sg97
F0.0001709461212158203
sg98
F0.0005679130554199219
sg99
I22
sg100
I22
sa(dp102
g96
I11
sg97
F3.409385681152344e-05
sg98
F0.00029015541076660156
sg99
I2
sg100
I2
sasS'total_cqs'
p103
I27
ssI9
(dp104
S'iters'
p105
I2
sS'meta'
p106
(lp107
(dp108
S'objective'
p109
I6
sS'query_time'
p110
F0.044209957122802734
sS'comp_time'
p111
F0.0003170967102050781
sS'exec_cq'
p112
I7
sS'total_cq'
p113
I7
sa(dp114
g109
I3
sg110
F1.4781951904296875e-05
sg111
F7.605552673339844e-05
sg112
I2
sg113
I2
sasS'total_cqs'
p115
I7
ssI10
(dp116
S'iters'
p117
I5
sS'meta'
p118
(lp119
(dp120
S'objective'
p121
I552
sS'query_time'
p122
F0.21952509880065918
sS'comp_time'
p123
F0.0051119327545166016
sS'exec_cq'
p124
I51
sS'total_cq'
p125
I51
sa(dp126
g121
I405
sg122
F0.0005059242248535156
sg123
F0.002279996871948242
sg124
I37
sg125
I37
sa(dp127
g121
I1
sg122
F0.0002319812774658203
sg123
F0.0008499622344970703
sg124
I12
sg125
I12
sa(dp128
g121
I1
sg122
F4.38690185546875e-05
sg123
F0.0001690387725830078
sg124
I5
sg125
I5
sa(dp129
g121
I36
sg122
F1.6927719116210938e-05
sg123
F0.00010395050048828125
sg124
I2
sg125
I2
sasS'total_cqs'
p130
I51
ssI11
(dp131
S'iters'
p132
I5
sS'meta'
p133
(lp134
(dp135
S'objective'
p136
I956
sS'query_time'
p137
F0.3801610469818115
sS'comp_time'
p138
F0.02600407600402832
sS'exec_cq'
p139
I63
sS'total_cq'
p140
I63
sa(dp141
g136
I750
sg137
F0.0012669563293457031
sg138
F0.009060144424438477
sg139
I47
sg140
I47
sa(dp142
g136
I44
sg137
F0.0002579689025878906
sg138
F0.0017809867858886719
sg139
I9
sg140
I9
sa(dp143
g136
I12
sg137
F3.409385681152344e-05
sg138
F0.00016808509826660156
sg139
I4
sg140
I4
sa(dp144
g136
I51
sg137
F1.4781951904296875e-05
sg138
F8.58306884765625e-05
sg139
I2
sg140
I2
sasS'total_cqs'
p145
I63
ssI12
(dp146
S'iters'
p147
I5
sS'meta'
p148
(lp149
(dp150
S'objective'
p151
I453
sS'query_time'
p152
F0.19289088249206543
sS'comp_time'
p153
F0.0062220096588134766
sS'exec_cq'
p154
I50
sS'total_cq'
p155
I50
sa(dp156
g151
I450
sg152
F0.0004420280456542969
sg153
F0.003232717514038086
sg154
I33
sg155
I33
sa(dp157
g151
I441
sg152
F0.00018405914306640625
sg153
F0.0008668899536132812
sg154
I26
sg155
I26
sa(dp158
g151
I2
sg152
F6.29425048828125e-05
sg153
F0.0002880096435546875
sg154
I5
sg155
I5
sa(dp159
g151
I45
sg152
F2.3126602172851562e-05
sg153
F0.00016999244689941406
sg154
I2
sg155
I2
sasS'total_cqs'
p160
I50
ssI13
(dp161
S'iters'
p162
I3
sS'meta'
p163
(lp164
(dp165
S'objective'
p166
I4
sS'query_time'
p167
F0.09891009330749512
sS'comp_time'
p168
F0.00045108795166015625
sS'exec_cq'
p169
I20
sS'total_cq'
p170
I20
sa(dp171
g166
I55
sg167
F4.696846008300781e-05
sg168
F7.915496826171875e-05
sg169
I9
sg170
I9
sa(dp172
g166
I16
sg167
F1.2874603271484375e-05
sg168
F7.081031799316406e-05
sg169
I2
sg170
I2
sasS'total_cqs'
p173
I20
ssI14
(dp174
S'iters'
p175
I3
sS'meta'
p176
(lp177
(dp178
S'objective'
p179
I1
sS'query_time'
p180
F30.513423204421997
sS'comp_time'
p181
F1.711064100265503
sS'exec_cq'
p182
I9
sS'total_cq'
p183
I9
sa(dp184
g179
I0
sg180
F0.38126611709594727
sg181
F1.4089539051055908
sg182
I4
sg183
I4
sa(dp185
g179
I7
sg180
F0.06259894371032715
sg181
F0.9502890110015869
sg182
I2
sg183
I2
sasS'total_cqs'
p186
I9
ssI15
(dp187
S'iters'
p188
I3
sS'meta'
p189
(lp190
(dp191
S'objective'
p192
I2
sS'query_time'
p193
F3.523542881011963
sS'comp_time'
p194
F0.3540360927581787
sS'exec_cq'
p195
I11
sS'total_cq'
p196
I11
sa(dp197
g192
I2
sg193
F0.21335196495056152
sg194
F0.2741549015045166
sg195
I5
sg196
I5
sa(dp198
g192
I6
sg193
F0.00968790054321289
sg194
F0.15487885475158691
sg195
I2
sg196
I2
sasS'total_cqs'
p199
I11
ssI16
(dp200
S'iters'
p201
I1
sS'meta'
p202
(lp203
(dp204
S'objective'
p205
I20
sS'query_time'
p206
F0.009779930114746094
sS'comp_time'
p207
F0.00022602081298828125
sS'exec_cq'
p208
I8
sS'total_cq'
p209
I8
sasS'total_cqs'
p210
I8
ssI17
(dp211
S'iters'
p212
I2
sS'meta'
p213
(lp214
(dp215
S'objective'
p216
I0
sS'query_time'
p217
F0.9362401962280273
sS'comp_time'
p218
F0.04783010482788086
sS'exec_cq'
p219
I11
sS'total_cq'
p220
I11
sa(dp221
g216
I11
sg217
F0.0001678466796875
sg218
F0.0012500286102294922
sg219
I5
sg220
I5
sasS'total_cqs'
p222
I11
ssI18
(dp223
S'iters'
p224
I1
sS'meta'
p225
(lp226
(dp227
S'objective'
p228
I44
sS'query_time'
p229
F0.20103192329406738
sS'comp_time'
p230
F0.009438037872314453
sS'exec_cq'
p231
I11
sS'total_cq'
p232
I11
sasS'total_cqs'
p233
I11
ssI19
(dp234
S'iters'
p235
I0
sS'meta'
p236
(lp237
sS'total_cqs'
p238
I1
ssI20
(dp239
S'iters'
p240
I0
sS'meta'
p241
(lp242
sS'total_cqs'
p243
I1
ssI21
(dp244
S'iters'
p245
I0
sS'meta'
p246
(lp247
sS'total_cqs'
p248
I1
ssI22
(dp249
S'iters'
p250
I1
sS'meta'
p251
(lp252
(dp253
S'objective'
p254
I135
sS'query_time'
p255
F0.03219294548034668
sS'comp_time'
p256
F0.00024390220642089844
sS'exec_cq'
p257
I18
sS'total_cq'
p258
I18
sasS'total_cqs'
p259
I18
ssI23
(dp260
S'iters'
p261
I1
sS'meta'
p262
(lp263
(dp264
S'objective'
p265
I104
sS'query_time'
p266
F0.02594590187072754
sS'comp_time'
p267
F0.0005099773406982422
sS'exec_cq'
p268
I16
sS'total_cq'
p269
I16
sasS'total_cqs'
p270
I16
ssI24
(dp271
S'iters'
p272
I0
sS'meta'
p273
(lp274
sS'total_cqs'
p275
I1
ssI25
(dp276
S'iters'
p277
I0
sS'meta'
p278
(lp279
sS'total_cqs'
p280
I1
ssI26
(dp281
S'iters'
p282
I1
sS'meta'
p283
(lp284
(dp285
S'objective'
p286
I819
sS'query_time'
p287
F0.04509997367858887
sS'comp_time'
p288
F0.00017595291137695312
sS'exec_cq'
p289
I42
sS'total_cq'
p290
I42
sasS'total_cqs'
p291
I42
ssI27
(dp292
S'iters'
p293
I3
sS'meta'
p294
(lp295
(dp296
S'objective'
p297
I293
sS'query_time'
p298
F19.248665809631348
sS'comp_time'
p299
F3.194293975830078
sS'exec_cq'
p300
I30
sS'total_cq'
p301
I30
sa(dp302
g297
I14
sg298
F0.6295208930969238
sg299
F3.0708041191101074
sg300
I5
sg301
I5
sa(dp303
g297
I24
sg298
F0.4232640266418457
sg299
F2.041348695755005
sg300
I3
sg301
I3
sasS'total_cqs'
p304
I30
ssI28
(dp305
S'iters'
p306
I0
sS'meta'
p307
(lp308
sS'total_cqs'
p309
I1
ssI29
(dp310
S'iters'
p311
I5
sS'meta'
p312
(lp313
(dp314
S'objective'
p315
I249
sS'query_time'
p316
F138.84830904006958
sS'comp_time'
p317
F21.493581771850586
sS'exec_cq'
p318
I49
sS'total_cq'
p319
I49
sa(dp320
g315
I38
sg316
F0.01930999755859375
sg317
F0.08172917366027832
sg318
I17
sg319
I17
sa(dp321
g315
I21
sg316
F0.017917871475219727
sg317
F0.07552099227905273
sg318
I9
sg319
I9
sa(dp322
g315
I7
sg316
F0.003520965576171875
sg317
F0.02097296714782715
sg318
I4
sg319
I4
sa(dp323
g315
I41
sg316
F0.0008909702301025391
sg317
F0.007575035095214844
sg318
I2
sg319
I2
sasS'total_cqs'
p324
I49
ssI30
(dp325
S'iters'
p326
I1
sS'meta'
p327
(lp328
(dp329
S'objective'
p330
I1
sS'query_time'
p331
F0.6222250461578369
sS'comp_time'
p332
F0.08744025230407715
sS'exec_cq'
p333
I2
sS'total_cq'
p334
I2
sasS'total_cqs'
p335
I2
ssI31
(dp336
S'iters'
p337
I0
sS'meta'
p338
(lp339
sS'total_cqs'
p340
I1
ssI32
(dp341
S'iters'
p342
I1
sS'meta'
p343
(lp344
(dp345
S'objective'
p346
I1
sS'query_time'
p347
F0.00940704345703125
sS'comp_time'
p348
F0.00035834312438964844
sS'exec_cq'
p349
I2
sS'total_cq'
p350
I2
sasS'total_cqs'
p351
I2
ssI33
(dp352
S'iters'
p353
I4
sS'meta'
p354
(lp355
(dp356
S'objective'
p357
I3672
sS'query_time'
p358
F12.167384147644043
sS'comp_time'
p359
F0.6053271293640137
sS'exec_cq'
p360
I103
sS'total_cq'
p361
I103
sa(dp362
g357
I24
sg358
F0.007642984390258789
sg359
F0.027436017990112305
sg360
I16
sg361
I16
sa(dp363
g357
I47
sg358
F0.0011148452758789062
sg359
F0.006846904754638672
sg360
I7
sg361
I7
sa(dp364
g357
I22
sg358
F0.0004150867462158203
sg359
F0.003184080123901367
sg360
I3
sg361
I3
sasS'total_cqs'
p365
I103
ssI34
(dp366
S'iters'
p367
I1
sS'meta'
p368
(lp369
(dp370
S'objective'
p371
I1
sS'query_time'
p372
F0.018294095993041992
sS'comp_time'
p373
F0.0009272098541259766
sS'exec_cq'
p374
I2
sS'total_cq'
p375
I2
sasS'total_cqs'
p376
I2
ssI35
(dp377
S'iters'
p378
I4
sS'meta'
p379
(lp380
(dp381
S'objective'
p382
I1363
sS'query_time'
p383
F257.3802800178528
sS'comp_time'
p384
F28.045464992523193
sS'exec_cq'
p385
I70
sS'total_cq'
p386
I70
sa(dp387
g382
I17
sg383
F0.004582881927490234
sg384
F0.02823185920715332
sg385
I16
sg386
I16
sa(dp388
g382
I2
sg383
F0.0018341541290283203
sg384
F0.008624792098999023
sg385
I7
sg386
I7
sa(dp389
g382
I5
sg383
F0.00010704994201660156
sg384
F0.0007638931274414062
sg385
I2
sg386
I2
sasS'total_cqs'
p390
I70
ssI36
(dp391
S'iters'
p392
I3
sS'meta'
p393
(lp394
(dp395
S'objective'
p396
I447
sS'query_time'
p397
F0.6552350521087646
sS'comp_time'
p398
F0.18168401718139648
sS'exec_cq'
p399
I33
sS'total_cq'
p400
I33
sa(dp401
g396
I406
sg397
F0.00438690185546875
sg398
F0.03998088836669922
sg399
I29
sg400
I29
sa(dp402
g396
I389
sg397
F0.001775979995727539
sg398
F0.01534414291381836
sg399
I25
sg400
I25
sasS'total_cqs'
p403
I33
ssI37
(dp404
S'iters'
p405
I1
sS'meta'
p406
(lp407
(dp408
S'objective'
p409
I1
sS'query_time'
p410
F0.009991884231567383
sS'comp_time'
p411
F0.0010221004486083984
sS'exec_cq'
p412
I2
sS'total_cq'
p413
I2
sasS'total_cqs'
p414
I2
ssI38
(dp415
S'iters'
p416
I2
sS'meta'
p417
(lp418
(dp419
S'objective'
p420
I0
sS'query_time'
p421
F0.020570039749145508
sS'comp_time'
p422
F0.0008957386016845703
sS'exec_cq'
p423
I4
sS'total_cq'
p424
I4
sa(dp425
g420
I3
sg421
F7.605552673339844e-05
sg422
F0.0006098747253417969
sg423
I2
sg424
I2
sasS'total_cqs'
p426
I4
ssI39
(dp427
S'iters'
p428
I2
sS'meta'
p429
(lp430
(dp431
S'objective'
p432
I848
sS'query_time'
p433
F0.07053399085998535
sS'comp_time'
p434
F0.0025320053100585938
sS'exec_cq'
p435
I44
sS'total_cq'
p436
I44
sa(dp437
g432
I831
sg433
F0.0004239082336425781
sg434
F0.0023229122161865234
sg435
I37
sg436
I37
sasS'total_cqs'
p438
I44
ssI40
(dp439
S'iters'
p440
I1
sS'meta'
p441
(lp442
(dp443
S'objective'
p444
I14
sS'query_time'
p445
F0.025905132293701172
sS'comp_time'
p446
F0.0001399517059326172
sS'exec_cq'
p447
I7
sS'total_cq'
p448
I7
sasS'total_cqs'
p449
I7
ssI41
(dp450
S'iters'
p451
I1
sS'meta'
p452
(lp453
(dp454
S'objective'
p455
I54
sS'query_time'
p456
F0.04951310157775879
sS'comp_time'
p457
F0.00022077560424804688
sS'exec_cq'
p458
I12
sS'total_cq'
p459
I12
sasS'total_cqs'
p460
I12
ssI42
(dp461
S'iters'
p462
I1
sS'meta'
p463
(lp464
(dp465
S'objective'
p466
I779
sS'query_time'
p467
F0.0400090217590332
sS'comp_time'
p468
F0.00024318695068359375
sS'exec_cq'
p469
I41
sS'total_cq'
p470
I41
sasS'total_cqs'
p471
I41
ssI43
(dp472
S'iters'
p473
I1
sS'meta'
p474
(lp475
(dp476
S'objective'
p477
I14
sS'query_time'
p478
F0.027857065200805664
sS'comp_time'
p479
F0.00029206275939941406
sS'exec_cq'
p480
I7
sS'total_cq'
p481
I7
sasS'total_cqs'
p482
I7
ssI44
(dp483
S'iters'
p484
I4
sS'meta'
p485
(lp486
(dp487
S'objective'
p488
I828
sS'query_time'
p489
F0.06526494026184082
sS'comp_time'
p490
F0.0019211769104003906
sS'exec_cq'
p491
I47
sS'total_cq'
p492
I47
sa(dp493
g488
I734
sg489
F0.00026702880859375
sg490
F0.0015802383422851562
sg491
I40
sg492
I40
sa(dp494
g488
I40
sg489
F0.00011897087097167969
sg490
F0.0011720657348632812
sg491
I3
sg492
I3
sa(dp495
g488
I13
sg489
F0.0001068115234375
sg490
F0.0011739730834960938
sg491
I2
sg492
I2
sasS'total_cqs'
p496
I47
ssI45
(dp497
S'iters'
p498
I0
sS'meta'
p499
(lp500
sS'total_cqs'
p501
I1
ssI46
(dp502
S'iters'
p503
I1
sS'meta'
p504
(lp505
(dp506
S'objective'
p507
I9
sS'query_time'
p508
F0.0111541748046875
sS'comp_time'
p509
F0.0004000663757324219
sS'exec_cq'
p510
I6
sS'total_cq'
p511
I6
sasS'total_cqs'
p512
I6
ssI47
(dp513
S'iters'
p514
I1
sS'meta'
p515
(lp516
(dp517
S'objective'
p518
I1
sS'query_time'
p519
F0.0060291290283203125
sS'comp_time'
p520
F0.0004017353057861328
sS'exec_cq'
p521
I2
sS'total_cq'
p522
I2
sasS'total_cqs'
p523
I2
ssI48
(dp524
S'iters'
p525
I0
sS'meta'
p526
(lp527
sS'total_cqs'
p528
I1
ssI49
(dp529
S'iters'
p530
I0
sS'meta'
p531
(lp532
sS'total_cqs'
p533
I1
ssI50
(dp534
S'iters'
p535
I1
sS'meta'
p536
(lp537
(dp538
S'objective'
p539
I5
sS'query_time'
p540
F0.006389141082763672
sS'comp_time'
p541
F0.0001659393310546875
sS'exec_cq'
p542
I5
sS'total_cq'
p543
I5
sasS'total_cqs'
p544
I5
ssI51
(dp545
S'iters'
p546
I1
sS'meta'
p547
(lp548
(dp549
S'objective'
p550
I1
sS'query_time'
p551
F0.006912946701049805
sS'comp_time'
p552
F0.0002598762512207031
sS'exec_cq'
p553
I2
sS'total_cq'
p554
I2
sasS'total_cqs'
p555
I2
ssI52
(dp556
S'iters'
p557
I1
sS'meta'
p558
(lp559
(dp560
S'objective'
p561
I1
sS'query_time'
p562
F0.005792856216430664
sS'comp_time'
p563
F0.0002989768981933594
sS'exec_cq'
p564
I2
sS'total_cq'
p565
I2
sasS'total_cqs'
p566
I2
ssI53
(dp567
S'iters'
p568
I1
sS'meta'
p569
(lp570
(dp571
S'objective'
p572
I2
sS'query_time'
p573
F0.017943143844604492
sS'comp_time'
p574
F0.0010712146759033203
sS'exec_cq'
p575
I4
sS'total_cq'
p576
I4
sasS'total_cqs'
p577
I4
ssI54
(dp578
S'iters'
p579
I1
sS'meta'
p580
(lp581
(dp582
S'objective'
p583
I0
sS'query_time'
p584
F0.02326798439025879
sS'comp_time'
p585
F0.0003788471221923828
sS'exec_cq'
p586
I3
sS'total_cq'
p587
I3
sasS'total_cqs'
p588
I3
ssI55
(dp589
S'iters'
p590
I5
sS'meta'
p591
(lp592
(dp593
S'objective'
p594
I4801
sS'query_time'
p595
F2.179555892944336
sS'comp_time'
p596
F0.04576730728149414
sS'exec_cq'
p597
I109
sS'total_cq'
p598
I109
sa(dp599
g594
I4470
sg595
F0.0006551742553710938
sg596
F0.0022368431091308594
sg597
I97
sg598
I97
sa(dp600
g594
I4330
sg595
F0.0002868175506591797
sg596
F0.0011010169982910156
sg597
I91
sg598
I91
sa(dp601
g594
I4372
sg595
F0.00026917457580566406
sg596
F0.0012001991271972656
sg597
I87
sg598
I87
sa(dp602
g594
I4284
sg595
F0.0002570152282714844
sg596
F0.0009729862213134766
sg597
I85
sg598
I85
sasS'total_cqs'
p603
I109
ssI56
(dp604
S'iters'
p605
I4
sS'meta'
p606
(lp607
(dp608
S'objective'
p609
I1926
sS'query_time'
p610
F2.426661968231201
sS'comp_time'
p611
F0.5476772785186768
sS'exec_cq'
p612
I76
sS'total_cq'
p613
I76
sa(dp614
g609
I60
sg610
F0.005071878433227539
sg611
F0.015671968460083008
sg612
I16
sg613
I16
sa(dp615
g609
I20
sg610
F0.0008320808410644531
sg611
F0.008163928985595703
sg612
I6
sg613
I6
sa(dp616
g609
I32
sg610
F9.393692016601562e-05
sg611
F0.000843048095703125
sg612
I2
sg613
I2
sasS'total_cqs'
p617
I76
ssI57
(dp618
S'iters'
p619
I5
sS'meta'
p620
(lp621
(dp622
S'objective'
p623
I220
sS'query_time'
p624
F67.11537909507751
sS'comp_time'
p625
F5.838376045227051
sS'exec_cq'
p626
I51
sS'total_cq'
p627
I51
sa(dp628
g623
I19
sg624
F0.013189077377319336
sg625
F0.04406905174255371
sg626
I27
sg627
I27
sa(dp629
g623
I18
sg624
F0.0022559165954589844
sg625
F0.009423971176147461
sg626
I13
sg627
I13
sa(dp630
g623
I1
sg624
F0.0014410018920898438
sg625
F0.007840156555175781
sg626
I6
sg627
I6
sa(dp631
g623
I8
sg624
F0.00018596649169921875
sg625
F0.001909017562866211
sg626
I2
sg627
I2
sasS'total_cqs'
p632
I51
ssI58
(dp633
S'iters'
p634
I6
sS'meta'
p635
(lp636
(dp637
S'objective'
p638
I84245
sS'query_time'
p639
F502.04551100730896
sS'comp_time'
p640
F42.3395049571991
sS'exec_cq'
p641
I486
sS'total_cq'
p642
I486
sa(dp643
g638
I86717
sg639
F10.488710165023804
sg640
F40.52171802520752
sg641
I414
sg642
I414
sa(dp644
g638
I52
sg639
F0.01583409309387207
sg640
F0.04582500457763672
sg641
I28
sg642
I28
sa(dp645
g638
I2
sg639
F0.010900020599365234
sg640
F0.03554511070251465
sg641
I15
sg642
I15
sa(dp646
g638
I22
sg639
F0.0062830448150634766
sg640
F0.02530694007873535
sg641
I8
sg642
I8
sa(dp647
g638
I79
sg639
F0.003674030303955078
sg640
F0.019182920455932617
sg641
I5
sg642
I5
sasS'total_cqs'
p648
I486
ssI59
(dp649
S'iters'
p650
I2
sS'meta'
p651
(lp652
(dp653
S'objective'
p654
I12
sS'query_time'
p655
F0.05332517623901367
sS'comp_time'
p656
F0.0017158985137939453
sS'exec_cq'
p657
I7
sS'total_cq'
p658
I7
sa(dp659
g654
I6
sg655
F0.00015497207641601562
sg656
F0.0016758441925048828
sg657
I2
sg658
I2
sasS'total_cqs'
p660
I7
ssI60
(dp661
S'iters'
p662
I1
sS'meta'
p663
(lp664
(dp665
S'objective'
p666
I5
sS'query_time'
p667
F0.06880497932434082
sS'comp_time'
p668
F0.0006797313690185547
sS'exec_cq'
p669
I5
sS'total_cq'
p670
I5
sasS'total_cqs'
p671
I5
ssI61
(dp672
S'iters'
p673
I0
sS'meta'
p674
(lp675
sS'total_cqs'
p676
I1
ssI62
(dp677
S'iters'
p678
I2
sS'meta'
p679
(lp680
(dp681
S'objective'
p682
I28
sS'query_time'
p683
F0.01581716537475586
sS'comp_time'
p684
F0.000244140625
sS'exec_cq'
p685
I12
sS'total_cq'
p686
I12
sa(dp687
g682
I29
sg683
F4.00543212890625e-05
sg684
F9.489059448242188e-05
sg685
I9
sg686
I9
sasS'total_cqs'
p688
I12
ssI63
(dp689
S'iters'
p690
I0
sS'meta'
p691
(lp692
sS'total_cqs'
p693
I1
ssI64
(dp694
S'iters'
p695
I2
sS'meta'
p696
(lp697
(dp698
S'objective'
p699
I36
sS'query_time'
p700
F0.1203310489654541
sS'comp_time'
p701
F0.007628917694091797
sS'exec_cq'
p702
I12
sS'total_cq'
p703
I12
sa(dp704
g699
I3
sg700
F0.00011897087097167969
sg701
F0.0007879734039306641
sg702
I4
sg703
I4
sasS'total_cqs'
p705
I12
ssI65
(dp706
S'iters'
p707
I3
sS'meta'
p708
(lp709
(dp710
S'objective'
p711
I128
sS'query_time'
p712
F0.727431058883667
sS'comp_time'
p713
F0.07620811462402344
sS'exec_cq'
p714
I27
sS'total_cq'
p715
I27
sa(dp716
g711
I3
sg712
F0.002080202102661133
sg713
F0.010779857635498047
sg714
I7
sg715
I7
sa(dp717
g711
I7
sg712
F0.0003781318664550781
sg713
F0.004118919372558594
sg714
I3
sg715
I3
sasS'total_cqs'
p718
I27
ssI66
(dp719
S'iters'
p720
I0
sS'meta'
p721
(lp722
sS'total_cqs'
p723
I1
ssI67
(dp724
S'iters'
p725
I2
sS'meta'
p726
(lp727
(dp728
S'objective'
p729
I498
sS'query_time'
p730
F0.8271369934082031
sS'comp_time'
p731
F0.0152740478515625
sS'exec_cq'
p732
I35
sS'total_cq'
p733
I35
sa(dp734
g729
I4
sg730
F0.0013740062713623047
sg731
F0.01104593276977539
sg732
I2
sg733
I2
sasS'total_cqs'
p735
I35
ssI68
(dp736
S'iters'
p737
I0
sS'meta'
p738
(lp739
sS'total_cqs'
p740
I1
ssI69
(dp741
S'iters'
p742
I1
sS'meta'
p743
(lp744
(dp745
S'objective'
p746
I1224
sS'query_time'
p747
F0.09940814971923828
sS'comp_time'
p748
F0.00036907196044921875
sS'exec_cq'
p749
I51
sS'total_cq'
p750
I51
sasS'total_cqs'
p751
I51
ssI70
(dp752
S'iters'
p753
I1
sS'meta'
p754
(lp755
(dp756
S'objective'
p757
I9
sS'query_time'
p758
F0.010930061340332031
sS'comp_time'
p759
F0.00034809112548828125
sS'exec_cq'
p760
I6
sS'total_cq'
p761
I6
sasS'total_cqs'
p762
I6
ssI71
(dp763
S'iters'
p764
I4
sS'meta'
p765
(lp766
(dp767
S'objective'
p768
I3179
sS'query_time'
p769
F0.16195201873779297
sS'comp_time'
p770
F0.0014107227325439453
sS'exec_cq'
p771
I85
sS'total_cq'
p772
I85
sa(dp773
g768
I2941
sg769
F0.00045180320739746094
sg770
F0.0011878013610839844
sg771
I81
sg772
I81
sa(dp774
g768
I2805
sg769
F0.0003859996795654297
sg770
F0.0010190010070800781
sg771
I78
sg772
I78
sa(dp775
g768
I17
sg769
F5.507469177246094e-05
sg770
F0.0003211498260498047
sg771
I3
sg772
I3
sasS'total_cqs'
p776
I85
ssI72
(dp777
S'iters'
p778
I3
sS'meta'
p779
(lp780
(dp781
S'objective'
p782
I14
sS'query_time'
p783
F0.3070998191833496
sS'comp_time'
p784
F0.007799863815307617
sS'exec_cq'
p785
I8
sS'total_cq'
p786
I8
sa(dp787
g782
I5
sg783
F0.00045299530029296875
sg784
F0.004739046096801758
sg785
I6
sg786
I6
sa(dp788
g782
I1
sg783
F0.0004107952117919922
sg784
F0.004434108734130859
sg785
I4
sg786
I4
sasS'total_cqs'
p789
I8
ssI73
(dp790
S'iters'
p791
I0
sS'meta'
p792
(lp793
sS'total_cqs'
p794
I1
ssI74
(dp795
S'iters'
p796
I0
sS'meta'
p797
(lp798
sS'total_cqs'
p799
I1
ssI75
(dp800
S'iters'
p801
I1
sS'meta'
p802
(lp803
(dp804
S'objective'
p805
I5
sS'query_time'
p806
F0.00675511360168457
sS'comp_time'
p807
F0.00017404556274414062
sS'exec_cq'
p808
I5
sS'total_cq'
p809
I5
sasS'total_cqs'
p810
I5
ssI76
(dp811
S'iters'
p812
I1
sS'meta'
p813
(lp814
(dp815
S'objective'
p816
I1
sS'query_time'
p817
F0.01029515266418457
sS'comp_time'
p818
F0.0004999637603759766
sS'exec_cq'
p819
I2
sS'total_cq'
p820
I2
sasS'total_cqs'
p821
I2
ssI77
(dp822
S'iters'
p823
I0
sS'meta'
p824
(lp825
sS'total_cqs'
p826
I1
ssI78
(dp827
S'iters'
p828
I0
sS'meta'
p829
(lp830
sS'total_cqs'
p831
I1
ssI103
(dp832
S'iters'
p833
I1
sS'meta'
p834
(lp835
(dp836
S'objective'
p837
I54
sS'query_time'
p838
F0.0495150089263916
sS'comp_time'
p839
F0.00020813941955566406
sS'exec_cq'
p840
I12
sS'total_cq'
p841
I12
sasS'total_cqs'
p842
I12
ssI104
(dp843
S'iters'
p844
I1
sS'meta'
p845
(lp846
(dp847
S'objective'
p848
I2
sS'query_time'
p849
F1.6333208084106445
sS'comp_time'
p850
F0.29259800910949707
sS'exec_cq'
p851
I4
sS'total_cq'
p852
I4
sasS'total_cqs'
p853
I4
ssI105
(dp854
S'iters'
p855
I0
sS'meta'
p856
(lp857
sS'total_cqs'
p858
I1
ssI106
(dp859
S'iters'
p860
I1
sS'meta'
p861
(lp862
(dp863
S'objective'
p864
I2
sS'query_time'
p865
F0.019123077392578125
sS'comp_time'
p866
F0.00015282630920410156
sS'exec_cq'
p867
I4
sS'total_cq'
p868
I4
sasS'total_cqs'
p869
I4
ssI107
(dp870
S'iters'
p871
I2
sS'meta'
p872
(lp873
(dp874
S'objective'
p875
I78
sS'query_time'
p876
F0.045953989028930664
sS'comp_time'
p877
F0.0002999305725097656
sS'exec_cq'
p878
I16
sS'total_cq'
p879
I16
sa(dp880
g875
I3
sg876
F3.1948089599609375e-05
sg877
F0.00015401840209960938
sg878
I3
sg879
I3
sasS'total_cqs'
p881
I16
ssI108
(dp882
S'iters'
p883
I0
sS'meta'
p884
(lp885
sS'total_cqs'
p886
I1
ss.