(dp0
I1
(dp1
S'iters'
p2
I4
sS'meta'
p3
(lp4
(dp5
S'objective'
p6
I44
sS'query_time'
p7
F0.0358729362487793
sS'comp_time'
p8
F0.00024890899658203125
sS'exec_cq'
p9
I12
sS'total_cq'
p10
I12
sa(dp11
g6
I37
sg7
F5.2928924560546875e-05
sg8
F7.987022399902344e-05
sg9
I10
sg10
I10
sa(dp12
g6
I37
sg7
F4.696846008300781e-05
sg8
F7.224082946777344e-05
sg9
I9
sg10
I9
sa(dp13
g6
I41
sg7
F3.1948089599609375e-05
sg8
F5.793571472167969e-05
sg9
I8
sg10
I8
sasS'total_cqs'
p14
I12
ssI2
(dp15
S'iters'
p16
I8
sS'meta'
p17
(lp18
(dp19
S'objective'
p20
I212
sS'query_time'
p21
F0.11259293556213379
sS'comp_time'
p22
F0.001107931137084961
sS'exec_cq'
p23
I27
sS'total_cq'
p24
I27
sa(dp25
g20
I175
sg21
F0.00015783309936523438
sg22
F0.0005049705505371094
sg23
I23
sg24
I23
sa(dp26
g20
I189
sg21
F0.0001289844512939453
sg22
F0.0003991127014160156
sg23
I20
sg24
I20
sa(dp27
g20
I168
sg21
F0.00013589859008789062
sg22
F0.0004458427429199219
sg23
I19
sg24
I19
sa(dp28
g20
I162
sg21
F0.00015091896057128906
sg22
F0.0004189014434814453
sg23
I17
sg24
I17
sa(dp29
g20
I170
sg21
F8.511543273925781e-05
sg22
F0.0002129077911376953
sg23
I15
sg24
I15
sa(dp30
g20
I169
sg21
F6.198883056640625e-05
sg22
F0.00013184547424316406
sg23
I14
sg24
I14
sa(dp31
g20
I169
sg21
F4.696846008300781e-05
sg22
F5.888938903808594e-05
sg23
I13
sg24
I13
sasS'total_cqs'
p32
I27
ssI3
(dp33
S'iters'
p34
I4
sS'meta'
p35
(lp36
(dp37
S'objective'
p38
I94
sS'query_time'
p39
F159.91786193847656
sS'comp_time'
p40
F1.8494889736175537
sS'exec_cq'
p41
I43
sS'total_cq'
p42
I43
sa(dp43
g38
I56
sg39
F0.44609904289245605
sg40
F1.6277618408203125
sg41
I27
sg42
I27
sa(dp44
g38
I22
sg39
F0.0568389892578125
sg40
F0.4617941379547119
sg41
I13
sg42
I13
sa(dp45
g38
I125
sg39
F5.4836273193359375e-05
sg40
F0.0038270950317382812
sg41
I7
sg42
I7
sasS'total_cqs'
p46
I43
ssI4
(dp47
S'iters'
p48
I2
sS'meta'
p49
(lp50
(dp51
S'objective'
p52
I48
sS'query_time'
p53
F4.097352981567383
sS'comp_time'
p54
F0.3572688102722168
sS'exec_cq'
p55
I11
sS'total_cq'
p56
I11
sa(dp57
g52
I7
sg53
F0.13478398323059082
sg54
F0.4621701240539551
sg55
I2
sg56
I2
sasS'total_cqs'
p58
I11
ssI5
(dp59
S'iters'
p60
I3
sS'meta'
p61
(lp62
(dp63
S'objective'
p64
I0
sS'query_time'
p65
F27.493427991867065
sS'comp_time'
p66
F2.396509885787964
sS'exec_cq'
p67
I8
sS'total_cq'
p68
I8
sa(dp69
g64
I0
sg65
F0.0868539810180664
sg66
F0.8286678791046143
sg67
I4
sg68
I4
sa(dp70
g64
I7
sg65
F0.16299080848693848
sg66
F0.8509588241577148
sg67
I2
sg68
I2
sasS'total_cqs'
p71
I8
ssI6
(dp72
S'iters'
p73
I4
sS'meta'
p74
(lp75
(dp76
S'objective'
p77
I61
sS'query_time'
p78
F30.092144012451172
sS'comp_time'
p79
F2.863258123397827
sS'exec_cq'
p80
I18
sS'total_cq'
p81
I18
sa(dp82
g77
I1
sg78
F0.5476748943328857
sg79
F2.1345901489257812
sg80
I7
sg81
I7
sa(dp83
g77
I1
sg78
F0.3130819797515869
sg79
F1.606950044631958
sg80
I5
sg81
I5
sa(dp84
g77
I11
sg78
F0.011438131332397461
sg79
F0.0447688102722168
sg80
I2
sg81
I2
sasS'total_cqs'
p85
I18
ssI7
(dp86
S'iters'
p87
I4
sS'meta'
p88
(lp89
(dp90
S'objective'
p91
I1
sS'query_time'
p92
F10.03353500366211
sS'comp_time'
p93
F1.0258581638336182
sS'exec_cq'
p94
I9
sS'total_cq'
p95
I9
sa(dp96
g91
I0
sg92
F0.010096073150634766
sg93
F0.041356801986694336
sg94
I5
sg95
I5
sa(dp97
g91
I3
sg92
F0.0030210018157958984
sg93
F0.130903959274292
sg94
I3
sg95
I3
sa(dp98
g91
I2
sg92
F0.002360105514526367
sg93
F0.012903928756713867
sg94
I2
sg95
I2
sasS'total_cqs'
p99
I9
ssI8
(dp100
S'iters'
p101
I5
sS'meta'
p102
(lp103
(dp104
S'objective'
p105
I258
sS'query_time'
p106
F0.12909603118896484
sS'comp_time'
p107
F0.0010309219360351562
sS'exec_cq'
p108
I27
sS'total_cq'
p109
I27
sa(dp110
g105
I256
sg106
F0.00013303756713867188
sg107
F0.00033283233642578125
sg108
I22
sg109
I22
sa(dp111
g105
I261
sg106
F6.794929504394531e-05
sg107
F8.487701416015625e-05
sg108
I19
sg109
I19
sa(dp112
g105
I258
sg106
F6.198883056640625e-05
sg107
F7.486343383789062e-05
sg108
I18
sg109
I18
sa(dp113
g105
I264
sg106
F5.888938903808594e-05
sg107
F5.3882598876953125e-05
sg108
I17
sg109
I17
sasS'total_cqs'
p114
I27
ssI9
(dp115
S'iters'
p116
I3
sS'meta'
p117
(lp118
(dp119
S'objective'
p120
I4
sS'query_time'
p121
F0.08073902130126953
sS'comp_time'
p122
F0.0002639293670654297
sS'exec_cq'
p123
I7
sS'total_cq'
p124
I7
sa(dp125
g120
I0
sg121
F2.6941299438476562e-05
sg122
F5.1021575927734375e-05
sg123
I4
sg124
I4
sa(dp126
g120
I6
sg121
F0.0011179447174072266
sg122
F6.818771362304688e-05
sg123
I2
sg124
I2
sasS'total_cqs'
p127
I7
ssI10
(dp128
S'iters'
p129
I7
sS'meta'
p130
(lp131
(dp132
S'objective'
p133
I506
sS'query_time'
p134
F0.4616279602050781
sS'comp_time'
p135
F0.0070590972900390625
sS'exec_cq'
p136
I51
sS'total_cq'
p137
I51
sa(dp138
g133
I254
sg134
F0.0004570484161376953
sg135
F0.001664876937866211
sg136
I37
sg137
I37
sa(dp139
g133
I15
sg134
F0.0013248920440673828
sg135
F0.0004990100860595703
sg136
I12
sg137
I12
sa(dp140
g133
I0
sg134
F0.00010085105895996094
sg135
F0.00035881996154785156
sg136
I7
sg137
I7
sa(dp141
g133
I1
sg134
F3.4809112548828125e-05
sg135
F0.00012803077697753906
sg136
I4
sg137
I4
sa(dp142
g133
I21
sg134
F2.6941299438476562e-05
sg135
F0.00010800361633300781
sg136
I3
sg137
I3
sa(dp143
g133
I7
sg134
F2.193450927734375e-05
sg135
F9.298324584960938e-05
sg136
I2
sg137
I2
sasS'total_cqs'
p144
I51
ssI11
(dp145
S'iters'
p146
I8
sS'meta'
p147
(lp148
(dp149
S'objective'
p150
I772
sS'query_time'
p151
F0.658729076385498
sS'comp_time'
p152
F0.013404130935668945
sS'exec_cq'
p153
I63
sS'total_cq'
p154
I63
sa(dp155
g150
I910
sg151
F0.0009629726409912109
sg152
F0.003498077392578125
sg153
I47
sg154
I47
sa(dp156
g150
I6
sg151
F0.0011320114135742188
sg152
F0.0007989406585693359
sg153
I9
sg154
I9
sa(dp157
g150
I6
sg151
F0.00016808509826660156
sg152
F0.0008199214935302734
sg153
I7
sg154
I7
sa(dp158
g150
I7
sg151
F3.695487976074219e-05
sg152
F0.00015091896057128906
sg153
I5
sg154
I5
sa(dp159
g150
I9
sg151
F3.0040740966796875e-05
sg152
F8.916854858398438e-05
sg153
I4
sg154
I4
sa(dp160
g150
I7
sg151
F1.6927719116210938e-05
sg152
F5.030632019042969e-05
sg153
I3
sg154
I3
sa(dp161
g150
I5
sg151
F1.2159347534179688e-05
sg152
F4.315376281738281e-05
sg153
I2
sg154
I2
sasS'total_cqs'
p162
I63
ssI12
(dp163
S'iters'
p164
I6
sS'meta'
p165
(lp166
(dp167
S'objective'
p168
I429
sS'query_time'
p169
F0.3732728958129883
sS'comp_time'
p170
F0.007379055023193359
sS'exec_cq'
p171
I50
sS'total_cq'
p172
I50
sa(dp173
g168
I428
sg169
F0.0005078315734863281
sg170
F0.0019600391387939453
sg171
I33
sg172
I33
sa(dp174
g168
I464
sg169
F0.00015401840209960938
sg170
F0.0004248619079589844
sg171
I26
sg172
I26
sa(dp175
g168
I388
sg169
F0.00012087821960449219
sg170
F0.00027108192443847656
sg171
I23
sg172
I23
sa(dp176
g168
I6
sg169
F0.0028548240661621094
sg170
F0.00012993812561035156
sg171
I4
sg172
I4
sa(dp177
g168
I36
sg169
F1.9073486328125e-05
sg170
F5.507469177246094e-05
sg171
I2
sg172
I2
sasS'total_cqs'
p178
I50
ssI13
(dp179
S'iters'
p180
I5
sS'meta'
p181
(lp182
(dp183
S'objective'
p184
I14
sS'query_time'
p185
F0.21916890144348145
sS'comp_time'
p186
F0.00040793418884277344
sS'exec_cq'
p187
I20
sS'total_cq'
p188
I20
sa(dp189
g184
I4
sg185
F0.0010800361633300781
sg186
F0.00029087066650390625
sg187
I11
sg188
I11
sa(dp190
g184
I4
sg185
F4.100799560546875e-05
sg186
F0.0001010894775390625
sg187
I6
sg188
I6
sa(dp191
g184
I5
sg185
F3.1948089599609375e-05
sg186
F8.702278137207031e-05
sg187
I4
sg188
I4
sa(dp192
g184
I9
sg185
F2.002716064453125e-05
sg186
F7.605552673339844e-05
sg187
I2
sg188
I2
sasS'total_cqs'
p193
I20
ssI14
(dp194
S'iters'
p195
I5
sS'meta'
p196
(lp197
(dp198
S'objective'
p199
I1
sS'query_time'
p200
F27.197348833084106
sS'comp_time'
p201
F0.9231069087982178
sS'exec_cq'
p202
I9
sS'total_cq'
p203
I9
sa(dp204
g199
I1
sg200
F0.21744394302368164
sg201
F0.6234040260314941
sg202
I6
sg203
I6
sa(dp205
g199
I2
sg200
F0.005558967590332031
sg201
F0.026276826858520508
sg202
I4
sg203
I4
sa(dp206
g199
I1
sg200
F0.005102872848510742
sg201
F0.02456808090209961
sg202
I3
sg203
I3
sa(dp207
g199
I1
sg200
F0.0047550201416015625
sg201
F0.09033918380737305
sg202
I2
sg203
I2
sasS'total_cqs'
p208
I9
ssI15
(dp209
S'iters'
p210
I3
sS'meta'
p211
(lp212
(dp213
S'objective'
p214
I0
sS'query_time'
p215
F3.199208974838257
sS'comp_time'
p216
F0.126220703125
sS'exec_cq'
p217
I11
sS'total_cq'
p218
I11
sa(dp219
g214
I19
sg215
F0.007940053939819336
sg216
F0.04277801513671875
sg217
I6
sg218
I6
sa(dp220
g214
I5
sg215
F0.029421091079711914
sg216
F0.040563106536865234
sg217
I2
sg218
I2
sasS'total_cqs'
p221
I11
ssI16
(dp222
S'iters'
p223
I1
sS'meta'
p224
(lp225
(dp226
S'objective'
p227
I34
sS'query_time'
p228
F0.02945685386657715
sS'comp_time'
p229
F0.00014066696166992188
sS'exec_cq'
p230
I8
sS'total_cq'
p231
I8
sasS'total_cqs'
p232
I8
ssI17
(dp233
S'iters'
p234
I4
sS'meta'
p235
(lp236
(dp237
S'objective'
p238
I0
sS'query_time'
p239
F0.9706580638885498
sS'comp_time'
p240
F0.02043914794921875
sS'exec_cq'
p241
I11
sS'total_cq'
p242
I11
sa(dp243
g238
I1
sg239
F0.005463123321533203
sg240
F0.017542123794555664
sg241
I6
sg242
I6
sa(dp244
g238
I2
sg239
F0.0018398761749267578
sg240
F0.007544040679931641
sg241
I4
sg242
I4
sa(dp245
g238
I5
sg239
F0.0001418590545654297
sg240
F0.0007531642913818359
sg241
I2
sg242
I2
sasS'total_cqs'
p246
I11
ssI18
(dp247
S'iters'
p248
I4
sS'meta'
p249
(lp250
(dp251
S'objective'
p252
I38
sS'query_time'
p253
F0.26044416427612305
sS'comp_time'
p254
F0.004667043685913086
sS'exec_cq'
p255
I11
sS'total_cq'
p256
I11
sa(dp257
g252
I32
sg253
F0.0005209445953369141
sg254
F0.004992961883544922
sg255
I9
sg256
I9
sa(dp258
g252
I22
sg253
F0.000469207763671875
sg254
F0.002584218978881836
sg255
I8
sg256
I8
sa(dp259
g252
I30
sg253
F3.886222839355469e-05
sg254
F0.00010204315185546875
sg255
I6
sg256
I6
sasS'total_cqs'
p260
I11
ssI22
(dp261
S'iters'
p262
I1
sS'meta'
p263
(lp264
(dp265
S'objective'
p266
I169
sS'query_time'
p267
F0.11966705322265625
sS'comp_time'
p268
F0.00020623207092285156
sS'exec_cq'
p269
I18
sS'total_cq'
p270
I18
sasS'total_cqs'
p271
I18
ssI23
(dp272
S'iters'
p273
I3
sS'meta'
p274
(lp275
(dp276
S'objective'
p277
I102
sS'query_time'
p278
F0.08712315559387207
sS'comp_time'
p279
F0.0005490779876708984
sS'exec_cq'
p280
I16
sS'total_cq'
p281
I16
sa(dp282
g277
I113
sg278
F8.106231689453125e-05
sg279
F0.00024390220642089844
sg280
I14
sg281
I14
sa(dp283
g277
I114
sg278
F4.506111145019531e-05
sg279
F5.412101745605469e-05
sg280
I13
sg281
I13
sasS'total_cqs'
p284
I16
ssI26
(dp285
S'iters'
p286
I1
sS'meta'
p287
(lp288
(dp289
S'objective'
p290
I901
sS'query_time'
p291
F0.2641909122467041
sS'comp_time'
p292
F0.0001850128173828125
sS'exec_cq'
p293
I42
sS'total_cq'
p294
I42
sasS'total_cqs'
p295
I42
ssI27
(dp296
S'iters'
p297
I4
sS'meta'
p298
(lp299
(dp300
S'objective'
p301
I279
sS'query_time'
p302
F17.375827074050903
sS'comp_time'
p303
F1.8255128860473633
sS'exec_cq'
p304
I30
sS'total_cq'
p305
I30
sa(dp306
g301
I1
sg302
F0.36353182792663574
sg303
F1.9036133289337158
sg304
I5
sg305
I5
sa(dp307
g301
I11
sg302
F0.4431619644165039
sg303
F2.025897979736328
sg304
I3
sg305
I3
sa(dp308
g301
I16
sg302
F0.2915959358215332
sg303
F1.3723697662353516
sg304
I2
sg305
I2
sasS'total_cqs'
p309
I30
ssI29
(dp310
S'iters'
p311
I5
sS'meta'
p312
(lp313
(dp314
S'objective'
p315
I175
sS'query_time'
p316
F134.5067789554596
sS'comp_time'
p317
F19.439650297164917
sS'exec_cq'
p318
I49
sS'total_cq'
p319
I49
sa(dp320
g315
I29
sg316
F0.02207016944885254
sg317
F0.0482640266418457
sg318
I17
sg319
I17
sa(dp321
g315
I20
sg316
F0.001474142074584961
sg317
F0.005156993865966797
sg318
I9
sg319
I9
sa(dp322
g315
I38
sg316
F0.0007669925689697266
sg317
F0.0039370059967041016
sg318
I4
sg319
I4
sa(dp323
g315
I46
sg316
F0.0009059906005859375
sg317
F0.003161907196044922
sg318
I2
sg319
I2
sasS'total_cqs'
p324
I49
ssI30
(dp325
S'iters'
p326
I1
sS'meta'
p327
(lp328
(dp329
S'objective'
p330
I1
sS'query_time'
p331
F0.7744390964508057
sS'comp_time'
p332
F0.022835969924926758
sS'exec_cq'
p333
I2
sS'total_cq'
p334
I2
sasS'total_cqs'
p335
I2
ssI32
(dp336
S'iters'
p337
I1
sS'meta'
p338
(lp339
(dp340
S'objective'
p341
I1
sS'query_time'
p342
F0.008844852447509766
sS'comp_time'
p343
F0.0002300739288330078
sS'exec_cq'
p344
I2
sS'total_cq'
p345
I2
sasS'total_cqs'
p346
I2
ssI33
(dp347
S'iters'
p348
I7
sS'meta'
p349
(lp350
(dp351
S'objective'
p352
I3670
sS'query_time'
p353
F14.469033002853394
sS'comp_time'
p354
F0.14142298698425293
sS'exec_cq'
p355
I103
sS'total_cq'
p356
I103
sa(dp357
g352
I7
sg353
F0.007298946380615234
sg354
F0.039453983306884766
sg355
I16
sg356
I16
sa(dp358
g352
I21
sg353
F0.0030319690704345703
sg354
F0.012964963912963867
sg355
I9
sg356
I9
sa(dp359
g352
I40
sg353
F0.0017578601837158203
sg354
F0.007843971252441406
sg355
I6
sg356
I6
sa(dp360
g352
I13
sg353
F0.001302957534790039
sg354
F0.006033897399902344
sg355
I4
sg356
I4
sa(dp361
g352
I0
sg353
F0.0011899471282958984
sg354
F0.006837129592895508
sg355
I3
sg356
I3
sa(dp362
g352
I15
sg353
F0.0006740093231201172
sg354
F0.003216981887817383
sg355
I2
sg356
I2
sasS'total_cqs'
p363
I103
ssI34
(dp364
S'iters'
p365
I1
sS'meta'
p366
(lp367
(dp368
S'objective'
p369
I1
sS'query_time'
p370
F0.021799802780151367
sS'comp_time'
p371
F0.0006558895111083984
sS'exec_cq'
p372
I2
sS'total_cq'
p373
I2
sasS'total_cqs'
p374
I2
ssI35
(dp375
S'iters'
p376
I13
sS'meta'
p377
(lp378
(dp379
S'objective'
p380
I2351
sS'query_time'
p381
F49.50517010688782
sS'comp_time'
p382
F3.3729469776153564
sS'exec_cq'
p383
I70
sS'total_cq'
p384
I70
sa(dp385
g380
I2302
sg381
F0.0006048679351806641
sg382
F0.04665684700012207
sg383
I69
sg384
I69
sa(dp386
g380
I2170
sg381
F0.0005249977111816406
sg382
F0.04079008102416992
sg383
I68
sg384
I68
sa(dp387
g380
I2191
sg381
F0.0005249977111816406
sg382
F0.04070425033569336
sg383
I65
sg384
I65
sa(dp388
g380
I2184
sg381
F0.00019598007202148438
sg382
F0.04875802993774414
sg383
I64
sg384
I64
sa(dp389
g380
I2164
sg381
F0.00022101402282714844
sg382
F0.060066938400268555
sg383
I63
sg384
I63
sa(dp390
g380
I2045
sg381
F0.04238605499267578
sg382
F0.03252410888671875
sg383
I62
sg384
I62
sa(dp391
g380
I1875
sg381
F0.2521331310272217
sg382
F0.2371377944946289
sg383
I61
sg384
I61
sa(dp392
g380
I1659
sg381
F0.2679941654205322
sg382
F0.24050164222717285
sg383
I59
sg384
I59
sa(dp393
g380
I1609
sg381
F0.05171394348144531
sg382
F0.04033517837524414
sg383
I55
sg384
I55
sa(dp394
g380
I1572
sg381
F0.2402660846710205
sg382
F0.1969919204711914
sg383
I53
sg384
I53
sa(dp395
g380
I57
sg381
F0.06711983680725098
sg382
F0.03714895248413086
sg383
I3
sg384
I3
sa(dp396
g380
I6
sg381
F0.3042421340942383
sg382
F0.03106403350830078
sg383
I2
sg384
I2
sasS'total_cqs'
p397
I70
ssI36
(dp398
S'iters'
p399
I5
sS'meta'
p400
(lp401
(dp402
S'objective'
p403
I413
sS'query_time'
p404
F1.0762810707092285
sS'comp_time'
p405
F0.0253598690032959
sS'exec_cq'
p406
I33
sS'total_cq'
p407
I33
sa(dp408
g403
I413
sg404
F0.0035250186920166016
sg405
F0.016638994216918945
sg406
I29
sg407
I29
sa(dp409
g403
I416
sg404
F0.0011839866638183594
sg405
F0.006092071533203125
sg406
I25
sg407
I25
sa(dp410
g403
I405
sg404
F0.0008168220520019531
sg405
F0.004007101058959961
sg406
I24
sg407
I24
sa(dp411
g403
I417
sg404
F9.298324584960938e-05
sg405
F0.00023293495178222656
sg406
I23
sg407
I23
sasS'total_cqs'
p412
I33
ssI37
(dp413
S'iters'
p414
I1
sS'meta'
p415
(lp416
(dp417
S'objective'
p418
I1
sS'query_time'
p419
F0.010879993438720703
sS'comp_time'
p420
F0.00026488304138183594
sS'exec_cq'
p421
I2
sS'total_cq'
p422
I2
sasS'total_cqs'
p423
I2
ssI38
(dp424
S'iters'
p425
I2
sS'meta'
p426
(lp427
(dp428
S'objective'
p429
I0
sS'query_time'
p430
F0.03133893013000488
sS'comp_time'
p431
F0.0009670257568359375
sS'exec_cq'
p432
I4
sS'total_cq'
p433
I4
sa(dp434
g429
I3
sg430
F9.012222290039062e-05
sg431
F0.00043320655822753906
sg432
I2
sg433
I2
sasS'total_cqs'
p435
I4
ssI39
(dp436
S'iters'
p437
I2
sS'meta'
p438
(lp439
(dp440
S'objective'
p441
I696
sS'query_time'
p442
F0.17102503776550293
sS'comp_time'
p443
F0.0014309883117675781
sS'exec_cq'
p444
I44
sS'total_cq'
p445
I44
sa(dp446
g441
I841
sg442
F0.0002951622009277344
sg443
F0.0010607242584228516
sg444
I37
sg445
I37
sasS'total_cqs'
p447
I44
ssI40
(dp448
S'iters'
p449
I1
sS'meta'
p450
(lp451
(dp452
S'objective'
p453
I26
sS'query_time'
p454
F0.04652595520019531
sS'comp_time'
p455
F9.608268737792969e-05
sS'exec_cq'
p456
I7
sS'total_cq'
p457
I7
sasS'total_cqs'
p458
I7
ssI41
(dp459
S'iters'
p460
I2
sS'meta'
p461
(lp462
(dp463
S'objective'
p464
I74
sS'query_time'
p465
F0.07601404190063477
sS'comp_time'
p466
F0.00014400482177734375
sS'exec_cq'
p467
I12
sS'total_cq'
p468
I12
sa(dp469
g464
I74
sg465
F5.1975250244140625e-05
sg466
F6.67572021484375e-05
sg467
I11
sg468
I11
sasS'total_cqs'
p470
I12
ssI42
(dp471
S'iters'
p472
I4
sS'meta'
p473
(lp474
(dp475
S'objective'
p476
I789
sS'query_time'
p477
F0.14258480072021484
sS'comp_time'
p478
F0.00024580955505371094
sS'exec_cq'
p479
I41
sS'total_cq'
p480
I41
sa(dp481
g476
I779
sg477
F0.00019812583923339844
sg478
F0.00015687942504882812
sg479
I40
sg480
I40
sa(dp482
g476
I778
sg477
F0.00013494491577148438
sg478
F9.894371032714844e-05
sg479
I39
sg480
I39
sa(dp483
g476
I788
sg477
F0.000164031982421875
sg478
F9.894371032714844e-05
sg479
I38
sg480
I38
sasS'total_cqs'
p484
I41
ssI43
(dp485
S'iters'
p486
I1
sS'meta'
p487
(lp488
(dp489
S'objective'
p490
I26
sS'query_time'
p491
F0.02835988998413086
sS'comp_time'
p492
F0.0001010894775390625
sS'exec_cq'
p493
I7
sS'total_cq'
p494
I7
sasS'total_cqs'
p495
I7
ssI44
(dp496
S'iters'
p497
I4
sS'meta'
p498
(lp499
(dp500
S'objective'
p501
I750
sS'query_time'
p502
F0.17053604125976562
sS'comp_time'
p503
F0.0012750625610351562
sS'exec_cq'
p504
I47
sS'total_cq'
p505
I47
sa(dp506
g501
I817
sg502
F0.0002658367156982422
sg503
F0.0008721351623535156
sg504
I40
sg505
I40
sa(dp507
g501
I17
sg502
F0.0013041496276855469
sg503
F0.0006182193756103516
sg504
I3
sg505
I3
sa(dp508
g501
I20
sg502
F0.000102996826171875
sg503
F0.0005660057067871094
sg504
I2
sg505
I2
sasS'total_cqs'
p509
I47
ssI46
(dp510
S'iters'
p511
I3
sS'meta'
p512
(lp513
(dp514
S'objective'
p515
I11
sS'query_time'
p516
F0.021575927734375
sS'comp_time'
p517
F0.0002548694610595703
sS'exec_cq'
p518
I6
sS'total_cq'
p519
I6
sa(dp520
g515
I12
sg516
F2.9087066650390625e-05
sg517
F5.698204040527344e-05
sg518
I5
sg519
I5
sa(dp521
g515
I12
sg516
F2.09808349609375e-05
sg517
F4.7206878662109375e-05
sg518
I4
sg519
I4
sasS'total_cqs'
p522
I6
ssI47
(dp523
S'iters'
p524
I1
sS'meta'
p525
(lp526
(dp527
S'objective'
p528
I1
sS'query_time'
p529
F0.008487224578857422
sS'comp_time'
p530
F0.00024318695068359375
sS'exec_cq'
p531
I2
sS'total_cq'
p532
I2
sasS'total_cqs'
p533
I2
ssI50
(dp534
S'iters'
p535
I4
sS'meta'
p536
(lp537
(dp538
S'objective'
p539
I5
sS'query_time'
p540
F0.028779983520507812
sS'comp_time'
p541
F0.0001049041748046875
sS'exec_cq'
p542
I5
sS'total_cq'
p543
I5
sa(dp544
g539
I2
sg540
F2.5987625122070312e-05
sg541
F7.319450378417969e-05
sg542
I4
sg543
I4
sa(dp545
g539
I0
sg540
F1.9788742065429688e-05
sg541
F6.914138793945312e-05
sg542
I3
sg543
I3
sa(dp546
g539
I1
sg540
F1.4781951904296875e-05
sg541
F6.008148193359375e-05
sg542
I2
sg543
I2
sasS'total_cqs'
p547
I5
ssI51
(dp548
S'iters'
p549
I1
sS'meta'
p550
(lp551
(dp552
S'objective'
p553
I1
sS'query_time'
p554
F0.007555961608886719
sS'comp_time'
p555
F0.0001277923583984375
sS'exec_cq'
p556
I2
sS'total_cq'
p557
I2
sasS'total_cqs'
p558
I2
ssI52
(dp559
S'iters'
p560
I1
sS'meta'
p561
(lp562
(dp563
S'objective'
p564
I1
sS'query_time'
p565
F0.010637044906616211
sS'comp_time'
p566
F0.000186920166015625
sS'exec_cq'
p567
I2
sS'total_cq'
p568
I2
sasS'total_cqs'
p569
I2
ssI53
(dp570
S'iters'
p571
I3
sS'meta'
p572
(lp573
(dp574
S'objective'
p575
I2
sS'query_time'
p576
F0.02152705192565918
sS'comp_time'
p577
F0.0009620189666748047
sS'exec_cq'
p578
I4
sS'total_cq'
p579
I4
sa(dp580
g575
I0
sg576
F0.00010013580322265625
sg577
F0.0004649162292480469
sg578
I3
sg579
I3
sa(dp581
g575
I1
sg576
F8.702278137207031e-05
sg577
F0.0004467964172363281
sg578
I2
sg579
I2
sasS'total_cqs'
p582
I4
ssI54
(dp583
S'iters'
p584
I2
sS'meta'
p585
(lp586
(dp587
S'objective'
p588
I0
sS'query_time'
p589
F0.012187957763671875
sS'comp_time'
p590
F0.00025391578674316406
sS'exec_cq'
p591
I3
sS'total_cq'
p592
I3
sa(dp593
g588
I1
sg589
F4.792213439941406e-05
sg590
F0.0002219676971435547
sg591
I2
sg592
I2
sasS'total_cqs'
p594
I3
ssI55
(dp595
S'iters'
p596
I9
sS'meta'
p597
(lp598
(dp599
S'objective'
p600
I4253
sS'query_time'
p601
F2.450350046157837
sS'comp_time'
p602
F0.03704094886779785
sS'exec_cq'
p603
I109
sS'total_cq'
p604
I109
sa(dp605
g600
I4466
sg601
F0.0007510185241699219
sg602
F0.001611948013305664
sg603
I97
sg604
I97
sa(dp606
g600
I4391
sg601
F0.0002970695495605469
sg602
F0.0008192062377929688
sg603
I91
sg604
I91
sa(dp607
g600
I4365
sg601
F0.0002770423889160156
sg602
F0.0007619857788085938
sg603
I87
sg604
I87
sa(dp608
g600
I4269
sg601
F0.00025916099548339844
sg602
F0.0007181167602539062
sg603
I85
sg604
I85
sa(dp609
g600
I4208
sg601
F0.0002639293670654297
sg602
F0.0005550384521484375
sg603
I84
sg604
I84
sa(dp610
g600
I4133
sg601
F0.00024199485778808594
sg602
F0.00047087669372558594
sg603
I82
sg604
I82
sa(dp611
g600
I4208
sg601
F0.00023484230041503906
sg602
F0.0004019737243652344
sg603
I80
sg604
I80
sa(dp612
g600
I4208
sg601
F0.0002269744873046875
sg602
F0.0003879070281982422
sg603
I79
sg604
I79
sasS'total_cqs'
p613
I109
ssI56
(dp614
S'iters'
p615
I6
sS'meta'
p616
(lp617
(dp618
S'objective'
p619
I1672
sS'query_time'
p620
F3.4905800819396973
sS'comp_time'
p621
F0.12393712997436523
sS'exec_cq'
p622
I76
sS'total_cq'
p623
I76
sa(dp624
g619
I1
sg620
F0.00475621223449707
sg621
F0.009397745132446289
sg622
I16
sg623
I16
sa(dp625
g619
I19
sg620
F0.0004038810729980469
sg621
F0.0018260478973388672
sg622
I7
sg623
I7
sa(dp626
g619
I10
sg620
F0.00033092498779296875
sg621
F0.0020897388458251953
sg622
I5
sg623
I5
sa(dp627
g619
I64
sg620
F0.00018477439880371094
sg621
F0.0010480880737304688
sg622
I3
sg623
I3
sa(dp628
g619
I5
sg620
F0.0001239776611328125
sg621
F0.0008499622344970703
sg622
I2
sg623
I2
sasS'total_cqs'
p629
I76
ssI57
(dp630
S'iters'
p631
I6
sS'meta'
p632
(lp633
(dp634
S'objective'
p635
I14
sS'query_time'
p636
F68.30832004547119
sS'comp_time'
p637
F3.416233777999878
sS'exec_cq'
p638
I51
sS'total_cq'
p639
I51
sa(dp640
g635
I6
sg636
F0.01474308967590332
sg637
F0.027566909790039062
sg638
I27
sg639
I27
sa(dp641
g635
I46
sg636
F0.002137899398803711
sg637
F0.00557708740234375
sg638
I13
sg639
I13
sa(dp642
g635
I2
sg636
F0.0015659332275390625
sg637
F0.004789829254150391
sg638
I5
sg639
I5
sa(dp643
g635
I24
sg636
F0.0010089874267578125
sg637
F0.0035750865936279297
sg638
I3
sg639
I3
sa(dp644
g635
I22
sg636
F0.0006740093231201172
sg637
F0.003583192825317383
sg638
I2
sg639
I2
sasS'total_cqs'
p645
I51
ssI58
(dp646
S'iters'
p647
I9
sS'meta'
p648
(lp649
(dp650
S'objective'
p651
I87531
sS'query_time'
p652
F292.09331703186035
sS'comp_time'
p653
F16.445695161819458
sS'exec_cq'
p654
I486
sS'total_cq'
p655
I486
sa(dp656
g651
I10091
sg652
F0.03473687171936035
sg653
F0.17010903358459473
sg654
I64
sg655
I64
sa(dp657
g651
I3182
sg652
F0.03104877471923828
sg653
F0.18723392486572266
sg654
I52
sg655
I52
sa(dp658
g651
I687
sg652
F0.017592906951904297
sg653
F1.2409999370574951
sg654
I32
sg655
I32
sa(dp659
g651
I1128
sg652
F0.010241031646728516
sg653
F0.04596114158630371
sg654
I21
sg655
I21
sa(dp660
g651
I29
sg652
F0.003898143768310547
sg653
F0.027431011199951172
sg654
I9
sg655
I9
sa(dp661
g651
I21
sg652
F0.002579927444458008
sg653
F0.007363080978393555
sg654
I5
sg655
I5
sa(dp662
g651
I0
sg652
F0.0012319087982177734
sg653
F0.006067752838134766
sg654
I4
sg655
I4
sa(dp663
g651
I189
sg652
F0.0008170604705810547
sg653
F0.003489971160888672
sg654
I2
sg655
I2
sasS'total_cqs'
p664
I486
ssI59
(dp665
S'iters'
p666
I2
sS'meta'
p667
(lp668
(dp669
S'objective'
p670
I20
sS'query_time'
p671
F0.05839896202087402
sS'comp_time'
p672
F0.0008592605590820312
sS'exec_cq'
p673
I7
sS'total_cq'
p674
I7
sa(dp675
g670
I2
sg671
F0.00014090538024902344
sg672
F0.0007688999176025391
sg673
I2
sg674
I2
sasS'total_cqs'
p676
I7
ssI60
(dp677
S'iters'
p678
I4
sS'meta'
p679
(lp680
(dp681
S'objective'
p682
I7
sS'query_time'
p683
F0.020689964294433594
sS'comp_time'
p684
F0.0003590583801269531
sS'exec_cq'
p685
I5
sS'total_cq'
p686
I5
sa(dp687
g682
I5
sg683
F3.0994415283203125e-05
sg684
F7.677078247070312e-05
sg685
I4
sg686
I4
sa(dp688
g682
I4
sg683
F2.1219253540039062e-05
sg684
F6.794929504394531e-05
sg685
I3
sg686
I3
sa(dp689
g682
I4
sg683
F1.5020370483398438e-05
sg684
F4.482269287109375e-05
sg685
I2
sg686
I2
sasS'total_cqs'
p690
I5
ssI62
(dp691
S'iters'
p692
I3
sS'meta'
p693
(lp694
(dp695
S'objective'
p696
I34
sS'query_time'
p697
F0.04198598861694336
sS'comp_time'
p698
F0.0001430511474609375
sS'exec_cq'
p699
I12
sS'total_cq'
p700
I12
sa(dp701
g696
I42
sg697
F4.410743713378906e-05
sg698
F6.079673767089844e-05
sg699
I9
sg700
I9
sa(dp702
g696
I47
sg697
F3.1948089599609375e-05
sg698
F5.507469177246094e-05
sg699
I8
sg700
I8
sasS'total_cqs'
p703
I12
ssI64
(dp704
S'iters'
p705
I3
sS'meta'
p706
(lp707
(dp708
S'objective'
p709
I34
sS'query_time'
p710
F0.16173696517944336
sS'comp_time'
p711
F0.003683805465698242
sS'exec_cq'
p712
I12
sS'total_cq'
p713
I12
sa(dp714
g709
I2
sg710
F9.918212890625e-05
sg711
F0.00036716461181640625
sg712
I4
sg713
I4
sa(dp715
g709
I8
sg710
F2.384185791015625e-05
sg711
F0.00010085105895996094
sg712
I2
sg713
I2
sasS'total_cqs'
p716
I12
ssI65
(dp717
S'iters'
p718
I5
sS'meta'
p719
(lp720
(dp721
S'objective'
p722
I248
sS'query_time'
p723
F0.855536937713623
sS'comp_time'
p724
F0.043688058853149414
sS'exec_cq'
p725
I27
sS'total_cq'
p726
I27
sa(dp727
g722
I5
sg723
F0.001439809799194336
sg724
F0.004289865493774414
sg725
I7
sg726
I7
sa(dp728
g722
I3
sg723
F0.0006248950958251953
sg724
F0.003023862838745117
sg725
I5
sg726
I5
sa(dp729
g722
I10
sg723
F0.000270843505859375
sg724
F0.001659393310546875
sg725
I3
sg726
I3
sa(dp730
g722
I1
sg723
F7.510185241699219e-05
sg724
F0.0004439353942871094
sg725
I2
sg726
I2
sasS'total_cqs'
p731
I27
ssI67
(dp732
S'iters'
p733
I2
sS'meta'
p734
(lp735
(dp736
S'objective'
p737
I580
sS'query_time'
p738
F1.5559771060943604
sS'comp_time'
p739
F0.006497859954833984
sS'exec_cq'
p740
I35
sS'total_cq'
p741
I35
sa(dp742
g737
I23
sg738
F0.0012860298156738281
sg739
F0.0072667598724365234
sg740
I2
sg741
I2
sasS'total_cqs'
p743
I35
ssI69
(dp744
S'iters'
p745
I1
sS'meta'
p746
(lp747
(dp748
S'objective'
p749
I1324
sS'query_time'
p750
F0.22326111793518066
sS'comp_time'
p751
F0.0003771781921386719
sS'exec_cq'
p752
I51
sS'total_cq'
p753
I51
sasS'total_cqs'
p754
I51
ssI70
(dp755
S'iters'
p756
I4
sS'meta'
p757
(lp758
(dp759
S'objective'
p760
I9
sS'query_time'
p761
F0.02303910255432129
sS'comp_time'
p762
F0.00027298927307128906
sS'exec_cq'
p763
I6
sS'total_cq'
p764
I6
sa(dp765
g760
I7
sg761
F5.507469177246094e-05
sg762
F0.00023794174194335938
sg763
I5
sg764
I5
sa(dp766
g760
I7
sg761
F4.506111145019531e-05
sg762
F0.00017309188842773438
sg763
I4
sg764
I4
sa(dp767
g760
I7
sg761
F3.790855407714844e-05
sg762
F0.0001418590545654297
sg763
I3
sg764
I3
sasS'total_cqs'
p768
I6
ssI71
(dp769
S'iters'
p770
I6
sS'meta'
p771
(lp772
(dp773
S'objective'
p774
I3127
sS'query_time'
p775
F0.37744593620300293
sS'comp_time'
p776
F0.0011162757873535156
sS'exec_cq'
p777
I85
sS'total_cq'
p778
I85
sa(dp779
g774
I3011
sg775
F0.00030803680419921875
sg776
F0.0006089210510253906
sg777
I81
sg778
I81
sa(dp780
g774
I2873
sg775
F0.00026988983154296875
sg776
F0.0005509853363037109
sg777
I77
sg778
I77
sa(dp781
g774
I2825
sg775
F0.00024700164794921875
sg776
F0.0004780292510986328
sg777
I74
sg778
I74
sa(dp782
g774
I42
sg775
F0.0020699501037597656
sg776
F0.0002040863037109375
sg777
I3
sg778
I3
sa(dp783
g774
I72
sg775
F0.0036821365356445312
sg776
F0.000164031982421875
sg777
I2
sg778
I2
sasS'total_cqs'
p784
I85
ssI72
(dp785
S'iters'
p786
I3
sS'meta'
p787
(lp788
(dp789
S'objective'
p790
I0
sS'query_time'
p791
F0.4187960624694824
sS'comp_time'
p792
F0.0025179386138916016
sS'exec_cq'
p793
I8
sS'total_cq'
p794
I8
sa(dp795
g790
I6
sg791
F9.489059448242188e-05
sg792
F0.0002918243408203125
sg793
I5
sg794
I5
sa(dp796
g790
I4
sg791
F3.504753112792969e-05
sg792
F0.00013709068298339844
sg793
I3
sg794
I3
sasS'total_cqs'
p797
I8
ssI75
(dp798
S'iters'
p799
I4
sS'meta'
p800
(lp801
(dp802
S'objective'
p803
I5
sS'query_time'
p804
F0.01331782341003418
sS'comp_time'
p805
F0.00010919570922851562
sS'exec_cq'
p806
I5
sS'total_cq'
p807
I5
sa(dp808
g803
I2
sg804
F2.47955322265625e-05
sg805
F7.200241088867188e-05
sg806
I4
sg807
I4
sa(dp809
g803
I0
sg804
F1.9073486328125e-05
sg805
F5.7220458984375e-05
sg806
I3
sg807
I3
sa(dp810
g803
I1
sg804
F1.4066696166992188e-05
sg805
F4.887580871582031e-05
sg806
I2
sg807
I2
sasS'total_cqs'
p811
I5
ssI76
(dp812
S'iters'
p813
I1
sS'meta'
p814
(lp815
(dp816
S'objective'
p817
I1
sS'query_time'
p818
F0.015301942825317383
sS'comp_time'
p819
F0.00022983551025390625
sS'exec_cq'
p820
I2
sS'total_cq'
p821
I2
sasS'total_cqs'
p822
I2
ssI103
(dp823
S'iters'
p824
I2
sS'meta'
p825
(lp826
(dp827
S'objective'
p828
I70
sS'query_time'
p829
F0.12233686447143555
sS'comp_time'
p830
F0.0001709461212158203
sS'exec_cq'
p831
I12
sS'total_cq'
p832
I12
sa(dp833
g828
I72
sg829
F5.602836608886719e-05
sg830
F9.918212890625e-05
sg831
I11
sg832
I11
sasS'total_cqs'
p834
I12
ssI104
(dp835
S'iters'
p836
I2
sS'meta'
p837
(lp838
(dp839
S'objective'
p840
I0
sS'query_time'
p841
F1.579813003540039
sS'comp_time'
p842
F0.08220291137695312
sS'exec_cq'
p843
I4
sS'total_cq'
p844
I4
sa(dp845
g840
I3
sg841
F0.010877132415771484
sg842
F0.07414889335632324
sg843
I2
sg844
I2
sasS'total_cqs'
p846
I4
ssI106
(dp847
S'iters'
p848
I1
sS'meta'
p849
(lp850
(dp851
S'objective'
p852
I8
sS'query_time'
p853
F0.023572921752929688
sS'comp_time'
p854
F0.0001220703125
sS'exec_cq'
p855
I4
sS'total_cq'
p856
I4
sasS'total_cqs'
p857
I4
ssI107
(dp858
S'iters'
p859
I2
sS'meta'
p860
(lp861
(dp862
S'objective'
p863
I80
sS'query_time'
p864
F0.09992003440856934
sS'comp_time'
p865
F0.00017595291137695312
sS'exec_cq'
p866
I16
sS'total_cq'
p867
I16
sa(dp868
g863
I26
sg864
F0.008766889572143555
sg865
F0.0001659393310546875
sg866
I3
sg867
I3
sasS'total_cqs'
p869
I16
ss.