(dp0
I1
(dp1
S'iters'
p2
I1
sS'meta'
p3
(lp4
(dp5
S'objective'
p6
I58
sS'query_time'
p7
F0.02814006805419922
sS'comp_time'
p8
F8.106231689453125e-05
sS'exec_cq'
p9
I3
sS'total_cq'
p10
I12
sasS'total_cqs'
p11
I12
ssI2
(dp12
S'iters'
p13
I2
sS'meta'
p14
(lp15
(dp16
S'objective'
p17
I274
sS'query_time'
p18
F0.058216094970703125
sS'comp_time'
p19
F8.797645568847656e-05
sS'exec_cq'
p20
I1
sS'total_cq'
p21
I27
sa(dp22
g17
I282
sg18
F0.03432202339172363
sg19
F8.916854858398438e-05
sg20
I4
sg21
I24
sasS'total_cqs'
p23
I27
ssI3
(dp24
S'iters'
p25
I4
sS'meta'
p26
(lp27
(dp28
S'objective'
p29
I180
sS'query_time'
p30
F6.760955095291138
sS'comp_time'
p31
F8.606910705566406e-05
sS'exec_cq'
p32
I1
sS'total_cq'
p33
I43
sa(dp34
g29
I255
sg30
F25.682063817977905
sg31
F0.00015091896057128906
sg32
I1
sg33
I27
sa(dp35
g29
I27
sg30
F20.068333864212036
sg31
F0.0001289844512939453
sg32
I1
sg33
I21
sa(dp36
g29
I150
sg30
F0.0013320446014404297
sg31
F3.4809112548828125e-05
sg32
I1
sg33
I13
sasS'total_cqs'
p37
I43
ssI4
(dp38
S'iters'
p39
I2
sS'meta'
p40
(lp41
(dp42
S'objective'
p43
I44
sS'query_time'
p44
F0.6976761817932129
sS'comp_time'
p45
F6.699562072753906e-05
sS'exec_cq'
p46
I1
sS'total_cq'
p47
I11
sa(dp48
g43
I35
sg44
F3.150491952896118
sg45
F0.0011820793151855469
sg46
I1
sg47
I10
sasS'total_cqs'
p49
I11
ssI5
(dp50
S'iters'
p51
I2
sS'meta'
p52
(lp53
(dp54
S'objective'
p55
I6
sS'query_time'
p56
F7.0504150390625
sS'comp_time'
p57
F0.000553131103515625
sS'exec_cq'
p58
I1
sS'total_cq'
p59
I8
sa(dp60
g55
I1
sg56
F0.07594990730285645
sg57
F7.295608520507812e-05
sg58
I1
sg59
I2
sasS'total_cqs'
p61
I8
ssI6
(dp62
S'iters'
p63
I2
sS'meta'
p64
(lp65
(dp66
S'objective'
p67
I109
sS'query_time'
p68
F1.5926249027252197
sS'comp_time'
p69
F8.58306884765625e-05
sS'exec_cq'
p70
I2
sS'total_cq'
p71
I18
sa(dp72
g67
I110
sg68
F0.4427011013031006
sg69
F8.0108642578125e-05
sg70
I3
sg71
I14
sasS'total_cqs'
p73
I18
ssI7
(dp74
S'iters'
p75
I2
sS'meta'
p76
(lp77
(dp78
S'objective'
p79
I27
sS'query_time'
p80
F4.321249008178711
sS'comp_time'
p81
F0.0004780292510986328
sS'exec_cq'
p82
I1
sS'total_cq'
p83
I9
sa(dp84
g79
I20
sg80
F0.1801600456237793
sg81
F3.790855407714844e-05
sg82
I1
sg83
I8
sasS'total_cqs'
p85
I9
ssI8
(dp86
S'iters'
p87
I3
sS'meta'
p88
(lp89
(dp90
S'objective'
p91
I294
sS'query_time'
p92
F0.04749584197998047
sS'comp_time'
p93
F7.987022399902344e-05
sS'exec_cq'
p94
I3
sS'total_cq'
p95
I27
sa(dp96
g91
I204
sg92
F0.026851892471313477
sg93
F4.291534423828125e-05
sg94
I3
sg95
I24
sa(dp97
g91
I226
sg92
F0.019562959671020508
sg93
F5.507469177246094e-05
sg94
I3
sg95
I19
sasS'total_cqs'
p98
I27
ssI9
(dp99
S'iters'
p100
I3
sS'meta'
p101
(lp102
(dp103
S'objective'
p104
I12
sS'query_time'
p105
F0.022384166717529297
sS'comp_time'
p106
F7.605552673339844e-05
sS'exec_cq'
p107
I1
sS'total_cq'
p108
I7
sa(dp109
g104
I8
sg105
F0.043250083923339844
sg106
F6.198883056640625e-05
sg107
I2
sg108
I5
sa(dp110
g104
I0
sg105
F0.0053598880767822266
sg106
F5.1975250244140625e-05
sg107
I2
sg108
I3
sasS'total_cqs'
p111
I7
ssI10
(dp112
S'iters'
p113
I7
sS'meta'
p114
(lp115
(dp116
S'objective'
p117
I1130
sS'query_time'
p118
F0.2661280632019043
sS'comp_time'
p119
F8.797645568847656e-05
sS'exec_cq'
p120
I1
sS'total_cq'
p121
I51
sa(dp122
g117
I1066
sg118
F0.10404586791992188
sg119
F6.318092346191406e-05
sg120
I2
sg121
I49
sa(dp123
g117
I557
sg118
F0.07373404502868652
sg119
F5.1021575927734375e-05
sg120
I2
sg121
I47
sa(dp124
g117
I220
sg118
F0.0482330322265625
sg119
F8.0108642578125e-05
sg120
I3
sg121
I35
sa(dp125
g117
I416
sg118
F0.01514291763305664
sg119
F5.793571472167969e-05
sg120
I4
sg121
I23
sa(dp126
g117
I38
sg118
F0.010442972183227539
sg119
F3.504753112792969e-05
sg120
I2
sg121
I3
sa(dp127
g117
I31
sg118
F0.0017840862274169922
sg119
F3.409385681152344e-05
sg120
I2
sg121
I2
sasS'total_cqs'
p128
I51
ssI11
(dp129
S'iters'
p130
I15
sS'meta'
p131
(lp132
(dp133
S'objective'
p134
I1840
sS'query_time'
p135
F0.28417301177978516
sS'comp_time'
p136
F8.797645568847656e-05
sS'exec_cq'
p137
I1
sS'total_cq'
p138
I63
sa(dp139
g134
I1630
sg135
F0.09657096862792969
sg136
F7.796287536621094e-05
sg137
I1
sg138
I61
sa(dp140
g134
I1657
sg135
F0.140455961227417
sg136
F7.581710815429688e-05
sg137
I1
sg138
I58
sa(dp141
g134
I1268
sg135
F0.08048295974731445
sg136
F5.888938903808594e-05
sg137
I1
sg138
I57
sa(dp142
g134
I1375
sg135
F0.0658118724822998
sg136
F5.507469177246094e-05
sg137
I1
sg138
I52
sa(dp143
g134
I1222
sg135
F0.07367086410522461
sg136
F5.602836608886719e-05
sg137
I1
sg138
I51
sa(dp144
g134
I1220
sg135
F0.056574106216430664
sg136
F6.604194641113281e-05
sg137
I2
sg138
I48
sa(dp145
g134
I1140
sg135
F0.10222101211547852
sg136
F8.106231689453125e-05
sg137
I2
sg138
I47
sa(dp146
g134
I1073
sg135
F0.060446977615356445
sg136
F7.510185241699219e-05
sg137
I2
sg138
I45
sa(dp147
g134
I968
sg135
F0.0491940975189209
sg136
F6.794929504394531e-05
sg137
I2
sg138
I43
sa(dp148
g134
I478
sg135
F0.058326005935668945
sg136
F6.29425048828125e-05
sg137
I2
sg138
I41
sa(dp149
g134
I478
sg135
F0.042814016342163086
sg136
F5.316734313964844e-05
sg137
I2
sg138
I33
sa(dp150
g134
I48
sg135
F0.012942075729370117
sg136
F4.887580871582031e-05
sg137
I2
sg138
I4
sa(dp151
g134
I44
sg135
F0.005479097366333008
sg136
F4.100799560546875e-05
sg137
I2
sg138
I3
sa(dp152
g134
I28
sg135
F0.0015671253204345703
sg136
F4.506111145019531e-05
sg137
I2
sg138
I2
sasS'total_cqs'
p153
I63
ssI12
(dp154
S'iters'
p155
I12
sS'meta'
p156
(lp157
(dp158
S'objective'
p159
I1175
sS'query_time'
p160
F0.19251608848571777
sS'comp_time'
p161
F9.584426879882812e-05
sS'exec_cq'
p162
I1
sS'total_cq'
p163
I50
sa(dp164
g159
I1043
sg160
F0.12929511070251465
sg161
F6.4849853515625e-05
sg162
I1
sg163
I49
sa(dp165
g159
I958
sg160
F0.053829193115234375
sg161
F8.106231689453125e-05
sg162
I1
sg163
I45
sa(dp166
g159
I482
sg160
F0.037919044494628906
sg161
F5.316734313964844e-05
sg162
I2
sg163
I43
sa(dp167
g159
I674
sg160
F0.10560417175292969
sg161
F8.893013000488281e-05
sg162
I2
sg163
I30
sa(dp168
g159
I603
sg160
F0.0714578628540039
sg161
F5.1975250244140625e-05
sg162
I3
sg163
I29
sa(dp169
g159
I289
sg160
F0.054064035415649414
sg161
F5.1021575927734375e-05
sg162
I4
sg163
I27
sa(dp170
g159
I112
sg160
F0.07981514930725098
sg161
F7.891654968261719e-05
sg162
I2
sg163
I7
sa(dp171
g159
I27
sg160
F0.013648033142089844
sg161
F5.1975250244140625e-05
sg162
I2
sg163
I6
sa(dp172
g159
I42
sg160
F0.010257959365844727
sg161
F5.1975250244140625e-05
sg162
I2
sg163
I4
sa(dp173
g159
I23
sg160
F0.008198976516723633
sg161
F5.316734313964844e-05
sg162
I2
sg163
I3
sa(dp174
g159
I34
sg160
F0.005388021469116211
sg161
F4.792213439941406e-05
sg162
I2
sg163
I2
sasS'total_cqs'
p175
I50
ssI13
(dp176
S'iters'
p177
I5
sS'meta'
p178
(lp179
(dp180
S'objective'
p181
I46
sS'query_time'
p182
F0.08295011520385742
sS'comp_time'
p183
F0.00010013580322265625
sS'exec_cq'
p184
I1
sS'total_cq'
p185
I20
sa(dp186
g181
I64
sg182
F0.08941793441772461
sg183
F4.601478576660156e-05
sg184
I1
sg185
I11
sa(dp187
g181
I8
sg182
F0.02660202980041504
sg183
F6.508827209472656e-05
sg184
I1
sg185
I8
sa(dp188
g181
I2
sg182
F0.013535022735595703
sg183
F3.504753112792969e-05
sg184
I1
sg185
I4
sa(dp189
g181
I5
sg182
F0.025352954864501953
sg183
F6.794929504394531e-05
sg184
I2
sg185
I2
sasS'total_cqs'
p190
I20
ssI14
(dp191
S'iters'
p192
I2
sS'meta'
p193
(lp194
(dp195
S'objective'
p196
I1
sS'query_time'
p197
F1.1694910526275635
sS'comp_time'
p198
F7.700920104980469e-05
sS'exec_cq'
p199
I1
sS'total_cq'
p200
I9
sa(dp201
g196
I6
sg197
F0.3142387866973877
sg198
F5.888938903808594e-05
sg199
I1
sg200
I4
sasS'total_cqs'
p202
I9
ssI15
(dp203
S'iters'
p204
I2
sS'meta'
p205
(lp206
(dp207
S'objective'
p208
I42
sS'query_time'
p209
F0.20818710327148438
sS'comp_time'
p210
F8.106231689453125e-05
sS'exec_cq'
p211
I1
sS'total_cq'
p212
I11
sa(dp213
g208
I34
sg209
F0.04964900016784668
sg210
F7.891654968261719e-05
sg211
I1
sg212
I9
sasS'total_cqs'
p214
I11
ssI16
(dp215
S'iters'
p216
I1
sS'meta'
p217
(lp218
(dp219
S'objective'
p220
I22
sS'query_time'
p221
F0.010046958923339844
sS'comp_time'
p222
F4.696846008300781e-05
sS'exec_cq'
p223
I2
sS'total_cq'
p224
I8
sasS'total_cqs'
p225
I8
ssI17
(dp226
S'iters'
p227
I2
sS'meta'
p228
(lp229
(dp230
S'objective'
p231
I16
sS'query_time'
p232
F0.043734073638916016
sS'comp_time'
p233
F4.982948303222656e-05
sS'exec_cq'
p234
I1
sS'total_cq'
p235
I11
sa(dp236
g231
I21
sg232
F0.06436800956726074
sg233
F6.008148193359375e-05
sg234
I1
sg235
I7
sasS'total_cqs'
p237
I11
ssI18
(dp238
S'iters'
p239
I2
sS'meta'
p240
(lp241
(dp242
S'objective'
p243
I44
sS'query_time'
p244
F0.16926002502441406
sS'comp_time'
p245
F5.91278076171875e-05
sS'exec_cq'
p246
I1
sS'total_cq'
p247
I11
sa(dp248
g243
I35
sg244
F0.03598809242248535
sg245
F7.891654968261719e-05
sg246
I1
sg247
I10
sasS'total_cqs'
p249
I11
ssI19
(dp250
S'iters'
p251
I0
sS'meta'
p252
(lp253
sS'total_cqs'
p254
I1
ssI20
(dp255
S'iters'
p256
I0
sS'meta'
p257
(lp258
sS'total_cqs'
p259
I1
ssI21
(dp260
S'iters'
p261
I0
sS'meta'
p262
(lp263
sS'total_cqs'
p264
I1
ssI22
(dp265
S'iters'
p266
I1
sS'meta'
p267
(lp268
(dp269
S'objective'
p270
I141
sS'query_time'
p271
F0.05194211006164551
sS'comp_time'
p272
F7.009506225585938e-05
sS'exec_cq'
p273
I4
sS'total_cq'
p274
I18
sasS'total_cqs'
p275
I18
ssI23
(dp276
S'iters'
p277
I2
sS'meta'
p278
(lp279
(dp280
S'objective'
p281
I88
sS'query_time'
p282
F0.018713951110839844
sS'comp_time'
p283
F0.00015807151794433594
sS'exec_cq'
p284
I1
sS'total_cq'
p285
I16
sa(dp286
g281
I86
sg282
F0.028415918350219727
sg283
F4.696846008300781e-05
sg284
I3
sg285
I14
sasS'total_cqs'
p287
I16
ssI24
(dp288
S'iters'
p289
I0
sS'meta'
p290
(lp291
sS'total_cqs'
p292
I1
ssI25
(dp293
S'iters'
p294
I0
sS'meta'
p295
(lp296
sS'total_cqs'
p297
I1
ssI26
(dp298
S'iters'
p299
I1
sS'meta'
p300
(lp301
(dp302
S'objective'
p303
I837
sS'query_time'
p304
F0.13404512405395508
sS'comp_time'
p305
F8.702278137207031e-05
sS'exec_cq'
p306
I10
sS'total_cq'
p307
I42
sasS'total_cqs'
p308
I42
ssI27
(dp309
S'iters'
p310
I2
sS'meta'
p311
(lp312
(dp313
S'objective'
p314
I401
sS'query_time'
p315
F3.7663140296936035
sS'comp_time'
p316
F9.107589721679688e-05
sS'exec_cq'
p317
I7
sS'total_cq'
p318
I30
sa(dp319
g314
I16
sg315
F1228.4071600437164
sg316
F9.298324584960938e-05
sg317
I2
sg318
I2
sasS'total_cqs'
p320
I30
ssI28
(dp321
S'iters'
p322
I0
sS'meta'
p323
(lp324
sS'total_cqs'
p325
I1
ssI29
(dp326
S'iters'
p327
I8
sS'meta'
p328
(lp329
(dp330
S'objective'
p331
I1127
sS'query_time'
p332
F0.869088888168335
sS'comp_time'
p333
F8.511543273925781e-05
sS'exec_cq'
p334
I1
sS'total_cq'
p335
I49
sa(dp336
g331
I1080
sg332
F0.97086501121521
sg333
F0.00011897087097167969
sg334
I1
sg335
I48
sa(dp337
g331
I1034
sg332
F0.5225980281829834
sg333
F9.107589721679688e-05
sg334
I1
sg335
I47
sa(dp338
g331
I989
sg332
F0.34197402000427246
sg333
F8.702278137207031e-05
sg334
I1
sg335
I46
sa(dp339
g331
I861
sg332
F17.84890389442444
sg333
F0.00034689903259277344
sg334
I1
sg335
I45
sa(dp340
g331
I576
sg332
F0.6159918308258057
sg333
F8.296966552734375e-05
sg334
I1
sg335
I43
sa(dp341
g331
I532
sg332
F1.7945060729980469
sg333
F8.20159912109375e-05
sg334
I1
sg335
I35
sa(dp342
g331
I571
sg332
F0.24591493606567383
sg333
F6.604194641113281e-05
sg334
I2
sg335
I32
sasS'total_cqs'
p343
I49
ssI30
(dp344
S'iters'
p345
I1
sS'meta'
p346
(lp347
(dp348
S'objective'
p349
I1
sS'query_time'
p350
F0.8507139682769775
sS'comp_time'
p351
F5.793571472167969e-05
sS'exec_cq'
p352
I1
sS'total_cq'
p353
I2
sasS'total_cqs'
p354
I2
ssI31
(dp355
S'iters'
p356
I0
sS'meta'
p357
(lp358
sS'total_cqs'
p359
I1
ssI32
(dp360
S'iters'
p361
I1
sS'meta'
p362
(lp363
(dp364
S'objective'
p365
I1
sS'query_time'
p366
F0.01151895523071289
sS'comp_time'
p367
F5.2928924560546875e-05
sS'exec_cq'
p368
I1
sS'total_cq'
p369
I2
sasS'total_cqs'
p370
I2
ssI33
(dp371
S'iters'
p372
I9
sS'meta'
p373
(lp374
(dp375
S'objective'
p376
I5150
sS'query_time'
p377
F0.9939107894897461
sS'comp_time'
p378
F0.000125885009765625
sS'exec_cq'
p379
I1
sS'total_cq'
p380
I103
sa(dp381
g376
I4833
sg377
F1.2000980377197266
sg378
F0.0001220703125
sg379
I1
sg380
I102
sa(dp382
g376
I4811
sg377
F0.6024301052093506
sg378
F9.894371032714844e-05
sg379
I6
sg380
I99
sa(dp383
g376
I4517
sg377
F1.0666310787200928
sg378
F0.00015282630920410156
sg379
I11
sg380
I97
sa(dp384
g376
I4276
sg377
F0.7655000686645508
sg378
F0.0002129077911376953
sg379
I12
sg380
I94
sa(dp385
g376
I4265
sg377
F0.5513761043548584
sg378
F0.00014209747314453125
sg379
I13
sg380
I90
sa(dp386
g376
I4146
sg377
F0.46407389640808105
sg378
F0.0001480579376220703
sg379
I14
sg380
I88
sa(dp387
g376
I3970
sg377
F3.5037789344787598
sg378
F0.00014090538024902344
sg379
I17
sg380
I86
sa(dp388
g376
I3959
sg377
F0.237990140914917
sg378
F0.0002589225769042969
sg379
I17
sg380
I84
sasS'total_cqs'
p389
I103
ssI34
(dp390
S'iters'
p391
I1
sS'meta'
p392
(lp393
(dp394
S'objective'
p395
I1
sS'query_time'
p396
F0.0445561408996582
sS'comp_time'
p397
F5.698204040527344e-05
sS'exec_cq'
p398
I1
sS'total_cq'
p399
I2
sasS'total_cqs'
p400
I2
ssI35
(dp401
S'iters'
p402
I3
sS'meta'
p403
(lp404
(dp405
S'objective'
p406
I2193
sS'query_time'
p407
F0.532322883605957
sS'comp_time'
p408
F0.0001220703125
sS'exec_cq'
p409
I1
sS'total_cq'
p410
I70
sa(dp411
g406
I6
sg407
F0.0707249641418457
sg408
F3.600120544433594e-05
sg409
I1
sg410
I4
sa(dp412
g406
I32
sg407
F0.12614703178405762
sg408
F6.794929504394531e-05
sg409
I1
sg410
I3
sasS'total_cqs'
p413
I70
ssI36
(dp414
S'iters'
p415
I5
sS'meta'
p416
(lp417
(dp418
S'objective'
p419
I497
sS'query_time'
p420
F0.3501420021057129
sS'comp_time'
p421
F9.799003601074219e-05
sS'exec_cq'
p422
I2
sS'total_cq'
p423
I33
sa(dp424
g419
I397
sg420
F0.03870701789855957
sg421
F5.602836608886719e-05
sg422
I2
sg423
I32
sa(dp425
g419
I403
sg420
F0.118682861328125
sg421
F8.20159912109375e-05
sg422
I2
sg423
I29
sa(dp426
g419
I353
sg420
F0.036914825439453125
sg421
F5.984306335449219e-05
sg422
I3
sg423
I28
sa(dp427
g419
I341
sg420
F0.043823957443237305
sg421
F6.389617919921875e-05
sg422
I3
sg423
I26
sasS'total_cqs'
p428
I33
ssI37
(dp429
S'iters'
p430
I1
sS'meta'
p431
(lp432
(dp433
S'objective'
p434
I1
sS'query_time'
p435
F0.010172128677368164
sS'comp_time'
p436
F4.410743713378906e-05
sS'exec_cq'
p437
I1
sS'total_cq'
p438
I2
sasS'total_cqs'
p439
I2
ssI38
(dp440
S'iters'
p441
I2
sS'meta'
p442
(lp443
(dp444
S'objective'
p445
I0
sS'query_time'
p446
F0.017100095748901367
sS'comp_time'
p447
F6.29425048828125e-05
sS'exec_cq'
p448
I1
sS'total_cq'
p449
I4
sa(dp450
g445
I3
sg446
F0.0024530887603759766
sg447
F3.2901763916015625e-05
sg448
I1
sg449
I2
sasS'total_cqs'
p451
I4
ssI39
(dp452
S'iters'
p453
I3
sS'meta'
p454
(lp455
(dp456
S'objective'
p457
I600
sS'query_time'
p458
F0.052091121673583984
sS'comp_time'
p459
F7.200241088867188e-05
sS'exec_cq'
p460
I2
sS'total_cq'
p461
I44
sa(dp462
g457
I109
sg458
F0.0222780704498291
sg459
F5.507469177246094e-05
sg460
I2
sg461
I8
sa(dp463
g457
I84
sg458
F0.1411271095275879
sg459
F6.890296936035156e-05
sg460
I2
sg461
I7
sasS'total_cqs'
p464
I44
ssI40
(dp465
S'iters'
p466
I1
sS'meta'
p467
(lp468
(dp469
S'objective'
p470
I14
sS'query_time'
p471
F0.03177595138549805
sS'comp_time'
p472
F6.699562072753906e-05
sS'exec_cq'
p473
I1
sS'total_cq'
p474
I7
sasS'total_cqs'
p475
I7
ssI41
(dp476
S'iters'
p477
I2
sS'meta'
p478
(lp479
(dp480
S'objective'
p481
I54
sS'query_time'
p482
F0.03453421592712402
sS'comp_time'
p483
F7.200241088867188e-05
sS'exec_cq'
p484
I1
sS'total_cq'
p485
I12
sa(dp486
g481
I46
sg482
F0.02774500846862793
sg483
F8.416175842285156e-05
sg484
I2
sg485
I11
sasS'total_cqs'
p487
I12
ssI42
(dp488
S'iters'
p489
I2
sS'meta'
p490
(lp491
(dp492
S'objective'
p493
I791
sS'query_time'
p494
F0.03336000442504883
sS'comp_time'
p495
F5.4836273193359375e-05
sS'exec_cq'
p496
I7
sS'total_cq'
p497
I41
sa(dp498
g493
I762
sg494
F0.03620481491088867
sg495
F5.91278076171875e-05
sg496
I9
sg497
I40
sasS'total_cqs'
p499
I41
ssI43
(dp500
S'iters'
p501
I1
sS'meta'
p502
(lp503
(dp504
S'objective'
p505
I14
sS'query_time'
p506
F0.016165971755981445
sS'comp_time'
p507
F7.295608520507812e-05
sS'exec_cq'
p508
I1
sS'total_cq'
p509
I7
sasS'total_cqs'
p510
I7
ssI44
(dp511
S'iters'
p512
I3
sS'meta'
p513
(lp514
(dp515
S'objective'
p516
I1050
sS'query_time'
p517
F0.08336997032165527
sS'comp_time'
p518
F8.0108642578125e-05
sS'exec_cq'
p519
I9
sS'total_cq'
p520
I47
sa(dp521
g516
I1013
sg517
F0.08856511116027832
sg518
F8.106231689453125e-05
sg519
I10
sg520
I46
sa(dp522
g516
I36
sg517
F0.04548811912536621
sg518
F5.1021575927734375e-05
sg519
I2
sg520
I2
sasS'total_cqs'
p523
I47
ssI45
(dp524
S'iters'
p525
I0
sS'meta'
p526
(lp527
sS'total_cqs'
p528
I1
ssI46
(dp529
S'iters'
p530
I1
sS'meta'
p531
(lp532
(dp533
S'objective'
p534
I9
sS'query_time'
p535
F0.007688045501708984
sS'comp_time'
p536
F3.981590270996094e-05
sS'exec_cq'
p537
I1
sS'total_cq'
p538
I6
sasS'total_cqs'
p539
I6
ssI47
(dp540
S'iters'
p541
I1
sS'meta'
p542
(lp543
(dp544
S'objective'
p545
I1
sS'query_time'
p546
F0.006672859191894531
sS'comp_time'
p547
F5.412101745605469e-05
sS'exec_cq'
p548
I1
sS'total_cq'
p549
I2
sasS'total_cqs'
p550
I2
ssI48
(dp551
S'iters'
p552
I0
sS'meta'
p553
(lp554
sS'total_cqs'
p555
I1
ssI49
(dp556
S'iters'
p557
I0
sS'meta'
p558
(lp559
sS'total_cqs'
p560
I1
ssI50
(dp561
S'iters'
p562
I1
sS'meta'
p563
(lp564
(dp565
S'objective'
p566
I5
sS'query_time'
p567
F0.006865024566650391
sS'comp_time'
p568
F6.198883056640625e-05
sS'exec_cq'
p569
I1
sS'total_cq'
p570
I5
sasS'total_cqs'
p571
I5
ssI51
(dp572
S'iters'
p573
I1
sS'meta'
p574
(lp575
(dp576
S'objective'
p577
I1
sS'query_time'
p578
F0.007172822952270508
sS'comp_time'
p579
F5.1021575927734375e-05
sS'exec_cq'
p580
I1
sS'total_cq'
p581
I2
sasS'total_cqs'
p582
I2
ssI52
(dp583
S'iters'
p584
I1
sS'meta'
p585
(lp586
(dp587
S'objective'
p588
I1
sS'query_time'
p589
F0.009588956832885742
sS'comp_time'
p590
F4.696846008300781e-05
sS'exec_cq'
p591
I1
sS'total_cq'
p592
I2
sasS'total_cqs'
p593
I2
ssI53
(dp594
S'iters'
p595
I1
sS'meta'
p596
(lp597
(dp598
S'objective'
p599
I2
sS'query_time'
p600
F0.013219118118286133
sS'comp_time'
p601
F4.315376281738281e-05
sS'exec_cq'
p602
I1
sS'total_cq'
p603
I4
sasS'total_cqs'
p604
I4
ssI54
(dp605
S'iters'
p606
I2
sS'meta'
p607
(lp608
(dp609
S'objective'
p610
I0
sS'query_time'
p611
F0.0060710906982421875
sS'comp_time'
p612
F3.600120544433594e-05
sS'exec_cq'
p613
I1
sS'total_cq'
p614
I3
sa(dp615
g610
I1
sg611
F0.005842924118041992
sg612
F5.3882598876953125e-05
sg613
I1
sg614
I2
sasS'total_cqs'
p616
I3
ssI55
(dp617
S'iters'
p618
I7
sS'meta'
p619
(lp620
(dp621
S'objective'
p622
I5781
sS'query_time'
p623
F0.2911229133605957
sS'comp_time'
p624
F0.00012111663818359375
sS'exec_cq'
p625
I3
sS'total_cq'
p626
I109
sa(dp627
g622
I5680
sg623
F0.279371976852417
sg624
F0.0001761913299560547
sg625
I5
sg626
I108
sa(dp628
g622
I5478
sg623
F0.18943190574645996
sg624
F0.00014495849609375
sg625
I12
sg626
I107
sa(dp629
g622
I5441
sg623
F0.5219199657440186
sg624
F0.00012111663818359375
sg625
I12
sg626
I105
sa(dp630
g622
I4698
sg623
F0.2260289192199707
sg624
F0.0001220703125
sg625
I12
sg626
I104
sa(dp631
g622
I4699
sg623
F0.2844269275665283
sg624
F0.0001430511474609375
sg625
I14
sg626
I96
sa(dp632
g622
I4742
sg623
F0.11877918243408203
sg624
F8.988380432128906e-05
sg625
I18
sg626
I93
sasS'total_cqs'
p633
I109
ssI56
(dp634
S'iters'
p635
I4
sS'meta'
p636
(lp637
(dp638
S'objective'
p639
I2406
sS'query_time'
p640
F0.4880809783935547
sS'comp_time'
p641
F0.00011205673217773438
sS'exec_cq'
p642
I4
sS'total_cq'
p643
I76
sa(dp644
g639
I2494
sg640
F0.28167104721069336
sg641
F8.797645568847656e-05
sg642
I6
sg643
I67
sa(dp645
g639
I2458
sg640
F0.09161901473999023
sg641
F8.893013000488281e-05
sg642
I14
sg643
I65
sa(dp646
g639
I2403
sg640
F0.15404081344604492
sg641
F7.796287536621094e-05
sg642
I16
sg643
I64
sasS'total_cqs'
p647
I76
ssI57
(dp648
S'iters'
p649
I8
sS'meta'
p650
(lp651
(dp652
S'objective'
p653
I1224
sS'query_time'
p654
F2.605726957321167
sS'comp_time'
p655
F9.179115295410156e-05
sS'exec_cq'
p656
I1
sS'total_cq'
p657
I51
sa(dp658
g653
I1101
sg654
F13.92476201057434
sg655
F0.0004611015319824219
sg656
I4
sg657
I50
sa(dp659
g653
I624
sg654
F0.5659749507904053
sg655
F0.0001919269561767578
sg656
I4
sg657
I47
sa(dp660
g653
I816
sg654
F0.3890390396118164
sg655
F7.295608520507812e-05
sg656
I4
sg657
I38
sa(dp661
g653
I619
sg654
F0.4320669174194336
sg655
F9.107589721679688e-05
sg656
I4
sg657
I37
sa(dp662
g653
I458
sg654
F0.23856401443481445
sg655
F7.796287536621094e-05
sg656
I5
sg657
I31
sa(dp663
g653
I1
sg654
F0.032196998596191406
sg655
F2.8133392333984375e-05
sg656
I1
sg657
I4
sa(dp664
g653
I9
sg654
F0.05079793930053711
sg655
F2.5033950805664062e-05
sg656
I1
sg657
I2
sasS'total_cqs'
p665
I51
ssI58
(dp666
S'iters'
p667
I28
sS'meta'
p668
(lp669
(dp670
S'objective'
p671
I116817
sS'query_time'
p672
F20.623178005218506
sS'comp_time'
p673
F0.0011630058288574219
sS'exec_cq'
p674
I3
sS'total_cq'
p675
I486
sa(dp676
g671
I112745
sg672
F1.8028011322021484
sg673
F0.0003669261932373047
sg674
I3
sg675
I484
sa(dp677
g671
I111620
sg672
F8.908724069595337
sg673
F0.009310007095336914
sg674
I3
sg675
I476
sa(dp678
g671
I111111
sg672
F8.763025045394897
sg673
F0.0003230571746826172
sg674
I3
sg675
I470
sa(dp679
g671
I109919
sg672
F3.2082679271698
sg673
F0.00026917457580566406
sg674
I5
sg675
I467
sa(dp680
g671
I102893
sg672
F3.496723175048828
sg673
F0.00034809112548828125
sg674
I5
sg675
I461
sa(dp681
g671
I104371
sg672
F3.7884669303894043
sg673
F0.0005018711090087891
sg674
I5
sg675
I449
sa(dp682
g671
I102568
sg672
F9.228157043457031
sg673
F0.0008099079132080078
sg674
I6
sg675
I444
sa(dp683
g671
I85932
sg672
F1.6272790431976318
sg673
F0.0003790855407714844
sg674
I8
sg675
I438
sa(dp684
g671
I94096
sg672
F8.94315505027771
sg673
F0.00025200843811035156
sg674
I10
sg675
I402
sa(dp685
g671
I93140
sg672
F2.66198992729187
sg673
F0.0002810955047607422
sg674
I11
sg675
I401
sa(dp686
g671
I92119
sg672
F2.330429792404175
sg673
F0.0002968311309814453
sg674
I11
sg675
I399
sa(dp687
g671
I91433
sg672
F4.533090114593506
sg673
F0.0005259513854980469
sg674
I13
sg675
I396
sa(dp688
g671
I89355
sg672
F4.943392038345337
sg673
F0.001802206039428711
sg674
I27
sg675
I392
sa(dp689
g671
I89654
sg672
F0.4541029930114746
sg673
F0.00020694732666015625
sg674
I27
sg675
I388
sa(dp690
g671
I88704
sg672
F0.47435808181762695
sg673
F0.0002899169921875
sg674
I28
sg675
I386
sa(dp691
g671
I88597
sg672
F1.6345851421356201
sg673
F0.0002999305725097656
sg674
I29
sg675
I383
sa(dp692
g671
I88167
sg672
F4.3635358810424805
sg673
F0.0002949237823486328
sg674
I29
sg675
I382
sa(dp693
g671
I85666
sg672
F3.1832709312438965
sg673
F0.0002989768981933594
sg674
I29
sg675
I381
sa(dp694
g671
I85546
sg672
F2.15913987159729
sg673
F0.00047707557678222656
sg674
I31
sg675
I370
sa(dp695
g671
I83835
sg672
F1.5015060901641846
sg673
F0.00045490264892578125
sg674
I31
sg675
I367
sa(dp696
g671
I83547
sg672
F5.205207109451294
sg673
F0.0008490085601806641
sg674
I31
sg675
I364
sa(dp697
g671
I80491
sg672
F3.476579189300537
sg673
F0.00028586387634277344
sg674
I31
sg675
I362
sa(dp698
g671
I81578
sg672
F1.2334740161895752
sg673
F0.00027108192443847656
sg674
I35
sg675
I356
sa(dp699
g671
I75421
sg672
F1.7357311248779297
sg673
F0.00048804283142089844
sg674
I36
sg675
I355
sa(dp700
g671
I2463
sg672
F0.26169800758361816
sg673
F4.506111145019531e-05
sg674
I1
sg675
I14
sa(dp701
g671
I2116
sg672
F0.43784213066101074
sg673
F0.0001709461212158203
sg674
I1
sg675
I13
sa(dp702
g671
I1763
sg672
F0.22447514533996582
sg673
F6.4849853515625e-05
sg674
I1
sg675
I12
sasS'total_cqs'
p703
I486
ssI59
(dp704
S'iters'
p705
I2
sS'meta'
p706
(lp707
(dp708
S'objective'
p709
I8
sS'query_time'
p710
F0.028393030166625977
sS'comp_time'
p711
F6.699562072753906e-05
sS'exec_cq'
p712
I1
sS'total_cq'
p713
I7
sa(dp714
g709
I4
sg710
F0.04155707359313965
sg711
F7.414817810058594e-05
sg712
I2
sg713
I2
sasS'total_cqs'
p715
I7
ssI60
(dp716
S'iters'
p717
I1
sS'meta'
p718
(lp719
(dp720
S'objective'
p721
I5
sS'query_time'
p722
F0.006382942199707031
sS'comp_time'
p723
F4.506111145019531e-05
sS'exec_cq'
p724
I1
sS'total_cq'
p725
I5
sasS'total_cqs'
p726
I5
ssI61
(dp727
S'iters'
p728
I0
sS'meta'
p729
(lp730
sS'total_cqs'
p731
I1
ssI62
(dp732
S'iters'
p733
I1
sS'meta'
p734
(lp735
(dp736
S'objective'
p737
I58
sS'query_time'
p738
F0.012647151947021484
sS'comp_time'
p739
F4.696846008300781e-05
sS'exec_cq'
p740
I3
sS'total_cq'
p741
I12
sasS'total_cqs'
p742
I12
ssI63
(dp743
S'iters'
p744
I0
sS'meta'
p745
(lp746
sS'total_cqs'
p747
I1
ssI64
(dp748
S'iters'
p749
I4
sS'meta'
p750
(lp751
(dp752
S'objective'
p753
I54
sS'query_time'
p754
F0.1653139591217041
sS'comp_time'
p755
F6.508827209472656e-05
sS'exec_cq'
p756
I1
sS'total_cq'
p757
I12
sa(dp758
g753
I30
sg754
F0.0778799057006836
sg755
F4.100799560546875e-05
sg756
I2
sg757
I11
sa(dp759
g753
I6
sg754
F0.0027370452880859375
sg755
F3.504753112792969e-05
sg756
I1
sg757
I3
sa(dp760
g753
I8
sg754
F0.010559797286987305
sg755
F4.601478576660156e-05
sg756
I1
sg757
I2
sasS'total_cqs'
p761
I12
ssI65
(dp762
S'iters'
p763
I6
sS'meta'
p764
(lp765
(dp766
S'objective'
p767
I324
sS'query_time'
p768
F0.09271001815795898
sS'comp_time'
p769
F7.510185241699219e-05
sS'exec_cq'
p770
I1
sS'total_cq'
p771
I27
sa(dp772
g767
I299
sg768
F0.6535630226135254
sg769
F7.796287536621094e-05
sg770
I1
sg771
I26
sa(dp773
g767
I275
sg768
F0.10370802879333496
sg769
F7.891654968261719e-05
sg770
I1
sg771
I25
sa(dp774
g767
I252
sg768
F0.024981021881103516
sg769
F4.9114227294921875e-05
sg770
I1
sg771
I24
sa(dp775
g767
I158
sg768
F0.018883943557739258
sg769
F4.696846008300781e-05
sg770
I1
sg771
I23
sa(dp776
g767
I173
sg768
F0.024219989776611328
sg769
F4.100799560546875e-05
sg770
I1
sg771
I20
sasS'total_cqs'
p777
I27
ssI66
(dp778
S'iters'
p779
I0
sS'meta'
p780
(lp781
sS'total_cqs'
p782
I1
ssI67
(dp783
S'iters'
p784
I1
sS'meta'
p785
(lp786
(dp787
S'objective'
p788
I574
sS'query_time'
p789
F0.9227550029754639
sS'comp_time'
p790
F8.678436279296875e-05
sS'exec_cq'
p791
I8
sS'total_cq'
p792
I35
sasS'total_cqs'
p793
I35
ssI68
(dp794
S'iters'
p795
I0
sS'meta'
p796
(lp797
sS'total_cqs'
p798
I1
ssI69
(dp799
S'iters'
p800
I1
sS'meta'
p801
(lp802
(dp803
S'objective'
p804
I1246
sS'query_time'
p805
F0.19815707206726074
sS'comp_time'
p806
F9.894371032714844e-05
sS'exec_cq'
p807
I12
sS'total_cq'
p808
I51
sasS'total_cqs'
p809
I51
ssI70
(dp810
S'iters'
p811
I1
sS'meta'
p812
(lp813
(dp814
S'objective'
p815
I9
sS'query_time'
p816
F0.009891986846923828
sS'comp_time'
p817
F4.1961669921875e-05
sS'exec_cq'
p818
I1
sS'total_cq'
p819
I6
sasS'total_cqs'
p820
I6
ssI71
(dp821
S'iters'
p822
I5
sS'meta'
p823
(lp824
(dp825
S'objective'
p826
I3487
sS'query_time'
p827
F0.10713505744934082
sS'comp_time'
p828
F0.00013399124145507812
sS'exec_cq'
p829
I2
sS'total_cq'
p830
I85
sa(dp831
g826
I3211
sg827
F0.11531209945678711
sg828
F0.00010395050048828125
sg829
I2
sg830
I84
sa(dp832
g826
I3093
sg827
F0.0889589786529541
sg828
F0.00011897087097167969
sg829
I5
sg830
I80
sa(dp833
g826
I2960
sg827
F0.08364987373352051
sg828
F0.00010895729064941406
sg829
I16
sg830
I76
sa(dp834
g826
I11
sg827
F0.007477998733520508
sg828
F3.600120544433594e-05
sg829
I2
sg830
I3
sasS'total_cqs'
p835
I85
ssI72
(dp836
S'iters'
p837
I2
sS'meta'
p838
(lp839
(dp840
S'objective'
p841
I20
sS'query_time'
p842
F0.34981298446655273
sS'comp_time'
p843
F7.200241088867188e-05
sS'exec_cq'
p844
I1
sS'total_cq'
p845
I8
sa(dp846
g841
I14
sg842
F0.007241010665893555
sg843
F4.792213439941406e-05
sg844
I1
sg845
I7
sasS'total_cqs'
p847
I8
ssI73
(dp848
S'iters'
p849
I0
sS'meta'
p850
(lp851
sS'total_cqs'
p852
I1
ssI74
(dp853
S'iters'
p854
I0
sS'meta'
p855
(lp856
sS'total_cqs'
p857
I1
ssI75
(dp858
S'iters'
p859
I1
sS'meta'
p860
(lp861
(dp862
S'objective'
p863
I5
sS'query_time'
p864
F0.005535125732421875
sS'comp_time'
p865
F6.222724914550781e-05
sS'exec_cq'
p866
I1
sS'total_cq'
p867
I5
sasS'total_cqs'
p868
I5
ssI76
(dp869
S'iters'
p870
I1
sS'meta'
p871
(lp872
(dp873
S'objective'
p874
I1
sS'query_time'
p875
F0.01101994514465332
sS'comp_time'
p876
F4.9114227294921875e-05
sS'exec_cq'
p877
I1
sS'total_cq'
p878
I2
sasS'total_cqs'
p879
I2
ssI77
(dp880
S'iters'
p881
I0
sS'meta'
p882
(lp883
sS'total_cqs'
p884
I1
ssI78
(dp885
S'iters'
p886
I0
sS'meta'
p887
(lp888
sS'total_cqs'
p889
I1
ssI103
(dp890
S'iters'
p891
I2
sS'meta'
p892
(lp893
(dp894
S'objective'
p895
I56
sS'query_time'
p896
F0.03516578674316406
sS'comp_time'
p897
F7.009506225585938e-05
sS'exec_cq'
p898
I2
sS'total_cq'
p899
I12
sa(dp900
g895
I47
sg896
F0.03451704978942871
sg897
F5.2928924560546875e-05
sg898
I2
sg899
I11
sasS'total_cqs'
p901
I12
ssI104
(dp902
S'iters'
p903
I1
sS'meta'
p904
(lp905
(dp906
S'objective'
p907
I2
sS'query_time'
p908
F1.4338548183441162
sS'comp_time'
p909
F7.987022399902344e-05
sS'exec_cq'
p910
I1
sS'total_cq'
p911
I4
sasS'total_cqs'
p912
I4
ssI105
(dp913
S'iters'
p914
I0
sS'meta'
p915
(lp916
sS'total_cqs'
p917
I1
ssI106
(dp918
S'iters'
p919
I1
sS'meta'
p920
(lp921
(dp922
S'objective'
p923
I2
sS'query_time'
p924
F0.013650894165039062
sS'comp_time'
p925
F4.696846008300781e-05
sS'exec_cq'
p926
I1
sS'total_cq'
p927
I4
sasS'total_cqs'
p928
I4
ssI107
(dp929
S'iters'
p930
I1
sS'meta'
p931
(lp932
(dp933
S'objective'
p934
I110
sS'query_time'
p935
F0.09917306900024414
sS'comp_time'
p936
F6.008148193359375e-05
sS'exec_cq'
p937
I4
sS'total_cq'
p938
I16
sasS'total_cqs'
p939
I16
ssI108
(dp940
S'iters'
p941
I0
sS'meta'
p942
(lp943
sS'total_cqs'
p944
I1
ss.