(dp0
I1
(dp1
S'iters'
p2
I3
sS'meta'
p3
(lp4
(dp5
S'objective'
p6
I46
sS'query_time'
p7
F0.05295109748840332
sS'comp_time'
p8
F0.00023889541625976562
sS'exec_cq'
p9
I12
sS'total_cq'
p10
I12
sa(dp11
g6
I38
sg7
F5.1975250244140625e-05
sg8
F7.295608520507812e-05
sg9
I10
sg10
I10
sa(dp12
g6
I36
sg7
F3.814697265625e-05
sg8
F6.103515625e-05
sg9
I9
sg10
I9
sasS'total_cqs'
p13
I12
ssI2
(dp14
S'iters'
p15
I5
sS'meta'
p16
(lp17
(dp18
S'objective'
p19
I250
sS'query_time'
p20
F0.1402721405029297
sS'comp_time'
p21
F0.0013270378112792969
sS'exec_cq'
p22
I27
sS'total_cq'
p23
I27
sa(dp24
g19
I200
sg20
F0.0001761913299560547
sg21
F0.0006458759307861328
sg22
I24
sg23
I24
sa(dp25
g19
I195
sg20
F0.00012302398681640625
sg21
F0.0003097057342529297
sg22
I21
sg23
I21
sa(dp26
g19
I170
sg20
F0.00010895729064941406
sg21
F0.00045490264892578125
sg22
I19
sg23
I19
sa(dp27
g19
I168
sg20
F0.00010395050048828125
sg21
F0.00029015541076660156
sg22
I17
sg23
I17
sasS'total_cqs'
p28
I27
ssI3
(dp29
S'iters'
p30
I3
sS'meta'
p31
(lp32
(dp33
S'objective'
p34
I288
sS'query_time'
p35
F159.05165004730225
sS'comp_time'
p36
F1.384507179260254
sS'exec_cq'
p37
I43
sS'total_cq'
p38
I43
sa(dp39
g34
I117
sg35
F0.055021047592163086
sg36
F0.5339381694793701
sg37
I29
sg38
I29
sa(dp40
g34
I204
sg35
F0.174285888671875
sg36
F0.3213839530944824
sg37
I13
sg38
I13
sasS'total_cqs'
p41
I43
ssI4
(dp42
S'iters'
p43
I2
sS'meta'
p44
(lp45
(dp46
S'objective'
p47
I32
sS'query_time'
p48
F4.032299041748047
sS'comp_time'
p49
F0.3577728271484375
sS'exec_cq'
p50
I11
sS'total_cq'
p51
I11
sa(dp52
g47
I3
sg48
F0.10346293449401855
sg49
F0.36669111251831055
sg50
I2
sg51
I2
sasS'total_cqs'
p53
I11
ssI5
(dp54
S'iters'
p55
I3
sS'meta'
p56
(lp57
(dp58
S'objective'
p59
I0
sS'query_time'
p60
F27.927247047424316
sS'comp_time'
p61
F2.22356915473938
sS'exec_cq'
p62
I8
sS'total_cq'
p63
I8
sa(dp64
g59
I4
sg60
F0.4274280071258545
sg61
F1.9477272033691406
sg62
I3
sg63
I3
sa(dp65
g59
I1
sg60
F0.43114590644836426
sg61
F1.4655120372772217
sg62
I2
sg63
I2
sasS'total_cqs'
p66
I8
ssI6
(dp67
S'iters'
p68
I4
sS'meta'
p69
(lp70
(dp71
S'objective'
p72
I1
sS'query_time'
p73
F29.974589109420776
sS'comp_time'
p74
F2.123027801513672
sS'exec_cq'
p75
I18
sS'total_cq'
p76
I18
sa(dp77
g72
I0
sg73
F0.5260009765625
sg74
F2.082066297531128
sg75
I6
sg76
I6
sa(dp78
g72
I9
sg73
F0.01759791374206543
sg74
F0.07092976570129395
sg75
I3
sg76
I3
sa(dp79
g72
I6
sg73
F0.009711980819702148
sg74
F0.1691269874572754
sg75
I2
sg76
I2
sasS'total_cqs'
p80
I18
ssI7
(dp81
S'iters'
p82
I3
sS'meta'
p83
(lp84
(dp85
S'objective'
p86
I1
sS'query_time'
p87
F10.042758226394653
sS'comp_time'
p88
F0.8645870685577393
sS'exec_cq'
p89
I9
sS'total_cq'
p90
I9
sa(dp91
g86
I0
sg87
F0.008749961853027344
sg88
F0.03961992263793945
sg89
I5
sg90
I5
sa(dp92
g86
I1
sg87
F0.002268075942993164
sg88
F0.07997703552246094
sg89
I2
sg90
I2
sasS'total_cqs'
p93
I9
ssI8
(dp94
S'iters'
p95
I3
sS'meta'
p96
(lp97
(dp98
S'objective'
p99
I232
sS'query_time'
p100
F0.13907098770141602
sS'comp_time'
p101
F0.0012311935424804688
sS'exec_cq'
p102
I27
sS'total_cq'
p103
I27
sa(dp104
g99
I199
sg100
F0.000186920166015625
sg101
F0.00046181678771972656
sg102
I24
sg103
I24
sa(dp105
g99
I222
sg100
F6.699562072753906e-05
sg101
F0.00010204315185546875
sg102
I19
sg103
I19
sasS'total_cqs'
p106
I27
ssI9
(dp107
S'iters'
p108
I3
sS'meta'
p109
(lp110
(dp111
S'objective'
p112
I4
sS'query_time'
p113
F0.0703878402709961
sS'comp_time'
p114
F0.0002830028533935547
sS'exec_cq'
p115
I7
sS'total_cq'
p116
I7
sa(dp117
g112
I0
sg113
F3.4809112548828125e-05
sg114
F8.7738037109375e-05
sg115
I4
sg116
I4
sa(dp118
g112
I2
sg113
F0.003482818603515625
sg114
F6.508827209472656e-05
sg115
I2
sg116
I2
sasS'total_cqs'
p119
I7
ssI10
(dp120
S'iters'
p121
I6
sS'meta'
p122
(lp123
(dp124
S'objective'
p125
I460
sS'query_time'
p126
F0.4439091682434082
sS'comp_time'
p127
F0.006764888763427734
sS'exec_cq'
p128
I51
sS'total_cq'
p129
I51
sa(dp130
g125
I275
sg126
F0.00038909912109375
sg127
F0.0013060569763183594
sg128
I37
sg129
I37
sa(dp131
g125
I3
sg126
F0.0024988651275634766
sg127
F0.00047516822814941406
sg128
I12
sg129
I12
sa(dp132
g125
I22
sg126
F7.700920104980469e-05
sg127
F0.0001628398895263672
sg128
I7
sg129
I7
sa(dp133
g125
I5
sg126
F2.8133392333984375e-05
sg127
F7.605552673339844e-05
sg128
I4
sg129
I4
sa(dp134
g125
I12
sg126
F1.6927719116210938e-05
sg127
F5.316734313964844e-05
sg128
I2
sg129
I2
sasS'total_cqs'
p135
I51
ssI11
(dp136
S'iters'
p137
I7
sS'meta'
p138
(lp139
(dp140
S'objective'
p141
I1060
sS'query_time'
p142
F0.6362659931182861
sS'comp_time'
p143
F0.014929771423339844
sS'exec_cq'
p144
I63
sS'total_cq'
p145
I63
sa(dp146
g141
I1042
sg142
F0.0009140968322753906
sg143
F0.003499746322631836
sg144
I47
sg145
I47
sa(dp147
g141
I1080
sg142
F0.00044989585876464844
sg143
F0.002379894256591797
sg144
I40
sg145
I40
sa(dp148
g141
I989
sg142
F0.00043582916259765625
sg143
F0.002299070358276367
sg144
I38
sg145
I38
sa(dp149
g141
I909
sg142
F0.00034618377685546875
sg143
F0.0017151832580566406
sg144
I33
sg145
I33
sa(dp150
g141
I838
sg142
F0.00034689903259277344
sg143
F0.001703023910522461
sg144
I31
sg145
I31
sa(dp151
g141
I14
sg142
F0.0014410018920898438
sg143
F8.082389831542969e-05
sg144
I5
sg145
I5
sasS'total_cqs'
p152
I63
ssI12
(dp153
S'iters'
p154
I5
sS'meta'
p155
(lp156
(dp157
S'objective'
p158
I547
sS'query_time'
p159
F0.4377021789550781
sS'comp_time'
p160
F0.006755828857421875
sS'exec_cq'
p161
I50
sS'total_cq'
p162
I50
sa(dp163
g158
I401
sg159
F0.0004341602325439453
sg160
F0.0015749931335449219
sg161
I33
sg162
I33
sa(dp164
g158
I59
sg159
F0.0013301372528076172
sg160
F0.0011632442474365234
sg161
I8
sg162
I8
sa(dp165
g158
I15
sg159
F7.796287536621094e-05
sg160
F0.0003409385681152344
sg161
I5
sg162
I5
sa(dp166
g158
I19
sg159
F1.6927719116210938e-05
sg160
F5.698204040527344e-05
sg161
I2
sg162
I2
sasS'total_cqs'
p167
I50
ssI13
(dp168
S'iters'
p169
I5
sS'meta'
p170
(lp171
(dp172
S'objective'
p173
I22
sS'query_time'
p174
F0.2225358486175537
sS'comp_time'
p175
F0.0004189014434814453
sS'exec_cq'
p176
I20
sS'total_cq'
p177
I20
sa(dp178
g173
I4
sg174
F0.001291036605834961
sg175
F0.0002551078796386719
sg176
I11
sg177
I11
sa(dp179
g173
I6
sg174
F3.981590270996094e-05
sg175
F9.989738464355469e-05
sg176
I6
sg177
I6
sa(dp180
g173
I1
sg174
F2.9087066650390625e-05
sg175
F8.606910705566406e-05
sg176
I4
sg177
I4
sa(dp181
g173
I6
sg174
F2.002716064453125e-05
sg175
F6.175041198730469e-05
sg176
I3
sg177
I3
sasS'total_cqs'
p182
I20
ssI14
(dp183
S'iters'
p184
I3
sS'meta'
p185
(lp186
(dp187
S'objective'
p188
I1
sS'query_time'
p189
F27.61223602294922
sS'comp_time'
p190
F0.9217379093170166
sS'exec_cq'
p191
I9
sS'total_cq'
p192
I9
sa(dp193
g188
I1
sg189
F0.005330801010131836
sg190
F0.024837017059326172
sg191
I4
sg192
I4
sa(dp194
g188
I1
sg189
F0.0056629180908203125
sg190
F0.09494972229003906
sg191
I2
sg192
I2
sasS'total_cqs'
p195
I9
ssI15
(dp196
S'iters'
p197
I4
sS'meta'
p198
(lp199
(dp200
S'objective'
p201
I0
sS'query_time'
p202
F3.11867618560791
sS'comp_time'
p203
F0.23523569107055664
sS'exec_cq'
p204
I11
sS'total_cq'
p205
I11
sa(dp206
g201
I1
sg202
F0.029844045639038086
sg203
F0.13069605827331543
sg204
I5
sg205
I5
sa(dp207
g201
I1
sg202
F0.008028030395507812
sg203
F0.05945992469787598
sg204
I3
sg205
I3
sa(dp208
g201
I5
sg202
F0.006402015686035156
sg203
F0.03412485122680664
sg204
I2
sg205
I2
sasS'total_cqs'
p209
I11
ssI16
(dp210
S'iters'
p211
I1
sS'meta'
p212
(lp213
(dp214
S'objective'
p215
I26
sS'query_time'
p216
F0.01788020133972168
sS'comp_time'
p217
F0.00012803077697753906
sS'exec_cq'
p218
I8
sS'total_cq'
p219
I8
sasS'total_cqs'
p220
I8
ssI17
(dp221
S'iters'
p222
I3
sS'meta'
p223
(lp224
(dp225
S'objective'
p226
I10
sS'query_time'
p227
F0.941162109375
sS'comp_time'
p228
F0.016908884048461914
sS'exec_cq'
p229
I11
sS'total_cq'
p230
I11
sa(dp231
g226
I0
sg227
F0.005393028259277344
sg228
F0.017154932022094727
sg229
I7
sg230
I7
sa(dp232
g226
I0
sg227
F0.0028879642486572266
sg228
F0.010017871856689453
sg229
I3
sg230
I3
sasS'total_cqs'
p233
I11
ssI18
(dp234
S'iters'
p235
I3
sS'meta'
p236
(lp237
(dp238
S'objective'
p239
I16
sS'query_time'
p240
F0.29018592834472656
sS'comp_time'
p241
F0.00453495979309082
sS'exec_cq'
p242
I11
sS'total_cq'
p243
I11
sa(dp244
g239
I23
sg240
F0.00023603439331054688
sg241
F0.0012218952178955078
sg242
I8
sg243
I8
sa(dp245
g239
I18
sg240
F0.00019216537475585938
sg241
F0.0009360313415527344
sg242
I7
sg243
I7
sasS'total_cqs'
p246
I11
ssI19
(dp247
S'iters'
p248
I0
sS'meta'
p249
(lp250
sS'total_cqs'
p251
I1
ssI20
(dp252
S'iters'
p253
I0
sS'meta'
p254
(lp255
sS'total_cqs'
p256
I1
ssI21
(dp257
S'iters'
p258
I0
sS'meta'
p259
(lp260
sS'total_cqs'
p261
I1
ssI22
(dp262
S'iters'
p263
I1
sS'meta'
p264
(lp265
(dp266
S'objective'
p267
I151
sS'query_time'
p268
F0.10337495803833008
sS'comp_time'
p269
F0.0002040863037109375
sS'exec_cq'
p270
I18
sS'total_cq'
p271
I18
sasS'total_cqs'
p272
I18
ssI23
(dp273
S'iters'
p274
I2
sS'meta'
p275
(lp276
(dp277
S'objective'
p278
I82
sS'query_time'
p279
F0.1127309799194336
sS'comp_time'
p280
F0.0004992485046386719
sS'exec_cq'
p281
I16
sS'total_cq'
p282
I16
sa(dp283
g278
I91
sg279
F8.416175842285156e-05
sg280
F0.00023889541625976562
sg281
I14
sg282
I14
sasS'total_cqs'
p284
I16
ssI24
(dp285
S'iters'
p286
I0
sS'meta'
p287
(lp288
sS'total_cqs'
p289
I1
ssI25
(dp290
S'iters'
p291
I0
sS'meta'
p292
(lp293
sS'total_cqs'
p294
I1
ssI26
(dp295
S'iters'
p296
I1
sS'meta'
p297
(lp298
(dp299
S'objective'
p300
I859
sS'query_time'
p301
F0.19957995414733887
sS'comp_time'
p302
F0.00020003318786621094
sS'exec_cq'
p303
I42
sS'total_cq'
p304
I42
sasS'total_cqs'
p305
I42
ssI27
(dp306
S'iters'
p307
I3
sS'meta'
p308
(lp309
(dp310
S'objective'
p311
I281
sS'query_time'
p312
F17.505819082260132
sS'comp_time'
p313
F2.0944719314575195
sS'exec_cq'
p314
I30
sS'total_cq'
p315
I30
sa(dp316
g311
I2
sg312
F0.4446291923522949
sg313
F2.3752551078796387
sg314
I5
sg315
I5
sa(dp317
g311
I13
sg312
F0.011127948760986328
sg313
F0.04920840263366699
sg314
I2
sg315
I2
sasS'total_cqs'
p318
I30
ssI28
(dp319
S'iters'
p320
I0
sS'meta'
p321
(lp322
sS'total_cqs'
p323
I1
ssI29
(dp324
S'iters'
p325
I5
sS'meta'
p326
(lp327
(dp328
S'objective'
p329
I353
sS'query_time'
p330
F135.65934300422668
sS'comp_time'
p331
F13.397709131240845
sS'exec_cq'
p332
I49
sS'total_cq'
p333
I49
sa(dp334
g329
I8
sg330
F0.021177053451538086
sg331
F0.0468449592590332
sg332
I17
sg333
I17
sa(dp335
g329
I2
sg330
F0.6024229526519775
sg331
F0.05249595642089844
sg332
I9
sg333
I9
sa(dp336
g329
I10
sg330
F0.005999088287353516
sg331
F0.026020288467407227
sg332
I5
sg333
I5
sa(dp337
g329
I3
sg330
F0.0009059906005859375
sg331
F0.003787994384765625
sg332
I2
sg333
I2
sasS'total_cqs'
p338
I49
ssI30
(dp339
S'iters'
p340
I1
sS'meta'
p341
(lp342
(dp343
S'objective'
p344
I1
sS'query_time'
p345
F0.722693920135498
sS'comp_time'
p346
F0.028692007064819336
sS'exec_cq'
p347
I2
sS'total_cq'
p348
I2
sasS'total_cqs'
p349
I2
ssI31
(dp350
S'iters'
p351
I0
sS'meta'
p352
(lp353
sS'total_cqs'
p354
I1
ssI32
(dp355
S'iters'
p356
I1
sS'meta'
p357
(lp358
(dp359
S'objective'
p360
I1
sS'query_time'
p361
F0.008781909942626953
sS'comp_time'
p362
F0.0002429485321044922
sS'exec_cq'
p363
I2
sS'total_cq'
p364
I2
sasS'total_cqs'
p365
I2
ssI33
(dp366
S'iters'
p367
I5
sS'meta'
p368
(lp369
(dp370
S'objective'
p371
I3340
sS'query_time'
p372
F14.50974702835083
sS'comp_time'
p373
F0.12293791770935059
sS'exec_cq'
p374
I103
sS'total_cq'
p375
I103
sa(dp376
g371
I4
sg372
F0.008419990539550781
sg373
F0.05177807807922363
sg374
I16
sg375
I16
sa(dp377
g371
I40
sg372
F0.0034911632537841797
sg373
F0.013831853866577148
sg374
I9
sg375
I9
sa(dp378
g371
I11
sg372
F0.001583099365234375
sg373
F0.006722927093505859
sg374
I5
sg375
I5
sa(dp379
g371
I16
sg372
F0.00029397010803222656
sg373
F0.0019919872283935547
sg374
I2
sg375
I2
sasS'total_cqs'
p380
I103
ssI34
(dp381
S'iters'
p382
I1
sS'meta'
p383
(lp384
(dp385
S'objective'
p386
I1
sS'query_time'
p387
F0.01975083351135254
sS'comp_time'
p388
F0.0004000663757324219
sS'exec_cq'
p389
I2
sS'total_cq'
p390
I2
sasS'total_cqs'
p391
I2
ssI35
(dp392
S'iters'
p393
I9
sS'meta'
p394
(lp395
(dp396
S'objective'
p397
I2293
sS'query_time'
p398
F45.991190910339355
sS'comp_time'
p399
F3.6592910289764404
sS'exec_cq'
p400
I70
sS'total_cq'
p401
I70
sa(dp402
g397
I2289
sg398
F0.7042670249938965
sg399
F3.312605142593384
sg400
I67
sg401
I67
sa(dp403
g397
I2277
sg398
F0.0005829334259033203
sg399
F0.04451179504394531
sg400
I66
sg401
I66
sa(dp404
g397
I2280
sg398
F0.00047016143798828125
sg399
F0.05590200424194336
sg400
I65
sg401
I65
sa(dp405
g397
I2276
sg398
F0.0006239414215087891
sg399
F0.06519508361816406
sg400
I64
sg401
I64
sa(dp406
g397
I2275
sg398
F0.0006239414215087891
sg399
F0.04675889015197754
sg400
I63
sg401
I63
sa(dp407
g397
I1980
sg398
F0.2706127166748047
sg399
F0.2438342571258545
sg400
I62
sg401
I62
sa(dp408
g397
I10
sg398
F0.0513300895690918
sg399
F0.042726993560791016
sg400
I4
sg401
I4
sa(dp409
g397
I8
sg398
F0.35912299156188965
sg399
F0.0411529541015625
sg400
I3
sg401
I3
sasS'total_cqs'
p410
I70
ssI36
(dp411
S'iters'
p412
I3
sS'meta'
p413
(lp414
(dp415
S'objective'
p416
I397
sS'query_time'
p417
F0.8370168209075928
sS'comp_time'
p418
F0.025402069091796875
sS'exec_cq'
p419
I33
sS'total_cq'
p420
I33
sa(dp421
g416
I381
sg417
F0.002382040023803711
sg418
F0.010639190673828125
sg419
I29
sg420
I29
sa(dp422
g416
I394
sg417
F0.0014538764953613281
sg418
F0.007360935211181641
sg419
I25
sg420
I25
sasS'total_cqs'
p423
I33
ssI37
(dp424
S'iters'
p425
I1
sS'meta'
p426
(lp427
(dp428
S'objective'
p429
I1
sS'query_time'
p430
F0.01178288459777832
sS'comp_time'
p431
F0.0002791881561279297
sS'exec_cq'
p432
I2
sS'total_cq'
p433
I2
sasS'total_cqs'
p434
I2
ssI38
(dp435
S'iters'
p436
I2
sS'meta'
p437
(lp438
(dp439
S'objective'
p440
I0
sS'query_time'
p441
F0.024281978607177734
sS'comp_time'
p442
F0.0005321502685546875
sS'exec_cq'
p443
I4
sS'total_cq'
p444
I4
sa(dp445
g440
I1
sg441
F8.106231689453125e-05
sg442
F0.00031304359436035156
sg443
I2
sg444
I2
sasS'total_cqs'
p446
I4
ssI39
(dp447
S'iters'
p448
I2
sS'meta'
p449
(lp450
(dp451
S'objective'
p452
I730
sS'query_time'
p453
F0.23887419700622559
sS'comp_time'
p454
F0.0015339851379394531
sS'exec_cq'
p455
I44
sS'total_cq'
p456
I44
sa(dp457
g452
I814
sg453
F0.0003979206085205078
sg454
F0.001325368881225586
sg455
I37
sg456
I37
sasS'total_cqs'
p458
I44
ssI40
(dp459
S'iters'
p460
I1
sS'meta'
p461
(lp462
(dp463
S'objective'
p464
I18
sS'query_time'
p465
F0.05161595344543457
sS'comp_time'
p466
F9.584426879882812e-05
sS'exec_cq'
p467
I7
sS'total_cq'
p468
I7
sasS'total_cqs'
p469
I7
ssI41
(dp470
S'iters'
p471
I1
sS'meta'
p472
(lp473
(dp474
S'objective'
p475
I64
sS'query_time'
p476
F0.09802484512329102
sS'comp_time'
p477
F0.00012111663818359375
sS'exec_cq'
p478
I12
sS'total_cq'
p479
I12
sasS'total_cqs'
p480
I12
ssI42
(dp481
S'iters'
p482
I3
sS'meta'
p483
(lp484
(dp485
S'objective'
p486
I789
sS'query_time'
p487
F0.1262369155883789
sS'comp_time'
p488
F0.0002079010009765625
sS'exec_cq'
p489
I41
sS'total_cq'
p490
I41
sa(dp491
g486
I765
sg487
F0.0001761913299560547
sg488
F0.00011706352233886719
sg489
I40
sg490
I40
sa(dp492
g486
I751
sg487
F0.00014400482177734375
sg488
F0.00010895729064941406
sg489
I39
sg490
I39
sasS'total_cqs'
p493
I41
ssI43
(dp494
S'iters'
p495
I1
sS'meta'
p496
(lp497
(dp498
S'objective'
p499
I18
sS'query_time'
p500
F0.037168025970458984
sS'comp_time'
p501
F0.00012803077697753906
sS'exec_cq'
p502
I7
sS'total_cq'
p503
I7
sasS'total_cqs'
p504
I7
ssI44
(dp505
S'iters'
p506
I4
sS'meta'
p507
(lp508
(dp509
S'objective'
p510
I796
sS'query_time'
p511
F0.19240093231201172
sS'comp_time'
p512
F0.0010638236999511719
sS'exec_cq'
p513
I47
sS'total_cq'
p514
I47
sa(dp515
g510
I736
sg511
F0.0003368854522705078
sg512
F0.004772186279296875
sg513
I40
sg514
I40
sa(dp516
g510
I23
sg511
F0.0017521381378173828
sg512
F0.000720977783203125
sg513
I3
sg514
I3
sa(dp517
g510
I18
sg511
F2.5987625122070312e-05
sg512
F9.489059448242188e-05
sg513
I2
sg514
I2
sasS'total_cqs'
p518
I47
ssI45
(dp519
S'iters'
p520
I0
sS'meta'
p521
(lp522
sS'total_cqs'
p523
I1
ssI46
(dp524
S'iters'
p525
I2
sS'meta'
p526
(lp527
(dp528
S'objective'
p529
I9
sS'query_time'
p530
F0.020019054412841797
sS'comp_time'
p531
F0.0002789497375488281
sS'exec_cq'
p532
I6
sS'total_cq'
p533
I6
sa(dp534
g529
I7
sg530
F3.814697265625e-05
sg531
F5.888938903808594e-05
sg532
I5
sg533
I5
sasS'total_cqs'
p535
I6
ssI47
(dp536
S'iters'
p537
I1
sS'meta'
p538
(lp539
(dp540
S'objective'
p541
I1
sS'query_time'
p542
F0.01154184341430664
sS'comp_time'
p543
F0.00026726722717285156
sS'exec_cq'
p544
I2
sS'total_cq'
p545
I2
sasS'total_cqs'
p546
I2
ssI48
(dp547
S'iters'
p548
I0
sS'meta'
p549
(lp550
sS'total_cqs'
p551
I1
ssI49
(dp552
S'iters'
p553
I0
sS'meta'
p554
(lp555
sS'total_cqs'
p556
I1
ssI50
(dp557
S'iters'
p558
I2
sS'meta'
p559
(lp560
(dp561
S'objective'
p562
I5
sS'query_time'
p563
F0.018291950225830078
sS'comp_time'
p564
F0.00015592575073242188
sS'exec_cq'
p565
I5
sS'total_cq'
p566
I5
sa(dp567
g562
I2
sg563
F3.695487976074219e-05
sg564
F0.00010895729064941406
sg565
I4
sg566
I4
sasS'total_cqs'
p568
I5
ssI51
(dp569
S'iters'
p570
I1
sS'meta'
p571
(lp572
(dp573
S'objective'
p574
I1
sS'query_time'
p575
F0.010270118713378906
sS'comp_time'
p576
F0.00019216537475585938
sS'exec_cq'
p577
I2
sS'total_cq'
p578
I2
sasS'total_cqs'
p579
I2
ssI52
(dp580
S'iters'
p581
I1
sS'meta'
p582
(lp583
(dp584
S'objective'
p585
I1
sS'query_time'
p586
F0.009802818298339844
sS'comp_time'
p587
F0.000186920166015625
sS'exec_cq'
p588
I2
sS'total_cq'
p589
I2
sasS'total_cqs'
p590
I2
ssI53
(dp591
S'iters'
p592
I2
sS'meta'
p593
(lp594
(dp595
S'objective'
p596
I2
sS'query_time'
p597
F0.023941993713378906
sS'comp_time'
p598
F0.0006070137023925781
sS'exec_cq'
p599
I4
sS'total_cq'
p600
I4
sa(dp601
g596
I0
sg597
F7.390975952148438e-05
sg598
F0.00035119056701660156
sg599
I3
sg600
I3
sasS'total_cqs'
p602
I4
ssI54
(dp603
S'iters'
p604
I1
sS'meta'
p605
(lp606
(dp607
S'objective'
p608
I0
sS'query_time'
p609
F0.011922121047973633
sS'comp_time'
p610
F0.00025916099548339844
sS'exec_cq'
p611
I3
sS'total_cq'
p612
I3
sasS'total_cqs'
p613
I3
ssI55
(dp614
S'iters'
p615
I9
sS'meta'
p616
(lp617
(dp618
S'objective'
p619
I4689
sS'query_time'
p620
F2.3876190185546875
sS'comp_time'
p621
F0.030697107315063477
sS'exec_cq'
p622
I109
sS'total_cq'
p623
I109
sa(dp624
g619
I4822
sg620
F0.0006680488586425781
sg621
F0.00156402587890625
sg622
I97
sg623
I97
sa(dp625
g619
I4696
sg620
F0.00030303001403808594
sg621
F0.0007598400115966797
sg622
I91
sg623
I91
sa(dp626
g619
I4559
sg620
F0.0002689361572265625
sg621
F0.0007350444793701172
sg622
I87
sg623
I87
sa(dp627
g619
I4470
sg620
F0.00029921531677246094
sg621
F0.0008020401000976562
sg622
I85
sg623
I85
sa(dp628
g619
I4391
sg620
F0.00024008750915527344
sg621
F0.0005629062652587891
sg622
I83
sg623
I83
sa(dp629
g619
I4362
sg620
F0.0002448558807373047
sg621
F0.0005311965942382812
sg622
I82
sg623
I82
sa(dp630
g619
I4304
sg620
F0.00023317337036132812
sg621
F0.00040078163146972656
sg622
I80
sg623
I80
sa(dp631
g619
I4254
sg620
F0.0002288818359375
sg621
F0.00034618377685546875
sg622
I79
sg623
I79
sasS'total_cqs'
p632
I109
ssI56
(dp633
S'iters'
p634
I6
sS'meta'
p635
(lp636
(dp637
S'objective'
p638
I1684
sS'query_time'
p639
F3.371474027633667
sS'comp_time'
p640
F0.14577412605285645
sS'exec_cq'
p641
I76
sS'total_cq'
p642
I76
sa(dp643
g638
I27
sg639
F0.005258083343505859
sg640
F0.009785890579223633
sg641
I16
sg642
I16
sa(dp644
g638
I7
sg639
F0.0034961700439453125
sg640
F0.008067846298217773
sg641
I10
sg642
I10
sa(dp645
g638
I17
sg639
F0.0018467903137207031
sg640
F0.006579160690307617
sg641
I6
sg642
I6
sa(dp646
g638
I1
sg639
F0.0006880760192871094
sg640
F0.004110097885131836
sg641
I3
sg642
I3
sa(dp647
g638
I37
sg639
F0.00011396408081054688
sg640
F0.0006361007690429688
sg641
I2
sg642
I2
sasS'total_cqs'
p648
I76
ssI57
(dp649
S'iters'
p650
I6
sS'meta'
p651
(lp652
(dp653
S'objective'
p654
I90
sS'query_time'
p655
F69.59587788581848
sS'comp_time'
p656
F3.7648768424987793
sS'exec_cq'
p657
I51
sS'total_cq'
p658
I51
sa(dp659
g654
I2
sg655
F0.013402938842773438
sg656
F0.0272219181060791
sg657
I27
sg658
I27
sa(dp660
g654
I8
sg655
F0.011096000671386719
sg656
F0.22019195556640625
sg657
I12
sg658
I12
sa(dp661
g654
I1
sg655
F0.0060291290283203125
sg656
F0.015070199966430664
sg657
I7
sg658
I7
sa(dp662
g654
I0
sg655
F0.005021095275878906
sg656
F0.014401912689208984
sg657
I5
sg658
I5
sa(dp663
g654
I14
sg655
F0.0015041828155517578
sg656
F0.009193897247314453
sg657
I2
sg658
I2
sasS'total_cqs'
p664
I51
ssI58
(dp665
S'iters'
p666
I7
sS'meta'
p667
(lp668
(dp669
S'objective'
p670
I85983
sS'query_time'
p671
F293.7555820941925
sS'comp_time'
p672
F16.859915733337402
sS'exec_cq'
p673
I486
sS'total_cq'
p674
I486
sa(dp675
g670
I9413
sg671
F0.03539109230041504
sg672
F0.1745917797088623
sg673
I64
sg674
I64
sa(dp676
g670
I2976
sg671
F0.031642913818359375
sg672
F0.9275896549224854
sg673
I52
sg674
I52
sa(dp677
g670
I3174
sg671
F0.014933109283447266
sg672
F0.07647371292114258
sg673
I32
sg674
I32
sa(dp678
g670
I16
sg671
F0.009093999862670898
sg672
F0.37655210494995117
sg673
I10
sg674
I10
sa(dp679
g670
I16
sg671
F0.004045963287353516
sg672
F0.009917020797729492
sg673
I4
sg674
I4
sa(dp680
g670
I89
sg671
F0.0007300376892089844
sg672
F0.004185914993286133
sg673
I2
sg674
I2
sasS'total_cqs'
p681
I486
ssI59
(dp682
S'iters'
p683
I2
sS'meta'
p684
(lp685
(dp686
S'objective'
p687
I12
sS'query_time'
p688
F0.05719494819641113
sS'comp_time'
p689
F0.001188039779663086
sS'exec_cq'
p690
I7
sS'total_cq'
p691
I7
sa(dp692
g687
I2
sg688
F0.0001609325408935547
sg689
F0.0008630752563476562
sg690
I2
sg691
I2
sasS'total_cqs'
p693
I7
ssI60
(dp694
S'iters'
p695
I1
sS'meta'
p696
(lp697
(dp698
S'objective'
p699
I7
sS'query_time'
p700
F0.034564971923828125
sS'comp_time'
p701
F0.0003559589385986328
sS'exec_cq'
p702
I5
sS'total_cq'
p703
I5
sasS'total_cqs'
p704
I5
ssI61
(dp705
S'iters'
p706
I0
sS'meta'
p707
(lp708
sS'total_cqs'
p709
I1
ssI62
(dp710
S'iters'
p711
I2
sS'meta'
p712
(lp713
(dp714
S'objective'
p715
I48
sS'query_time'
p716
F0.05061221122741699
sS'comp_time'
p717
F0.00022602081298828125
sS'exec_cq'
p718
I12
sS'total_cq'
p719
I12
sa(dp720
g715
I49
sg716
F5.3882598876953125e-05
sg717
F7.677078247070312e-05
sg718
I9
sg719
I9
sasS'total_cqs'
p721
I12
ssI63
(dp722
S'iters'
p723
I0
sS'meta'
p724
(lp725
sS'total_cqs'
p726
I1
ssI64
(dp727
S'iters'
p728
I3
sS'meta'
p729
(lp730
(dp731
S'objective'
p732
I30
sS'query_time'
p733
F0.1635439395904541
sS'comp_time'
p734
F0.003228902816772461
sS'exec_cq'
p735
I12
sS'total_cq'
p736
I12
sa(dp737
g732
I0
sg733
F0.00018596649169921875
sg734
F0.0008537769317626953
sg735
I4
sg736
I4
sa(dp738
g732
I2
sg733
F0.000102996826171875
sg734
F0.0005748271942138672
sg735
I2
sg736
I2
sasS'total_cqs'
p739
I12
ssI65
(dp740
S'iters'
p741
I4
sS'meta'
p742
(lp743
(dp744
S'objective'
p745
I190
sS'query_time'
p746
F0.8801729679107666
sS'comp_time'
p747
F0.045510053634643555
sS'exec_cq'
p748
I27
sS'total_cq'
p749
I27
sa(dp750
g745
I2
sg746
F0.001645803451538086
sg747
F0.005308866500854492
sg748
I7
sg749
I7
sa(dp751
g745
I10
sg746
F0.0008270740509033203
sg747
F0.0038051605224609375
sg748
I5
sg749
I5
sa(dp752
g745
I12
sg746
F0.0002799034118652344
sg747
F0.0018351078033447266
sg748
I2
sg749
I2
sasS'total_cqs'
p753
I27
ssI66
(dp754
S'iters'
p755
I0
sS'meta'
p756
(lp757
sS'total_cqs'
p758
I1
ssI67
(dp759
S'iters'
p760
I2
sS'meta'
p761
(lp762
(dp763
S'objective'
p764
I522
sS'query_time'
p765
F1.3979840278625488
sS'comp_time'
p766
F0.007720232009887695
sS'exec_cq'
p767
I35
sS'total_cq'
p768
I35
sa(dp769
g764
I16
sg765
F0.0013201236724853516
sg766
F0.006387948989868164
sg767
I2
sg768
I2
sasS'total_cqs'
p770
I35
ssI68
(dp771
S'iters'
p772
I0
sS'meta'
p773
(lp774
sS'total_cqs'
p775
I1
ssI69
(dp776
S'iters'
p777
I1
sS'meta'
p778
(lp779
(dp780
S'objective'
p781
I1272
sS'query_time'
p782
F0.23528313636779785
sS'comp_time'
p783
F0.00021195411682128906
sS'exec_cq'
p784
I51
sS'total_cq'
p785
I51
sasS'total_cqs'
p786
I51
ssI70
(dp787
S'iters'
p788
I1
sS'meta'
p789
(lp790
(dp791
S'objective'
p792
I13
sS'query_time'
p793
F0.026961088180541992
sS'comp_time'
p794
F0.00026488304138183594
sS'exec_cq'
p795
I6
sS'total_cq'
p796
I6
sasS'total_cqs'
p797
I6
ssI71
(dp798
S'iters'
p799
I4
sS'meta'
p800
(lp801
(dp802
S'objective'
p803
I3171
sS'query_time'
p804
F0.37488603591918945
sS'comp_time'
p805
F0.0008451938629150391
sS'exec_cq'
p806
I85
sS'total_cq'
p807
I85
sa(dp808
g803
I3105
sg804
F0.00034999847412109375
sg805
F0.0009429454803466797
sg806
I82
sg807
I82
sa(dp809
g803
I50
sg804
F0.0021729469299316406
sg805
F0.0002512931823730469
sg806
I3
sg807
I3
sa(dp810
g803
I14
sg804
F0.006880998611450195
sg805
F0.00015211105346679688
sg806
I2
sg807
I2
sasS'total_cqs'
p811
I85
ssI72
(dp812
S'iters'
p813
I3
sS'meta'
p814
(lp815
(dp816
S'objective'
p817
I8
sS'query_time'
p818
F0.40012383460998535
sS'comp_time'
p819
F0.0022172927856445312
sS'exec_cq'
p820
I8
sS'total_cq'
p821
I8
sa(dp822
g817
I4
sg818
F7.82012939453125e-05
sg819
F0.00023508071899414062
sg820
I5
sg821
I5
sa(dp823
g817
I3
sg818
F5.698204040527344e-05
sg819
F0.00020813941955566406
sg820
I3
sg821
I3
sasS'total_cqs'
p824
I8
ssI73
(dp825
S'iters'
p826
I0
sS'meta'
p827
(lp828
sS'total_cqs'
p829
I1
ssI74
(dp830
S'iters'
p831
I0
sS'meta'
p832
(lp833
sS'total_cqs'
p834
I1
ssI75
(dp835
S'iters'
p836
I2
sS'meta'
p837
(lp838
(dp839
S'objective'
p840
I5
sS'query_time'
p841
F0.017819881439208984
sS'comp_time'
p842
F0.00011801719665527344
sS'exec_cq'
p843
I5
sS'total_cq'
p844
I5
sa(dp845
g840
I2
sg841
F2.6941299438476562e-05
sg842
F6.794929504394531e-05
sg843
I4
sg844
I4
sasS'total_cqs'
p846
I5
ssI76
(dp847
S'iters'
p848
I1
sS'meta'
p849
(lp850
(dp851
S'objective'
p852
I1
sS'query_time'
p853
F0.013704061508178711
sS'comp_time'
p854
F0.0002887248992919922
sS'exec_cq'
p855
I2
sS'total_cq'
p856
I2
sasS'total_cqs'
p857
I2
ssI77
(dp858
S'iters'
p859
I0
sS'meta'
p860
(lp861
sS'total_cqs'
p862
I1
ssI78
(dp863
S'iters'
p864
I0
sS'meta'
p865
(lp866
sS'total_cqs'
p867
I1
ssI103
(dp868
S'iters'
p869
I2
sS'meta'
p870
(lp871
(dp872
S'objective'
p873
I60
sS'query_time'
p874
F0.08947491645812988
sS'comp_time'
p875
F0.00015497207641601562
sS'exec_cq'
p876
I12
sS'total_cq'
p877
I12
sa(dp878
g873
I55
sg874
F5.2928924560546875e-05
sg875
F0.0001239776611328125
sg876
I11
sg877
I11
sasS'total_cqs'
p879
I12
ssI104
(dp880
S'iters'
p881
I2
sS'meta'
p882
(lp883
(dp884
S'objective'
p885
I0
sS'query_time'
p886
F1.5386929512023926
sS'comp_time'
p887
F0.11868596076965332
sS'exec_cq'
p888
I4
sS'total_cq'
p889
I4
sa(dp890
g885
I1
sg886
F0.028594017028808594
sg887
F0.1598362922668457
sg888
I2
sg889
I2
sasS'total_cqs'
p891
I4
ssI105
(dp892
S'iters'
p893
I0
sS'meta'
p894
(lp895
sS'total_cqs'
p896
I1
ssI106
(dp897
S'iters'
p898
I1
sS'meta'
p899
(lp900
(dp901
S'objective'
p902
I4
sS'query_time'
p903
F0.05160093307495117
sS'comp_time'
p904
F0.00011205673217773438
sS'exec_cq'
p905
I4
sS'total_cq'
p906
I4
sasS'total_cqs'
p907
I4
ssI107
(dp908
S'iters'
p909
I2
sS'meta'
p910
(lp911
(dp912
S'objective'
p913
I68
sS'query_time'
p914
F0.09948897361755371
sS'comp_time'
p915
F0.0001811981201171875
sS'exec_cq'
p916
I16
sS'total_cq'
p917
I16
sa(dp918
g913
I16
sg914
F0.007297039031982422
sg915
F0.00011682510375976562
sg916
I3
sg917
I3
sasS'total_cqs'
p919
I16
ssI108
(dp920
S'iters'
p921
I0
sS'meta'
p922
(lp923
sS'total_cqs'
p924
I1
ss.