(dp0
I1
(dp1
S'iters'
p2
I1
sS'meta'
p3
(lp4
(dp5
S'objective'
p6
I54
sS'query_time'
p7
F0.016549110412597656
sS'comp_time'
p8
F7.82012939453125e-05
sS'exec_cq'
p9
I1
sS'total_cq'
p10
I12
sasS'total_cqs'
p11
I12
ssI2
(dp12
S'iters'
p13
I1
sS'meta'
p14
(lp15
(dp16
S'objective'
p17
I324
sS'query_time'
p18
F0.026803016662597656
sS'comp_time'
p19
F0.00010323524475097656
sS'exec_cq'
p20
I1
sS'total_cq'
p21
I27
sasS'total_cqs'
p22
I27
ssI3
(dp23
S'iters'
p24
I1
sS'meta'
p25
(lp26
(dp27
S'objective'
p28
I860
sS'query_time'
p29
F0.013849973678588867
sS'comp_time'
p30
F0.00011324882507324219
sS'exec_cq'
p31
I1
sS'total_cq'
p32
I43
sasS'total_cqs'
p33
I43
ssI4
(dp34
S'iters'
p35
I1
sS'meta'
p36
(lp37
(dp38
S'objective'
p39
I44
sS'query_time'
p40
F2.9434289932250977
sS'comp_time'
p41
F0.0002808570861816406
sS'exec_cq'
p42
I1
sS'total_cq'
p43
I11
sasS'total_cqs'
p44
I11
ssI5
(dp45
S'iters'
p46
I1
sS'meta'
p47
(lp48
(dp49
S'objective'
p50
I20
sS'query_time'
p51
F0.3397798538208008
sS'comp_time'
p52
F6.103515625e-05
sS'exec_cq'
p53
I1
sS'total_cq'
p54
I8
sasS'total_cqs'
p55
I8
ssI6
(dp56
S'iters'
p57
I2
sS'meta'
p58
(lp59
(dp60
S'objective'
p61
I109
sS'query_time'
p62
F0.5552191734313965
sS'comp_time'
p63
F9.918212890625e-05
sS'exec_cq'
p64
I1
sS'total_cq'
p65
I18
sa(dp66
g61
I5
sg62
F0.006272792816162109
sg63
F6.29425048828125e-05
sg64
I1
sg65
I2
sasS'total_cqs'
p67
I18
ssI7
(dp68
S'iters'
p69
I1
sS'meta'
p70
(lp71
(dp72
S'objective'
p73
I27
sS'query_time'
p74
F0.22950482368469238
sS'comp_time'
p75
F9.107589721679688e-05
sS'exec_cq'
p76
I1
sS'total_cq'
p77
I9
sasS'total_cqs'
p78
I9
ssI8
(dp79
S'iters'
p80
I2
sS'meta'
p81
(lp82
(dp83
S'objective'
p84
I296
sS'query_time'
p85
F0.03255796432495117
sS'comp_time'
p86
F0.00010204315185546875
sS'exec_cq'
p87
I1
sS'total_cq'
p88
I27
sa(dp89
g84
I13
sg85
F0.01257014274597168
sg86
F8.988380432128906e-05
sg87
I2
sg88
I2
sasS'total_cqs'
p90
I27
ssI9
(dp91
S'iters'
p92
I3
sS'meta'
p93
(lp94
(dp95
S'objective'
p96
I16
sS'query_time'
p97
F0.016360998153686523
sS'comp_time'
p98
F7.987022399902344e-05
sS'exec_cq'
p99
I1
sS'total_cq'
p100
I7
sa(dp101
g96
I2
sg97
F0.02840709686279297
sg98
F7.581710815429688e-05
sg99
I2
sg100
I5
sa(dp102
g96
I4
sg97
F0.002462148666381836
sg98
F5.507469177246094e-05
sg99
I2
sg100
I2
sasS'total_cqs'
p103
I7
ssI10
(dp104
S'iters'
p105
I6
sS'meta'
p106
(lp107
(dp108
S'objective'
p109
I698
sS'query_time'
p110
F0.046447038650512695
sS'comp_time'
p111
F0.00013303756713867188
sS'exec_cq'
p112
I1
sS'total_cq'
p113
I51
sa(dp114
g109
I110
sg110
F0.06634998321533203
sg111
F0.00012493133544921875
sg112
I2
sg113
I12
sa(dp115
g109
I136
sg110
F0.01666092872619629
sg111
F9.083747863769531e-05
sg112
I2
sg113
I8
sa(dp116
g109
I84
sg110
F0.013507843017578125
sg111
F9.608268737792969e-05
sg112
I2
sg113
I7
sa(dp117
g109
I53
sg110
F0.007323026657104492
sg111
F6.508827209472656e-05
sg112
I2
sg113
I5
sa(dp118
g109
I11
sg110
F0.003236055374145508
sg111
F4.887580871582031e-05
sg112
I2
sg113
I3
sasS'total_cqs'
p119
I51
ssI11
(dp120
S'iters'
p121
I4
sS'meta'
p122
(lp123
(dp124
S'objective'
p125
I1512
sS'query_time'
p126
F0.11359119415283203
sS'comp_time'
p127
F0.0001220703125
sS'exec_cq'
p128
I1
sS'total_cq'
p129
I63
sa(dp130
g125
I28
sg126
F0.035079002380371094
sg127
F7.82012939453125e-05
sg128
I2
sg129
I9
sa(dp131
g125
I32
sg126
F0.0052030086517333984
sg127
F6.699562072753906e-05
sg128
I2
sg129
I4
sa(dp132
g125
I40
sg126
F0.0021538734436035156
sg127
F5.412101745605469e-05
sg128
I2
sg129
I2
sasS'total_cqs'
p133
I63
ssI12
(dp134
S'iters'
p135
I2
sS'meta'
p136
(lp137
(dp138
S'objective'
p139
I861
sS'query_time'
p140
F0.08007407188415527
sS'comp_time'
p141
F0.00011396408081054688
sS'exec_cq'
p142
I1
sS'total_cq'
p143
I50
sa(dp144
g139
I107
sg140
F0.03087615966796875
sg141
F8.082389831542969e-05
sg142
I2
sg143
I8
sasS'total_cqs'
p145
I50
ssI13
(dp146
S'iters'
p147
I2
sS'meta'
p148
(lp149
(dp150
S'objective'
p151
I26
sS'query_time'
p152
F0.03325390815734863
sS'comp_time'
p153
F9.512901306152344e-05
sS'exec_cq'
p154
I1
sS'total_cq'
p155
I20
sa(dp156
g151
I78
sg152
F0.028682947158813477
sg153
F8.487701416015625e-05
sg154
I2
sg155
I11
sasS'total_cqs'
p157
I20
ssI14
(dp158
S'iters'
p159
I2
sS'meta'
p160
(lp161
(dp162
S'objective'
p163
I9
sS'query_time'
p164
F0.36691784858703613
sS'comp_time'
p165
F7.510185241699219e-05
sS'exec_cq'
p166
I1
sS'total_cq'
p167
I9
sa(dp168
g163
I0
sg164
F0.014172077178955078
sg165
F6.699562072753906e-05
sg166
I1
sg167
I4
sasS'total_cqs'
p169
I9
ssI15
(dp170
S'iters'
p171
I3
sS'meta'
p172
(lp173
(dp174
S'objective'
p175
I20
sS'query_time'
p176
F0.05224299430847168
sS'comp_time'
p177
F9.417533874511719e-05
sS'exec_cq'
p178
I1
sS'total_cq'
p179
I11
sa(dp180
g175
I13
sg176
F0.013339042663574219
sg177
F8.034706115722656e-05
sg178
I1
sg179
I6
sa(dp181
g175
I6
sg176
F0.008511066436767578
sg177
F7.510185241699219e-05
sg178
I1
sg179
I4
sasS'total_cqs'
p182
I11
ssI16
(dp183
S'iters'
p184
I1
sS'meta'
p185
(lp186
(dp187
S'objective'
p188
I20
sS'query_time'
p189
F0.010056018829345703
sS'comp_time'
p190
F9.72747802734375e-05
sS'exec_cq'
p191
I1
sS'total_cq'
p192
I8
sasS'total_cqs'
p193
I8
ssI17
(dp194
S'iters'
p195
I1
sS'meta'
p196
(lp197
(dp198
S'objective'
p199
I44
sS'query_time'
p200
F0.027879953384399414
sS'comp_time'
p201
F0.00015091896057128906
sS'exec_cq'
p202
I1
sS'total_cq'
p203
I11
sasS'total_cqs'
p204
I11
ssI18
(dp205
S'iters'
p206
I1
sS'meta'
p207
(lp208
(dp209
S'objective'
p210
I44
sS'query_time'
p211
F0.017267942428588867
sS'comp_time'
p212
F7.700920104980469e-05
sS'exec_cq'
p213
I1
sS'total_cq'
p214
I11
sasS'total_cqs'
p215
I11
ssI19
(dp216
S'iters'
p217
I0
sS'meta'
p218
(lp219
sS'total_cqs'
p220
I1
ssI20
(dp221
S'iters'
p222
I0
sS'meta'
p223
(lp224
sS'total_cqs'
p225
I1
ssI21
(dp226
S'iters'
p227
I0
sS'meta'
p228
(lp229
sS'total_cqs'
p230
I1
ssI22
(dp231
S'iters'
p232
I1
sS'meta'
p233
(lp234
(dp235
S'objective'
p236
I135
sS'query_time'
p237
F0.04517006874084473
sS'comp_time'
p238
F0.00010180473327636719
sS'exec_cq'
p239
I1
sS'total_cq'
p240
I18
sasS'total_cqs'
p241
I18
ssI23
(dp242
S'iters'
p243
I1
sS'meta'
p244
(lp245
(dp246
S'objective'
p247
I104
sS'query_time'
p248
F0.014615058898925781
sS'comp_time'
p249
F8.177757263183594e-05
sS'exec_cq'
p250
I1
sS'total_cq'
p251
I16
sasS'total_cqs'
p252
I16
ssI24
(dp253
S'iters'
p254
I0
sS'meta'
p255
(lp256
sS'total_cqs'
p257
I1
ssI25
(dp258
S'iters'
p259
I0
sS'meta'
p260
(lp261
sS'total_cqs'
p262
I1
ssI26
(dp263
S'iters'
p264
I1
sS'meta'
p265
(lp266
(dp267
S'objective'
p268
I819
sS'query_time'
p269
F0.048568010330200195
sS'comp_time'
p270
F0.00011730194091796875
sS'exec_cq'
p271
I1
sS'total_cq'
p272
I42
sasS'total_cqs'
p273
I42
ssI27
(dp274
S'iters'
p275
I2
sS'meta'
p276
(lp277
(dp278
S'objective'
p279
I381
sS'query_time'
p280
F2.85339617729187
sS'comp_time'
p281
F0.00010895729064941406
sS'exec_cq'
p282
I1
sS'total_cq'
p283
I30
sa(dp284
g279
I18
sg280
F1164.596354007721
sg281
F0.00010609626770019531
sg282
I2
sg283
I2
sasS'total_cqs'
p285
I30
ssI28
(dp286
S'iters'
p287
I0
sS'meta'
p288
(lp289
sS'total_cqs'
p290
I1
ssI29
(dp291
S'iters'
p292
I1
sS'meta'
p293
(lp294
(dp295
S'objective'
p296
I1127
sS'query_time'
p297
F0.42013096809387207
sS'comp_time'
p298
F0.0001571178436279297
sS'exec_cq'
p299
I1
sS'total_cq'
p300
I49
sasS'total_cqs'
p301
I49
ssI30
(dp302
S'iters'
p303
I1
sS'meta'
p304
(lp305
(dp306
S'objective'
p307
I1
sS'query_time'
p308
F0.5867531299591064
sS'comp_time'
p309
F6.67572021484375e-05
sS'exec_cq'
p310
I1
sS'total_cq'
p311
I2
sasS'total_cqs'
p312
I2
ssI31
(dp313
S'iters'
p314
I0
sS'meta'
p315
(lp316
sS'total_cqs'
p317
I1
ssI32
(dp318
S'iters'
p319
I1
sS'meta'
p320
(lp321
(dp322
S'objective'
p323
I1
sS'query_time'
p324
F0.007940053939819336
sS'comp_time'
p325
F6.914138793945312e-05
sS'exec_cq'
p326
I1
sS'total_cq'
p327
I2
sasS'total_cqs'
p328
I2
ssI33
(dp329
S'iters'
p330
I2
sS'meta'
p331
(lp332
(dp333
S'objective'
p334
I4956
sS'query_time'
p335
F0.6449470520019531
sS'comp_time'
p336
F0.00019097328186035156
sS'exec_cq'
p337
I1
sS'total_cq'
p338
I103
sa(dp339
g334
I6
sg335
F0.019336938858032227
sg336
F8.606910705566406e-05
sg337
I1
sg338
I2
sasS'total_cqs'
p340
I103
ssI34
(dp341
S'iters'
p342
I1
sS'meta'
p343
(lp344
(dp345
S'objective'
p346
I1
sS'query_time'
p347
F0.013603925704956055
sS'comp_time'
p348
F6.604194641113281e-05
sS'exec_cq'
p349
I1
sS'total_cq'
p350
I2
sasS'total_cqs'
p351
I2
ssI35
(dp352
S'iters'
p353
I1
sS'meta'
p354
(lp355
(dp356
S'objective'
p357
I2345
sS'query_time'
p358
F0.44687509536743164
sS'comp_time'
p359
F0.0001430511474609375
sS'exec_cq'
p360
I1
sS'total_cq'
p361
I70
sasS'total_cqs'
p362
I70
ssI36
(dp363
S'iters'
p364
I1
sS'meta'
p365
(lp366
(dp367
S'objective'
p368
I495
sS'query_time'
p369
F0.13120794296264648
sS'comp_time'
p370
F0.00010013580322265625
sS'exec_cq'
p371
I1
sS'total_cq'
p372
I33
sasS'total_cqs'
p373
I33
ssI37
(dp374
S'iters'
p375
I1
sS'meta'
p376
(lp377
(dp378
S'objective'
p379
I1
sS'query_time'
p380
F0.007752895355224609
sS'comp_time'
p381
F7.295608520507812e-05
sS'exec_cq'
p382
I1
sS'total_cq'
p383
I2
sasS'total_cqs'
p384
I2
ssI38
(dp385
S'iters'
p386
I3
sS'meta'
p387
(lp388
(dp389
S'objective'
p390
I8
sS'query_time'
p391
F0.01373291015625
sS'comp_time'
p392
F7.796287536621094e-05
sS'exec_cq'
p393
I1
sS'total_cq'
p394
I4
sa(dp395
g390
I3
sg391
F0.007948875427246094
sg392
F6.29425048828125e-05
sg393
I1
sg394
I3
sa(dp396
g390
I2
sg391
F0.004861116409301758
sg392
F6.079673767089844e-05
sg393
I2
sg394
I2
sasS'total_cqs'
p397
I4
ssI39
(dp398
S'iters'
p399
I1
sS'meta'
p400
(lp401
(dp402
S'objective'
p403
I902
sS'query_time'
p404
F0.08002090454101562
sS'comp_time'
p405
F0.00011992454528808594
sS'exec_cq'
p406
I1
sS'total_cq'
p407
I44
sasS'total_cqs'
p408
I44
ssI40
(dp409
S'iters'
p410
I1
sS'meta'
p411
(lp412
(dp413
S'objective'
p414
I14
sS'query_time'
p415
F0.014876842498779297
sS'comp_time'
p416
F7.891654968261719e-05
sS'exec_cq'
p417
I1
sS'total_cq'
p418
I7
sasS'total_cqs'
p419
I7
ssI41
(dp420
S'iters'
p421
I1
sS'meta'
p422
(lp423
(dp424
S'objective'
p425
I54
sS'query_time'
p426
F0.018414974212646484
sS'comp_time'
p427
F8.296966552734375e-05
sS'exec_cq'
p428
I1
sS'total_cq'
p429
I12
sasS'total_cqs'
p430
I12
ssI42
(dp431
S'iters'
p432
I1
sS'meta'
p433
(lp434
(dp435
S'objective'
p436
I779
sS'query_time'
p437
F0.03623795509338379
sS'comp_time'
p438
F0.00012803077697753906
sS'exec_cq'
p439
I1
sS'total_cq'
p440
I41
sasS'total_cqs'
p441
I41
ssI43
(dp442
S'iters'
p443
I1
sS'meta'
p444
(lp445
(dp446
S'objective'
p447
I14
sS'query_time'
p448
F0.013462066650390625
sS'comp_time'
p449
F8.177757263183594e-05
sS'exec_cq'
p450
I1
sS'total_cq'
p451
I7
sasS'total_cqs'
p452
I7
ssI44
(dp453
S'iters'
p454
I2
sS'meta'
p455
(lp456
(dp457
S'objective'
p458
I992
sS'query_time'
p459
F0.04863691329956055
sS'comp_time'
p460
F0.0001270771026611328
sS'exec_cq'
p461
I1
sS'total_cq'
p462
I47
sa(dp463
g458
I26
sg459
F0.02449798583984375
sg460
F8.0108642578125e-05
sg461
I2
sg462
I2
sasS'total_cqs'
p464
I47
ssI45
(dp465
S'iters'
p466
I0
sS'meta'
p467
(lp468
sS'total_cqs'
p469
I1
ssI46
(dp470
S'iters'
p471
I1
sS'meta'
p472
(lp473
(dp474
S'objective'
p475
I9
sS'query_time'
p476
F0.0074770450592041016
sS'comp_time'
p477
F7.987022399902344e-05
sS'exec_cq'
p478
I1
sS'total_cq'
p479
I6
sasS'total_cqs'
p480
I6
ssI47
(dp481
S'iters'
p482
I1
sS'meta'
p483
(lp484
(dp485
S'objective'
p486
I1
sS'query_time'
p487
F0.006555080413818359
sS'comp_time'
p488
F7.200241088867188e-05
sS'exec_cq'
p489
I1
sS'total_cq'
p490
I2
sasS'total_cqs'
p491
I2
ssI48
(dp492
S'iters'
p493
I0
sS'meta'
p494
(lp495
sS'total_cqs'
p496
I1
ssI49
(dp497
S'iters'
p498
I0
sS'meta'
p499
(lp500
sS'total_cqs'
p501
I1
ssI50
(dp502
S'iters'
p503
I1
sS'meta'
p504
(lp505
(dp506
S'objective'
p507
I5
sS'query_time'
p508
F0.0052280426025390625
sS'comp_time'
p509
F6.389617919921875e-05
sS'exec_cq'
p510
I1
sS'total_cq'
p511
I5
sasS'total_cqs'
p512
I5
ssI51
(dp513
S'iters'
p514
I1
sS'meta'
p515
(lp516
(dp517
S'objective'
p518
I1
sS'query_time'
p519
F0.00572514533996582
sS'comp_time'
p520
F6.175041198730469e-05
sS'exec_cq'
p521
I1
sS'total_cq'
p522
I2
sasS'total_cqs'
p523
I2
ssI52
(dp524
S'iters'
p525
I1
sS'meta'
p526
(lp527
(dp528
S'objective'
p529
I1
sS'query_time'
p530
F0.00632476806640625
sS'comp_time'
p531
F7.414817810058594e-05
sS'exec_cq'
p532
I1
sS'total_cq'
p533
I2
sasS'total_cqs'
p534
I2
ssI53
(dp535
S'iters'
p536
I1
sS'meta'
p537
(lp538
(dp539
S'objective'
p540
I2
sS'query_time'
p541
F0.013477087020874023
sS'comp_time'
p542
F7.796287536621094e-05
sS'exec_cq'
p543
I1
sS'total_cq'
p544
I4
sasS'total_cqs'
p545
I4
ssI54
(dp546
S'iters'
p547
I1
sS'meta'
p548
(lp549
(dp550
S'objective'
p551
I0
sS'query_time'
p552
F0.00798797607421875
sS'comp_time'
p553
F8.296966552734375e-05
sS'exec_cq'
p554
I1
sS'total_cq'
p555
I3
sasS'total_cqs'
p556
I3
ssI55
(dp557
S'iters'
p558
I3
sS'meta'
p559
(lp560
(dp561
S'objective'
p562
I5455
sS'query_time'
p563
F0.1737830638885498
sS'comp_time'
p564
F0.00019407272338867188
sS'exec_cq'
p565
I1
sS'total_cq'
p566
I109
sa(dp567
g562
I80
sg563
F0.008224010467529297
sg564
F0.00010418891906738281
sg565
I1
sg566
I4
sa(dp568
g562
I43
sg563
F0.005624055862426758
sg564
F7.796287536621094e-05
sg565
I1
sg566
I2
sasS'total_cqs'
p569
I109
ssI56
(dp570
S'iters'
p571
I1
sS'meta'
p572
(lp573
(dp574
S'objective'
p575
I2774
sS'query_time'
p576
F0.2565629482269287
sS'comp_time'
p577
F0.00017309188842773438
sS'exec_cq'
p578
I1
sS'total_cq'
p579
I76
sasS'total_cqs'
p580
I76
ssI57
(dp581
S'iters'
p582
I3
sS'meta'
p583
(lp584
(dp585
S'objective'
p586
I924
sS'query_time'
p587
F0.39277100563049316
sS'comp_time'
p588
F0.0001270771026611328
sS'exec_cq'
p589
I1
sS'total_cq'
p590
I51
sa(dp591
g586
I53
sg587
F0.0505220890045166
sg588
F6.175041198730469e-05
sg589
I1
sg590
I7
sa(dp592
g586
I28
sg587
F0.008672952651977539
sg588
F7.295608520507812e-05
sg589
I1
sg590
I2
sasS'total_cqs'
p593
I51
ssI58
(dp594
S'iters'
p595
I3
sS'meta'
p596
(lp597
(dp598
S'objective'
p599
I92435
sS'query_time'
p600
F1.6954798698425293
sS'comp_time'
p601
F0.0005748271942138672
sS'exec_cq'
p602
I1
sS'total_cq'
p603
I486
sa(dp604
g599
I11637
sg600
F0.4803588390350342
sg601
F0.00013327598571777344
sg602
I1
sg603
I52
sa(dp605
g599
I314
sg600
F0.057676076889038086
sg601
F0.0001010894775390625
sg602
I1
sg603
I3
sasS'total_cqs'
p606
I486
ssI59
(dp607
S'iters'
p608
I2
sS'meta'
p609
(lp610
(dp611
S'objective'
p612
I10
sS'query_time'
p613
F0.0186309814453125
sS'comp_time'
p614
F8.869171142578125e-05
sS'exec_cq'
p615
I1
sS'total_cq'
p616
I7
sa(dp617
g612
I5
sg613
F0.036363840103149414
sg614
F8.416175842285156e-05
sg615
I2
sg616
I2
sasS'total_cqs'
p618
I7
ssI60
(dp619
S'iters'
p620
I1
sS'meta'
p621
(lp622
(dp623
S'objective'
p624
I5
sS'query_time'
p625
F0.0056188106536865234
sS'comp_time'
p626
F8.296966552734375e-05
sS'exec_cq'
p627
I1
sS'total_cq'
p628
I5
sasS'total_cqs'
p629
I5
ssI61
(dp630
S'iters'
p631
I0
sS'meta'
p632
(lp633
sS'total_cqs'
p634
I1
ssI62
(dp635
S'iters'
p636
I1
sS'meta'
p637
(lp638
(dp639
S'objective'
p640
I54
sS'query_time'
p641
F0.015713930130004883
sS'comp_time'
p642
F9.584426879882812e-05
sS'exec_cq'
p643
I1
sS'total_cq'
p644
I12
sasS'total_cqs'
p645
I12
ssI63
(dp646
S'iters'
p647
I0
sS'meta'
p648
(lp649
sS'total_cqs'
p650
I1
ssI64
(dp651
S'iters'
p652
I3
sS'meta'
p653
(lp654
(dp655
S'objective'
p656
I38
sS'query_time'
p657
F0.03706097602844238
sS'comp_time'
p658
F9.131431579589844e-05
sS'exec_cq'
p659
I1
sS'total_cq'
p660
I12
sa(dp661
g656
I18
sg657
F0.012666940689086914
sg658
F6.794929504394531e-05
sg659
I1
sg660
I3
sa(dp662
g656
I5
sg657
F0.001035928726196289
sg658
F4.291534423828125e-05
sg659
I1
sg660
I2
sasS'total_cqs'
p663
I12
ssI65
(dp664
S'iters'
p665
I1
sS'meta'
p666
(lp667
(dp668
S'objective'
p669
I324
sS'query_time'
p670
F0.0310671329498291
sS'comp_time'
p671
F0.00010609626770019531
sS'exec_cq'
p672
I1
sS'total_cq'
p673
I27
sasS'total_cqs'
p674
I27
ssI66
(dp675
S'iters'
p676
I0
sS'meta'
p677
(lp678
sS'total_cqs'
p679
I1
ssI67
(dp680
S'iters'
p681
I1
sS'meta'
p682
(lp683
(dp684
S'objective'
p685
I560
sS'query_time'
p686
F0.5433330535888672
sS'comp_time'
p687
F0.000118255615234375
sS'exec_cq'
p688
I1
sS'total_cq'
p689
I35
sasS'total_cqs'
p690
I35
ssI68
(dp691
S'iters'
p692
I0
sS'meta'
p693
(lp694
sS'total_cqs'
p695
I1
ssI69
(dp696
S'iters'
p697
I1
sS'meta'
p698
(lp699
(dp700
S'objective'
p701
I1224
sS'query_time'
p702
F0.08196210861206055
sS'comp_time'
p703
F0.0001239776611328125
sS'exec_cq'
p704
I1
sS'total_cq'
p705
I51
sasS'total_cqs'
p706
I51
ssI70
(dp707
S'iters'
p708
I1
sS'meta'
p709
(lp710
(dp711
S'objective'
p712
I9
sS'query_time'
p713
F0.009557962417602539
sS'comp_time'
p714
F8.0108642578125e-05
sS'exec_cq'
p715
I1
sS'total_cq'
p716
I6
sasS'total_cqs'
p717
I6
ssI71
(dp718
S'iters'
p719
I1
sS'meta'
p720
(lp721
(dp722
S'objective'
p723
I3485
sS'query_time'
p724
F0.07843804359436035
sS'comp_time'
p725
F0.0001399517059326172
sS'exec_cq'
p726
I1
sS'total_cq'
p727
I85
sasS'total_cqs'
p728
I85
ssI72
(dp729
S'iters'
p730
I1
sS'meta'
p731
(lp732
(dp733
S'objective'
p734
I20
sS'query_time'
p735
F0.007954835891723633
sS'comp_time'
p736
F0.00011014938354492188
sS'exec_cq'
p737
I1
sS'total_cq'
p738
I8
sasS'total_cqs'
p739
I8
ssI73
(dp740
S'iters'
p741
I0
sS'meta'
p742
(lp743
sS'total_cqs'
p744
I1
ssI74
(dp745
S'iters'
p746
I0
sS'meta'
p747
(lp748
sS'total_cqs'
p749
I1
ssI75
(dp750
S'iters'
p751
I1
sS'meta'
p752
(lp753
(dp754
S'objective'
p755
I5
sS'query_time'
p756
F0.004539966583251953
sS'comp_time'
p757
F5.91278076171875e-05
sS'exec_cq'
p758
I1
sS'total_cq'
p759
I5
sasS'total_cqs'
p760
I5
ssI76
(dp761
S'iters'
p762
I1
sS'meta'
p763
(lp764
(dp765
S'objective'
p766
I1
sS'query_time'
p767
F0.008666038513183594
sS'comp_time'
p768
F6.794929504394531e-05
sS'exec_cq'
p769
I1
sS'total_cq'
p770
I2
sasS'total_cqs'
p771
I2
ssI77
(dp772
S'iters'
p773
I0
sS'meta'
p774
(lp775
sS'total_cqs'
p776
I1
ssI78
(dp777
S'iters'
p778
I0
sS'meta'
p779
(lp780
sS'total_cqs'
p781
I1
ssI103
(dp782
S'iters'
p783
I1
sS'meta'
p784
(lp785
(dp786
S'objective'
p787
I54
sS'query_time'
p788
F0.028998136520385742
sS'comp_time'
p789
F9.083747863769531e-05
sS'exec_cq'
p790
I1
sS'total_cq'
p791
I12
sasS'total_cqs'
p792
I12
ssI104
(dp793
S'iters'
p794
I1
sS'meta'
p795
(lp796
(dp797
S'objective'
p798
I2
sS'query_time'
p799
F1.1007211208343506
sS'comp_time'
p800
F9.417533874511719e-05
sS'exec_cq'
p801
I1
sS'total_cq'
p802
I4
sasS'total_cqs'
p803
I4
ssI105
(dp804
S'iters'
p805
I0
sS'meta'
p806
(lp807
sS'total_cqs'
p808
I1
ssI106
(dp809
S'iters'
p810
I1
sS'meta'
p811
(lp812
(dp813
S'objective'
p814
I2
sS'query_time'
p815
F0.011156082153320312
sS'comp_time'
p816
F6.794929504394531e-05
sS'exec_cq'
p817
I1
sS'total_cq'
p818
I4
sasS'total_cqs'
p819
I4
ssI107
(dp820
S'iters'
p821
I1
sS'meta'
p822
(lp823
(dp824
S'objective'
p825
I104
sS'query_time'
p826
F0.05682516098022461
sS'comp_time'
p827
F0.00010776519775390625
sS'exec_cq'
p828
I1
sS'total_cq'
p829
I16
sasS'total_cqs'
p830
I16
ssI108
(dp831
S'iters'
p832
I0
sS'meta'
p833
(lp834
sS'total_cqs'
p835
I1
ss.