(dp0
I1
(dp1
S'iters'
p2
I3
sS'meta'
p3
(lp4
(dp5
S'objective'
p6
I48
sS'query_time'
p7
F0.03519105911254883
sS'comp_time'
p8
F0.00021600723266601562
sS'exec_cq'
p9
I12
sS'total_cq'
p10
I12
sa(dp11
g6
I49
sg7
F5.2928924560546875e-05
sg8
F6.818771362304688e-05
sg9
I10
sg10
I10
sa(dp12
g6
I48
sg7
F3.600120544433594e-05
sg8
F5.7697296142578125e-05
sg9
I9
sg10
I9
sasS'total_cqs'
p13
I12
ssI2
(dp14
S'iters'
p15
I6
sS'meta'
p16
(lp17
(dp18
S'objective'
p19
I282
sS'query_time'
p20
F0.1523439884185791
sS'comp_time'
p21
F0.001373291015625
sS'exec_cq'
p22
I27
sS'total_cq'
p23
I27
sa(dp24
g19
I258
sg20
F0.00022602081298828125
sg21
F0.0007979869842529297
sg22
I24
sg23
I24
sa(dp25
g19
I242
sg20
F0.0001590251922607422
sg21
F0.0005381107330322266
sg22
I21
sg23
I21
sa(dp26
g19
I234
sg20
F0.0001659393310546875
sg21
F0.0004830360412597656
sg22
I19
sg23
I19
sa(dp27
g19
I221
sg20
F0.0001380443572998047
sg21
F0.00043892860412597656
sg22
I17
sg23
I17
sa(dp28
g19
I220
sg20
F9.417533874511719e-05
sg21
F0.0002276897430419922
sg22
I15
sg23
I15
sasS'total_cqs'
p29
I27
ssI3
(dp30
S'iters'
p31
I4
sS'meta'
p32
(lp33
(dp34
S'objective'
p35
I194
sS'query_time'
p36
F156.81424713134766
sS'comp_time'
p37
F1.5419199466705322
sS'exec_cq'
p38
I43
sS'total_cq'
p39
I43
sa(dp40
g35
I44
sg36
F0.35153698921203613
sg37
F1.3522570133209229
sg38
I27
sg39
I27
sa(dp41
g35
I51
sg36
F0.0427548885345459
sg37
F0.3732740879058838
sg38
I13
sg39
I13
sa(dp42
g35
I133
sg36
F5.602836608886719e-05
sg37
F0.0035262107849121094
sg38
I7
sg39
I7
sasS'total_cqs'
p43
I43
ssI4
(dp44
S'iters'
p45
I2
sS'meta'
p46
(lp47
(dp48
S'objective'
p49
I36
sS'query_time'
p50
F4.085252046585083
sS'comp_time'
p51
F0.3898732662200928
sS'exec_cq'
p52
I11
sS'total_cq'
p53
I11
sa(dp54
g49
I7
sg50
F0.11021804809570312
sg51
F0.377032995223999
sg52
I2
sg53
I2
sasS'total_cqs'
p55
I11
ssI5
(dp56
S'iters'
p57
I3
sS'meta'
p58
(lp59
(dp60
S'objective'
p61
I0
sS'query_time'
p62
F27.120322942733765
sS'comp_time'
p63
F2.2027227878570557
sS'exec_cq'
p64
I8
sS'total_cq'
p65
I8
sa(dp66
g61
I0
sg62
F0.011477947235107422
sg63
F0.0513761043548584
sg64
I4
sg65
I4
sa(dp67
g61
I3
sg62
F0.003201007843017578
sg63
F0.01726698875427246
sg64
I2
sg65
I2
sasS'total_cqs'
p68
I8
ssI6
(dp69
S'iters'
p70
I4
sS'meta'
p71
(lp72
(dp73
S'objective'
p74
I43
sS'query_time'
p75
F29.57211208343506
sS'comp_time'
p76
F2.7897469997406006
sS'exec_cq'
p77
I18
sS'total_cq'
p78
I18
sa(dp79
g74
I0
sg75
F0.6144020557403564
sg76
F2.192513942718506
sg77
I7
sg78
I7
sa(dp80
g74
I0
sg75
F0.40198397636413574
sg76
F1.7652111053466797
sg77
I4
sg78
I4
sa(dp81
g74
I4
sg75
F0.2567911148071289
sg76
F1.2302272319793701
sg77
I2
sg78
I2
sasS'total_cqs'
p82
I18
ssI7
(dp83
S'iters'
p84
I4
sS'meta'
p85
(lp86
(dp87
S'objective'
p88
I1
sS'query_time'
p89
F9.911221027374268
sS'comp_time'
p90
F0.8822870254516602
sS'exec_cq'
p91
I9
sS'total_cq'
p92
I9
sa(dp93
g88
I2
sg89
F0.20243096351623535
sg90
F0.8503141403198242
sg91
I5
sg92
I5
sa(dp94
g88
I0
sg89
F0.14466595649719238
sg90
F0.5626039505004883
sg91
I3
sg92
I3
sa(dp95
g88
I3
sg89
F0.10990405082702637
sg90
F0.3556210994720459
sg91
I2
sg92
I2
sasS'total_cqs'
p96
I9
ssI8
(dp97
S'iters'
p98
I5
sS'meta'
p99
(lp100
(dp101
S'objective'
p102
I246
sS'query_time'
p103
F0.19900298118591309
sS'comp_time'
p104
F0.003655672073364258
sS'exec_cq'
p105
I27
sS'total_cq'
p106
I27
sa(dp107
g102
I202
sg103
F0.0001838207244873047
sg104
F0.0005559921264648438
sg105
I24
sg106
I24
sa(dp108
g102
I219
sg103
F7.796287536621094e-05
sg104
F0.00011706352233886719
sg105
I19
sg106
I19
sa(dp109
g102
I216
sg103
F5.793571472167969e-05
sg104
F7.176399230957031e-05
sg105
I18
sg106
I18
sa(dp110
g102
I211
sg103
F5.698204040527344e-05
sg104
F6.103515625e-05
sg105
I17
sg106
I17
sasS'total_cqs'
p111
I27
ssI9
(dp112
S'iters'
p113
I3
sS'meta'
p114
(lp115
(dp116
S'objective'
p117
I6
sS'query_time'
p118
F0.07634711265563965
sS'comp_time'
p119
F0.00026106834411621094
sS'exec_cq'
p120
I7
sS'total_cq'
p121
I7
sa(dp122
g117
I1
sg118
F0.0019087791442871094
sg119
F0.00015401840209960938
sg120
I5
sg121
I5
sa(dp123
g117
I3
sg118
F1.6927719116210938e-05
sg119
F5.412101745605469e-05
sg120
I2
sg121
I2
sasS'total_cqs'
p124
I7
ssI10
(dp125
S'iters'
p126
I6
sS'meta'
p127
(lp128
(dp129
S'objective'
p130
I576
sS'query_time'
p131
F0.3973729610443115
sS'comp_time'
p132
F0.006448030471801758
sS'exec_cq'
p133
I51
sS'total_cq'
p134
I51
sa(dp135
g130
I287
sg131
F0.0004248619079589844
sg132
F0.002129793167114258
sg133
I39
sg134
I39
sa(dp136
g130
I375
sg131
F0.00022792816162109375
sg132
F0.0007071495056152344
sg133
I25
sg134
I25
sa(dp137
g130
I305
sg131
F9.894371032714844e-05
sg132
F0.00024580955505371094
sg133
I21
sg134
I21
sa(dp138
g130
I28
sg131
F0.0019140243530273438
sg132
F0.00012302398681640625
sg133
I3
sg134
I3
sa(dp139
g130
I34
sg131
F1.71661376953125e-05
sg132
F5.793571472167969e-05
sg133
I2
sg134
I2
sasS'total_cqs'
p140
I51
ssI11
(dp141
S'iters'
p142
I7
sS'meta'
p143
(lp144
(dp145
S'objective'
p146
I896
sS'query_time'
p147
F0.618873119354248
sS'comp_time'
p148
F0.014098882675170898
sS'exec_cq'
p149
I63
sS'total_cq'
p150
I63
sa(dp151
g146
I982
sg147
F0.0009851455688476562
sg148
F0.003609895706176758
sg149
I47
sg150
I47
sa(dp152
g146
I787
sg147
F0.0005459785461425781
sg148
F0.0029070377349853516
sg149
I42
sg150
I42
sa(dp153
g146
I8
sg147
F0.00140380859375
sg148
F0.0008158683776855469
sg149
I9
sg150
I9
sa(dp154
g146
I10
sg147
F2.9087066650390625e-05
sg148
F6.985664367675781e-05
sg149
I5
sg150
I5
sa(dp155
g146
I7
sg147
F1.5974044799804688e-05
sg148
F5.030632019042969e-05
sg149
I3
sg150
I3
sa(dp156
g146
I5
sg147
F1.2874603271484375e-05
sg148
F3.981590270996094e-05
sg149
I2
sg150
I2
sasS'total_cqs'
p157
I63
ssI12
(dp158
S'iters'
p159
I6
sS'meta'
p160
(lp161
(dp162
S'objective'
p163
I347
sS'query_time'
p164
F0.37434911727905273
sS'comp_time'
p165
F0.005694866180419922
sS'exec_cq'
p166
I50
sS'total_cq'
p167
I50
sa(dp168
g163
I435
sg164
F0.0004451274871826172
sg165
F0.0017578601837158203
sg166
I33
sg167
I33
sa(dp169
g163
I495
sg164
F0.0001430511474609375
sg165
F0.0004100799560546875
sg166
I26
sg167
I26
sa(dp170
g163
I439
sg164
F0.00011205673217773438
sg165
F0.0002620220184326172
sg166
I23
sg167
I23
sa(dp171
g163
I8
sg164
F0.0013210773468017578
sg165
F8.702278137207031e-05
sg166
I4
sg167
I4
sa(dp172
g163
I6
sg164
F1.5974044799804688e-05
sg165
F5.602836608886719e-05
sg166
I2
sg167
I2
sasS'total_cqs'
p173
I50
ssI13
(dp174
S'iters'
p175
I3
sS'meta'
p176
(lp177
(dp178
S'objective'
p179
I28
sS'query_time'
p180
F0.21619796752929688
sS'comp_time'
p181
F0.0003421306610107422
sS'exec_cq'
p182
I20
sS'total_cq'
p183
I20
sa(dp184
g179
I49
sg180
F4.1961669921875e-05
sg181
F5.602836608886719e-05
sg182
I9
sg183
I9
sa(dp185
g179
I9
sg180
F0.0011179447174072266
sg181
F5.412101745605469e-05
sg182
I2
sg183
I2
sasS'total_cqs'
p186
I20
ssI14
(dp187
S'iters'
p188
I3
sS'meta'
p189
(lp190
(dp191
S'objective'
p192
I1
sS'query_time'
p193
F27.121320962905884
sS'comp_time'
p194
F0.9462840557098389
sS'exec_cq'
p195
I9
sS'total_cq'
p196
I9
sa(dp197
g192
I2
sg193
F0.22330188751220703
sg194
F0.617530107498169
sg195
I5
sg196
I5
sa(dp198
g192
I4
sg193
F0.1462090015411377
sg194
F0.5645549297332764
sg195
I2
sg196
I2
sasS'total_cqs'
p199
I9
ssI15
(dp200
S'iters'
p201
I4
sS'meta'
p202
(lp203
(dp204
S'objective'
p205
I0
sS'query_time'
p206
F3.122380018234253
sS'comp_time'
p207
F0.16427016258239746
sS'exec_cq'
p208
I11
sS'total_cq'
p209
I11
sa(dp210
g205
I15
sg206
F0.0006530284881591797
sg207
F0.002974271774291992
sg208
I6
sg209
I6
sa(dp211
g205
I10
sg206
F0.00037384033203125
sg207
F0.002398967742919922
sg208
I5
sg209
I5
sa(dp212
g205
I1
sg206
F0.0003590583801269531
sg207
F0.0024073123931884766
sg208
I2
sg209
I2
sasS'total_cqs'
p213
I11
ssI16
(dp214
S'iters'
p215
I1
sS'meta'
p216
(lp217
(dp218
S'objective'
p219
I30
sS'query_time'
p220
F0.044898033142089844
sS'comp_time'
p221
F0.00010800361633300781
sS'exec_cq'
p222
I8
sS'total_cq'
p223
I8
sasS'total_cqs'
p224
I8
ssI17
(dp225
S'iters'
p226
I3
sS'meta'
p227
(lp228
(dp229
S'objective'
p230
I2
sS'query_time'
p231
F0.943958044052124
sS'comp_time'
p232
F0.018346786499023438
sS'exec_cq'
p233
I11
sS'total_cq'
p234
I11
sa(dp235
g230
I10
sg231
F0.00013494491577148438
sg232
F0.0006330013275146484
sg233
I6
sg234
I6
sa(dp236
g230
I4
sg231
F9.799003601074219e-05
sg232
F0.0005729198455810547
sg233
I2
sg234
I2
sasS'total_cqs'
p237
I11
ssI18
(dp238
S'iters'
p239
I3
sS'meta'
p240
(lp241
(dp242
S'objective'
p243
I34
sS'query_time'
p244
F0.3104701042175293
sS'comp_time'
p245
F0.005198001861572266
sS'exec_cq'
p246
I11
sS'total_cq'
p247
I11
sa(dp248
g243
I38
sg244
F0.0002579689025878906
sg245
F0.0012819766998291016
sg246
I8
sg247
I8
sa(dp249
g243
I36
sg244
F0.00017690658569335938
sg245
F0.0009698867797851562
sg246
I7
sg247
I7
sasS'total_cqs'
p250
I11
ssI22
(dp251
S'iters'
p252
I1
sS'meta'
p253
(lp254
(dp255
S'objective'
p256
I159
sS'query_time'
p257
F0.08531403541564941
sS'comp_time'
p258
F0.00017380714416503906
sS'exec_cq'
p259
I18
sS'total_cq'
p260
I18
sasS'total_cqs'
p261
I18
ssI23
(dp262
S'iters'
p263
I3
sS'meta'
p264
(lp265
(dp266
S'objective'
p267
I112
sS'query_time'
p268
F0.09626913070678711
sS'comp_time'
p269
F0.0005638599395751953
sS'exec_cq'
p270
I16
sS'total_cq'
p271
I16
sa(dp272
g267
I110
sg268
F8.296966552734375e-05
sg269
F0.0002887248992919922
sg270
I14
sg271
I14
sa(dp273
g267
I107
sg268
F5.4836273193359375e-05
sg269
F6.103515625e-05
sg270
I13
sg271
I13
sasS'total_cqs'
p274
I16
ssI26
(dp275
S'iters'
p276
I1
sS'meta'
p277
(lp278
(dp279
S'objective'
p280
I879
sS'query_time'
p281
F0.16168808937072754
sS'comp_time'
p282
F0.00015211105346679688
sS'exec_cq'
p283
I42
sS'total_cq'
p284
I42
sasS'total_cqs'
p285
I42
ssI27
(dp286
S'iters'
p287
I3
sS'meta'
p288
(lp289
(dp290
S'objective'
p291
I333
sS'query_time'
p292
F17.23676609992981
sS'comp_time'
p293
F1.8603019714355469
sS'exec_cq'
p294
I30
sS'total_cq'
p295
I30
sa(dp296
g291
I0
sg292
F0.3542640209197998
sg293
F1.8967900276184082
sg294
I5
sg295
I5
sa(dp297
g291
I15
sg292
F0.06395816802978516
sg293
F0.4544339179992676
sg294
I2
sg295
I2
sasS'total_cqs'
p298
I30
ssI29
(dp299
S'iters'
p300
I6
sS'meta'
p301
(lp302
(dp303
S'objective'
p304
I301
sS'query_time'
p305
F134.4954550266266
sS'comp_time'
p306
F13.290977001190186
sS'exec_cq'
p307
I49
sS'total_cq'
p308
I49
sa(dp309
g304
I4
sg305
F0.021278858184814453
sg306
F0.046343088150024414
sg307
I17
sg308
I17
sa(dp310
g304
I1
sg305
F0.0013518333435058594
sg306
F0.005036115646362305
sg307
I9
sg308
I9
sa(dp311
g304
I1
sg305
F0.0006420612335205078
sg306
F0.003392934799194336
sg307
I5
sg308
I5
sa(dp312
g304
I22
sg305
F0.0008649826049804688
sg306
F0.0028808116912841797
sg307
I3
sg308
I3
sa(dp313
g304
I10
sg305
F0.0005791187286376953
sg306
F0.0027971267700195312
sg307
I2
sg308
I2
sasS'total_cqs'
p314
I49
ssI30
(dp315
S'iters'
p316
I1
sS'meta'
p317
(lp318
(dp319
S'objective'
p320
I1
sS'query_time'
p321
F0.679102897644043
sS'comp_time'
p322
F0.023678302764892578
sS'exec_cq'
p323
I2
sS'total_cq'
p324
I2
sasS'total_cqs'
p325
I2
ssI32
(dp326
S'iters'
p327
I1
sS'meta'
p328
(lp329
(dp330
S'objective'
p331
I1
sS'query_time'
p332
F0.009864091873168945
sS'comp_time'
p333
F0.00032210350036621094
sS'exec_cq'
p334
I2
sS'total_cq'
p335
I2
sasS'total_cqs'
p336
I2
ssI33
(dp337
S'iters'
p338
I5
sS'meta'
p339
(lp340
(dp341
S'objective'
p342
I3626
sS'query_time'
p343
F14.805052995681763
sS'comp_time'
p344
F0.12693309783935547
sS'exec_cq'
p345
I103
sS'total_cq'
p346
I103
sa(dp347
g342
I1
sg343
F0.007570981979370117
sg344
F0.04465675354003906
sg345
I16
sg346
I16
sa(dp348
g342
I2
sg343
F0.002707958221435547
sg344
F0.008656978607177734
sg345
I9
sg346
I9
sa(dp349
g342
I3
sg343
F0.00023889541625976562
sg344
F0.0010249614715576172
sg345
I4
sg346
I4
sa(dp350
g342
I56
sg343
F0.00013899803161621094
sg344
F0.0009160041809082031
sg345
I2
sg346
I2
sasS'total_cqs'
p351
I103
ssI34
(dp352
S'iters'
p353
I1
sS'meta'
p354
(lp355
(dp356
S'objective'
p357
I1
sS'query_time'
p358
F0.0283968448638916
sS'comp_time'
p359
F0.0008037090301513672
sS'exec_cq'
p360
I2
sS'total_cq'
p361
I2
sasS'total_cqs'
p362
I2
ssI35
(dp363
S'iters'
p364
I22
sS'meta'
p365
(lp366
(dp367
S'objective'
p368
I2365
sS'query_time'
p369
F48.53510808944702
sS'comp_time'
p370
F3.4597437381744385
sS'exec_cq'
p371
I70
sS'total_cq'
p372
I70
sa(dp373
g368
I2047
sg369
F0.9065229892730713
sg370
F3.7486319541931152
sg371
I69
sg372
I69
sa(dp374
g368
I2136
sg369
F0.8869590759277344
sg370
F3.5333473682403564
sg371
I66
sg372
I66
sa(dp375
g368
I2092
sg369
F0.8305740356445312
sg370
F3.1843693256378174
sg371
I65
sg372
I65
sa(dp376
g368
I2049
sg369
F0.0002028942108154297
sg370
F0.04487299919128418
sg371
I64
sg372
I64
sa(dp377
g368
I2090
sg369
F0.00016117095947265625
sg370
F0.0498201847076416
sg371
I63
sg372
I63
sa(dp378
g368
I1916
sg369
F0.2734951972961426
sg370
F0.2568340301513672
sg371
I62
sg372
I62
sa(dp379
g368
I1868
sg369
F0.06912517547607422
sg370
F0.06457805633544922
sg371
I60
sg372
I60
sa(dp380
g368
I1802
sg369
F0.2793700695037842
sg370
F0.2401270866394043
sg371
I59
sg372
I59
sa(dp381
g368
I1511
sg369
F0.04906797409057617
sg370
F0.05046701431274414
sg371
I58
sg372
I58
sa(dp382
g368
I1576
sg369
F0.3278391361236572
sg370
F0.20327091217041016
sg371
I54
sg372
I54
sa(dp383
g368
I1409
sg369
F0.22417497634887695
sg370
F0.21150493621826172
sg371
I53
sg372
I53
sa(dp384
g368
I1361
sg369
F0.044512033462524414
sg370
F0.0356597900390625
sg371
I49
sg372
I49
sa(dp385
g368
I1263
sg369
F0.3317990303039551
sg370
F0.16372895240783691
sg371
I47
sg372
I47
sa(dp386
g368
I1162
sg369
F0.18714094161987305
sg370
F0.13828110694885254
sg371
I45
sg372
I45
sa(dp387
g368
I849
sg369
F0.23595380783081055
sg370
F0.10503602027893066
sg371
I43
sg372
I43
sa(dp388
g368
I887
sg369
F0.22536492347717285
sg370
F0.09300899505615234
sg371
I36
sg372
I36
sa(dp389
g368
I888
sg369
F0.02094101905822754
sg370
F0.019292116165161133
sg371
I34
sg372
I34
sa(dp390
g368
I835
sg369
F0.34412503242492676
sg370
F0.025038957595825195
sg371
I33
sg372
I33
sa(dp391
g368
I818
sg369
F0.0838778018951416
sg370
F0.08595705032348633
sg371
I31
sg372
I31
sa(dp392
g368
I758
sg369
F0.09006071090698242
sg370
F0.07230901718139648
sg371
I30
sg372
I30
sa(dp393
g368
I8
sg369
F0.03165721893310547
sg370
F0.009702920913696289
sg371
I2
sg372
I2
sasS'total_cqs'
p394
I70
ssI36
(dp395
S'iters'
p396
I4
sS'meta'
p397
(lp398
(dp399
S'objective'
p400
I369
sS'query_time'
p401
F0.8158278465270996
sS'comp_time'
p402
F0.024764060974121094
sS'exec_cq'
p403
I33
sS'total_cq'
p404
I33
sa(dp405
g400
I331
sg401
F0.0020089149475097656
sg402
F0.008475780487060547
sg403
I29
sg404
I29
sa(dp406
g400
I346
sg401
F0.0011470317840576172
sg402
F0.005700111389160156
sg403
I25
sg404
I25
sa(dp407
g400
I352
sg401
F0.0007710456848144531
sg402
F0.004517793655395508
sg403
I24
sg404
I24
sasS'total_cqs'
p408
I33
ssI37
(dp409
S'iters'
p410
I1
sS'meta'
p411
(lp412
(dp413
S'objective'
p414
I1
sS'query_time'
p415
F0.010203123092651367
sS'comp_time'
p416
F0.00030922889709472656
sS'exec_cq'
p417
I2
sS'total_cq'
p418
I2
sasS'total_cqs'
p419
I2
ssI38
(dp420
S'iters'
p421
I2
sS'meta'
p422
(lp423
(dp424
S'objective'
p425
I0
sS'query_time'
p426
F0.02498793601989746
sS'comp_time'
p427
F0.0006570816040039062
sS'exec_cq'
p428
I4
sS'total_cq'
p429
I4
sa(dp430
g425
I1
sg426
F6.914138793945312e-05
sg427
F0.00033020973205566406
sg428
I2
sg429
I2
sasS'total_cqs'
p431
I4
ssI39
(dp432
S'iters'
p433
I2
sS'meta'
p434
(lp435
(dp436
S'objective'
p437
I536
sS'query_time'
p438
F0.18319201469421387
sS'comp_time'
p439
F0.0014569759368896484
sS'exec_cq'
p440
I44
sS'total_cq'
p441
I44
sa(dp442
g437
I739
sg438
F0.0003249645233154297
sg439
F0.0011639595031738281
sg440
I37
sg441
I37
sasS'total_cqs'
p443
I44
ssI40
(dp444
S'iters'
p445
I1
sS'meta'
p446
(lp447
(dp448
S'objective'
p449
I22
sS'query_time'
p450
F0.04241299629211426
sS'comp_time'
p451
F8.130073547363281e-05
sS'exec_cq'
p452
I7
sS'total_cq'
p453
I7
sasS'total_cqs'
p454
I7
ssI41
(dp455
S'iters'
p456
I1
sS'meta'
p457
(lp458
(dp459
S'objective'
p460
I70
sS'query_time'
p461
F0.11856818199157715
sS'comp_time'
p462
F0.0001518726348876953
sS'exec_cq'
p463
I12
sS'total_cq'
p464
I12
sasS'total_cqs'
p465
I12
ssI42
(dp466
S'iters'
p467
I3
sS'meta'
p468
(lp469
(dp470
S'objective'
p471
I795
sS'query_time'
p472
F0.1436479091644287
sS'comp_time'
p473
F0.00022101402282714844
sS'exec_cq'
p474
I41
sS'total_cq'
p475
I41
sa(dp476
g471
I766
sg472
F0.00016117095947265625
sg473
F0.00010895729064941406
sg474
I40
sg475
I40
sa(dp477
g471
I773
sg472
F0.00011610984802246094
sg473
F8.296966552734375e-05
sg474
I39
sg475
I39
sasS'total_cqs'
p478
I41
ssI43
(dp479
S'iters'
p480
I1
sS'meta'
p481
(lp482
(dp483
S'objective'
p484
I22
sS'query_time'
p485
F0.036000967025756836
sS'comp_time'
p486
F0.0001590251922607422
sS'exec_cq'
p487
I7
sS'total_cq'
p488
I7
sasS'total_cqs'
p489
I7
ssI44
(dp490
S'iters'
p491
I4
sS'meta'
p492
(lp493
(dp494
S'objective'
p495
I696
sS'query_time'
p496
F0.17181110382080078
sS'comp_time'
p497
F0.0013511180877685547
sS'exec_cq'
p498
I47
sS'total_cq'
p499
I47
sa(dp500
g495
I766
sg496
F0.0003609657287597656
sg497
F0.0013420581817626953
sg498
I40
sg499
I40
sa(dp501
g495
I5
sg496
F0.001522064208984375
sg497
F0.0007021427154541016
sg498
I3
sg499
I3
sa(dp502
g495
I13
sg496
F2.5987625122070312e-05
sg497
F9.822845458984375e-05
sg498
I2
sg499
I2
sasS'total_cqs'
p503
I47
ssI46
(dp504
S'iters'
p505
I3
sS'meta'
p506
(lp507
(dp508
S'objective'
p509
I9
sS'query_time'
p510
F0.01971292495727539
sS'comp_time'
p511
F0.0003619194030761719
sS'exec_cq'
p512
I6
sS'total_cq'
p513
I6
sa(dp514
g509
I7
sg510
F3.0994415283203125e-05
sg511
F6.4849853515625e-05
sg512
I5
sg513
I5
sa(dp515
g509
I5
sg510
F2.8133392333984375e-05
sg511
F6.413459777832031e-05
sg512
I4
sg513
I4
sasS'total_cqs'
p516
I6
ssI47
(dp517
S'iters'
p518
I1
sS'meta'
p519
(lp520
(dp521
S'objective'
p522
I1
sS'query_time'
p523
F0.009102106094360352
sS'comp_time'
p524
F0.0002300739288330078
sS'exec_cq'
p525
I2
sS'total_cq'
p526
I2
sasS'total_cqs'
p527
I2
ssI50
(dp528
S'iters'
p529
I3
sS'meta'
p530
(lp531
(dp532
S'objective'
p533
I5
sS'query_time'
p534
F0.015623092651367188
sS'comp_time'
p535
F0.0001430511474609375
sS'exec_cq'
p536
I5
sS'total_cq'
p537
I5
sa(dp538
g533
I2
sg534
F2.9802322387695312e-05
sg535
F8.082389831542969e-05
sg536
I4
sg537
I4
sa(dp539
g533
I0
sg534
F2.4080276489257812e-05
sg535
F7.891654968261719e-05
sg536
I3
sg537
I3
sasS'total_cqs'
p540
I5
ssI51
(dp541
S'iters'
p542
I1
sS'meta'
p543
(lp544
(dp545
S'objective'
p546
I1
sS'query_time'
p547
F0.00858306884765625
sS'comp_time'
p548
F0.00018787384033203125
sS'exec_cq'
p549
I2
sS'total_cq'
p550
I2
sasS'total_cqs'
p551
I2
ssI52
(dp552
S'iters'
p553
I1
sS'meta'
p554
(lp555
(dp556
S'objective'
p557
I1
sS'query_time'
p558
F0.010853052139282227
sS'comp_time'
p559
F0.00019097328186035156
sS'exec_cq'
p560
I2
sS'total_cq'
p561
I2
sasS'total_cqs'
p562
I2
ssI53
(dp563
S'iters'
p564
I2
sS'meta'
p565
(lp566
(dp567
S'objective'
p568
I2
sS'query_time'
p569
F0.02335500717163086
sS'comp_time'
p570
F0.00048422813415527344
sS'exec_cq'
p571
I4
sS'total_cq'
p572
I4
sa(dp573
g568
I2
sg569
F6.914138793945312e-05
sg570
F0.0003578662872314453
sg571
I3
sg572
I3
sasS'total_cqs'
p574
I4
ssI54
(dp575
S'iters'
p576
I2
sS'meta'
p577
(lp578
(dp579
S'objective'
p580
I0
sS'query_time'
p581
F0.012301921844482422
sS'comp_time'
p582
F0.0002460479736328125
sS'exec_cq'
p583
I3
sS'total_cq'
p584
I3
sa(dp585
g580
I1
sg581
F3.218650817871094e-05
sg582
F0.00018596649169921875
sg583
I2
sg584
I2
sasS'total_cqs'
p586
I3
ssI55
(dp587
S'iters'
p588
I9
sS'meta'
p589
(lp590
(dp591
S'objective'
p592
I4823
sS'query_time'
p593
F2.380758047103882
sS'comp_time'
p594
F0.030338764190673828
sS'exec_cq'
p595
I109
sS'total_cq'
p596
I109
sa(dp597
g592
I4673
sg593
F0.0007131099700927734
sg594
F0.0016682147979736328
sg595
I97
sg596
I97
sa(dp598
g592
I4591
sg593
F0.0003018379211425781
sg594
F0.0007750988006591797
sg595
I91
sg596
I91
sa(dp599
g592
I4528
sg593
F0.00028705596923828125
sg594
F0.0007889270782470703
sg595
I87
sg596
I87
sa(dp600
g592
I4406
sg593
F0.0002770423889160156
sg594
F0.0007891654968261719
sg595
I85
sg596
I85
sa(dp601
g592
I4317
sg593
F0.00026416778564453125
sg594
F0.0005807876586914062
sg595
I83
sg596
I83
sa(dp602
g592
I4328
sg593
F0.00023484230041503906
sg594
F0.0004630088806152344
sg595
I81
sg596
I81
sa(dp603
g592
I4314
sg593
F0.0002429485321044922
sg594
F0.0003910064697265625
sg595
I80
sg596
I80
sa(dp604
g592
I4288
sg593
F0.00023293495178222656
sg594
F0.0003762245178222656
sg595
I79
sg596
I79
sasS'total_cqs'
p605
I109
ssI56
(dp606
S'iters'
p607
I6
sS'meta'
p608
(lp609
(dp610
S'objective'
p611
I1804
sS'query_time'
p612
F3.4374289512634277
sS'comp_time'
p613
F0.12645411491394043
sS'exec_cq'
p614
I76
sS'total_cq'
p615
I76
sa(dp616
g611
I13
sg612
F0.00463414192199707
sg613
F0.009024858474731445
sg614
I16
sg615
I16
sa(dp617
g611
I3
sg612
F0.003487110137939453
sg613
F0.008073806762695312
sg614
I10
sg615
I10
sa(dp618
g611
I0
sg612
F0.0013899803161621094
sg613
F0.004864931106567383
sg614
I5
sg615
I5
sa(dp619
g611
I23
sg612
F0.0003650188446044922
sg613
F0.002215147018432617
sg614
I3
sg615
I3
sa(dp620
g611
I16
sg612
F0.00011301040649414062
sg613
F0.0006198883056640625
sg614
I2
sg615
I2
sasS'total_cqs'
p621
I76
ssI57
(dp622
S'iters'
p623
I7
sS'meta'
p624
(lp625
(dp626
S'objective'
p627
I36
sS'query_time'
p628
F67.82483291625977
sS'comp_time'
p629
F3.442089080810547
sS'exec_cq'
p630
I51
sS'total_cq'
p631
I51
sa(dp632
g627
I95
sg628
F0.013997077941894531
sg629
F0.02780914306640625
sg630
I27
sg631
I27
sa(dp633
g627
I7
sg628
F0.010976076126098633
sg629
F0.2282571792602539
sg630
I12
sg631
I12
sa(dp634
g627
I0
sg628
F0.007093191146850586
sg629
F0.019524097442626953
sg630
I9
sg631
I9
sa(dp635
g627
I1
sg628
F0.0015578269958496094
sg629
F0.005076885223388672
sg630
I5
sg631
I5
sa(dp636
g627
I1
sg628
F0.0006930828094482422
sg629
F0.0028829574584960938
sg630
I3
sg631
I3
sa(dp637
g627
I9
sg628
F0.00045299530029296875
sg629
F0.002315044403076172
sg630
I2
sg631
I2
sasS'total_cqs'
p638
I51
ssI58
(dp639
S'iters'
p640
I8
sS'meta'
p641
(lp642
(dp643
S'objective'
p644
I90347
sS'query_time'
p645
F291.98029613494873
sS'comp_time'
p646
F18.19826316833496
sS'exec_cq'
p647
I486
sS'total_cq'
p648
I486
sa(dp649
g644
I8217
sg645
F0.037461042404174805
sg646
F0.19356298446655273
sg647
I64
sg648
I64
sa(dp650
g644
I3017
sg645
F0.025271177291870117
sg646
F0.1909327507019043
sg647
I52
sg648
I52
sa(dp651
g644
I678
sg645
F0.01516413688659668
sg646
F0.8565490245819092
sg647
I32
sg648
I32
sa(dp652
g644
I0
sg645
F0.008656978607177734
sg646
F0.03698897361755371
sg647
I15
sg648
I15
sa(dp653
g644
I23
sg645
F0.004746198654174805
sg646
F0.01300191879272461
sg647
I7
sg648
I7
sa(dp654
g644
I64
sg645
F0.002905130386352539
sg646
F0.009452104568481445
sg647
I4
sg648
I4
sa(dp655
g644
I264
sg645
F0.0007581710815429688
sg646
F0.003360271453857422
sg647
I2
sg648
I2
sasS'total_cqs'
p656
I486
ssI59
(dp657
S'iters'
p658
I2
sS'meta'
p659
(lp660
(dp661
S'objective'
p662
I20
sS'query_time'
p663
F0.05834698677062988
sS'comp_time'
p664
F0.0009148120880126953
sS'exec_cq'
p665
I7
sS'total_cq'
p666
I7
sa(dp667
g662
I2
sg663
F0.00016617774963378906
sg664
F0.004356861114501953
sg665
I2
sg666
I2
sasS'total_cqs'
p668
I7
ssI60
(dp669
S'iters'
p670
I3
sS'meta'
p671
(lp672
(dp673
S'objective'
p674
I5
sS'query_time'
p675
F0.024634122848510742
sS'comp_time'
p676
F0.0003521442413330078
sS'exec_cq'
p677
I5
sS'total_cq'
p678
I5
sa(dp679
g674
I2
sg675
F3.409385681152344e-05
sg676
F0.00011610984802246094
sg677
I4
sg678
I4
sa(dp680
g674
I0
sg675
F1.9073486328125e-05
sg676
F5.1021575927734375e-05
sg677
I3
sg678
I3
sasS'total_cqs'
p681
I5
ssI62
(dp682
S'iters'
p683
I3
sS'meta'
p684
(lp685
(dp686
S'objective'
p687
I40
sS'query_time'
p688
F0.03626394271850586
sS'comp_time'
p689
F0.00016808509826660156
sS'exec_cq'
p690
I12
sS'total_cq'
p691
I12
sa(dp692
g687
I37
sg688
F4.291534423828125e-05
sg689
F5.984306335449219e-05
sg690
I9
sg691
I9
sa(dp693
g687
I40
sg688
F3.1948089599609375e-05
sg689
F5.0067901611328125e-05
sg690
I8
sg691
I8
sasS'total_cqs'
p694
I12
ssI64
(dp695
S'iters'
p696
I3
sS'meta'
p697
(lp698
(dp699
S'objective'
p700
I12
sS'query_time'
p701
F0.15169906616210938
sS'comp_time'
p702
F0.003520965576171875
sS'exec_cq'
p703
I12
sS'total_cq'
p704
I12
sa(dp705
g700
I1
sg701
F0.0001838207244873047
sg702
F0.0007691383361816406
sg703
I4
sg704
I4
sa(dp706
g700
I8
sg701
F3.2901763916015625e-05
sg702
F0.00013399124145507812
sg703
I2
sg704
I2
sasS'total_cqs'
p707
I12
ssI65
(dp708
S'iters'
p709
I4
sS'meta'
p710
(lp711
(dp712
S'objective'
p713
I192
sS'query_time'
p714
F0.8520879745483398
sS'comp_time'
p715
F0.036314964294433594
sS'exec_cq'
p716
I27
sS'total_cq'
p717
I27
sa(dp718
g713
I5
sg714
F0.0011849403381347656
sg715
F0.004832029342651367
sg716
I7
sg717
I7
sa(dp719
g713
I1
sg714
F0.00021195411682128906
sg715
F0.0010271072387695312
sg716
I3
sg717
I3
sa(dp720
g713
I8
sg714
F0.00011014938354492188
sg715
F0.0006430149078369141
sg716
I2
sg717
I2
sasS'total_cqs'
p721
I27
ssI67
(dp722
S'iters'
p723
I2
sS'meta'
p724
(lp725
(dp726
S'objective'
p727
I566
sS'query_time'
p728
F1.3987681865692139
sS'comp_time'
p729
F0.006307363510131836
sS'exec_cq'
p730
I35
sS'total_cq'
p731
I35
sa(dp732
g727
I12
sg728
F0.0010678768157958984
sg729
F0.0049588680267333984
sg730
I2
sg731
I2
sasS'total_cqs'
p733
I35
ssI69
(dp734
S'iters'
p735
I1
sS'meta'
p736
(lp737
(dp738
S'objective'
p739
I1298
sS'query_time'
p740
F0.21868109703063965
sS'comp_time'
p741
F0.00024580955505371094
sS'exec_cq'
p742
I51
sS'total_cq'
p743
I51
sasS'total_cqs'
p744
I51
ssI70
(dp745
S'iters'
p746
I4
sS'meta'
p747
(lp748
(dp749
S'objective'
p750
I9
sS'query_time'
p751
F0.03514814376831055
sS'comp_time'
p752
F0.00021195411682128906
sS'exec_cq'
p753
I6
sS'total_cq'
p754
I6
sa(dp755
g750
I5
sg751
F4.696846008300781e-05
sg752
F0.00013518333435058594
sg753
I5
sg754
I5
sa(dp756
g750
I2
sg751
F3.695487976074219e-05
sg752
F0.000141143798828125
sg753
I4
sg754
I4
sa(dp757
g750
I0
sg751
F3.1948089599609375e-05
sg752
F0.0001652240753173828
sg753
I3
sg754
I3
sasS'total_cqs'
p758
I6
ssI71
(dp759
S'iters'
p760
I6
sS'meta'
p761
(lp762
(dp763
S'objective'
p764
I3295
sS'query_time'
p765
F0.395827054977417
sS'comp_time'
p766
F0.00090789794921875
sS'exec_cq'
p767
I85
sS'total_cq'
p768
I85
sa(dp769
g764
I3117
sg765
F0.00037598609924316406
sg766
F0.0007257461547851562
sg767
I81
sg768
I81
sa(dp770
g764
I3046
sg765
F0.00029206275939941406
sg766
F0.0005640983581542969
sg767
I78
sg768
I78
sa(dp771
g764
I2959
sg765
F0.00026702880859375
sg766
F0.0004887580871582031
sg767
I74
sg768
I74
sa(dp772
g764
I4
sg765
F0.0017571449279785156
sg766
F0.0001609325408935547
sg767
I3
sg768
I3
sa(dp773
g764
I9
sg765
F0.003609895706176758
sg766
F0.00017309188842773438
sg767
I2
sg768
I2
sasS'total_cqs'
p774
I85
ssI72
(dp775
S'iters'
p776
I3
sS'meta'
p777
(lp778
(dp779
S'objective'
p780
I10
sS'query_time'
p781
F0.3658790588378906
sS'comp_time'
p782
F0.006482839584350586
sS'exec_cq'
p783
I8
sS'total_cq'
p784
I8
sa(dp785
g780
I1
sg781
F0.0003478527069091797
sg782
F0.002226114273071289
sg783
I6
sg784
I6
sa(dp786
g780
I5
sg781
F3.695487976074219e-05
sg782
F0.00014090538024902344
sg783
I3
sg784
I3
sasS'total_cqs'
p787
I8
ssI75
(dp788
S'iters'
p789
I3
sS'meta'
p790
(lp791
(dp792
S'objective'
p793
I5
sS'query_time'
p794
F0.013149023056030273
sS'comp_time'
p795
F0.00011086463928222656
sS'exec_cq'
p796
I5
sS'total_cq'
p797
I5
sa(dp798
g793
I2
sg794
F3.0994415283203125e-05
sg795
F7.867813110351562e-05
sg796
I4
sg797
I4
sa(dp799
g793
I0
sg794
F2.4080276489257812e-05
sg795
F7.200241088867188e-05
sg796
I3
sg797
I3
sasS'total_cqs'
p800
I5
ssI76
(dp801
S'iters'
p802
I1
sS'meta'
p803
(lp804
(dp805
S'objective'
p806
I1
sS'query_time'
p807
F0.02432394027709961
sS'comp_time'
p808
F0.00036215782165527344
sS'exec_cq'
p809
I2
sS'total_cq'
p810
I2
sasS'total_cqs'
p811
I2
ssI103
(dp812
S'iters'
p813
I1
sS'meta'
p814
(lp815
(dp816
S'objective'
p817
I70
sS'query_time'
p818
F0.09418606758117676
sS'comp_time'
p819
F0.00017189979553222656
sS'exec_cq'
p820
I12
sS'total_cq'
p821
I12
sasS'total_cqs'
p822
I12
ssI104
(dp823
S'iters'
p824
I2
sS'meta'
p825
(lp826
(dp827
S'objective'
p828
I0
sS'query_time'
p829
F1.5965309143066406
sS'comp_time'
p830
F0.08932209014892578
sS'exec_cq'
p831
I4
sS'total_cq'
p832
I4
sa(dp833
g828
I1
sg829
F0.011368989944458008
sg830
F0.12348198890686035
sg831
I2
sg832
I2
sasS'total_cqs'
p834
I4
ssI106
(dp835
S'iters'
p836
I1
sS'meta'
p837
(lp838
(dp839
S'objective'
p840
I6
sS'query_time'
p841
F0.024725914001464844
sS'comp_time'
p842
F9.632110595703125e-05
sS'exec_cq'
p843
I4
sS'total_cq'
p844
I4
sasS'total_cqs'
p845
I4
ssI107
(dp846
S'iters'
p847
I2
sS'meta'
p848
(lp849
(dp850
S'objective'
p851
I68
sS'query_time'
p852
F0.1328749656677246
sS'comp_time'
p853
F0.00018715858459472656
sS'exec_cq'
p854
I16
sS'total_cq'
p855
I16
sa(dp856
g851
I24
sg852
F0.006937980651855469
sg853
F0.00013208389282226562
sg854
I3
sg855
I3
sasS'total_cqs'
p857
I16
ss.