(dp0
I1
(dp1
S'iters'
p2
I1
sS'meta'
p3
(lp4
(dp5
S'objective'
p6
I58
sS'query_time'
p7
F0.014768838882446289
sS'comp_time'
p8
F0.00038504600524902344
sS'exec_cq'
p9
I12
sS'total_cq'
p10
I12
sasS'total_cqs'
p11
I12
ssI2
(dp12
S'iters'
p13
I4
sS'meta'
p14
(lp15
(dp16
S'objective'
p17
I260
sS'query_time'
p18
F0.027437925338745117
sS'comp_time'
p19
F0.0008771419525146484
sS'exec_cq'
p20
I13
sS'total_cq'
p21
I27
sa(dp22
g17
I237
sg18
F0.027940988540649414
sg19
F0.0007429122924804688
sg20
I14
sg21
I24
sa(dp23
g17
I208
sg18
F0.00012111663818359375
sg19
F0.0006339550018310547
sg20
I12
sg21
I22
sa(dp24
g17
I199
sg18
F6.985664367675781e-05
sg19
F0.00023674964904785156
sg20
I10
sg21
I19
sasS'total_cqs'
p25
I27
ssI3
(dp26
S'iters'
p27
I4
sS'meta'
p28
(lp29
(dp30
S'objective'
p31
I672
sS'query_time'
p32
F208.84096384048462
sS'comp_time'
p33
F0.0263059139251709
sS'exec_cq'
p34
I16
sS'total_cq'
p35
I43
sa(dp36
g31
I571
sg32
F225.50721716880798
sg33
F3.2120301723480225
sg34
I14
sg35
I35
sa(dp37
g31
I334
sg32
F121.89732193946838
sg33
F1.085554838180542
sg34
I17
sg35
I28
sa(dp38
g31
I444
sg32
F11.310083866119385
sg33
F0.00030684471130371094
sg34
I20
sg35
I20
sasS'total_cqs'
p39
I43
ssI4
(dp40
S'iters'
p41
I2
sS'meta'
p42
(lp43
(dp44
S'objective'
p45
I40
sS'query_time'
p46
F4.711907863616943
sS'comp_time'
p47
F1.2094061374664307
sS'exec_cq'
p48
I11
sS'total_cq'
p49
I11
sa(dp50
g45
I7
sg46
F0.2201218605041504
sg47
F1.2682790756225586
sg48
I2
sg49
I2
sasS'total_cqs'
p51
I11
ssI5
(dp52
S'iters'
p53
I3
sS'meta'
p54
(lp55
(dp56
S'objective'
p57
I0
sS'query_time'
p58
F34.81472396850586
sS'comp_time'
p59
F6.693994045257568
sS'exec_cq'
p60
I8
sS'total_cq'
p61
I8
sa(dp62
g57
I2
sg58
F0.4533388614654541
sg59
F2.0477981567382812
sg60
I4
sg61
I4
sa(dp63
g57
I6
sg58
F0.009445905685424805
sg59
F0.30549097061157227
sg60
I2
sg61
I2
sasS'total_cqs'
p64
I8
ssI6
(dp65
S'iters'
p66
I3
sS'meta'
p67
(lp68
(dp69
S'objective'
p70
I47
sS'query_time'
p71
F37.70407295227051
sS'comp_time'
p72
F7.130549907684326
sS'exec_cq'
p73
I18
sS'total_cq'
p74
I18
sa(dp75
g70
I0
sg71
F0.8692929744720459
sg72
F4.613746166229248
sg73
I7
sg74
I7
sa(dp76
g70
I1
sg71
F0.6836991310119629
sg72
F3.924943685531616
sg73
I4
sg74
I4
sasS'total_cqs'
p77
I18
ssI7
(dp78
S'iters'
p79
I3
sS'meta'
p80
(lp81
(dp82
S'objective'
p83
I1
sS'query_time'
p84
F12.159634113311768
sS'comp_time'
p85
F3.1501736640930176
sS'exec_cq'
p86
I9
sS'total_cq'
p87
I9
sa(dp88
g83
I1
sg84
F0.37224888801574707
sg85
F2.255326986312866
sg86
I6
sg87
I6
sa(dp89
g83
I4
sg84
F0.004172801971435547
sg85
F0.03442025184631348
sg86
I2
sg87
I2
sasS'total_cqs'
p90
I9
ssI8
(dp91
S'iters'
p92
I3
sS'meta'
p93
(lp94
(dp95
S'objective'
p96
I294
sS'query_time'
p97
F0.06606721878051758
sS'comp_time'
p98
F0.0023267269134521484
sS'exec_cq'
p99
I14
sS'total_cq'
p100
I27
sa(dp101
g96
I244
sg97
F0.03880786895751953
sg98
F0.0006041526794433594
sg99
I13
sg100
I22
sa(dp102
g96
I2
sg97
F4.1961669921875e-05
sg98
F0.0002942085266113281
sg99
I2
sg100
I2
sasS'total_cqs'
p103
I27
ssI9
(dp104
S'iters'
p105
I2
sS'meta'
p106
(lp107
(dp108
S'objective'
p109
I4
sS'query_time'
p110
F0.039797067642211914
sS'comp_time'
p111
F0.0004761219024658203
sS'exec_cq'
p112
I7
sS'total_cq'
p113
I7
sa(dp114
g109
I2
sg110
F3.0040740966796875e-05
sg111
F0.00011181831359863281
sg112
I2
sg113
I2
sasS'total_cqs'
p115
I7
ssI10
(dp116
S'iters'
p117
I6
sS'meta'
p118
(lp119
(dp120
S'objective'
p121
I604
sS'query_time'
p122
F0.11449885368347168
sS'comp_time'
p123
F0.003298044204711914
sS'exec_cq'
p124
I28
sS'total_cq'
p125
I51
sa(dp126
g121
I377
sg122
F0.10427188873291016
sg123
F0.001695871353149414
sg124
I23
sg125
I37
sa(dp127
g121
I461
sg122
F0.00021696090698242188
sg123
F0.0010521411895751953
sg124
I14
sg125
I25
sa(dp128
g121
I432
sg122
F4.696846008300781e-05
sg123
F0.0001430511474609375
sg124
I10
sg125
I21
sa(dp129
g121
I405
sg122
F6.318092346191406e-05
sg123
F0.0002129077911376953
sg124
I11
sg125
I19
sa(dp130
g121
I33
sg122
F2.47955322265625e-05
sg123
F0.00015926361083984375
sg124
I3
sg125
I3
sasS'total_cqs'
p131
I51
ssI11
(dp132
S'iters'
p133
I5
sS'meta'
p134
(lp135
(dp136
S'objective'
p137
I990
sS'query_time'
p138
F0.4898531436920166
sS'comp_time'
p139
F0.047601938247680664
sS'exec_cq'
p140
I63
sS'total_cq'
p141
I63
sa(dp142
g137
I977
sg138
F0.0014090538024902344
sg139
F0.008394956588745117
sg140
I47
sg141
I47
sa(dp143
g137
I7
sg138
F0.00028204917907714844
sg139
F0.0021691322326660156
sg140
I9
sg141
I9
sa(dp144
g137
I8
sg138
F3.1948089599609375e-05
sg139
F0.00018215179443359375
sg140
I4
sg141
I4
sa(dp145
g137
I38
sg138
F1.4781951904296875e-05
sg139
F9.584426879882812e-05
sg140
I2
sg141
I2
sasS'total_cqs'
p146
I63
ssI12
(dp147
S'iters'
p148
I3
sS'meta'
p149
(lp150
(dp151
S'objective'
p152
I851
sS'query_time'
p153
F0.11497807502746582
sS'comp_time'
p154
F0.003757953643798828
sS'exec_cq'
p155
I22
sS'total_cq'
p156
I50
sa(dp157
g152
I10
sg153
F0.0002601146697998047
sg154
F0.002107858657836914
sg155
I8
sg156
I8
sa(dp158
g152
I23
sg153
F7.796287536621094e-05
sg154
F0.000614166259765625
sg155
I5
sg156
I5
sasS'total_cqs'
p159
I50
ssI13
(dp160
S'iters'
p161
I3
sS'meta'
p162
(lp163
(dp164
S'objective'
p165
I18
sS'query_time'
p166
F0.11088800430297852
sS'comp_time'
p167
F0.0007958412170410156
sS'exec_cq'
p168
I20
sS'total_cq'
p169
I20
sa(dp170
g165
I62
sg166
F7.581710815429688e-05
sg167
F0.0001888275146484375
sg168
I9
sg169
I9
sa(dp171
g165
I15
sg166
F1.9073486328125e-05
sg167
F0.00011110305786132812
sg168
I2
sg169
I2
sasS'total_cqs'
p172
I20
ssI14
(dp173
S'iters'
p174
I3
sS'meta'
p175
(lp176
(dp177
S'objective'
p178
I1
sS'query_time'
p179
F33.84977102279663
sS'comp_time'
p180
F3.325260877609253
sS'exec_cq'
p181
I9
sS'total_cq'
p182
I9
sa(dp183
g178
I2
sg179
F0.006483793258666992
sg180
F0.05178022384643555
sg181
I4
sg182
I4
sa(dp184
g178
I4
sg179
F0.005232095718383789
sg180
F0.05086207389831543
sg181
I2
sg182
I2
sasS'total_cqs'
p185
I9
ssI15
(dp186
S'iters'
p187
I3
sS'meta'
p188
(lp189
(dp190
S'objective'
p191
I0
sS'query_time'
p192
F3.568603038787842
sS'comp_time'
p193
F0.36023521423339844
sS'exec_cq'
p194
I11
sS'total_cq'
p195
I11
sa(dp196
g191
I3
sg192
F0.012562990188598633
sg193
F0.22296500205993652
sg194
I7
sg195
I7
sa(dp197
g191
I2
sg192
F0.012499094009399414
sg193
F0.21259212493896484
sg194
I2
sg195
I2
sasS'total_cqs'
p198
I11
ssI16
(dp199
S'iters'
p200
I1
sS'meta'
p201
(lp202
(dp203
S'objective'
p204
I22
sS'query_time'
p205
F0.014375925064086914
sS'comp_time'
p206
F0.0002040863037109375
sS'exec_cq'
p207
I8
sS'total_cq'
p208
I8
sasS'total_cqs'
p209
I8
ssI17
(dp210
S'iters'
p211
I3
sS'meta'
p212
(lp213
(dp214
S'objective'
p215
I0
sS'query_time'
p216
F0.8374428749084473
sS'comp_time'
p217
F0.04160809516906738
sS'exec_cq'
p218
I11
sS'total_cq'
p219
I11
sa(dp220
g215
I11
sg216
F0.0002760887145996094
sg217
F0.0023670196533203125
sg218
I6
sg219
I6
sa(dp221
g215
I9
sg216
F0.00016999244689941406
sg217
F0.0021047592163085938
sg218
I2
sg219
I2
sasS'total_cqs'
p222
I11
ssI18
(dp223
S'iters'
p224
I1
sS'meta'
p225
(lp226
(dp227
S'objective'
p228
I46
sS'query_time'
p229
F0.16846489906311035
sS'comp_time'
p230
F0.0025300979614257812
sS'exec_cq'
p231
I10
sS'total_cq'
p232
I11
sasS'total_cqs'
p233
I11
ssI19
(dp234
S'iters'
p235
I0
sS'meta'
p236
(lp237
sS'total_cqs'
p238
I1
ssI20
(dp239
S'iters'
p240
I0
sS'meta'
p241
(lp242
sS'total_cqs'
p243
I1
ssI21
(dp244
S'iters'
p245
I0
sS'meta'
p246
(lp247
sS'total_cqs'
p248
I1
ssI22
(dp249
S'iters'
p250
I1
sS'meta'
p251
(lp252
(dp253
S'objective'
p254
I141
sS'query_time'
p255
F0.02492809295654297
sS'comp_time'
p256
F0.0004973411560058594
sS'exec_cq'
p257
I18
sS'total_cq'
p258
I18
sasS'total_cqs'
p259
I18
ssI23
(dp260
S'iters'
p261
I2
sS'meta'
p262
(lp263
(dp264
S'objective'
p265
I104
sS'query_time'
p266
F0.02170109748840332
sS'comp_time'
p267
F0.0005888938903808594
sS'exec_cq'
p268
I8
sS'total_cq'
p269
I16
sa(dp270
g265
I94
sg266
F4.38690185546875e-05
sg267
F0.00010514259338378906
sg268
I7
sg269
I15
sasS'total_cqs'
p271
I16
ssI24
(dp272
S'iters'
p273
I0
sS'meta'
p274
(lp275
sS'total_cqs'
p276
I1
ssI25
(dp277
S'iters'
p278
I0
sS'meta'
p279
(lp280
sS'total_cqs'
p281
I1
ssI26
(dp282
S'iters'
p283
I1
sS'meta'
p284
(lp285
(dp286
S'objective'
p287
I837
sS'query_time'
p288
F0.07816505432128906
sS'comp_time'
p289
F0.0003209114074707031
sS'exec_cq'
p290
I42
sS'total_cq'
p291
I42
sasS'total_cqs'
p292
I42
ssI27
(dp293
S'iters'
p294
I3
sS'meta'
p295
(lp296
(dp297
S'objective'
p298
I361
sS'query_time'
p299
F22.44873595237732
sS'comp_time'
p300
F5.114298343658447
sS'exec_cq'
p301
I30
sS'total_cq'
p302
I30
sa(dp303
g298
I2
sg299
F0.7726840972900391
sg300
F5.982080936431885
sg301
I5
sg302
I5
sa(dp304
g298
I23
sg299
F0.012105941772460938
sg300
F0.45955705642700195
sg301
I2
sg302
I2
sasS'total_cqs'
p305
I30
ssI28
(dp306
S'iters'
p307
I0
sS'meta'
p308
(lp309
sS'total_cqs'
p310
I1
ssI29
(dp311
S'iters'
p312
I5
sS'meta'
p313
(lp314
(dp315
S'objective'
p316
I143
sS'query_time'
p317
F28.896273136138916
sS'comp_time'
p318
F0.6763310432434082
sS'exec_cq'
p319
I35
sS'total_cq'
p320
I49
sa(dp321
g316
I23
sg317
F0.0024518966674804688
sg318
F0.0129852294921875
sg319
I16
sg320
I16
sa(dp322
g316
I10
sg317
F0.001161813735961914
sg318
F0.009826898574829102
sg319
I9
sg320
I9
sa(dp323
g316
I6
sg317
F0.0007879734039306641
sg318
F0.007697343826293945
sg319
I4
sg320
I4
sa(dp324
g316
I11
sg317
F0.0013501644134521484
sg318
F0.006478071212768555
sg319
I2
sg320
I2
sasS'total_cqs'
p325
I49
ssI30
(dp326
S'iters'
p327
I1
sS'meta'
p328
(lp329
(dp330
S'objective'
p331
I1
sS'query_time'
p332
F0.6332039833068848
sS'comp_time'
p333
F0.0657510757446289
sS'exec_cq'
p334
I2
sS'total_cq'
p335
I2
sasS'total_cqs'
p336
I2
ssI31
(dp337
S'iters'
p338
I0
sS'meta'
p339
(lp340
sS'total_cqs'
p341
I1
ssI32
(dp342
S'iters'
p343
I1
sS'meta'
p344
(lp345
(dp346
S'objective'
p347
I1
sS'query_time'
p348
F0.009226799011230469
sS'comp_time'
p349
F0.0019369125366210938
sS'exec_cq'
p350
I2
sS'total_cq'
p351
I2
sasS'total_cqs'
p352
I2
ssI33
(dp353
S'iters'
p354
I4
sS'meta'
p355
(lp356
(dp357
S'objective'
p358
I3508
sS'query_time'
p359
F16.615187883377075
sS'comp_time'
p360
F0.4354438781738281
sS'exec_cq'
p361
I103
sS'total_cq'
p362
I103
sa(dp363
g358
I18
sg359
F0.007991790771484375
sg360
F0.03301382064819336
sg361
I16
sg362
I16
sa(dp364
g358
I39
sg359
F0.0031549930572509766
sg360
F0.024791240692138672
sg361
I9
sg362
I9
sa(dp365
g358
I58
sg359
F0.0004520416259765625
sg360
F0.00368499755859375
sg361
I3
sg362
I3
sasS'total_cqs'
p366
I103
ssI34
(dp367
S'iters'
p368
I1
sS'meta'
p369
(lp370
(dp371
S'objective'
p372
I1
sS'query_time'
p373
F0.011343955993652344
sS'comp_time'
p374
F0.0008690357208251953
sS'exec_cq'
p375
I2
sS'total_cq'
p376
I2
sasS'total_cqs'
p377
I2
ssI35
(dp378
S'iters'
p379
I5
sS'meta'
p380
(lp381
(dp382
S'objective'
p383
I1293
sS'query_time'
p384
F22.498568058013916
sS'comp_time'
p385
F0.15961408615112305
sS'exec_cq'
p386
I50
sS'total_cq'
p387
I70
sa(dp388
g383
I6
sg384
F0.004285097122192383
sg385
F0.02011394500732422
sg386
I16
sg387
I16
sa(dp389
g383
I7
sg384
F0.0025119781494140625
sg385
F0.012958288192749023
sg386
I10
sg387
I10
sa(dp390
g383
I2
sg384
F0.0018100738525390625
sg385
F0.013145208358764648
sg386
I6
sg387
I6
sa(dp391
g383
I37
sg384
F0.0012819766998291016
sg385
F0.008994340896606445
sg386
I3
sg387
I3
sasS'total_cqs'
p392
I70
ssI36
(dp393
S'iters'
p394
I1
sS'meta'
p395
(lp396
(dp397
S'objective'
p398
I509
sS'query_time'
p399
F0.6432030200958252
sS'comp_time'
p400
F0.005401134490966797
sS'exec_cq'
p401
I28
sS'total_cq'
p402
I33
sasS'total_cqs'
p403
I33
ssI37
(dp404
S'iters'
p405
I1
sS'meta'
p406
(lp407
(dp408
S'objective'
p409
I1
sS'query_time'
p410
F0.007739067077636719
sS'comp_time'
p411
F0.0005829334259033203
sS'exec_cq'
p412
I2
sS'total_cq'
p413
I2
sasS'total_cqs'
p414
I2
ssI38
(dp415
S'iters'
p416
I2
sS'meta'
p417
(lp418
(dp419
S'objective'
p420
I0
sS'query_time'
p421
F0.029606103897094727
sS'comp_time'
p422
F0.001032114028930664
sS'exec_cq'
p423
I4
sS'total_cq'
p424
I4
sa(dp425
g420
I3
sg421
F0.00011491775512695312
sg422
F0.0006382465362548828
sg423
I2
sg424
I2
sasS'total_cqs'
p426
I4
ssI39
(dp427
S'iters'
p428
I2
sS'meta'
p429
(lp430
(dp431
S'objective'
p432
I718
sS'query_time'
p433
F0.08272695541381836
sS'comp_time'
p434
F0.0028290748596191406
sS'exec_cq'
p435
I44
sS'total_cq'
p436
I44
sa(dp437
g432
I786
sg433
F0.0003719329833984375
sg434
F0.002460002899169922
sg435
I37
sg436
I37
sasS'total_cqs'
p438
I44
ssI40
(dp439
S'iters'
p440
I1
sS'meta'
p441
(lp442
(dp443
S'objective'
p444
I14
sS'query_time'
p445
F0.02102184295654297
sS'comp_time'
p446
F0.0001380443572998047
sS'exec_cq'
p447
I7
sS'total_cq'
p448
I7
sasS'total_cqs'
p449
I7
ssI41
(dp450
S'iters'
p451
I2
sS'meta'
p452
(lp453
(dp454
S'objective'
p455
I54
sS'query_time'
p456
F0.0861809253692627
sS'comp_time'
p457
F0.00021505355834960938
sS'exec_cq'
p458
I12
sS'total_cq'
p459
I12
sa(dp460
g455
I46
sg456
F7.987022399902344e-05
sg457
F0.00015282630920410156
sg458
I11
sg459
I11
sasS'total_cqs'
p461
I12
ssI42
(dp462
S'iters'
p463
I1
sS'meta'
p464
(lp465
(dp466
S'objective'
p467
I797
sS'query_time'
p468
F0.12283492088317871
sS'comp_time'
p469
F0.0002410411834716797
sS'exec_cq'
p470
I21
sS'total_cq'
p471
I41
sasS'total_cqs'
p472
I41
ssI43
(dp473
S'iters'
p474
I1
sS'meta'
p475
(lp476
(dp477
S'objective'
p478
I14
sS'query_time'
p479
F0.02637195587158203
sS'comp_time'
p480
F0.00015425682067871094
sS'exec_cq'
p481
I7
sS'total_cq'
p482
I7
sasS'total_cqs'
p483
I7
ssI44
(dp484
S'iters'
p485
I4
sS'meta'
p486
(lp487
(dp488
S'objective'
p489
I818
sS'query_time'
p490
F0.1116180419921875
sS'comp_time'
p491
F0.0018720626831054688
sS'exec_cq'
p492
I47
sS'total_cq'
p493
I47
sa(dp494
g489
I749
sg490
F0.0002961158752441406
sg491
F0.0016796588897705078
sg492
I40
sg493
I40
sa(dp495
g489
I32
sg490
F0.00012111663818359375
sg491
F0.0011246204376220703
sg492
I3
sg493
I3
sa(dp496
g489
I2
sg490
F2.4080276489257812e-05
sg491
F0.0001709461212158203
sg492
I2
sg493
I2
sasS'total_cqs'
p497
I47
ssI45
(dp498
S'iters'
p499
I0
sS'meta'
p500
(lp501
sS'total_cqs'
p502
I1
ssI46
(dp503
S'iters'
p504
I1
sS'meta'
p505
(lp506
(dp507
S'objective'
p508
I9
sS'query_time'
p509
F0.011635065078735352
sS'comp_time'
p510
F0.0007207393646240234
sS'exec_cq'
p511
I4
sS'total_cq'
p512
I6
sasS'total_cqs'
p513
I6
ssI47
(dp514
S'iters'
p515
I1
sS'meta'
p516
(lp517
(dp518
S'objective'
p519
I1
sS'query_time'
p520
F0.0088958740234375
sS'comp_time'
p521
F0.00044083595275878906
sS'exec_cq'
p522
I2
sS'total_cq'
p523
I2
sasS'total_cqs'
p524
I2
ssI48
(dp525
S'iters'
p526
I0
sS'meta'
p527
(lp528
sS'total_cqs'
p529
I1
ssI49
(dp530
S'iters'
p531
I0
sS'meta'
p532
(lp533
sS'total_cqs'
p534
I1
ssI50
(dp535
S'iters'
p536
I1
sS'meta'
p537
(lp538
(dp539
S'objective'
p540
I5
sS'query_time'
p541
F0.010032176971435547
sS'comp_time'
p542
F0.00026297569274902344
sS'exec_cq'
p543
I5
sS'total_cq'
p544
I5
sasS'total_cqs'
p545
I5
ssI51
(dp546
S'iters'
p547
I1
sS'meta'
p548
(lp549
(dp550
S'objective'
p551
I1
sS'query_time'
p552
F0.007276058197021484
sS'comp_time'
p553
F0.0003452301025390625
sS'exec_cq'
p554
I2
sS'total_cq'
p555
I2
sasS'total_cqs'
p556
I2
ssI52
(dp557
S'iters'
p558
I1
sS'meta'
p559
(lp560
(dp561
S'objective'
p562
I1
sS'query_time'
p563
F0.009668111801147461
sS'comp_time'
p564
F0.00038909912109375
sS'exec_cq'
p565
I2
sS'total_cq'
p566
I2
sasS'total_cqs'
p567
I2
ssI53
(dp568
S'iters'
p569
I1
sS'meta'
p570
(lp571
(dp572
S'objective'
p573
I2
sS'query_time'
p574
F0.02198314666748047
sS'comp_time'
p575
F0.0012581348419189453
sS'exec_cq'
p576
I4
sS'total_cq'
p577
I4
sasS'total_cqs'
p578
I4
ssI54
(dp579
S'iters'
p580
I2
sS'meta'
p581
(lp582
(dp583
S'objective'
p584
I0
sS'query_time'
p585
F0.010982036590576172
sS'comp_time'
p586
F0.00047969818115234375
sS'exec_cq'
p587
I3
sS'total_cq'
p588
I3
sa(dp589
g584
I1
sg585
F3.910064697265625e-05
sg586
F0.0003790855407714844
sg587
I2
sg588
I2
sasS'total_cqs'
p590
I3
ssI55
(dp591
S'iters'
p592
I6
sS'meta'
p593
(lp594
(dp595
S'objective'
p596
I4243
sS'query_time'
p597
F2.5521111488342285
sS'comp_time'
p598
F0.0769188404083252
sS'exec_cq'
p599
I109
sS'total_cq'
p600
I109
sa(dp601
g596
I4451
sg597
F0.0010678768157958984
sg598
F0.003638029098510742
sg599
I97
sg600
I97
sa(dp602
g596
I4329
sg597
F0.0004801750183105469
sg598
F0.0019259452819824219
sg599
I91
sg600
I91
sa(dp603
g596
I4343
sg597
F0.0003960132598876953
sg598
F0.0016887187957763672
sg599
I87
sg600
I87
sa(dp604
g596
I4252
sg597
F0.0004329681396484375
sg598
F0.0017762184143066406
sg599
I86
sg600
I86
sa(dp605
g596
I4185
sg597
F0.0003540515899658203
sg598
F0.0012707710266113281
sg599
I84
sg600
I84
sasS'total_cqs'
p606
I109
ssI56
(dp607
S'iters'
p608
I5
sS'meta'
p609
(lp610
(dp611
S'objective'
p612
I1562
sS'query_time'
p613
F1.6309840679168701
sS'comp_time'
p614
F0.035302162170410156
sS'exec_cq'
p615
I67
sS'total_cq'
p616
I76
sa(dp617
g612
I70
sg613
F0.0067081451416015625
sg614
F0.028980016708374023
sg615
I16
sg616
I16
sa(dp618
g612
I18
sg613
F0.00308990478515625
sg614
F0.017676830291748047
sg615
I8
sg616
I8
sa(dp619
g612
I33
sg613
F0.0005729198455810547
sg614
F0.006042957305908203
sg615
I3
sg616
I3
sa(dp620
g612
I10
sg613
F0.0004169940948486328
sg614
F0.005857706069946289
sg615
I2
sg616
I2
sasS'total_cqs'
p621
I76
ssI57
(dp622
S'iters'
p623
I6
sS'meta'
p624
(lp625
(dp626
S'objective'
p627
I210
sS'query_time'
p628
F23.762952089309692
sS'comp_time'
p629
F0.05752706527709961
sS'exec_cq'
p630
I45
sS'total_cq'
p631
I51
sa(dp632
g627
I66
sg628
F0.01633596420288086
sg629
F0.05198812484741211
sg630
I27
sg631
I27
sa(dp633
g627
I3
sg628
F0.0031080245971679688
sg629
F0.011065006256103516
sg630
I13
sg631
I13
sa(dp634
g627
I1
sg628
F0.0014729499816894531
sg629
F0.008762598037719727
sg630
I6
sg631
I6
sa(dp635
g627
I2
sg628
F0.00022101402282714844
sg629
F0.002290964126586914
sg630
I3
sg631
I3
sa(dp636
g627
I35
sg628
F0.0001888275146484375
sg629
F0.0021581649780273438
sg630
I2
sg631
I2
sasS'total_cqs'
p637
I51
ssI58
(dp638
S'iters'
p639
I7
sS'meta'
p640
(lp641
(dp642
S'objective'
p643
I84291
sS'query_time'
p644
F111.87615990638733
sS'comp_time'
p645
F0.5232148170471191
sS'exec_cq'
p646
I348
sS'total_cq'
p647
I486
sa(dp648
g643
I88290
sg644
F0.046510934829711914
sg645
F2.0601868629455566
sg646
I276
sg647
I414
sa(dp649
g643
I75
sg644
F0.020298004150390625
sg645
F0.05521702766418457
sg646
I28
sg647
I28
sa(dp650
g643
I50
sg644
F0.008919954299926758
sg645
F0.031000852584838867
sg646
I12
sg647
I12
sa(dp651
g643
I132
sg644
F0.0032501220703125
sg645
F0.01823878288269043
sg646
I6
sg647
I6
sa(dp652
g643
I43
sg644
F0.0014328956604003906
sg645
F0.011598825454711914
sg646
I3
sg647
I3
sa(dp653
g643
I315
sg644
F0.0010051727294921875
sg645
F0.010184049606323242
sg646
I2
sg647
I2
sasS'total_cqs'
p654
I486
ssI59
(dp655
S'iters'
p656
I2
sS'meta'
p657
(lp658
(dp659
S'objective'
p660
I8
sS'query_time'
p661
F0.04187202453613281
sS'comp_time'
p662
F0.011148214340209961
sS'exec_cq'
p663
I7
sS'total_cq'
p664
I7
sa(dp665
g660
I4
sg661
F0.00017380714416503906
sg662
F0.001967191696166992
sg663
I2
sg664
I2
sasS'total_cqs'
p666
I7
ssI60
(dp667
S'iters'
p668
I2
sS'meta'
p669
(lp670
(dp671
S'objective'
p672
I9
sS'query_time'
p673
F0.009066104888916016
sS'comp_time'
p674
F0.00021791458129882812
sS'exec_cq'
p675
I2
sS'total_cq'
p676
I5
sa(dp677
g672
I2
sg673
F0.002914905548095703
sg674
F0.00022602081298828125
sg675
I3
sg676
I4
sasS'total_cqs'
p678
I5
ssI61
(dp679
S'iters'
p680
I0
sS'meta'
p681
(lp682
sS'total_cqs'
p683
I1
ssI62
(dp684
S'iters'
p685
I2
sS'meta'
p686
(lp687
(dp688
S'objective'
p689
I38
sS'query_time'
p690
F0.015909910202026367
sS'comp_time'
p691
F0.0003802776336669922
sS'exec_cq'
p692
I12
sS'total_cq'
p693
I12
sa(dp694
g689
I38
sg690
F4.100799560546875e-05
sg691
F0.00010347366333007812
sg692
I9
sg693
I9
sasS'total_cqs'
p695
I12
ssI63
(dp696
S'iters'
p697
I0
sS'meta'
p698
(lp699
sS'total_cqs'
p700
I1
ssI64
(dp701
S'iters'
p702
I3
sS'meta'
p703
(lp704
(dp705
S'objective'
p706
I10
sS'query_time'
p707
F0.105438232421875
sS'comp_time'
p708
F0.14347386360168457
sS'exec_cq'
p709
I12
sS'total_cq'
p710
I12
sa(dp711
g706
I0
sg707
F0.00012493133544921875
sg708
F0.0006890296936035156
sg709
I4
sg710
I4
sa(dp712
g706
I3
sg707
F2.3126602172851562e-05
sg708
F0.0001900196075439453
sg709
I2
sg710
I2
sasS'total_cqs'
p713
I12
ssI65
(dp714
S'iters'
p715
I4
sS'meta'
p716
(lp717
(dp718
S'objective'
p719
I142
sS'query_time'
p720
F0.7671301364898682
sS'comp_time'
p721
F0.2143716812133789
sS'exec_cq'
p722
I27
sS'total_cq'
p723
I27
sa(dp724
g719
I4
sg720
F0.0015680789947509766
sg721
F0.00848388671875
sg722
I7
sg723
I7
sa(dp725
g719
I11
sg720
F0.000988006591796875
sg721
F0.005888938903808594
sg722
I3
sg723
I3
sa(dp726
g719
I8
sg720
F0.00024509429931640625
sg721
F0.0027811527252197266
sg722
I2
sg723
I2
sasS'total_cqs'
p727
I27
ssI66
(dp728
S'iters'
p729
I0
sS'meta'
p730
(lp731
sS'total_cqs'
p732
I1
ssI67
(dp733
S'iters'
p734
I2
sS'meta'
p735
(lp736
(dp737
S'objective'
p738
I524
sS'query_time'
p739
F1.042388916015625
sS'comp_time'
p740
F0.015964269638061523
sS'exec_cq'
p741
I35
sS'total_cq'
p742
I35
sa(dp743
g738
I3
sg739
F0.0014300346374511719
sg740
F0.01586008071899414
sg741
I2
sg742
I2
sasS'total_cqs'
p744
I35
ssI68
(dp745
S'iters'
p746
I0
sS'meta'
p747
(lp748
sS'total_cqs'
p749
I1
ssI69
(dp750
S'iters'
p751
I1
sS'meta'
p752
(lp753
(dp754
S'objective'
p755
I1246
sS'query_time'
p756
F0.09424209594726562
sS'comp_time'
p757
F0.0003991127014160156
sS'exec_cq'
p758
I51
sS'total_cq'
p759
I51
sasS'total_cqs'
p760
I51
ssI70
(dp761
S'iters'
p762
I1
sS'meta'
p763
(lp764
(dp765
S'objective'
p766
I9
sS'query_time'
p767
F0.035713911056518555
sS'comp_time'
p768
F0.0017549991607666016
sS'exec_cq'
p769
I6
sS'total_cq'
p770
I6
sasS'total_cqs'
p771
I6
ssI71
(dp772
S'iters'
p773
I5
sS'meta'
p774
(lp775
(dp776
S'objective'
p777
I3153
sS'query_time'
p778
F0.18432307243347168
sS'comp_time'
p779
F0.0011551380157470703
sS'exec_cq'
p780
I73
sS'total_cq'
p781
I85
sa(dp782
g777
I3108
sg778
F0.00034809112548828125
sg779
F0.0009620189666748047
sg780
I69
sg781
I81
sa(dp783
g777
I2968
sg778
F0.00028896331787109375
sg779
F0.0006468296051025391
sg780
I66
sg781
I78
sa(dp784
g777
I2846
sg778
F0.00019598007202148438
sg779
F0.0006647109985351562
sg780
I62
sg781
I74
sa(dp785
g777
I3
sg778
F4.887580871582031e-05
sg779
F0.0002982616424560547
sg780
I3
sg781
I3
sasS'total_cqs'
p786
I85
ssI72
(dp787
S'iters'
p788
I2
sS'meta'
p789
(lp790
(dp791
S'objective'
p792
I8
sS'query_time'
p793
F0.023259878158569336
sS'comp_time'
p794
F0.0005829334259033203
sS'exec_cq'
p795
I4
sS'total_cq'
p796
I8
sa(dp797
g792
I8
sg793
F0.2754080295562744
sg794
F0.004879951477050781
sg795
I4
sg796
I6
sasS'total_cqs'
p798
I8
ssI73
(dp799
S'iters'
p800
I0
sS'meta'
p801
(lp802
sS'total_cqs'
p803
I1
ssI74
(dp804
S'iters'
p805
I0
sS'meta'
p806
(lp807
sS'total_cqs'
p808
I1
ssI75
(dp809
S'iters'
p810
I1
sS'meta'
p811
(lp812
(dp813
S'objective'
p814
I5
sS'query_time'
p815
F0.006844997406005859
sS'comp_time'
p816
F0.00019502639770507812
sS'exec_cq'
p817
I5
sS'total_cq'
p818
I5
sasS'total_cqs'
p819
I5
ssI76
(dp820
S'iters'
p821
I1
sS'meta'
p822
(lp823
(dp824
S'objective'
p825
I1
sS'query_time'
p826
F0.011116981506347656
sS'comp_time'
p827
F0.0007078647613525391
sS'exec_cq'
p828
I2
sS'total_cq'
p829
I2
sasS'total_cqs'
p830
I2
ssI77
(dp831
S'iters'
p832
I0
sS'meta'
p833
(lp834
sS'total_cqs'
p835
I1
ssI78
(dp836
S'iters'
p837
I0
sS'meta'
p838
(lp839
sS'total_cqs'
p840
I1
ssI103
(dp841
S'iters'
p842
I1
sS'meta'
p843
(lp844
(dp845
S'objective'
p846
I58
sS'query_time'
p847
F0.06345605850219727
sS'comp_time'
p848
F0.000553131103515625
sS'exec_cq'
p849
I12
sS'total_cq'
p850
I12
sasS'total_cqs'
p851
I12
ssI104
(dp852
S'iters'
p853
I1
sS'meta'
p854
(lp855
(dp856
S'objective'
p857
I2
sS'query_time'
p858
F1.3919720649719238
sS'comp_time'
p859
F0.3087167739868164
sS'exec_cq'
p860
I4
sS'total_cq'
p861
I4
sasS'total_cqs'
p862
I4
ssI105
(dp863
S'iters'
p864
I0
sS'meta'
p865
(lp866
sS'total_cqs'
p867
I1
ssI106
(dp868
S'iters'
p869
I1
sS'meta'
p870
(lp871
(dp872
S'objective'
p873
I2
sS'query_time'
p874
F0.014333009719848633
sS'comp_time'
p875
F0.00018095970153808594
sS'exec_cq'
p876
I4
sS'total_cq'
p877
I4
sasS'total_cqs'
p878
I4
ssI107
(dp879
S'iters'
p880
I2
sS'meta'
p881
(lp882
(dp883
S'objective'
p884
I70
sS'query_time'
p885
F0.04846811294555664
sS'comp_time'
p886
F0.00022840499877929688
sS'exec_cq'
p887
I16
sS'total_cq'
p888
I16
sa(dp889
g884
I7
sg885
F2.288818359375e-05
sg886
F0.00013208389282226562
sg887
I3
sg888
I3
sasS'total_cqs'
p890
I16
ssI108
(dp891
S'iters'
p892
I0
sS'meta'
p893
(lp894
sS'total_cqs'
p895
I1
ss.