(dp0
I1
(dp1
S'iters'
p2
I4
sS'meta'
p3
(lp4
(dp5
S'objective'
p6
I34
sS'query_time'
p7
F0.01596212387084961
sS'comp_time'
p8
F0.02176213264465332
sS'exec_cq'
p9
I12
sS'total_cq'
p10
I12
sa(dp11
g6
I42
sg7
F5.91278076171875e-05
sg8
F0.0001671314239501953
sg9
I10
sg10
I10
sa(dp12
g6
I45
sg7
F3.600120544433594e-05
sg8
F9.775161743164062e-05
sg9
I9
sg10
I9
sa(dp13
g6
I45
sg7
F3.314018249511719e-05
sg8
F7.104873657226562e-05
sg9
I8
sg10
I8
sasS'total_cqs'
p14
I12
ssI2
(dp15
S'iters'
p16
I8
sS'meta'
p17
(lp18
(dp19
S'objective'
p20
I210
sS'query_time'
p21
F0.07925677299499512
sS'comp_time'
p22
F0.028849124908447266
sS'exec_cq'
p23
I27
sS'total_cq'
p24
I27
sa(dp25
g20
I218
sg21
F0.00023889541625976562
sg22
F0.0007765293121337891
sg23
I23
sg24
I23
sa(dp26
g20
I188
sg21
F0.000141143798828125
sg22
F0.0004489421844482422
sg23
I20
sg24
I20
sa(dp27
g20
I170
sg21
F0.00010704994201660156
sg22
F0.0003743171691894531
sg23
I18
sg24
I18
sa(dp28
g20
I154
sg21
F8.893013000488281e-05
sg22
F0.00030493736267089844
sg23
I17
sg24
I17
sa(dp29
g20
I145
sg21
F7.104873657226562e-05
sg22
F0.0001800060272216797
sg23
I15
sg24
I15
sa(dp30
g20
I150
sg21
F5.6743621826171875e-05
sg22
F0.0001227855682373047
sg23
I14
sg24
I14
sa(dp31
g20
I153
sg21
F4.601478576660156e-05
sg22
F7.987022399902344e-05
sg23
I13
sg24
I13
sasS'total_cqs'
p32
I27
ssI3
(dp33
S'iters'
p34
I5
sS'meta'
p35
(lp36
(dp37
S'objective'
p38
I576
sS'query_time'
p39
F561.1729187965393
sS'comp_time'
p40
F1.854325532913208
sS'exec_cq'
p41
I39
sS'total_cq'
p42
I43
sa(dp43
g38
I481
sg39
F0.6012568473815918
sg40
F0.9448812007904053
sg41
I30
sg42
I36
sa(dp44
g38
I347
sg39
F0.4375879764556885
sg40
F2.1085429191589355
sg41
I22
sg42
I28
sa(dp45
g38
I458
sg39
F11.502142190933228
sg40
F0.0005428791046142578
sg41
I21
sg42
I21
sa(dp46
g38
I469
sg39
F0.00011658668518066406
sg40
F0.00010848045349121094
sg41
I20
sg42
I20
sasS'total_cqs'
p47
I43
ssI4
(dp48
S'iters'
p49
I2
sS'meta'
p50
(lp51
(dp52
S'objective'
p53
I58
sS'query_time'
p54
F4.669608116149902
sS'comp_time'
p55
F0.37062907218933105
sS'exec_cq'
p56
I11
sS'total_cq'
p57
I11
sa(dp58
g53
I2
sg54
F0.16673517227172852
sg55
F0.2487337589263916
sg56
I2
sg57
I2
sasS'total_cqs'
p59
I11
ssI5
(dp60
S'iters'
p61
I3
sS'meta'
p62
(lp63
(dp64
S'objective'
p65
I0
sS'query_time'
p66
F34.823261976242065
sS'comp_time'
p67
F3.1269750595092773
sS'exec_cq'
p68
I8
sS'total_cq'
p69
I8
sa(dp70
g65
I0
sg66
F0.018514156341552734
sg67
F0.037564992904663086
sg68
I5
sg69
I5
sa(dp71
g65
I7
sg66
F0.004213809967041016
sg67
F0.006242036819458008
sg68
I2
sg69
I2
sasS'total_cqs'
p72
I8
ssI6
(dp73
S'iters'
p74
I5
sS'meta'
p75
(lp76
(dp77
S'objective'
p78
I51
sS'query_time'
p79
F37.82425808906555
sS'comp_time'
p80
F1.6464219093322754
sS'exec_cq'
p81
I18
sS'total_cq'
p82
I18
sa(dp83
g78
I0
sg79
F0.67000412940979
sg80
F1.3634140491485596
sg81
I7
sg82
I7
sa(dp84
g78
I2
sg79
F0.35844898223876953
sg80
F0.5444669723510742
sg81
I4
sg82
I4
sa(dp85
g78
I2
sg79
F0.23864102363586426
sg80
F0.5262060165405273
sg81
I3
sg82
I3
sa(dp86
g78
I4
sg79
F0.22751998901367188
sg80
F0.5119662284851074
sg81
I2
sg82
I2
sasS'total_cqs'
p87
I18
ssI7
(dp88
S'iters'
p89
I5
sS'meta'
p90
(lp91
(dp92
S'objective'
p93
I1
sS'query_time'
p94
F12.640734910964966
sS'comp_time'
p95
F0.8156478404998779
sS'exec_cq'
p96
I9
sS'total_cq'
p97
I9
sa(dp98
g93
I1
sg94
F0.10656404495239258
sg95
F0.4802689552307129
sg96
I6
sg97
I6
sa(dp99
g93
I0
sg94
F0.07767510414123535
sg95
F0.24373221397399902
sg96
I4
sg97
I4
sa(dp100
g93
I0
sg94
F0.16551899909973145
sg95
F0.09788918495178223
sg96
I3
sg97
I3
sa(dp101
g93
I1
sg94
F0.1513350009918213
sg95
F0.23686718940734863
sg96
I2
sg97
I2
sasS'total_cqs'
p102
I9
ssI8
(dp103
S'iters'
p104
I5
sS'meta'
p105
(lp106
(dp107
S'objective'
p108
I204
sS'query_time'
p109
F0.17571401596069336
sS'comp_time'
p110
F0.03592276573181152
sS'exec_cq'
p111
I27
sS'total_cq'
p112
I27
sa(dp113
g108
I255
sg109
F0.00014710426330566406
sg110
F0.0004229545593261719
sg111
I22
sg112
I22
sa(dp114
g108
I239
sg109
F0.00012111663818359375
sg110
F0.000415802001953125
sg111
I21
sg112
I21
sa(dp115
g108
I250
sg109
F6.985664367675781e-05
sg110
F0.00015616416931152344
sg111
I18
sg112
I18
sa(dp116
g108
I251
sg109
F6.222724914550781e-05
sg110
F8.7738037109375e-05
sg111
I17
sg112
I17
sasS'total_cqs'
p117
I27
ssI9
(dp118
S'iters'
p119
I3
sS'meta'
p120
(lp121
(dp122
S'objective'
p123
I2
sS'query_time'
p124
F0.05242300033569336
sS'comp_time'
p125
F0.0054781436920166016
sS'exec_cq'
p126
I7
sS'total_cq'
p127
I7
sa(dp128
g123
I1
sg124
F4.887580871582031e-05
sg125
F0.00016808509826660156
sg126
I4
sg127
I4
sa(dp129
g123
I6
sg124
F1.71661376953125e-05
sg125
F8.20159912109375e-05
sg126
I2
sg127
I2
sasS'total_cqs'
p130
I7
ssI10
(dp131
S'iters'
p132
I7
sS'meta'
p133
(lp134
(dp135
S'objective'
p136
I650
sS'query_time'
p137
F0.29978084564208984
sS'comp_time'
p138
F0.09931564331054688
sS'exec_cq'
p139
I51
sS'total_cq'
p140
I51
sa(dp141
g136
I390
sg137
F0.0004942417144775391
sg138
F0.0033600330352783203
sg139
I37
sg140
I37
sa(dp142
g136
I443
sg137
F0.00023412704467773438
sg138
F0.0011858940124511719
sg139
I25
sg140
I25
sa(dp143
g136
I478
sg137
F0.00011873245239257812
sg138
F0.0004191398620605469
sg139
I21
sg140
I21
sa(dp144
g136
I442
sg137
F0.00011014938354492188
sg138
F0.0003497600555419922
sg139
I19
sg140
I19
sa(dp145
g136
I36
sg137
F2.5033950805664062e-05
sg138
F0.0003070831298828125
sg139
I3
sg140
I3
sa(dp146
g136
I36
sg137
F1.3828277587890625e-05
sg138
F6.008148193359375e-05
sg139
I2
sg140
I2
sasS'total_cqs'
p147
I51
ssI11
(dp148
S'iters'
p149
I6
sS'meta'
p150
(lp151
(dp152
S'objective'
p153
I918
sS'query_time'
p154
F0.4757518768310547
sS'comp_time'
p155
F0.16640877723693848
sS'exec_cq'
p156
I63
sS'total_cq'
p157
I63
sa(dp158
g153
I1025
sg154
F0.001294851303100586
sg155
F0.004812955856323242
sg156
I47
sg157
I47
sa(dp159
g153
I17
sg154
F0.00024509429931640625
sg155
F0.0035059452056884766
sg156
I9
sg157
I9
sa(dp160
g153
I7
sg154
F0.0001780986785888672
sg155
F0.0006959438323974609
sg156
I5
sg157
I5
sa(dp161
g153
I42
sg154
F0.00014400482177734375
sg155
F0.0005342960357666016
sg156
I3
sg157
I3
sa(dp162
g153
I47
sg154
F1.2874603271484375e-05
sg155
F6.127357482910156e-05
sg156
I2
sg157
I2
sasS'total_cqs'
p163
I63
ssI12
(dp164
S'iters'
p165
I7
sS'meta'
p166
(lp167
(dp168
S'objective'
p169
I267
sS'query_time'
p170
F0.127349853515625
sS'comp_time'
p171
F0.08759379386901855
sS'exec_cq'
p172
I28
sS'total_cq'
p173
I50
sa(dp174
g169
I511
sg170
F0.12006378173828125
sg171
F0.0035398006439208984
sg172
I33
sg173
I33
sa(dp175
g169
I453
sg170
F0.00017905235290527344
sg171
F0.0009071826934814453
sg172
I26
sg173
I26
sa(dp176
g169
I407
sg170
F0.00019407272338867188
sg171
F0.0006685256958007812
sg172
I23
sg173
I23
sa(dp177
g169
I14
sg170
F5.1021575927734375e-05
sg171
F0.0005562305450439453
sg172
I5
sg173
I5
sa(dp178
g169
I6
sg170
F3.600120544433594e-05
sg171
F0.00011014938354492188
sg172
I4
sg173
I4
sa(dp179
g169
I16
sg170
F1.9073486328125e-05
sg171
F8.058547973632812e-05
sg172
I2
sg173
I2
sasS'total_cqs'
p180
I50
ssI13
(dp181
S'iters'
p182
I5
sS'meta'
p183
(lp184
(dp185
S'objective'
p186
I6
sS'query_time'
p187
F0.13967084884643555
sS'comp_time'
p188
F0.027179241180419922
sS'exec_cq'
p189
I20
sS'total_cq'
p190
I20
sa(dp191
g186
I24
sg187
F0.0001659393310546875
sg188
F0.006992816925048828
sg189
I11
sg190
I11
sa(dp192
g186
I11
sg187
F6.794929504394531e-05
sg188
F0.0010709762573242188
sg189
I8
sg190
I8
sa(dp193
g186
I6
sg187
F2.9087066650390625e-05
sg188
F0.0001499652862548828
sg189
I4
sg190
I4
sa(dp194
g186
I8
sg187
F1.4066696166992188e-05
sg188
F7.510185241699219e-05
sg189
I2
sg190
I2
sasS'total_cqs'
p195
I20
ssI14
(dp196
S'iters'
p197
I4
sS'meta'
p198
(lp199
(dp200
S'objective'
p201
I1
sS'query_time'
p202
F33.925801038742065
sS'comp_time'
p203
F1.2423896789550781
sS'exec_cq'
p204
I9
sS'total_cq'
p205
I9
sa(dp206
g201
I2
sg202
F0.08744502067565918
sg203
F0.47446489334106445
sg204
I6
sg205
I6
sa(dp207
g201
I0
sg202
F0.20886683464050293
sg203
F0.33924317359924316
sg204
I4
sg205
I4
sa(dp208
g201
I3
sg202
F0.008082866668701172
sg203
F0.012982845306396484
sg204
I2
sg205
I2
sasS'total_cqs'
p209
I9
ssI15
(dp210
S'iters'
p211
I4
sS'meta'
p212
(lp213
(dp214
S'objective'
p215
I2
sS'query_time'
p216
F3.92268705368042
sS'comp_time'
p217
F0.27593135833740234
sS'exec_cq'
p218
I11
sS'total_cq'
p219
I11
sa(dp220
g215
I0
sg216
F0.027965068817138672
sg217
F0.08641338348388672
sg218
I5
sg219
I5
sa(dp221
g215
I4
sg216
F0.10210680961608887
sg217
F0.023306846618652344
sg218
I3
sg219
I3
sa(dp222
g215
I4
sg216
F0.013323068618774414
sg217
F0.02566695213317871
sg218
I2
sg219
I2
sasS'total_cqs'
p223
I11
ssI16
(dp224
S'iters'
p225
I1
sS'meta'
p226
(lp227
(dp228
S'objective'
p229
I34
sS'query_time'
p230
F0.020035982131958008
sS'comp_time'
p231
F0.007594108581542969
sS'exec_cq'
p232
I8
sS'total_cq'
p233
I8
sasS'total_cqs'
p234
I8
ssI17
(dp235
S'iters'
p236
I4
sS'meta'
p237
(lp238
(dp239
S'objective'
p240
I4
sS'query_time'
p241
F0.8982319831848145
sS'comp_time'
p242
F0.045968055725097656
sS'exec_cq'
p243
I11
sS'total_cq'
p244
I11
sa(dp245
g240
I1
sg241
F0.008691072463989258
sg242
F0.013548135757446289
sg243
I6
sg244
I6
sa(dp246
g240
I7
sg241
F0.0002739429473876953
sg242
F0.0009663105010986328
sg243
I3
sg244
I3
sa(dp247
g240
I2
sg241
F0.00018095970153808594
sg242
F0.000370025634765625
sg243
I2
sg244
I2
sasS'total_cqs'
p248
I11
ssI18
(dp249
S'iters'
p250
I4
sS'meta'
p251
(lp252
(dp253
S'objective'
p254
I10
sS'query_time'
p255
F0.13664579391479492
sS'comp_time'
p256
F0.028535842895507812
sS'exec_cq'
p257
I6
sS'total_cq'
p258
I11
sa(dp259
g254
I20
sg255
F0.09256911277770996
sg256
F0.0005350112915039062
sg257
I8
sg258
I8
sa(dp260
g254
I19
sg255
F0.00018787384033203125
sg256
F0.0004050731658935547
sg257
I7
sg258
I7
sa(dp261
g254
I22
sg255
F3.4809112548828125e-05
sg256
F7.128715515136719e-05
sg257
I6
sg258
I6
sasS'total_cqs'
p262
I11
ssI19
(dp263
S'iters'
p264
I0
sS'meta'
p265
(lp266
sS'total_cqs'
p267
I1
ssI20
(dp268
S'iters'
p269
I0
sS'meta'
p270
(lp271
sS'total_cqs'
p272
I1
ssI21
(dp273
S'iters'
p274
I0
sS'meta'
p275
(lp276
sS'total_cqs'
p277
I1
ssI22
(dp278
S'iters'
p279
I1
sS'meta'
p280
(lp281
(dp282
S'objective'
p283
I169
sS'query_time'
p284
F0.03181195259094238
sS'comp_time'
p285
F0.028089046478271484
sS'exec_cq'
p286
I18
sS'total_cq'
p287
I18
sasS'total_cqs'
p288
I18
ssI23
(dp289
S'iters'
p290
I3
sS'meta'
p291
(lp292
(dp293
S'objective'
p294
I88
sS'query_time'
p295
F0.060141801834106445
sS'comp_time'
p296
F0.025334835052490234
sS'exec_cq'
p297
I16
sS'total_cq'
p298
I16
sa(dp299
g294
I98
sg295
F0.00011682510375976562
sg296
F0.00023102760314941406
sg297
I14
sg298
I14
sa(dp300
g294
I103
sg295
F5.030632019042969e-05
sg296
F9.608268737792969e-05
sg297
I13
sg298
I13
sasS'total_cqs'
p301
I16
ssI24
(dp302
S'iters'
p303
I0
sS'meta'
p304
(lp305
sS'total_cqs'
p306
I1
ssI25
(dp307
S'iters'
p308
I0
sS'meta'
p309
(lp310
sS'total_cqs'
p311
I1
ssI26
(dp312
S'iters'
p313
I1
sS'meta'
p314
(lp315
(dp316
S'objective'
p317
I901
sS'query_time'
p318
F0.06995105743408203
sS'comp_time'
p319
F0.1496577262878418
sS'exec_cq'
p320
I42
sS'total_cq'
p321
I42
sasS'total_cqs'
p322
I42
ssI27
(dp323
S'iters'
p324
I5
sS'meta'
p325
(lp326
(dp327
S'objective'
p328
I345
sS'query_time'
p329
F22.0108859539032
sS'comp_time'
p330
F1.652230978012085
sS'exec_cq'
p331
I30
sS'total_cq'
p332
I30
sa(dp333
g328
I4
sg329
F0.5951259136199951
sg330
F4.6582043170928955
sg331
I5
sg332
I5
sa(dp334
g328
I0
sg329
F0.426422119140625
sg330
F1.967237949371338
sg331
I4
sg332
I4
sa(dp335
g328
I4
sg329
F0.9434258937835693
sg330
F2.373260259628296
sg331
I3
sg332
I3
sa(dp336
g328
I4
sg329
F0.35780787467956543
sg330
F0.330294132232666
sg331
I2
sg332
I2
sasS'total_cqs'
p337
I30
ssI28
(dp338
S'iters'
p339
I0
sS'meta'
p340
(lp341
sS'total_cqs'
p342
I1
ssI29
(dp343
S'iters'
p344
I6
sS'meta'
p345
(lp346
(dp347
S'objective'
p348
I475
sS'query_time'
p349
F146.81493306159973
sS'comp_time'
p350
F7.910294055938721
sS'exec_cq'
p351
I49
sS'total_cq'
p352
I49
sa(dp353
g348
I3
sg349
F0.024437904357910156
sg350
F0.034451961517333984
sg351
I17
sg352
I17
sa(dp354
g348
I34
sg349
F0.01982593536376953
sg350
F0.06502175331115723
sg351
I9
sg352
I9
sa(dp355
g348
I6
sg349
F0.011467933654785156
sg350
F0.013367176055908203
sg351
I5
sg352
I5
sa(dp356
g348
I2
sg349
F0.004775047302246094
sg350
F0.009729146957397461
sg351
I3
sg352
I3
sa(dp357
g348
I23
sg349
F0.0015070438385009766
sg350
F0.002190113067626953
sg351
I2
sg352
I2
sasS'total_cqs'
p358
I49
ssI30
(dp359
S'iters'
p360
I1
sS'meta'
p361
(lp362
(dp363
S'objective'
p364
I1
sS'query_time'
p365
F0.6910500526428223
sS'comp_time'
p366
F0.01343083381652832
sS'exec_cq'
p367
I2
sS'total_cq'
p368
I2
sasS'total_cqs'
p369
I2
ssI31
(dp370
S'iters'
p371
I0
sS'meta'
p372
(lp373
sS'total_cqs'
p374
I1
ssI32
(dp375
S'iters'
p376
I1
sS'meta'
p377
(lp378
(dp379
S'objective'
p380
I1
sS'query_time'
p381
F0.007055044174194336
sS'comp_time'
p382
F0.0014698505401611328
sS'exec_cq'
p383
I2
sS'total_cq'
p384
I2
sasS'total_cqs'
p385
I2
ssI33
(dp386
S'iters'
p387
I6
sS'meta'
p388
(lp389
(dp390
S'objective'
p391
I4150
sS'query_time'
p392
F16.314069986343384
sS'comp_time'
p393
F1.1026036739349365
sS'exec_cq'
p394
I103
sS'total_cq'
p395
I103
sa(dp396
g391
I11
sg392
F0.009111166000366211
sg393
F0.07944107055664062
sg394
I16
sg395
I16
sa(dp397
g391
I9
sg392
F0.0027179718017578125
sg393
F0.013205289840698242
sg394
I9
sg395
I9
sa(dp398
g391
I1
sg392
F0.0008690357208251953
sg393
F0.002084016799926758
sg394
I6
sg395
I6
sa(dp399
g391
I64
sg392
F0.00038814544677734375
sg393
F0.0007450580596923828
sg394
I3
sg395
I3
sa(dp400
g391
I3
sg392
F0.00013709068298339844
sg393
F0.0003192424774169922
sg394
I2
sg395
I2
sasS'total_cqs'
p401
I103
ssI34
(dp402
S'iters'
p403
I1
sS'meta'
p404
(lp405
(dp406
S'objective'
p407
I1
sS'query_time'
p408
F0.014685869216918945
sS'comp_time'
p409
F0.0016808509826660156
sS'exec_cq'
p410
I2
sS'total_cq'
p411
I2
sasS'total_cqs'
p412
I2
ssI35
(dp413
S'iters'
p414
I6
sS'meta'
p415
(lp416
(dp417
S'objective'
p418
I1497
sS'query_time'
p419
F264.40844988822937
sS'comp_time'
p420
F11.536499738693237
sS'exec_cq'
p421
I70
sS'total_cq'
p422
I70
sa(dp423
g418
I34
sg419
F0.004938840866088867
sg420
F0.01913619041442871
sg421
I16
sg422
I16
sa(dp424
g418
I2
sg419
F0.002106904983520508
sg420
F0.003289461135864258
sg421
I10
sg422
I10
sa(dp425
g418
I3
sg419
F0.0005700588226318359
sg420
F0.0015149116516113281
sg421
I6
sg422
I6
sa(dp426
g418
I2
sg419
F0.00019693374633789062
sg420
F0.0003628730773925781
sg421
I3
sg422
I3
sa(dp427
g418
I31
sg419
F0.00011801719665527344
sg420
F0.00030422210693359375
sg421
I2
sg422
I2
sasS'total_cqs'
p428
I70
ssI36
(dp429
S'iters'
p430
I5
sS'meta'
p431
(lp432
(dp433
S'objective'
p434
I379
sS'query_time'
p435
F0.66849684715271
sS'comp_time'
p436
F0.18259406089782715
sS'exec_cq'
p437
I33
sS'total_cq'
p438
I33
sa(dp439
g434
I304
sg435
F0.00606536865234375
sg436
F0.014268875122070312
sg437
I29
sg438
I29
sa(dp440
g434
I335
sg435
F0.0023140907287597656
sg436
F0.0035228729248046875
sg437
I25
sg438
I25
sa(dp441
g434
I329
sg435
F0.0005698204040527344
sg436
F0.00046443939208984375
sg437
I24
sg438
I24
sa(dp442
g434
I343
sg435
F0.00010895729064941406
sg436
F0.00022935867309570312
sg437
I23
sg438
I23
sasS'total_cqs'
p443
I33
ssI37
(dp444
S'iters'
p445
I1
sS'meta'
p446
(lp447
(dp448
S'objective'
p449
I1
sS'query_time'
p450
F0.005752086639404297
sS'comp_time'
p451
F0.0015711784362792969
sS'exec_cq'
p452
I2
sS'total_cq'
p453
I2
sasS'total_cqs'
p454
I2
ssI38
(dp455
S'iters'
p456
I2
sS'meta'
p457
(lp458
(dp459
S'objective'
p460
I0
sS'query_time'
p461
F0.01822185516357422
sS'comp_time'
p462
F0.002674102783203125
sS'exec_cq'
p463
I4
sS'total_cq'
p464
I4
sa(dp465
g460
I3
sg461
F8.893013000488281e-05
sg462
F0.00020003318786621094
sg463
I2
sg464
I2
sasS'total_cqs'
p466
I4
ssI39
(dp467
S'iters'
p468
I2
sS'meta'
p469
(lp470
(dp471
S'objective'
p472
I706
sS'query_time'
p473
F0.08230280876159668
sS'comp_time'
p474
F0.17296195030212402
sS'exec_cq'
p475
I44
sS'total_cq'
p476
I44
sa(dp477
g472
I846
sg473
F0.00034499168395996094
sg474
F0.0009081363677978516
sg475
I37
sg476
I37
sasS'total_cqs'
p478
I44
ssI40
(dp479
S'iters'
p480
I1
sS'meta'
p481
(lp482
(dp483
S'objective'
p484
I26
sS'query_time'
p485
F0.020507097244262695
sS'comp_time'
p486
F0.006629228591918945
sS'exec_cq'
p487
I7
sS'total_cq'
p488
I7
sasS'total_cqs'
p489
I7
ssI41
(dp490
S'iters'
p491
I2
sS'meta'
p492
(lp493
(dp494
S'objective'
p495
I70
sS'query_time'
p496
F0.05240607261657715
sS'comp_time'
p497
F0.0186312198638916
sS'exec_cq'
p498
I12
sS'total_cq'
p499
I12
sa(dp500
g495
I72
sg496
F7.200241088867188e-05
sg497
F0.00010275840759277344
sg498
I11
sg499
I11
sasS'total_cqs'
p501
I12
ssI42
(dp502
S'iters'
p503
I4
sS'meta'
p504
(lp505
(dp506
S'objective'
p507
I809
sS'query_time'
p508
F0.0604400634765625
sS'comp_time'
p509
F0.13631105422973633
sS'exec_cq'
p510
I41
sS'total_cq'
p511
I41
sa(dp512
g507
I799
sg508
F0.0001964569091796875
sg509
F0.0002846717834472656
sg510
I40
sg511
I40
sa(dp513
g507
I813
sg508
F0.0001728534698486328
sg509
F0.00023031234741210938
sg510
I39
sg511
I39
sa(dp514
g507
I813
sg508
F0.0001888275146484375
sg509
F0.0001628398895263672
sg510
I38
sg511
I38
sasS'total_cqs'
p515
I41
ssI43
(dp516
S'iters'
p517
I1
sS'meta'
p518
(lp519
(dp520
S'objective'
p521
I26
sS'query_time'
p522
F0.01795792579650879
sS'comp_time'
p523
F0.005527973175048828
sS'exec_cq'
p524
I7
sS'total_cq'
p525
I7
sasS'total_cqs'
p526
I7
ssI44
(dp527
S'iters'
p528
I4
sS'meta'
p529
(lp530
(dp531
S'objective'
p532
I762
sS'query_time'
p533
F0.1024160385131836
sS'comp_time'
p534
F0.11800670623779297
sS'exec_cq'
p535
I47
sS'total_cq'
p536
I47
sa(dp537
g532
I869
sg533
F0.00032019615173339844
sg534
F0.0011053085327148438
sg535
I40
sg536
I40
sa(dp538
g532
I18
sg533
F0.0001289844512939453
sg534
F0.0015027523040771484
sg535
I3
sg536
I3
sa(dp539
g532
I8
sg533
F0.00012087821960449219
sg534
F0.00022602081298828125
sg535
I2
sg536
I2
sasS'total_cqs'
p540
I47
ssI45
(dp541
S'iters'
p542
I0
sS'meta'
p543
(lp544
sS'total_cqs'
p545
I1
ssI46
(dp546
S'iters'
p547
I3
sS'meta'
p548
(lp549
(dp550
S'objective'
p551
I11
sS'query_time'
p552
F0.03659510612487793
sS'comp_time'
p553
F0.0074977874755859375
sS'exec_cq'
p554
I6
sS'total_cq'
p555
I6
sa(dp556
g551
I8
sg552
F3.719329833984375e-05
sg553
F9.894371032714844e-05
sg554
I5
sg555
I5
sa(dp557
g551
I10
sg552
F2.09808349609375e-05
sg553
F5.8650970458984375e-05
sg554
I4
sg555
I4
sasS'total_cqs'
p558
I6
ssI47
(dp559
S'iters'
p560
I1
sS'meta'
p561
(lp562
(dp563
S'objective'
p564
I1
sS'query_time'
p565
F0.008221149444580078
sS'comp_time'
p566
F0.001142740249633789
sS'exec_cq'
p567
I2
sS'total_cq'
p568
I2
sasS'total_cqs'
p569
I2
ssI48
(dp570
S'iters'
p571
I0
sS'meta'
p572
(lp573
sS'total_cqs'
p574
I1
ssI49
(dp575
S'iters'
p576
I0
sS'meta'
p577
(lp578
sS'total_cqs'
p579
I1
ssI50
(dp580
S'iters'
p581
I4
sS'meta'
p582
(lp583
(dp584
S'objective'
p585
I5
sS'query_time'
p586
F0.007306098937988281
sS'comp_time'
p587
F0.002276182174682617
sS'exec_cq'
p588
I5
sS'total_cq'
p589
I5
sa(dp590
g585
I2
sg586
F2.5987625122070312e-05
sg587
F0.00014281272888183594
sg588
I4
sg589
I4
sa(dp591
g585
I0
sg586
F1.9073486328125e-05
sg587
F9.703636169433594e-05
sg588
I3
sg589
I3
sa(dp592
g585
I1
sg586
F1.3113021850585938e-05
sg587
F8.130073547363281e-05
sg588
I2
sg589
I2
sasS'total_cqs'
p593
I5
ssI51
(dp594
S'iters'
p595
I1
sS'meta'
p596
(lp597
(dp598
S'objective'
p599
I1
sS'query_time'
p600
F0.006743907928466797
sS'comp_time'
p601
F0.0010101795196533203
sS'exec_cq'
p602
I2
sS'total_cq'
p603
I2
sasS'total_cqs'
p604
I2
ssI52
(dp605
S'iters'
p606
I1
sS'meta'
p607
(lp608
(dp609
S'objective'
p610
I1
sS'query_time'
p611
F0.008542060852050781
sS'comp_time'
p612
F0.001386880874633789
sS'exec_cq'
p613
I2
sS'total_cq'
p614
I2
sasS'total_cqs'
p615
I2
ssI53
(dp616
S'iters'
p617
I2
sS'meta'
p618
(lp619
(dp620
S'objective'
p621
I0
sS'query_time'
p622
F0.014858007431030273
sS'comp_time'
p623
F0.002625703811645508
sS'exec_cq'
p624
I4
sS'total_cq'
p625
I4
sa(dp626
g621
I3
sg622
F0.00010919570922851562
sg623
F0.0002410411834716797
sg624
I2
sg625
I2
sasS'total_cqs'
p627
I4
ssI54
(dp628
S'iters'
p629
I2
sS'meta'
p630
(lp631
(dp632
S'objective'
p633
I0
sS'query_time'
p634
F0.011202096939086914
sS'comp_time'
p635
F0.0017807483673095703
sS'exec_cq'
p636
I3
sS'total_cq'
p637
I3
sa(dp638
g633
I1
sg634
F5.0067901611328125e-05
sg635
F0.00014901161193847656
sg636
I2
sg637
I2
sasS'total_cqs'
p639
I3
ssI55
(dp640
S'iters'
p641
I9
sS'meta'
p642
(lp643
(dp644
S'objective'
p645
I4495
sS'query_time'
p646
F2.1692628860473633
sS'comp_time'
p647
F0.8054099082946777
sS'exec_cq'
p648
I109
sS'total_cq'
p649
I109
sa(dp650
g645
I4375
sg646
F0.0009591579437255859
sg647
F0.0039463043212890625
sg648
I97
sg649
I97
sa(dp651
g645
I4298
sg646
F0.0004401206970214844
sg647
F0.0015878677368164062
sg648
I91
sg649
I91
sa(dp652
g645
I4278
sg646
F0.00036215782165527344
sg647
F0.0012621879577636719
sg648
I87
sg649
I87
sa(dp653
g645
I4178
sg646
F0.0003349781036376953
sg647
F0.0008859634399414062
sg648
I85
sg649
I85
sa(dp654
g645
I4091
sg646
F0.0003440380096435547
sg647
F0.0007169246673583984
sg648
I83
sg649
I83
sa(dp655
g645
I4042
sg646
F0.0002911090850830078
sg647
F0.000514984130859375
sg648
I81
sg649
I81
sa(dp656
g645
I3972
sg646
F0.00028514862060546875
sg647
F0.00035762786865234375
sg648
I80
sg649
I80
sa(dp657
g645
I4043
sg646
F0.0002779960632324219
sg647
F0.0003342628479003906
sg648
I79
sg649
I79
sasS'total_cqs'
p658
I109
ssI56
(dp659
S'iters'
p660
I7
sS'meta'
p661
(lp662
(dp663
S'objective'
p664
I1930
sS'query_time'
p665
F1.5436179637908936
sS'comp_time'
p666
F0.3303661346435547
sS'exec_cq'
p667
I67
sS'total_cq'
p668
I76
sa(dp669
g664
I16
sg665
F0.006964921951293945
sg666
F0.1225426197052002
sg667
I16
sg668
I16
sa(dp670
g664
I7
sg665
F0.0033049583435058594
sg666
F0.010124683380126953
sg667
I9
sg668
I9
sa(dp671
g664
I10
sg665
F0.0016219615936279297
sg666
F0.002130746841430664
sg667
I5
sg668
I5
sa(dp672
g664
I17
sg665
F0.001154184341430664
sg666
F0.001965045928955078
sg667
I4
sg668
I4
sa(dp673
g664
I10
sg665
F0.0003120899200439453
sg666
F0.0007822513580322266
sg667
I3
sg668
I3
sa(dp674
g664
I4
sg665
F0.00019407272338867188
sg666
F0.0004191398620605469
sg667
I2
sg668
I2
sasS'total_cqs'
p675
I76
ssI57
(dp676
S'iters'
p677
I7
sS'meta'
p678
(lp679
(dp680
S'objective'
p681
I172
sS'query_time'
p682
F25.327411890029907
sS'comp_time'
p683
F0.15900325775146484
sS'exec_cq'
p684
I45
sS'total_cq'
p685
I51
sa(dp686
g681
I153
sg682
F0.002933025360107422
sg683
F0.0068547725677490234
sg684
I27
sg685
I33
sa(dp687
g681
I14
sg682
F0.002869844436645508
sg683
F0.05594682693481445
sg684
I13
sg685
I13
sa(dp688
g681
I8
sg682
F0.001210927963256836
sg683
F0.010043621063232422
sg684
I6
sg685
I6
sa(dp689
g681
I8
sg682
F0.0011548995971679688
sg683
F0.0013370513916015625
sg684
I4
sg685
I4
sa(dp690
g681
I13
sg682
F0.0006930828094482422
sg683
F0.0009832382202148438
sg684
I3
sg685
I3
sa(dp691
g681
I8
sg682
F0.0006837844848632812
sg683
F0.0008559226989746094
sg684
I2
sg685
I2
sasS'total_cqs'
p692
I51
ssI58
(dp693
S'iters'
p694
I8
sS'meta'
p695
(lp696
(dp697
S'objective'
p698
I83243
sS'query_time'
p699
F520.6289508342743
sS'comp_time'
p700
F28.65129804611206
sS'exec_cq'
p701
I486
sS'total_cq'
p702
I486
sa(dp703
g698
I85944
sg699
F10.121627807617188
sg700
F15.78087306022644
sg701
I414
sg702
I414
sa(dp704
g698
I88
sg699
F0.016273975372314453
sg700
F0.18697857856750488
sg701
I28
sg702
I28
sa(dp705
g698
I14
sg699
F0.01271677017211914
sg700
F2.1690990924835205
sg701
I16
sg702
I16
sa(dp706
g698
I25
sg699
F0.0020780563354492188
sg700
F0.004925966262817383
sg701
I7
sg702
I7
sa(dp707
g698
I28
sg699
F0.0007739067077636719
sg700
F0.0012907981872558594
sg701
I4
sg702
I4
sa(dp708
g698
I389
sg699
F0.0003910064697265625
sg700
F0.0006580352783203125
sg701
I3
sg702
I3
sa(dp709
g698
I29
sg699
F0.0002620220184326172
sg700
F0.0005142688751220703
sg701
I2
sg702
I2
sasS'total_cqs'
p710
I486
ssI59
(dp711
S'iters'
p712
I2
sS'meta'
p713
(lp714
(dp715
S'objective'
p716
I12
sS'query_time'
p717
F0.03605794906616211
sS'comp_time'
p718
F0.006197214126586914
sS'exec_cq'
p719
I7
sS'total_cq'
p720
I7
sa(dp721
g716
I6
sg717
F0.0001990795135498047
sg718
F0.0003619194030761719
sg719
I2
sg720
I2
sasS'total_cqs'
p722
I7
ssI60
(dp723
S'iters'
p724
I4
sS'meta'
p725
(lp726
(dp727
S'objective'
p728
I5
sS'query_time'
p729
F0.012306928634643555
sS'comp_time'
p730
F0.0033512115478515625
sS'exec_cq'
p731
I4
sS'total_cq'
p732
I5
sa(dp733
g728
I2
sg729
F1.0967254638671875e-05
sg730
F4.410743713378906e-05
sg731
I1
sg732
I4
sa(dp734
g728
I0
sg729
F1.7881393432617188e-05
sg730
F8.320808410644531e-05
sg731
I2
sg732
I3
sa(dp735
g728
I1
sg729
F7.867813110351562e-06
sg730
F2.5033950805664062e-05
sg731
I1
sg732
I2
sasS'total_cqs'
p736
I5
ssI61
(dp737
S'iters'
p738
I0
sS'meta'
p739
(lp740
sS'total_cqs'
p741
I1
ssI62
(dp742
S'iters'
p743
I3
sS'meta'
p744
(lp745
(dp746
S'objective'
p747
I40
sS'query_time'
p748
F0.01510310173034668
sS'comp_time'
p749
F0.01681375503540039
sS'exec_cq'
p750
I12
sS'total_cq'
p751
I12
sa(dp752
g747
I55
sg748
F4.100799560546875e-05
sg749
F0.00016498565673828125
sg750
I9
sg751
I9
sa(dp753
g747
I55
sg748
F3.218650817871094e-05
sg749
F6.890296936035156e-05
sg750
I8
sg751
I8
sasS'total_cqs'
p754
I12
ssI63
(dp755
S'iters'
p756
I0
sS'meta'
p757
(lp758
sS'total_cqs'
p759
I1
ssI64
(dp760
S'iters'
p761
I3
sS'meta'
p762
(lp763
(dp764
S'objective'
p765
I40
sS'query_time'
p766
F0.10682296752929688
sS'comp_time'
p767
F0.020061254501342773
sS'exec_cq'
p768
I12
sS'total_cq'
p769
I12
sa(dp770
g765
I1
sg766
F0.00019502639770507812
sg767
F0.0009629726409912109
sg768
I4
sg769
I4
sa(dp771
g765
I7
sg766
F5.5789947509765625e-05
sg767
F0.00015401840209960938
sg768
I2
sg769
I2
sasS'total_cqs'
p772
I12
ssI65
(dp773
S'iters'
p774
I4
sS'meta'
p775
(lp776
(dp777
S'objective'
p778
I190
sS'query_time'
p779
F0.8588218688964844
sS'comp_time'
p780
F0.16313982009887695
sS'exec_cq'
p781
I27
sS'total_cq'
p782
I27
sa(dp783
g778
I6
sg779
F0.001817941665649414
sg780
F0.0031707286834716797
sg781
I7
sg782
I7
sa(dp784
g778
I0
sg779
F0.0007879734039306641
sg780
F0.001422882080078125
sg781
I4
sg782
I4
sa(dp785
g778
I20
sg779
F0.0003681182861328125
sg780
F0.0006859302520751953
sg781
I2
sg782
I2
sasS'total_cqs'
p786
I27
ssI66
(dp787
S'iters'
p788
I0
sS'meta'
p789
(lp790
sS'total_cqs'
p791
I1
ssI67
(dp792
S'iters'
p793
I2
sS'meta'
p794
(lp795
(dp796
S'objective'
p797
I570
sS'query_time'
p798
F0.9313380718231201
sS'comp_time'
p799
F0.07001042366027832
sS'exec_cq'
p800
I35
sS'total_cq'
p801
I35
sa(dp802
g797
I28
sg798
F0.001474142074584961
sg799
F0.0030226707458496094
sg800
I2
sg801
I2
sasS'total_cqs'
p803
I35
ssI68
(dp804
S'iters'
p805
I0
sS'meta'
p806
(lp807
sS'total_cqs'
p808
I1
ssI69
(dp809
S'iters'
p810
I1
sS'meta'
p811
(lp812
(dp813
S'objective'
p814
I1324
sS'query_time'
p815
F0.08298611640930176
sS'comp_time'
p816
F0.1925966739654541
sS'exec_cq'
p817
I51
sS'total_cq'
p818
I51
sasS'total_cqs'
p819
I51
ssI70
(dp820
S'iters'
p821
I4
sS'meta'
p822
(lp823
(dp824
S'objective'
p825
I9
sS'query_time'
p826
F0.06435298919677734
sS'comp_time'
p827
F0.003351449966430664
sS'exec_cq'
p828
I6
sS'total_cq'
p829
I6
sa(dp830
g825
I5
sg826
F4.696846008300781e-05
sg827
F0.0001537799835205078
sg828
I5
sg829
I5
sa(dp831
g825
I4
sg826
F3.910064697265625e-05
sg827
F0.00011110305786132812
sg828
I4
sg829
I4
sa(dp832
g825
I5
sg826
F2.8848648071289062e-05
sg827
F8.106231689453125e-05
sg828
I3
sg829
I3
sasS'total_cqs'
p833
I6
ssI71
(dp834
S'iters'
p835
I8
sS'meta'
p836
(lp837
(dp838
S'objective'
p839
I3263
sS'query_time'
p840
F0.17508411407470703
sS'comp_time'
p841
F0.42809271812438965
sS'exec_cq'
p842
I85
sS'total_cq'
p843
I85
sa(dp844
g839
I3085
sg840
F0.00047087669372558594
sg841
F0.0015239715576171875
sg842
I81
sg843
I81
sa(dp845
g839
I3012
sg840
F0.00029587745666503906
sg841
F0.0011260509490966797
sg842
I78
sg843
I78
sa(dp846
g839
I2968
sg840
F0.00039386749267578125
sg841
F0.0011219978332519531
sg842
I74
sg843
I74
sa(dp847
g839
I2911
sg840
F0.0002789497375488281
sg841
F0.0007171630859375
sg842
I71
sg843
I71
sa(dp848
g839
I2865
sg840
F0.00023889541625976562
sg841
F0.0005662441253662109
sg842
I69
sg843
I69
sa(dp849
g839
I53
sg840
F4.1961669921875e-05
sg841
F0.0022706985473632812
sg842
I3
sg843
I3
sa(dp850
g839
I54
sg840
F3.1948089599609375e-05
sg841
F8.940696716308594e-05
sg842
I2
sg843
I2
sasS'total_cqs'
p851
I85
ssI72
(dp852
S'iters'
p853
I3
sS'meta'
p854
(lp855
(dp856
S'objective'
p857
I6
sS'query_time'
p858
F0.2748410701751709
sS'comp_time'
p859
F0.00455784797668457
sS'exec_cq'
p860
I8
sS'total_cq'
p861
I8
sa(dp862
g857
I3
sg858
F0.00011992454528808594
sg859
F0.00020003318786621094
sg860
I4
sg861
I5
sa(dp863
g857
I7
sg858
F6.604194641113281e-05
sg859
F5.793571472167969e-05
sg860
I2
sg861
I3
sasS'total_cqs'
p864
I8
ssI73
(dp865
S'iters'
p866
I0
sS'meta'
p867
(lp868
sS'total_cqs'
p869
I1
ssI74
(dp870
S'iters'
p871
I0
sS'meta'
p872
(lp873
sS'total_cqs'
p874
I1
ssI75
(dp875
S'iters'
p876
I4
sS'meta'
p877
(lp878
(dp879
S'objective'
p880
I5
sS'query_time'
p881
F0.007770061492919922
sS'comp_time'
p882
F0.002276182174682617
sS'exec_cq'
p883
I5
sS'total_cq'
p884
I5
sa(dp885
g880
I2
sg881
F2.384185791015625e-05
sg882
F0.0001270771026611328
sg883
I4
sg884
I4
sa(dp886
g880
I0
sg881
F1.6927719116210938e-05
sg882
F9.012222290039062e-05
sg883
I3
sg884
I3
sa(dp887
g880
I1
sg881
F1.1920928955078125e-05
sg882
F7.581710815429688e-05
sg883
I2
sg884
I2
sasS'total_cqs'
p888
I5
ssI76
(dp889
S'iters'
p890
I1
sS'meta'
p891
(lp892
(dp893
S'objective'
p894
I1
sS'query_time'
p895
F0.010926008224487305
sS'comp_time'
p896
F0.0015037059783935547
sS'exec_cq'
p897
I2
sS'total_cq'
p898
I2
sasS'total_cqs'
p899
I2
ssI77
(dp900
S'iters'
p901
I0
sS'meta'
p902
(lp903
sS'total_cqs'
p904
I1
ssI78
(dp905
S'iters'
p906
I0
sS'meta'
p907
(lp908
sS'total_cqs'
p909
I1
ssI103
(dp910
S'iters'
p911
I2
sS'meta'
p912
(lp913
(dp914
S'objective'
p915
I56
sS'query_time'
p916
F0.052098989486694336
sS'comp_time'
p917
F0.022254228591918945
sS'exec_cq'
p918
I12
sS'total_cq'
p919
I12
sa(dp920
g915
I65
sg916
F5.602836608886719e-05
sg917
F0.00011777877807617188
sg918
I11
sg919
I11
sasS'total_cqs'
p921
I12
ssI104
(dp922
S'iters'
p923
I2
sS'meta'
p924
(lp925
(dp926
S'objective'
p927
I0
sS'query_time'
p928
F1.4629030227661133
sS'comp_time'
p929
F0.27471399307250977
sS'exec_cq'
p930
I4
sS'total_cq'
p931
I4
sa(dp932
g927
I3
sg928
F0.013393878936767578
sg929
F0.024933815002441406
sg930
I2
sg931
I2
sasS'total_cqs'
p933
I4
ssI105
(dp934
S'iters'
p935
I0
sS'meta'
p936
(lp937
sS'total_cqs'
p938
I1
ssI106
(dp939
S'iters'
p940
I1
sS'meta'
p941
(lp942
(dp943
S'objective'
p944
I8
sS'query_time'
p945
F0.018304109573364258
sS'comp_time'
p946
F0.0026297569274902344
sS'exec_cq'
p947
I4
sS'total_cq'
p948
I4
sasS'total_cqs'
p949
I4
ssI107
(dp950
S'iters'
p951
I2
sS'meta'
p952
(lp953
(dp954
S'objective'
p955
I90
sS'query_time'
p956
F0.05813193321228027
sS'comp_time'
p957
F0.018682479858398438
sS'exec_cq'
p958
I16
sS'total_cq'
p959
I16
sa(dp960
g955
I21
sg956
F2.7894973754882812e-05
sg957
F0.0002429485321044922
sg958
I3
sg959
I3
sasS'total_cqs'
p961
I16
ssI108
(dp962
S'iters'
p963
I0
sS'meta'
p964
(lp965
sS'total_cqs'
p966
I1
ss.