(dp0
I1
(dp1
S'iters'
p2
I1
sS'meta'
p3
(lp4
(dp5
S'objective'
p6
I58
sS'query_time'
p7
F0.017457962036132812
sS'comp_time'
p8
F7.987022399902344e-05
sS'exec_cq'
p9
I3
sS'total_cq'
p10
I12
sasS'total_cqs'
p11
I12
ssI2
(dp12
S'iters'
p13
I2
sS'meta'
p14
(lp15
(dp16
S'objective'
p17
I324
sS'query_time'
p18
F0.026018857955932617
sS'comp_time'
p19
F9.870529174804688e-05
sS'exec_cq'
p20
I4
sS'total_cq'
p21
I27
sa(dp22
g17
I307
sg18
F0.022047042846679688
sg19
F0.000102996826171875
sg20
I5
sg21
I25
sasS'total_cqs'
p23
I27
ssI3
(dp24
S'iters'
p25
I5
sS'meta'
p26
(lp27
(dp28
S'objective'
p29
I476
sS'query_time'
p30
F7.528887033462524
sS'comp_time'
p31
F0.0001068115234375
sS'exec_cq'
p32
I1
sS'total_cq'
p33
I43
sa(dp34
g29
I283
sg30
F28.877685070037842
sg31
F0.0006110668182373047
sg32
I2
sg33
I33
sa(dp35
g29
I229
sg30
F25.673336029052734
sg31
F0.00017404556274414062
sg32
I2
sg33
I25
sa(dp36
g29
I99
sg30
F8.466248035430908
sg31
F0.00011801719665527344
sg32
I2
sg33
I21
sa(dp37
g29
I163
sg30
F20.008338928222656
sg31
F9.393692016601562e-05
sg32
I2
sg33
I16
sasS'total_cqs'
p38
I43
ssI4
(dp39
S'iters'
p40
I1
sS'meta'
p41
(lp42
(dp43
S'objective'
p44
I46
sS'query_time'
p45
F3.559485912322998
sS'comp_time'
p46
F0.0002701282501220703
sS'exec_cq'
p47
I2
sS'total_cq'
p48
I11
sasS'total_cqs'
p49
I11
ssI5
(dp50
S'iters'
p51
I2
sS'meta'
p52
(lp53
(dp54
S'objective'
p55
I10
sS'query_time'
p56
F0.8520569801330566
sS'comp_time'
p57
F7.200241088867188e-05
sS'exec_cq'
p58
I1
sS'total_cq'
p59
I8
sa(dp60
g55
I1
sg56
F0.3081398010253906
sg57
F6.890296936035156e-05
sg58
I1
sg59
I3
sasS'total_cqs'
p61
I8
ssI6
(dp62
S'iters'
p63
I3
sS'meta'
p64
(lp65
(dp66
S'objective'
p67
I135
sS'query_time'
p68
F12.58194613456726
sS'comp_time'
p69
F0.0001518726348876953
sS'exec_cq'
p70
I1
sS'total_cq'
p71
I18
sa(dp72
g67
I119
sg68
F0.059448957443237305
sg69
F0.00010704994201660156
sg70
I1
sg71
I17
sa(dp73
g67
I106
sg68
F0.4346299171447754
sg69
F0.00010800361633300781
sg70
I2
sg71
I16
sasS'total_cqs'
p74
I18
ssI7
(dp75
S'iters'
p76
I3
sS'meta'
p77
(lp78
(dp79
S'objective'
p80
I27
sS'query_time'
p81
F2.9916489124298096
sS'comp_time'
p82
F0.0002808570861816406
sS'exec_cq'
p83
I1
sS'total_cq'
p84
I9
sa(dp85
g80
I14
sg81
F0.19727110862731934
sg82
F8.916854858398438e-05
sg83
I1
sg84
I8
sa(dp86
g80
I5
sg81
F0.0025320053100585938
sg82
F5.0067901611328125e-05
sg83
I1
sg84
I2
sasS'total_cqs'
p87
I9
ssI8
(dp88
S'iters'
p89
I2
sS'meta'
p90
(lp91
(dp92
S'objective'
p93
I298
sS'query_time'
p94
F0.027755022048950195
sS'comp_time'
p95
F0.00010585784912109375
sS'exec_cq'
p96
I1
sS'total_cq'
p97
I27
sa(dp98
g93
I294
sg94
F0.021001100540161133
sg95
F0.00010800361633300781
sg96
I5
sg97
I24
sasS'total_cqs'
p99
I27
ssI9
(dp100
S'iters'
p101
I2
sS'meta'
p102
(lp103
(dp104
S'objective'
p105
I10
sS'query_time'
p106
F0.016865015029907227
sS'comp_time'
p107
F7.677078247070312e-05
sS'exec_cq'
p108
I1
sS'total_cq'
p109
I7
sa(dp110
g105
I5
sg106
F0.016209125518798828
sg107
F7.987022399902344e-05
sg108
I2
sg109
I5
sasS'total_cqs'
p111
I7
ssI10
(dp112
S'iters'
p113
I7
sS'meta'
p114
(lp115
(dp116
S'objective'
p117
I1196
sS'query_time'
p118
F0.0866689682006836
sS'comp_time'
p119
F0.00010800361633300781
sS'exec_cq'
p120
I1
sS'total_cq'
p121
I51
sa(dp122
g117
I925
sg118
F0.07666277885437012
sg119
F9.584426879882812e-05
sg120
I2
sg121
I48
sa(dp123
g117
I955
sg118
F0.05637717247009277
sg119
F0.00010895729064941406
sg120
I3
sg121
I43
sa(dp124
g117
I564
sg118
F0.027283906936645508
sg119
F0.00013113021850585938
sg120
I3
sg121
I41
sa(dp125
g117
I708
sg118
F0.05103182792663574
sg119
F0.00012612342834472656
sg120
I3
sg121
I33
sa(dp126
g117
I649
sg118
F0.015970230102539062
sg119
F0.0001430511474609375
sg120
I4
sg121
I32
sa(dp127
g117
I29
sg118
F0.004431009292602539
sg119
F9.226799011230469e-05
sg120
I2
sg121
I2
sasS'total_cqs'
p128
I51
ssI11
(dp129
S'iters'
p130
I7
sS'meta'
p131
(lp132
(dp133
S'objective'
p134
I1586
sS'query_time'
p135
F0.11641812324523926
sS'comp_time'
p136
F0.00015592575073242188
sS'exec_cq'
p137
I3
sS'total_cq'
p138
I63
sa(dp139
g134
I1681
sg135
F0.06682395935058594
sg136
F0.00013017654418945312
sg137
I3
sg138
I57
sa(dp140
g134
I1513
sg135
F0.0677640438079834
sg136
F0.00013685226440429688
sg137
I3
sg138
I56
sa(dp141
g134
I1511
sg135
F0.05940103530883789
sg136
F0.00017404556274414062
sg137
I3
sg138
I54
sa(dp142
g134
I577
sg135
F0.09053683280944824
sg136
F0.0001347064971923828
sg137
I3
sg138
I53
sa(dp143
g134
I655
sg135
F0.044756174087524414
sg136
F0.00010609626770019531
sg137
I6
sg138
I37
sa(dp144
g134
I111
sg135
F0.0168759822845459
sg136
F6.008148193359375e-05
sg137
I2
sg138
I6
sasS'total_cqs'
p145
I63
ssI12
(dp146
S'iters'
p147
I5
sS'meta'
p148
(lp149
(dp150
S'objective'
p151
I337
sS'query_time'
p152
F0.08615493774414062
sS'comp_time'
p153
F0.00015211105346679688
sS'exec_cq'
p154
I1
sS'total_cq'
p155
I50
sa(dp156
g151
I444
sg152
F0.07732391357421875
sg153
F0.00011801719665527344
sg154
I3
sg155
I33
sa(dp157
g151
I1
sg152
F0.007949113845825195
sg153
F9.393692016601562e-05
sg154
I1
sg155
I8
sa(dp158
g151
I42
sg152
F0.04653286933898926
sg153
F0.00010991096496582031
sg154
I2
sg155
I4
sa(dp159
g151
I12
sg152
F0.012744903564453125
sg153
F7.009506225585938e-05
sg154
I2
sg155
I3
sasS'total_cqs'
p160
I50
ssI13
(dp161
S'iters'
p162
I3
sS'meta'
p163
(lp164
(dp165
S'objective'
p166
I40
sS'query_time'
p167
F0.041815996170043945
sS'comp_time'
p168
F0.00010204315185546875
sS'exec_cq'
p169
I1
sS'total_cq'
p170
I20
sa(dp171
g166
I47
sg167
F0.013077020645141602
sg168
F8.106231689453125e-05
sg169
I1
sg170
I9
sa(dp172
g166
I34
sg167
F0.009358882904052734
sg168
F7.390975952148438e-05
sg169
I1
sg170
I8
sasS'total_cqs'
p173
I20
ssI14
(dp174
S'iters'
p175
I3
sS'meta'
p176
(lp177
(dp178
S'objective'
p179
I13
sS'query_time'
p180
F7.622876882553101
sS'comp_time'
p181
F8.511543273925781e-05
sS'exec_cq'
p182
I1
sS'total_cq'
p183
I9
sa(dp184
g179
I9
sg180
F0.30075693130493164
sg181
F7.009506225585938e-05
sg182
I1
sg183
I7
sa(dp185
g179
I6
sg180
F0.00413203239440918
sg181
F5.3882598876953125e-05
sg182
I1
sg183
I2
sasS'total_cqs'
p186
I9
ssI15
(dp187
S'iters'
p188
I2
sS'meta'
p189
(lp190
(dp191
S'objective'
p192
I36
sS'query_time'
p193
F0.06149911880493164
sS'comp_time'
p194
F8.511543273925781e-05
sS'exec_cq'
p195
I1
sS'total_cq'
p196
I11
sa(dp197
g192
I31
sg193
F0.06834197044372559
sg194
F0.0001049041748046875
sg195
I1
sg196
I9
sasS'total_cqs'
p198
I11
ssI16
(dp199
S'iters'
p200
I1
sS'meta'
p201
(lp202
(dp203
S'objective'
p204
I22
sS'query_time'
p205
F0.009721994400024414
sS'comp_time'
p206
F7.104873657226562e-05
sS'exec_cq'
p207
I2
sS'total_cq'
p208
I8
sasS'total_cqs'
p209
I8
ssI17
(dp210
S'iters'
p211
I3
sS'meta'
p212
(lp213
(dp214
S'objective'
p215
I26
sS'query_time'
p216
F0.03224301338195801
sS'comp_time'
p217
F7.486343383789062e-05
sS'exec_cq'
p218
I1
sS'total_cq'
p219
I11
sa(dp220
g215
I2
sg216
F0.02273106575012207
sg217
F7.891654968261719e-05
sg218
I1
sg219
I8
sa(dp221
g215
I2
sg216
F0.0023589134216308594
sg217
F5.91278076171875e-05
sg218
I1
sg219
I3
sasS'total_cqs'
p222
I11
ssI18
(dp223
S'iters'
p224
I2
sS'meta'
p225
(lp226
(dp227
S'objective'
p228
I44
sS'query_time'
p229
F0.025563955307006836
sS'comp_time'
p230
F8.678436279296875e-05
sS'exec_cq'
p231
I1
sS'total_cq'
p232
I11
sa(dp233
g228
I35
sg229
F0.013065099716186523
sg230
F9.989738464355469e-05
sg231
I1
sg232
I10
sasS'total_cqs'
p234
I11
ssI19
(dp235
S'iters'
p236
I0
sS'meta'
p237
(lp238
sS'total_cqs'
p239
I1
ssI20
(dp240
S'iters'
p241
I0
sS'meta'
p242
(lp243
sS'total_cqs'
p244
I1
ssI21
(dp245
S'iters'
p246
I0
sS'meta'
p247
(lp248
sS'total_cqs'
p249
I1
ssI22
(dp250
S'iters'
p251
I1
sS'meta'
p252
(lp253
(dp254
S'objective'
p255
I141
sS'query_time'
p256
F0.0293581485748291
sS'comp_time'
p257
F7.796287536621094e-05
sS'exec_cq'
p258
I4
sS'total_cq'
p259
I18
sasS'total_cqs'
p260
I18
ssI23
(dp261
S'iters'
p262
I3
sS'meta'
p263
(lp264
(dp265
S'objective'
p266
I84
sS'query_time'
p267
F0.014396190643310547
sS'comp_time'
p268
F0.00010180473327636719
sS'exec_cq'
p269
I1
sS'total_cq'
p270
I16
sa(dp271
g266
I82
sg267
F0.35407304763793945
sg268
F9.298324584960938e-05
sg269
I2
sg270
I14
sa(dp272
g266
I70
sg267
F0.007156848907470703
sg268
F6.794929504394531e-05
sg269
I2
sg270
I13
sasS'total_cqs'
p273
I16
ssI24
(dp274
S'iters'
p275
I0
sS'meta'
p276
(lp277
sS'total_cqs'
p278
I1
ssI25
(dp279
S'iters'
p280
I0
sS'meta'
p281
(lp282
sS'total_cqs'
p283
I1
ssI26
(dp284
S'iters'
p285
I1
sS'meta'
p286
(lp287
(dp288
S'objective'
p289
I837
sS'query_time'
p290
F0.058400869369506836
sS'comp_time'
p291
F0.00014400482177734375
sS'exec_cq'
p292
I10
sS'total_cq'
p293
I42
sasS'total_cqs'
p294
I42
ssI27
(dp295
S'iters'
p296
I4
sS'meta'
p297
(lp298
(dp299
S'objective'
p300
I405
sS'query_time'
p301
F10.049612045288086
sS'comp_time'
p302
F0.0001468658447265625
sS'exec_cq'
p303
I1
sS'total_cq'
p304
I30
sa(dp305
g300
I379
sg301
F0.5705740451812744
sg302
F0.00010895729064941406
sg303
I2
sg304
I29
sa(dp306
g300
I325
sg301
F2.607675075531006
sg302
F0.00010800361633300781
sg303
I5
sg304
I28
sa(dp307
g300
I7
sg301
F1224.15363407135
sg302
F0.00017380714416503906
sg303
I2
sg304
I2
sasS'total_cqs'
p308
I30
ssI28
(dp309
S'iters'
p310
I0
sS'meta'
p311
(lp312
sS'total_cqs'
p313
I1
ssI29
(dp314
S'iters'
p315
I5
sS'meta'
p316
(lp317
(dp318
S'objective'
p319
I1127
sS'query_time'
p320
F8.367182970046997
sS'comp_time'
p321
F0.00022101402282714844
sS'exec_cq'
p322
I1
sS'total_cq'
p323
I49
sa(dp324
g319
I392
sg320
F0.5491700172424316
sg321
F0.000492095947265625
sg322
I1
sg323
I48
sa(dp325
g319
I262
sg320
F0.1639111042022705
sg321
F9.393692016601562e-05
sg322
I1
sg323
I17
sa(dp326
g319
I233
sg320
F0.37987184524536133
sg321
F0.00010013580322265625
sg322
I1
sg323
I15
sa(dp327
g319
I204
sg320
F0.10382604598999023
sg321
F6.580352783203125e-05
sg322
I1
sg323
I14
sasS'total_cqs'
p328
I49
ssI30
(dp329
S'iters'
p330
I1
sS'meta'
p331
(lp332
(dp333
S'objective'
p334
I1
sS'query_time'
p335
F0.6559019088745117
sS'comp_time'
p336
F7.987022399902344e-05
sS'exec_cq'
p337
I1
sS'total_cq'
p338
I2
sasS'total_cqs'
p339
I2
ssI31
(dp340
S'iters'
p341
I0
sS'meta'
p342
(lp343
sS'total_cqs'
p344
I1
ssI32
(dp345
S'iters'
p346
I1
sS'meta'
p347
(lp348
(dp349
S'objective'
p350
I1
sS'query_time'
p351
F0.009844779968261719
sS'comp_time'
p352
F7.796287536621094e-05
sS'exec_cq'
p353
I1
sS'total_cq'
p354
I2
sasS'total_cqs'
p355
I2
ssI33
(dp356
S'iters'
p357
I8
sS'meta'
p358
(lp359
(dp360
S'objective'
p361
I5150
sS'query_time'
p362
F4.496326923370361
sS'comp_time'
p363
F0.00017595291137695312
sS'exec_cq'
p364
I1
sS'total_cq'
p365
I103
sa(dp366
g361
I4641
sg362
F0.7806110382080078
sg363
F0.00020194053649902344
sg364
I3
sg365
I102
sa(dp367
g361
I4647
sg362
F1.1188969612121582
sg363
F0.00017905235290527344
sg364
I5
sg365
I98
sa(dp368
g361
I4037
sg362
F0.6483361721038818
sg363
F0.0001811981201171875
sg364
I7
sg365
I96
sa(dp369
g361
I194
sg362
F0.10354208946228027
sg363
F8.678436279296875e-05
sg364
I1
sg365
I5
sa(dp370
g361
I111
sg362
F0.6218280792236328
sg363
F8.20159912109375e-05
sg364
I1
sg365
I4
sa(dp371
g361
I27
sg362
F0.2873260974884033
sg363
F8.487701416015625e-05
sg364
I1
sg365
I3
sa(dp372
g361
I45
sg362
F0.05027508735656738
sg363
F8.0108642578125e-05
sg364
I1
sg365
I2
sasS'total_cqs'
p373
I103
ssI34
(dp374
S'iters'
p375
I1
sS'meta'
p376
(lp377
(dp378
S'objective'
p379
I1
sS'query_time'
p380
F0.012840986251831055
sS'comp_time'
p381
F7.104873657226562e-05
sS'exec_cq'
p382
I1
sS'total_cq'
p383
I2
sasS'total_cqs'
p384
I2
ssI35
(dp385
S'iters'
p386
I9
sS'meta'
p387
(lp388
(dp389
S'objective'
p390
I2359
sS'query_time'
p391
F23.207664012908936
sS'comp_time'
p392
F0.00014901161193847656
sS'exec_cq'
p393
I3
sS'total_cq'
p394
I70
sa(dp395
g390
I2332
sg391
F0.1851651668548584
sg392
F0.00015687942504882812
sg393
I8
sg394
I69
sa(dp396
g390
I2307
sg391
F19.3990318775177
sg392
F0.0003120899200439453
sg393
I10
sg394
I68
sa(dp397
g390
I2326
sg391
F0.16607284545898438
sg392
F0.00015306472778320312
sg393
I13
sg394
I67
sa(dp398
g390
I2326
sg391
F0.12955808639526367
sg392
F0.00014090538024902344
sg393
I15
sg394
I66
sa(dp399
g390
I2192
sg391
F0.05198097229003906
sg392
F0.0001087188720703125
sg393
I16
sg394
I65
sa(dp400
g390
I1861
sg391
F0.231903076171875
sg392
F0.00012683868408203125
sg393
I20
sg394
I64
sa(dp401
g390
I64
sg391
F0.04409313201904297
sg392
F7.963180541992188e-05
sg393
I2
sg394
I4
sa(dp402
g390
I24
sg391
F0.03795289993286133
sg392
F8.988380432128906e-05
sg393
I1
sg394
I3
sasS'total_cqs'
p403
I70
ssI36
(dp404
S'iters'
p405
I3
sS'meta'
p406
(lp407
(dp408
S'objective'
p409
I469
sS'query_time'
p410
F0.10519099235534668
sS'comp_time'
p411
F0.00010800361633300781
sS'exec_cq'
p412
I6
sS'total_cq'
p413
I33
sa(dp414
g409
I461
sg410
F0.07638096809387207
sg411
F0.00011324882507324219
sg412
I6
sg413
I31
sa(dp415
g409
I436
sg410
F0.03840208053588867
sg411
F9.489059448242188e-05
sg412
I6
sg413
I30
sasS'total_cqs'
p416
I33
ssI37
(dp417
S'iters'
p418
I1
sS'meta'
p419
(lp420
(dp421
S'objective'
p422
I1
sS'query_time'
p423
F0.007157087326049805
sS'comp_time'
p424
F7.295608520507812e-05
sS'exec_cq'
p425
I1
sS'total_cq'
p426
I2
sasS'total_cqs'
p427
I2
ssI38
(dp428
S'iters'
p429
I3
sS'meta'
p430
(lp431
(dp432
S'objective'
p433
I8
sS'query_time'
p434
F0.014490842819213867
sS'comp_time'
p435
F7.891654968261719e-05
sS'exec_cq'
p436
I1
sS'total_cq'
p437
I4
sa(dp438
g433
I5
sg434
F0.006031036376953125
sg435
F7.510185241699219e-05
sg436
I1
sg437
I3
sa(dp439
g433
I1
sg434
F0.0054819583892822266
sg435
F7.915496826171875e-05
sg436
I2
sg437
I2
sasS'total_cqs'
p440
I4
ssI39
(dp441
S'iters'
p442
I2
sS'meta'
p443
(lp444
(dp445
S'objective'
p446
I608
sS'query_time'
p447
F0.04879283905029297
sS'comp_time'
p448
F0.00011110305786132812
sS'exec_cq'
p449
I9
sS'total_cq'
p450
I44
sa(dp451
g446
I123
sg447
F0.04399514198303223
sg448
F8.893013000488281e-05
sg449
I2
sg450
I8
sasS'total_cqs'
p452
I44
ssI40
(dp453
S'iters'
p454
I1
sS'meta'
p455
(lp456
(dp457
S'objective'
p458
I14
sS'query_time'
p459
F0.014097929000854492
sS'comp_time'
p460
F7.581710815429688e-05
sS'exec_cq'
p461
I1
sS'total_cq'
p462
I7
sasS'total_cqs'
p463
I7
ssI41
(dp464
S'iters'
p465
I1
sS'meta'
p466
(lp467
(dp468
S'objective'
p469
I58
sS'query_time'
p470
F0.029577970504760742
sS'comp_time'
p471
F8.678436279296875e-05
sS'exec_cq'
p472
I3
sS'total_cq'
p473
I12
sasS'total_cqs'
p474
I12
ssI42
(dp475
S'iters'
p476
I3
sS'meta'
p477
(lp478
(dp479
S'objective'
p480
I785
sS'query_time'
p481
F0.029659032821655273
sS'comp_time'
p482
F0.00010395050048828125
sS'exec_cq'
p483
I4
sS'total_cq'
p484
I41
sa(dp485
g480
I753
sg481
F0.023924827575683594
sg482
F0.0001068115234375
sg483
I6
sg484
I40
sa(dp486
g480
I724
sg481
F0.02167201042175293
sg482
F0.00010895729064941406
sg483
I8
sg484
I39
sasS'total_cqs'
p487
I41
ssI43
(dp488
S'iters'
p489
I1
sS'meta'
p490
(lp491
(dp492
S'objective'
p493
I14
sS'query_time'
p494
F0.01368093490600586
sS'comp_time'
p495
F7.534027099609375e-05
sS'exec_cq'
p496
I1
sS'total_cq'
p497
I7
sasS'total_cqs'
p498
I7
ssI44
(dp499
S'iters'
p500
I3
sS'meta'
p501
(lp502
(dp503
S'objective'
p504
I658
sS'query_time'
p505
F0.05061006546020508
sS'comp_time'
p506
F0.00012493133544921875
sS'exec_cq'
p507
I2
sS'total_cq'
p508
I47
sa(dp509
g504
I761
sg505
F0.03888702392578125
sg506
F0.00012493133544921875
sg507
I8
sg508
I40
sa(dp510
g504
I8
sg505
F0.027765989303588867
sg506
F8.606910705566406e-05
sg507
I2
sg508
I2
sasS'total_cqs'
p511
I47
ssI45
(dp512
S'iters'
p513
I0
sS'meta'
p514
(lp515
sS'total_cqs'
p516
I1
ssI46
(dp517
S'iters'
p518
I1
sS'meta'
p519
(lp520
(dp521
S'objective'
p522
I9
sS'query_time'
p523
F0.006021022796630859
sS'comp_time'
p524
F7.891654968261719e-05
sS'exec_cq'
p525
I1
sS'total_cq'
p526
I6
sasS'total_cqs'
p527
I6
ssI47
(dp528
S'iters'
p529
I1
sS'meta'
p530
(lp531
(dp532
S'objective'
p533
I1
sS'query_time'
p534
F0.005882978439331055
sS'comp_time'
p535
F6.699562072753906e-05
sS'exec_cq'
p536
I1
sS'total_cq'
p537
I2
sasS'total_cqs'
p538
I2
ssI48
(dp539
S'iters'
p540
I0
sS'meta'
p541
(lp542
sS'total_cqs'
p543
I1
ssI49
(dp544
S'iters'
p545
I0
sS'meta'
p546
(lp547
sS'total_cqs'
p548
I1
ssI50
(dp549
S'iters'
p550
I1
sS'meta'
p551
(lp552
(dp553
S'objective'
p554
I5
sS'query_time'
p555
F0.0044901371002197266
sS'comp_time'
p556
F6.127357482910156e-05
sS'exec_cq'
p557
I1
sS'total_cq'
p558
I5
sasS'total_cqs'
p559
I5
ssI51
(dp560
S'iters'
p561
I1
sS'meta'
p562
(lp563
(dp564
S'objective'
p565
I1
sS'query_time'
p566
F0.0056018829345703125
sS'comp_time'
p567
F6.604194641113281e-05
sS'exec_cq'
p568
I1
sS'total_cq'
p569
I2
sasS'total_cqs'
p570
I2
ssI52
(dp571
S'iters'
p572
I1
sS'meta'
p573
(lp574
(dp575
S'objective'
p576
I1
sS'query_time'
p577
F0.0055539608001708984
sS'comp_time'
p578
F6.103515625e-05
sS'exec_cq'
p579
I1
sS'total_cq'
p580
I2
sasS'total_cqs'
p581
I2
ssI53
(dp582
S'iters'
p583
I1
sS'meta'
p584
(lp585
(dp586
S'objective'
p587
I2
sS'query_time'
p588
F0.01181483268737793
sS'comp_time'
p589
F7.796287536621094e-05
sS'exec_cq'
p590
I1
sS'total_cq'
p591
I4
sasS'total_cqs'
p592
I4
ssI54
(dp593
S'iters'
p594
I2
sS'meta'
p595
(lp596
(dp597
S'objective'
p598
I0
sS'query_time'
p599
F0.005388975143432617
sS'comp_time'
p600
F6.008148193359375e-05
sS'exec_cq'
p601
I1
sS'total_cq'
p602
I3
sa(dp603
g598
I1
sg599
F0.0053691864013671875
sg600
F5.4836273193359375e-05
sg601
I1
sg602
I2
sasS'total_cqs'
p604
I3
ssI55
(dp605
S'iters'
p606
I6
sS'meta'
p607
(lp608
(dp609
S'objective'
p610
I5783
sS'query_time'
p611
F0.21398496627807617
sS'comp_time'
p612
F0.00019502639770507812
sS'exec_cq'
p613
I4
sS'total_cq'
p614
I109
sa(dp615
g610
I4941
sg611
F0.30037403106689453
sg612
F0.0001857280731201172
sg613
I7
sg614
I108
sa(dp616
g610
I4937
sg611
F0.20434784889221191
sg612
F0.0001709461212158203
sg613
I12
sg614
I100
sa(dp617
g610
I5000
sg611
F0.15169405937194824
sg612
F0.00017714500427246094
sg613
I19
sg614
I96
sa(dp618
g610
I4918
sg611
F0.43471407890319824
sg612
F0.00021195411682128906
sg613
I21
sg614
I95
sa(dp619
g610
I4837
sg611
F0.12346601486206055
sg612
F0.00019216537475585938
sg613
I21
sg614
I94
sasS'total_cqs'
p620
I109
ssI56
(dp621
S'iters'
p622
I9
sS'meta'
p623
(lp624
(dp625
S'objective'
p626
I2130
sS'query_time'
p627
F0.3116109371185303
sS'comp_time'
p628
F0.00015425682067871094
sS'exec_cq'
p629
I1
sS'total_cq'
p630
I76
sa(dp631
g626
I2244
sg627
F0.3045189380645752
sg628
F0.00012612342834472656
sg629
I1
sg630
I67
sa(dp632
g626
I2248
sg627
F0.9770491123199463
sg628
F0.0002009868621826172
sg629
I5
sg630
I64
sa(dp633
g626
I2181
sg627
F0.2970089912414551
sg628
F0.00013208389282226562
sg629
I5
sg630
I63
sa(dp634
g626
I2121
sg627
F0.19637393951416016
sg628
F0.00016117095947265625
sg629
I7
sg630
I62
sa(dp635
g626
I2053
sg627
F0.3441340923309326
sg628
F0.001962900161743164
sg629
I8
sg630
I61
sa(dp636
g626
I1999
sg627
F0.06617403030395508
sg628
F0.00013303756713867188
sg629
I8
sg630
I59
sa(dp637
g626
I1857
sg627
F0.17674994468688965
sg628
F0.00012302398681640625
sg629
I8
sg630
I58
sa(dp638
g626
I1842
sg627
F0.09509897232055664
sg628
F0.00011396408081054688
sg629
I8
sg630
I56
sasS'total_cqs'
p639
I76
ssI57
(dp640
S'iters'
p641
I10
sS'meta'
p642
(lp643
(dp644
S'objective'
p645
I1222
sS'query_time'
p646
F0.6689178943634033
sS'comp_time'
p647
F0.00012874603271484375
sS'exec_cq'
p648
I1
sS'total_cq'
p649
I51
sa(dp650
g645
I1130
sg646
F9.7312490940094
sg647
F0.0004451274871826172
sg648
I1
sg649
I49
sa(dp651
g645
I856
sg646
F0.4445319175720215
sg647
F0.00012803077697753906
sg648
I1
sg649
I46
sa(dp652
g645
I921
sg646
F1.9902729988098145
sg647
F0.00016999244689941406
sg648
I1
sg649
I40
sa(dp653
g645
I841
sg646
F2.2169580459594727
sg647
F0.0001251697540283203
sg648
I1
sg649
I38
sa(dp654
g645
I434
sg646
F0.2803311347961426
sg647
F0.00011801719665527344
sg648
I2
sg649
I36
sa(dp655
g645
I521
sg646
F1.8615648746490479
sg647
F9.894371032714844e-05
sg648
I2
sg649
I27
sa(dp656
g645
I408
sg646
F0.5666179656982422
sg647
F0.0001049041748046875
sg648
I3
sg649
I23
sa(dp657
g645
I384
sg646
F0.07924389839172363
sg647
F9.584426879882812e-05
sg648
I3
sg649
I20
sa(dp658
g645
I21
sg646
F0.010272979736328125
sg647
F6.103515625e-05
sg648
I1
sg649
I2
sasS'total_cqs'
p659
I51
ssI58
(dp660
S'iters'
p661
I33
sS'meta'
p662
(lp663
(dp664
S'objective'
p665
I111191
sS'query_time'
p666
F13.020080089569092
sS'comp_time'
p667
F0.0005621910095214844
sS'exec_cq'
p668
I2
sS'total_cq'
p669
I486
sa(dp670
g665
I99370
sg666
F1.9891679286956787
sg667
F0.0006320476531982422
sg668
I2
sg669
I474
sa(dp671
g665
I103060
sg666
F5.165683031082153
sg667
F0.0016980171203613281
sg668
I5
sg669
I438
sa(dp672
g665
I92502
sg666
F1.510451078414917
sg667
F0.00034117698669433594
sg668
I7
sg669
I429
sa(dp673
g665
I97279
sg666
F24.290052890777588
sg667
F0.0004811286926269531
sg668
I10
sg669
I402
sa(dp674
g665
I96785
sg666
F2.0660400390625
sg667
F0.0004019737243652344
sg668
I13
sg669
I400
sa(dp675
g665
I95956
sg666
F1.4577100276947021
sg667
F0.0004639625549316406
sg668
I15
sg669
I396
sa(dp676
g665
I93342
sg666
F1.43165922164917
sg667
F0.00074005126953125
sg668
I15
sg669
I393
sa(dp677
g665
I89742
sg666
F1.733363151550293
sg667
F0.0008039474487304688
sg668
I18
sg669
I389
sa(dp678
g665
I91017
sg666
F10.96164083480835
sg667
F0.000446319580078125
sg668
I21
sg669
I380
sa(dp679
g665
I85607
sg666
F3.463475227355957
sg667
F0.0004858970642089844
sg668
I22
sg669
I378
sa(dp680
g665
I87208
sg666
F6.049355983734131
sg667
F0.00039386749267578125
sg668
I23
sg669
I364
sa(dp681
g665
I86054
sg666
F2.3901360034942627
sg667
F0.00035190582275390625
sg668
I26
sg669
I361
sa(dp682
g665
I85466
sg666
F3.6837151050567627
sg667
F0.0008671283721923828
sg668
I28
sg669
I358
sa(dp683
g665
I81269
sg666
F6.337795972824097
sg667
F0.0005559921264648438
sg668
I30
sg669
I354
sa(dp684
g665
I81711
sg666
F0.6436359882354736
sg667
F0.0006940364837646484
sg668
I31
sg669
I346
sa(dp685
g665
I81876
sg666
F8.39496898651123
sg667
F0.0007989406585693359
sg668
I31
sg669
I342
sa(dp686
g665
I79753
sg666
F3.90004301071167
sg667
F0.000457763671875
sg668
I34
sg669
I341
sa(dp687
g665
I78622
sg666
F1.134706974029541
sg667
F0.0013051033020019531
sg668
I35
sg669
I335
sa(dp688
g665
I78765
sg666
F0.36345887184143066
sg667
F0.00037598609924316406
sg668
I36
sg669
I328
sa(dp689
g665
I78489
sg666
F0.44634485244750977
sg667
F0.0004029273986816406
sg668
I45
sg669
I326
sa(dp690
g665
I76940
sg666
F0.35929393768310547
sg667
F0.0006570816040039062
sg668
I45
sg669
I325
sa(dp691
g665
I76898
sg666
F0.4346761703491211
sg667
F0.0005621910095214844
sg668
I48
sg669
I322
sa(dp692
g665
I76617
sg666
F3.89566707611084
sg667
F0.0005300045013427734
sg668
I49
sg669
I319
sa(dp693
g665
I74374
sg666
F0.8829460144042969
sg667
F0.00038313865661621094
sg668
I49
sg669
I318
sa(dp694
g665
I74907
sg666
F0.3474459648132324
sg667
F0.0007021427154541016
sg668
I49
sg669
I313
sa(dp695
g665
I74494
sg666
F0.3596770763397217
sg667
F0.0004191398620605469
sg668
I56
sg669
I312
sa(dp696
g665
I74129
sg666
F4.2303760051727295
sg667
F0.0003757476806640625
sg668
I56
sg669
I310
sa(dp697
g665
I73215
sg666
F0.31070613861083984
sg667
F0.0003781318664550781
sg668
I56
sg669
I309
sa(dp698
g665
I72600
sg666
F1.9862849712371826
sg667
F0.0003008842468261719
sg668
I57
sg669
I307
sa(dp699
g665
I71456
sg666
F0.4546020030975342
sg667
F0.0006041526794433594
sg668
I58
sg669
I302
sa(dp700
g665
I720
sg666
F0.026484012603759766
sg667
F0.000102996826171875
sg668
I1
sg669
I4
sa(dp701
g665
I72
sg666
F0.009411811828613281
sg667
F5.817413330078125e-05
sg668
I1
sg669
I3
sasS'total_cqs'
p702
I486
ssI59
(dp703
S'iters'
p704
I2
sS'meta'
p705
(lp706
(dp707
S'objective'
p708
I4
sS'query_time'
p709
F0.02171611785888672
sS'comp_time'
p710
F6.890296936035156e-05
sS'exec_cq'
p711
I1
sS'total_cq'
p712
I7
sa(dp713
g708
I2
sg709
F0.03585410118103027
sg710
F7.62939453125e-05
sg711
I2
sg712
I2
sasS'total_cqs'
p714
I7
ssI60
(dp715
S'iters'
p716
I1
sS'meta'
p717
(lp718
(dp719
S'objective'
p720
I5
sS'query_time'
p721
F0.0054931640625
sS'comp_time'
p722
F7.700920104980469e-05
sS'exec_cq'
p723
I1
sS'total_cq'
p724
I5
sasS'total_cqs'
p725
I5
ssI61
(dp726
S'iters'
p727
I0
sS'meta'
p728
(lp729
sS'total_cqs'
p730
I1
ssI62
(dp731
S'iters'
p732
I2
sS'meta'
p733
(lp734
(dp735
S'objective'
p736
I20
sS'query_time'
p737
F0.013553857803344727
sS'comp_time'
p738
F7.510185241699219e-05
sS'exec_cq'
p739
I1
sS'total_cq'
p740
I12
sa(dp741
g736
I29
sg737
F0.008352041244506836
sg738
F8.988380432128906e-05
sg739
I1
sg740
I9
sasS'total_cqs'
p742
I12
ssI63
(dp743
S'iters'
p744
I0
sS'meta'
p745
(lp746
sS'total_cqs'
p747
I1
ssI64
(dp748
S'iters'
p749
I2
sS'meta'
p750
(lp751
(dp752
S'objective'
p753
I52
sS'query_time'
p754
F0.04172992706298828
sS'comp_time'
p755
F0.00010418891906738281
sS'exec_cq'
p756
I3
sS'total_cq'
p757
I12
sa(dp758
g753
I7
sg754
F0.0022580623626708984
sg755
F6.103515625e-05
sg756
I1
sg757
I3
sasS'total_cqs'
p759
I12
ssI65
(dp760
S'iters'
p761
I5
sS'meta'
p762
(lp763
(dp764
S'objective'
p765
I324
sS'query_time'
p766
F0.03477597236633301
sS'comp_time'
p767
F0.00010180473327636719
sS'exec_cq'
p768
I1
sS'total_cq'
p769
I27
sa(dp770
g765
I301
sg766
F0.1025998592376709
sg767
F0.00011277198791503906
sg768
I2
sg769
I26
sa(dp771
g765
I278
sg766
F0.02653813362121582
sg767
F0.00010800361633300781
sg768
I2
sg769
I25
sa(dp772
g765
I188
sg766
F0.02455282211303711
sg767
F9.417533874511719e-05
sg768
I2
sg769
I24
sa(dp773
g765
I201
sg766
F0.02291107177734375
sg767
F8.988380432128906e-05
sg768
I2
sg769
I20
sasS'total_cqs'
p774
I27
ssI66
(dp775
S'iters'
p776
I0
sS'meta'
p777
(lp778
sS'total_cqs'
p779
I1
ssI67
(dp780
S'iters'
p781
I1
sS'meta'
p782
(lp783
(dp784
S'objective'
p785
I574
sS'query_time'
p786
F0.8247020244598389
sS'comp_time'
p787
F9.608268737792969e-05
sS'exec_cq'
p788
I8
sS'total_cq'
p789
I35
sasS'total_cqs'
p790
I35
ssI68
(dp791
S'iters'
p792
I0
sS'meta'
p793
(lp794
sS'total_cqs'
p795
I1
ssI69
(dp796
S'iters'
p797
I1
sS'meta'
p798
(lp799
(dp800
S'objective'
p801
I1246
sS'query_time'
p802
F0.10791492462158203
sS'comp_time'
p803
F0.0001239776611328125
sS'exec_cq'
p804
I12
sS'total_cq'
p805
I51
sasS'total_cqs'
p806
I51
ssI70
(dp807
S'iters'
p808
I1
sS'meta'
p809
(lp810
(dp811
S'objective'
p812
I9
sS'query_time'
p813
F0.009005069732666016
sS'comp_time'
p814
F7.581710815429688e-05
sS'exec_cq'
p815
I1
sS'total_cq'
p816
I6
sasS'total_cqs'
p817
I6
ssI71
(dp818
S'iters'
p819
I2
sS'meta'
p820
(lp821
(dp822
S'objective'
p823
I3317
sS'query_time'
p824
F0.10390615463256836
sS'comp_time'
p825
F0.00015687942504882812
sS'exec_cq'
p826
I5
sS'total_cq'
p827
I85
sa(dp828
g823
I39
sg824
F0.014729022979736328
sg825
F8.487701416015625e-05
sg826
I2
sg827
I3
sasS'total_cqs'
p829
I85
ssI72
(dp830
S'iters'
p831
I2
sS'meta'
p832
(lp833
(dp834
S'objective'
p835
I2
sS'query_time'
p836
F0.010145902633666992
sS'comp_time'
p837
F7.200241088867188e-05
sS'exec_cq'
p838
I1
sS'total_cq'
p839
I8
sa(dp840
g835
I3
sg836
F0.004899024963378906
sg837
F5.817413330078125e-05
sg838
I1
sg839
I5
sasS'total_cqs'
p841
I8
ssI73
(dp842
S'iters'
p843
I0
sS'meta'
p844
(lp845
sS'total_cqs'
p846
I1
ssI74
(dp847
S'iters'
p848
I0
sS'meta'
p849
(lp850
sS'total_cqs'
p851
I1
ssI75
(dp852
S'iters'
p853
I1
sS'meta'
p854
(lp855
(dp856
S'objective'
p857
I5
sS'query_time'
p858
F0.008989095687866211
sS'comp_time'
p859
F7.104873657226562e-05
sS'exec_cq'
p860
I1
sS'total_cq'
p861
I5
sasS'total_cqs'
p862
I5
ssI76
(dp863
S'iters'
p864
I1
sS'meta'
p865
(lp866
(dp867
S'objective'
p868
I1
sS'query_time'
p869
F0.008877992630004883
sS'comp_time'
p870
F8.726119995117188e-05
sS'exec_cq'
p871
I1
sS'total_cq'
p872
I2
sasS'total_cqs'
p873
I2
ssI77
(dp874
S'iters'
p875
I0
sS'meta'
p876
(lp877
sS'total_cqs'
p878
I1
ssI78
(dp879
S'iters'
p880
I0
sS'meta'
p881
(lp882
sS'total_cqs'
p883
I1
ssI103
(dp884
S'iters'
p885
I1
sS'meta'
p886
(lp887
(dp888
S'objective'
p889
I58
sS'query_time'
p890
F0.04239702224731445
sS'comp_time'
p891
F7.677078247070312e-05
sS'exec_cq'
p892
I3
sS'total_cq'
p893
I12
sasS'total_cqs'
p894
I12
ssI104
(dp895
S'iters'
p896
I1
sS'meta'
p897
(lp898
(dp899
S'objective'
p900
I2
sS'query_time'
p901
F1.344477891921997
sS'comp_time'
p902
F9.202957153320312e-05
sS'exec_cq'
p903
I1
sS'total_cq'
p904
I4
sasS'total_cqs'
p905
I4
ssI105
(dp906
S'iters'
p907
I0
sS'meta'
p908
(lp909
sS'total_cqs'
p910
I1
ssI106
(dp911
S'iters'
p912
I1
sS'meta'
p913
(lp914
(dp915
S'objective'
p916
I2
sS'query_time'
p917
F0.014477014541625977
sS'comp_time'
p918
F7.319450378417969e-05
sS'exec_cq'
p919
I1
sS'total_cq'
p920
I4
sasS'total_cqs'
p921
I4
ssI107
(dp922
S'iters'
p923
I2
sS'meta'
p924
(lp925
(dp926
S'objective'
p927
I74
sS'query_time'
p928
F0.023514986038208008
sS'comp_time'
p929
F8.511543273925781e-05
sS'exec_cq'
p930
I1
sS'total_cq'
p931
I16
sa(dp932
g927
I5
sg928
F0.02684307098388672
sg929
F6.389617919921875e-05
sg930
I2
sg931
I3
sasS'total_cqs'
p933
I16
ssI108
(dp934
S'iters'
p935
I0
sS'meta'
p936
(lp937
sS'total_cqs'
p938
I1
ss.