(dp0
I1
(dp1
S'iters'
p2
I1
sS'meta'
p3
(lp4
(dp5
S'objective'
p6
I54
sS'query_time'
p7
F0.02292013168334961
sS'comp_time'
p8
F7.581710815429688e-05
sS'exec_cq'
p9
I1
sS'total_cq'
p10
I12
sasS'total_cqs'
p11
I12
ssI2
(dp12
S'iters'
p13
I1
sS'meta'
p14
(lp15
(dp16
S'objective'
p17
I324
sS'query_time'
p18
F0.03792881965637207
sS'comp_time'
p19
F5.2928924560546875e-05
sS'exec_cq'
p20
I1
sS'total_cq'
p21
I27
sasS'total_cqs'
p22
I27
ssI3
(dp23
S'iters'
p24
I1
sS'meta'
p25
(lp26
(dp27
S'objective'
p28
I860
sS'query_time'
p29
F0.02359485626220703
sS'comp_time'
p30
F7.104873657226562e-05
sS'exec_cq'
p31
I1
sS'total_cq'
p32
I43
sasS'total_cqs'
p33
I43
ssI4
(dp34
S'iters'
p35
I1
sS'meta'
p36
(lp37
(dp38
S'objective'
p39
I44
sS'query_time'
p40
F2.94691801071167
sS'comp_time'
p41
F0.0013289451599121094
sS'exec_cq'
p42
I1
sS'total_cq'
p43
I11
sasS'total_cqs'
p44
I11
ssI5
(dp45
S'iters'
p46
I2
sS'meta'
p47
(lp48
(dp49
S'objective'
p50
I16
sS'query_time'
p51
F0.37246203422546387
sS'comp_time'
p52
F5.602836608886719e-05
sS'exec_cq'
p53
I1
sS'total_cq'
p54
I8
sa(dp55
g50
I6
sg51
F0.0045909881591796875
sg52
F4.100799560546875e-05
sg53
I1
sg54
I2
sasS'total_cqs'
p56
I8
ssI6
(dp57
S'iters'
p58
I1
sS'meta'
p59
(lp60
(dp61
S'objective'
p62
I135
sS'query_time'
p63
F0.5471479892730713
sS'comp_time'
p64
F8.296966552734375e-05
sS'exec_cq'
p65
I1
sS'total_cq'
p66
I18
sasS'total_cqs'
p67
I18
ssI7
(dp68
S'iters'
p69
I2
sS'meta'
p70
(lp71
(dp72
S'objective'
p73
I9
sS'query_time'
p74
F0.2695479393005371
sS'comp_time'
p75
F7.510185241699219e-05
sS'exec_cq'
p76
I1
sS'total_cq'
p77
I9
sa(dp78
g73
I9
sg74
F0.0051441192626953125
sg75
F4.1961669921875e-05
sg76
I1
sg77
I4
sasS'total_cqs'
p79
I9
ssI8
(dp80
S'iters'
p81
I2
sS'meta'
p82
(lp83
(dp84
S'objective'
p85
I292
sS'query_time'
p86
F0.050109148025512695
sS'comp_time'
p87
F7.605552673339844e-05
sS'exec_cq'
p88
I1
sS'total_cq'
p89
I27
sa(dp90
g85
I11
sg86
F0.012871026992797852
sg87
F4.9114227294921875e-05
sg88
I2
sg89
I2
sasS'total_cqs'
p91
I27
ssI9
(dp92
S'iters'
p93
I3
sS'meta'
p94
(lp95
(dp96
S'objective'
p97
I12
sS'query_time'
p98
F0.021581172943115234
sS'comp_time'
p99
F4.1961669921875e-05
sS'exec_cq'
p100
I1
sS'total_cq'
p101
I7
sa(dp102
g97
I0
sg98
F0.052655935287475586
sg99
F6.29425048828125e-05
sg100
I2
sg101
I5
sa(dp103
g97
I4
sg98
F0.018433094024658203
sg99
F6.103515625e-05
sg100
I2
sg101
I3
sasS'total_cqs'
p104
I7
ssI10
(dp105
S'iters'
p106
I4
sS'meta'
p107
(lp108
(dp109
S'objective'
p110
I672
sS'query_time'
p111
F0.0643458366394043
sS'comp_time'
p112
F6.508827209472656e-05
sS'exec_cq'
p113
I1
sS'total_cq'
p114
I51
sa(dp115
g110
I137
sg111
F0.0743560791015625
sg112
F4.38690185546875e-05
sg113
I2
sg114
I12
sa(dp116
g110
I18
sg111
F0.07263898849487305
sg112
F3.910064697265625e-05
sg113
I2
sg114
I8
sa(dp117
g110
I23
sg111
F0.009325981140136719
sg112
F6.198883056640625e-05
sg113
I2
sg114
I4
sasS'total_cqs'
p118
I51
ssI11
(dp119
S'iters'
p120
I4
sS'meta'
p121
(lp122
(dp123
S'objective'
p124
I1404
sS'query_time'
p125
F0.147352933883667
sS'comp_time'
p126
F7.390975952148438e-05
sS'exec_cq'
p127
I1
sS'total_cq'
p128
I63
sa(dp129
g124
I204
sg125
F0.1463329792022705
sg126
F4.482269287109375e-05
sg127
I2
sg128
I9
sa(dp130
g124
I43
sg125
F0.027019977569580078
sg126
F5.888938903808594e-05
sg127
I2
sg128
I8
sa(dp131
g124
I23
sg125
F0.011003971099853516
sg126
F4.00543212890625e-05
sg127
I2
sg128
I4
sasS'total_cqs'
p132
I63
ssI12
(dp133
S'iters'
p134
I6
sS'meta'
p135
(lp136
(dp137
S'objective'
p138
I715
sS'query_time'
p139
F0.11979007720947266
sS'comp_time'
p140
F5.3882598876953125e-05
sS'exec_cq'
p141
I1
sS'total_cq'
p142
I50
sa(dp143
g138
I182
sg139
F0.12231898307800293
sg140
F8.20159912109375e-05
sg141
I2
sg142
I8
sa(dp144
g138
I45
sg139
F0.024188995361328125
sg140
F4.00543212890625e-05
sg141
I2
sg142
I7
sa(dp145
g138
I46
sg139
F0.052243947982788086
sg140
F4.1961669921875e-05
sg141
I2
sg142
I4
sa(dp146
g138
I36
sg139
F0.015712976455688477
sg140
F3.695487976074219e-05
sg141
I2
sg142
I3
sa(dp147
g138
I36
sg139
F0.00854802131652832
sg140
F5.984306335449219e-05
sg141
I2
sg142
I2
sasS'total_cqs'
p148
I50
ssI13
(dp149
S'iters'
p150
I4
sS'meta'
p151
(lp152
(dp153
S'objective'
p154
I56
sS'query_time'
p155
F0.05330681800842285
sS'comp_time'
p156
F5.221366882324219e-05
sS'exec_cq'
p157
I1
sS'total_cq'
p158
I20
sa(dp159
g154
I33
sg155
F0.06755781173706055
sg156
F6.985664367675781e-05
sg157
I2
sg158
I11
sa(dp160
g154
I12
sg155
F0.014750003814697266
sg156
F4.38690185546875e-05
sg157
I2
sg158
I5
sa(dp161
g154
I9
sg155
F0.0068149566650390625
sg156
F3.600120544433594e-05
sg157
I2
sg158
I3
sasS'total_cqs'
p162
I20
ssI14
(dp163
S'iters'
p164
I3
sS'meta'
p165
(lp166
(dp167
S'objective'
p168
I7
sS'query_time'
p169
F0.40834999084472656
sS'comp_time'
p170
F6.008148193359375e-05
sS'exec_cq'
p171
I1
sS'total_cq'
p172
I9
sa(dp173
g168
I20
sg169
F0.007665872573852539
sg170
F4.410743713378906e-05
sg171
I1
sg172
I5
sa(dp174
g168
I5
sg169
F0.010286092758178711
sg170
F3.218650817871094e-05
sg171
I1
sg172
I4
sasS'total_cqs'
p175
I9
ssI15
(dp176
S'iters'
p177
I2
sS'meta'
p178
(lp179
(dp180
S'objective'
p181
I8
sS'query_time'
p182
F0.06826400756835938
sS'comp_time'
p183
F7.319450378417969e-05
sS'exec_cq'
p184
I1
sS'total_cq'
p185
I11
sa(dp186
g181
I7
sg182
F0.009265899658203125
sg183
F3.504753112792969e-05
sg184
I1
sg185
I3
sasS'total_cqs'
p187
I11
ssI16
(dp188
S'iters'
p189
I1
sS'meta'
p190
(lp191
(dp192
S'objective'
p193
I20
sS'query_time'
p194
F0.012285947799682617
sS'comp_time'
p195
F5.1021575927734375e-05
sS'exec_cq'
p196
I1
sS'total_cq'
p197
I8
sasS'total_cqs'
p198
I8
ssI17
(dp199
S'iters'
p200
I1
sS'meta'
p201
(lp202
(dp203
S'objective'
p204
I44
sS'query_time'
p205
F0.03772902488708496
sS'comp_time'
p206
F7.486343383789062e-05
sS'exec_cq'
p207
I1
sS'total_cq'
p208
I11
sasS'total_cqs'
p209
I11
ssI18
(dp210
S'iters'
p211
I1
sS'meta'
p212
(lp213
(dp214
S'objective'
p215
I44
sS'query_time'
p216
F0.0301358699798584
sS'comp_time'
p217
F4.887580871582031e-05
sS'exec_cq'
p218
I1
sS'total_cq'
p219
I11
sasS'total_cqs'
p220
I11
ssI19
(dp221
S'iters'
p222
I0
sS'meta'
p223
(lp224
sS'total_cqs'
p225
I1
ssI20
(dp226
S'iters'
p227
I0
sS'meta'
p228
(lp229
sS'total_cqs'
p230
I1
ssI21
(dp231
S'iters'
p232
I0
sS'meta'
p233
(lp234
sS'total_cqs'
p235
I1
ssI22
(dp236
S'iters'
p237
I1
sS'meta'
p238
(lp239
(dp240
S'objective'
p241
I135
sS'query_time'
p242
F0.07437992095947266
sS'comp_time'
p243
F4.100799560546875e-05
sS'exec_cq'
p244
I1
sS'total_cq'
p245
I18
sasS'total_cqs'
p246
I18
ssI23
(dp247
S'iters'
p248
I1
sS'meta'
p249
(lp250
(dp251
S'objective'
p252
I104
sS'query_time'
p253
F0.01800394058227539
sS'comp_time'
p254
F5.1021575927734375e-05
sS'exec_cq'
p255
I1
sS'total_cq'
p256
I16
sasS'total_cqs'
p257
I16
ssI24
(dp258
S'iters'
p259
I0
sS'meta'
p260
(lp261
sS'total_cqs'
p262
I1
ssI25
(dp263
S'iters'
p264
I0
sS'meta'
p265
(lp266
sS'total_cqs'
p267
I1
ssI26
(dp268
S'iters'
p269
I1
sS'meta'
p270
(lp271
(dp272
S'objective'
p273
I819
sS'query_time'
p274
F0.05817580223083496
sS'comp_time'
p275
F5.507469177246094e-05
sS'exec_cq'
p276
I1
sS'total_cq'
p277
I42
sasS'total_cqs'
p278
I42
ssI27
(dp279
S'iters'
p280
I2
sS'meta'
p281
(lp282
(dp283
S'objective'
p284
I369
sS'query_time'
p285
F2.8144519329071045
sS'comp_time'
p286
F0.0003330707550048828
sS'exec_cq'
p287
I1
sS'total_cq'
p288
I30
sa(dp289
g284
I12
sg285
F1197.6060831546783
sg286
F7.700920104980469e-05
sg287
I2
sg288
I2
sasS'total_cqs'
p290
I30
ssI28
(dp291
S'iters'
p292
I0
sS'meta'
p293
(lp294
sS'total_cqs'
p295
I1
ssI29
(dp296
S'iters'
p297
I1
sS'meta'
p298
(lp299
(dp300
S'objective'
p301
I1127
sS'query_time'
p302
F0.4052000045776367
sS'comp_time'
p303
F9.918212890625e-05
sS'exec_cq'
p304
I1
sS'total_cq'
p305
I49
sasS'total_cqs'
p306
I49
ssI30
(dp307
S'iters'
p308
I1
sS'meta'
p309
(lp310
(dp311
S'objective'
p312
I1
sS'query_time'
p313
F0.7565560340881348
sS'comp_time'
p314
F7.200241088867188e-05
sS'exec_cq'
p315
I1
sS'total_cq'
p316
I2
sasS'total_cqs'
p317
I2
ssI31
(dp318
S'iters'
p319
I0
sS'meta'
p320
(lp321
sS'total_cqs'
p322
I1
ssI32
(dp323
S'iters'
p324
I1
sS'meta'
p325
(lp326
(dp327
S'objective'
p328
I1
sS'query_time'
p329
F0.011391162872314453
sS'comp_time'
p330
F5.2928924560546875e-05
sS'exec_cq'
p331
I1
sS'total_cq'
p332
I2
sasS'total_cqs'
p333
I2
ssI33
(dp334
S'iters'
p335
I2
sS'meta'
p336
(lp337
(dp338
S'objective'
p339
I4988
sS'query_time'
p340
F0.9786059856414795
sS'comp_time'
p341
F0.00012111663818359375
sS'exec_cq'
p342
I1
sS'total_cq'
p343
I103
sa(dp344
g339
I22
sg340
F0.03531503677368164
sg341
F2.8133392333984375e-05
sg342
I1
sg343
I2
sasS'total_cqs'
p345
I103
ssI34
(dp346
S'iters'
p347
I1
sS'meta'
p348
(lp349
(dp350
S'objective'
p351
I1
sS'query_time'
p352
F0.01906299591064453
sS'comp_time'
p353
F7.104873657226562e-05
sS'exec_cq'
p354
I1
sS'total_cq'
p355
I2
sasS'total_cqs'
p356
I2
ssI35
(dp357
S'iters'
p358
I4
sS'meta'
p359
(lp360
(dp361
S'objective'
p362
I2027
sS'query_time'
p363
F0.2409989833831787
sS'comp_time'
p364
F8.58306884765625e-05
sS'exec_cq'
p365
I1
sS'total_cq'
p366
I70
sa(dp367
g362
I115
sg363
F0.011181831359863281
sg364
F3.695487976074219e-05
sg365
I1
sg366
I4
sa(dp368
g362
I102
sg363
F0.011151790618896484
sg364
F3.409385681152344e-05
sg365
I1
sg366
I3
sa(dp369
g362
I3
sg363
F0.010747194290161133
sg364
F3.2901763916015625e-05
sg365
I1
sg366
I2
sasS'total_cqs'
p370
I70
ssI36
(dp371
S'iters'
p372
I1
sS'meta'
p373
(lp374
(dp375
S'objective'
p376
I495
sS'query_time'
p377
F0.475675106048584
sS'comp_time'
p378
F7.700920104980469e-05
sS'exec_cq'
p379
I1
sS'total_cq'
p380
I33
sasS'total_cqs'
p381
I33
ssI37
(dp382
S'iters'
p383
I1
sS'meta'
p384
(lp385
(dp386
S'objective'
p387
I1
sS'query_time'
p388
F0.011886119842529297
sS'comp_time'
p389
F5.1975250244140625e-05
sS'exec_cq'
p390
I1
sS'total_cq'
p391
I2
sasS'total_cqs'
p392
I2
ssI38
(dp393
S'iters'
p394
I2
sS'meta'
p395
(lp396
(dp397
S'objective'
p398
I4
sS'query_time'
p399
F0.02577805519104004
sS'comp_time'
p400
F6.29425048828125e-05
sS'exec_cq'
p401
I1
sS'total_cq'
p402
I4
sa(dp403
g398
I1
sg399
F0.0017540454864501953
sg400
F3.3855438232421875e-05
sg401
I1
sg402
I2
sasS'total_cqs'
p404
I4
ssI39
(dp405
S'iters'
p406
I1
sS'meta'
p407
(lp408
(dp409
S'objective'
p410
I902
sS'query_time'
p411
F0.09865808486938477
sS'comp_time'
p412
F8.487701416015625e-05
sS'exec_cq'
p413
I1
sS'total_cq'
p414
I44
sasS'total_cqs'
p415
I44
ssI40
(dp416
S'iters'
p417
I1
sS'meta'
p418
(lp419
(dp420
S'objective'
p421
I14
sS'query_time'
p422
F0.03223299980163574
sS'comp_time'
p423
F7.414817810058594e-05
sS'exec_cq'
p424
I1
sS'total_cq'
p425
I7
sasS'total_cqs'
p426
I7
ssI41
(dp427
S'iters'
p428
I1
sS'meta'
p429
(lp430
(dp431
S'objective'
p432
I54
sS'query_time'
p433
F0.025482892990112305
sS'comp_time'
p434
F8.392333984375e-05
sS'exec_cq'
p435
I1
sS'total_cq'
p436
I12
sasS'total_cqs'
p437
I12
ssI42
(dp438
S'iters'
p439
I1
sS'meta'
p440
(lp441
(dp442
S'objective'
p443
I779
sS'query_time'
p444
F0.04868912696838379
sS'comp_time'
p445
F6.580352783203125e-05
sS'exec_cq'
p446
I1
sS'total_cq'
p447
I41
sasS'total_cqs'
p448
I41
ssI43
(dp449
S'iters'
p450
I1
sS'meta'
p451
(lp452
(dp453
S'objective'
p454
I14
sS'query_time'
p455
F0.034210920333862305
sS'comp_time'
p456
F6.198883056640625e-05
sS'exec_cq'
p457
I1
sS'total_cq'
p458
I7
sasS'total_cqs'
p459
I7
ssI44
(dp460
S'iters'
p461
I2
sS'meta'
p462
(lp463
(dp464
S'objective'
p465
I994
sS'query_time'
p466
F0.053205013275146484
sS'comp_time'
p467
F6.699562072753906e-05
sS'exec_cq'
p468
I1
sS'total_cq'
p469
I47
sa(dp470
g465
I27
sg466
F0.03660297393798828
sg467
F6.890296936035156e-05
sg468
I2
sg469
I2
sasS'total_cqs'
p471
I47
ssI45
(dp472
S'iters'
p473
I0
sS'meta'
p474
(lp475
sS'total_cqs'
p476
I1
ssI46
(dp477
S'iters'
p478
I1
sS'meta'
p479
(lp480
(dp481
S'objective'
p482
I9
sS'query_time'
p483
F0.006129026412963867
sS'comp_time'
p484
F4.410743713378906e-05
sS'exec_cq'
p485
I1
sS'total_cq'
p486
I6
sasS'total_cqs'
p487
I6
ssI47
(dp488
S'iters'
p489
I1
sS'meta'
p490
(lp491
(dp492
S'objective'
p493
I1
sS'query_time'
p494
F0.00669407844543457
sS'comp_time'
p495
F5.1021575927734375e-05
sS'exec_cq'
p496
I1
sS'total_cq'
p497
I2
sasS'total_cqs'
p498
I2
ssI48
(dp499
S'iters'
p500
I0
sS'meta'
p501
(lp502
sS'total_cqs'
p503
I1
ssI49
(dp504
S'iters'
p505
I0
sS'meta'
p506
(lp507
sS'total_cqs'
p508
I1
ssI50
(dp509
S'iters'
p510
I1
sS'meta'
p511
(lp512
(dp513
S'objective'
p514
I5
sS'query_time'
p515
F0.011712074279785156
sS'comp_time'
p516
F4.1961669921875e-05
sS'exec_cq'
p517
I1
sS'total_cq'
p518
I5
sasS'total_cqs'
p519
I5
ssI51
(dp520
S'iters'
p521
I1
sS'meta'
p522
(lp523
(dp524
S'objective'
p525
I1
sS'query_time'
p526
F0.0059051513671875
sS'comp_time'
p527
F5.888938903808594e-05
sS'exec_cq'
p528
I1
sS'total_cq'
p529
I2
sasS'total_cqs'
p530
I2
ssI52
(dp531
S'iters'
p532
I1
sS'meta'
p533
(lp534
(dp535
S'objective'
p536
I1
sS'query_time'
p537
F0.0065059661865234375
sS'comp_time'
p538
F3.790855407714844e-05
sS'exec_cq'
p539
I1
sS'total_cq'
p540
I2
sasS'total_cqs'
p541
I2
ssI53
(dp542
S'iters'
p543
I1
sS'meta'
p544
(lp545
(dp546
S'objective'
p547
I2
sS'query_time'
p548
F0.011832952499389648
sS'comp_time'
p549
F6.580352783203125e-05
sS'exec_cq'
p550
I1
sS'total_cq'
p551
I4
sasS'total_cqs'
p552
I4
ssI54
(dp553
S'iters'
p554
I1
sS'meta'
p555
(lp556
(dp557
S'objective'
p558
I0
sS'query_time'
p559
F0.009867191314697266
sS'comp_time'
p560
F5.5789947509765625e-05
sS'exec_cq'
p561
I1
sS'total_cq'
p562
I3
sasS'total_cqs'
p563
I3
ssI55
(dp564
S'iters'
p565
I3
sS'meta'
p566
(lp567
(dp568
S'objective'
p569
I5449
sS'query_time'
p570
F0.1735219955444336
sS'comp_time'
p571
F0.00012493133544921875
sS'exec_cq'
p572
I1
sS'total_cq'
p573
I109
sa(dp574
g569
I67
sg570
F0.005087137222290039
sg571
F3.504753112792969e-05
sg572
I1
sg573
I3
sa(dp575
g569
I48
sg570
F0.007992982864379883
sg571
F2.9802322387695312e-05
sg572
I1
sg573
I2
sasS'total_cqs'
p576
I109
ssI56
(dp577
S'iters'
p578
I1
sS'meta'
p579
(lp580
(dp581
S'objective'
p582
I2774
sS'query_time'
p583
F0.14414381980895996
sS'comp_time'
p584
F8.416175842285156e-05
sS'exec_cq'
p585
I1
sS'total_cq'
p586
I76
sasS'total_cqs'
p587
I76
ssI57
(dp588
S'iters'
p589
I1
sS'meta'
p590
(lp591
(dp592
S'objective'
p593
I1224
sS'query_time'
p594
F0.4369330406188965
sS'comp_time'
p595
F0.00011587142944335938
sS'exec_cq'
p596
I1
sS'total_cq'
p597
I51
sasS'total_cqs'
p598
I51
ssI58
(dp599
S'iters'
p600
I2
sS'meta'
p601
(lp602
(dp603
S'objective'
p604
I115043
sS'query_time'
p605
F1.8032450675964355
sS'comp_time'
p606
F0.0004799365997314453
sS'exec_cq'
p607
I1
sS'total_cq'
p608
I486
sa(dp609
g604
I677
sg605
F0.04764914512634277
sg606
F2.7894973754882812e-05
sg607
I1
sg608
I5
sasS'total_cqs'
p610
I486
ssI59
(dp611
S'iters'
p612
I2
sS'meta'
p613
(lp614
(dp615
S'objective'
p616
I12
sS'query_time'
p617
F0.025199174880981445
sS'comp_time'
p618
F5.793571472167969e-05
sS'exec_cq'
p619
I1
sS'total_cq'
p620
I7
sa(dp621
g616
I6
sg617
F0.039930105209350586
sg618
F7.915496826171875e-05
sg619
I2
sg620
I2
sasS'total_cqs'
p622
I7
ssI60
(dp623
S'iters'
p624
I1
sS'meta'
p625
(lp626
(dp627
S'objective'
p628
I5
sS'query_time'
p629
F0.005890846252441406
sS'comp_time'
p630
F4.100799560546875e-05
sS'exec_cq'
p631
I1
sS'total_cq'
p632
I5
sasS'total_cqs'
p633
I5
ssI61
(dp634
S'iters'
p635
I0
sS'meta'
p636
(lp637
sS'total_cqs'
p638
I1
ssI62
(dp639
S'iters'
p640
I1
sS'meta'
p641
(lp642
(dp643
S'objective'
p644
I54
sS'query_time'
p645
F0.0155181884765625
sS'comp_time'
p646
F4.38690185546875e-05
sS'exec_cq'
p647
I1
sS'total_cq'
p648
I12
sasS'total_cqs'
p649
I12
ssI63
(dp650
S'iters'
p651
I0
sS'meta'
p652
(lp653
sS'total_cqs'
p654
I1
ssI64
(dp655
S'iters'
p656
I3
sS'meta'
p657
(lp658
(dp659
S'objective'
p660
I16
sS'query_time'
p661
F0.05074000358581543
sS'comp_time'
p662
F6.103515625e-05
sS'exec_cq'
p663
I1
sS'total_cq'
p664
I12
sa(dp665
g660
I9
sg661
F0.003032207489013672
sg662
F3.910064697265625e-05
sg663
I1
sg664
I3
sa(dp666
g660
I4
sg661
F0.003849029541015625
sg662
F3.1948089599609375e-05
sg663
I1
sg664
I2
sasS'total_cqs'
p667
I12
ssI65
(dp668
S'iters'
p669
I2
sS'meta'
p670
(lp671
(dp672
S'objective'
p673
I274
sS'query_time'
p674
F0.046021223068237305
sS'comp_time'
p675
F8.797645568847656e-05
sS'exec_cq'
p676
I1
sS'total_cq'
p677
I27
sa(dp678
g673
I2
sg674
F0.002087831497192383
sg675
F2.8133392333984375e-05
sg676
I1
sg677
I3
sasS'total_cqs'
p679
I27
ssI66
(dp680
S'iters'
p681
I0
sS'meta'
p682
(lp683
sS'total_cqs'
p684
I1
ssI67
(dp685
S'iters'
p686
I1
sS'meta'
p687
(lp688
(dp689
S'objective'
p690
I560
sS'query_time'
p691
F0.5939328670501709
sS'comp_time'
p692
F7.510185241699219e-05
sS'exec_cq'
p693
I1
sS'total_cq'
p694
I35
sasS'total_cqs'
p695
I35
ssI68
(dp696
S'iters'
p697
I0
sS'meta'
p698
(lp699
sS'total_cqs'
p700
I1
ssI69
(dp701
S'iters'
p702
I1
sS'meta'
p703
(lp704
(dp705
S'objective'
p706
I1224
sS'query_time'
p707
F0.11928582191467285
sS'comp_time'
p708
F0.00011205673217773438
sS'exec_cq'
p709
I1
sS'total_cq'
p710
I51
sasS'total_cqs'
p711
I51
ssI70
(dp712
S'iters'
p713
I1
sS'meta'
p714
(lp715
(dp716
S'objective'
p717
I9
sS'query_time'
p718
F0.01037907600402832
sS'comp_time'
p719
F4.887580871582031e-05
sS'exec_cq'
p720
I1
sS'total_cq'
p721
I6
sasS'total_cqs'
p722
I6
ssI71
(dp723
S'iters'
p724
I1
sS'meta'
p725
(lp726
(dp727
S'objective'
p728
I3485
sS'query_time'
p729
F0.08290719985961914
sS'comp_time'
p730
F0.00013899803161621094
sS'exec_cq'
p731
I1
sS'total_cq'
p732
I85
sasS'total_cqs'
p733
I85
ssI72
(dp734
S'iters'
p735
I1
sS'meta'
p736
(lp737
(dp738
S'objective'
p739
I20
sS'query_time'
p740
F0.008649826049804688
sS'comp_time'
p741
F5.1975250244140625e-05
sS'exec_cq'
p742
I1
sS'total_cq'
p743
I8
sasS'total_cqs'
p744
I8
ssI73
(dp745
S'iters'
p746
I0
sS'meta'
p747
(lp748
sS'total_cqs'
p749
I1
ssI74
(dp750
S'iters'
p751
I0
sS'meta'
p752
(lp753
sS'total_cqs'
p754
I1
ssI75
(dp755
S'iters'
p756
I1
sS'meta'
p757
(lp758
(dp759
S'objective'
p760
I5
sS'query_time'
p761
F0.005093097686767578
sS'comp_time'
p762
F6.413459777832031e-05
sS'exec_cq'
p763
I1
sS'total_cq'
p764
I5
sasS'total_cqs'
p765
I5
ssI76
(dp766
S'iters'
p767
I1
sS'meta'
p768
(lp769
(dp770
S'objective'
p771
I1
sS'query_time'
p772
F0.011155843734741211
sS'comp_time'
p773
F6.198883056640625e-05
sS'exec_cq'
p774
I1
sS'total_cq'
p775
I2
sasS'total_cqs'
p776
I2
ssI77
(dp777
S'iters'
p778
I0
sS'meta'
p779
(lp780
sS'total_cqs'
p781
I1
ssI78
(dp782
S'iters'
p783
I0
sS'meta'
p784
(lp785
sS'total_cqs'
p786
I1
ssI103
(dp787
S'iters'
p788
I1
sS'meta'
p789
(lp790
(dp791
S'objective'
p792
I54
sS'query_time'
p793
F0.027042150497436523
sS'comp_time'
p794
F7.104873657226562e-05
sS'exec_cq'
p795
I1
sS'total_cq'
p796
I12
sasS'total_cqs'
p797
I12
ssI104
(dp798
S'iters'
p799
I1
sS'meta'
p800
(lp801
(dp802
S'objective'
p803
I2
sS'query_time'
p804
F1.4349031448364258
sS'comp_time'
p805
F8.0108642578125e-05
sS'exec_cq'
p806
I1
sS'total_cq'
p807
I4
sasS'total_cqs'
p808
I4
ssI105
(dp809
S'iters'
p810
I0
sS'meta'
p811
(lp812
sS'total_cqs'
p813
I1
ssI106
(dp814
S'iters'
p815
I1
sS'meta'
p816
(lp817
(dp818
S'objective'
p819
I2
sS'query_time'
p820
F0.010616064071655273
sS'comp_time'
p821
F4.8160552978515625e-05
sS'exec_cq'
p822
I1
sS'total_cq'
p823
I4
sasS'total_cqs'
p824
I4
ssI107
(dp825
S'iters'
p826
I1
sS'meta'
p827
(lp828
(dp829
S'objective'
p830
I104
sS'query_time'
p831
F0.10280179977416992
sS'comp_time'
p832
F5.1021575927734375e-05
sS'exec_cq'
p833
I1
sS'total_cq'
p834
I16
sasS'total_cqs'
p835
I16
ssI108
(dp836
S'iters'
p837
I0
sS'meta'
p838
(lp839
sS'total_cqs'
p840
I1
ss.