(dp0
I1
(dp1
S'iters'
p2
I2
sS'meta'
p3
(lp4
(dp5
S'objective'
p6
I54
sS'query_time'
p7
F0.019320011138916016
sS'comp_time'
p8
F6.914138793945312e-05
sS'exec_cq'
p9
I1
sS'total_cq'
p10
I12
sa(dp11
g6
I46
sg7
F0.022409915924072266
sg8
F4.792213439941406e-05
sg9
I2
sg10
I11
sasS'total_cqs'
p12
I12
ssI2
(dp13
S'iters'
p14
I4
sS'meta'
p15
(lp16
(dp17
S'objective'
p18
I308
sS'query_time'
p19
F0.0741720199584961
sS'comp_time'
p20
F8.916854858398438e-05
sS'exec_cq'
p21
I2
sS'total_cq'
p22
I27
sa(dp23
g18
I249
sg19
F0.03908395767211914
sg20
F5.602836608886719e-05
sg21
I2
sg22
I25
sa(dp24
g18
I248
sg19
F0.025950193405151367
sg20
F7.200241088867188e-05
sg21
I2
sg22
I22
sa(dp25
g18
I228
sg19
F0.044695138931274414
sg20
F5.602836608886719e-05
sg21
I3
sg22
I21
sasS'total_cqs'
p26
I27
ssI3
(dp27
S'iters'
p28
I5
sS'meta'
p29
(lp30
(dp31
S'objective'
p32
I328
sS'query_time'
p33
F45.49698996543884
sS'comp_time'
p34
F8.702278137207031e-05
sS'exec_cq'
p35
I3
sS'total_cq'
p36
I43
sa(dp37
g32
I417
sg33
F25.377799034118652
sg34
F0.00015616416931152344
sg35
I3
sg36
I27
sa(dp38
g32
I271
sg33
F20.02855110168457
sg34
F0.00011706352233886719
sg35
I3
sg36
I22
sa(dp39
g32
I321
sg33
F7.762468099594116
sg34
F0.00010776519775390625
sg35
I3
sg36
I17
sa(dp40
g32
I292
sg33
F0.004853963851928711
sg34
F5.1975250244140625e-05
sg35
I3
sg36
I15
sasS'total_cqs'
p41
I43
ssI4
(dp42
S'iters'
p43
I1
sS'meta'
p44
(lp45
(dp46
S'objective'
p47
I46
sS'query_time'
p48
F3.4123148918151855
sS'comp_time'
p49
F0.0011031627655029297
sS'exec_cq'
p50
I2
sS'total_cq'
p51
I11
sasS'total_cqs'
p52
I11
ssI5
(dp53
S'iters'
p54
I2
sS'meta'
p55
(lp56
(dp57
S'objective'
p58
I6
sS'query_time'
p59
F1.1181449890136719
sS'comp_time'
p60
F6.413459777832031e-05
sS'exec_cq'
p61
I1
sS'total_cq'
p62
I8
sa(dp63
g58
I1
sg59
F0.30913209915161133
sg60
F7.486343383789062e-05
sg61
I1
sg62
I4
sasS'total_cqs'
p64
I8
ssI6
(dp65
S'iters'
p66
I4
sS'meta'
p67
(lp68
(dp69
S'objective'
p70
I135
sS'query_time'
p71
F0.2215559482574463
sS'comp_time'
p72
F7.104873657226562e-05
sS'exec_cq'
p73
I1
sS'total_cq'
p74
I18
sa(dp75
g70
I119
sg71
F12.458887100219727
sg72
F0.0004570484161376953
sg73
I1
sg74
I17
sa(dp76
g70
I78
sg71
F0.7696061134338379
sg72
F6.604194641113281e-05
sg73
I1
sg74
I16
sa(dp77
g70
I77
sg71
F0.41268396377563477
sg72
F0.0002911090850830078
sg73
I1
sg74
I14
sasS'total_cqs'
p78
I18
ssI7
(dp79
S'iters'
p80
I2
sS'meta'
p81
(lp82
(dp83
S'objective'
p84
I19
sS'query_time'
p85
F0.3544139862060547
sS'comp_time'
p86
F5.91278076171875e-05
sS'exec_cq'
p87
I1
sS'total_cq'
p88
I9
sa(dp89
g84
I16
sg85
F0.21927905082702637
sg86
F5.507469177246094e-05
sg87
I1
sg88
I7
sasS'total_cqs'
p90
I9
ssI8
(dp91
S'iters'
p92
I3
sS'meta'
p93
(lp94
(dp95
S'objective'
p96
I262
sS'query_time'
p97
F0.04813408851623535
sS'comp_time'
p98
F6.413459777832031e-05
sS'exec_cq'
p99
I3
sS'total_cq'
p100
I27
sa(dp101
g96
I258
sg97
F0.04408001899719238
sg98
F9.107589721679688e-05
sg99
I5
sg100
I22
sa(dp102
g96
I13
sg97
F0.01644611358642578
sg98
F5.698204040527344e-05
sg99
I2
sg100
I2
sasS'total_cqs'
p103
I27
ssI9
(dp104
S'iters'
p105
I2
sS'meta'
p106
(lp107
(dp108
S'objective'
p109
I6
sS'query_time'
p110
F0.03161811828613281
sS'comp_time'
p111
F7.605552673339844e-05
sS'exec_cq'
p112
I1
sS'total_cq'
p113
I7
sa(dp114
g109
I3
sg110
F0.02951192855834961
sg111
F8.58306884765625e-05
sg112
I2
sg113
I5
sasS'total_cqs'
p115
I7
ssI10
(dp116
S'iters'
p117
I8
sS'meta'
p118
(lp119
(dp120
S'objective'
p121
I1224
sS'query_time'
p122
F0.1932508945465088
sS'comp_time'
p123
F9.298324584960938e-05
sS'exec_cq'
p124
I1
sS'total_cq'
p125
I51
sa(dp126
g121
I1039
sg122
F0.09207606315612793
sg123
F0.00010514259338378906
sg124
I1
sg125
I50
sa(dp127
g121
I511
sg122
F0.08298015594482422
sg123
F5.0067901611328125e-05
sg124
I1
sg125
I47
sa(dp128
g121
I704
sg122
F0.04105806350708008
sg123
F6.413459777832031e-05
sg124
I3
sg125
I34
sa(dp129
g121
I659
sg122
F0.052475929260253906
sg123
F6.389617919921875e-05
sg124
I4
sg125
I32
sa(dp130
g121
I574
sg122
F0.02121710777282715
sg123
F7.295608520507812e-05
sg124
I4
sg125
I30
sa(dp131
g121
I280
sg122
F0.03485417366027832
sg123
F5.91278076171875e-05
sg124
I4
sg125
I28
sa(dp132
g121
I102
sg122
F0.023892879486083984
sg123
F5.1021575927734375e-05
sg124
I2
sg125
I8
sasS'total_cqs'
p133
I51
ssI11
(dp134
S'iters'
p135
I12
sS'meta'
p136
(lp137
(dp138
S'objective'
p139
I1840
sS'query_time'
p140
F0.2727358341217041
sS'comp_time'
p141
F8.20159912109375e-05
sS'exec_cq'
p142
I1
sS'total_cq'
p143
I63
sa(dp144
g139
I1806
sg140
F0.1326439380645752
sg141
F9.298324584960938e-05
sg142
I2
sg143
I61
sa(dp145
g139
I1699
sg140
F0.08804798126220703
sg141
F7.200241088867188e-05
sg142
I2
sg143
I60
sa(dp146
g139
I695
sg140
F0.09380412101745605
sg141
F8.20159912109375e-05
sg142
I2
sg143
I58
sa(dp147
g139
I1133
sg140
F0.05155491828918457
sg141
F6.699562072753906e-05
sg142
I6
sg143
I42
sa(dp148
g139
I814
sg140
F0.06292080879211426
sg141
F6.699562072753906e-05
sg142
I8
sg143
I41
sa(dp149
g139
I110
sg140
F0.05297994613647461
sg141
F4.506111145019531e-05
sg142
I2
sg143
I9
sa(dp150
g139
I86
sg140
F0.055006980895996094
sg141
F6.890296936035156e-05
sg142
I2
sg143
I8
sa(dp151
g139
I53
sg140
F0.015408039093017578
sg141
F3.504753112792969e-05
sg142
I2
sg143
I7
sa(dp152
g139
I53
sg140
F0.020617008209228516
sg141
F5.412101745605469e-05
sg142
I2
sg143
I5
sa(dp153
g139
I45
sg140
F0.008702993392944336
sg141
F4.601478576660156e-05
sg142
I2
sg143
I4
sa(dp154
g139
I41
sg140
F0.0046100616455078125
sg141
F3.719329833984375e-05
sg142
I2
sg143
I3
sasS'total_cqs'
p155
I63
ssI12
(dp156
S'iters'
p157
I11
sS'meta'
p158
(lp159
(dp160
S'objective'
p161
I1133
sS'query_time'
p162
F0.11368012428283691
sS'comp_time'
p163
F9.584426879882812e-05
sS'exec_cq'
p164
I1
sS'total_cq'
p165
I50
sa(dp166
g161
I826
sg162
F0.07535505294799805
sg163
F8.606910705566406e-05
sg164
I1
sg165
I47
sa(dp167
g161
I915
sg162
F0.05194401741027832
sg163
F5.4836273193359375e-05
sg164
I1
sg165
I41
sa(dp168
g161
I873
sg162
F0.06095719337463379
sg163
F0.00012612342834472656
sg164
I2
sg165
I39
sa(dp169
g161
I767
sg162
F0.057235002517700195
sg163
F5.412101745605469e-05
sg164
I2
sg165
I38
sa(dp170
g161
I755
sg162
F0.04701399803161621
sg163
F5.412101745605469e-05
sg164
I2
sg165
I36
sa(dp171
g161
I645
sg162
F0.0450291633605957
sg163
F4.887580871582031e-05
sg164
I2
sg165
I35
sa(dp172
g161
I504
sg162
F0.027994155883789062
sg163
F4.410743713378906e-05
sg164
I4
sg165
I33
sa(dp173
g161
I25
sg162
F0.025957107543945312
sg163
F5.1021575927734375e-05
sg164
I2
sg165
I5
sa(dp174
g161
I29
sg162
F0.01956009864807129
sg163
F3.814697265625e-05
sg164
I2
sg165
I3
sa(dp175
g161
I30
sg162
F0.0021359920501708984
sg163
F3.314018249511719e-05
sg164
I2
sg165
I2
sasS'total_cqs'
p176
I50
ssI13
(dp177
S'iters'
p178
I6
sS'meta'
p179
(lp180
(dp181
S'objective'
p182
I126
sS'query_time'
p183
F0.11212611198425293
sS'comp_time'
p184
F6.699562072753906e-05
sS'exec_cq'
p185
I1
sS'total_cq'
p186
I20
sa(dp187
g182
I120
sg183
F0.08654308319091797
sg184
F7.700920104980469e-05
sg185
I1
sg186
I17
sa(dp188
g182
I62
sg183
F0.06702685356140137
sg184
F6.604194641113281e-05
sg185
I2
sg186
I15
sa(dp189
g182
I53
sg183
F0.018393993377685547
sg184
F4.00543212890625e-05
sg185
I2
sg186
I12
sa(dp190
g182
I9
sg183
F0.012449026107788086
sg184
F4.792213439941406e-05
sg185
I2
sg186
I3
sa(dp191
g182
I15
sg183
F0.005110979080200195
sg184
F5.5789947509765625e-05
sg185
I2
sg186
I2
sasS'total_cqs'
p192
I20
ssI14
(dp193
S'iters'
p194
I2
sS'meta'
p195
(lp196
(dp197
S'objective'
p198
I27
sS'query_time'
p199
F0.024070024490356445
sS'comp_time'
p200
F5.602836608886719e-05
sS'exec_cq'
p201
I1
sS'total_cq'
p202
I9
sa(dp203
g198
I20
sg199
F0.44454002380371094
sg200
F7.796287536621094e-05
sg201
I1
sg202
I8
sasS'total_cqs'
p204
I9
ssI15
(dp205
S'iters'
p206
I2
sS'meta'
p207
(lp208
(dp209
S'objective'
p210
I26
sS'query_time'
p211
F1.0479729175567627
sS'comp_time'
p212
F7.081031799316406e-05
sS'exec_cq'
p213
I1
sS'total_cq'
p214
I11
sa(dp215
g210
I26
sg211
F0.03680896759033203
sg212
F3.695487976074219e-05
sg213
I1
sg214
I8
sasS'total_cqs'
p216
I11
ssI16
(dp217
S'iters'
p218
I1
sS'meta'
p219
(lp220
(dp221
S'objective'
p222
I22
sS'query_time'
p223
F0.014803886413574219
sS'comp_time'
p224
F6.29425048828125e-05
sS'exec_cq'
p225
I2
sS'total_cq'
p226
I8
sasS'total_cqs'
p227
I8
ssI17
(dp228
S'iters'
p229
I4
sS'meta'
p230
(lp231
(dp232
S'objective'
p233
I44
sS'query_time'
p234
F0.09296107292175293
sS'comp_time'
p235
F6.890296936035156e-05
sS'exec_cq'
p236
I1
sS'total_cq'
p237
I11
sa(dp238
g233
I17
sg234
F0.03631711006164551
sg235
F6.890296936035156e-05
sg236
I1
sg237
I10
sa(dp239
g233
I13
sg234
F0.0042150020599365234
sg235
F2.7894973754882812e-05
sg236
I1
sg237
I3
sa(dp240
g233
I4
sg234
F0.007794857025146484
sg235
F4.601478576660156e-05
sg236
I1
sg237
I2
sasS'total_cqs'
p241
I11
ssI18
(dp242
S'iters'
p243
I1
sS'meta'
p244
(lp245
(dp246
S'objective'
p247
I46
sS'query_time'
p248
F0.06928300857543945
sS'comp_time'
p249
F6.413459777832031e-05
sS'exec_cq'
p250
I2
sS'total_cq'
p251
I11
sasS'total_cqs'
p252
I11
ssI19
(dp253
S'iters'
p254
I0
sS'meta'
p255
(lp256
sS'total_cqs'
p257
I1
ssI20
(dp258
S'iters'
p259
I0
sS'meta'
p260
(lp261
sS'total_cqs'
p262
I1
ssI21
(dp263
S'iters'
p264
I0
sS'meta'
p265
(lp266
sS'total_cqs'
p267
I1
ssI22
(dp268
S'iters'
p269
I1
sS'meta'
p270
(lp271
(dp272
S'objective'
p273
I141
sS'query_time'
p274
F0.03687310218811035
sS'comp_time'
p275
F5.817413330078125e-05
sS'exec_cq'
p276
I4
sS'total_cq'
p277
I18
sasS'total_cqs'
p278
I18
ssI23
(dp279
S'iters'
p280
I1
sS'meta'
p281
(lp282
(dp283
S'objective'
p284
I110
sS'query_time'
p285
F0.02104783058166504
sS'comp_time'
p286
F8.893013000488281e-05
sS'exec_cq'
p287
I4
sS'total_cq'
p288
I16
sasS'total_cqs'
p289
I16
ssI24
(dp290
S'iters'
p291
I0
sS'meta'
p292
(lp293
sS'total_cqs'
p294
I1
ssI25
(dp295
S'iters'
p296
I0
sS'meta'
p297
(lp298
sS'total_cqs'
p299
I1
ssI26
(dp300
S'iters'
p301
I1
sS'meta'
p302
(lp303
(dp304
S'objective'
p305
I837
sS'query_time'
p306
F0.09584212303161621
sS'comp_time'
p307
F7.510185241699219e-05
sS'exec_cq'
p308
I10
sS'total_cq'
p309
I42
sasS'total_cqs'
p310
I42
ssI27
(dp311
S'iters'
p312
I3
sS'meta'
p313
(lp314
(dp315
S'objective'
p316
I371
sS'query_time'
p317
F1.0571339130401611
sS'comp_time'
p318
F8.797645568847656e-05
sS'exec_cq'
p319
I6
sS'total_cq'
p320
I30
sa(dp321
g316
I346
sg317
F3.6139440536499023
sg318
F8.797645568847656e-05
sg319
I6
sg320
I28
sa(dp322
g316
I12
sg317
F1243.753662109375
sg318
F9.489059448242188e-05
sg319
I2
sg320
I2
sasS'total_cqs'
p323
I30
ssI28
(dp324
S'iters'
p325
I0
sS'meta'
p326
(lp327
sS'total_cqs'
p328
I1
ssI29
(dp329
S'iters'
p330
I4
sS'meta'
p331
(lp332
(dp333
S'objective'
p334
I1127
sS'query_time'
p335
F0.609227180480957
sS'comp_time'
p336
F8.106231689453125e-05
sS'exec_cq'
p337
I1
sS'total_cq'
p338
I49
sa(dp339
g334
I944
sg335
F2.4910800457000732
sg336
F6.103515625e-05
sg337
I1
sg338
I48
sa(dp340
g334
I38
sg335
F0.06410694122314453
sg336
F3.790855407714844e-05
sg337
I1
sg338
I4
sa(dp341
g334
I37
sg335
F0.10822796821594238
sg336
F7.891654968261719e-05
sg337
I1
sg338
I2
sasS'total_cqs'
p342
I49
ssI30
(dp343
S'iters'
p344
I1
sS'meta'
p345
(lp346
(dp347
S'objective'
p348
I1
sS'query_time'
p349
F0.72505784034729
sS'comp_time'
p350
F8.0108642578125e-05
sS'exec_cq'
p351
I1
sS'total_cq'
p352
I2
sasS'total_cqs'
p353
I2
ssI31
(dp354
S'iters'
p355
I0
sS'meta'
p356
(lp357
sS'total_cqs'
p358
I1
ssI32
(dp359
S'iters'
p360
I1
sS'meta'
p361
(lp362
(dp363
S'objective'
p364
I1
sS'query_time'
p365
F0.0317080020904541
sS'comp_time'
p366
F6.914138793945312e-05
sS'exec_cq'
p367
I1
sS'total_cq'
p368
I2
sasS'total_cqs'
p369
I2
ssI33
(dp370
S'iters'
p371
I10
sS'meta'
p372
(lp373
(dp374
S'objective'
p375
I4980
sS'query_time'
p376
F1.2334461212158203
sS'comp_time'
p377
F0.00014901161193847656
sS'exec_cq'
p378
I2
sS'total_cq'
p379
I103
sa(dp380
g375
I4714
sg376
F0.6762619018554688
sg377
F0.00013017654418945312
sg378
I2
sg379
I100
sa(dp381
g375
I4617
sg376
F2.335585832595825
sg377
F0.0001277923583984375
sg378
I3
sg379
I97
sa(dp382
g375
I4595
sg376
F0.5313971042633057
sg377
F0.00011706352233886719
sg378
I8
sg379
I95
sa(dp383
g375
I4423
sg376
F0.6480169296264648
sg377
F0.0001380443572998047
sg378
I9
sg379
I94
sa(dp384
g375
I4279
sg376
F0.8888370990753174
sg377
F0.00011205673217773438
sg378
I10
sg379
I92
sa(dp385
g375
I4243
sg376
F0.5344529151916504
sg377
F0.00013494491577148438
sg378
I10
sg379
I90
sa(dp386
g375
I4160
sg376
F0.9186360836029053
sg377
F0.00014400482177734375
sg378
I11
sg379
I89
sa(dp387
g375
I4077
sg376
F1.1655449867248535
sg377
F0.00011396408081054688
sg378
I11
sg379
I88
sa(dp388
g375
I4003
sg376
F0.3990190029144287
sg377
F9.202957153320312e-05
sg378
I15
sg379
I87
sasS'total_cqs'
p389
I103
ssI34
(dp390
S'iters'
p391
I1
sS'meta'
p392
(lp393
(dp394
S'objective'
p395
I1
sS'query_time'
p396
F0.05571913719177246
sS'comp_time'
p397
F7.796287536621094e-05
sS'exec_cq'
p398
I1
sS'total_cq'
p399
I2
sasS'total_cqs'
p400
I2
ssI35
(dp401
S'iters'
p402
I12
sS'meta'
p403
(lp404
(dp405
S'objective'
p406
I2345
sS'query_time'
p407
F18.441426038742065
sS'comp_time'
p408
F0.0004138946533203125
sS'exec_cq'
p409
I1
sS'total_cq'
p410
I70
sa(dp411
g406
I1871
sg407
F1.0832641124725342
sg408
F0.00011587142944335938
sg409
I1
sg410
I69
sa(dp412
g406
I2007
sg407
F13.698096990585327
sg408
F0.0002238750457763672
sg409
I1
sg410
I60
sa(dp413
g406
I1941
sg407
F0.05725407600402832
sg408
F6.699562072753906e-05
sg409
I1
sg410
I59
sa(dp414
g406
I1750
sg407
F0.2740459442138672
sg408
F6.914138793945312e-05
sg409
I1
sg410
I58
sa(dp415
g406
I1751
sg407
F0.11948204040527344
sg408
F0.00010895729064941406
sg409
I2
sg410
I54
sa(dp416
g406
I1577
sg407
F0.7251358032226562
sg408
F0.00017404556274414062
sg409
I3
sg410
I53
sa(dp417
g406
I1574
sg407
F3.0784659385681152
sg408
F0.00010991096496582031
sg409
I3
sg410
I50
sa(dp418
g406
I1517
sg407
F22.634541034698486
sg408
F0.00021195411682128906
sg409
I4
sg410
I49
sa(dp419
g406
I954
sg407
F2.8905789852142334
sg408
F0.00021505355834960938
sg409
I4
sg410
I48
sa(dp420
g406
I45
sg407
F0.059262990951538086
sg408
F3.600120544433594e-05
sg409
I1
sg410
I7
sa(dp421
g406
I70
sg407
F0.7993600368499756
sg408
F7.295608520507812e-05
sg409
I1
sg410
I4
sasS'total_cqs'
p422
I70
ssI36
(dp423
S'iters'
p424
I4
sS'meta'
p425
(lp426
(dp427
S'objective'
p428
I487
sS'query_time'
p429
F0.2354569435119629
sS'comp_time'
p430
F7.796287536621094e-05
sS'exec_cq'
p431
I2
sS'total_cq'
p432
I33
sa(dp433
g428
I462
sg429
F0.16823887825012207
sg430
F6.794929504394531e-05
sg431
I2
sg432
I31
sa(dp434
g428
I405
sg429
F0.03433513641357422
sg430
F6.198883056640625e-05
sg431
I5
sg432
I30
sa(dp435
g428
I397
sg429
F0.10881996154785156
sg430
F0.00010514259338378906
sg431
I5
sg432
I28
sasS'total_cqs'
p436
I33
ssI37
(dp437
S'iters'
p438
I1
sS'meta'
p439
(lp440
(dp441
S'objective'
p442
I1
sS'query_time'
p443
F0.010635852813720703
sS'comp_time'
p444
F5.0067901611328125e-05
sS'exec_cq'
p445
I1
sS'total_cq'
p446
I2
sasS'total_cqs'
p447
I2
ssI38
(dp448
S'iters'
p449
I2
sS'meta'
p450
(lp451
(dp452
S'objective'
p453
I8
sS'query_time'
p454
F0.021099090576171875
sS'comp_time'
p455
F0.00034499168395996094
sS'exec_cq'
p456
I1
sS'total_cq'
p457
I4
sa(dp458
g453
I1
sg454
F0.005520820617675781
sg455
F3.409385681152344e-05
sg456
I1
sg457
I3
sasS'total_cqs'
p459
I4
ssI39
(dp460
S'iters'
p461
I6
sS'meta'
p462
(lp463
(dp464
S'objective'
p465
I456
sS'query_time'
p466
F0.059452056884765625
sS'comp_time'
p467
F5.793571472167969e-05
sS'exec_cq'
p468
I1
sS'total_cq'
p469
I44
sa(dp470
g465
I179
sg466
F0.013916969299316406
sg467
F3.600120544433594e-05
sg468
I2
sg469
I8
sa(dp471
g465
I141
sg466
F0.017582178115844727
sg467
F5.412101745605469e-05
sg468
I2
sg469
I7
sa(dp472
g465
I102
sg466
F0.014488935470581055
sg467
F5.1021575927734375e-05
sg468
I2
sg469
I6
sa(dp473
g465
I64
sg466
F0.015176773071289062
sg467
F4.1961669921875e-05
sg468
I2
sg469
I5
sa(dp474
g465
I35
sg466
F0.055666208267211914
sg467
F7.104873657226562e-05
sg468
I2
sg469
I4
sasS'total_cqs'
p475
I44
ssI40
(dp476
S'iters'
p477
I1
sS'meta'
p478
(lp479
(dp480
S'objective'
p481
I14
sS'query_time'
p482
F0.025521039962768555
sS'comp_time'
p483
F5.2928924560546875e-05
sS'exec_cq'
p484
I1
sS'total_cq'
p485
I7
sasS'total_cqs'
p486
I7
ssI41
(dp487
S'iters'
p488
I1
sS'meta'
p489
(lp490
(dp491
S'objective'
p492
I58
sS'query_time'
p493
F0.03606605529785156
sS'comp_time'
p494
F6.413459777832031e-05
sS'exec_cq'
p495
I3
sS'total_cq'
p496
I12
sasS'total_cqs'
p497
I12
ssI42
(dp498
S'iters'
p499
I2
sS'meta'
p500
(lp501
(dp502
S'objective'
p503
I791
sS'query_time'
p504
F0.06497693061828613
sS'comp_time'
p505
F8.487701416015625e-05
sS'exec_cq'
p506
I7
sS'total_cq'
p507
I41
sa(dp508
g503
I762
sg504
F0.03389596939086914
sg505
F6.4849853515625e-05
sg506
I9
sg507
I40
sasS'total_cqs'
p509
I41
ssI43
(dp510
S'iters'
p511
I1
sS'meta'
p512
(lp513
(dp514
S'objective'
p515
I14
sS'query_time'
p516
F0.020611047744750977
sS'comp_time'
p517
F5.698204040527344e-05
sS'exec_cq'
p518
I1
sS'total_cq'
p519
I7
sasS'total_cqs'
p520
I7
ssI44
(dp521
S'iters'
p522
I5
sS'meta'
p523
(lp524
(dp525
S'objective'
p526
I724
sS'query_time'
p527
F0.06757998466491699
sS'comp_time'
p528
F6.103515625e-05
sS'exec_cq'
p529
I3
sS'total_cq'
p530
I47
sa(dp531
g526
I842
sg527
F0.27126288414001465
sg528
F8.487701416015625e-05
sg529
I5
sg530
I40
sa(dp532
g526
I682
sg527
F0.04126095771789551
sg528
F7.104873657226562e-05
sg529
I8
sg530
I39
sa(dp533
g526
I41
sg527
F0.00925588607788086
sg528
F3.1948089599609375e-05
sg529
I1
sg530
I3
sa(dp534
g526
I3
sg527
F0.016968965530395508
sg528
F6.4849853515625e-05
sg529
I2
sg530
I2
sasS'total_cqs'
p535
I47
ssI45
(dp536
S'iters'
p537
I0
sS'meta'
p538
(lp539
sS'total_cqs'
p540
I1
ssI46
(dp541
S'iters'
p542
I1
sS'meta'
p543
(lp544
(dp545
S'objective'
p546
I9
sS'query_time'
p547
F0.01123809814453125
sS'comp_time'
p548
F6.103515625e-05
sS'exec_cq'
p549
I1
sS'total_cq'
p550
I6
sasS'total_cqs'
p551
I6
ssI47
(dp552
S'iters'
p553
I1
sS'meta'
p554
(lp555
(dp556
S'objective'
p557
I1
sS'query_time'
p558
F0.006634950637817383
sS'comp_time'
p559
F5.698204040527344e-05
sS'exec_cq'
p560
I1
sS'total_cq'
p561
I2
sasS'total_cqs'
p562
I2
ssI48
(dp563
S'iters'
p564
I0
sS'meta'
p565
(lp566
sS'total_cqs'
p567
I1
ssI49
(dp568
S'iters'
p569
I0
sS'meta'
p570
(lp571
sS'total_cqs'
p572
I1
ssI50
(dp573
S'iters'
p574
I1
sS'meta'
p575
(lp576
(dp577
S'objective'
p578
I5
sS'query_time'
p579
F0.007532835006713867
sS'comp_time'
p580
F6.008148193359375e-05
sS'exec_cq'
p581
I1
sS'total_cq'
p582
I5
sasS'total_cqs'
p583
I5
ssI51
(dp584
S'iters'
p585
I1
sS'meta'
p586
(lp587
(dp588
S'objective'
p589
I1
sS'query_time'
p590
F0.0052220821380615234
sS'comp_time'
p591
F4.887580871582031e-05
sS'exec_cq'
p592
I1
sS'total_cq'
p593
I2
sasS'total_cqs'
p594
I2
ssI52
(dp595
S'iters'
p596
I1
sS'meta'
p597
(lp598
(dp599
S'objective'
p600
I1
sS'query_time'
p601
F0.010356903076171875
sS'comp_time'
p602
F4.291534423828125e-05
sS'exec_cq'
p603
I1
sS'total_cq'
p604
I2
sasS'total_cqs'
p605
I2
ssI53
(dp606
S'iters'
p607
I1
sS'meta'
p608
(lp609
(dp610
S'objective'
p611
I2
sS'query_time'
p612
F0.012537956237792969
sS'comp_time'
p613
F3.790855407714844e-05
sS'exec_cq'
p614
I1
sS'total_cq'
p615
I4
sasS'total_cqs'
p616
I4
ssI54
(dp617
S'iters'
p618
I2
sS'meta'
p619
(lp620
(dp621
S'objective'
p622
I0
sS'query_time'
p623
F0.014472007751464844
sS'comp_time'
p624
F9.202957153320312e-05
sS'exec_cq'
p625
I1
sS'total_cq'
p626
I3
sa(dp627
g622
I1
sg623
F0.005434989929199219
sg624
F3.695487976074219e-05
sg625
I1
sg626
I2
sasS'total_cqs'
p628
I3
ssI55
(dp629
S'iters'
p630
I7
sS'meta'
p631
(lp632
(dp633
S'objective'
p634
I5779
sS'query_time'
p635
F0.24242687225341797
sS'comp_time'
p636
F9.393692016601562e-05
sS'exec_cq'
p637
I2
sS'total_cq'
p638
I109
sa(dp639
g634
I5545
sg635
F0.3703470230102539
sg636
F0.00014209747314453125
sg637
I3
sg638
I108
sa(dp640
g634
I5212
sg635
F0.2189040184020996
sg636
F0.00011491775512695312
sg637
I8
sg638
I106
sa(dp641
g634
I5270
sg635
F0.3261301517486572
sg636
F0.000141143798828125
sg637
I10
sg638
I102
sa(dp642
g634
I5191
sg635
F0.17109894752502441
sg636
F0.00013518333435058594
sg637
I18
sg638
I101
sa(dp643
g634
I5035
sg635
F0.18991613388061523
sg636
F0.00011920928955078125
sg637
I22
sg638
I100
sa(dp644
g634
I44
sg635
F0.0058858394622802734
sg636
F4.696846008300781e-05
sg637
I1
sg638
I3
sasS'total_cqs'
p645
I109
ssI56
(dp646
S'iters'
p647
I6
sS'meta'
p648
(lp649
(dp650
S'objective'
p651
I2040
sS'query_time'
p652
F0.4232780933380127
sS'comp_time'
p653
F0.00011491775512695312
sS'exec_cq'
p654
I2
sS'total_cq'
p655
I76
sa(dp656
g651
I2335
sg652
F0.38116002082824707
sg653
F0.0001010894775390625
sg654
I2
sg655
I64
sa(dp657
g651
I2129
sg652
F0.19105219841003418
sg653
F7.200241088867188e-05
sg654
I4
sg655
I63
sa(dp658
g651
I2145
sg652
F0.41901397705078125
sg653
F6.4849853515625e-05
sg654
I9
sg655
I61
sa(dp659
g651
I2085
sg652
F0.27637195587158203
sg653
F5.412101745605469e-05
sg654
I9
sg655
I60
sa(dp660
g651
I2030
sg652
F0.13101911544799805
sg653
F7.510185241699219e-05
sg654
I11
sg655
I59
sasS'total_cqs'
p661
I76
ssI57
(dp662
S'iters'
p663
I6
sS'meta'
p664
(lp665
(dp666
S'objective'
p667
I1224
sS'query_time'
p668
F1.018261194229126
sS'comp_time'
p669
F9.393692016601562e-05
sS'exec_cq'
p670
I1
sS'total_cq'
p671
I51
sa(dp672
g667
I659
sg668
F0.9844388961791992
sg669
F0.00010800361633300781
sg670
I1
sg671
I50
sa(dp673
g667
I641
sg668
F0.35944199562072754
sg669
F8.487701416015625e-05
sg670
I1
sg671
I41
sa(dp674
g667
I626
sg668
F6.129554986953735
sg669
F0.00011205673217773438
sg670
I2
sg671
I35
sa(dp675
g667
I531
sg668
F0.3340599536895752
sg669
F8.893013000488281e-05
sg670
I3
sg671
I32
sa(dp676
g667
I543
sg668
F0.17995905876159668
sg669
F8.20159912109375e-05
sg670
I3
sg671
I28
sasS'total_cqs'
p677
I51
ssI58
(dp678
S'iters'
p679
I29
sS'meta'
p680
(lp681
(dp682
S'objective'
p683
I110345
sS'query_time'
p684
F13.911621809005737
sS'comp_time'
p685
F0.0005481243133544922
sS'exec_cq'
p686
I1
sS'total_cq'
p687
I486
sa(dp688
g683
I112181
sg684
F4.226483106613159
sg685
F0.0040509700775146484
sg686
I3
sg687
I474
sa(dp689
g683
I111526
sg684
F2.806701898574829
sg685
F0.0002949237823486328
sg686
I6
sg687
I471
sa(dp690
g683
I110496
sg684
F4.684069871902466
sg685
F0.0003719329833984375
sg686
I7
sg687
I468
sa(dp691
g683
I110493
sg684
F12.603908061981201
sg685
F0.00019288063049316406
sg686
I7
sg687
I466
sa(dp692
g683
I109903
sg684
F4.899545907974243
sg685
F0.0003829002380371094
sg686
I9
sg687
I465
sa(dp693
g683
I106954
sg684
F4.131295919418335
sg685
F0.0004220008850097656
sg686
I10
sg687
I463
sa(dp694
g683
I107369
sg684
F24.627887964248657
sg685
F0.02192401885986328
sg686
I12
sg687
I458
sa(dp695
g683
I103732
sg684
F12.530229091644287
sg685
F0.0003910064697265625
sg686
I12
sg687
I456
sa(dp696
g683
I104956
sg684
F25.40531897544861
sg685
F0.0012900829315185547
sg686
I14
sg687
I450
sa(dp697
g683
I72703
sg684
F1.6405041217803955
sg685
F0.0004699230194091797
sg686
I14
sg687
I449
sa(dp698
g683
I88139
sg684
F0.7175278663635254
sg685
F0.0002880096435546875
sg686
I14
sg687
I380
sa(dp699
g683
I84972
sg684
F3.330259084701538
sg685
F0.0004601478576660156
sg686
I16
sg687
I379
sa(dp700
g683
I83344
sg684
F1.9578030109405518
sg685
F0.0004451274871826172
sg686
I19
sg687
I373
sa(dp701
g683
I82675
sg684
F1.1987290382385254
sg685
F0.003757953643798828
sg686
I20
sg687
I368
sa(dp702
g683
I76668
sg684
F1.2816779613494873
sg685
F0.00019502639770507812
sg686
I20
sg687
I364
sa(dp703
g683
I78597
sg684
F1.8555119037628174
sg685
F0.00032901763916015625
sg686
I22
sg687
I349
sa(dp704
g683
I76345
sg684
F1.6473197937011719
sg685
F0.00044608116149902344
sg686
I22
sg687
I347
sa(dp705
g683
I77003
sg684
F2.6476848125457764
sg685
F0.0006449222564697266
sg686
I22
sg687
I341
sa(dp706
g683
I76562
sg684
F1.1701929569244385
sg685
F0.0002639293670654297
sg686
I22
sg687
I340
sa(dp707
g683
I75234
sg684
F0.746894121170044
sg685
F0.010748863220214844
sg686
I24
sg687
I339
sa(dp708
g683
I75247
sg684
F1.5510599613189697
sg685
F0.00037598609924316406
sg686
I26
sg687
I336
sa(dp709
g683
I71101
sg684
F1.8618919849395752
sg685
F0.0002307891845703125
sg686
I26
sg687
I335
sa(dp710
g683
I72558
sg684
F0.7075331211090088
sg685
F0.00017213821411132812
sg686
I36
sg687
I327
sa(dp711
g683
I70933
sg684
F11.995704889297485
sg685
F0.0002551078796386719
sg686
I36
sg687
I326
sa(dp712
g683
I69788
sg684
F0.32807087898254395
sg685
F0.0003681182861328125
sg686
I37
sg687
I323
sa(dp713
g683
I69453
sg684
F1.3242268562316895
sg685
F0.00021505355834960938
sg686
I41
sg687
I319
sa(dp714
g683
I68730
sg684
F4.141345977783203
sg685
F0.0001888275146484375
sg686
I48
sg687
I317
sa(dp715
g683
I68714
sg684
F0.6331160068511963
sg685
F0.00035691261291503906
sg686
I63
sg687
I314
sasS'total_cqs'
p716
I486
ssI59
(dp717
S'iters'
p718
I2
sS'meta'
p719
(lp720
(dp721
S'objective'
p722
I6
sS'query_time'
p723
F0.030150890350341797
sS'comp_time'
p724
F7.605552673339844e-05
sS'exec_cq'
p725
I1
sS'total_cq'
p726
I7
sa(dp727
g722
I3
sg723
F0.0582728385925293
sg724
F6.985664367675781e-05
sg725
I2
sg726
I2
sasS'total_cqs'
p728
I7
ssI60
(dp729
S'iters'
p730
I1
sS'meta'
p731
(lp732
(dp733
S'objective'
p734
I5
sS'query_time'
p735
F0.00625300407409668
sS'comp_time'
p736
F4.506111145019531e-05
sS'exec_cq'
p737
I1
sS'total_cq'
p738
I5
sasS'total_cqs'
p739
I5
ssI61
(dp740
S'iters'
p741
I0
sS'meta'
p742
(lp743
sS'total_cqs'
p744
I1
ssI62
(dp745
S'iters'
p746
I3
sS'meta'
p747
(lp748
(dp749
S'objective'
p750
I26
sS'query_time'
p751
F0.01578807830810547
sS'comp_time'
p752
F6.29425048828125e-05
sS'exec_cq'
p753
I1
sS'total_cq'
p754
I12
sa(dp755
g750
I30
sg751
F0.017882108688354492
sg752
F3.719329833984375e-05
sg753
I1
sg754
I9
sa(dp756
g750
I21
sg751
F0.01459193229675293
sg752
F4.315376281738281e-05
sg753
I1
sg754
I8
sasS'total_cqs'
p757
I12
ssI63
(dp758
S'iters'
p759
I0
sS'meta'
p760
(lp761
sS'total_cqs'
p762
I1
ssI64
(dp763
S'iters'
p764
I3
sS'meta'
p765
(lp766
(dp767
S'objective'
p768
I30
sS'query_time'
p769
F0.06471896171569824
sS'comp_time'
p770
F6.699562072753906e-05
sS'exec_cq'
p771
I1
sS'total_cq'
p772
I12
sa(dp773
g768
I0
sg769
F0.0027430057525634766
sg770
F3.504753112792969e-05
sg771
I1
sg772
I3
sa(dp774
g768
I8
sg769
F0.015158891677856445
sg770
F3.1948089599609375e-05
sg771
I1
sg772
I2
sasS'total_cqs'
p775
I12
ssI65
(dp776
S'iters'
p777
I5
sS'meta'
p778
(lp779
(dp780
S'objective'
p781
I324
sS'query_time'
p782
F2.398524045944214
sS'comp_time'
p783
F8.916854858398438e-05
sS'exec_cq'
p784
I1
sS'total_cq'
p785
I27
sa(dp786
g781
I301
sg782
F0.08605122566223145
sg783
F0.0005929470062255859
sg784
I2
sg785
I26
sa(dp787
g781
I238
sg782
F0.05922293663024902
sg783
F7.605552673339844e-05
sg784
I2
sg785
I25
sa(dp788
g781
I236
sg782
F0.02551412582397461
sg783
F6.103515625e-05
sg784
I2
sg785
I23
sa(dp789
g781
I215
sg782
F0.023370981216430664
sg783
F5.602836608886719e-05
sg784
I2
sg785
I22
sasS'total_cqs'
p790
I27
ssI66
(dp791
S'iters'
p792
I0
sS'meta'
p793
(lp794
sS'total_cqs'
p795
I1
ssI67
(dp796
S'iters'
p797
I1
sS'meta'
p798
(lp799
(dp800
S'objective'
p801
I574
sS'query_time'
p802
F0.6865050792694092
sS'comp_time'
p803
F8.296966552734375e-05
sS'exec_cq'
p804
I8
sS'total_cq'
p805
I35
sasS'total_cqs'
p806
I35
ssI68
(dp807
S'iters'
p808
I0
sS'meta'
p809
(lp810
sS'total_cqs'
p811
I1
ssI69
(dp812
S'iters'
p813
I1
sS'meta'
p814
(lp815
(dp816
S'objective'
p817
I1246
sS'query_time'
p818
F0.12810182571411133
sS'comp_time'
p819
F0.00011205673217773438
sS'exec_cq'
p820
I12
sS'total_cq'
p821
I51
sasS'total_cqs'
p822
I51
ssI70
(dp823
S'iters'
p824
I1
sS'meta'
p825
(lp826
(dp827
S'objective'
p828
I9
sS'query_time'
p829
F0.009536981582641602
sS'comp_time'
p830
F4.7206878662109375e-05
sS'exec_cq'
p831
I1
sS'total_cq'
p832
I6
sasS'total_cqs'
p833
I6
ssI71
(dp834
S'iters'
p835
I4
sS'meta'
p836
(lp837
(dp838
S'objective'
p839
I3363
sS'query_time'
p840
F0.09418988227844238
sS'comp_time'
p841
F9.799003601074219e-05
sS'exec_cq'
p842
I1
sS'total_cq'
p843
I85
sa(dp844
g839
I3265
sg840
F0.08498001098632812
sg841
F0.00011396408081054688
sg842
I11
sg843
I83
sa(dp845
g839
I3205
sg840
F0.08465719223022461
sg841
F0.0001220703125
sg842
I17
sg843
I81
sa(dp846
g839
I3166
sg840
F0.0721280574798584
sg841
F0.00011587142944335938
sg842
I18
sg843
I78
sasS'total_cqs'
p847
I85
ssI72
(dp848
S'iters'
p849
I2
sS'meta'
p850
(lp851
(dp852
S'objective'
p853
I16
sS'query_time'
p854
F0.17978882789611816
sS'comp_time'
p855
F5.91278076171875e-05
sS'exec_cq'
p856
I1
sS'total_cq'
p857
I8
sa(dp858
g853
I12
sg854
F0.00774693489074707
sg855
F4.982948303222656e-05
sg856
I1
sg857
I6
sasS'total_cqs'
p859
I8
ssI73
(dp860
S'iters'
p861
I0
sS'meta'
p862
(lp863
sS'total_cqs'
p864
I1
ssI74
(dp865
S'iters'
p866
I0
sS'meta'
p867
(lp868
sS'total_cqs'
p869
I1
ssI75
(dp870
S'iters'
p871
I1
sS'meta'
p872
(lp873
(dp874
S'objective'
p875
I5
sS'query_time'
p876
F0.0053598880767822266
sS'comp_time'
p877
F5.1975250244140625e-05
sS'exec_cq'
p878
I1
sS'total_cq'
p879
I5
sasS'total_cqs'
p880
I5
ssI76
(dp881
S'iters'
p882
I1
sS'meta'
p883
(lp884
(dp885
S'objective'
p886
I1
sS'query_time'
p887
F0.011210918426513672
sS'comp_time'
p888
F4.601478576660156e-05
sS'exec_cq'
p889
I1
sS'total_cq'
p890
I2
sasS'total_cqs'
p891
I2
ssI77
(dp892
S'iters'
p893
I0
sS'meta'
p894
(lp895
sS'total_cqs'
p896
I1
ssI78
(dp897
S'iters'
p898
I0
sS'meta'
p899
(lp900
sS'total_cqs'
p901
I1
ssI103
(dp902
S'iters'
p903
I1
sS'meta'
p904
(lp905
(dp906
S'objective'
p907
I58
sS'query_time'
p908
F0.05082511901855469
sS'comp_time'
p909
F6.794929504394531e-05
sS'exec_cq'
p910
I3
sS'total_cq'
p911
I12
sasS'total_cqs'
p912
I12
ssI104
(dp913
S'iters'
p914
I1
sS'meta'
p915
(lp916
(dp917
S'objective'
p918
I2
sS'query_time'
p919
F1.3950588703155518
sS'comp_time'
p920
F8.702278137207031e-05
sS'exec_cq'
p921
I1
sS'total_cq'
p922
I4
sasS'total_cqs'
p923
I4
ssI105
(dp924
S'iters'
p925
I0
sS'meta'
p926
(lp927
sS'total_cqs'
p928
I1
ssI106
(dp929
S'iters'
p930
I1
sS'meta'
p931
(lp932
(dp933
S'objective'
p934
I2
sS'query_time'
p935
F0.013773918151855469
sS'comp_time'
p936
F6.198883056640625e-05
sS'exec_cq'
p937
I1
sS'total_cq'
p938
I4
sasS'total_cqs'
p939
I4
ssI107
(dp940
S'iters'
p941
I2
sS'meta'
p942
(lp943
(dp944
S'objective'
p945
I106
sS'query_time'
p946
F0.08111882209777832
sS'comp_time'
p947
F5.91278076171875e-05
sS'exec_cq'
p948
I2
sS'total_cq'
p949
I16
sa(dp950
g945
I95
sg946
F0.06426501274108887
sg947
F9.202957153320312e-05
sg948
I3
sg949
I15
sasS'total_cqs'
p951
I16
ssI108
(dp952
S'iters'
p953
I0
sS'meta'
p954
(lp955
sS'total_cqs'
p956
I1
ss.