(dp0
I1
(dp1
S'iters'
p2
I2
sS'meta'
p3
(lp4
(dp5
S'objective'
p6
I56
sS'query_time'
p7
F0.020399808883666992
sS'comp_time'
p8
F0.00010776519775390625
sS'exec_cq'
p9
I2
sS'total_cq'
p10
I12
sa(dp11
g6
I47
sg7
F0.009698867797851562
sg8
F8.58306884765625e-05
sg9
I2
sg10
I11
sasS'total_cqs'
p12
I12
ssI2
(dp13
S'iters'
p14
I3
sS'meta'
p15
(lp16
(dp17
S'objective'
p18
I258
sS'query_time'
p19
F0.031392812728881836
sS'comp_time'
p20
F0.00010180473327636719
sS'exec_cq'
p21
I2
sS'total_cq'
p22
I27
sa(dp23
g18
I264
sg19
F0.018260955810546875
sg20
F0.00010395050048828125
sg21
I3
sg22
I24
sa(dp24
g18
I247
sg19
F0.012988090515136719
sg20
F9.512901306152344e-05
sg21
I4
sg22
I22
sasS'total_cqs'
p25
I27
ssI3
(dp26
S'iters'
p27
I3
sS'meta'
p28
(lp29
(dp30
S'objective'
p31
I184
sS'query_time'
p32
F24.762261152267456
sS'comp_time'
p33
F0.00011086463928222656
sS'exec_cq'
p34
I2
sS'total_cq'
p35
I43
sa(dp36
g31
I215
sg32
F10.128509044647217
sg33
F0.00038695335388183594
sg34
I3
sg35
I29
sa(dp37
g31
I322
sg32
F0.017901897430419922
sg33
F0.00011706352233886719
sg34
I3
sg35
I21
sasS'total_cqs'
p38
I43
ssI4
(dp39
S'iters'
p40
I1
sS'meta'
p41
(lp42
(dp43
S'objective'
p44
I46
sS'query_time'
p45
F3.478170871734619
sS'comp_time'
p46
F0.0002338886260986328
sS'exec_cq'
p47
I2
sS'total_cq'
p48
I11
sasS'total_cqs'
p49
I11
ssI5
(dp50
S'iters'
p51
I2
sS'meta'
p52
(lp53
(dp54
S'objective'
p55
I8
sS'query_time'
p56
F1.1316730976104736
sS'comp_time'
p57
F9.083747863769531e-05
sS'exec_cq'
p58
I1
sS'total_cq'
p59
I8
sa(dp60
g55
I8
sg56
F0.3106060028076172
sg57
F7.700920104980469e-05
sg58
I1
sg59
I6
sasS'total_cqs'
p61
I8
ssI6
(dp62
S'iters'
p63
I3
sS'meta'
p64
(lp65
(dp66
S'objective'
p67
I93
sS'query_time'
p68
F7.2283830642700195
sS'comp_time'
p69
F0.00012230873107910156
sS'exec_cq'
p70
I2
sS'total_cq'
p71
I18
sa(dp72
g67
I100
sg68
F0.05990004539489746
sg69
F9.918212890625e-05
sg70
I2
sg71
I15
sa(dp73
g67
I86
sg68
F0.4244379997253418
sg69
F0.00010204315185546875
sg70
I2
sg71
I14
sasS'total_cqs'
p74
I18
ssI7
(dp75
S'iters'
p76
I2
sS'meta'
p77
(lp78
(dp79
S'objective'
p80
I1
sS'query_time'
p81
F1.5494630336761475
sS'comp_time'
p82
F7.009506225585938e-05
sS'exec_cq'
p83
I1
sS'total_cq'
p84
I9
sa(dp85
g80
I7
sg81
F0.19489002227783203
sg82
F8.082389831542969e-05
sg83
I1
sg84
I6
sasS'total_cqs'
p86
I9
ssI8
(dp87
S'iters'
p88
I5
sS'meta'
p89
(lp90
(dp91
S'objective'
p92
I324
sS'query_time'
p93
F0.036453962326049805
sS'comp_time'
p94
F0.00010395050048828125
sS'exec_cq'
p95
I1
sS'total_cq'
p96
I27
sa(dp97
g92
I287
sg93
F0.02953791618347168
sg94
F9.822845458984375e-05
sg95
I1
sg96
I26
sa(dp98
g92
I271
sg93
F0.013633012771606445
sg94
F9.608268737792969e-05
sg95
I2
sg96
I24
sa(dp99
g92
I225
sg93
F0.025075912475585938
sg94
F9.012222290039062e-05
sg95
I2
sg96
I23
sa(dp100
g92
I216
sg93
F0.010606050491333008
sg94
F8.58306884765625e-05
sg95
I2
sg96
I20
sasS'total_cqs'
p101
I27
ssI9
(dp102
S'iters'
p103
I3
sS'meta'
p104
(lp105
(dp106
S'objective'
p107
I6
sS'query_time'
p108
F0.016412019729614258
sS'comp_time'
p109
F7.62939453125e-05
sS'exec_cq'
p110
I1
sS'total_cq'
p111
I7
sa(dp112
g107
I3
sg108
F0.03296685218811035
sg109
F8.392333984375e-05
sg110
I2
sg111
I5
sa(dp113
g107
I4
sg108
F0.002660989761352539
sg109
F6.580352783203125e-05
sg110
I2
sg111
I2
sasS'total_cqs'
p114
I7
ssI10
(dp115
S'iters'
p116
I8
sS'meta'
p117
(lp118
(dp119
S'objective'
p120
I1070
sS'query_time'
p121
F0.0725698471069336
sS'comp_time'
p122
F0.00013780593872070312
sS'exec_cq'
p123
I1
sS'total_cq'
p124
I51
sa(dp125
g120
I1038
sg121
F0.12700104713439941
sg122
F0.00013113021850585938
sg123
I1
sg124
I46
sa(dp126
g120
I1002
sg121
F0.06525707244873047
sg122
F0.0001251697540283203
sg123
I1
sg124
I43
sa(dp127
g120
I292
sg121
F0.061895132064819336
sg122
F0.00012803077697753906
sg123
I1
sg124
I41
sa(dp128
g120
I590
sg121
F0.029934167861938477
sg122
F0.00010418891906738281
sg123
I3
sg124
I28
sa(dp129
g120
I503
sg121
F0.027891874313354492
sg122
F8.797645568847656e-05
sg123
I4
sg124
I27
sa(dp130
g120
I400
sg121
F0.0245511531829834
sg122
F8.416175842285156e-05
sg123
I4
sg124
I24
sa(dp131
g120
I4
sg121
F0.012015819549560547
sg122
F5.602836608886719e-05
sg123
I2
sg124
I5
sasS'total_cqs'
p132
I51
ssI11
(dp133
S'iters'
p134
I8
sS'meta'
p135
(lp136
(dp137
S'objective'
p138
I922
sS'query_time'
p139
F0.16748714447021484
sS'comp_time'
p140
F0.0001380443572998047
sS'exec_cq'
p141
I1
sS'total_cq'
p142
I63
sa(dp143
g138
I907
sg139
F0.07008790969848633
sg140
F0.0001277923583984375
sg141
I5
sg142
I47
sa(dp144
g138
I1076
sg139
F0.050065040588378906
sg140
F9.775161743164062e-05
sg141
I5
sg142
I40
sa(dp145
g138
I1022
sg139
F0.0872640609741211
sg140
F0.00012612342834472656
sg141
I5
sg142
I39
sa(dp146
g138
I927
sg139
F0.08363890647888184
sg140
F0.0001697540283203125
sg141
I5
sg142
I38
sa(dp147
g138
I900
sg139
F0.07755303382873535
sg140
F0.0001270771026611328
sg141
I5
sg142
I36
sa(dp148
g138
I667
sg139
F0.04539799690246582
sg140
F0.00011992454528808594
sg141
I5
sg142
I35
sa(dp149
g138
I44
sg139
F0.014705896377563477
sg140
F7.200241088867188e-05
sg141
I2
sg142
I6
sasS'total_cqs'
p150
I63
ssI12
(dp151
S'iters'
p152
I6
sS'meta'
p153
(lp154
(dp155
S'objective'
p156
I891
sS'query_time'
p157
F0.06949496269226074
sS'comp_time'
p158
F0.00012111663818359375
sS'exec_cq'
p159
I1
sS'total_cq'
p160
I50
sa(dp161
g156
I947
sg157
F0.0454401969909668
sg158
F0.00011014938354492188
sg159
I2
sg160
I44
sa(dp162
g156
I509
sg157
F0.03008890151977539
sg158
F0.00010800361633300781
sg159
I2
sg160
I42
sa(dp163
g156
I334
sg157
F0.07817292213439941
sg158
F0.00010585784912109375
sg159
I2
sg160
I31
sa(dp164
g156
I40
sg157
F0.013172149658203125
sg158
F7.891654968261719e-05
sg159
I1
sg160
I8
sa(dp165
g156
I49
sg157
F0.014361143112182617
sg158
F8.416175842285156e-05
sg159
I2
sg160
I5
sasS'total_cqs'
p166
I50
ssI13
(dp167
S'iters'
p168
I5
sS'meta'
p169
(lp170
(dp171
S'objective'
p172
I112
sS'query_time'
p173
F0.05467391014099121
sS'comp_time'
p174
F0.00011801719665527344
sS'exec_cq'
p175
I1
sS'total_cq'
p176
I20
sa(dp177
g172
I123
sg173
F0.032972097396850586
sg174
F9.989738464355469e-05
sg175
I1
sg176
I15
sa(dp178
g172
I106
sg173
F0.024670124053955078
sg174
F9.202957153320312e-05
sg175
I1
sg176
I14
sa(dp179
g172
I10
sg173
F0.02334284782409668
sg174
F9.202957153320312e-05
sg175
I2
sg176
I13
sa(dp180
g172
I25
sg173
F0.015329837799072266
sg174
F7.700920104980469e-05
sg175
I2
sg176
I5
sasS'total_cqs'
p181
I20
ssI14
(dp182
S'iters'
p183
I2
sS'meta'
p184
(lp185
(dp186
S'objective'
p187
I17
sS'query_time'
p188
F6.754698991775513
sS'comp_time'
p189
F0.00010776519775390625
sS'exec_cq'
p190
I1
sS'total_cq'
p191
I9
sa(dp192
g187
I15
sg188
F0.2977170944213867
sg189
F7.700920104980469e-05
sg190
I1
sg191
I6
sasS'total_cqs'
p193
I9
ssI15
(dp194
S'iters'
p195
I2
sS'meta'
p196
(lp197
(dp198
S'objective'
p199
I16
sS'query_time'
p200
F0.10494709014892578
sS'comp_time'
p201
F7.915496826171875e-05
sS'exec_cq'
p202
I1
sS'total_cq'
p203
I11
sa(dp204
g199
I21
sg200
F0.037513017654418945
sg201
F7.104873657226562e-05
sg202
I1
sg203
I6
sasS'total_cqs'
p205
I11
ssI16
(dp206
S'iters'
p207
I1
sS'meta'
p208
(lp209
(dp210
S'objective'
p211
I22
sS'query_time'
p212
F0.010626077651977539
sS'comp_time'
p213
F8.320808410644531e-05
sS'exec_cq'
p214
I2
sS'total_cq'
p215
I8
sasS'total_cqs'
p216
I8
ssI17
(dp217
S'iters'
p218
I3
sS'meta'
p219
(lp220
(dp221
S'objective'
p222
I44
sS'query_time'
p223
F0.03767895698547363
sS'comp_time'
p224
F8.296966552734375e-05
sS'exec_cq'
p225
I1
sS'total_cq'
p226
I11
sa(dp227
g222
I3
sg223
F0.02646017074584961
sg224
F7.796287536621094e-05
sg225
I1
sg226
I10
sa(dp228
g222
I6
sg223
F0.003376007080078125
sg224
F5.269050598144531e-05
sg225
I1
sg226
I4
sasS'total_cqs'
p229
I11
ssI18
(dp230
S'iters'
p231
I1
sS'meta'
p232
(lp233
(dp234
S'objective'
p235
I46
sS'query_time'
p236
F0.04907798767089844
sS'comp_time'
p237
F8.487701416015625e-05
sS'exec_cq'
p238
I2
sS'total_cq'
p239
I11
sasS'total_cqs'
p240
I11
ssI22
(dp241
S'iters'
p242
I1
sS'meta'
p243
(lp244
(dp245
S'objective'
p246
I141
sS'query_time'
p247
F0.04356694221496582
sS'comp_time'
p248
F8.606910705566406e-05
sS'exec_cq'
p249
I4
sS'total_cq'
p250
I18
sasS'total_cqs'
p251
I18
ssI23
(dp252
S'iters'
p253
I1
sS'meta'
p254
(lp255
(dp256
S'objective'
p257
I110
sS'query_time'
p258
F0.014806032180786133
sS'comp_time'
p259
F9.012222290039062e-05
sS'exec_cq'
p260
I4
sS'total_cq'
p261
I16
sasS'total_cqs'
p262
I16
ssI26
(dp263
S'iters'
p264
I1
sS'meta'
p265
(lp266
(dp267
S'objective'
p268
I837
sS'query_time'
p269
F0.07986688613891602
sS'comp_time'
p270
F0.00015783309936523438
sS'exec_cq'
p271
I10
sS'total_cq'
p272
I42
sasS'total_cqs'
p273
I42
ssI27
(dp274
S'iters'
p275
I3
sS'meta'
p276
(lp277
(dp278
S'objective'
p279
I413
sS'query_time'
p280
F9.846441984176636
sS'comp_time'
p281
F0.0002770423889160156
sS'exec_cq'
p282
I5
sS'total_cq'
p283
I30
sa(dp284
g279
I367
sg280
F2.6353821754455566
sg281
F9.894371032714844e-05
sg282
I6
sg283
I29
sa(dp285
g279
I12
sg280
F1257.307550907135
sg281
F0.00017118453979492188
sg282
I2
sg283
I2
sasS'total_cqs'
p286
I30
ssI29
(dp287
S'iters'
p288
I12
sS'meta'
p289
(lp290
(dp291
S'objective'
p292
I919
sS'query_time'
p293
F1.2693901062011719
sS'comp_time'
p294
F0.0001239776611328125
sS'exec_cq'
p295
I1
sS'total_cq'
p296
I49
sa(dp297
g292
I976
sg293
F0.8447449207305908
sg294
F0.000125885009765625
sg295
I1
sg296
I43
sa(dp298
g292
I786
sg293
F0.5200738906860352
sg294
F0.00011420249938964844
sg295
I1
sg296
I42
sa(dp299
g292
I813
sg293
F1.8336467742919922
sg294
F0.00045299530029296875
sg295
I1
sg296
I38
sa(dp300
g292
I717
sg293
F0.04554891586303711
sg294
F9.608268737792969e-05
sg295
I1
sg296
I37
sa(dp301
g292
I616
sg293
F1.0320820808410645
sg294
F9.298324584960938e-05
sg295
I1
sg296
I35
sa(dp302
g292
I560
sg293
F29.14608407020569
sg294
F0.00024700164794921875
sg295
I1
sg296
I32
sa(dp303
g292
I547
sg293
F3.590833902359009
sg294
F0.00031495094299316406
sg295
I1
sg296
I30
sa(dp304
g292
I443
sg293
F0.6484100818634033
sg294
F0.0001049041748046875
sg295
I1
sg296
I29
sa(dp305
g292
I438
sg293
F0.47393202781677246
sg294
F9.5367431640625e-05
sg295
I1
sg296
I27
sa(dp306
g292
I239
sg293
F0.16865015029907227
sg294
F9.202957153320312e-05
sg295
I1
sg296
I26
sa(dp307
g292
I43
sg293
F0.07429885864257812
sg294
F8.0108642578125e-05
sg295
I1
sg296
I6
sasS'total_cqs'
p308
I49
ssI30
(dp309
S'iters'
p310
I1
sS'meta'
p311
(lp312
(dp313
S'objective'
p314
I1
sS'query_time'
p315
F0.683082103729248
sS'comp_time'
p316
F5.507469177246094e-05
sS'exec_cq'
p317
I1
sS'total_cq'
p318
I2
sasS'total_cqs'
p319
I2
ssI32
(dp320
S'iters'
p321
I1
sS'meta'
p322
(lp323
(dp324
S'objective'
p325
I1
sS'query_time'
p326
F0.16148900985717773
sS'comp_time'
p327
F8.106231689453125e-05
sS'exec_cq'
p328
I1
sS'total_cq'
p329
I2
sasS'total_cqs'
p330
I2
ssI33
(dp331
S'iters'
p332
I7
sS'meta'
p333
(lp334
(dp335
S'objective'
p336
I5098
sS'query_time'
p337
F1.0183639526367188
sS'comp_time'
p338
F0.0001919269561767578
sS'exec_cq'
p339
I1
sS'total_cq'
p340
I103
sa(dp341
g336
I3623
sg337
F0.8636088371276855
sg338
F0.0002231597900390625
sg339
I1
sg340
I101
sa(dp342
g336
I598
sg337
F0.1776599884033203
sg338
F9.894371032714844e-05
sg339
I1
sg340
I16
sa(dp343
g336
I502
sg337
F0.3998260498046875
sg338
F0.0002980232238769531
sg339
I1
sg340
I15
sa(dp344
g336
I45
sg337
F0.2081000804901123
sg338
F9.894371032714844e-05
sg339
I1
sg340
I14
sa(dp345
g336
I100
sg337
F0.13662004470825195
sg338
F9.989738464355469e-05
sg339
I1
sg340
I6
sa(dp346
g336
I69
sg337
F0.03507709503173828
sg338
F6.818771362304688e-05
sg339
I1
sg340
I3
sasS'total_cqs'
p347
I103
ssI34
(dp348
S'iters'
p349
I1
sS'meta'
p350
(lp351
(dp352
S'objective'
p353
I1
sS'query_time'
p354
F0.013896942138671875
sS'comp_time'
p355
F7.390975952148438e-05
sS'exec_cq'
p356
I1
sS'total_cq'
p357
I2
sasS'total_cqs'
p358
I2
ssI35
(dp359
S'iters'
p360
I7
sS'meta'
p361
(lp362
(dp363
S'objective'
p364
I1909
sS'query_time'
p365
F0.8748040199279785
sS'comp_time'
p366
F0.0001392364501953125
sS'exec_cq'
p367
I2
sS'total_cq'
p368
I70
sa(dp369
g364
I2055
sg365
F17.03856086730957
sg366
F0.00036406517028808594
sg367
I2
sg368
I61
sa(dp370
g364
I1846
sg365
F0.3380618095397949
sg366
F0.00019288063049316406
sg367
I2
sg368
I59
sa(dp371
g364
I1700
sg365
F3.2851779460906982
sg366
F0.00016307830810546875
sg367
I2
sg368
I55
sa(dp372
g364
I1381
sg365
F3.288719892501831
sg366
F0.0001277923583984375
sg367
I5
sg368
I52
sa(dp373
g364
I11
sg365
F0.06860113143920898
sg366
F0.00013518333435058594
sg367
I1
sg368
I6
sa(dp374
g364
I13
sg365
F0.07181906700134277
sg366
F8.893013000488281e-05
sg367
I1
sg368
I4
sasS'total_cqs'
p375
I70
ssI36
(dp376
S'iters'
p377
I2
sS'meta'
p378
(lp379
(dp380
S'objective'
p381
I497
sS'query_time'
p382
F0.05065584182739258
sS'comp_time'
p383
F0.00010776519775390625
sS'exec_cq'
p384
I2
sS'total_cq'
p385
I33
sa(dp386
g381
I477
sg382
F0.08303213119506836
sg383
F0.00010085105895996094
sg384
I7
sg385
I32
sasS'total_cqs'
p387
I33
ssI37
(dp388
S'iters'
p389
I1
sS'meta'
p390
(lp391
(dp392
S'objective'
p393
I1
sS'query_time'
p394
F0.008335113525390625
sS'comp_time'
p395
F8.821487426757812e-05
sS'exec_cq'
p396
I1
sS'total_cq'
p397
I2
sasS'total_cqs'
p398
I2
ssI38
(dp399
S'iters'
p400
I2
sS'meta'
p401
(lp402
(dp403
S'objective'
p404
I4
sS'query_time'
p405
F0.015470027923583984
sS'comp_time'
p406
F7.319450378417969e-05
sS'exec_cq'
p407
I1
sS'total_cq'
p408
I4
sa(dp409
g404
I1
sg405
F0.005953073501586914
sg406
F6.127357482910156e-05
sg407
I1
sg408
I3
sasS'total_cqs'
p410
I4
ssI39
(dp411
S'iters'
p412
I3
sS'meta'
p413
(lp414
(dp415
S'objective'
p416
I568
sS'query_time'
p417
F0.04596710205078125
sS'comp_time'
p418
F0.00010991096496582031
sS'exec_cq'
p419
I3
sS'total_cq'
p420
I44
sa(dp421
g416
I127
sg417
F0.016861915588378906
sg418
F7.104873657226562e-05
sg419
I2
sg420
I8
sa(dp422
g416
I101
sg417
F0.041602134704589844
sg418
F7.700920104980469e-05
sg419
I2
sg420
I7
sasS'total_cqs'
p423
I44
ssI40
(dp424
S'iters'
p425
I1
sS'meta'
p426
(lp427
(dp428
S'objective'
p429
I14
sS'query_time'
p430
F0.014434099197387695
sS'comp_time'
p431
F0.000102996826171875
sS'exec_cq'
p432
I1
sS'total_cq'
p433
I7
sasS'total_cqs'
p434
I7
ssI41
(dp435
S'iters'
p436
I1
sS'meta'
p437
(lp438
(dp439
S'objective'
p440
I58
sS'query_time'
p441
F0.021055936813354492
sS'comp_time'
p442
F9.012222290039062e-05
sS'exec_cq'
p443
I3
sS'total_cq'
p444
I12
sasS'total_cqs'
p445
I12
ssI42
(dp446
S'iters'
p447
I3
sS'meta'
p448
(lp449
(dp450
S'objective'
p451
I783
sS'query_time'
p452
F0.028839111328125
sS'comp_time'
p453
F0.00011014938354492188
sS'exec_cq'
p454
I3
sS'total_cq'
p455
I41
sa(dp456
g451
I754
sg452
F0.02716517448425293
sg453
F9.632110595703125e-05
sg454
I7
sg455
I40
sa(dp457
g451
I724
sg452
F0.023576021194458008
sg453
F0.00016999244689941406
sg454
I8
sg455
I39
sasS'total_cqs'
p458
I41
ssI43
(dp459
S'iters'
p460
I1
sS'meta'
p461
(lp462
(dp463
S'objective'
p464
I14
sS'query_time'
p465
F0.012997150421142578
sS'comp_time'
p466
F7.987022399902344e-05
sS'exec_cq'
p467
I1
sS'total_cq'
p468
I7
sasS'total_cqs'
p469
I7
ssI44
(dp470
S'iters'
p471
I4
sS'meta'
p472
(lp473
(dp474
S'objective'
p475
I718
sS'query_time'
p476
F0.04818105697631836
sS'comp_time'
p477
F0.00011587142944335938
sS'exec_cq'
p478
I4
sS'total_cq'
p479
I47
sa(dp480
g475
I737
sg476
F0.03868293762207031
sg477
F0.0001239776611328125
sg478
I9
sg479
I40
sa(dp481
g475
I33
sg476
F0.0028820037841796875
sg477
F8.082389831542969e-05
sg478
I1
sg479
I3
sa(dp482
g475
I11
sg476
F0.02568197250366211
sg477
F8.0108642578125e-05
sg478
I2
sg479
I2
sasS'total_cqs'
p483
I47
ssI46
(dp484
S'iters'
p485
I1
sS'meta'
p486
(lp487
(dp488
S'objective'
p489
I9
sS'query_time'
p490
F0.005670070648193359
sS'comp_time'
p491
F6.270408630371094e-05
sS'exec_cq'
p492
I1
sS'total_cq'
p493
I6
sasS'total_cqs'
p494
I6
ssI47
(dp495
S'iters'
p496
I1
sS'meta'
p497
(lp498
(dp499
S'objective'
p500
I1
sS'query_time'
p501
F0.006525993347167969
sS'comp_time'
p502
F6.818771362304688e-05
sS'exec_cq'
p503
I1
sS'total_cq'
p504
I2
sasS'total_cqs'
p505
I2
ssI50
(dp506
S'iters'
p507
I1
sS'meta'
p508
(lp509
(dp510
S'objective'
p511
I5
sS'query_time'
p512
F0.0050830841064453125
sS'comp_time'
p513
F7.200241088867188e-05
sS'exec_cq'
p514
I1
sS'total_cq'
p515
I5
sasS'total_cqs'
p516
I5
ssI51
(dp517
S'iters'
p518
I1
sS'meta'
p519
(lp520
(dp521
S'objective'
p522
I1
sS'query_time'
p523
F0.10228514671325684
sS'comp_time'
p524
F8.916854858398438e-05
sS'exec_cq'
p525
I1
sS'total_cq'
p526
I2
sasS'total_cqs'
p527
I2
ssI52
(dp528
S'iters'
p529
I1
sS'meta'
p530
(lp531
(dp532
S'objective'
p533
I1
sS'query_time'
p534
F0.10132813453674316
sS'comp_time'
p535
F8.988380432128906e-05
sS'exec_cq'
p536
I1
sS'total_cq'
p537
I2
sasS'total_cqs'
p538
I2
ssI53
(dp539
S'iters'
p540
I1
sS'meta'
p541
(lp542
(dp543
S'objective'
p544
I2
sS'query_time'
p545
F0.012992143630981445
sS'comp_time'
p546
F6.508827209472656e-05
sS'exec_cq'
p547
I1
sS'total_cq'
p548
I4
sasS'total_cqs'
p549
I4
ssI54
(dp550
S'iters'
p551
I2
sS'meta'
p552
(lp553
(dp554
S'objective'
p555
I0
sS'query_time'
p556
F0.005164146423339844
sS'comp_time'
p557
F6.365776062011719e-05
sS'exec_cq'
p558
I1
sS'total_cq'
p559
I3
sa(dp560
g555
I1
sg556
F0.005555868148803711
sg557
F7.009506225585938e-05
sg558
I1
sg559
I2
sasS'total_cqs'
p561
I3
ssI55
(dp562
S'iters'
p563
I8
sS'meta'
p564
(lp565
(dp566
S'objective'
p567
I5633
sS'query_time'
p568
F0.18116998672485352
sS'comp_time'
p569
F0.0001518726348876953
sS'exec_cq'
p570
I1
sS'total_cq'
p571
I109
sa(dp572
g567
I4810
sg568
F0.2327120304107666
sg569
F0.00017309188842773438
sg570
I6
sg571
I107
sa(dp573
g567
I5112
sg568
F0.1673290729522705
sg569
F0.0001537799835205078
sg570
I7
sg571
I98
sa(dp574
g567
I4792
sg568
F0.20723295211791992
sg569
F0.00017905235290527344
sg570
I10
sg571
I97
sa(dp575
g567
I4670
sg568
F0.17739200592041016
sg569
F0.00020599365234375
sg570
I12
sg571
I93
sa(dp576
g567
I4664
sg568
F0.12127113342285156
sg569
F0.0001819133758544922
sg570
I17
sg571
I89
sa(dp577
g567
I4542
sg568
F0.10890793800354004
sg569
F0.00018715858459472656
sg570
I19
sg571
I88
sa(dp578
g567
I62
sg568
F0.003545045852661133
sg569
F6.222724914550781e-05
sg570
I1
sg571
I2
sasS'total_cqs'
p579
I109
ssI56
(dp580
S'iters'
p581
I9
sS'meta'
p582
(lp583
(dp584
S'objective'
p585
I2488
sS'query_time'
p586
F0.4819300174713135
sS'comp_time'
p587
F0.00015306472778320312
sS'exec_cq'
p588
I1
sS'total_cq'
p589
I76
sa(dp590
g585
I2557
sg586
F0.3717951774597168
sg587
F0.00015211105346679688
sg588
I1
sg589
I72
sa(dp591
g585
I2486
sg586
F0.24606108665466309
sg587
F0.0001609325408935547
sg588
I2
sg589
I71
sa(dp592
g585
I2415
sg586
F0.8946521282196045
sg587
F0.00013709068298339844
sg588
I2
sg589
I70
sa(dp593
g585
I2345
sg586
F0.40273308753967285
sg587
F0.0014529228210449219
sg588
I2
sg589
I69
sa(dp594
g585
I2280
sg586
F0.09990692138671875
sg587
F0.0001399517059326172
sg588
I4
sg589
I68
sa(dp595
g585
I2134
sg586
F0.3065910339355469
sg587
F0.00013208389282226562
sg588
I9
sg589
I67
sa(dp596
g585
I2121
sg586
F0.17958903312683105
sg587
F0.00014400482177734375
sg588
I9
sg589
I65
sa(dp597
g585
I2065
sg586
F0.11282181739807129
sg587
F0.0001270771026611328
sg588
I10
sg589
I64
sasS'total_cqs'
p598
I76
ssI57
(dp599
S'iters'
p600
I4
sS'meta'
p601
(lp602
(dp603
S'objective'
p604
I490
sS'query_time'
p605
F0.36789989471435547
sS'comp_time'
p606
F0.0001289844512939453
sS'exec_cq'
p607
I1
sS'total_cq'
p608
I51
sa(dp609
g604
I164
sg605
F0.2934989929199219
sg606
F9.274482727050781e-05
sg607
I1
sg608
I13
sa(dp610
g604
I111
sg605
F0.7495980262756348
sg606
F0.00012683868408203125
sg607
I1
sg608
I9
sa(dp611
g604
I10
sg605
F0.0697479248046875
sg606
F7.677078247070312e-05
sg607
I1
sg608
I2
sasS'total_cqs'
p612
I51
ssI58
(dp613
S'iters'
p614
I11
sS'meta'
p615
(lp616
(dp617
S'objective'
p618
I112261
sS'query_time'
p619
F2.548720121383667
sS'comp_time'
p620
F0.0005929470062255859
sS'exec_cq'
p621
I4
sS'total_cq'
p622
I486
sa(dp623
g618
I103147
sg619
F1.9003751277923584
sg620
F0.0004928112030029297
sg621
I4
sg622
I474
sa(dp624
g618
I107122
sg619
F2.6093990802764893
sg620
F0.003242969512939453
sg621
I6
sg622
I447
sa(dp625
g618
I105839
sg619
F2.2846450805664062
sg620
F0.00043010711669921875
sg621
I7
sg622
I442
sa(dp626
g618
I105568
sg619
F1.4478881359100342
sg620
F0.0007009506225585938
sg621
I11
sg622
I437
sa(dp627
g618
I96235
sg619
F1.7935230731964111
sg620
F0.0004220008850097656
sg621
I15
sg622
I435
sa(dp628
g618
I4092
sg619
F0.38016295433044434
sg620
F9.870529174804688e-05
sg621
I1
sg622
I22
sa(dp629
g618
I3683
sg619
F1.014556884765625
sg620
F9.894371032714844e-05
sg621
I1
sg622
I21
sa(dp630
g618
I2057
sg619
F0.3642590045928955
sg620
F0.0001780986785888672
sg621
I1
sg622
I20
sa(dp631
g618
I1031
sg619
F1.0331709384918213
sg620
F9.799003601074219e-05
sg621
I1
sg622
I16
sa(dp632
g618
I1328
sg619
F0.1032109260559082
sg620
F9.870529174804688e-05
sg621
I1
sg622
I11
sasS'total_cqs'
p633
I486
ssI59
(dp634
S'iters'
p635
I2
sS'meta'
p636
(lp637
(dp638
S'objective'
p639
I10
sS'query_time'
p640
F0.017579078674316406
sS'comp_time'
p641
F7.82012939453125e-05
sS'exec_cq'
p642
I1
sS'total_cq'
p643
I7
sa(dp644
g639
I5
sg640
F0.03465986251831055
sg641
F7.796287536621094e-05
sg642
I2
sg643
I2
sasS'total_cqs'
p645
I7
ssI60
(dp646
S'iters'
p647
I1
sS'meta'
p648
(lp649
(dp650
S'objective'
p651
I5
sS'query_time'
p652
F0.005369901657104492
sS'comp_time'
p653
F6.508827209472656e-05
sS'exec_cq'
p654
I1
sS'total_cq'
p655
I5
sasS'total_cqs'
p656
I5
ssI62
(dp657
S'iters'
p658
I1
sS'meta'
p659
(lp660
(dp661
S'objective'
p662
I58
sS'query_time'
p663
F0.011377811431884766
sS'comp_time'
p664
F7.772445678710938e-05
sS'exec_cq'
p665
I3
sS'total_cq'
p666
I12
sasS'total_cqs'
p667
I12
ssI64
(dp668
S'iters'
p669
I5
sS'meta'
p670
(lp671
(dp672
S'objective'
p673
I54
sS'query_time'
p674
F0.04384207725524902
sS'comp_time'
p675
F7.915496826171875e-05
sS'exec_cq'
p676
I1
sS'total_cq'
p677
I12
sa(dp678
g673
I32
sg674
F0.039103031158447266
sg675
F7.796287536621094e-05
sg676
I1
sg677
I11
sa(dp679
g673
I5
sg674
F0.02180790901184082
sg675
F8.20159912109375e-05
sg676
I1
sg677
I9
sa(dp680
g673
I4
sg674
F0.01065206527709961
sg675
F0.00010514259338378906
sg676
I1
sg677
I3
sa(dp681
g673
I7
sg674
F0.01061701774597168
sg675
F8.416175842285156e-05
sg676
I1
sg677
I2
sasS'total_cqs'
p682
I12
ssI65
(dp683
S'iters'
p684
I4
sS'meta'
p685
(lp686
(dp687
S'objective'
p688
I324
sS'query_time'
p689
F0.046636104583740234
sS'comp_time'
p690
F0.00010704994201660156
sS'exec_cq'
p691
I1
sS'total_cq'
p692
I27
sa(dp693
g688
I237
sg689
F0.07378101348876953
sg690
F0.00010991096496582031
sg691
I2
sg692
I26
sa(dp694
g688
I220
sg689
F0.09106183052062988
sg690
F0.00011801719665527344
sg691
I2
sg692
I23
sa(dp695
g688
I213
sg689
F0.02059197425842285
sg690
F9.298324584960938e-05
sg691
I2
sg692
I21
sasS'total_cqs'
p696
I27
ssI67
(dp697
S'iters'
p698
I2
sS'meta'
p699
(lp700
(dp701
S'objective'
p702
I560
sS'query_time'
p703
F0.6041359901428223
sS'comp_time'
p704
F0.00011587142944335938
sS'exec_cq'
p705
I1
sS'total_cq'
p706
I35
sa(dp707
g702
I539
sg703
F0.5224080085754395
sg704
F9.679794311523438e-05
sg705
I7
sg706
I34
sasS'total_cqs'
p708
I35
ssI69
(dp709
S'iters'
p710
I1
sS'meta'
p711
(lp712
(dp713
S'objective'
p714
I1246
sS'query_time'
p715
F0.10118508338928223
sS'comp_time'
p716
F0.00013589859008789062
sS'exec_cq'
p717
I12
sS'total_cq'
p718
I51
sasS'total_cqs'
p719
I51
ssI70
(dp720
S'iters'
p721
I1
sS'meta'
p722
(lp723
(dp724
S'objective'
p725
I9
sS'query_time'
p726
F0.01099705696105957
sS'comp_time'
p727
F8.0108642578125e-05
sS'exec_cq'
p728
I1
sS'total_cq'
p729
I6
sasS'total_cqs'
p730
I6
ssI71
(dp731
S'iters'
p732
I4
sS'meta'
p733
(lp734
(dp735
S'objective'
p736
I3499
sS'query_time'
p737
F0.10415101051330566
sS'comp_time'
p738
F0.00015306472778320312
sS'exec_cq'
p739
I8
sS'total_cq'
p740
I85
sa(dp741
g736
I3433
sg737
F0.07554101943969727
sg738
F0.00014328956604003906
sg739
I13
sg740
I84
sa(dp742
g736
I3227
sg737
F0.07793807983398438
sg738
F0.00020885467529296875
sg739
I18
sg740
I83
sa(dp743
g736
I3236
sg737
F0.05115222930908203
sg738
F0.0001480579376220703
sg739
I18
sg740
I80
sasS'total_cqs'
p744
I85
ssI72
(dp745
S'iters'
p746
I2
sS'meta'
p747
(lp748
(dp749
S'objective'
p750
I10
sS'query_time'
p751
F0.1608750820159912
sS'comp_time'
p752
F8.797645568847656e-05
sS'exec_cq'
p753
I1
sS'total_cq'
p754
I8
sa(dp755
g750
I9
sg751
F0.007679939270019531
sg752
F6.508827209472656e-05
sg753
I1
sg754
I6
sasS'total_cqs'
p756
I8
ssI75
(dp757
S'iters'
p758
I1
sS'meta'
p759
(lp760
(dp761
S'objective'
p762
I5
sS'query_time'
p763
F0.004416942596435547
sS'comp_time'
p764
F6.008148193359375e-05
sS'exec_cq'
p765
I1
sS'total_cq'
p766
I5
sasS'total_cqs'
p767
I5
ssI76
(dp768
S'iters'
p769
I1
sS'meta'
p770
(lp771
(dp772
S'objective'
p773
I1
sS'query_time'
p774
F0.008877992630004883
sS'comp_time'
p775
F5.5789947509765625e-05
sS'exec_cq'
p776
I1
sS'total_cq'
p777
I2
sasS'total_cqs'
p778
I2
ssI103
(dp779
S'iters'
p780
I1
sS'meta'
p781
(lp782
(dp783
S'objective'
p784
I58
sS'query_time'
p785
F0.03544116020202637
sS'comp_time'
p786
F8.273124694824219e-05
sS'exec_cq'
p787
I3
sS'total_cq'
p788
I12
sasS'total_cqs'
p789
I12
ssI104
(dp790
S'iters'
p791
I1
sS'meta'
p792
(lp793
(dp794
S'objective'
p795
I2
sS'query_time'
p796
F1.2701919078826904
sS'comp_time'
p797
F6.794929504394531e-05
sS'exec_cq'
p798
I1
sS'total_cq'
p799
I4
sasS'total_cqs'
p800
I4
ssI106
(dp801
S'iters'
p802
I1
sS'meta'
p803
(lp804
(dp805
S'objective'
p806
I2
sS'query_time'
p807
F0.019377946853637695
sS'comp_time'
p808
F7.081031799316406e-05
sS'exec_cq'
p809
I1
sS'total_cq'
p810
I4
sasS'total_cqs'
p811
I4
ssI107
(dp812
S'iters'
p813
I2
sS'meta'
p814
(lp815
(dp816
S'objective'
p817
I56
sS'query_time'
p818
F0.02424001693725586
sS'comp_time'
p819
F7.104873657226562e-05
sS'exec_cq'
p820
I2
sS'total_cq'
p821
I16
sa(dp822
g817
I14
sg818
F0.030156850814819336
sg819
F5.4836273193359375e-05
sg820
I2
sg821
I3
sasS'total_cqs'
p823
I16
ss.