(dp0
I1
(dp1
S'iters'
p2
I2
sS'meta'
p3
(lp4
(dp5
S'objective'
p6
I10
sS'query_time'
p7
F4.506111145019531e-05
sS'total_cq'
p8
I12
sS'comp_time'
p9
F0.05383419990539551
sa(dp10
g6
I9
sg7
F7.295608520507812e-05
sg8
I11
sg9
F0.007230043411254883
sasS'total_cqs'
p11
I12
ssI2
(dp12
g2
I10
sg3
(lp13
(dp14
g6
I23
sg7
F0.0020661354064941406
sg8
I27
sg9
F6.20097279548645
sa(dp15
g6
I23
sg7
F0.012192964553833008
sg8
I25
sg9
F6.325806140899658
sa(dp16
g6
I18
sg7
F0.007994890213012695
sg8
I24
sg9
F0.020061731338500977
sa(dp17
g6
I17
sg7
F0.0017919540405273438
sg8
I21
sg9
F0.014021873474121094
sa(dp18
g6
I17
sg7
F0.0049419403076171875
sg8
I19
sg9
F4.7124552726745605
sa(dp19
g6
I16
sg7
F0.00598907470703125
sg8
I18
sg9
F0.012907028198242188
sa(dp20
g6
I13
sg7
F0.004950046539306641
sg8
I17
sg9
F0.007409811019897461
sa(dp21
g6
I13
sg7
F0.00400996208190918
sg8
I15
sg9
F2.23935604095459
sa(dp22
g6
I12
sg7
F0.004900932312011719
sg8
I14
sg9
F2.3878109455108643
sa(dp23
g6
I11
sg7
F0.0018160343170166016
sg8
I13
sg9
F2.2708699703216553
sasg11
I27
ssI3
(dp24
g2
I6
sg3
(lp25
(dp26
g6
I39
sg7
F28.421478033065796
sg8
I43
sg9
F2.2798049449920654
sa(dp27
g6
I29
sg7
F3.899744987487793
sg8
I41
sg9
F2.9366531372070312
sa(dp28
g6
I7
sg7
F24.08239197731018
sg8
I35
sg9
F2.986738920211792
sa(dp29
g6
I1
sg7
F26.528602123260498
sg8
I21
sg9
F1.1685068607330322
sa(dp30
g6
I4
sg7
F15.262415885925293
sg8
I10
sg9
F0.17361187934875488
sa(dp31
g6
I5
sg7
F0.0010869503021240234
sg8
I7
sg9
F0.008023738861083984
sasg11
I43
ssI4
(dp32
g2
I1
sg3
(lp33
(dp34
g6
I9
sg7
F0.0033309459686279297
sg8
I11
sg9
F0.006471872329711914
sasg11
I11
ssI5
(dp35
g2
I5
sg3
(lp36
(dp37
g6
I6
sg7
F0.006253957748413086
sg8
I8
sg9
F0.029062747955322266
sa(dp38
g6
I1
sg7
F0.44599485397338867
sg8
I7
sg9
F0.04172110557556152
sa(dp39
g6
I2
sg7
F0.5793399810791016
sg8
I4
sg9
F0.027923107147216797
sa(dp40
g6
I1
sg7
F5.258645057678223
sg8
I3
sg9
F0.03885602951049805
sa(dp41
g6
I0
sg7
F0.25597405433654785
sg8
I2
sg9
F0.020536184310913086
sasg11
I8
ssI6
(dp42
g2
I4
sg3
(lp43
(dp44
g6
I8
sg7
F0.7458231449127197
sg8
I18
sg9
F0.19153714179992676
sa(dp45
g6
I11
sg7
F0.5177590847015381
sg8
I13
sg9
F0.22252416610717773
sa(dp46
g6
I10
sg7
F0.0036101341247558594
sg8
I12
sg9
F0.041105031967163086
sa(dp47
g6
I9
sg7
F0.39495086669921875
sg8
I11
sg9
F0.06386709213256836
sasg11
I18
ssI7
(dp48
g2
I5
sg3
(lp49
(dp50
g6
I7
sg7
F0.08980107307434082
sg8
I9
sg9
F0.021795988082885742
sa(dp51
g6
I2
sg7
F1.0215158462524414
sg8
I8
sg9
F0.0354762077331543
sa(dp52
g6
I3
sg7
F0.07868504524230957
sg8
I5
sg9
F0.02874588966369629
sa(dp53
g6
I2
sg7
F3.0193121433258057
sg8
I4
sg9
F0.0348360538482666
sa(dp54
g6
I1
sg7
F0.1650218963623047
sg8
I3
sg9
F0.0030977725982666016
sasg11
I9
ssI8
(dp55
g2
I6
sg3
(lp56
(dp57
g6
I17
sg7
F0.0013959407806396484
sg8
I27
sg9
F0.0290679931640625
sa(dp58
g6
I20
sg7
F0.00304412841796875
sg8
I22
sg9
F0.01906895637512207
sa(dp59
g6
I17
sg7
F0.003667116165161133
sg8
I21
sg9
F3.698276996612549
sa(dp60
g6
I2
sg7
F2.288818359375e-05
sg8
I2
sg9
F0.0018949508666992188
sa(dp61
g6
I2
sg7
F4.00543212890625e-05
sg8
I2
sg9
F0.00191497802734375
sa(dp62
g6
I0
sg7
F0.009047985076904297
sg8
I2
sg9
F0.0008718967437744141
sasg11
I27
ssI9
(dp63
g2
I3
sg3
(lp64
(dp65
g6
I1
sg7
F0.007295131683349609
sg8
I7
sg9
F0.008677005767822266
sa(dp66
g6
I0
sg7
F0.0015201568603515625
sg8
I4
sg9
F0.004333019256591797
sa(dp67
g6
I0
sg7
F0.0027129650115966797
sg8
I2
sg9
F0.00011181831359863281
sasg11
I7
ssI10
(dp68
g2
I12
sg3
(lp69
(dp70
g6
I45
sg7
F4.7206878662109375e-05
sg8
I51
sg9
F0.07076787948608398
sa(dp71
g6
I22
sg7
F2.7894973754882812e-05
sg8
I48
sg9
F0.06643104553222656
sa(dp72
g6
I19
sg7
F3.1948089599609375e-05
sg8
I35
sg9
F5.922680139541626
sa(dp73
g6
I23
sg7
F3.218650817871094e-05
sg8
I27
sg9
F0.03146791458129883
sa(dp74
g6
I15
sg7
F3.600120544433594e-05
sg8
I25
sg9
F5.0596160888671875
sa(dp75
g6
I14
sg7
F0.00021409988403320312
sg8
I20
sg9
F0.015558242797851562
sa(dp76
g6
I13
sg7
F6.413459777832031e-05
sg8
I17
sg9
F2.0769500732421875
sa(dp77
g6
I2
sg7
F5.0067901611328125e-05
sg8
I2
sg9
F0.0014917850494384766
sa(dp78
g6
I2
sg7
F2.4080276489257812e-05
sg8
I2
sg9
F0.0008947849273681641
sa(dp79
g6
I2
sg7
F2.002716064453125e-05
sg8
I2
sg9
F0.001271963119506836
sa(dp80
g6
I2
sg7
F3.0994415283203125e-05
sg8
I2
sg9
F0.0009348392486572266
sa(dp81
g6
I0
sg7
F8.177757263183594e-05
sg8
I2
sg9
F0.0008232593536376953
sasg11
I51
ssI11
(dp82
g2
I14
sg3
(lp83
(dp84
g6
I59
sg7
F3.0040740966796875e-05
sg8
I63
sg9
F0.16597700119018555
sa(dp85
g6
I29
sg7
F0.0014641284942626953
sg8
I61
sg9
F0.08291816711425781
sa(dp86
g6
I43
sg7
F3.0040740966796875e-05
sg8
I45
sg9
F0.08146786689758301
sa(dp87
g6
I32
sg7
F0.0021200180053710938
sg8
I44
sg9
F0.09456205368041992
sa(dp88
g6
I36
sg7
F3.504753112792969e-05
sg8
I38
sg9
F0.08714103698730469
sa(dp89
g6
I35
sg7
F0.0012061595916748047
sg8
I37
sg9
F0.0360417366027832
sa(dp90
g6
I32
sg7
F0.011034965515136719
sg8
I36
sg9
F0.07495307922363281
sa(dp91
g6
I32
sg7
F0.015558958053588867
sg8
I34
sg9
F0.07234668731689453
sa(dp92
g6
I31
sg7
F0.0035321712493896484
sg8
I33
sg9
F0.10675883293151855
sa(dp93
g6
I30
sg7
F3.0994415283203125e-05
sg8
I32
sg9
F0.07852315902709961
sa(dp94
g6
I25
sg7
F0.001275777816772461
sg8
I31
sg9
F0.03414297103881836
sa(dp95
g6
I1
sg7
F3.790855407714844e-05
sg8
I3
sg9
F0.0017478466033935547
sa(dp96
g6
I2
sg7
F2.9802322387695312e-05
sg8
I2
sg9
F0.0012292861938476562
sa(dp97
g6
I0
sg7
F2.5987625122070312e-05
sg8
I2
sg9
F0.0008900165557861328
sasg11
I63
ssI12
(dp98
g2
I10
sg3
(lp99
(dp100
g6
I36
sg7
F2.47955322265625e-05
sg8
I50
sg9
F14.002735137939453
sa(dp101
g6
I35
sg7
F0.000186920166015625
sg8
I43
sg9
F0.043128013610839844
sa(dp102
g6
I35
sg7
F3.409385681152344e-05
sg8
I39
sg9
F0.0689840316772461
sa(dp103
g6
I29
sg7
F0.00011610984802246094
sg8
I37
sg9
F10.882420063018799
sa(dp104
g6
I29
sg7
F5.2928924560546875e-05
sg8
I33
sg9
F9.08870792388916
sa(dp105
g6
I29
sg7
F5.698204040527344e-05
sg8
I31
sg9
F10.708028078079224
sa(dp106
g6
I24
sg7
F6.508827209472656e-05
sg8
I30
sg9
F0.03696131706237793
sa(dp107
g6
I23
sg7
F5.1975250244140625e-05
sg8
I27
sg9
F0.03411078453063965
sa(dp108
g6
I2
sg7
F3.600120544433594e-05
sg8
I2
sg9
F0.0012929439544677734
sa(dp109
g6
I0
sg7
F2.5033950805664062e-05
sg8
I2
sg9
F0.0008828639984130859
sasg11
I50
ssI13
(dp110
g2
I5
sg3
(lp111
(dp112
g6
I2
sg7
F0.003556966781616211
sg8
I20
sg9
F0.031427860260009766
sa(dp113
g6
I5
sg7
F0.0011930465698242188
sg8
I9
sg9
F0.009132146835327148
sa(dp114
g6
I2
sg7
F0.0033941268920898438
sg8
I2
sg9
F0.0010211467742919922
sa(dp115
g6
I2
sg7
F1.9788742065429688e-05
sg8
I2
sg9
F0.0008180141448974609
sa(dp116
g6
I0
sg7
F2.002716064453125e-05
sg8
I2
sg9
F0.0010797977447509766
sasg11
I20
ssI14
(dp117
g2
I3
sg3
(lp118
(dp119
g6
I5
sg7
F9.997004985809326
sg8
I9
sg9
F0.04620480537414551
sa(dp120
g6
I1
sg7
F0.5049929618835449
sg8
I7
sg9
F0.04757976531982422
sa(dp121
g6
I1
sg7
F0.2710080146789551
sg8
I3
sg9
F0.0017011165618896484
sasg11
I9
ssI15
(dp122
g2
I4
sg3
(lp123
(dp124
g6
I7
sg7
F0.605950117111206
sg8
I11
sg9
F0.029840946197509766
sa(dp125
g6
I7
sg7
F0.00144195556640625
sg8
I9
sg9
F0.00886988639831543
sa(dp126
g6
I4
sg7
F0.032193899154663086
sg8
I8
sg9
F0.012847900390625
sa(dp127
g6
I0
sg7
F0.6347789764404297
sg8
I2
sg9
F0.005363941192626953
sasg11
I11
ssI16
(dp128
g2
I1
sg3
(lp129
(dp130
g6
I6
sg7
F0.008188009262084961
sg8
I8
sg9
F0.0001380443572998047
sasg11
I8
ssI17
(dp131
g2
I4
sg3
(lp132
(dp133
g6
I7
sg7
F0.14971184730529785
sg8
I11
sg9
F0.025068283081054688
sa(dp134
g6
I5
sg7
F0.0226438045501709
sg8
I9
sg9
F0.011998891830444336
sa(dp135
g6
I3
sg7
F0.001360177993774414
sg8
I7
sg9
F0.008486747741699219
sa(dp136
g6
I3
sg7
F0.013667106628417969
sg8
I5
sg9
F0.0032410621643066406
sasg11
I11
ssI18
(dp137
g2
I1
sg3
(lp138
(dp139
g6
I9
sg7
F0.005713939666748047
sg8
I11
sg9
F0.009961128234863281
sasg11
I11
ssI19
(dp140
g2
I0
sg3
(lp141
sg11
I1
ssI20
(dp142
g2
I0
sg3
(lp143
sg11
I1
ssI21
(dp144
g2
I0
sg3
(lp145
sg11
I1
ssI22
(dp146
g2
I1
sg3
(lp147
(dp148
g6
I16
sg7
F0.013989925384521484
sg8
I18
sg9
F0.009636163711547852
sasg11
I18
ssI23
(dp149
g2
I2
sg3
(lp150
(dp151
g6
I12
sg7
F0.001986980438232422
sg8
I16
sg9
F29.355968952178955
sa(dp152
g6
I12
sg7
F0.011591196060180664
sg8
I14
sg9
F0.007074117660522461
sasg11
I16
ssI24
(dp153
g2
I0
sg3
(lp154
sg11
I1
ssI25
(dp155
g2
I0
sg3
(lp156
sg11
I1
ssI26
(dp157
g2
I1
sg3
(lp158
(dp159
g6
I40
sg7
F0.055612802505493164
sg8
I42
sg9
F0.003307819366455078
sasg11
I42
ssI27
(dp160
g2
I7
sg3
(lp161
(dp162
g6
I26
sg7
F0.009858131408691406
sg8
I30
sg9
F0.4733428955078125
sa(dp163
g6
I26
sg7
F7.678226947784424
sg8
I28
sg9
F0.45737504959106445
sa(dp164
g6
I25
sg7
F0.0023980140686035156
sg8
I27
sg9
F0.435941219329834
sa(dp165
g6
I24
sg7
F0.8741719722747803
sg8
I26
sg9
F0.5780179500579834
sa(dp166
g6
I23
sg7
F0.08156108856201172
sg8
I25
sg9
F0.42606115341186523
sa(dp167
g6
I22
sg7
F0.007740020751953125
sg8
I24
sg9
F0.23154497146606445
sa(dp168
g6
I21
sg7
F1.8949909210205078
sg8
I23
sg9
F0.03252220153808594
sasg11
I30
ssI28
(dp169
g2
I0
sg3
(lp170
sg11
I1
ssI29
(dp171
g2
I12
sg3
(lp172
(dp173
g6
I47
sg7
F30.43673300743103
sg8
I49
sg9
F0.05381608009338379
sa(dp174
g6
I46
sg7
F2.24455189704895
sg8
I48
sg9
F0.05367088317871094
sa(dp175
g6
I41
sg7
F1.3165371417999268
sg8
I47
sg9
F0.30719995498657227
sa(dp176
g6
I28
sg7
F0.029217004776000977
sg8
I44
sg9
F0.22719097137451172
sa(dp177
g6
I34
sg7
F0.7200698852539062
sg8
I36
sg9
F0.2597920894622803
sa(dp178
g6
I31
sg7
F0.6219809055328369
sg8
I35
sg9
F0.07950782775878906
sa(dp179
g6
I9
sg7
F0.2889399528503418
sg8
I33
sg9
F0.12120699882507324
sa(dp180
g6
I6
sg7
F0.17436599731445312
sg8
I12
sg9
F0.09230494499206543
sa(dp181
g6
I3
sg7
F0.321850061416626
sg8
I9
sg9
F0.09903311729431152
sa(dp182
g6
I2
sg7
F0.29479312896728516
sg8
I6
sg9
F0.05722379684448242
sa(dp183
g6
I2
sg7
F0.2922329902648926
sg8
I4
sg9
F0.03621530532836914
sa(dp184
g6
I1
sg7
F0.08031582832336426
sg8
I3
sg9
F0.02070307731628418
sasg11
I49
ssI30
(dp185
g2
I1
sg3
(lp186
(dp187
g6
I0
sg7
F0.38486504554748535
sg8
I2
sg9
F0.016083955764770508
sasg11
I2
ssI31
(dp188
g2
I0
sg3
(lp189
sg11
I1
ssI32
(dp190
g2
I1
sg3
(lp191
(dp192
g6
I0
sg7
F4.1961669921875e-05
sg8
I2
sg9
F0.016259193420410156
sasg11
I2
ssI33
(dp193
g2
I10
sg3
(lp194
(dp195
g6
I101
sg7
F0.08051514625549316
sg8
I103
sg9
F0.59912109375
sa(dp196
g6
I90
sg7
F0.16162800788879395
sg8
I102
sg9
F0.4040226936340332
sa(dp197
g6
I94
sg7
F0.5217180252075195
sg8
I96
sg9
F0.37124037742614746
sa(dp198
g6
I93
sg7
F0.41707420349121094
sg8
I95
sg9
F2.57737398147583
sa(dp199
g6
I92
sg7
F0.09049606323242188
sg8
I94
sg9
F2.4537527561187744
sa(dp200
g6
I91
sg7
F0.12106680870056152
sg8
I93
sg9
F0.4609990119934082
sa(dp201
g6
I88
sg7
F0.18009591102600098
sg8
I92
sg9
F0.33774280548095703
sa(dp202
g6
I84
sg7
F0.5703938007354736
sg8
I90
sg9
F0.33299803733825684
sa(dp203
g6
I85
sg7
F0.0061190128326416016
sg8
I87
sg9
F0.3179168701171875
sa(dp204
g6
I84
sg7
F0.025723934173583984
sg8
I86
sg9
F0.30095982551574707
sasg11
I103
ssI34
(dp205
g2
I1
sg3
(lp206
(dp207
g6
I0
sg7
F0.008949041366577148
sg8
I2
sg9
F0.01370692253112793
sasg11
I2
ssI35
(dp208
g2
I7
sg3
(lp209
(dp210
g6
I62
sg7
F0.31792497634887695
sg8
I70
sg9
F0.26428699493408203
sa(dp211
g6
I62
sg7
F15.48677396774292
sg8
I66
sg9
F0.11636900901794434
sa(dp212
g6
I60
sg7
F1.3120388984680176
sg8
I64
sg9
F0.18855905532836914
sa(dp213
g6
I56
sg7
F0.2799410820007324
sg8
I62
sg9
F2.6755943298339844
sa(dp214
g6
I57
sg7
F2.463406801223755
sg8
I59
sg9
F0.0420229434967041
sa(dp215
g6
I40
sg7
F0.21502900123596191
sg8
I58
sg9
F0.20579099655151367
sa(dp216
g6
I47
sg7
F0.18686294555664062
sg8
I49
sg9
F0.19180512428283691
sasg11
I70
ssI36
(dp217
g2
I5
sg3
(lp218
(dp219
g6
I29
sg7
F0.008409976959228516
sg8
I33
sg9
F0.026721954345703125
sa(dp220
g6
I29
sg7
F0.10251188278198242
sg8
I31
sg9
F0.020127058029174805
sa(dp221
g6
I24
sg7
F0.013151168823242188
sg8
I30
sg9
F0.031131744384765625
sa(dp222
g6
I25
sg7
F0.0027561187744140625
sg8
I27
sg9
F0.021258115768432617
sa(dp223
g6
I24
sg7
F0.021560192108154297
sg8
I26
sg9
F0.017518043518066406
sasg11
I33
ssI37
(dp224
g2
I1
sg3
(lp225
(dp226
g6
I0
sg7
F0.003404855728149414
sg8
I2
sg9
F0.01590108871459961
sasg11
I2
ssI38
(dp227
g2
I1
sg3
(lp228
(dp229
g6
I2
sg7
F0.008140087127685547
sg8
I4
sg9
F0.020427942276000977
sasg11
I4
ssI39
(dp230
g2
I2
sg3
(lp231
(dp232
g6
I28
sg7
F0.004405975341796875
sg8
I44
sg9
F0.03658699989318848
sa(dp233
g6
I6
sg7
F0.025777101516723633
sg8
I8
sg9
F0.011705875396728516
sasg11
I44
ssI40
(dp234
g2
I1
sg3
(lp235
(dp236
g6
I5
sg7
F0.018386125564575195
sg8
I7
sg9
F0.0012700557708740234
sasg11
I7
ssI41
(dp237
g2
I2
sg3
(lp238
(dp239
g6
I10
sg7
F0.009576082229614258
sg8
I12
sg9
F0.00813913345336914
sa(dp240
g6
I9
sg7
F0.02525615692138672
sg8
I11
sg9
F0.00011801719665527344
sasg11
I12
ssI42
(dp241
g2
I3
sg3
(lp242
(dp243
g6
I39
sg7
F0.01242685317993164
sg8
I41
sg9
F0.01949000358581543
sa(dp244
g6
I38
sg7
F0.011333942413330078
sg8
I40
sg9
F0.018199920654296875
sa(dp245
g6
I37
sg7
F0.007503986358642578
sg8
I39
sg9
F0.011699199676513672
sasg11
I41
ssI43
(dp246
g2
I1
sg3
(lp247
(dp248
g6
I5
sg7
F0.007954835891723633
sg8
I7
sg9
F0.0025599002838134766
sasg11
I7
ssI44
(dp249
g2
I6
sg3
(lp250
(dp251
g6
I45
sg7
F0.01321101188659668
sg8
I47
sg9
F0.08456993103027344
sa(dp252
g6
I32
sg7
F0.0019481182098388672
sg8
I46
sg9
F0.04728198051452637
sa(dp253
g6
I35
sg7
F0.010661125183105469
sg8
I39
sg9
F0.025147676467895508
sa(dp254
g6
I2
sg7
F2.5987625122070312e-05
sg8
I2
sg9
F0.001024007797241211
sa(dp255
g6
I2
sg7
F2.288818359375e-05
sg8
I2
sg9
F0.0010030269622802734
sa(dp256
g6
I0
sg7
F0.0019221305847167969
sg8
I2
sg9
F0.001138925552368164
sasg11
I47
ssI45
(dp257
g2
I0
sg3
(lp258
sg11
I1
ssI46
(dp259
g2
I1
sg3
(lp260
(dp261
g6
I4
sg7
F0.0014209747314453125
sg8
I6
sg9
F0.0052258968353271484
sasg11
I6
ssI47
(dp262
g2
I1
sg3
(lp263
(dp264
g6
I0
sg7
F3.4809112548828125e-05
sg8
I2
sg9
F0.0018308162689208984
sasg11
I2
ssI48
(dp265
g2
I0
sg3
(lp266
sg11
I1
ssI49
(dp267
g2
I0
sg3
(lp268
sg11
I1
ssI50
(dp269
g2
I1
sg3
(lp270
(dp271
g6
I3
sg7
F0.0018630027770996094
sg8
I5
sg9
F0.0025391578674316406
sasg11
I5
ssI51
(dp272
g2
I1
sg3
(lp273
(dp274
g6
I0
sg7
F0.001435995101928711
sg8
I2
sg9
F0.0224301815032959
sasg11
I2
ssI52
(dp275
g2
I1
sg3
(lp276
(dp277
g6
I0
sg7
F6.103515625e-05
sg8
I2
sg9
F0.0013780593872070312
sasg11
I2
ssI53
(dp278
g2
I1
sg3
(lp279
(dp280
g6
I2
sg7
F0.00746607780456543
sg8
I4
sg9
F0.0031440258026123047
sasg11
I4
ssI54
(dp281
g2
I2
sg3
(lp282
(dp283
g6
I1
sg7
F0.0011391639709472656
sg8
I3
sg9
F0.0017609596252441406
sa(dp284
g6
I0
sg7
F0.0008971691131591797
sg8
I2
sg9
F0.0010161399841308594
sasg11
I3
ssI55
(dp285
g2
I13
sg3
(lp286
(dp287
g6
I105
sg7
F0.012543916702270508
sg8
I109
sg9
F0.13650894165039062
sa(dp288
g6
I105
sg7
F0.02713799476623535
sg8
I107
sg9
F0.23866820335388184
sa(dp289
g6
I88
sg7
F0.07232499122619629
sg8
I106
sg9
F0.1459357738494873
sa(dp290
g6
I95
sg7
F0.01624584197998047
sg8
I97
sg9
F0.11936712265014648
sa(dp291
g6
I90
sg7
F0.07074904441833496
sg8
I96
sg9
F0.14157319068908691
sa(dp292
g6
I85
sg7
F0.00540614128112793
sg8
I93
sg9
F0.18474102020263672
sa(dp293
g6
I87
sg7
F0.025213956832885742
sg8
I89
sg9
F0.11344385147094727
sa(dp294
g6
I84
sg7
F0.020431995391845703
sg8
I88
sg9
F0.1138620376586914
sa(dp295
g6
I84
sg7
F0.24239897727966309
sg8
I86
sg9
F0.2404496669769287
sa(dp296
g6
I83
sg7
F0.030672788619995117
sg8
I85
sg9
F0.11281681060791016
sa(dp297
g6
I82
sg7
F0.15995001792907715
sg8
I84
sg9
F0.08023905754089355
sa(dp298
g6
I81
sg7
F0.1303420066833496
sg8
I83
sg9
F0.22537684440612793
sa(dp299
g6
I80
sg7
F0.010968923568725586
sg8
I82
sg9
F0.12151694297790527
sasg11
I109
ssI56
(dp300
g2
I8
sg3
(lp301
(dp302
g6
I74
sg7
F0.09366393089294434
sg8
I76
sg9
F0.22769594192504883
sa(dp303
g6
I69
sg7
F0.002808809280395508
sg8
I75
sg9
F0.23505496978759766
sa(dp304
g6
I54
sg7
F0.06835389137268066
sg8
I72
sg9
F0.19556617736816406
sa(dp305
g6
I59
sg7
F0.08349990844726562
sg8
I63
sg9
F0.1641407012939453
sa(dp306
g6
I55
sg7
F0.06510186195373535
sg8
I61
sg9
F0.1658480167388916
sa(dp307
g6
I56
sg7
F0.017132043838500977
sg8
I58
sg9
F0.14003920555114746
sa(dp308
g6
I53
sg7
F0.3072061538696289
sg8
I57
sg9
F0.07413196563720703
sa(dp309
g6
I53
sg7
F0.04223990440368652
sg8
I55
sg9
F0.0994100570678711
sasg11
I76
ssI57
(dp310
g2
I2
sg3
(lp311
(dp312
g6
I49
sg7
F0.03107905387878418
sg8
I51
sg9
F0.2843790054321289
sa(dp313
g6
I48
sg7
F0.05019879341125488
sg8
I50
sg9
F0.23401999473571777
sasg11
I51
ssI58
(dp314
g2
I34
sg3
(lp315
(dp316
g6
I478
sg7
F0.9319050312042236
sg8
I486
sg9
F2.0147650241851807
sa(dp317
g6
I346
sg7
F0.3115100860595703
sg8
I482
sg9
F1.7650086879730225
sa(dp318
g6
I412
sg7
F0.7682688236236572
sg8
I414
sg9
F0.4730498790740967
sa(dp319
g6
I411
sg7
F0.08327007293701172
sg8
I413
sg9
F9.79625415802002
sa(dp320
g6
I402
sg7
F0.25151896476745605
sg8
I412
sg9
F1.8385627269744873
sa(dp321
g6
I401
sg7
F4.300472021102905
sg8
I407
sg9
F0.4989662170410156
sa(dp322
g6
I400
sg7
F0.5744419097900391
sg8
I404
sg9
F0.45781397819519043
sa(dp323
g6
I390
sg7
F0.6304879188537598
sg8
I402
sg9
F1.5708210468292236
sa(dp324
g6
I386
sg7
F0.014031171798706055
sg8
I396
sg9
F0.4568779468536377
sa(dp325
g6
I367
sg7
F0.0768899917602539
sg8
I391
sg9
F9.319743156433105
sa(dp326
g6
I373
sg7
F1.2404940128326416
sg8
I379
sg9
F6.060143947601318
sa(dp327
g6
I372
sg7
F0.5061550140380859
sg8
I376
sg9
F2.6876180171966553
sa(dp328
g6
I360
sg7
F0.07312822341918945
sg8
I374
sg9
F1.3885669708251953
sa(dp329
g6
I363
sg7
F0.11726903915405273
sg8
I367
sg9
F0.47200584411621094
sa(dp330
g6
I361
sg7
F11.36630916595459
sg8
I365
sg9
F0.4668731689453125
sa(dp331
g6
I359
sg7
F4.795865058898926
sg8
I363
sg9
F0.6376841068267822
sa(dp332
g6
I357
sg7
F1.3234210014343262
sg8
I361
sg9
F0.43680810928344727
sa(dp333
g6
I355
sg7
F0.5451369285583496
sg8
I359
sg9
F0.43015503883361816
sa(dp334
g6
I347
sg7
F0.011722087860107422
sg8
I357
sg9
F0.39257121086120605
sa(dp335
g6
I350
sg7
F2.697096109390259
sg8
I352
sg9
F0.5461022853851318
sa(dp336
g6
I333
sg7
F1.5155282020568848
sg8
I351
sg9
F1.4352002143859863
sa(dp337
g6
I340
sg7
F1.369455099105835
sg8
I342
sg9
F0.4085092544555664
sa(dp338
g6
I339
sg7
F0.03615903854370117
sg8
I341
sg9
F0.41396617889404297
sa(dp339
g6
I332
sg7
F0.02317023277282715
sg8
I340
sg9
F0.3697168827056885
sa(dp340
g6
I334
sg7
F0.7239658832550049
sg8
I336
sg9
F0.4040639400482178
sa(dp341
g6
I331
sg7
F5.730070114135742
sg8
I335
sg9
F0.4192659854888916
sa(dp342
g6
I331
sg7
F22.01272201538086
sg8
I333
sg9
F0.3163461685180664
sa(dp343
g6
I328
sg7
F3.5219249725341797
sg8
I332
sg9
F0.9855811595916748
sa(dp344
g6
I326
sg7
F0.003237009048461914
sg8
I330
sg9
F0.3678889274597168
sa(dp345
g6
I298
sg7
F2.041807174682617
sg8
I328
sg9
F1.0462820529937744
sa(dp346
g6
I7
sg7
F2.294158935546875
sg8
I15
sg9
F0.32036590576171875
sa(dp347
g6
I9
sg7
F6.804373025894165
sg8
I11
sg9
F0.2380387783050537
sa(dp348
g6
I2
sg7
F2.4865810871124268
sg8
I10
sg9
F0.1761939525604248
sa(dp349
g6
I4
sg7
F0.04237794876098633
sg8
I6
sg9
F0.10635519027709961
sasg11
I486
ssI59
(dp350
g2
I2
sg3
(lp351
(dp352
g6
I5
sg7
F0.028059959411621094
sg8
I7
sg9
F0.005033969879150391
sa(dp353
g6
I4
sg7
F0.0028350353240966797
sg8
I6
sg9
F0.003640890121459961
sasg11
I7
ssI60
(dp354
g2
I1
sg3
(lp355
(dp356
g6
I3
sg7
F0.003119945526123047
sg8
I5
sg9
F0.004579067230224609
sasg11
I5
ssI61
(dp357
g2
I0
sg3
(lp358
sg11
I1
ssI62
(dp359
g2
I3
sg3
(lp360
(dp361
g6
I10
sg7
F0.0014050006866455078
sg8
I12
sg9
F0.011315107345581055
sa(dp362
g6
I9
sg7
F0.0037469863891601562
sg8
I11
sg9
F0.008244991302490234
sa(dp363
g6
I8
sg7
F0.0023458003997802734
sg8
I10
sg9
F0.006056785583496094
sasg11
I12
ssI63
(dp364
g2
I0
sg3
(lp365
sg11
I1
ssI64
(dp366
g2
I8
sg3
(lp367
(dp368
g6
I10
sg7
F0.0066339969635009766
sg8
I12
sg9
F0.03135180473327637
sa(dp369
g6
I9
sg7
F3.0994415283203125e-05
sg8
I11
sg9
F0.016215801239013672
sa(dp370
g6
I8
sg7
F0.0012960433959960938
sg8
I10
sg9
F0.04486584663391113
sa(dp371
g6
I5
sg7
F0.009486913681030273
sg8
I9
sg9
F0.02015209197998047
sa(dp372
g6
I5
sg7
F0.003844022750854492
sg8
I7
sg9
F0.008664131164550781
sa(dp373
g6
I4
sg7
F0.03922700881958008
sg8
I6
sg9
F0.01941704750061035
sa(dp374
g6
I3
sg7
F0.0027267932891845703
sg8
I5
sg9
F0.0045299530029296875
sa(dp375
g6
I2
sg7
F0.002178192138671875
sg8
I4
sg9
F0.00010609626770019531
sasg11
I12
ssI65
(dp376
g2
I9
sg3
(lp377
(dp378
g6
I19
sg7
F1.7881393432617188e-05
sg8
I27
sg9
F0.023527145385742188
sa(dp379
g6
I21
sg7
F0.018341064453125
sg8
I23
sg9
F0.03366208076477051
sa(dp380
g6
I20
sg7
F0.018278121948242188
sg8
I22
sg9
F0.03344392776489258
sa(dp381
g6
I19
sg7
F0.35492682456970215
sg8
I21
sg9
F0.07249116897583008
sa(dp382
g6
I18
sg7
F0.03392291069030762
sg8
I20
sg9
F0.06725502014160156
sa(dp383
g6
I13
sg7
F0.003284931182861328
sg8
I19
sg9
F0.020305871963500977
sa(dp384
g6
I12
sg7
F0.035015106201171875
sg8
I16
sg9
F0.02282118797302246
sa(dp385
g6
I12
sg7
F0.0066890716552734375
sg8
I14
sg9
F0.02037668228149414
sa(dp386
g6
I11
sg7
F0.003481149673461914
sg8
I13
sg9
F0.03198385238647461
sasg11
I27
ssI66
(dp387
g2
I0
sg3
(lp388
sg11
I1
ssI67
(dp389
g2
I2
sg3
(lp390
(dp391
g6
I33
sg7
F0.042413949966430664
sg8
I35
sg9
F0.25977110862731934
sa(dp392
g6
I32
sg7
F0.6261739730834961
sg8
I34
sg9
F0.0031023025512695312
sasg11
I35
ssI68
(dp393
g2
I0
sg3
(lp394
sg11
I1
ssI69
(dp395
g2
I1
sg3
(lp396
(dp397
g6
I49
sg7
F0.07317614555358887
sg8
I51
sg9
F0.014066696166992188
sasg11
I51
ssI70
(dp398
g2
I1
sg3
(lp399
(dp400
g6
I4
sg7
F0.0037457942962646484
sg8
I6
sg9
F0.0031397342681884766
sasg11
I6
ssI71
(dp401
g2
I2
sg3
(lp402
(dp403
g6
I79
sg7
F0.005536079406738281
sg8
I85
sg9
F0.09289288520812988
sa(dp404
g6
I1
sg7
F0.0041539669036865234
sg8
I3
sg9
F0.0023288726806640625
sasg11
I85
ssI72
(dp405
g2
I3
sg3
(lp406
(dp407
g6
I6
sg7
F0.07770991325378418
sg8
I8
sg9
F0.04908180236816406
sa(dp408
g6
I3
sg7
F0.002566814422607422
sg8
I7
sg9
F25.96759009361267
sa(dp409
g6
I3
sg7
F0.004966020584106445
sg8
I5
sg9
F0.014161109924316406
sasg11
I8
ssI73
(dp410
g2
I0
sg3
(lp411
sg11
I1
ssI74
(dp412
g2
I0
sg3
(lp413
sg11
I1
ssI75
(dp414
g2
I1
sg3
(lp415
(dp416
g6
I3
sg7
F0.0018270015716552734
sg8
I5
sg9
F0.002855062484741211
sasg11
I5
ssI76
(dp417
g2
I1
sg3
(lp418
(dp419
g6
I0
sg7
F0.007745027542114258
sg8
I2
sg9
F0.001241922378540039
sasg11
I2
ssI77
(dp420
g2
I0
sg3
(lp421
sg11
I1
ssI78
(dp422
g2
I0
sg3
(lp423
sg11
I1
ssI103
(dp424
g2
I2
sg3
(lp425
(dp426
g6
I10
sg7
F0.03736591339111328
sg8
I12
sg9
F0.005437135696411133
sa(dp427
g6
I9
sg7
F0.01644611358642578
sg8
I11
sg9
F0.00012302398681640625
sasg11
I12
ssI104
(dp428
g2
I2
sg3
(lp429
(dp430
g6
I0
sg7
F0.026662826538085938
sg8
I4
sg9
F0.020986080169677734
sa(dp431
g6
I0
sg7
F0.14304685592651367
sg8
I2
sg9
F0.22517704963684082
sasg11
I4
ssI105
(dp432
g2
I0
sg3
(lp433
sg11
I1
ssI106
(dp434
g2
I1
sg3
(lp435
(dp436
g6
I2
sg7
F0.006741046905517578
sg8
I4
sg9
F0.008594989776611328
sasg11
I4
ssI107
(dp437
g2
I1
sg3
(lp438
(dp439
g6
I14
sg7
F0.009024858474731445
sg8
I16
sg9
F0.02933502197265625
sasg11
I16
ssI108
(dp440
g2
I0
sg3
(lp441
sg11
I1
ss.