(dp0
I1
(dp1
S'iters'
p2
I4
sS'meta'
p3
(lp4
(dp5
S'objective'
p6
I48
sS'query_time'
p7
F0.0635991096496582
sS'comp_time'
p8
F0.03461503982543945
sS'exec_cq'
p9
I12
sS'total_cq'
p10
I12
sa(dp11
g6
I49
sg7
F5.793571472167969e-05
sg8
F0.00019073486328125
sg9
I10
sg10
I10
sa(dp12
g6
I52
sg7
F4.315376281738281e-05
sg8
F0.00012087821960449219
sg9
I9
sg10
I9
sa(dp13
g6
I52
sg7
F3.2901763916015625e-05
sg8
F8.916854858398438e-05
sg9
I8
sg10
I8
sasS'total_cqs'
p14
I12
ssI2
(dp15
S'iters'
p16
I8
sS'meta'
p17
(lp18
(dp19
S'objective'
p20
I278
sS'query_time'
p21
F0.07269692420959473
sS'comp_time'
p22
F0.0436856746673584
sS'exec_cq'
p23
I14
sS'total_cq'
p24
I27
sa(dp25
g20
I218
sg21
F0.05057406425476074
sg22
F0.0006642341613769531
sg23
I13
sg24
I24
sa(dp26
g20
I203
sg21
F7.414817810058594e-05
sg22
F0.00032973289489746094
sg23
I11
sg24
I20
sa(dp27
g20
I204
sg21
F5.078315734863281e-05
sg22
F0.0002689361572265625
sg23
I9
sg24
I18
sa(dp28
g20
I171
sg21
F4.601478576660156e-05
sg22
F0.00019097328186035156
sg23
I9
sg24
I16
sa(dp29
g20
I182
sg21
F3.0994415283203125e-05
sg22
F0.00014543533325195312
sg23
I7
sg24
I15
sa(dp30
g20
I145
sg21
F4.673004150390625e-05
sg22
F8.606910705566406e-05
sg23
I14
sg24
I14
sa(dp31
g20
I165
sg21
F4.00543212890625e-05
sg22
F7.510185241699219e-05
sg23
I13
sg24
I13
sasS'total_cqs'
p32
I27
ssI3
(dp33
S'iters'
p34
I4
sS'meta'
p35
(lp36
(dp37
S'objective'
p38
I168
sS'query_time'
p39
F117.03116416931152
sS'comp_time'
p40
F2.964989185333252
sS'exec_cq'
p41
I14
sS'total_cq'
p42
I43
sa(dp43
g38
I63
sg39
F65.44225716590881
sg40
F0.5219616889953613
sg41
I16
sg42
I29
sa(dp44
g38
I31
sg39
F42.206671953201294
sg40
F0.8127405643463135
sg41
I9
sg42
I13
sa(dp45
g38
I106
sg39
F11.803587198257446
sg40
F0.0019016265869140625
sg41
I6
sg42
I6
sasS'total_cqs'
p46
I43
ssI4
(dp47
S'iters'
p48
I2
sS'meta'
p49
(lp50
(dp51
S'objective'
p52
I58
sS'query_time'
p53
F4.760864973068237
sS'comp_time'
p54
F0.8570568561553955
sS'exec_cq'
p55
I11
sS'total_cq'
p56
I11
sa(dp57
g52
I2
sg53
F0.19859695434570312
sg54
F0.8524858951568604
sg55
I2
sg56
I2
sasS'total_cqs'
p58
I11
ssI5
(dp59
S'iters'
p60
I3
sS'meta'
p61
(lp62
(dp63
S'objective'
p64
I0
sS'query_time'
p65
F32.5320520401001
sS'comp_time'
p66
F4.821953058242798
sS'exec_cq'
p67
I8
sS'total_cq'
p68
I8
sa(dp69
g64
I0
sg65
F0.10950112342834473
sg66
F1.8953707218170166
sg67
I4
sg68
I4
sa(dp70
g64
I7
sg65
F0.24301791191101074
sg66
F1.1516427993774414
sg67
I2
sg68
I2
sasS'total_cqs'
p71
I8
ssI6
(dp72
S'iters'
p73
I4
sS'meta'
p74
(lp75
(dp76
S'objective'
p77
I43
sS'query_time'
p78
F33.80987310409546
sS'comp_time'
p79
F3.521719455718994
sS'exec_cq'
p80
I18
sS'total_cq'
p81
I18
sa(dp82
g77
I0
sg78
F0.6104960441589355
sg79
F3.482856035232544
sg80
I7
sg81
I7
sa(dp83
g77
I2
sg78
F0.4671008586883545
sg79
F2.8013620376586914
sg80
I3
sg81
I3
sa(dp84
g77
I13
sg78
F0.3367321491241455
sg79
F1.9513492584228516
sg80
I2
sg81
I2
sasS'total_cqs'
p85
I18
ssI7
(dp86
S'iters'
p87
I4
sS'meta'
p88
(lp89
(dp90
S'objective'
p91
I1
sS'query_time'
p92
F12.256404161453247
sS'comp_time'
p93
F1.7520642280578613
sS'exec_cq'
p94
I9
sS'total_cq'
p95
I9
sa(dp96
g91
I1
sg92
F0.20531105995178223
sg93
F0.6639561653137207
sg94
I6
sg95
I6
sa(dp97
g91
I0
sg92
F0.0066602230072021484
sg93
F0.027309894561767578
sg94
I4
sg95
I4
sa(dp98
g91
I4
sg92
F0.0035119056701660156
sg93
F0.023320674896240234
sg94
I2
sg95
I2
sasS'total_cqs'
p99
I9
ssI8
(dp100
S'iters'
p101
I4
sS'meta'
p102
(lp103
(dp104
S'objective'
p105
I200
sS'query_time'
p106
F0.09810018539428711
sS'comp_time'
p107
F0.035284996032714844
sS'exec_cq'
p108
I14
sS'total_cq'
p109
I27
sa(dp110
g105
I209
sg106
F0.0820918083190918
sg107
F0.0006434917449951172
sg108
I13
sg109
I22
sa(dp111
g105
I207
sg106
F4.601478576660156e-05
sg107
F0.00018143653869628906
sg108
I10
sg109
I19
sa(dp112
g105
I226
sg106
F3.600120544433594e-05
sg107
F0.000102996826171875
sg108
I9
sg109
I18
sasS'total_cqs'
p113
I27
ssI9
(dp114
S'iters'
p115
I3
sS'meta'
p116
(lp117
(dp118
S'objective'
p119
I2
sS'query_time'
p120
F0.07661199569702148
sS'comp_time'
p121
F0.005187034606933594
sS'exec_cq'
p122
I7
sS'total_cq'
p123
I7
sa(dp124
g119
I5
sg120
F3.409385681152344e-05
sg121
F0.00015091896057128906
sg122
I4
sg123
I4
sa(dp125
g119
I2
sg120
F0.010601997375488281
sg121
F0.00017261505126953125
sg122
I2
sg123
I2
sasS'total_cqs'
p126
I7
ssI10
(dp127
S'iters'
p128
I6
sS'meta'
p129
(lp130
(dp131
S'objective'
p132
I472
sS'query_time'
p133
F0.3033299446105957
sS'comp_time'
p134
F0.11599278450012207
sS'exec_cq'
p135
I28
sS'total_cq'
p136
I51
sa(dp137
g132
I163
sg133
F0.15156102180480957
sg134
F0.0016317367553710938
sg135
I23
sg136
I37
sa(dp138
g132
I305
sg133
F0.0001900196075439453
sg134
F0.0010859966278076172
sg135
I14
sg136
I25
sa(dp139
g132
I300
sg133
F6.699562072753906e-05
sg134
F0.00029349327087402344
sg135
I11
sg136
I21
sa(dp140
g132
I31
sg133
F0.0015170574188232422
sg134
F0.00034689903259277344
sg135
I3
sg136
I3
sa(dp141
g132
I12
sg133
F1.5974044799804688e-05
sg134
F8.20159912109375e-05
sg135
I2
sg136
I2
sasS'total_cqs'
p142
I51
ssI11
(dp143
S'iters'
p144
I5
sS'meta'
p145
(lp146
(dp147
S'objective'
p148
I1028
sS'query_time'
p149
F0.5807271003723145
sS'comp_time'
p150
F0.18464994430541992
sS'exec_cq'
p151
I63
sS'total_cq'
p152
I63
sa(dp153
g148
I992
sg149
F0.0013549327850341797
sg150
F0.025001049041748047
sg151
I47
sg152
I47
sa(dp154
g148
I1
sg149
F0.0018820762634277344
sg150
F0.0026776790618896484
sg151
I9
sg152
I9
sa(dp155
g148
I24
sg149
F3.504753112792969e-05
sg150
F0.0001990795135498047
sg151
I4
sg152
I4
sa(dp156
g148
I52
sg149
F1.6927719116210938e-05
sg150
F8.702278137207031e-05
sg151
I2
sg152
I2
sasS'total_cqs'
p157
I63
ssI12
(dp158
S'iters'
p159
I5
sS'meta'
p160
(lp161
(dp162
S'objective'
p163
I505
sS'query_time'
p164
F0.24365711212158203
sS'comp_time'
p165
F0.14536666870117188
sS'exec_cq'
p166
I28
sS'total_cq'
p167
I50
sa(dp168
g163
I536
sg164
F0.266934871673584
sg165
F0.0029625892639160156
sg166
I22
sg167
I33
sa(dp169
g163
I601
sg164
F0.00013113021850585938
sg165
F0.0006740093231201172
sg166
I15
sg167
I26
sa(dp170
g163
I36
sg164
F0.0012989044189453125
sg165
F0.00043702125549316406
sg166
I4
sg167
I4
sa(dp171
g163
I8
sg164
F1.621246337890625e-05
sg165
F9.107589721679688e-05
sg166
I2
sg167
I2
sasS'total_cqs'
p172
I50
ssI13
(dp173
S'iters'
p174
I3
sS'meta'
p175
(lp176
(dp177
S'objective'
p178
I38
sS'query_time'
p179
F0.15831208229064941
sS'comp_time'
p180
F0.032723188400268555
sS'exec_cq'
p181
I20
sS'total_cq'
p182
I20
sa(dp183
g178
I46
sg179
F5.698204040527344e-05
sg180
F0.0005078315734863281
sg181
I9
sg182
I9
sa(dp184
g178
I18
sg179
F0.0014920234680175781
sg180
F0.00018072128295898438
sg181
I2
sg182
I2
sasS'total_cqs'
p185
I20
ssI14
(dp186
S'iters'
p187
I4
sS'meta'
p188
(lp189
(dp190
S'objective'
p191
I1
sS'query_time'
p192
F30.82802391052246
sS'comp_time'
p193
F1.8828094005584717
sS'exec_cq'
p194
I9
sS'total_cq'
p195
I9
sa(dp196
g191
I3
sg192
F0.010142803192138672
sg193
F0.17407608032226562
sg194
I5
sg195
I5
sa(dp197
g191
I2
sg192
F0.003306150436401367
sg193
F0.021761178970336914
sg194
I3
sg195
I3
sa(dp198
g191
I2
sg192
F0.002969980239868164
sg193
F0.020514726638793945
sg194
I2
sg195
I2
sasS'total_cqs'
p199
I9
ssI15
(dp200
S'iters'
p201
I5
sS'meta'
p202
(lp203
(dp204
S'objective'
p205
I4
sS'query_time'
p206
F3.842302083969116
sS'comp_time'
p207
F0.296358585357666
sS'exec_cq'
p208
I11
sS'total_cq'
p209
I11
sa(dp210
g205
I19
sg206
F0.011857032775878906
sg207
F0.07545614242553711
sg208
I6
sg209
I6
sa(dp211
g205
I13
sg206
F0.012000083923339844
sg207
F0.07803082466125488
sg208
I5
sg209
I5
sa(dp212
g205
I14
sg206
F0.013543844223022461
sg207
F0.17029428482055664
sg208
I4
sg209
I4
sa(dp213
g205
I1
sg206
F0.011893033981323242
sg207
F0.17159080505371094
sg208
I2
sg209
I2
sasS'total_cqs'
p214
I11
ssI16
(dp215
S'iters'
p216
I1
sS'meta'
p217
(lp218
(dp219
S'objective'
p220
I34
sS'query_time'
p221
F0.020416975021362305
sS'comp_time'
p222
F0.004487037658691406
sS'exec_cq'
p223
I8
sS'total_cq'
p224
I8
sasS'total_cqs'
p225
I8
ssI17
(dp226
S'iters'
p227
I4
sS'meta'
p228
(lp229
(dp230
S'objective'
p231
I0
sS'query_time'
p232
F0.98897385597229
sS'comp_time'
p233
F0.05750608444213867
sS'exec_cq'
p234
I11
sS'total_cq'
p235
I11
sa(dp236
g231
I1
sg232
F0.010337114334106445
sg233
F0.031134843826293945
sg234
I6
sg235
I6
sa(dp237
g231
I3
sg232
F0.00316619873046875
sg233
F0.3544454574584961
sg234
I3
sg235
I3
sa(dp238
g231
I5
sg232
F0.00022482872009277344
sg233
F0.001367330551147461
sg234
I2
sg235
I2
sasS'total_cqs'
p239
I11
ssI18
(dp240
S'iters'
p241
I2
sS'meta'
p242
(lp243
(dp244
S'objective'
p245
I50
sS'query_time'
p246
F0.14158082008361816
sS'comp_time'
p247
F0.022288084030151367
sS'exec_cq'
p248
I5
sS'total_cq'
p249
I11
sa(dp250
g245
I56
sg246
F0.1252000331878662
sg247
F0.0013267993927001953
sg248
I10
sg249
I10
sasS'total_cqs'
p251
I11
ssI22
(dp252
S'iters'
p253
I1
sS'meta'
p254
(lp255
(dp256
S'objective'
p257
I169
sS'query_time'
p258
F0.05154585838317871
sS'comp_time'
p259
F0.03133797645568848
sS'exec_cq'
p260
I18
sS'total_cq'
p261
I18
sasS'total_cqs'
p262
I18
ssI23
(dp263
S'iters'
p264
I3
sS'meta'
p265
(lp266
(dp267
S'objective'
p268
I102
sS'query_time'
p269
F0.02767491340637207
sS'comp_time'
p270
F0.02589249610900879
sS'exec_cq'
p271
I8
sS'total_cq'
p272
I16
sa(dp273
g268
I107
sg269
F0.039029836654663086
sg270
F0.00045180320739746094
sg271
I8
sg272
I14
sa(dp274
g268
I111
sg269
F3.0994415283203125e-05
sg270
F0.0001010894775390625
sg271
I7
sg272
I13
sasS'total_cqs'
p275
I16
ssI26
(dp276
S'iters'
p277
I1
sS'meta'
p278
(lp279
(dp280
S'objective'
p281
I901
sS'query_time'
p282
F0.19933509826660156
sS'comp_time'
p283
F0.09078097343444824
sS'exec_cq'
p284
I42
sS'total_cq'
p285
I42
sasS'total_cqs'
p286
I42
ssI27
(dp287
S'iters'
p288
I3
sS'meta'
p289
(lp290
(dp291
S'objective'
p292
I349
sS'query_time'
p293
F21.507126808166504
sS'comp_time'
p294
F3.4553232192993164
sS'exec_cq'
p295
I30
sS'total_cq'
p296
I30
sa(dp297
g292
I0
sg293
F0.4482731819152832
sg294
F3.3888802528381348
sg295
I5
sg296
I5
sa(dp298
g292
I27
sg293
F0.011353015899658203
sg294
F0.06056332588195801
sg295
I2
sg296
I2
sasS'total_cqs'
p299
I30
ssI29
(dp300
S'iters'
p301
I7
sS'meta'
p302
(lp303
(dp304
S'objective'
p305
I347
sS'query_time'
p306
F25.67085909843445
sS'comp_time'
p307
F0.7788980007171631
sS'exec_cq'
p308
I35
sS'total_cq'
p309
I49
sa(dp310
g305
I25
sg306
F0.0262448787689209
sg307
F0.28444910049438477
sg308
I17
sg309
I17
sa(dp311
g305
I11
sg306
F0.002521991729736328
sg307
F0.008167743682861328
sg308
I11
sg309
I11
sa(dp312
g305
I6
sg306
F0.0013918876647949219
sg307
F0.006886005401611328
sg308
I7
sg309
I7
sa(dp313
g305
I30
sg306
F0.0010979175567626953
sg307
F0.006208658218383789
sg308
I4
sg309
I4
sa(dp314
g305
I3
sg306
F0.0016388893127441406
sg307
F0.005636930465698242
sg308
I3
sg309
I3
sa(dp315
g305
I2
sg306
F0.0005931854248046875
sg307
F0.0037200450897216797
sg308
I2
sg309
I2
sasS'total_cqs'
p316
I49
ssI30
(dp317
S'iters'
p318
I1
sS'meta'
p319
(lp320
(dp321
S'objective'
p322
I1
sS'query_time'
p323
F0.7131750583648682
sS'comp_time'
p324
F0.041020870208740234
sS'exec_cq'
p325
I2
sS'total_cq'
p326
I2
sasS'total_cqs'
p327
I2
ssI32
(dp328
S'iters'
p329
I1
sS'meta'
p330
(lp331
(dp332
S'objective'
p333
I1
sS'query_time'
p334
F0.01724410057067871
sS'comp_time'
p335
F0.002485990524291992
sS'exec_cq'
p336
I2
sS'total_cq'
p337
I2
sasS'total_cqs'
p338
I2
ssI33
(dp339
S'iters'
p340
I7
sS'meta'
p341
(lp342
(dp343
S'objective'
p344
I3550
sS'query_time'
p345
F15.893815040588379
sS'comp_time'
p346
F1.0085117816925049
sS'exec_cq'
p347
I103
sS'total_cq'
p348
I103
sa(dp349
g344
I5
sg345
F0.00928497314453125
sg346
F0.028569936752319336
sg347
I16
sg348
I16
sa(dp350
g344
I2
sg345
F0.21721696853637695
sg346
F0.016367197036743164
sg347
I9
sg348
I9
sa(dp351
g344
I10
sg345
F0.001795053482055664
sg346
F0.009947538375854492
sg347
I6
sg348
I6
sa(dp352
g344
I9
sg345
F0.0016369819641113281
sg346
F0.007921218872070312
sg347
I4
sg348
I4
sa(dp353
g344
I6
sg345
F0.0008890628814697266
sg346
F0.004506111145019531
sg347
I3
sg348
I3
sa(dp354
g344
I20
sg345
F0.0002810955047607422
sg346
F0.002111673355102539
sg347
I2
sg348
I2
sasS'total_cqs'
p355
I103
ssI34
(dp356
S'iters'
p357
I1
sS'meta'
p358
(lp359
(dp360
S'objective'
p361
I1
sS'query_time'
p362
F0.014894962310791016
sS'comp_time'
p363
F0.0021719932556152344
sS'exec_cq'
p364
I2
sS'total_cq'
p365
I2
sasS'total_cqs'
p366
I2
ssI35
(dp367
S'iters'
p368
I6
sS'meta'
p369
(lp370
(dp371
S'objective'
p372
I1285
sS'query_time'
p373
F21.85508394241333
sS'comp_time'
p374
F0.21689796447753906
sS'exec_cq'
p375
I50
sS'total_cq'
p376
I70
sa(dp377
g372
I20
sg373
F0.004796028137207031
sg374
F0.10656309127807617
sg375
I16
sg376
I16
sa(dp378
g372
I38
sg373
F0.0027649402618408203
sg374
F0.01185297966003418
sg375
I10
sg376
I10
sa(dp379
g372
I6
sg373
F0.000885009765625
sg374
F0.0037860870361328125
sg375
I4
sg376
I4
sa(dp380
g372
I8
sg373
F0.0004100799560546875
sg374
F0.0029828548431396484
sg375
I3
sg376
I3
sa(dp381
g372
I24
sg373
F8.392333984375e-05
sg374
F0.0006041526794433594
sg375
I2
sg376
I2
sasS'total_cqs'
p382
I70
ssI36
(dp383
S'iters'
p384
I1
sS'meta'
p385
(lp386
(dp387
S'objective'
p388
I559
sS'query_time'
p389
F0.627403974533081
sS'comp_time'
p390
F0.07789969444274902
sS'exec_cq'
p391
I28
sS'total_cq'
p392
I33
sasS'total_cqs'
p393
I33
ssI37
(dp394
S'iters'
p395
I1
sS'meta'
p396
(lp397
(dp398
S'objective'
p399
I1
sS'query_time'
p400
F0.0135040283203125
sS'comp_time'
p401
F0.024374008178710938
sS'exec_cq'
p402
I2
sS'total_cq'
p403
I2
sasS'total_cqs'
p404
I2
ssI38
(dp405
S'iters'
p406
I2
sS'meta'
p407
(lp408
(dp409
S'objective'
p410
I0
sS'query_time'
p411
F0.04172205924987793
sS'comp_time'
p412
F0.0053637027740478516
sS'exec_cq'
p413
I4
sS'total_cq'
p414
I4
sa(dp415
g410
I3
sg411
F0.00010085105895996094
sg412
F0.0005340576171875
sg413
I2
sg414
I2
sasS'total_cqs'
p416
I4
ssI39
(dp417
S'iters'
p418
I2
sS'meta'
p419
(lp420
(dp421
S'objective'
p422
I588
sS'query_time'
p423
F0.1774129867553711
sS'comp_time'
p424
F0.08928513526916504
sS'exec_cq'
p425
I44
sS'total_cq'
p426
I44
sa(dp427
g422
I787
sg423
F0.0002968311309814453
sg424
F0.0018782615661621094
sg425
I37
sg426
I37
sasS'total_cqs'
p428
I44
ssI40
(dp429
S'iters'
p430
I1
sS'meta'
p431
(lp432
(dp433
S'objective'
p434
I26
sS'query_time'
p435
F0.03240799903869629
sS'comp_time'
p436
F0.005844831466674805
sS'exec_cq'
p437
I7
sS'total_cq'
p438
I7
sasS'total_cqs'
p439
I7
ssI41
(dp440
S'iters'
p441
I2
sS'meta'
p442
(lp443
(dp444
S'objective'
p445
I60
sS'query_time'
p446
F0.07073616981506348
sS'comp_time'
p447
F0.017493724822998047
sS'exec_cq'
p448
I12
sS'total_cq'
p449
I12
sa(dp450
g445
I67
sg446
F7.891654968261719e-05
sg447
F0.0002143383026123047
sg448
I11
sg449
I11
sasS'total_cqs'
p451
I12
ssI42
(dp452
S'iters'
p453
I2
sS'meta'
p454
(lp455
(dp456
S'objective'
p457
I829
sS'query_time'
p458
F0.059085845947265625
sS'comp_time'
p459
F0.13519072532653809
sS'exec_cq'
p460
I21
sS'total_cq'
p461
I41
sa(dp462
g457
I843
sg458
F7.390975952148438e-05
sg459
F0.00019121170043945312
sg460
I20
sg461
I40
sasS'total_cqs'
p463
I41
ssI43
(dp464
S'iters'
p465
I1
sS'meta'
p466
(lp467
(dp468
S'objective'
p469
I26
sS'query_time'
p470
F0.024847030639648438
sS'comp_time'
p471
F0.005497932434082031
sS'exec_cq'
p472
I7
sS'total_cq'
p473
I7
sasS'total_cqs'
p474
I7
ssI44
(dp475
S'iters'
p476
I4
sS'meta'
p477
(lp478
(dp479
S'objective'
p480
I786
sS'query_time'
p481
F0.399029016494751
sS'comp_time'
p482
F0.17902088165283203
sS'exec_cq'
p483
I47
sS'total_cq'
p484
I47
sa(dp485
g480
I859
sg481
F0.00032401084899902344
sg482
F0.0016756057739257812
sg483
I40
sg484
I40
sa(dp486
g480
I29
sg481
F0.0019049644470214844
sg482
F0.001798868179321289
sg483
I3
sg484
I3
sa(dp487
g480
I8
sg481
F2.4080276489257812e-05
sg482
F0.00013899803161621094
sg483
I2
sg484
I2
sasS'total_cqs'
p488
I47
ssI46
(dp489
S'iters'
p490
I3
sS'meta'
p491
(lp492
(dp493
S'objective'
p494
I11
sS'query_time'
p495
F0.019066333770751953
sS'comp_time'
p496
F0.003461122512817383
sS'exec_cq'
p497
I6
sS'total_cq'
p498
I6
sa(dp499
g494
I10
sg495
F5.4836273193359375e-05
sg496
F0.00029468536376953125
sg497
I5
sg498
I5
sa(dp500
g494
I11
sg495
F2.5033950805664062e-05
sg496
F6.628036499023438e-05
sg497
I4
sg498
I4
sasS'total_cqs'
p501
I6
ssI47
(dp502
S'iters'
p503
I1
sS'meta'
p504
(lp505
(dp506
S'objective'
p507
I1
sS'query_time'
p508
F0.009786128997802734
sS'comp_time'
p509
F0.001247406005859375
sS'exec_cq'
p510
I2
sS'total_cq'
p511
I2
sasS'total_cqs'
p512
I2
ssI50
(dp513
S'iters'
p514
I4
sS'meta'
p515
(lp516
(dp517
S'objective'
p518
I5
sS'query_time'
p519
F0.014818906784057617
sS'comp_time'
p520
F0.002192974090576172
sS'exec_cq'
p521
I5
sS'total_cq'
p522
I5
sa(dp523
g518
I2
sg519
F2.7894973754882812e-05
sg520
F0.00015020370483398438
sg521
I4
sg522
I4
sa(dp524
g518
I0
sg519
F2.193450927734375e-05
sg520
F9.775161743164062e-05
sg521
I3
sg522
I3
sa(dp525
g518
I1
sg519
F1.6927719116210938e-05
sg520
F8.487701416015625e-05
sg521
I2
sg522
I2
sasS'total_cqs'
p526
I5
ssI51
(dp527
S'iters'
p528
I1
sS'meta'
p529
(lp530
(dp531
S'objective'
p532
I1
sS'query_time'
p533
F0.008060932159423828
sS'comp_time'
p534
F0.0011968612670898438
sS'exec_cq'
p535
I2
sS'total_cq'
p536
I2
sasS'total_cqs'
p537
I2
ssI52
(dp538
S'iters'
p539
I1
sS'meta'
p540
(lp541
(dp542
S'objective'
p543
I1
sS'query_time'
p544
F0.008625984191894531
sS'comp_time'
p545
F0.005598783493041992
sS'exec_cq'
p546
I2
sS'total_cq'
p547
I2
sasS'total_cqs'
p548
I2
ssI53
(dp549
S'iters'
p550
I2
sS'meta'
p551
(lp552
(dp553
S'objective'
p554
I4
sS'query_time'
p555
F0.020627975463867188
sS'comp_time'
p556
F0.0026466846466064453
sS'exec_cq'
p557
I4
sS'total_cq'
p558
I4
sa(dp559
g554
I1
sg555
F0.00010204315185546875
sg556
F0.0006487369537353516
sg557
I2
sg558
I2
sasS'total_cqs'
p560
I4
ssI54
(dp561
S'iters'
p562
I2
sS'meta'
p563
(lp564
(dp565
S'objective'
p566
I0
sS'query_time'
p567
F0.020561933517456055
sS'comp_time'
p568
F0.0019228458404541016
sS'exec_cq'
p569
I3
sS'total_cq'
p570
I3
sa(dp571
g566
I1
sg567
F4.696846008300781e-05
sg568
F0.0002880096435546875
sg569
I2
sg570
I2
sasS'total_cqs'
p572
I3
ssI55
(dp573
S'iters'
p574
I9
sS'meta'
p575
(lp576
(dp577
S'objective'
p578
I4705
sS'query_time'
p579
F2.1881449222564697
sS'comp_time'
p580
F0.6234867572784424
sS'exec_cq'
p581
I109
sS'total_cq'
p582
I109
sa(dp583
g578
I4552
sg579
F0.0009000301361083984
sg580
F0.0041751861572265625
sg581
I97
sg582
I97
sa(dp584
g578
I4539
sg579
F0.0004169940948486328
sg580
F0.002022981643676758
sg581
I91
sg582
I91
sa(dp585
g578
I4447
sg579
F0.000370025634765625
sg580
F0.0012128353118896484
sg581
I89
sg582
I89
sa(dp586
g578
I4350
sg579
F0.0003509521484375
sg580
F0.0012142658233642578
sg581
I87
sg582
I87
sa(dp587
g578
I4399
sg579
F0.00037407875061035156
sg580
F0.0013020038604736328
sg581
I83
sg582
I83
sa(dp588
g578
I4372
sg579
F0.0003249645233154297
sg580
F0.0009179115295410156
sg581
I81
sg582
I81
sa(dp589
g578
I4380
sg579
F0.0003070831298828125
sg580
F0.0007467269897460938
sg581
I80
sg582
I80
sa(dp590
g578
I4390
sg579
F0.00030517578125
sg580
F0.0007464885711669922
sg581
I79
sg582
I79
sasS'total_cqs'
p591
I109
ssI56
(dp592
S'iters'
p593
I6
sS'meta'
p594
(lp595
(dp596
S'objective'
p597
I1956
sS'query_time'
p598
F1.5974678993225098
sS'comp_time'
p599
F0.49349188804626465
sS'exec_cq'
p600
I67
sS'total_cq'
p601
I76
sa(dp602
g597
I37
sg598
F0.00808405876159668
sg599
F0.01825428009033203
sg600
I16
sg601
I16
sa(dp603
g597
I2
sg598
F0.0023741722106933594
sg599
F0.00858926773071289
sg600
I8
sg601
I8
sa(dp604
g597
I13
sg598
F0.0008819103240966797
sg599
F0.0034286975860595703
sg600
I6
sg601
I6
sa(dp605
g597
I8
sg598
F0.0001881122589111328
sg599
F0.0012331008911132812
sg600
I3
sg601
I3
sa(dp606
g597
I19
sg598
F0.00013208389282226562
sg599
F0.001100301742553711
sg600
I2
sg601
I2
sasS'total_cqs'
p607
I76
ssI57
(dp608
S'iters'
p609
I7
sS'meta'
p610
(lp611
(dp612
S'objective'
p613
I202
sS'query_time'
p614
F23.380515098571777
sS'comp_time'
p615
F0.24090123176574707
sS'exec_cq'
p616
I45
sS'total_cq'
p617
I51
sa(dp618
g613
I88
sg614
F0.020793914794921875
sg615
F0.03889894485473633
sg616
I27
sg617
I27
sa(dp619
g613
I32
sg614
F0.0025420188903808594
sg615
F0.008651494979858398
sg616
I12
sg617
I12
sa(dp620
g613
I9
sg614
F0.0015900135040283203
sg615
F0.005024909973144531
sg616
I7
sg617
I7
sa(dp621
g613
I19
sg614
F0.0005629062652587891
sg615
F0.003087759017944336
sg616
I4
sg617
I4
sa(dp622
g613
I3
sg614
F0.0005350112915039062
sg615
F0.002808094024658203
sg616
I3
sg617
I3
sa(dp623
g613
I12
sg614
F0.0004990100860595703
sg615
F0.0027670860290527344
sg616
I2
sg617
I2
sasS'total_cqs'
p624
I51
ssI58
(dp625
S'iters'
p626
I8
sS'meta'
p627
(lp628
(dp629
S'objective'
p630
I77649
sS'query_time'
p631
F116.07604694366455
sS'comp_time'
p632
F17.50190496444702
sS'exec_cq'
p633
I348
sS'total_cq'
p634
I486
sa(dp635
g630
I84267
sg631
F0.040403127670288086
sg632
F1.220844030380249
sg633
I276
sg634
I414
sa(dp636
g630
I0
sg631
F0.015386104583740234
sg632
F0.08348369598388672
sg633
I28
sg634
I28
sa(dp637
g630
I34
sg631
F0.007973909378051758
sg632
F0.017872095108032227
sg633
I14
sg634
I14
sa(dp638
g630
I49
sg631
F0.0029408931732177734
sg632
F0.009684085845947266
sg633
I8
sg634
I8
sa(dp639
g630
I188
sg631
F0.001444101333618164
sg632
F0.008438825607299805
sg633
I5
sg634
I5
sa(dp640
g630
I307
sg631
F0.0010771751403808594
sg632
F0.006319999694824219
sg633
I3
sg634
I3
sa(dp641
g630
I8
sg631
F0.0010018348693847656
sg632
F0.005489826202392578
sg633
I2
sg634
I2
sasS'total_cqs'
p642
I486
ssI59
(dp643
S'iters'
p644
I2
sS'meta'
p645
(lp646
(dp647
S'objective'
p648
I12
sS'query_time'
p649
F0.04825997352600098
sS'comp_time'
p650
F0.015908002853393555
sS'exec_cq'
p651
I7
sS'total_cq'
p652
I7
sa(dp653
g648
I6
sg649
F0.00019884109497070312
sg650
F0.0011069774627685547
sg651
I2
sg652
I2
sasS'total_cqs'
p654
I7
ssI60
(dp655
S'iters'
p656
I3
sS'meta'
p657
(lp658
(dp659
S'objective'
p660
I5
sS'query_time'
p661
F0.010977029800415039
sS'comp_time'
p662
F0.003191232681274414
sS'exec_cq'
p663
I2
sS'total_cq'
p664
I5
sa(dp665
g660
I6
sg661
F0.005959987640380859
sg662
F0.00021028518676757812
sg663
I3
sg664
I4
sa(dp666
g660
I6
sg661
F5.1021575927734375e-05
sg662
F0.00014781951904296875
sg663
I2
sg664
I3
sasS'total_cqs'
p667
I5
ssI62
(dp668
S'iters'
p669
I3
sS'meta'
p670
(lp671
(dp672
S'objective'
p673
I42
sS'query_time'
p674
F0.036041975021362305
sS'comp_time'
p675
F0.01684403419494629
sS'exec_cq'
p676
I12
sS'total_cq'
p677
I12
sa(dp678
g673
I46
sg674
F5.316734313964844e-05
sg675
F0.0002009868621826172
sg676
I9
sg677
I9
sa(dp679
g673
I51
sg674
F3.2901763916015625e-05
sg675
F9.512901306152344e-05
sg676
I8
sg677
I8
sasS'total_cqs'
p680
I12
ssI64
(dp681
S'iters'
p682
I4
sS'meta'
p683
(lp684
(dp685
S'objective'
p686
I42
sS'query_time'
p687
F0.10578489303588867
sS'comp_time'
p688
F0.07603764533996582
sS'exec_cq'
p689
I12
sS'total_cq'
p690
I12
sa(dp691
g686
I2
sg687
F9.989738464355469e-05
sg688
F0.0006139278411865234
sg689
I4
sg690
I4
sa(dp692
g686
I2
sg687
F8.702278137207031e-05
sg688
F0.0004596710205078125
sg689
I3
sg690
I3
sa(dp693
g686
I1
sg687
F6.198883056640625e-05
sg688
F0.0003669261932373047
sg689
I2
sg690
I2
sasS'total_cqs'
p694
I12
ssI65
(dp695
S'iters'
p696
I5
sS'meta'
p697
(lp698
(dp699
S'objective'
p700
I166
sS'query_time'
p701
F0.7457270622253418
sS'comp_time'
p702
F0.10148334503173828
sS'exec_cq'
p703
I27
sS'total_cq'
p704
I27
sa(dp705
g700
I0
sg701
F0.0019621849060058594
sg702
F0.008812665939331055
sg703
I7
sg704
I7
sa(dp706
g700
I1
sg701
F0.001580953598022461
sg702
F0.005246877670288086
sg703
I5
sg704
I5
sa(dp707
g700
I7
sg701
F0.0003612041473388672
sg702
F0.002625703811645508
sg703
I3
sg704
I3
sa(dp708
g700
I8
sg701
F0.0001220703125
sg702
F0.0008399486541748047
sg703
I2
sg704
I2
sasS'total_cqs'
p709
I27
ssI67
(dp710
S'iters'
p711
I2
sS'meta'
p712
(lp713
(dp714
S'objective'
p715
I566
sS'query_time'
p716
F0.8704040050506592
sS'comp_time'
p717
F0.08258700370788574
sS'exec_cq'
p718
I35
sS'total_cq'
p719
I35
sa(dp720
g715
I30
sg716
F0.0016720294952392578
sg717
F0.009145975112915039
sg718
I2
sg719
I2
sasS'total_cqs'
p721
I35
ssI69
(dp722
S'iters'
p723
I1
sS'meta'
p724
(lp725
(dp726
S'objective'
p727
I1324
sS'query_time'
p728
F0.17824888229370117
sS'comp_time'
p729
F0.1999650001525879
sS'exec_cq'
p730
I51
sS'total_cq'
p731
I51
sasS'total_cqs'
p732
I51
ssI70
(dp733
S'iters'
p734
I4
sS'meta'
p735
(lp736
(dp737
S'objective'
p738
I11
sS'query_time'
p739
F0.0251009464263916
sS'comp_time'
p740
F0.0025739669799804688
sS'exec_cq'
p741
I6
sS'total_cq'
p742
I6
sa(dp743
g738
I8
sg739
F5.1021575927734375e-05
sg740
F0.00023794174194335938
sg741
I5
sg742
I5
sa(dp744
g738
I6
sg739
F4.291534423828125e-05
sg740
F0.00020503997802734375
sg741
I4
sg742
I4
sa(dp745
g738
I7
sg739
F3.695487976074219e-05
sg740
F0.00019693374633789062
sg741
I3
sg742
I3
sasS'total_cqs'
p746
I6
ssI71
(dp747
S'iters'
p748
I10
sS'meta'
p749
(lp750
(dp751
S'objective'
p752
I3309
sS'query_time'
p753
F0.2795259952545166
sS'comp_time'
p754
F0.17656302452087402
sS'exec_cq'
p755
I73
sS'total_cq'
p756
I85
sa(dp757
g752
I3158
sg753
F0.00037789344787597656
sg754
F0.00471186637878418
sg755
I69
sg756
I81
sa(dp758
g752
I3064
sg753
F0.00026798248291015625
sg754
F0.0032126903533935547
sg755
I65
sg756
I77
sa(dp759
g752
I3054
sg753
F0.00023508071899414062
sg754
F0.0015702247619628906
sg755
I62
sg756
I74
sa(dp760
g752
I3001
sg753
F0.0002028942108154297
sg754
F0.001302957534790039
sg755
I59
sg756
I71
sa(dp761
g752
I2976
sg753
F0.00016307830810546875
sg754
F0.0013778209686279297
sg755
I58
sg756
I70
sa(dp762
g752
I2973
sg753
F0.00015616416931152344
sg754
F0.0013270378112792969
sg755
I56
sg756
I68
sa(dp763
g752
I2966
sg753
F0.00014400482177734375
sg754
F0.0005261898040771484
sg755
I55
sg756
I67
sa(dp764
g752
I3
sg753
F0.0020949840545654297
sg754
F0.0045070648193359375
sg755
I3
sg756
I3
sa(dp765
g752
I7
sg753
F0.0030121803283691406
sg754
F0.0002117156982421875
sg755
I2
sg756
I2
sasS'total_cqs'
p766
I85
ssI72
(dp767
S'iters'
p768
I4
sS'meta'
p769
(lp770
(dp771
S'objective'
p772
I14
sS'query_time'
p773
F0.025736093521118164
sS'comp_time'
p774
F0.00299835205078125
sS'exec_cq'
p775
I4
sS'total_cq'
p776
I8
sa(dp777
g772
I7
sg773
F0.32172393798828125
sg774
F0.0026607513427734375
sg775
I4
sg776
I6
sa(dp778
g772
I0
sg773
F2.9087066650390625e-05
sg774
F0.0001850128173828125
sg775
I2
sg776
I4
sa(dp779
g772
I6
sg773
F1.5974044799804688e-05
sg774
F5.841255187988281e-05
sg775
I2
sg776
I3
sasS'total_cqs'
p780
I8
ssI75
(dp781
S'iters'
p782
I4
sS'meta'
p783
(lp784
(dp785
S'objective'
p786
I5
sS'query_time'
p787
F0.010397911071777344
sS'comp_time'
p788
F0.0015769004821777344
sS'exec_cq'
p789
I5
sS'total_cq'
p790
I5
sa(dp791
g786
I2
sg787
F2.8133392333984375e-05
sg788
F0.00011396408081054688
sg789
I4
sg790
I4
sa(dp792
g786
I0
sg787
F2.288818359375e-05
sg788
F9.512901306152344e-05
sg789
I3
sg790
I3
sa(dp793
g786
I1
sg787
F1.6927719116210938e-05
sg788
F8.225440979003906e-05
sg789
I2
sg790
I2
sasS'total_cqs'
p794
I5
ssI76
(dp795
S'iters'
p796
I1
sS'meta'
p797
(lp798
(dp799
S'objective'
p800
I1
sS'query_time'
p801
F0.011121988296508789
sS'comp_time'
p802
F0.0012459754943847656
sS'exec_cq'
p803
I2
sS'total_cq'
p804
I2
sasS'total_cqs'
p805
I2
ssI103
(dp806
S'iters'
p807
I2
sS'meta'
p808
(lp809
(dp810
S'objective'
p811
I64
sS'query_time'
p812
F0.07389998435974121
sS'comp_time'
p813
F0.01624464988708496
sS'exec_cq'
p814
I12
sS'total_cq'
p815
I12
sa(dp816
g811
I69
sg812
F5.817413330078125e-05
sg813
F0.00020074844360351562
sg814
I11
sg815
I11
sasS'total_cqs'
p817
I12
ssI104
(dp818
S'iters'
p819
I2
sS'meta'
p820
(lp821
(dp822
S'objective'
p823
I2
sS'query_time'
p824
F1.2480101585388184
sS'comp_time'
p825
F0.21747565269470215
sS'exec_cq'
p826
I4
sS'total_cq'
p827
I4
sa(dp828
g823
I2
sg824
F0.011183023452758789
sg825
F0.17736268043518066
sg826
I2
sg827
I2
sasS'total_cqs'
p829
I4
ssI106
(dp830
S'iters'
p831
I1
sS'meta'
p832
(lp833
(dp834
S'objective'
p835
I8
sS'query_time'
p836
F0.019117116928100586
sS'comp_time'
p837
F0.0020570755004882812
sS'exec_cq'
p838
I4
sS'total_cq'
p839
I4
sasS'total_cqs'
p840
I4
ssI107
(dp841
S'iters'
p842
I2
sS'meta'
p843
(lp844
(dp845
S'objective'
p846
I104
sS'query_time'
p847
F0.0835111141204834
sS'comp_time'
p848
F0.019507884979248047
sS'exec_cq'
p849
I16
sS'total_cq'
p850
I16
sa(dp851
g846
I14
sg847
F0.006062984466552734
sg848
F0.00031495094299316406
sg849
I3
sg850
I3
sasS'total_cqs'
p852
I16
ss.