(dp0
I1
(dp1
S'iters'
p2
I2
sS'meta'
p3
(lp4
(dp5
S'objective'
p6
I54
sS'query_time'
p7
F0.02219390869140625
sS'comp_time'
p8
F7.414817810058594e-05
sS'exec_cq'
p9
I1
sS'total_cq'
p10
I12
sa(dp11
g6
I46
sg7
F0.026974916458129883
sg8
F5.316734313964844e-05
sg9
I2
sg10
I11
sasS'total_cqs'
p12
I12
ssI2
(dp13
S'iters'
p14
I2
sS'meta'
p15
(lp16
(dp17
S'objective'
p18
I322
sS'query_time'
p19
F0.03425192832946777
sS'comp_time'
p20
F7.605552673339844e-05
sS'exec_cq'
p21
I4
sS'total_cq'
p22
I27
sa(dp23
g18
I306
sg19
F0.018918991088867188
sg20
F6.699562072753906e-05
sg21
I5
sg22
I25
sasS'total_cqs'
p24
I27
ssI3
(dp25
S'iters'
p26
I5
sS'meta'
p27
(lp28
(dp29
S'objective'
p30
I272
sS'query_time'
p31
F25.293742895126343
sS'comp_time'
p32
F8.20159912109375e-05
sS'exec_cq'
p33
I2
sS'total_cq'
p34
I43
sa(dp35
g30
I481
sg31
F17.023260831832886
sg32
F0.0005600452423095703
sg33
I2
sg34
I28
sa(dp36
g30
I257
sg31
F25.552671909332275
sg32
F0.00030994415283203125
sg33
I2
sg34
I26
sa(dp37
g30
I39
sg31
F26.597588062286377
sg32
F0.00012111663818359375
sg33
I3
sg34
I18
sa(dp38
g30
I152
sg31
F0.0015299320220947266
sg32
F5.602836608886719e-05
sg33
I3
sg34
I10
sasS'total_cqs'
p39
I43
ssI4
(dp40
S'iters'
p41
I1
sS'meta'
p42
(lp43
(dp44
S'objective'
p45
I46
sS'query_time'
p46
F3.285228967666626
sS'comp_time'
p47
F0.0014119148254394531
sS'exec_cq'
p48
I2
sS'total_cq'
p49
I11
sasS'total_cqs'
p50
I11
ssI5
(dp51
S'iters'
p52
I3
sS'meta'
p53
(lp54
(dp55
S'objective'
p56
I20
sS'query_time'
p57
F0.07051396369934082
sS'comp_time'
p58
F6.699562072753906e-05
sS'exec_cq'
p59
I1
sS'total_cq'
p60
I8
sa(dp61
g56
I2
sg57
F0.3889768123626709
sg58
F6.794929504394531e-05
sg59
I1
sg60
I7
sa(dp62
g56
I1
sg57
F0.0030059814453125
sg58
F2.7179718017578125e-05
sg59
I1
sg60
I2
sasS'total_cqs'
p63
I8
ssI6
(dp64
S'iters'
p65
I4
sS'meta'
p66
(lp67
(dp68
S'objective'
p69
I135
sS'query_time'
p70
F7.4478819370269775
sS'comp_time'
p71
F0.000186920166015625
sS'exec_cq'
p72
I1
sS'total_cq'
p73
I18
sa(dp74
g69
I121
sg70
F0.9993979930877686
sg71
F7.700920104980469e-05
sg72
I2
sg73
I17
sa(dp75
g69
I97
sg70
F0.4229569435119629
sg71
F7.82012939453125e-05
sg72
I2
sg73
I16
sa(dp76
g69
I10
sg70
F0.008997917175292969
sg71
F3.2901763916015625e-05
sg72
I1
sg73
I3
sasS'total_cqs'
p77
I18
ssI7
(dp78
S'iters'
p79
I2
sS'meta'
p80
(lp81
(dp82
S'objective'
p83
I27
sS'query_time'
p84
F0.3790740966796875
sS'comp_time'
p85
F5.2928924560546875e-05
sS'exec_cq'
p86
I1
sS'total_cq'
p87
I9
sa(dp88
g83
I20
sg84
F0.21580219268798828
sg85
F7.82012939453125e-05
sg86
I1
sg87
I8
sasS'total_cqs'
p89
I9
ssI8
(dp90
S'iters'
p91
I5
sS'meta'
p92
(lp93
(dp94
S'objective'
p95
I324
sS'query_time'
p96
F0.058522939682006836
sS'comp_time'
p97
F9.703636169433594e-05
sS'exec_cq'
p98
I1
sS'total_cq'
p99
I27
sa(dp100
g95
I253
sg96
F0.05714011192321777
sg97
F9.322166442871094e-05
sg98
I1
sg99
I26
sa(dp101
g95
I254
sg96
F0.02515387535095215
sg97
F5.4836273193359375e-05
sg98
I2
sg99
I21
sa(dp102
g95
I220
sg96
F0.02839803695678711
sg97
F6.699562072753906e-05
sg98
I3
sg99
I20
sa(dp103
g95
I15
sg96
F0.01847386360168457
sg97
F7.915496826171875e-05
sg98
I2
sg99
I2
sasS'total_cqs'
p104
I27
ssI9
(dp105
S'iters'
p106
I4
sS'meta'
p107
(lp108
(dp109
S'objective'
p110
I12
sS'query_time'
p111
F0.020950794219970703
sS'comp_time'
p112
F4.291534423828125e-05
sS'exec_cq'
p113
I1
sS'total_cq'
p114
I7
sa(dp115
g110
I8
sg111
F0.03901791572570801
sg112
F6.890296936035156e-05
sg113
I2
sg114
I5
sa(dp116
g110
I4
sg111
F0.017024993896484375
sg112
F6.818771362304688e-05
sg113
I2
sg114
I4
sa(dp117
g110
I5
sg111
F0.003962993621826172
sg112
F7.486343383789062e-05
sg113
I2
sg114
I2
sasS'total_cqs'
p118
I7
ssI10
(dp119
S'iters'
p120
I5
sS'meta'
p121
(lp122
(dp123
S'objective'
p124
I1224
sS'query_time'
p125
F0.13001203536987305
sS'comp_time'
p126
F8.106231689453125e-05
sS'exec_cq'
p127
I1
sS'total_cq'
p128
I51
sa(dp129
g124
I951
sg125
F0.09618806838989258
sg126
F0.0001270771026611328
sg127
I3
sg128
I50
sa(dp130
g124
I703
sg125
F0.03417086601257324
sg126
F5.793571472167969e-05
sg127
I3
sg128
I45
sa(dp131
g124
I91
sg125
F0.01022195816040039
sg126
F3.600120544433594e-05
sg127
I1
sg128
I8
sa(dp132
g124
I23
sg125
F0.0042819976806640625
sg126
F4.315376281738281e-05
sg127
I2
sg128
I2
sasS'total_cqs'
p133
I51
ssI11
(dp134
S'iters'
p135
I7
sS'meta'
p136
(lp137
(dp138
S'objective'
p139
I956
sS'query_time'
p140
F0.17198419570922852
sS'comp_time'
p141
F6.699562072753906e-05
sS'exec_cq'
p142
I1
sS'total_cq'
p143
I63
sa(dp144
g139
I1224
sg140
F0.09864616394042969
sg141
F5.793571472167969e-05
sg142
I1
sg143
I47
sa(dp145
g139
I983
sg140
F0.06432986259460449
sg141
F5.2928924560546875e-05
sg142
I2
sg143
I44
sa(dp146
g139
I1051
sg140
F0.09698700904846191
sg141
F6.198883056640625e-05
sg142
I2
sg143
I38
sa(dp147
g139
I994
sg140
F0.06876993179321289
sg141
F5.1021575927734375e-05
sg142
I2
sg143
I37
sa(dp148
g139
I680
sg140
F0.038246870040893555
sg141
F4.792213439941406e-05
sg142
I3
sg143
I36
sa(dp149
g139
I88
sg140
F0.004675865173339844
sg141
F3.409385681152344e-05
sg142
I1
sg143
I4
sasS'total_cqs'
p150
I63
ssI12
(dp151
S'iters'
p152
I9
sS'meta'
p153
(lp154
(dp155
S'objective'
p156
I1103
sS'query_time'
p157
F0.08976507186889648
sS'comp_time'
p158
F0.00010204315185546875
sS'exec_cq'
p159
I1
sS'total_cq'
p160
I50
sa(dp161
g156
I313
sg157
F0.08314704895019531
sg158
F5.984306335449219e-05
sg159
I3
sg160
I47
sa(dp162
g156
I633
sg157
F0.07288002967834473
sg158
F7.295608520507812e-05
sg159
I3
sg160
I30
sa(dp163
g156
I602
sg157
F0.023936986923217773
sg158
F5.698204040527344e-05
sg159
I3
sg160
I28
sa(dp164
g156
I561
sg157
F0.06633710861206055
sg158
F0.00010609626770019531
sg159
I4
sg160
I27
sa(dp165
g156
I456
sg157
F0.01532292366027832
sg158
F7.104873657226562e-05
sg159
I4
sg160
I26
sa(dp166
g156
I252
sg157
F0.030661821365356445
sg158
F6.198883056640625e-05
sg159
I4
sg160
I24
sa(dp167
g156
I19
sg157
F0.016946077346801758
sg158
F5.0067901611328125e-05
sg159
I2
sg160
I7
sa(dp168
g156
I18
sg157
F0.007097005844116211
sg158
F4.792213439941406e-05
sg159
I2
sg160
I3
sasS'total_cqs'
p169
I50
ssI13
(dp170
S'iters'
p171
I3
sS'meta'
p172
(lp173
(dp174
S'objective'
p175
I18
sS'query_time'
p176
F0.07225298881530762
sS'comp_time'
p177
F5.1975250244140625e-05
sS'exec_cq'
p178
I1
sS'total_cq'
p179
I20
sa(dp180
g175
I60
sg176
F0.01775813102722168
sg177
F6.198883056640625e-05
sg178
I1
sg179
I9
sa(dp181
g175
I46
sg176
F0.009676933288574219
sg177
F4.1961669921875e-05
sg178
I1
sg179
I8
sasS'total_cqs'
p182
I20
ssI14
(dp183
S'iters'
p184
I2
sS'meta'
p185
(lp186
(dp187
S'objective'
p188
I33
sS'query_time'
p189
F0.5015690326690674
sS'comp_time'
p190
F7.510185241699219e-05
sS'exec_cq'
p191
I1
sS'total_cq'
p192
I9
sa(dp193
g188
I23
sg189
F0.04102897644042969
sg190
F4.601478576660156e-05
sg191
I1
sg192
I7
sasS'total_cqs'
p194
I9
ssI15
(dp195
S'iters'
p196
I2
sS'meta'
p197
(lp198
(dp199
S'objective'
p200
I14
sS'query_time'
p201
F1.021294116973877
sS'comp_time'
p202
F8.106231689453125e-05
sS'exec_cq'
p203
I1
sS'total_cq'
p204
I11
sa(dp205
g200
I20
sg201
F0.0355839729309082
sg202
F3.695487976074219e-05
sg203
I1
sg204
I8
sasS'total_cqs'
p206
I11
ssI16
(dp207
S'iters'
p208
I1
sS'meta'
p209
(lp210
(dp211
S'objective'
p212
I22
sS'query_time'
p213
F0.017815113067626953
sS'comp_time'
p214
F5.698204040527344e-05
sS'exec_cq'
p215
I2
sS'total_cq'
p216
I8
sasS'total_cqs'
p217
I8
ssI17
(dp218
S'iters'
p219
I2
sS'meta'
p220
(lp221
(dp222
S'objective'
p223
I16
sS'query_time'
p224
F0.3191549777984619
sS'comp_time'
p225
F7.605552673339844e-05
sS'exec_cq'
p226
I1
sS'total_cq'
p227
I11
sa(dp228
g223
I21
sg224
F0.03693699836730957
sg225
F5.984306335449219e-05
sg226
I1
sg227
I8
sasS'total_cqs'
p229
I11
ssI18
(dp230
S'iters'
p231
I1
sS'meta'
p232
(lp233
(dp234
S'objective'
p235
I46
sS'query_time'
p236
F0.05626702308654785
sS'comp_time'
p237
F7.605552673339844e-05
sS'exec_cq'
p238
I2
sS'total_cq'
p239
I11
sasS'total_cqs'
p240
I11
ssI19
(dp241
S'iters'
p242
I0
sS'meta'
p243
(lp244
sS'total_cqs'
p245
I1
ssI20
(dp246
S'iters'
p247
I0
sS'meta'
p248
(lp249
sS'total_cqs'
p250
I1
ssI21
(dp251
S'iters'
p252
I0
sS'meta'
p253
(lp254
sS'total_cqs'
p255
I1
ssI22
(dp256
S'iters'
p257
I1
sS'meta'
p258
(lp259
(dp260
S'objective'
p261
I141
sS'query_time'
p262
F0.036312103271484375
sS'comp_time'
p263
F9.202957153320312e-05
sS'exec_cq'
p264
I4
sS'total_cq'
p265
I18
sasS'total_cqs'
p266
I18
ssI23
(dp267
S'iters'
p268
I2
sS'meta'
p269
(lp270
(dp271
S'objective'
p272
I90
sS'query_time'
p273
F0.015212059020996094
sS'comp_time'
p274
F4.8160552978515625e-05
sS'exec_cq'
p275
I2
sS'total_cq'
p276
I16
sa(dp277
g272
I87
sg273
F0.011556148529052734
sg274
F5.1975250244140625e-05
sg275
I3
sg276
I14
sasS'total_cqs'
p278
I16
ssI24
(dp279
S'iters'
p280
I0
sS'meta'
p281
(lp282
sS'total_cqs'
p283
I1
ssI25
(dp284
S'iters'
p285
I0
sS'meta'
p286
(lp287
sS'total_cqs'
p288
I1
ssI26
(dp289
S'iters'
p290
I1
sS'meta'
p291
(lp292
(dp293
S'objective'
p294
I837
sS'query_time'
p295
F0.10186290740966797
sS'comp_time'
p296
F9.083747863769531e-05
sS'exec_cq'
p297
I10
sS'total_cq'
p298
I42
sasS'total_cqs'
p299
I42
ssI27
(dp300
S'iters'
p301
I3
sS'meta'
p302
(lp303
(dp304
S'objective'
p305
I403
sS'query_time'
p306
F1.9696481227874756
sS'comp_time'
p307
F9.703636169433594e-05
sS'exec_cq'
p308
I3
sS'total_cq'
p309
I30
sa(dp310
g305
I354
sg306
F3.243419885635376
sg307
F8.797645568847656e-05
sg308
I6
sg309
I28
sa(dp311
g305
I8
sg306
F1220.0063469409943
sg307
F8.893013000488281e-05
sg308
I2
sg309
I2
sasS'total_cqs'
p312
I30
ssI28
(dp313
S'iters'
p314
I0
sS'meta'
p315
(lp316
sS'total_cqs'
p317
I1
ssI29
(dp318
S'iters'
p319
I6
sS'meta'
p320
(lp321
(dp322
S'objective'
p323
I791
sS'query_time'
p324
F0.8541738986968994
sS'comp_time'
p325
F0.00010585784912109375
sS'exec_cq'
p326
I1
sS'total_cq'
p327
I49
sa(dp328
g323
I644
sg324
F0.4230959415435791
sg325
F8.797645568847656e-05
sg326
I1
sg327
I41
sa(dp329
g323
I476
sg324
F2.18623685836792
sg325
F8.702278137207031e-05
sg326
I1
sg327
I35
sa(dp330
g323
I83
sg324
F0.0709381103515625
sg325
F6.008148193359375e-05
sg326
I1
sg327
I5
sa(dp331
g323
I41
sg324
F1.7598960399627686
sg325
F7.414817810058594e-05
sg326
I1
sg327
I4
sa(dp332
g323
I9
sg324
F1.8384528160095215
sg325
F7.319450378417969e-05
sg326
I1
sg327
I3
sasS'total_cqs'
p333
I49
ssI30
(dp334
S'iters'
p335
I1
sS'meta'
p336
(lp337
(dp338
S'objective'
p339
I1
sS'query_time'
p340
F0.6931569576263428
sS'comp_time'
p341
F6.985664367675781e-05
sS'exec_cq'
p342
I1
sS'total_cq'
p343
I2
sasS'total_cqs'
p344
I2
ssI31
(dp345
S'iters'
p346
I0
sS'meta'
p347
(lp348
sS'total_cqs'
p349
I1
ssI32
(dp350
S'iters'
p351
I1
sS'meta'
p352
(lp353
(dp354
S'objective'
p355
I1
sS'query_time'
p356
F0.014538049697875977
sS'comp_time'
p357
F7.081031799316406e-05
sS'exec_cq'
p358
I1
sS'total_cq'
p359
I2
sasS'total_cqs'
p360
I2
ssI33
(dp361
S'iters'
p362
I6
sS'meta'
p363
(lp364
(dp365
S'objective'
p366
I5138
sS'query_time'
p367
F1.6961760520935059
sS'comp_time'
p368
F0.00010395050048828125
sS'exec_cq'
p369
I1
sS'total_cq'
p370
I103
sa(dp371
g366
I4979
sg367
F1.219191074371338
sg368
F0.00012612342834472656
sg369
I4
sg370
I101
sa(dp372
g366
I4919
sg367
F3.477794885635376
sg368
F0.00015497207641601562
sg369
I5
sg370
I99
sa(dp373
g366
I4506
sg367
F3.8335349559783936
sg368
F0.00011992454528808594
sg369
I20
sg370
I98
sa(dp374
g366
I4517
sg367
F0.4741811752319336
sg368
F0.00018286705017089844
sg369
I21
sg370
I93
sa(dp375
g366
I36
sg367
F0.03115391731262207
sg368
F3.814697265625e-05
sg369
I1
sg370
I2
sasS'total_cqs'
p376
I103
ssI34
(dp377
S'iters'
p378
I1
sS'meta'
p379
(lp380
(dp381
S'objective'
p382
I1
sS'query_time'
p383
F0.01912212371826172
sS'comp_time'
p384
F7.295608520507812e-05
sS'exec_cq'
p385
I1
sS'total_cq'
p386
I2
sasS'total_cqs'
p387
I2
ssI35
(dp388
S'iters'
p389
I3
sS'meta'
p390
(lp391
(dp392
S'objective'
p393
I2069
sS'query_time'
p394
F1.6029188632965088
sS'comp_time'
p395
F8.20159912109375e-05
sS'exec_cq'
p396
I1
sS'total_cq'
p397
I70
sa(dp398
g393
I68
sg394
F0.013038873672485352
sg395
F5.602836608886719e-05
sg396
I1
sg397
I4
sa(dp399
g393
I30
sg394
F0.07584190368652344
sg395
F7.009506225585938e-05
sg396
I1
sg397
I3
sasS'total_cqs'
p400
I70
ssI36
(dp401
S'iters'
p402
I2
sS'meta'
p403
(lp404
(dp405
S'objective'
p406
I507
sS'query_time'
p407
F0.36565709114074707
sS'comp_time'
p408
F9.894371032714844e-05
sS'exec_cq'
p409
I7
sS'total_cq'
p410
I33
sa(dp411
g406
I482
sg407
F0.04096698760986328
sg408
F7.295608520507812e-05
sg409
I7
sg410
I32
sasS'total_cqs'
p412
I33
ssI37
(dp413
S'iters'
p414
I1
sS'meta'
p415
(lp416
(dp417
S'objective'
p418
I1
sS'query_time'
p419
F0.009526968002319336
sS'comp_time'
p420
F5.1975250244140625e-05
sS'exec_cq'
p421
I1
sS'total_cq'
p422
I2
sasS'total_cqs'
p423
I2
ssI38
(dp424
S'iters'
p425
I2
sS'meta'
p426
(lp427
(dp428
S'objective'
p429
I6
sS'query_time'
p430
F0.014784097671508789
sS'comp_time'
p431
F6.508827209472656e-05
sS'exec_cq'
p432
I1
sS'total_cq'
p433
I4
sa(dp434
g429
I0
sg430
F0.0024039745330810547
sg431
F3.3855438232421875e-05
sg432
I1
sg433
I3
sasS'total_cqs'
p435
I4
ssI39
(dp436
S'iters'
p437
I3
sS'meta'
p438
(lp439
(dp440
S'objective'
p441
I562
sS'query_time'
p442
F0.09129977226257324
sS'comp_time'
p443
F6.103515625e-05
sS'exec_cq'
p444
I1
sS'total_cq'
p445
I44
sa(dp446
g441
I126
sg442
F0.025856971740722656
sg443
F5.984306335449219e-05
sg444
I2
sg445
I8
sa(dp447
g441
I102
sg442
F0.063385009765625
sg443
F5.412101745605469e-05
sg444
I2
sg445
I7
sasS'total_cqs'
p448
I44
ssI40
(dp449
S'iters'
p450
I1
sS'meta'
p451
(lp452
(dp453
S'objective'
p454
I14
sS'query_time'
p455
F0.028109073638916016
sS'comp_time'
p456
F5.698204040527344e-05
sS'exec_cq'
p457
I1
sS'total_cq'
p458
I7
sasS'total_cqs'
p459
I7
ssI41
(dp460
S'iters'
p461
I1
sS'meta'
p462
(lp463
(dp464
S'objective'
p465
I58
sS'query_time'
p466
F0.025810956954956055
sS'comp_time'
p467
F5.793571472167969e-05
sS'exec_cq'
p468
I3
sS'total_cq'
p469
I12
sasS'total_cqs'
p470
I12
ssI42
(dp471
S'iters'
p472
I1
sS'meta'
p473
(lp474
(dp475
S'objective'
p476
I797
sS'query_time'
p477
F0.041491031646728516
sS'comp_time'
p478
F8.416175842285156e-05
sS'exec_cq'
p479
I10
sS'total_cq'
p480
I41
sasS'total_cqs'
p481
I41
ssI43
(dp482
S'iters'
p483
I1
sS'meta'
p484
(lp485
(dp486
S'objective'
p487
I14
sS'query_time'
p488
F0.020514965057373047
sS'comp_time'
p489
F4.38690185546875e-05
sS'exec_cq'
p490
I1
sS'total_cq'
p491
I7
sasS'total_cqs'
p492
I7
ssI44
(dp493
S'iters'
p494
I3
sS'meta'
p495
(lp496
(dp497
S'objective'
p498
I800
sS'query_time'
p499
F0.08979678153991699
sS'comp_time'
p500
F9.322166442871094e-05
sS'exec_cq'
p501
I6
sS'total_cq'
p502
I47
sa(dp503
g498
I888
sg499
F0.03483295440673828
sg500
F7.915496826171875e-05
sg501
I10
sg502
I40
sa(dp504
g498
I36
sg499
F0.030593156814575195
sg500
F6.699562072753906e-05
sg501
I2
sg502
I2
sasS'total_cqs'
p505
I47
ssI45
(dp506
S'iters'
p507
I0
sS'meta'
p508
(lp509
sS'total_cqs'
p510
I1
ssI46
(dp511
S'iters'
p512
I1
sS'meta'
p513
(lp514
(dp515
S'objective'
p516
I9
sS'query_time'
p517
F0.007523775100708008
sS'comp_time'
p518
F4.792213439941406e-05
sS'exec_cq'
p519
I1
sS'total_cq'
p520
I6
sasS'total_cqs'
p521
I6
ssI47
(dp522
S'iters'
p523
I1
sS'meta'
p524
(lp525
(dp526
S'objective'
p527
I1
sS'query_time'
p528
F0.010547876358032227
sS'comp_time'
p529
F6.4849853515625e-05
sS'exec_cq'
p530
I1
sS'total_cq'
p531
I2
sasS'total_cqs'
p532
I2
ssI48
(dp533
S'iters'
p534
I0
sS'meta'
p535
(lp536
sS'total_cqs'
p537
I1
ssI49
(dp538
S'iters'
p539
I0
sS'meta'
p540
(lp541
sS'total_cqs'
p542
I1
ssI50
(dp543
S'iters'
p544
I1
sS'meta'
p545
(lp546
(dp547
S'objective'
p548
I5
sS'query_time'
p549
F0.005269050598144531
sS'comp_time'
p550
F4.100799560546875e-05
sS'exec_cq'
p551
I1
sS'total_cq'
p552
I5
sasS'total_cqs'
p553
I5
ssI51
(dp554
S'iters'
p555
I1
sS'meta'
p556
(lp557
(dp558
S'objective'
p559
I1
sS'query_time'
p560
F0.009474992752075195
sS'comp_time'
p561
F4.982948303222656e-05
sS'exec_cq'
p562
I1
sS'total_cq'
p563
I2
sasS'total_cqs'
p564
I2
ssI52
(dp565
S'iters'
p566
I1
sS'meta'
p567
(lp568
(dp569
S'objective'
p570
I1
sS'query_time'
p571
F0.009563207626342773
sS'comp_time'
p572
F5.793571472167969e-05
sS'exec_cq'
p573
I1
sS'total_cq'
p574
I2
sasS'total_cqs'
p575
I2
ssI53
(dp576
S'iters'
p577
I1
sS'meta'
p578
(lp579
(dp580
S'objective'
p581
I2
sS'query_time'
p582
F0.010516881942749023
sS'comp_time'
p583
F6.198883056640625e-05
sS'exec_cq'
p584
I1
sS'total_cq'
p585
I4
sasS'total_cqs'
p586
I4
ssI54
(dp587
S'iters'
p588
I2
sS'meta'
p589
(lp590
(dp591
S'objective'
p592
I0
sS'query_time'
p593
F0.0050661563873291016
sS'comp_time'
p594
F4.601478576660156e-05
sS'exec_cq'
p595
I1
sS'total_cq'
p596
I3
sa(dp597
g592
I1
sg593
F0.005717039108276367
sg594
F4.696846008300781e-05
sg595
I1
sg596
I2
sasS'total_cqs'
p598
I3
ssI55
(dp599
S'iters'
p600
I7
sS'meta'
p601
(lp602
(dp603
S'objective'
p604
I5787
sS'query_time'
p605
F0.2581520080566406
sS'comp_time'
p606
F0.00014495849609375
sS'exec_cq'
p607
I6
sS'total_cq'
p608
I109
sa(dp609
g604
I5179
sg605
F0.531329870223999
sg606
F0.0001361370086669922
sg607
I7
sg608
I108
sa(dp610
g604
I5125
sg605
F0.20634818077087402
sg606
F8.320808410644531e-05
sg607
I11
sg608
I102
sa(dp611
g604
I5138
sg605
F0.17501592636108398
sg606
F7.891654968261719e-05
sg607
I11
sg608
I98
sa(dp612
g604
I4914
sg605
F0.2519078254699707
sg606
F0.0001480579376220703
sg607
I15
sg608
I97
sa(dp613
g604
I4894
sg605
F0.3829500675201416
sg606
F0.00010609626770019531
sg607
I15
sg608
I95
sa(dp614
g604
I4818
sg605
F0.12627100944519043
sg606
F8.392333984375e-05
sg607
I21
sg608
I94
sasS'total_cqs'
p615
I109
ssI56
(dp616
S'iters'
p617
I7
sS'meta'
p618
(lp619
(dp620
S'objective'
p621
I2682
sS'query_time'
p622
F0.36464500427246094
sS'comp_time'
p623
F8.988380432128906e-05
sS'exec_cq'
p624
I2
sS'total_cq'
p625
I76
sa(dp626
g621
I2668
sg622
F0.28478407859802246
sg623
F0.00010418891906738281
sg624
I8
sg625
I73
sa(dp627
g621
I2570
sg622
F0.06693887710571289
sg623
F6.699562072753906e-05
sg624
I8
sg625
I72
sa(dp628
g621
I2241
sg622
F0.31518983840942383
sg623
F8.392333984375e-05
sg624
I12
sg625
I70
sa(dp629
g621
I2227
sg622
F0.23215603828430176
sg623
F0.00011420249938964844
sg624
I12
sg625
I66
sa(dp630
g621
I2157
sg622
F0.2653648853302002
sg623
F0.00013303756713867188
sg624
I12
sg625
I64
sa(dp631
g621
I2131
sg622
F0.11311197280883789
sg623
F6.413459777832031e-05
sg624
I12
sg625
I62
sasS'total_cqs'
p632
I76
ssI57
(dp633
S'iters'
p634
I7
sS'meta'
p635
(lp636
(dp637
S'objective'
p638
I1224
sS'query_time'
p639
F0.7905769348144531
sS'comp_time'
p640
F0.0001010894775390625
sS'exec_cq'
p641
I1
sS'total_cq'
p642
I51
sa(dp643
g638
I1117
sg639
F1.0658838748931885
sg640
F8.893013000488281e-05
sg641
I1
sg642
I50
sa(dp644
g638
I1098
sg639
F2.2611210346221924
sg640
F0.00010800361633300781
sg641
I1
sg642
I48
sa(dp645
g638
I799
sg639
F2.777458906173706
sg640
F9.894371032714844e-05
sg641
I1
sg642
I47
sa(dp646
g638
I78
sg639
F0.06438016891479492
sg640
F2.7894973754882812e-05
sg641
I1
sg642
I5
sa(dp647
g638
I40
sg639
F0.34560608863830566
sg640
F7.987022399902344e-05
sg641
I1
sg642
I4
sa(dp648
g638
I37
sg639
F0.05804610252380371
sg640
F7.200241088867188e-05
sg641
I1
sg642
I2
sasS'total_cqs'
p649
I51
ssI58
(dp650
S'iters'
p651
I38
sS'meta'
p652
(lp653
(dp654
S'objective'
p655
I115533
sS'query_time'
p656
F5.270487070083618
sS'comp_time'
p657
F0.004081010818481445
sS'exec_cq'
p658
I1
sS'total_cq'
p659
I486
sa(dp660
g655
I113309
sg656
F1.4706079959869385
sg657
F0.0002601146697998047
sg658
I2
sg659
I482
sa(dp661
g655
I110013
sg656
F2.3852081298828125
sg657
F0.00026297569274902344
sg658
I2
sg659
I473
sa(dp662
g655
I111076
sg656
F12.947972059249878
sg657
F0.00033092498779296875
sg658
I2
sg659
I464
sa(dp663
g655
I110862
sg656
F2.08028507232666
sg657
F0.0004639625549316406
sg658
I3
sg659
I461
sa(dp664
g655
I107418
sg656
F0.5625121593475342
sg657
F0.0005550384521484375
sg658
I3
sg659
I460
sa(dp665
g655
I103996
sg656
F2.4401540756225586
sg657
F0.00037598609924316406
sg658
I3
sg659
I454
sa(dp666
g655
I100478
sg656
F1.2364490032196045
sg657
F0.0004558563232421875
sg658
I6
sg659
I445
sa(dp667
g655
I102323
sg656
F0.5512850284576416
sg657
F0.0003409385681152344
sg658
I7
sg659
I434
sa(dp668
g655
I98029
sg656
F1.548698902130127
sg657
F0.00020313262939453125
sg658
I7
sg659
I432
sa(dp669
g655
I98737
sg656
F7.470481872558594
sg657
F0.0004661083221435547
sg658
I8
sg659
I423
sa(dp670
g655
I98514
sg656
F0.5856091976165771
sg657
F0.0004241466522216797
sg658
I8
sg659
I421
sa(dp671
g655
I97378
sg656
F6.431511163711548
sg657
F0.00027108192443847656
sg658
I9
sg659
I419
sa(dp672
g655
I94729
sg656
F1.3376100063323975
sg657
F0.0003101825714111328
sg658
I9
sg659
I416
sa(dp673
g655
I86787
sg656
F1.7390351295471191
sg657
F0.0005309581756591797
sg658
I10
sg659
I409
sa(dp674
g655
I87721
sg656
F1.2180490493774414
sg657
F0.0007600784301757812
sg658
I15
sg659
I387
sa(dp675
g655
I88574
sg656
F1.1729540824890137
sg657
F0.0003001689910888672
sg658
I16
sg659
I381
sa(dp676
g655
I87419
sg656
F0.38114118576049805
sg657
F0.0004608631134033203
sg658
I16
sg659
I379
sa(dp677
g655
I86174
sg656
F4.986809968948364
sg657
F0.0003478527069091797
sg658
I16
sg659
I375
sa(dp678
g655
I85613
sg656
F0.48224687576293945
sg657
F0.00030303001403808594
sg658
I20
sg659
I371
sa(dp679
g655
I84914
sg656
F2.0885229110717773
sg657
F0.0002791881561279297
sg658
I20
sg659
I368
sa(dp680
g655
I84782
sg656
F2.2291769981384277
sg657
F0.00028204917907714844
sg658
I20
sg659
I364
sa(dp681
g655
I84342
sg656
F2.6835289001464844
sg657
F0.00035190582275390625
sg658
I20
sg659
I363
sa(dp682
g655
I83479
sg656
F0.8228049278259277
sg657
F0.0010700225830078125
sg658
I22
sg659
I362
sa(dp683
g655
I83271
sg656
F0.4761340618133545
sg657
F0.0003540515899658203
sg658
I26
sg659
I360
sa(dp684
g655
I82193
sg656
F0.4099760055541992
sg657
F0.00038909912109375
sg658
I26
sg659
I359
sa(dp685
g655
I82093
sg656
F3.958652973175049
sg657
F0.0005228519439697266
sg658
I27
sg659
I357
sa(dp686
g655
I80560
sg656
F1.6654350757598877
sg657
F0.0007121562957763672
sg658
I28
sg659
I356
sa(dp687
g655
I79726
sg656
F1.0720758438110352
sg657
F0.0002980232238769531
sg658
I28
sg659
I353
sa(dp688
g655
I79799
sg656
F2.943959951400757
sg657
F0.0002598762512207031
sg658
I33
sg659
I350
sa(dp689
g655
I79410
sg656
F5.657032012939453
sg657
F0.0009319782257080078
sg658
I40
sg659
I349
sa(dp690
g655
I78161
sg656
F3.6252589225769043
sg657
F0.0002269744873046875
sg658
I43
sg659
I348
sa(dp691
g655
I78197
sg656
F11.547301054000854
sg657
F0.011684894561767578
sg658
I43
sg659
I345
sa(dp692
g655
I77804
sg656
F2.6305019855499268
sg657
F0.00074005126953125
sg658
I43
sg659
I344
sa(dp693
g655
I76394
sg656
F1.7146239280700684
sg657
F0.000492095947265625
sg658
I53
sg659
I343
sa(dp694
g655
I75424
sg656
F2.477491855621338
sg657
F0.0003101825714111328
sg658
I59
sg659
I340
sa(dp695
g655
I74406
sg656
F0.7033910751342773
sg657
F0.00019502639770507812
sg658
I59
sg659
I336
sa(dp696
g655
I245
sg656
F0.030843019485473633
sg657
F3.409385681152344e-05
sg658
I1
sg659
I3
sasS'total_cqs'
p697
I486
ssI59
(dp698
S'iters'
p699
I2
sS'meta'
p700
(lp701
(dp702
S'objective'
p703
I4
sS'query_time'
p704
F0.018190860748291016
sS'comp_time'
p705
F4.982948303222656e-05
sS'exec_cq'
p706
I1
sS'total_cq'
p707
I7
sa(dp708
g703
I2
sg704
F0.04036092758178711
sg705
F7.104873657226562e-05
sg706
I2
sg707
I2
sasS'total_cqs'
p709
I7
ssI60
(dp710
S'iters'
p711
I1
sS'meta'
p712
(lp713
(dp714
S'objective'
p715
I5
sS'query_time'
p716
F0.005630970001220703
sS'comp_time'
p717
F4.1961669921875e-05
sS'exec_cq'
p718
I1
sS'total_cq'
p719
I5
sasS'total_cqs'
p720
I5
ssI61
(dp721
S'iters'
p722
I0
sS'meta'
p723
(lp724
sS'total_cqs'
p725
I1
ssI62
(dp726
S'iters'
p727
I2
sS'meta'
p728
(lp729
(dp730
S'objective'
p731
I24
sS'query_time'
p732
F0.01386713981628418
sS'comp_time'
p733
F4.696846008300781e-05
sS'exec_cq'
p734
I1
sS'total_cq'
p735
I12
sa(dp736
g731
I31
sg732
F0.0077898502349853516
sg733
F4.100799560546875e-05
sg734
I1
sg735
I9
sasS'total_cqs'
p737
I12
ssI63
(dp738
S'iters'
p739
I0
sS'meta'
p740
(lp741
sS'total_cqs'
p742
I1
ssI64
(dp743
S'iters'
p744
I3
sS'meta'
p745
(lp746
(dp747
S'objective'
p748
I14
sS'query_time'
p749
F0.06749606132507324
sS'comp_time'
p750
F5.1975250244140625e-05
sS'exec_cq'
p751
I2
sS'total_cq'
p752
I12
sa(dp753
g748
I10
sg749
F0.004731893539428711
sg750
F3.504753112792969e-05
sg751
I1
sg752
I4
sa(dp754
g748
I1
sg749
F0.004550933837890625
sg750
F5.0067901611328125e-05
sg751
I1
sg752
I3
sasS'total_cqs'
p755
I12
ssI65
(dp756
S'iters'
p757
I3
sS'meta'
p758
(lp759
(dp760
S'objective'
p761
I272
sS'query_time'
p762
F0.10676980018615723
sS'comp_time'
p763
F8.0108642578125e-05
sS'exec_cq'
p764
I2
sS'total_cq'
p765
I27
sa(dp766
g761
I231
sg762
F0.021709918975830078
sg763
F4.792213439941406e-05
sg764
I2
sg765
I24
sa(dp767
g761
I3
sg762
F0.0043430328369140625
sg763
F4.9114227294921875e-05
sg764
I2
sg765
I2
sasS'total_cqs'
p768
I27
ssI66
(dp769
S'iters'
p770
I0
sS'meta'
p771
(lp772
sS'total_cqs'
p773
I1
ssI67
(dp774
S'iters'
p775
I1
sS'meta'
p776
(lp777
(dp778
S'objective'
p779
I574
sS'query_time'
p780
F0.8036479949951172
sS'comp_time'
p781
F9.799003601074219e-05
sS'exec_cq'
p782
I8
sS'total_cq'
p783
I35
sasS'total_cqs'
p784
I35
ssI68
(dp785
S'iters'
p786
I0
sS'meta'
p787
(lp788
sS'total_cqs'
p789
I1
ssI69
(dp790
S'iters'
p791
I1
sS'meta'
p792
(lp793
(dp794
S'objective'
p795
I1246
sS'query_time'
p796
F0.1069040298461914
sS'comp_time'
p797
F8.0108642578125e-05
sS'exec_cq'
p798
I12
sS'total_cq'
p799
I51
sasS'total_cqs'
p800
I51
ssI70
(dp801
S'iters'
p802
I1
sS'meta'
p803
(lp804
(dp805
S'objective'
p806
I9
sS'query_time'
p807
F0.009100914001464844
sS'comp_time'
p808
F4.00543212890625e-05
sS'exec_cq'
p809
I1
sS'total_cq'
p810
I6
sasS'total_cqs'
p811
I6
ssI71
(dp812
S'iters'
p813
I5
sS'meta'
p814
(lp815
(dp816
S'objective'
p817
I3463
sS'query_time'
p818
F0.09882807731628418
sS'comp_time'
p819
F0.000102996826171875
sS'exec_cq'
p820
I7
sS'total_cq'
p821
I85
sa(dp822
g817
I3341
sg818
F0.07659792900085449
sg819
F8.296966552734375e-05
sg820
I7
sg821
I82
sa(dp823
g817
I3120
sg818
F0.08366894721984863
sg819
F8.0108642578125e-05
sg820
I10
sg821
I80
sa(dp824
g817
I3143
sg818
F0.06109189987182617
sg819
F0.00010585784912109375
sg820
I12
sg821
I77
sa(dp825
g817
I3084
sg818
F0.061224937438964844
sg819
F7.700920104980469e-05
sg820
I17
sg821
I76
sasS'total_cqs'
p826
I85
ssI72
(dp827
S'iters'
p828
I2
sS'meta'
p829
(lp830
(dp831
S'objective'
p832
I16
sS'query_time'
p833
F0.24175405502319336
sS'comp_time'
p834
F5.793571472167969e-05
sS'exec_cq'
p835
I1
sS'total_cq'
p836
I8
sa(dp837
g832
I12
sg833
F0.008441925048828125
sg834
F6.699562072753906e-05
sg835
I1
sg836
I6
sasS'total_cqs'
p838
I8
ssI73
(dp839
S'iters'
p840
I0
sS'meta'
p841
(lp842
sS'total_cqs'
p843
I1
ssI74
(dp844
S'iters'
p845
I0
sS'meta'
p846
(lp847
sS'total_cqs'
p848
I1
ssI75
(dp849
S'iters'
p850
I1
sS'meta'
p851
(lp852
(dp853
S'objective'
p854
I5
sS'query_time'
p855
F0.004346132278442383
sS'comp_time'
p856
F4.100799560546875e-05
sS'exec_cq'
p857
I1
sS'total_cq'
p858
I5
sasS'total_cqs'
p859
I5
ssI76
(dp860
S'iters'
p861
I1
sS'meta'
p862
(lp863
(dp864
S'objective'
p865
I1
sS'query_time'
p866
F0.01011514663696289
sS'comp_time'
p867
F3.790855407714844e-05
sS'exec_cq'
p868
I1
sS'total_cq'
p869
I2
sasS'total_cqs'
p870
I2
ssI77
(dp871
S'iters'
p872
I0
sS'meta'
p873
(lp874
sS'total_cqs'
p875
I1
ssI78
(dp876
S'iters'
p877
I0
sS'meta'
p878
(lp879
sS'total_cqs'
p880
I1
ssI103
(dp881
S'iters'
p882
I1
sS'meta'
p883
(lp884
(dp885
S'objective'
p886
I58
sS'query_time'
p887
F0.035646915435791016
sS'comp_time'
p888
F6.008148193359375e-05
sS'exec_cq'
p889
I3
sS'total_cq'
p890
I12
sasS'total_cqs'
p891
I12
ssI104
(dp892
S'iters'
p893
I1
sS'meta'
p894
(lp895
(dp896
S'objective'
p897
I2
sS'query_time'
p898
F1.263991117477417
sS'comp_time'
p899
F6.29425048828125e-05
sS'exec_cq'
p900
I1
sS'total_cq'
p901
I4
sasS'total_cqs'
p902
I4
ssI105
(dp903
S'iters'
p904
I0
sS'meta'
p905
(lp906
sS'total_cqs'
p907
I1
ssI106
(dp908
S'iters'
p909
I1
sS'meta'
p910
(lp911
(dp912
S'objective'
p913
I2
sS'query_time'
p914
F0.01612710952758789
sS'comp_time'
p915
F4.410743713378906e-05
sS'exec_cq'
p916
I1
sS'total_cq'
p917
I4
sasS'total_cqs'
p918
I4
ssI107
(dp919
S'iters'
p920
I1
sS'meta'
p921
(lp922
(dp923
S'objective'
p924
I110
sS'query_time'
p925
F0.045823097229003906
sS'comp_time'
p926
F7.319450378417969e-05
sS'exec_cq'
p927
I4
sS'total_cq'
p928
I16
sasS'total_cqs'
p929
I16
ssI108
(dp930
S'iters'
p931
I0
sS'meta'
p932
(lp933
sS'total_cqs'
p934
I1
ss.