(dp0
I1
(dp1
S'iters'
p2
I4
sS'meta'
p3
(lp4
(dp5
S'objective'
p6
I46
sS'query_time'
p7
F0.07706809043884277
sS'comp_time'
p8
F0.018260478973388672
sS'exec_cq'
p9
I12
sS'total_cq'
p10
I12
sa(dp11
g6
I40
sg7
F6.890296936035156e-05
sg8
F0.0001990795135498047
sg9
I10
sg10
I10
sa(dp12
g6
I47
sg7
F7.200241088867188e-05
sg8
F0.00015306472778320312
sg9
I9
sg10
I9
sa(dp13
g6
I47
sg7
F5.817413330078125e-05
sg8
F0.00010538101196289062
sg9
I8
sg10
I8
sasS'total_cqs'
p14
I12
ssI2
(dp15
S'iters'
p16
I8
sS'meta'
p17
(lp18
(dp19
S'objective'
p20
I242
sS'query_time'
p21
F0.12819790840148926
sS'comp_time'
p22
F0.03883528709411621
sS'exec_cq'
p23
I27
sS'total_cq'
p24
I27
sa(dp25
g20
I224
sg21
F0.00027298927307128906
sg22
F0.0009462833404541016
sg23
I23
sg24
I23
sa(dp26
g20
I215
sg21
F0.00017595291137695312
sg22
F0.0004417896270751953
sg23
I20
sg24
I20
sa(dp27
g20
I191
sg21
F0.00011801719665527344
sg22
F0.00038313865661621094
sg23
I19
sg24
I19
sa(dp28
g20
I166
sg21
F8.893013000488281e-05
sg22
F0.0002319812774658203
sg23
I17
sg24
I17
sa(dp29
g20
I145
sg21
F6.985664367675781e-05
sg22
F0.00016379356384277344
sg23
I15
sg24
I15
sa(dp30
g20
I134
sg21
F6.508827209472656e-05
sg22
F0.00013017654418945312
sg23
I14
sg24
I14
sa(dp31
g20
I149
sg21
F5.1021575927734375e-05
sg22
F7.390975952148438e-05
sg23
I13
sg24
I13
sasS'total_cqs'
p32
I27
ssI3
(dp33
S'iters'
p34
I4
sS'meta'
p35
(lp36
(dp37
S'objective'
p38
I632
sS'query_time'
p39
F231.14510703086853
sS'comp_time'
p40
F2.0233089923858643
sS'exec_cq'
p41
I39
sS'total_cq'
p42
I43
sa(dp43
g38
I529
sg39
F0.08294510841369629
sg40
F0.3876156806945801
sg41
I32
sg42
I36
sa(dp44
g38
I439
sg39
F0.11850714683532715
sg40
F0.6873672008514404
sg41
I24
sg42
I28
sa(dp45
g38
I547
sg39
F11.7602379322052
sg40
F0.00023937225341796875
sg41
I25
sg42
I25
sasS'total_cqs'
p46
I43
ssI4
(dp47
S'iters'
p48
I2
sS'meta'
p49
(lp50
(dp51
S'objective'
p52
I52
sS'query_time'
p53
F4.78621506690979
sS'comp_time'
p54
F0.33469533920288086
sS'exec_cq'
p55
I11
sS'total_cq'
p56
I11
sa(dp57
g52
I5
sg53
F0.17104601860046387
sg54
F0.250521183013916
sg55
I2
sg56
I2
sasS'total_cqs'
p58
I11
ssI5
(dp59
S'iters'
p60
I4
sS'meta'
p61
(lp62
(dp63
S'objective'
p64
I0
sS'query_time'
p65
F35.5318329334259
sS'comp_time'
p66
F8.320147514343262
sS'exec_cq'
p67
I8
sS'total_cq'
p68
I8
sa(dp69
g64
I0
sg65
F0.09095406532287598
sg66
F0.4977850914001465
sg67
I5
sg68
I5
sa(dp70
g64
I1
sg65
F0.1996781826019287
sg66
F0.4421093463897705
sg67
I3
sg68
I3
sa(dp71
g64
I2
sg65
F0.20841312408447266
sg66
F0.3342571258544922
sg67
I2
sg68
I2
sasS'total_cqs'
p72
I8
ssI6
(dp73
S'iters'
p74
I4
sS'meta'
p75
(lp76
(dp77
S'objective'
p78
I53
sS'query_time'
p79
F36.65764904022217
sS'comp_time'
p80
F1.6460232734680176
sS'exec_cq'
p81
I18
sS'total_cq'
p82
I18
sa(dp83
g78
I1
sg79
F0.7063119411468506
sg80
F2.294363021850586
sg81
I7
sg82
I7
sa(dp84
g78
I1
sg79
F0.6661489009857178
sg80
F0.8724551200866699
sg81
I3
sg82
I3
sa(dp85
g78
I12
sg79
F0.23531317710876465
sg80
F0.5178399085998535
sg81
I2
sg82
I2
sasS'total_cqs'
p86
I18
ssI7
(dp87
S'iters'
p88
I4
sS'meta'
p89
(lp90
(dp91
S'objective'
p92
I1
sS'query_time'
p93
F12.350481033325195
sS'comp_time'
p94
F1.7900280952453613
sS'exec_cq'
p95
I9
sS'total_cq'
p96
I9
sa(dp97
g92
I0
sg93
F0.34615588188171387
sg94
F0.7525625228881836
sg95
I6
sg96
I6
sa(dp98
g92
I3
sg93
F0.06469893455505371
sg94
F0.26781797409057617
sg95
I3
sg96
I3
sa(dp99
g92
I2
sg93
F0.0053958892822265625
sg94
F0.006069660186767578
sg95
I2
sg96
I2
sasS'total_cqs'
p100
I9
ssI8
(dp101
S'iters'
p102
I5
sS'meta'
p103
(lp104
(dp105
S'objective'
p106
I220
sS'query_time'
p107
F0.18273091316223145
sS'comp_time'
p108
F0.038118600845336914
sS'exec_cq'
p109
I27
sS'total_cq'
p110
I27
sa(dp111
g106
I233
sg107
F0.00017905235290527344
sg108
F0.0006108283996582031
sg109
I22
sg110
I22
sa(dp112
g106
I232
sg107
F7.486343383789062e-05
sg108
F0.00020599365234375
sg109
I19
sg110
I19
sa(dp113
g106
I241
sg107
F7.867813110351562e-05
sg108
F0.00013184547424316406
sg109
I18
sg110
I18
sa(dp114
g106
I243
sg107
F7.700920104980469e-05
sg108
F9.322166442871094e-05
sg109
I17
sg110
I17
sasS'total_cqs'
p115
I27
ssI9
(dp116
S'iters'
p117
I4
sS'meta'
p118
(lp119
(dp120
S'objective'
p121
I6
sS'query_time'
p122
F0.07290101051330566
sS'comp_time'
p123
F0.006331920623779297
sS'exec_cq'
p124
I7
sS'total_cq'
p125
I7
sa(dp126
g121
I1
sg122
F0.0038461685180664062
sg123
F0.0005047321319580078
sg124
I5
sg125
I5
sa(dp127
g121
I5
sg122
F3.218650817871094e-05
sg123
F0.000179290771484375
sg124
I3
sg125
I3
sa(dp128
g121
I5
sg122
F1.5020370483398438e-05
sg123
F8.177757263183594e-05
sg124
I2
sg125
I2
sasS'total_cqs'
p129
I7
ssI10
(dp130
S'iters'
p131
I7
sS'meta'
p132
(lp133
(dp134
S'objective'
p135
I534
sS'query_time'
p136
F0.5516109466552734
sS'comp_time'
p137
F0.08212709426879883
sS'exec_cq'
p138
I51
sS'total_cq'
p139
I51
sa(dp140
g135
I316
sg136
F0.0004971027374267578
sg137
F0.0032362937927246094
sg138
I37
sg139
I37
sa(dp141
g135
I7
sg136
F0.007996082305908203
sg137
F0.005633115768432617
sg138
I12
sg139
I12
sa(dp142
g135
I12
sg136
F7.295608520507812e-05
sg137
F0.010502099990844727
sg138
I6
sg139
I6
sa(dp143
g135
I41
sg136
F5.793571472167969e-05
sg137
F0.0003993511199951172
sg138
I4
sg139
I4
sa(dp144
g135
I23
sg136
F4.9114227294921875e-05
sg137
F0.00018787384033203125
sg138
I3
sg139
I3
sa(dp145
g135
I40
sg136
F2.9802322387695312e-05
sg137
F0.00011515617370605469
sg138
I2
sg139
I2
sasS'total_cqs'
p146
I51
ssI11
(dp147
S'iters'
p148
I6
sS'meta'
p149
(lp150
(dp151
S'objective'
p152
I826
sS'query_time'
p153
F0.5386559963226318
sS'comp_time'
p154
F0.1873793601989746
sS'exec_cq'
p155
I63
sS'total_cq'
p156
I63
sa(dp157
g152
I825
sg153
F0.0014121532440185547
sg154
F0.004677295684814453
sg155
I47
sg156
I47
sa(dp158
g152
I10
sg153
F0.0018680095672607422
sg154
F0.0022499561309814453
sg155
I9
sg156
I9
sa(dp159
g152
I4
sg153
F9.107589721679688e-05
sg154
F0.0005917549133300781
sg155
I6
sg156
I6
sa(dp160
g152
I45
sg153
F2.288818359375e-05
sg154
F0.000141143798828125
sg155
I3
sg156
I3
sa(dp161
g152
I15
sg153
F1.5974044799804688e-05
sg154
F0.00014710426330566406
sg155
I2
sg156
I2
sasS'total_cqs'
p162
I63
ssI12
(dp163
S'iters'
p164
I8
sS'meta'
p165
(lp166
(dp167
S'objective'
p168
I371
sS'query_time'
p169
F0.42842888832092285
sS'comp_time'
p170
F0.081329345703125
sS'exec_cq'
p171
I50
sS'total_cq'
p172
I50
sa(dp173
g168
I477
sg169
F0.0004439353942871094
sg170
F0.0072803497314453125
sg171
I33
sg172
I33
sa(dp174
g168
I436
sg169
F0.0001659393310546875
sg170
F0.004964113235473633
sg171
I26
sg172
I26
sa(dp175
g168
I453
sg169
F0.0001590251922607422
sg170
F0.000453948974609375
sg171
I23
sg172
I23
sa(dp176
g168
I408
sg169
F0.00011515617370605469
sg170
F0.0003879070281982422
sg171
I21
sg172
I21
sa(dp177
g168
I387
sg169
F0.00014019012451171875
sg170
F0.0002970695495605469
sg171
I20
sg172
I20
sa(dp178
g168
I362
sg169
F0.00010895729064941406
sg170
F0.0002639293670654297
sg171
I18
sg172
I18
sa(dp179
g168
I27
sg169
F0.0016849040985107422
sg170
F0.0002720355987548828
sg171
I3
sg172
I3
sasS'total_cqs'
p180
I50
ssI13
(dp181
S'iters'
p182
I3
sS'meta'
p183
(lp184
(dp185
S'objective'
p186
I44
sS'query_time'
p187
F0.17023611068725586
sS'comp_time'
p188
F0.0417630672454834
sS'exec_cq'
p189
I20
sS'total_cq'
p190
I20
sa(dp191
g186
I59
sg187
F5.2928924560546875e-05
sg188
F0.000461578369140625
sg189
I9
sg190
I9
sa(dp192
g186
I10
sg187
F0.0012428760528564453
sg188
F0.00015497207641601562
sg189
I2
sg190
I2
sasS'total_cqs'
p193
I20
ssI14
(dp194
S'iters'
p195
I4
sS'meta'
p196
(lp197
(dp198
S'objective'
p199
I1
sS'query_time'
p200
F33.74575400352478
sS'comp_time'
p201
F1.0254120826721191
sS'exec_cq'
p202
I9
sS'total_cq'
p203
I9
sa(dp204
g199
I1
sg200
F0.36730408668518066
sg201
F0.7485532760620117
sg202
I5
sg203
I5
sa(dp205
g199
I4
sg200
F0.004492044448852539
sg201
F0.0066187381744384766
sg202
I3
sg203
I3
sa(dp206
g199
I2
sg200
F0.15233111381530762
sg201
F0.006483316421508789
sg202
I2
sg203
I2
sasS'total_cqs'
p207
I9
ssI15
(dp208
S'iters'
p209
I3
sS'meta'
p210
(lp211
(dp212
S'objective'
p213
I2
sS'query_time'
p214
F3.830650806427002
sS'comp_time'
p215
F0.3131535053253174
sS'exec_cq'
p216
I11
sS'total_cq'
p217
I11
sa(dp218
g213
I10
sg214
F0.01247406005859375
sg215
F0.03086400032043457
sg216
I6
sg217
I6
sa(dp219
g213
I9
sg214
F0.012093067169189453
sg215
F0.02386164665222168
sg216
I2
sg217
I2
sasS'total_cqs'
p220
I11
ssI16
(dp221
S'iters'
p222
I1
sS'meta'
p223
(lp224
(dp225
S'objective'
p226
I34
sS'query_time'
p227
F0.03557085990905762
sS'comp_time'
p228
F0.010915994644165039
sS'exec_cq'
p229
I8
sS'total_cq'
p230
I8
sasS'total_cqs'
p231
I8
ssI17
(dp232
S'iters'
p233
I4
sS'meta'
p234
(lp235
(dp236
S'objective'
p237
I2
sS'query_time'
p238
F0.933650016784668
sS'comp_time'
p239
F0.0586397647857666
sS'exec_cq'
p240
I11
sS'total_cq'
p241
I11
sa(dp242
g237
I14
sg238
F0.0033941268920898438
sg239
F0.007128238677978516
sg240
I7
sg241
I7
sa(dp243
g237
I0
sg238
F0.0026009082794189453
sg239
F0.004595041275024414
sg240
I3
sg241
I3
sa(dp244
g237
I3
sg238
F0.0027458667755126953
sg239
F0.0055730342864990234
sg240
I2
sg241
I2
sasS'total_cqs'
p245
I11
ssI18
(dp246
S'iters'
p247
I4
sS'meta'
p248
(lp249
(dp250
S'objective'
p251
I36
sS'query_time'
p252
F0.2003481388092041
sS'comp_time'
p253
F0.02412581443786621
sS'exec_cq'
p254
I11
sS'total_cq'
p255
I11
sa(dp256
g251
I39
sg252
F0.0005021095275878906
sg253
F0.0018358230590820312
sg254
I9
sg255
I9
sa(dp257
g251
I39
sg252
F8.702278137207031e-05
sg253
F0.00010943412780761719
sg254
I7
sg255
I7
sa(dp258
g251
I40
sg252
F3.409385681152344e-05
sg253
F8.106231689453125e-05
sg254
I6
sg255
I6
sasS'total_cqs'
p259
I11
ssI19
(dp260
S'iters'
p261
I0
sS'meta'
p262
(lp263
sS'total_cqs'
p264
I1
ssI20
(dp265
S'iters'
p266
I0
sS'meta'
p267
(lp268
sS'total_cqs'
p269
I1
ssI21
(dp270
S'iters'
p271
I0
sS'meta'
p272
(lp273
sS'total_cqs'
p274
I1
ssI22
(dp275
S'iters'
p276
I1
sS'meta'
p277
(lp278
(dp279
S'objective'
p280
I169
sS'query_time'
p281
F0.1673581600189209
sS'comp_time'
p282
F0.028351545333862305
sS'exec_cq'
p283
I18
sS'total_cq'
p284
I18
sasS'total_cqs'
p285
I18
ssI23
(dp286
S'iters'
p287
I3
sS'meta'
p288
(lp289
(dp290
S'objective'
p291
I118
sS'query_time'
p292
F0.09130191802978516
sS'comp_time'
p293
F0.026117563247680664
sS'exec_cq'
p294
I16
sS'total_cq'
p295
I16
sa(dp296
g291
I109
sg292
F9.584426879882812e-05
sg293
F0.00016379356384277344
sg294
I15
sg295
I15
sa(dp297
g291
I116
sg292
F6.4849853515625e-05
sg293
F0.00011706352233886719
sg294
I13
sg295
I13
sasS'total_cqs'
p298
I16
ssI24
(dp299
S'iters'
p300
I0
sS'meta'
p301
(lp302
sS'total_cqs'
p303
I1
ssI25
(dp304
S'iters'
p305
I0
sS'meta'
p306
(lp307
sS'total_cqs'
p308
I1
ssI26
(dp309
S'iters'
p310
I1
sS'meta'
p311
(lp312
(dp313
S'objective'
p314
I901
sS'query_time'
p315
F0.1609652042388916
sS'comp_time'
p316
F0.11447596549987793
sS'exec_cq'
p317
I42
sS'total_cq'
p318
I42
sasS'total_cqs'
p319
I42
ssI27
(dp320
S'iters'
p321
I5
sS'meta'
p322
(lp323
(dp324
S'objective'
p325
I349
sS'query_time'
p326
F22.10685396194458
sS'comp_time'
p327
F1.4817640781402588
sS'exec_cq'
p328
I30
sS'total_cq'
p329
I30
sa(dp330
g325
I321
sg326
F0.35004496574401855
sg327
F1.0863289833068848
sg328
I27
sg329
I27
sa(dp331
g325
I1
sg326
F0.4873080253601074
sg327
F0.9497711658477783
sg328
I4
sg329
I4
sa(dp332
g325
I9
sg326
F0.34740209579467773
sg327
F0.9884967803955078
sg328
I3
sg329
I3
sa(dp333
g325
I4
sg326
F0.01839590072631836
sg327
F0.030970096588134766
sg328
I2
sg329
I2
sasS'total_cqs'
p334
I30
ssI28
(dp335
S'iters'
p336
I0
sS'meta'
p337
(lp338
sS'total_cqs'
p339
I1
ssI29
(dp340
S'iters'
p341
I6
sS'meta'
p342
(lp343
(dp344
S'objective'
p345
I423
sS'query_time'
p346
F28.937665939331055
sS'comp_time'
p347
F0.3634681701660156
sS'exec_cq'
p348
I35
sS'total_cq'
p349
I49
sa(dp350
g345
I23
sg346
F0.04958605766296387
sg347
F0.3182384967803955
sg348
I17
sg349
I17
sa(dp351
g345
I13
sg346
F0.006941080093383789
sg347
F0.11182713508605957
sg348
I7
sg349
I7
sa(dp352
g345
I1
sg346
F0.006351947784423828
sg347
F0.018210649490356445
sg348
I5
sg349
I5
sa(dp353
g345
I17
sg346
F0.0049550533294677734
sg347
F0.009737968444824219
sg348
I3
sg349
I3
sa(dp354
g345
I15
sg346
F0.003921031951904297
sg347
F0.007595062255859375
sg348
I2
sg349
I2
sasS'total_cqs'
p355
I49
ssI30
(dp356
S'iters'
p357
I1
sS'meta'
p358
(lp359
(dp360
S'objective'
p361
I1
sS'query_time'
p362
F0.7216131687164307
sS'comp_time'
p363
F0.012168645858764648
sS'exec_cq'
p364
I2
sS'total_cq'
p365
I2
sasS'total_cqs'
p366
I2
ssI31
(dp367
S'iters'
p368
I0
sS'meta'
p369
(lp370
sS'total_cqs'
p371
I1
ssI32
(dp372
S'iters'
p373
I1
sS'meta'
p374
(lp375
(dp376
S'objective'
p377
I1
sS'query_time'
p378
F0.02333998680114746
sS'comp_time'
p379
F0.002189159393310547
sS'exec_cq'
p380
I2
sS'total_cq'
p381
I2
sasS'total_cqs'
p382
I2
ssI33
(dp383
S'iters'
p384
I6
sS'meta'
p385
(lp386
(dp387
S'objective'
p388
I3792
sS'query_time'
p389
F16.227190017700195
sS'comp_time'
p390
F0.9227848052978516
sS'exec_cq'
p391
I103
sS'total_cq'
p392
I103
sa(dp393
g388
I36
sg389
F0.00870203971862793
sg390
F0.059500932693481445
sg391
I16
sg392
I16
sa(dp394
g388
I1
sg389
F0.0008580684661865234
sg390
F0.002022981643676758
sg391
I6
sg392
I6
sa(dp395
g388
I15
sg389
F0.00034880638122558594
sg390
F0.0008170604705810547
sg391
I4
sg392
I4
sa(dp396
g388
I70
sg389
F0.0003249645233154297
sg390
F0.0007207393646240234
sg391
I3
sg392
I3
sa(dp397
g388
I6
sg389
F7.510185241699219e-05
sg390
F0.00022673606872558594
sg391
I2
sg392
I2
sasS'total_cqs'
p398
I103
ssI34
(dp399
S'iters'
p400
I1
sS'meta'
p401
(lp402
(dp403
S'objective'
p404
I1
sS'query_time'
p405
F0.016257047653198242
sS'comp_time'
p406
F0.0023148059844970703
sS'exec_cq'
p407
I2
sS'total_cq'
p408
I2
sasS'total_cqs'
p409
I2
ssI35
(dp410
S'iters'
p411
I6
sS'meta'
p412
(lp413
(dp414
S'objective'
p415
I1371
sS'query_time'
p416
F68.89632987976074
sS'comp_time'
p417
F3.1876919269561768
sS'exec_cq'
p418
I70
sS'total_cq'
p419
I70
sa(dp420
g415
I1504
sg416
F1.025277853012085
sg417
F2.0466926097869873
sg418
I57
sg419
I57
sa(dp421
g415
I1556
sg416
F1.0511209964752197
sg417
F2.075286865234375
sg418
I52
sg419
I52
sa(dp422
g415
I1500
sg416
F0.8700671195983887
sg417
F2.0248546600341797
sg418
I49
sg419
I49
sa(dp423
g415
I18
sg416
F0.00021195411682128906
sg417
F0.0014085769653320312
sg418
I3
sg419
I3
sa(dp424
g415
I23
sg416
F9.608268737792969e-05
sg417
F0.0002899169921875
sg418
I2
sg419
I2
sasS'total_cqs'
p425
I70
ssI36
(dp426
S'iters'
p427
I5
sS'meta'
p428
(lp429
(dp430
S'objective'
p431
I415
sS'query_time'
p432
F0.9375510215759277
sS'comp_time'
p433
F0.1812441349029541
sS'exec_cq'
p434
I33
sS'total_cq'
p435
I33
sa(dp436
g431
I372
sg432
F0.02047896385192871
sg433
F0.018500089645385742
sg434
I29
sg435
I29
sa(dp437
g431
I394
sg432
F0.0026509761810302734
sg433
F0.0040283203125
sg434
I25
sg435
I25
sa(dp438
g431
I386
sg432
F0.001268148422241211
sg433
F0.0018610954284667969
sg434
I24
sg435
I24
sa(dp439
g431
I397
sg432
F0.00013494491577148438
sg433
F0.00029015541076660156
sg434
I23
sg435
I23
sasS'total_cqs'
p440
I33
ssI37
(dp441
S'iters'
p442
I1
sS'meta'
p443
(lp444
(dp445
S'objective'
p446
I1
sS'query_time'
p447
F0.010365962982177734
sS'comp_time'
p448
F0.001683950424194336
sS'exec_cq'
p449
I2
sS'total_cq'
p450
I2
sasS'total_cqs'
p451
I2
ssI38
(dp452
S'iters'
p453
I2
sS'meta'
p454
(lp455
(dp456
S'objective'
p457
I0
sS'query_time'
p458
F0.027194976806640625
sS'comp_time'
p459
F0.004424333572387695
sS'exec_cq'
p460
I4
sS'total_cq'
p461
I4
sa(dp462
g457
I3
sg458
F7.510185241699219e-05
sg459
F0.00018405914306640625
sg460
I2
sg461
I2
sasS'total_cqs'
p463
I4
ssI39
(dp464
S'iters'
p465
I2
sS'meta'
p466
(lp467
(dp468
S'objective'
p469
I656
sS'query_time'
p470
F0.14353394508361816
sS'comp_time'
p471
F0.15944790840148926
sS'exec_cq'
p472
I44
sS'total_cq'
p473
I44
sa(dp474
g469
I821
sg470
F0.00030493736267089844
sg471
F0.0008232593536376953
sg472
I37
sg473
I37
sasS'total_cqs'
p475
I44
ssI40
(dp476
S'iters'
p477
I1
sS'meta'
p478
(lp479
(dp480
S'objective'
p481
I26
sS'query_time'
p482
F0.03349709510803223
sS'comp_time'
p483
F0.0055370330810546875
sS'exec_cq'
p484
I7
sS'total_cq'
p485
I7
sasS'total_cqs'
p486
I7
ssI41
(dp487
S'iters'
p488
I2
sS'meta'
p489
(lp490
(dp491
S'objective'
p492
I70
sS'query_time'
p493
F0.06109285354614258
sS'comp_time'
p494
F0.01662278175354004
sS'exec_cq'
p495
I12
sS'total_cq'
p496
I12
sa(dp497
g492
I72
sg493
F6.103515625e-05
sg494
F0.00010418891906738281
sg495
I11
sg496
I11
sasS'total_cqs'
p498
I12
ssI42
(dp499
S'iters'
p500
I4
sS'meta'
p501
(lp502
(dp503
S'objective'
p504
I785
sS'query_time'
p505
F0.1076960563659668
sS'comp_time'
p506
F0.07267117500305176
sS'exec_cq'
p507
I41
sS'total_cq'
p508
I41
sa(dp509
g504
I757
sg505
F0.00020599365234375
sg506
F0.00029015541076660156
sg507
I40
sg508
I40
sa(dp510
g504
I752
sg505
F0.00015616416931152344
sg506
F0.00017309188842773438
sg507
I39
sg508
I39
sa(dp511
g504
I769
sg505
F0.0001506805419921875
sg506
F0.00013780593872070312
sg507
I38
sg508
I38
sasS'total_cqs'
p512
I41
ssI43
(dp513
S'iters'
p514
I1
sS'meta'
p515
(lp516
(dp517
S'objective'
p518
I26
sS'query_time'
p519
F0.09472298622131348
sS'comp_time'
p520
F0.0055904388427734375
sS'exec_cq'
p521
I7
sS'total_cq'
p522
I7
sasS'total_cqs'
p523
I7
ssI44
(dp524
S'iters'
p525
I4
sS'meta'
p526
(lp527
(dp528
S'objective'
p529
I716
sS'query_time'
p530
F0.14919495582580566
sS'comp_time'
p531
F0.15673303604125977
sS'exec_cq'
p532
I47
sS'total_cq'
p533
I47
sa(dp534
g529
I776
sg530
F0.00032711029052734375
sg531
F0.0012769699096679688
sg532
I40
sg533
I40
sa(dp535
g529
I21
sg530
F0.0013837814331054688
sg531
F0.0015950202941894531
sg532
I3
sg533
I3
sa(dp536
g529
I24
sg530
F0.00011301040649414062
sg531
F0.0002281665802001953
sg532
I2
sg533
I2
sasS'total_cqs'
p537
I47
ssI45
(dp538
S'iters'
p539
I0
sS'meta'
p540
(lp541
sS'total_cqs'
p542
I1
ssI46
(dp543
S'iters'
p544
I3
sS'meta'
p545
(lp546
(dp547
S'objective'
p548
I11
sS'query_time'
p549
F0.0206301212310791
sS'comp_time'
p550
F0.0025742053985595703
sS'exec_cq'
p551
I6
sS'total_cq'
p552
I6
sa(dp553
g548
I8
sg549
F8.20159912109375e-05
sg550
F0.0001609325408935547
sg551
I5
sg552
I5
sa(dp554
g548
I10
sg549
F3.0040740966796875e-05
sg550
F7.104873657226562e-05
sg551
I4
sg552
I4
sasS'total_cqs'
p555
I6
ssI47
(dp556
S'iters'
p557
I1
sS'meta'
p558
(lp559
(dp560
S'objective'
p561
I1
sS'query_time'
p562
F0.009844064712524414
sS'comp_time'
p563
F0.0010828971862792969
sS'exec_cq'
p564
I2
sS'total_cq'
p565
I2
sasS'total_cqs'
p566
I2
ssI48
(dp567
S'iters'
p568
I0
sS'meta'
p569
(lp570
sS'total_cqs'
p571
I1
ssI49
(dp572
S'iters'
p573
I0
sS'meta'
p574
(lp575
sS'total_cqs'
p576
I1
ssI50
(dp577
S'iters'
p578
I4
sS'meta'
p579
(lp580
(dp581
S'objective'
p582
I5
sS'query_time'
p583
F0.013882875442504883
sS'comp_time'
p584
F0.0022208690643310547
sS'exec_cq'
p585
I5
sS'total_cq'
p586
I5
sa(dp587
g582
I2
sg583
F3.1948089599609375e-05
sg584
F0.0001327991485595703
sg585
I4
sg586
I4
sa(dp588
g582
I0
sg583
F2.193450927734375e-05
sg584
F9.775161743164062e-05
sg585
I3
sg586
I3
sa(dp589
g582
I1
sg583
F1.7881393432617188e-05
sg584
F8.106231689453125e-05
sg585
I2
sg586
I2
sasS'total_cqs'
p590
I5
ssI51
(dp591
S'iters'
p592
I1
sS'meta'
p593
(lp594
(dp595
S'objective'
p596
I1
sS'query_time'
p597
F0.008845806121826172
sS'comp_time'
p598
F0.0012807846069335938
sS'exec_cq'
p599
I2
sS'total_cq'
p600
I2
sasS'total_cqs'
p601
I2
ssI52
(dp602
S'iters'
p603
I1
sS'meta'
p604
(lp605
(dp606
S'objective'
p607
I1
sS'query_time'
p608
F0.017647981643676758
sS'comp_time'
p609
F0.001222372055053711
sS'exec_cq'
p610
I2
sS'total_cq'
p611
I2
sasS'total_cqs'
p612
I2
ssI53
(dp613
S'iters'
p614
I2
sS'meta'
p615
(lp616
(dp617
S'objective'
p618
I0
sS'query_time'
p619
F0.01917290687561035
sS'comp_time'
p620
F0.0024569034576416016
sS'exec_cq'
p621
I4
sS'total_cq'
p622
I4
sa(dp623
g618
I3
sg619
F9.417533874511719e-05
sg620
F0.00023508071899414062
sg621
I2
sg622
I2
sasS'total_cqs'
p624
I4
ssI54
(dp625
S'iters'
p626
I2
sS'meta'
p627
(lp628
(dp629
S'objective'
p630
I0
sS'query_time'
p631
F0.032353878021240234
sS'comp_time'
p632
F0.0017652511596679688
sS'exec_cq'
p633
I3
sS'total_cq'
p634
I3
sa(dp635
g630
I1
sg631
F4.315376281738281e-05
sg632
F0.00014281272888183594
sg633
I2
sg634
I2
sasS'total_cqs'
p636
I3
ssI55
(dp637
S'iters'
p638
I10
sS'meta'
p639
(lp640
(dp641
S'objective'
p642
I4901
sS'query_time'
p643
F2.587419033050537
sS'comp_time'
p644
F0.8336091041564941
sS'exec_cq'
p645
I109
sS'total_cq'
p646
I109
sa(dp647
g642
I4914
sg643
F0.007502079010009766
sg644
F0.011680126190185547
sg645
I101
sg646
I101
sa(dp648
g642
I4651
sg643
F0.006973981857299805
sg644
F0.14651894569396973
sg645
I97
sg646
I97
sa(dp649
g642
I4692
sg643
F0.0004978179931640625
sg644
F0.0019462108612060547
sg645
I89
sg646
I89
sa(dp650
g642
I4584
sg643
F0.0004229545593261719
sg644
F0.0011849403381347656
sg645
I87
sg646
I87
sa(dp651
g642
I4494
sg643
F0.0004489421844482422
sg644
F0.0011856555938720703
sg645
I85
sg646
I85
sa(dp652
g642
I4562
sg643
F0.0005538463592529297
sg644
F0.0012412071228027344
sg645
I83
sg646
I83
sa(dp653
g642
I4564
sg643
F0.0005748271942138672
sg644
F0.0008819103240966797
sg645
I81
sg646
I81
sa(dp654
g642
I4567
sg643
F0.0004611015319824219
sg644
F0.0005903244018554688
sg645
I80
sg646
I80
sa(dp655
g642
I4567
sg643
F0.0005137920379638672
sg644
F0.0005381107330322266
sg645
I79
sg646
I79
sasS'total_cqs'
p656
I109
ssI56
(dp657
S'iters'
p658
I6
sS'meta'
p659
(lp660
(dp661
S'objective'
p662
I1578
sS'query_time'
p663
F1.6621580123901367
sS'comp_time'
p664
F0.3294649124145508
sS'exec_cq'
p665
I67
sS'total_cq'
p666
I76
sa(dp667
g662
I24
sg663
F0.016015052795410156
sg664
F0.15836620330810547
sg665
I16
sg666
I16
sa(dp668
g662
I7
sg663
F0.004589080810546875
sg664
F0.010719060897827148
sg665
I9
sg666
I9
sa(dp669
g662
I3
sg663
F0.0011708736419677734
sg664
F0.00292205810546875
sg665
I5
sg666
I5
sa(dp670
g662
I60
sg663
F0.00024509429931640625
sg664
F0.0005869865417480469
sg665
I3
sg666
I3
sa(dp671
g662
I7
sg663
F0.00016498565673828125
sg664
F0.0006589889526367188
sg665
I2
sg666
I2
sasS'total_cqs'
p672
I76
ssI57
(dp673
S'iters'
p674
I7
sS'meta'
p675
(lp676
(dp677
S'objective'
p678
I344
sS'query_time'
p679
F24.141003847122192
sS'comp_time'
p680
F0.15833592414855957
sS'exec_cq'
p681
I45
sS'total_cq'
p682
I51
sa(dp683
g678
I11
sg679
F0.020352840423583984
sg680
F0.03152871131896973
sg681
I31
sg682
I31
sa(dp684
g678
I118
sg679
F0.0026230812072753906
sg680
F0.0030722618103027344
sg681
I13
sg682
I13
sa(dp685
g678
I3
sg679
F0.001802206039428711
sg680
F0.0027806758880615234
sg681
I9
sg682
I9
sa(dp686
g678
I1
sg679
F0.00115203857421875
sg680
F0.002525806427001953
sg681
I5
sg682
I5
sa(dp687
g678
I34
sg679
F0.0005369186401367188
sg680
F0.0011548995971679688
sg681
I3
sg682
I3
sa(dp688
g678
I14
sg679
F0.0004761219024658203
sg680
F0.0006952285766601562
sg681
I2
sg682
I2
sasS'total_cqs'
p689
I51
ssI58
(dp690
S'iters'
p691
I9
sS'meta'
p692
(lp693
(dp694
S'objective'
p695
I82983
sS'query_time'
p696
F322.904314994812
sS'comp_time'
p697
F25.039432048797607
sS'exec_cq'
p698
I486
sS'total_cq'
p699
I486
sa(dp700
g695
I85630
sg696
F5.524828910827637
sg697
F9.350960969924927
sg698
I414
sg699
I414
sa(dp701
g695
I58
sg696
F0.015808820724487305
sg697
F0.19948983192443848
sg698
I28
sg699
I28
sa(dp702
g695
I47
sg696
F0.006260871887207031
sg697
F0.1787877082824707
sg698
I16
sg699
I16
sa(dp703
g695
I12
sg696
F0.005274057388305664
sg697
F0.0204012393951416
sg698
I11
sg699
I11
sa(dp704
g695
I193
sg696
F0.0037870407104492188
sg697
F0.012082576751708984
sg698
I6
sg699
I6
sa(dp705
g695
I109
sg696
F0.0017130374908447266
sg697
F0.0020749568939208984
sg698
I4
sg699
I4
sa(dp706
g695
I183
sg696
F0.0015969276428222656
sg697
F0.002170085906982422
sg698
I3
sg699
I3
sa(dp707
g695
I21
sg696
F0.0009410381317138672
sg697
F0.0014390945434570312
sg698
I2
sg699
I2
sasS'total_cqs'
p708
I486
ssI59
(dp709
S'iters'
p710
I2
sS'meta'
p711
(lp712
(dp713
S'objective'
p714
I14
sS'query_time'
p715
F0.047347068786621094
sS'comp_time'
p716
F0.014780998229980469
sS'exec_cq'
p717
I7
sS'total_cq'
p718
I7
sa(dp719
g714
I5
sg715
F0.00021195411682128906
sg716
F0.0003955364227294922
sg717
I2
sg718
I2
sasS'total_cqs'
p720
I7
ssI60
(dp721
S'iters'
p722
I4
sS'meta'
p723
(lp724
(dp725
S'objective'
p726
I5
sS'query_time'
p727
F0.021904945373535156
sS'comp_time'
p728
F0.0036237239837646484
sS'exec_cq'
p729
I4
sS'total_cq'
p730
I5
sa(dp731
g726
I4
sg727
F0.0023708343505859375
sg728
F0.00018167495727539062
sg729
I4
sg730
I4
sa(dp732
g726
I3
sg727
F6.318092346191406e-05
sg728
F0.00016498565673828125
sg729
I3
sg730
I3
sa(dp733
g726
I3
sg727
F1.1205673217773438e-05
sg728
F2.6702880859375e-05
sg729
I1
sg730
I2
sasS'total_cqs'
p734
I5
ssI61
(dp735
S'iters'
p736
I0
sS'meta'
p737
(lp738
sS'total_cqs'
p739
I1
ssI62
(dp740
S'iters'
p741
I3
sS'meta'
p742
(lp743
(dp744
S'objective'
p745
I18
sS'query_time'
p746
F0.032238006591796875
sS'comp_time'
p747
F0.10042881965637207
sS'exec_cq'
p748
I12
sS'total_cq'
p749
I12
sa(dp750
g745
I36
sg746
F4.8160552978515625e-05
sg747
F0.00015616416931152344
sg748
I9
sg749
I9
sa(dp751
g745
I40
sg746
F3.2901763916015625e-05
sg747
F7.05718994140625e-05
sg748
I8
sg749
I8
sasS'total_cqs'
p752
I12
ssI63
(dp753
S'iters'
p754
I0
sS'meta'
p755
(lp756
sS'total_cqs'
p757
I1
ssI64
(dp758
S'iters'
p759
I3
sS'meta'
p760
(lp761
(dp762
S'objective'
p763
I30
sS'query_time'
p764
F0.1808609962463379
sS'comp_time'
p765
F0.02401900291442871
sS'exec_cq'
p766
I12
sS'total_cq'
p767
I12
sa(dp768
g763
I0
sg764
F0.00020599365234375
sg765
F0.0007393360137939453
sg766
I4
sg767
I4
sa(dp769
g763
I10
sg764
F0.00013494491577148438
sg765
F0.000247955322265625
sg766
I2
sg767
I2
sasS'total_cqs'
p770
I12
ssI65
(dp771
S'iters'
p772
I6
sS'meta'
p773
(lp774
(dp775
S'objective'
p776
I200
sS'query_time'
p777
F0.979625940322876
sS'comp_time'
p778
F0.06431007385253906
sS'exec_cq'
p779
I27
sS'total_cq'
p780
I27
sa(dp781
g776
I191
sg777
F0.013128995895385742
sg778
F0.12343645095825195
sg779
I23
sg780
I23
sa(dp782
g776
I176
sg777
F0.009956121444702148
sg778
F0.015612602233886719
sg779
I20
sg780
I20
sa(dp783
g776
I2
sg777
F0.0012629032135009766
sg778
F0.0018091201782226562
sg779
I5
sg780
I5
sa(dp784
g776
I1
sg777
F0.0004341602325439453
sg778
F0.0008611679077148438
sg779
I3
sg780
I3
sa(dp785
g776
I5
sg777
F0.0003421306610107422
sg778
F0.0006041526794433594
sg779
I2
sg780
I2
sasS'total_cqs'
p786
I27
ssI66
(dp787
S'iters'
p788
I0
sS'meta'
p789
(lp790
sS'total_cqs'
p791
I1
ssI67
(dp792
S'iters'
p793
I2
sS'meta'
p794
(lp795
(dp796
S'objective'
p797
I612
sS'query_time'
p798
F0.964846134185791
sS'comp_time'
p799
F0.12726402282714844
sS'exec_cq'
p800
I35
sS'total_cq'
p801
I35
sa(dp802
g797
I7
sg798
F0.0012691020965576172
sg799
F0.0029549598693847656
sg800
I2
sg801
I2
sasS'total_cqs'
p803
I35
ssI68
(dp804
S'iters'
p805
I0
sS'meta'
p806
(lp807
sS'total_cqs'
p808
I1
ssI69
(dp809
S'iters'
p810
I1
sS'meta'
p811
(lp812
(dp813
S'objective'
p814
I1324
sS'query_time'
p815
F0.16488003730773926
sS'comp_time'
p816
F0.29050588607788086
sS'exec_cq'
p817
I51
sS'total_cq'
p818
I51
sasS'total_cqs'
p819
I51
ssI70
(dp820
S'iters'
p821
I4
sS'meta'
p822
(lp823
(dp824
S'objective'
p825
I11
sS'query_time'
p826
F0.020827054977416992
sS'comp_time'
p827
F0.002691984176635742
sS'exec_cq'
p828
I6
sS'total_cq'
p829
I6
sa(dp830
g825
I8
sg826
F5.507469177246094e-05
sg827
F0.0001697540283203125
sg828
I5
sg829
I5
sa(dp831
g825
I8
sg826
F4.57763671875e-05
sg827
F0.00012302398681640625
sg828
I4
sg829
I4
sa(dp832
g825
I8
sg826
F3.695487976074219e-05
sg827
F0.00010228157043457031
sg828
I3
sg829
I3
sasS'total_cqs'
p833
I6
ssI71
(dp834
S'iters'
p835
I6
sS'meta'
p836
(lp837
(dp838
S'objective'
p839
I3173
sS'query_time'
p840
F0.30115222930908203
sS'comp_time'
p841
F0.37921881675720215
sS'exec_cq'
p842
I85
sS'total_cq'
p843
I85
sa(dp844
g839
I3134
sg840
F0.0004260540008544922
sg841
F0.0014069080352783203
sg842
I81
sg843
I81
sa(dp845
g839
I3010
sg840
F0.0003018379211425781
sg841
F0.000980377197265625
sg842
I78
sg843
I78
sa(dp846
g839
I2914
sg840
F0.00031304359436035156
sg841
F0.0009541511535644531
sg842
I75
sg843
I75
sa(dp847
g839
I14
sg840
F0.0026988983154296875
sg841
F0.0036230087280273438
sg842
I3
sg843
I3
sa(dp848
g839
I62
sg840
F0.0033559799194335938
sg841
F0.00013303756713867188
sg842
I2
sg843
I2
sasS'total_cqs'
p849
I85
ssI72
(dp850
S'iters'
p851
I3
sS'meta'
p852
(lp853
(dp854
S'objective'
p855
I6
sS'query_time'
p856
F0.313734769821167
sS'comp_time'
p857
F0.005853891372680664
sS'exec_cq'
p858
I8
sS'total_cq'
p859
I8
sa(dp860
g855
I1
sg856
F0.00011801719665527344
sg857
F0.00020694732666015625
sg858
I4
sg859
I5
sa(dp861
g855
I8
sg856
F2.09808349609375e-05
sg857
F4.673004150390625e-05
sg858
I2
sg859
I3
sasS'total_cqs'
p862
I8
ssI73
(dp863
S'iters'
p864
I0
sS'meta'
p865
(lp866
sS'total_cqs'
p867
I1
ssI74
(dp868
S'iters'
p869
I0
sS'meta'
p870
(lp871
sS'total_cqs'
p872
I1
ssI75
(dp873
S'iters'
p874
I4
sS'meta'
p875
(lp876
(dp877
S'objective'
p878
I5
sS'query_time'
p879
F0.010656118392944336
sS'comp_time'
p880
F0.0016121864318847656
sS'exec_cq'
p881
I5
sS'total_cq'
p882
I5
sa(dp883
g878
I2
sg879
F3.504753112792969e-05
sg880
F0.0001480579376220703
sg881
I4
sg882
I4
sa(dp884
g878
I0
sg879
F2.3126602172851562e-05
sg880
F0.00011014938354492188
sg881
I3
sg882
I3
sa(dp885
g878
I1
sg879
F2.002716064453125e-05
sg880
F9.34600830078125e-05
sg881
I2
sg882
I2
sasS'total_cqs'
p886
I5
ssI76
(dp887
S'iters'
p888
I1
sS'meta'
p889
(lp890
(dp891
S'objective'
p892
I1
sS'query_time'
p893
F0.010453939437866211
sS'comp_time'
p894
F0.001249074935913086
sS'exec_cq'
p895
I2
sS'total_cq'
p896
I2
sasS'total_cqs'
p897
I2
ssI77
(dp898
S'iters'
p899
I0
sS'meta'
p900
(lp901
sS'total_cqs'
p902
I1
ssI78
(dp903
S'iters'
p904
I0
sS'meta'
p905
(lp906
sS'total_cqs'
p907
I1
ssI103
(dp908
S'iters'
p909
I2
sS'meta'
p910
(lp911
(dp912
S'objective'
p913
I56
sS'query_time'
p914
F0.0701608657836914
sS'comp_time'
p915
F0.015617847442626953
sS'exec_cq'
p916
I12
sS'total_cq'
p917
I12
sa(dp918
g913
I65
sg914
F5.698204040527344e-05
sg915
F9.918212890625e-05
sg916
I11
sg917
I11
sasS'total_cqs'
p919
I12
ssI104
(dp920
S'iters'
p921
I2
sS'meta'
p922
(lp923
(dp924
S'objective'
p925
I0
sS'query_time'
p926
F1.2899789810180664
sS'comp_time'
p927
F0.12129378318786621
sS'exec_cq'
p928
I4
sS'total_cq'
p929
I4
sa(dp930
g925
I3
sg926
F0.010854959487915039
sg927
F0.019685029983520508
sg928
I2
sg929
I2
sasS'total_cqs'
p931
I4
ssI105
(dp932
S'iters'
p933
I0
sS'meta'
p934
(lp935
sS'total_cqs'
p936
I1
ssI106
(dp937
S'iters'
p938
I1
sS'meta'
p939
(lp940
(dp941
S'objective'
p942
I8
sS'query_time'
p943
F0.021020889282226562
sS'comp_time'
p944
F0.0017387866973876953
sS'exec_cq'
p945
I4
sS'total_cq'
p946
I4
sasS'total_cqs'
p947
I4
ssI107
(dp948
S'iters'
p949
I2
sS'meta'
p950
(lp951
(dp952
S'objective'
p953
I84
sS'query_time'
p954
F0.07892513275146484
sS'comp_time'
p955
F0.01961803436279297
sS'exec_cq'
p956
I16
sS'total_cq'
p957
I16
sa(dp958
g953
I24
sg954
F0.004851818084716797
sg955
F0.0004000663757324219
sg956
I3
sg957
I3
sasS'total_cqs'
p959
I16
ssI108
(dp960
S'iters'
p961
I0
sS'meta'
p962
(lp963
sS'total_cqs'
p964
I1
ss.