(dp0
I1
(dp1
S'iters'
p2
I3
sS'meta'
p3
(lp4
(dp5
S'objective'
p6
I46
sS'query_time'
p7
F0.05034995079040527
sS'comp_time'
p8
F0.024281740188598633
sS'exec_cq'
p9
I12
sS'total_cq'
p10
I12
sa(dp11
g6
I40
sg7
F4.8160552978515625e-05
sg8
F0.00016999244689941406
sg9
I10
sg10
I10
sa(dp12
g6
I43
sg7
F3.886222839355469e-05
sg8
F9.894371032714844e-05
sg9
I9
sg10
I9
sasS'total_cqs'
p13
I12
ssI2
(dp14
S'iters'
p15
I8
sS'meta'
p16
(lp17
(dp18
S'objective'
p19
I240
sS'query_time'
p20
F0.1593949794769287
sS'comp_time'
p21
F0.040660858154296875
sS'exec_cq'
p22
I27
sS'total_cq'
p23
I27
sa(dp24
g19
I203
sg20
F0.0002090930938720703
sg21
F0.00098419189453125
sg22
I24
sg23
I24
sa(dp25
g19
I194
sg20
F0.00013899803161621094
sg21
F0.0005257129669189453
sg22
I20
sg23
I20
sa(dp26
g19
I177
sg20
F0.00011706352233886719
sg21
F0.0002682209014892578
sg22
I18
sg23
I18
sa(dp27
g19
I153
sg20
F8.320808410644531e-05
sg21
F0.0006439685821533203
sg22
I17
sg23
I17
sa(dp28
g19
I151
sg20
F7.176399230957031e-05
sg21
F0.00017142295837402344
sg22
I15
sg23
I15
sa(dp29
g19
I140
sg20
F7.200241088867188e-05
sg21
F0.0001430511474609375
sg22
I14
sg23
I14
sa(dp30
g19
I136
sg20
F5.984306335449219e-05
sg21
F8.416175842285156e-05
sg22
I13
sg23
I13
sasS'total_cqs'
p31
I27
ssI3
(dp32
S'iters'
p33
I4
sS'meta'
p34
(lp35
(dp36
S'objective'
p37
I612
sS'query_time'
p38
F230.78656315803528
sS'comp_time'
p39
F1.9879741668701172
sS'exec_cq'
p40
I39
sS'total_cq'
p41
I43
sa(dp42
g37
I477
sg38
F0.08422589302062988
sg39
F0.24633264541625977
sg40
I25
sg41
I36
sa(dp43
g37
I500
sg38
F11.989035606384277
sg39
F0.5026464462280273
sg40
I28
sg41
I28
sa(dp44
g37
I540
sg38
F0.010440826416015625
sg39
F0.00020885467529296875
sg40
I25
sg41
I25
sasS'total_cqs'
p45
I43
ssI4
(dp46
S'iters'
p47
I2
sS'meta'
p48
(lp49
(dp50
S'objective'
p51
I36
sS'query_time'
p52
F4.663743019104004
sS'comp_time'
p53
F0.4406735897064209
sS'exec_cq'
p54
I11
sS'total_cq'
p55
I11
sa(dp56
g51
I7
sg52
F0.3101978302001953
sg53
F0.3599557876586914
sg54
I2
sg55
I2
sasS'total_cqs'
p57
I11
ssI5
(dp58
S'iters'
p59
I4
sS'meta'
p60
(lp61
(dp62
S'objective'
p63
I0
sS'query_time'
p64
F34.54681396484375
sS'comp_time'
p65
F2.7803409099578857
sS'exec_cq'
p66
I8
sS'total_cq'
p67
I8
sa(dp68
g63
I0
sg64
F0.6253759860992432
sg65
F1.786834716796875
sg66
I5
sg67
I5
sa(dp69
g63
I1
sg64
F0.44710803031921387
sg65
F1.7511959075927734
sg66
I3
sg67
I3
sa(dp70
g63
I2
sg64
F0.00937795639038086
sg65
F0.01745295524597168
sg66
I2
sg67
I2
sasS'total_cqs'
p71
I8
ssI6
(dp72
S'iters'
p73
I4
sS'meta'
p74
(lp75
(dp76
S'objective'
p77
I49
sS'query_time'
p78
F37.59536385536194
sS'comp_time'
p79
F2.108799934387207
sS'exec_cq'
p80
I18
sS'total_cq'
p81
I18
sa(dp82
g77
I1
sg78
F0.6817870140075684
sg79
F2.76842999458313
sg80
I7
sg81
I7
sa(dp83
g77
I6
sg78
F0.4119749069213867
sg79
F0.8276247978210449
sg80
I4
sg81
I4
sa(dp84
g77
I0
sg78
F0.273104190826416
sg79
F1.3028061389923096
sg80
I3
sg81
I3
sasS'total_cqs'
p85
I18
ssI7
(dp86
S'iters'
p87
I3
sS'meta'
p88
(lp89
(dp90
S'objective'
p91
I1
sS'query_time'
p92
F12.10698914527893
sS'comp_time'
p93
F0.8076858520507812
sS'exec_cq'
p94
I9
sS'total_cq'
p95
I9
sa(dp96
g91
I0
sg92
F0.07287812232971191
sg93
F0.4781959056854248
sg94
I6
sg95
I6
sa(dp97
g91
I3
sg92
F0.04943394660949707
sg93
F0.23171496391296387
sg94
I2
sg95
I2
sasS'total_cqs'
p98
I9
ssI8
(dp99
S'iters'
p100
I5
sS'meta'
p101
(lp102
(dp103
S'objective'
p104
I250
sS'query_time'
p105
F0.14600706100463867
sS'comp_time'
p106
F0.037311553955078125
sS'exec_cq'
p107
I27
sS'total_cq'
p108
I27
sa(dp109
g104
I186
sg105
F0.00019288063049316406
sg106
F0.0007855892181396484
sg107
I24
sg108
I24
sa(dp110
g104
I206
sg105
F7.605552673339844e-05
sg106
F0.0002319812774658203
sg107
I19
sg108
I19
sa(dp111
g104
I206
sg105
F8.511543273925781e-05
sg106
F0.00012683868408203125
sg107
I18
sg108
I18
sa(dp112
g104
I201
sg105
F6.699562072753906e-05
sg106
F9.036064147949219e-05
sg107
I17
sg108
I17
sasS'total_cqs'
p113
I27
ssI9
(dp114
S'iters'
p115
I3
sS'meta'
p116
(lp117
(dp118
S'objective'
p119
I4
sS'query_time'
p120
F0.05020594596862793
sS'comp_time'
p121
F0.0058345794677734375
sS'exec_cq'
p122
I7
sS'total_cq'
p123
I7
sa(dp124
g119
I2
sg120
F0.0012428760528564453
sg121
F0.0006668567657470703
sg122
I5
sg123
I5
sa(dp125
g119
I3
sg120
F1.8835067749023438e-05
sg121
F0.00010371208190917969
sg122
I2
sg123
I2
sasS'total_cqs'
p126
I7
ssI10
(dp127
S'iters'
p128
I6
sS'meta'
p129
(lp130
(dp131
S'objective'
p132
I408
sS'query_time'
p133
F0.38326191902160645
sS'comp_time'
p134
F0.09688472747802734
sS'exec_cq'
p135
I51
sS'total_cq'
p136
I51
sa(dp137
g132
I359
sg133
F0.0004999637603759766
sg134
F0.003473043441772461
sg135
I37
sg136
I37
sa(dp138
g132
I289
sg133
F0.000286102294921875
sg134
F0.0013802051544189453
sg135
I25
sg136
I25
sa(dp139
g132
I315
sg133
F9.703636169433594e-05
sg134
F0.00039839744567871094
sg135
I21
sg136
I21
sa(dp140
g132
I32
sg133
F0.0017120838165283203
sg134
F0.0003516674041748047
sg135
I3
sg136
I3
sa(dp141
g132
I10
sg133
F2.002716064453125e-05
sg134
F9.512901306152344e-05
sg135
I2
sg136
I2
sasS'total_cqs'
p142
I51
ssI11
(dp143
S'iters'
p144
I6
sS'meta'
p145
(lp146
(dp147
S'objective'
p148
I846
sS'query_time'
p149
F0.7281429767608643
sS'comp_time'
p150
F0.15956473350524902
sS'exec_cq'
p151
I63
sS'total_cq'
p152
I63
sa(dp153
g148
I829
sg149
F0.0013020038604736328
sg150
F0.004762411117553711
sg151
I47
sg152
I47
sa(dp154
g148
I29
sg149
F0.0019419193267822266
sg150
F0.003270864486694336
sg151
I9
sg152
I9
sa(dp155
g148
I19
sg149
F3.910064697265625e-05
sg150
F0.00022983551025390625
sg151
I5
sg152
I5
sa(dp156
g148
I16
sg149
F2.288818359375e-05
sg150
F0.00012183189392089844
sg151
I3
sg152
I3
sa(dp157
g148
I4
sg149
F1.6927719116210938e-05
sg150
F0.0001373291015625
sg151
I2
sg152
I2
sasS'total_cqs'
p158
I63
ssI12
(dp159
S'iters'
p160
I6
sS'meta'
p161
(lp162
(dp163
S'objective'
p164
I579
sS'query_time'
p165
F0.34089040756225586
sS'comp_time'
p166
F0.07799434661865234
sS'exec_cq'
p167
I50
sS'total_cq'
p168
I50
sa(dp169
g164
I417
sg165
F0.0006151199340820312
sg166
F0.002884387969970703
sg167
I33
sg168
I33
sa(dp170
g164
I518
sg165
F0.00018596649169921875
sg166
F0.0009229183197021484
sg167
I26
sg168
I26
sa(dp171
g164
I9
sg165
F0.0019102096557617188
sg166
F0.0005617141723632812
sg167
I5
sg168
I5
sa(dp172
g164
I5
sg165
F3.2901763916015625e-05
sg166
F0.00015807151794433594
sg167
I3
sg168
I3
sa(dp173
g164
I4
sg165
F2.3126602172851562e-05
sg166
F0.00010013580322265625
sg167
I2
sg168
I2
sasS'total_cqs'
p174
I50
ssI13
(dp175
S'iters'
p176
I3
sS'meta'
p177
(lp178
(dp179
S'objective'
p180
I6
sS'query_time'
p181
F0.1903369426727295
sS'comp_time'
p182
F0.026329994201660156
sS'exec_cq'
p183
I20
sS'total_cq'
p184
I20
sa(dp185
g180
I88
sg181
F8.392333984375e-05
sg182
F0.0005588531494140625
sg183
I9
sg184
I9
sa(dp186
g180
I2
sg181
F0.00905609130859375
sg182
F0.000244140625
sg183
I2
sg184
I2
sasS'total_cqs'
p187
I20
ssI14
(dp188
S'iters'
p189
I3
sS'meta'
p190
(lp191
(dp192
S'objective'
p193
I1
sS'query_time'
p194
F33.35705614089966
sS'comp_time'
p195
F1.0095460414886475
sS'exec_cq'
p196
I9
sS'total_cq'
p197
I9
sa(dp198
g193
I2
sg194
F0.09584403038024902
sg195
F0.43245673179626465
sg196
I4
sg197
I4
sa(dp199
g193
I2
sg194
F0.0050199031829833984
sg195
F0.010960817337036133
sg196
I2
sg197
I2
sasS'total_cqs'
p200
I9
ssI15
(dp201
S'iters'
p202
I4
sS'meta'
p203
(lp204
(dp205
S'objective'
p206
I0
sS'query_time'
p207
F3.702423095703125
sS'comp_time'
p208
F0.09666585922241211
sS'exec_cq'
p209
I11
sS'total_cq'
p210
I11
sa(dp211
g206
I1
sg207
F0.04380607604980469
sg208
F0.16275882720947266
sg209
I6
sg210
I6
sa(dp212
g206
I2
sg207
F0.013343095779418945
sg208
F0.022936582565307617
sg209
I3
sg210
I3
sa(dp213
g206
I1
sg207
F0.011960029602050781
sg208
F0.02488994598388672
sg209
I2
sg210
I2
sasS'total_cqs'
p214
I11
ssI16
(dp215
S'iters'
p216
I1
sS'meta'
p217
(lp218
(dp219
S'objective'
p220
I30
sS'query_time'
p221
F0.06463479995727539
sS'comp_time'
p222
F0.004003047943115234
sS'exec_cq'
p223
I8
sS'total_cq'
p224
I8
sasS'total_cqs'
p225
I8
ssI17
(dp226
S'iters'
p227
I4
sS'meta'
p228
(lp229
(dp230
S'objective'
p231
I2
sS'query_time'
p232
F1.041438102722168
sS'comp_time'
p233
F0.05604362487792969
sS'exec_cq'
p234
I11
sS'total_cq'
p235
I11
sa(dp236
g231
I0
sg232
F0.009930133819580078
sg233
F0.011424541473388672
sg234
I5
sg235
I5
sa(dp237
g231
I2
sg232
F0.0025560855865478516
sg233
F0.004638195037841797
sg234
I3
sg235
I3
sa(dp238
g231
I1
sg232
F0.0024890899658203125
sg233
F0.0042417049407958984
sg234
I2
sg235
I2
sasS'total_cqs'
p239
I11
ssI18
(dp240
S'iters'
p241
I3
sS'meta'
p242
(lp243
(dp244
S'objective'
p245
I24
sS'query_time'
p246
F0.257112979888916
sS'comp_time'
p247
F0.025532960891723633
sS'exec_cq'
p248
I11
sS'total_cq'
p249
I11
sa(dp250
g245
I27
sg246
F0.0003571510314941406
sg247
F0.0008335113525390625
sg248
I8
sg249
I8
sa(dp251
g245
I28
sg246
F3.2901763916015625e-05
sg247
F6.604194641113281e-05
sg248
I6
sg249
I7
sasS'total_cqs'
p252
I11
ssI19
(dp253
S'iters'
p254
I0
sS'meta'
p255
(lp256
sS'total_cqs'
p257
I1
ssI20
(dp258
S'iters'
p259
I0
sS'meta'
p260
(lp261
sS'total_cqs'
p262
I1
ssI21
(dp263
S'iters'
p264
I0
sS'meta'
p265
(lp266
sS'total_cqs'
p267
I1
ssI22
(dp268
S'iters'
p269
I1
sS'meta'
p270
(lp271
(dp272
S'objective'
p273
I159
sS'query_time'
p274
F0.08509707450866699
sS'comp_time'
p275
F0.02971625328063965
sS'exec_cq'
p276
I18
sS'total_cq'
p277
I18
sasS'total_cqs'
p278
I18
ssI23
(dp279
S'iters'
p280
I3
sS'meta'
p281
(lp282
(dp283
S'objective'
p284
I116
sS'query_time'
p285
F0.07332015037536621
sS'comp_time'
p286
F0.02374720573425293
sS'exec_cq'
p287
I16
sS'total_cq'
p288
I16
sa(dp289
g284
I108
sg285
F9.107589721679688e-05
sg286
F0.00015807151794433594
sg287
I15
sg288
I15
sa(dp290
g284
I107
sg285
F5.6743621826171875e-05
sg286
F0.00011420249938964844
sg287
I13
sg288
I13
sasS'total_cqs'
p291
I16
ssI24
(dp292
S'iters'
p293
I0
sS'meta'
p294
(lp295
sS'total_cqs'
p296
I1
ssI25
(dp297
S'iters'
p298
I0
sS'meta'
p299
(lp300
sS'total_cqs'
p301
I1
ssI26
(dp302
S'iters'
p303
I1
sS'meta'
p304
(lp305
(dp306
S'objective'
p307
I879
sS'query_time'
p308
F0.12943792343139648
sS'comp_time'
p309
F0.12028694152832031
sS'exec_cq'
p310
I42
sS'total_cq'
p311
I42
sasS'total_cqs'
p312
I42
ssI27
(dp313
S'iters'
p314
I4
sS'meta'
p315
(lp316
(dp317
S'objective'
p318
I363
sS'query_time'
p319
F22.273110151290894
sS'comp_time'
p320
F1.7250218391418457
sS'exec_cq'
p321
I30
sS'total_cq'
p322
I30
sa(dp323
g318
I1
sg319
F0.46271514892578125
sg320
F1.5334503650665283
sg321
I5
sg322
I5
sa(dp324
g318
I3
sg319
F0.230543851852417
sg320
F0.33460330963134766
sg321
I3
sg322
I3
sa(dp325
g318
I7
sg319
F0.20105814933776855
sg320
F0.28471803665161133
sg321
I2
sg322
I2
sasS'total_cqs'
p326
I30
ssI28
(dp327
S'iters'
p328
I0
sS'meta'
p329
(lp330
sS'total_cqs'
p331
I1
ssI29
(dp332
S'iters'
p333
I6
sS'meta'
p334
(lp335
(dp336
S'objective'
p337
I431
sS'query_time'
p338
F146.35846304893494
sS'comp_time'
p339
F8.3184072971344
sS'exec_cq'
p340
I49
sS'total_cq'
p341
I49
sa(dp342
g337
I13
sg338
F0.0029840469360351562
sg339
F0.00958395004272461
sg340
I16
sg341
I16
sa(dp343
g337
I6
sg338
F0.0011820793151855469
sg339
F0.006362199783325195
sg340
I10
sg341
I10
sa(dp344
g337
I5
sg338
F0.0010590553283691406
sg339
F0.00512242317199707
sg340
I7
sg341
I7
sa(dp345
g337
I12
sg338
F0.0007588863372802734
sg339
F0.0012781620025634766
sg340
I4
sg341
I4
sa(dp346
g337
I4
sg338
F0.0006489753723144531
sg339
F0.001146554946899414
sg340
I3
sg341
I3
sasS'total_cqs'
p347
I49
ssI30
(dp348
S'iters'
p349
I1
sS'meta'
p350
(lp351
(dp352
S'objective'
p353
I1
sS'query_time'
p354
F0.6829490661621094
sS'comp_time'
p355
F0.012848138809204102
sS'exec_cq'
p356
I2
sS'total_cq'
p357
I2
sasS'total_cqs'
p358
I2
ssI31
(dp359
S'iters'
p360
I0
sS'meta'
p361
(lp362
sS'total_cqs'
p363
I1
ssI32
(dp364
S'iters'
p365
I1
sS'meta'
p366
(lp367
(dp368
S'objective'
p369
I1
sS'query_time'
p370
F0.013319969177246094
sS'comp_time'
p371
F0.0016727447509765625
sS'exec_cq'
p372
I2
sS'total_cq'
p373
I2
sasS'total_cqs'
p374
I2
ssI33
(dp375
S'iters'
p376
I6
sS'meta'
p377
(lp378
(dp379
S'objective'
p380
I3682
sS'query_time'
p381
F15.972105979919434
sS'comp_time'
p382
F0.9369418621063232
sS'exec_cq'
p383
I103
sS'total_cq'
p384
I103
sa(dp385
g380
I45
sg381
F0.009506940841674805
sg382
F0.08204364776611328
sg383
I16
sg384
I16
sa(dp386
g380
I3
sg381
F0.005703926086425781
sg382
F0.03109574317932129
sg383
I10
sg384
I10
sa(dp387
g380
I16
sg381
F0.002017974853515625
sg382
F0.004911184310913086
sg383
I5
sg384
I5
sa(dp388
g380
I1
sg381
F0.0009248256683349609
sg382
F0.001744985580444336
sg383
I3
sg384
I3
sa(dp389
g380
I6
sg381
F0.00029087066650390625
sg382
F0.0005910396575927734
sg383
I2
sg384
I2
sasS'total_cqs'
p390
I103
ssI34
(dp391
S'iters'
p392
I1
sS'meta'
p393
(lp394
(dp395
S'objective'
p396
I1
sS'query_time'
p397
F0.015085935592651367
sS'comp_time'
p398
F0.002040863037109375
sS'exec_cq'
p399
I2
sS'total_cq'
p400
I2
sasS'total_cqs'
p401
I2
ssI35
(dp402
S'iters'
p403
I5
sS'meta'
p404
(lp405
(dp406
S'objective'
p407
I1295
sS'query_time'
p408
F68.76961088180542
sS'comp_time'
p409
F2.358419179916382
sS'exec_cq'
p410
I70
sS'total_cq'
p411
I70
sa(dp412
g407
I63
sg408
F0.004511117935180664
sg409
F0.015267610549926758
sg410
I16
sg411
I16
sa(dp413
g407
I2
sg408
F0.0016291141510009766
sg409
F0.002920389175415039
sg410
I7
sg411
I7
sa(dp414
g407
I0
sg408
F0.0010759830474853516
sg409
F0.001463174819946289
sg410
I3
sg411
I3
sa(dp415
g407
I28
sg408
F0.0003561973571777344
sg409
F0.0006651878356933594
sg410
I2
sg411
I2
sasS'total_cqs'
p416
I70
ssI36
(dp417
S'iters'
p418
I5
sS'meta'
p419
(lp420
(dp421
S'objective'
p422
I417
sS'query_time'
p423
F0.8011770248413086
sS'comp_time'
p424
F0.1524202823638916
sS'exec_cq'
p425
I33
sS'total_cq'
p426
I33
sa(dp427
g422
I355
sg423
F0.009424924850463867
sg424
F0.021265745162963867
sg425
I29
sg426
I29
sa(dp428
g422
I356
sg423
F0.0031020641326904297
sg424
F0.00508570671081543
sg425
I25
sg426
I25
sa(dp429
g422
I355
sg423
F0.0007197856903076172
sg424
F0.0005478858947753906
sg425
I24
sg426
I24
sa(dp430
g422
I352
sg423
F0.000164031982421875
sg424
F0.0003142356872558594
sg425
I23
sg426
I23
sasS'total_cqs'
p431
I33
ssI37
(dp432
S'iters'
p433
I1
sS'meta'
p434
(lp435
(dp436
S'objective'
p437
I1
sS'query_time'
p438
F0.04623985290527344
sS'comp_time'
p439
F0.0013151168823242188
sS'exec_cq'
p440
I2
sS'total_cq'
p441
I2
sasS'total_cqs'
p442
I2
ssI38
(dp443
S'iters'
p444
I2
sS'meta'
p445
(lp446
(dp447
S'objective'
p448
I0
sS'query_time'
p449
F0.02451920509338379
sS'comp_time'
p450
F0.0029976367950439453
sS'exec_cq'
p451
I4
sS'total_cq'
p452
I4
sa(dp453
g448
I1
sg449
F9.107589721679688e-05
sg450
F0.00016379356384277344
sg451
I2
sg452
I2
sasS'total_cqs'
p454
I4
ssI39
(dp455
S'iters'
p456
I2
sS'meta'
p457
(lp458
(dp459
S'objective'
p460
I644
sS'query_time'
p461
F0.14444208145141602
sS'comp_time'
p462
F0.14226984977722168
sS'exec_cq'
p463
I44
sS'total_cq'
p464
I44
sa(dp465
g460
I793
sg461
F0.0003330707550048828
sg462
F0.0009369850158691406
sg463
I37
sg464
I37
sasS'total_cqs'
p466
I44
ssI40
(dp467
S'iters'
p468
I1
sS'meta'
p469
(lp470
(dp471
S'objective'
p472
I22
sS'query_time'
p473
F0.06349301338195801
sS'comp_time'
p474
F0.006138324737548828
sS'exec_cq'
p475
I7
sS'total_cq'
p476
I7
sasS'total_cqs'
p477
I7
ssI41
(dp478
S'iters'
p479
I2
sS'meta'
p480
(lp481
(dp482
S'objective'
p483
I56
sS'query_time'
p484
F0.06990289688110352
sS'comp_time'
p485
F0.01704692840576172
sS'exec_cq'
p486
I12
sS'total_cq'
p487
I12
sa(dp488
g483
I59
sg484
F6.389617919921875e-05
sg485
F0.00012159347534179688
sg486
I11
sg487
I11
sasS'total_cqs'
p489
I12
ssI42
(dp490
S'iters'
p491
I3
sS'meta'
p492
(lp493
(dp494
S'objective'
p495
I825
sS'query_time'
p496
F0.12939786911010742
sS'comp_time'
p497
F0.0717160701751709
sS'exec_cq'
p498
I41
sS'total_cq'
p499
I41
sa(dp500
g495
I809
sg496
F0.0002219676971435547
sg497
F0.0002932548522949219
sg498
I40
sg499
I40
sa(dp501
g495
I802
sg496
F0.00016689300537109375
sg497
F0.00020241737365722656
sg498
I39
sg499
I39
sasS'total_cqs'
p502
I41
ssI43
(dp503
S'iters'
p504
I1
sS'meta'
p505
(lp506
(dp507
S'objective'
p508
I22
sS'query_time'
p509
F0.02850484848022461
sS'comp_time'
p510
F0.007086277008056641
sS'exec_cq'
p511
I7
sS'total_cq'
p512
I7
sasS'total_cqs'
p513
I7
ssI44
(dp514
S'iters'
p515
I4
sS'meta'
p516
(lp517
(dp518
S'objective'
p519
I772
sS'query_time'
p520
F0.23230814933776855
sS'comp_time'
p521
F0.09602689743041992
sS'exec_cq'
p522
I47
sS'total_cq'
p523
I47
sa(dp524
g519
I884
sg520
F0.00032401084899902344
sg521
F0.0010800361633300781
sg522
I40
sg523
I40
sa(dp525
g519
I5
sg520
F0.0015399456024169922
sg521
F0.0013277530670166016
sg522
I3
sg523
I3
sa(dp526
g519
I12
sg520
F2.7894973754882812e-05
sg521
F0.00011491775512695312
sg522
I2
sg523
I2
sasS'total_cqs'
p527
I47
ssI45
(dp528
S'iters'
p529
I0
sS'meta'
p530
(lp531
sS'total_cqs'
p532
I1
ssI46
(dp533
S'iters'
p534
I3
sS'meta'
p535
(lp536
(dp537
S'objective'
p538
I9
sS'query_time'
p539
F0.019706010818481445
sS'comp_time'
p540
F0.002852916717529297
sS'exec_cq'
p541
I4
sS'total_cq'
p542
I6
sa(dp543
g538
I5
sg539
F5.888938903808594e-05
sg540
F0.0001709461212158203
sg541
I3
sg542
I5
sa(dp544
g538
I4
sg539
F0.008250951766967773
sg540
F8.106231689453125e-05
sg541
I4
sg542
I4
sasS'total_cqs'
p545
I6
ssI47
(dp546
S'iters'
p547
I1
sS'meta'
p548
(lp549
(dp550
S'objective'
p551
I1
sS'query_time'
p552
F0.05416584014892578
sS'comp_time'
p553
F0.0011751651763916016
sS'exec_cq'
p554
I2
sS'total_cq'
p555
I2
sasS'total_cqs'
p556
I2
ssI48
(dp557
S'iters'
p558
I0
sS'meta'
p559
(lp560
sS'total_cqs'
p561
I1
ssI49
(dp562
S'iters'
p563
I0
sS'meta'
p564
(lp565
sS'total_cqs'
p566
I1
ssI50
(dp567
S'iters'
p568
I3
sS'meta'
p569
(lp570
(dp571
S'objective'
p572
I5
sS'query_time'
p573
F0.016196012496948242
sS'comp_time'
p574
F0.002081632614135742
sS'exec_cq'
p575
I5
sS'total_cq'
p576
I5
sa(dp577
g572
I2
sg573
F3.0040740966796875e-05
sg574
F0.0001380443572998047
sg575
I4
sg576
I4
sa(dp578
g572
I0
sg573
F2.3126602172851562e-05
sg574
F0.00010395050048828125
sg575
I3
sg576
I3
sasS'total_cqs'
p579
I5
ssI51
(dp580
S'iters'
p581
I1
sS'meta'
p582
(lp583
(dp584
S'objective'
p585
I1
sS'query_time'
p586
F0.012974023818969727
sS'comp_time'
p587
F0.0010001659393310547
sS'exec_cq'
p588
I2
sS'total_cq'
p589
I2
sasS'total_cqs'
p590
I2
ssI52
(dp591
S'iters'
p592
I1
sS'meta'
p593
(lp594
(dp595
S'objective'
p596
I1
sS'query_time'
p597
F0.01448202133178711
sS'comp_time'
p598
F0.0008478164672851562
sS'exec_cq'
p599
I2
sS'total_cq'
p600
I2
sasS'total_cqs'
p601
I2
ssI53
(dp602
S'iters'
p603
I3
sS'meta'
p604
(lp605
(dp606
S'objective'
p607
I4
sS'query_time'
p608
F0.027328968048095703
sS'comp_time'
p609
F0.0030128955841064453
sS'exec_cq'
p610
I4
sS'total_cq'
p611
I4
sa(dp612
g607
I1
sg608
F0.00011491775512695312
sg609
F0.0004229545593261719
sg610
I3
sg611
I3
sa(dp613
g607
I1
sg608
F0.0001010894775390625
sg609
F0.00022602081298828125
sg610
I2
sg611
I2
sasS'total_cqs'
p614
I4
ssI54
(dp615
S'iters'
p616
I2
sS'meta'
p617
(lp618
(dp619
S'objective'
p620
I0
sS'query_time'
p621
F0.01685309410095215
sS'comp_time'
p622
F0.0019102096557617188
sS'exec_cq'
p623
I3
sS'total_cq'
p624
I3
sa(dp625
g620
I1
sg621
F4.8160552978515625e-05
sg622
F0.00014591217041015625
sg623
I2
sg624
I2
sasS'total_cqs'
p626
I3
ssI55
(dp627
S'iters'
p628
I7
sS'meta'
p629
(lp630
(dp631
S'objective'
p632
I4929
sS'query_time'
p633
F2.843796968460083
sS'comp_time'
p634
F0.7245998382568359
sS'exec_cq'
p635
I109
sS'total_cq'
p636
I109
sa(dp637
g632
I4636
sg633
F0.001378774642944336
sg634
F0.022534847259521484
sg635
I97
sg636
I97
sa(dp638
g632
I4397
sg633
F0.0005340576171875
sg634
F0.0046999454498291016
sg635
I91
sg636
I91
sa(dp639
g632
I4351
sg633
F0.0004718303680419922
sg634
F0.0025229454040527344
sg635
I87
sg636
I87
sa(dp640
g632
I4357
sg633
F0.00042891502380371094
sg634
F0.0013523101806640625
sg635
I85
sg636
I85
sa(dp641
g632
I4379
sg633
F0.00042891502380371094
sg634
F0.0010571479797363281
sg635
I83
sg636
I83
sa(dp642
g632
I4355
sg633
F0.0004010200500488281
sg634
F0.0007500648498535156
sg635
I82
sg636
I82
sasS'total_cqs'
p643
I109
ssI56
(dp644
S'iters'
p645
I5
sS'meta'
p646
(lp647
(dp648
S'objective'
p649
I1898
sS'query_time'
p650
F1.5800418853759766
sS'comp_time'
p651
F0.31827616691589355
sS'exec_cq'
p652
I67
sS'total_cq'
p653
I76
sa(dp654
g649
I6
sg650
F0.006575822830200195
sg651
F0.05163764953613281
sg652
I16
sg653
I16
sa(dp655
g649
I26
sg650
F0.0011868476867675781
sg651
F0.0047283172607421875
sg652
I6
sg653
I6
sa(dp656
g649
I5
sg650
F0.0009241104125976562
sg651
F0.0013341903686523438
sg652
I3
sg653
I3
sa(dp657
g649
I21
sg650
F0.0007920265197753906
sg651
F0.0013248920440673828
sg652
I2
sg653
I2
sasS'total_cqs'
p658
I76
ssI57
(dp659
S'iters'
p660
I6
sS'meta'
p661
(lp662
(dp663
S'objective'
p664
I78
sS'query_time'
p665
F25.324828147888184
sS'comp_time'
p666
F0.16428518295288086
sS'exec_cq'
p667
I45
sS'total_cq'
p668
I51
sa(dp669
g664
I58
sg665
F0.015996932983398438
sg666
F0.027331113815307617
sg667
I27
sg668
I27
sa(dp670
g664
I1
sg665
F0.0024330615997314453
sg666
F0.0077283382415771484
sg667
I12
sg668
I12
sa(dp671
g664
I5
sg665
F0.0010368824005126953
sg666
F0.0072629451751708984
sg667
I6
sg668
I6
sa(dp672
g664
I5
sg665
F0.00021505355834960938
sg666
F0.0004367828369140625
sg667
I3
sg668
I3
sa(dp673
g664
I6
sg665
F0.00018596649169921875
sg666
F0.00034809112548828125
sg667
I2
sg668
I2
sasS'total_cqs'
p674
I51
ssI58
(dp675
S'iters'
p676
I7
sS'meta'
p677
(lp678
(dp679
S'objective'
p680
I82837
sS'query_time'
p681
F323.5799777507782
sS'comp_time'
p682
F26.826605796813965
sS'exec_cq'
p683
I486
sS'total_cq'
p684
I486
sa(dp685
g680
I87457
sg681
F5.530357837677002
sg682
F9.364943265914917
sg683
I414
sg684
I414
sa(dp686
g680
I62
sg681
F0.016119956970214844
sg682
F0.1849651336669922
sg683
I28
sg684
I28
sa(dp687
g680
I6
sg681
F0.012260913848876953
sg682
F1.7846403121948242
sg683
I15
sg684
I15
sa(dp688
g680
I1
sg681
F0.0037899017333984375
sg682
F0.010639190673828125
sg683
I9
sg684
I9
sa(dp689
g680
I84
sg681
F0.0018229484558105469
sg682
F0.002686023712158203
sg683
I4
sg684
I4
sa(dp690
g680
I202
sg681
F0.0009710788726806641
sg682
F0.0014617443084716797
sg683
I2
sg684
I2
sasS'total_cqs'
p691
I486
ssI59
(dp692
S'iters'
p693
I2
sS'meta'
p694
(lp695
(dp696
S'objective'
p697
I18
sS'query_time'
p698
F0.04862189292907715
sS'comp_time'
p699
F0.008855342864990234
sS'exec_cq'
p700
I7
sS'total_cq'
p701
I7
sa(dp702
g697
I1
sg698
F0.0001850128173828125
sg699
F0.00041103363037109375
sg700
I2
sg701
I2
sasS'total_cqs'
p703
I7
ssI60
(dp704
S'iters'
p705
I3
sS'meta'
p706
(lp707
(dp708
S'objective'
p709
I5
sS'query_time'
p710
F0.017141103744506836
sS'comp_time'
p711
F0.0032007694244384766
sS'exec_cq'
p712
I4
sS'total_cq'
p713
I5
sa(dp714
g709
I2
sg710
F1.3113021850585938e-05
sg711
F3.886222839355469e-05
sg712
I1
sg713
I4
sa(dp715
g709
I0
sg710
F1.9788742065429688e-05
sg711
F8.106231689453125e-05
sg712
I2
sg713
I3
sasS'total_cqs'
p716
I5
ssI61
(dp717
S'iters'
p718
I0
sS'meta'
p719
(lp720
sS'total_cqs'
p721
I1
ssI62
(dp722
S'iters'
p723
I3
sS'meta'
p724
(lp725
(dp726
S'objective'
p727
I20
sS'query_time'
p728
F0.0324711799621582
sS'comp_time'
p729
F0.018943071365356445
sS'exec_cq'
p730
I12
sS'total_cq'
p731
I12
sa(dp732
g727
I39
sg728
F5.1021575927734375e-05
sg729
F0.00014591217041015625
sg730
I9
sg731
I9
sa(dp733
g727
I36
sg728
F3.695487976074219e-05
sg729
F7.414817810058594e-05
sg730
I8
sg731
I8
sasS'total_cqs'
p734
I12
ssI63
(dp735
S'iters'
p736
I0
sS'meta'
p737
(lp738
sS'total_cqs'
p739
I1
ssI64
(dp740
S'iters'
p741
I4
sS'meta'
p742
(lp743
(dp744
S'objective'
p745
I24
sS'query_time'
p746
F0.11449694633483887
sS'comp_time'
p747
F0.034593820571899414
sS'exec_cq'
p748
I12
sS'total_cq'
p749
I12
sa(dp750
g745
I3
sg746
F0.00020503997802734375
sg747
F0.0007557868957519531
sg748
I4
sg749
I4
sa(dp751
g745
I1
sg746
F0.0001430511474609375
sg747
F0.0004329681396484375
sg748
I3
sg749
I3
sa(dp752
g745
I1
sg746
F4.601478576660156e-05
sg747
F0.00010991096496582031
sg748
I2
sg749
I2
sasS'total_cqs'
p753
I12
ssI65
(dp754
S'iters'
p755
I4
sS'meta'
p756
(lp757
(dp758
S'objective'
p759
I134
sS'query_time'
p760
F0.8653819561004639
sS'comp_time'
p761
F0.121917724609375
sS'exec_cq'
p762
I27
sS'total_cq'
p763
I27
sa(dp764
g759
I4
sg760
F0.0021979808807373047
sg761
F0.0026199817657470703
sg762
I7
sg763
I7
sa(dp765
g759
I5
sg760
F0.00015497207641601562
sg761
F0.00037860870361328125
sg762
I3
sg763
I3
sa(dp766
g759
I16
sg760
F8.606910705566406e-05
sg761
F0.00020074844360351562
sg762
I2
sg763
I2
sasS'total_cqs'
p767
I27
ssI66
(dp768
S'iters'
p769
I0
sS'meta'
p770
(lp771
sS'total_cqs'
p772
I1
ssI67
(dp773
S'iters'
p774
I2
sS'meta'
p775
(lp776
(dp777
S'objective'
p778
I558
sS'query_time'
p779
F1.0569281578063965
sS'comp_time'
p780
F0.08580422401428223
sS'exec_cq'
p781
I35
sS'total_cq'
p782
I35
sa(dp783
g778
I16
sg779
F0.0025489330291748047
sg780
F0.005153179168701172
sg781
I2
sg782
I2
sasS'total_cqs'
p784
I35
ssI68
(dp785
S'iters'
p786
I0
sS'meta'
p787
(lp788
sS'total_cqs'
p789
I1
ssI69
(dp790
S'iters'
p791
I1
sS'meta'
p792
(lp793
(dp794
S'objective'
p795
I1298
sS'query_time'
p796
F0.18580198287963867
sS'comp_time'
p797
F0.19377875328063965
sS'exec_cq'
p798
I51
sS'total_cq'
p799
I51
sasS'total_cqs'
p800
I51
ssI70
(dp801
S'iters'
p802
I2
sS'meta'
p803
(lp804
(dp805
S'objective'
p806
I9
sS'query_time'
p807
F0.023195981979370117
sS'comp_time'
p808
F0.0035829544067382812
sS'exec_cq'
p809
I6
sS'total_cq'
p810
I6
sa(dp811
g806
I9
sg807
F4.696846008300781e-05
sg808
F0.00014781951904296875
sg809
I5
sg810
I5
sasS'total_cqs'
p812
I6
ssI71
(dp813
S'iters'
p814
I4
sS'meta'
p815
(lp816
(dp817
S'objective'
p818
I3419
sS'query_time'
p819
F0.35950589179992676
sS'comp_time'
p820
F0.4371607303619385
sS'exec_cq'
p821
I85
sS'total_cq'
p822
I85
sa(dp823
g818
I3307
sg819
F0.0004589557647705078
sg820
F0.0013537406921386719
sg821
I83
sg822
I83
sa(dp824
g818
I5
sg819
F0.002125978469848633
sg820
F0.004286289215087891
sg821
I3
sg822
I3
sa(dp825
g818
I14
sg819
F0.003264904022216797
sg820
F0.0001392364501953125
sg821
I2
sg822
I2
sasS'total_cqs'
p826
I85
ssI72
(dp827
S'iters'
p828
I4
sS'meta'
p829
(lp830
(dp831
S'objective'
p832
I12
sS'query_time'
p833
F0.36443185806274414
sS'comp_time'
p834
F0.00818324089050293
sS'exec_cq'
p835
I8
sS'total_cq'
p836
I8
sa(dp837
g832
I2
sg833
F0.0004119873046875
sg834
F0.0008001327514648438
sg835
I6
sg836
I6
sa(dp838
g832
I1
sg833
F0.0003638267517089844
sg834
F0.0008471012115478516
sg835
I4
sg836
I4
sa(dp839
g832
I0
sg833
F0.0002968311309814453
sg834
F0.0008599758148193359
sg835
I3
sg836
I3
sasS'total_cqs'
p840
I8
ssI73
(dp841
S'iters'
p842
I0
sS'meta'
p843
(lp844
sS'total_cqs'
p845
I1
ssI74
(dp846
S'iters'
p847
I0
sS'meta'
p848
(lp849
sS'total_cqs'
p850
I1
ssI75
(dp851
S'iters'
p852
I3
sS'meta'
p853
(lp854
(dp855
S'objective'
p856
I5
sS'query_time'
p857
F0.010579109191894531
sS'comp_time'
p858
F0.0016760826110839844
sS'exec_cq'
p859
I5
sS'total_cq'
p860
I5
sa(dp861
g856
I2
sg857
F2.4080276489257812e-05
sg858
F0.00010514259338378906
sg859
I4
sg860
I4
sa(dp862
g856
I0
sg857
F1.5020370483398438e-05
sg858
F7.319450378417969e-05
sg859
I3
sg860
I3
sasS'total_cqs'
p863
I5
ssI76
(dp864
S'iters'
p865
I1
sS'meta'
p866
(lp867
(dp868
S'objective'
p869
I1
sS'query_time'
p870
F0.010175943374633789
sS'comp_time'
p871
F0.0008974075317382812
sS'exec_cq'
p872
I2
sS'total_cq'
p873
I2
sasS'total_cqs'
p874
I2
ssI77
(dp875
S'iters'
p876
I0
sS'meta'
p877
(lp878
sS'total_cqs'
p879
I1
ssI78
(dp880
S'iters'
p881
I0
sS'meta'
p882
(lp883
sS'total_cqs'
p884
I1
ssI103
(dp885
S'iters'
p886
I2
sS'meta'
p887
(lp888
(dp889
S'objective'
p890
I56
sS'query_time'
p891
F0.06267404556274414
sS'comp_time'
p892
F0.015262365341186523
sS'exec_cq'
p893
I12
sS'total_cq'
p894
I12
sa(dp895
g890
I59
sg891
F5.1975250244140625e-05
sg892
F9.107589721679688e-05
sg893
I11
sg894
I11
sasS'total_cqs'
p896
I12
ssI104
(dp897
S'iters'
p898
I2
sS'meta'
p899
(lp900
(dp901
S'objective'
p902
I0
sS'query_time'
p903
F1.3488988876342773
sS'comp_time'
p904
F0.028682231903076172
sS'exec_cq'
p905
I4
sS'total_cq'
p906
I4
sa(dp907
g902
I1
sg903
F0.013124942779541016
sg904
F0.24698591232299805
sg905
I2
sg906
I2
sasS'total_cqs'
p908
I4
ssI105
(dp909
S'iters'
p910
I0
sS'meta'
p911
(lp912
sS'total_cqs'
p913
I1
ssI106
(dp914
S'iters'
p915
I1
sS'meta'
p916
(lp917
(dp918
S'objective'
p919
I6
sS'query_time'
p920
F0.01947808265686035
sS'comp_time'
p921
F0.0025582313537597656
sS'exec_cq'
p922
I4
sS'total_cq'
p923
I4
sasS'total_cqs'
p924
I4
ssI107
(dp925
S'iters'
p926
I2
sS'meta'
p927
(lp928
(dp929
S'objective'
p930
I88
sS'query_time'
p931
F0.0674600601196289
sS'comp_time'
p932
F0.09090876579284668
sS'exec_cq'
p933
I16
sS'total_cq'
p934
I16
sa(dp935
g930
I14
sg931
F0.004976987838745117
sg932
F0.0002999305725097656
sg933
I3
sg934
I3
sasS'total_cqs'
p936
I16
ssI108
(dp937
S'iters'
p938
I0
sS'meta'
p939
(lp940
sS'total_cqs'
p941
I1
ss.