(dp0
I1
(dp1
S'iters'
p2
I4
sS'meta'
p3
(lp4
(dp5
S'objective'
p6
I56
sS'query_time'
p7
F0.03624081611633301
sS'comp_time'
p8
F0.000247955322265625
sS'exec_cq'
p9
I12
sS'total_cq'
p10
I12
sa(dp11
g6
I45
sg7
F5.91278076171875e-05
sg8
F8.702278137207031e-05
sg9
I10
sg10
I10
sa(dp12
g6
I38
sg7
F4.410743713378906e-05
sg8
F6.914138793945312e-05
sg9
I9
sg10
I9
sa(dp13
g6
I33
sg7
F3.600120544433594e-05
sg8
F6.413459777832031e-05
sg9
I8
sg10
I8
sasS'total_cqs'
p14
I12
ssI2
(dp15
S'iters'
p16
I4
sS'meta'
p17
(lp18
(dp19
S'objective'
p20
I250
sS'query_time'
p21
F0.13639402389526367
sS'comp_time'
p22
F0.0009210109710693359
sS'exec_cq'
p23
I27
sS'total_cq'
p24
I27
sa(dp25
g20
I230
sg21
F0.00012302398681640625
sg22
F0.0004467964172363281
sg23
I23
sg24
I23
sa(dp26
g20
I234
sg21
F9.799003601074219e-05
sg22
F0.0002930164337158203
sg23
I20
sg24
I20
sa(dp27
g20
I223
sg21
F9.107589721679688e-05
sg22
F0.00022792816162109375
sg23
I18
sg24
I18
sasS'total_cqs'
p28
I27
ssI3
(dp29
S'iters'
p30
I4
sS'meta'
p31
(lp32
(dp33
S'objective'
p34
I372
sS'query_time'
p35
F156.66917204856873
sS'comp_time'
p36
F1.5605061054229736
sS'exec_cq'
p37
I43
sS'total_cq'
p38
I43
sa(dp39
g34
I33
sg35
F0.3347499370574951
sg36
F1.3134701251983643
sg37
I27
sg38
I27
sa(dp40
g34
I39
sg35
F0.06313300132751465
sg36
F0.47898316383361816
sg37
I13
sg38
I13
sa(dp41
g34
I91
sg35
F4.792213439941406e-05
sg36
F0.0034589767456054688
sg37
I7
sg38
I7
sasS'total_cqs'
p42
I43
ssI4
(dp43
S'iters'
p44
I2
sS'meta'
p45
(lp46
(dp47
S'objective'
p48
I40
sS'query_time'
p49
F4.021646976470947
sS'comp_time'
p50
F0.33867812156677246
sS'exec_cq'
p51
I11
sS'total_cq'
p52
I11
sa(dp53
g48
I1
sg49
F0.10037899017333984
sg50
F0.3666379451751709
sg51
I2
sg52
I2
sasS'total_cqs'
p54
I11
ssI5
(dp55
S'iters'
p56
I3
sS'meta'
p57
(lp58
(dp59
S'objective'
p60
I0
sS'query_time'
p61
F27.030972957611084
sS'comp_time'
p62
F2.214782953262329
sS'exec_cq'
p63
I8
sS'total_cq'
p64
I8
sa(dp65
g60
I0
sg61
F0.08296394348144531
sg62
F0.8211848735809326
sg63
I4
sg64
I4
sa(dp66
g60
I1
sg61
F0.00763392448425293
sg62
F0.03318309783935547
sg63
I2
sg64
I2
sasS'total_cqs'
p67
I8
ssI6
(dp68
S'iters'
p69
I4
sS'meta'
p70
(lp71
(dp72
S'objective'
p73
I47
sS'query_time'
p74
F29.666425943374634
sS'comp_time'
p75
F2.1194419860839844
sS'exec_cq'
p76
I18
sS'total_cq'
p77
I18
sa(dp78
g73
I0
sg74
F0.5340709686279297
sg75
F2.101423740386963
sg76
I7
sg77
I7
sa(dp79
g73
I1
sg74
F0.021678924560546875
sg75
F0.08316421508789062
sg76
I4
sg77
I4
sa(dp80
g73
I5
sg74
F0.01558995246887207
sg75
F0.19195795059204102
sg76
I3
sg77
I3
sasS'total_cqs'
p81
I18
ssI7
(dp82
S'iters'
p83
I3
sS'meta'
p84
(lp85
(dp86
S'objective'
p87
I1
sS'query_time'
p88
F9.78528904914856
sS'comp_time'
p89
F0.9001889228820801
sS'exec_cq'
p90
I9
sS'total_cq'
p91
I9
sa(dp92
g87
I4
sg88
F0.13336801528930664
sg89
F0.41327595710754395
sg90
I4
sg91
I4
sa(dp93
g87
I1
sg88
F0.0030269622802734375
sg89
F0.013345003128051758
sg90
I2
sg91
I2
sasS'total_cqs'
p94
I9
ssI8
(dp95
S'iters'
p96
I5
sS'meta'
p97
(lp98
(dp99
S'objective'
p100
I226
sS'query_time'
p101
F0.17602992057800293
sS'comp_time'
p102
F0.001104116439819336
sS'exec_cq'
p103
I27
sS'total_cq'
p104
I27
sa(dp105
g100
I232
sg101
F0.00013518333435058594
sg102
F0.0003249645233154297
sg103
I22
sg104
I22
sa(dp106
g100
I219
sg101
F6.890296936035156e-05
sg102
F8.988380432128906e-05
sg103
I19
sg104
I19
sa(dp107
g100
I207
sg101
F7.486343383789062e-05
sg102
F8.20159912109375e-05
sg103
I18
sg104
I18
sa(dp108
g100
I195
sg101
F6.198883056640625e-05
sg102
F6.103515625e-05
sg103
I17
sg104
I17
sasS'total_cqs'
p109
I27
ssI9
(dp110
S'iters'
p111
I3
sS'meta'
p112
(lp113
(dp114
S'objective'
p115
I6
sS'query_time'
p116
F0.07273411750793457
sS'comp_time'
p117
F0.00020599365234375
sS'exec_cq'
p118
I7
sS'total_cq'
p119
I7
sa(dp120
g115
I3
sg116
F0.001071929931640625
sg117
F0.0001552104949951172
sg118
I5
sg119
I5
sa(dp121
g115
I3
sg116
F1.5020370483398438e-05
sg117
F5.078315734863281e-05
sg118
I2
sg119
I2
sasS'total_cqs'
p122
I7
ssI10
(dp123
S'iters'
p124
I5
sS'meta'
p125
(lp126
(dp127
S'objective'
p128
I508
sS'query_time'
p129
F0.4543170928955078
sS'comp_time'
p130
F0.007754087448120117
sS'exec_cq'
p131
I51
sS'total_cq'
p132
I51
sa(dp133
g128
I13
sg129
F0.0012199878692626953
sg130
F0.0006883144378662109
sg131
I12
sg132
I12
sa(dp134
g128
I43
sg129
F4.7206878662109375e-05
sg130
F0.00014209747314453125
sg131
I6
sg132
I6
sa(dp135
g128
I25
sg129
F3.0040740966796875e-05
sg130
F8.034706115722656e-05
sg131
I4
sg132
I4
sa(dp136
g128
I22
sg129
F1.5974044799804688e-05
sg130
F5.4836273193359375e-05
sg131
I2
sg132
I2
sasS'total_cqs'
p137
I51
ssI11
(dp138
S'iters'
p139
I5
sS'meta'
p140
(lp141
(dp142
S'objective'
p143
I1066
sS'query_time'
p144
F0.6312930583953857
sS'comp_time'
p145
F0.016539812088012695
sS'exec_cq'
p146
I63
sS'total_cq'
p147
I63
sa(dp148
g143
I923
sg144
F0.0008759498596191406
sg145
F0.00344085693359375
sg146
I47
sg147
I47
sa(dp149
g143
I9
sg144
F0.0017838478088378906
sg145
F0.0007891654968261719
sg146
I9
sg147
I9
sa(dp150
g143
I9
sg144
F2.5987625122070312e-05
sg145
F6.604194641113281e-05
sg146
I4
sg147
I4
sa(dp151
g143
I9
sg144
F1.2874603271484375e-05
sg145
F4.482269287109375e-05
sg146
I2
sg147
I2
sasS'total_cqs'
p152
I63
ssI12
(dp153
S'iters'
p154
I5
sS'meta'
p155
(lp156
(dp157
S'objective'
p158
I563
sS'query_time'
p159
F0.3810770511627197
sS'comp_time'
p160
F0.006270170211791992
sS'exec_cq'
p161
I50
sS'total_cq'
p162
I50
sa(dp163
g158
I443
sg159
F0.0005128383636474609
sg160
F0.0018301010131835938
sg161
I33
sg162
I33
sa(dp164
g158
I6
sg159
F0.001569986343383789
sg160
F0.001252889633178711
sg161
I8
sg162
I8
sa(dp165
g158
I26
sg159
F3.2901763916015625e-05
sg160
F8.487701416015625e-05
sg161
I4
sg162
I4
sa(dp166
g158
I7
sg159
F1.811981201171875e-05
sg160
F6.008148193359375e-05
sg161
I2
sg162
I2
sasS'total_cqs'
p167
I50
ssI13
(dp168
S'iters'
p169
I4
sS'meta'
p170
(lp171
(dp172
S'objective'
p173
I30
sS'query_time'
p174
F0.21669292449951172
sS'comp_time'
p175
F0.0003941059112548828
sS'exec_cq'
p176
I20
sS'total_cq'
p177
I20
sa(dp178
g173
I38
sg174
F7.796287536621094e-05
sg175
F0.00010013580322265625
sg176
I14
sg177
I14
sa(dp179
g173
I53
sg174
F3.814697265625e-05
sg175
F5.7220458984375e-05
sg176
I9
sg177
I9
sa(dp180
g173
I9
sg174
F0.0009629726409912109
sg175
F5.364418029785156e-05
sg176
I2
sg177
I2
sasS'total_cqs'
p181
I20
ssI14
(dp182
S'iters'
p183
I3
sS'meta'
p184
(lp185
(dp186
S'objective'
p187
I1
sS'query_time'
p188
F27.3595769405365
sS'comp_time'
p189
F1.1177570819854736
sS'exec_cq'
p190
I9
sS'total_cq'
p191
I9
sa(dp192
g187
I1
sg188
F0.009345054626464844
sg189
F0.041294097900390625
sg190
I5
sg191
I5
sa(dp193
g187
I1
sg188
F0.009637117385864258
sg189
F0.14431476593017578
sg190
I3
sg191
I3
sasS'total_cqs'
p194
I9
ssI15
(dp195
S'iters'
p196
I3
sS'meta'
p197
(lp198
(dp199
S'objective'
p200
I2
sS'query_time'
p201
F3.274617910385132
sS'comp_time'
p202
F0.16808104515075684
sS'exec_cq'
p203
I11
sS'total_cq'
p204
I11
sa(dp205
g200
I4
sg201
F0.010572195053100586
sg202
F0.060433149337768555
sg203
I6
sg204
I6
sa(dp206
g200
I1
sg201
F0.037448883056640625
sg202
F0.05125093460083008
sg203
I2
sg204
I2
sasS'total_cqs'
p207
I11
ssI16
(dp208
S'iters'
p209
I1
sS'meta'
p210
(lp211
(dp212
S'objective'
p213
I26
sS'query_time'
p214
F0.021589994430541992
sS'comp_time'
p215
F0.00010895729064941406
sS'exec_cq'
p216
I8
sS'total_cq'
p217
I8
sasS'total_cqs'
p218
I8
ssI17
(dp219
S'iters'
p220
I3
sS'meta'
p221
(lp222
(dp223
S'objective'
p224
I2
sS'query_time'
p225
F0.9364850521087646
sS'comp_time'
p226
F0.017451047897338867
sS'exec_cq'
p227
I11
sS'total_cq'
p228
I11
sa(dp229
g224
I12
sg225
F0.00011491775512695312
sg226
F0.0005371570587158203
sg227
I5
sg228
I5
sa(dp230
g224
I9
sg225
F9.393692016601562e-05
sg226
F0.0005288124084472656
sg227
I4
sg228
I4
sasS'total_cqs'
p231
I11
ssI18
(dp232
S'iters'
p233
I3
sS'meta'
p234
(lp235
(dp236
S'objective'
p237
I42
sS'query_time'
p238
F0.2764310836791992
sS'comp_time'
p239
F0.004411935806274414
sS'exec_cq'
p240
I11
sS'total_cq'
p241
I11
sa(dp242
g237
I36
sg238
F0.00021195411682128906
sg239
F0.001058816909790039
sg240
I8
sg241
I8
sa(dp243
g237
I31
sg238
F0.00013899803161621094
sg239
F0.0007131099700927734
sg240
I7
sg241
I7
sasS'total_cqs'
p244
I11
ssI19
(dp245
S'iters'
p246
I0
sS'meta'
p247
(lp248
sS'total_cqs'
p249
I1
ssI20
(dp250
S'iters'
p251
I0
sS'meta'
p252
(lp253
sS'total_cqs'
p254
I1
ssI21
(dp255
S'iters'
p256
I0
sS'meta'
p257
(lp258
sS'total_cqs'
p259
I1
ssI22
(dp260
S'iters'
p261
I1
sS'meta'
p262
(lp263
(dp264
S'objective'
p265
I151
sS'query_time'
p266
F0.05904507637023926
sS'comp_time'
p267
F0.00020694732666015625
sS'exec_cq'
p268
I18
sS'total_cq'
p269
I18
sasS'total_cqs'
p270
I18
ssI23
(dp271
S'iters'
p272
I1
sS'meta'
p273
(lp274
(dp275
S'objective'
p276
I118
sS'query_time'
p277
F0.07755208015441895
sS'comp_time'
p278
F0.0005640983581542969
sS'exec_cq'
p279
I16
sS'total_cq'
p280
I16
sasS'total_cqs'
p281
I16
ssI24
(dp282
S'iters'
p283
I0
sS'meta'
p284
(lp285
sS'total_cqs'
p286
I1
ssI25
(dp287
S'iters'
p288
I0
sS'meta'
p289
(lp290
sS'total_cqs'
p291
I1
ssI26
(dp292
S'iters'
p293
I1
sS'meta'
p294
(lp295
(dp296
S'objective'
p297
I859
sS'query_time'
p298
F0.20291805267333984
sS'comp_time'
p299
F0.00026798248291015625
sS'exec_cq'
p300
I42
sS'total_cq'
p301
I42
sasS'total_cqs'
p302
I42
ssI27
(dp303
S'iters'
p304
I3
sS'meta'
p305
(lp306
(dp307
S'objective'
p308
I333
sS'query_time'
p309
F17.434983015060425
sS'comp_time'
p310
F1.8647358417510986
sS'exec_cq'
p311
I30
sS'total_cq'
p312
I30
sa(dp313
g308
I6
sg309
F0.35839200019836426
sg310
F1.9391789436340332
sg311
I5
sg312
I5
sa(dp314
g308
I4
sg309
F0.010597944259643555
sg310
F0.047654151916503906
sg311
I2
sg312
I2
sasS'total_cqs'
p315
I30
ssI28
(dp316
S'iters'
p317
I0
sS'meta'
p318
(lp319
sS'total_cqs'
p320
I1
ssI29
(dp321
S'iters'
p322
I5
sS'meta'
p323
(lp324
(dp325
S'objective'
p326
I233
sS'query_time'
p327
F134.72106504440308
sS'comp_time'
p328
F13.423216819763184
sS'exec_cq'
p329
I49
sS'total_cq'
p330
I49
sa(dp331
g326
I8
sg327
F0.02094721794128418
sg328
F0.046591997146606445
sg329
I17
sg330
I17
sa(dp332
g326
I10
sg327
F0.588407039642334
sg328
F0.05332684516906738
sg329
I9
sg330
I9
sa(dp333
g326
I15
sg327
F0.005876064300537109
sg328
F0.02543497085571289
sg329
I4
sg330
I4
sa(dp334
g326
I14
sg327
F0.0010290145874023438
sg328
F0.004364013671875
sg329
I2
sg330
I2
sasS'total_cqs'
p335
I49
ssI30
(dp336
S'iters'
p337
I1
sS'meta'
p338
(lp339
(dp340
S'objective'
p341
I1
sS'query_time'
p342
F0.7208330631256104
sS'comp_time'
p343
F0.024569988250732422
sS'exec_cq'
p344
I2
sS'total_cq'
p345
I2
sasS'total_cqs'
p346
I2
ssI31
(dp347
S'iters'
p348
I0
sS'meta'
p349
(lp350
sS'total_cqs'
p351
I1
ssI32
(dp352
S'iters'
p353
I1
sS'meta'
p354
(lp355
(dp356
S'objective'
p357
I1
sS'query_time'
p358
F0.017672061920166016
sS'comp_time'
p359
F0.0002510547637939453
sS'exec_cq'
p360
I2
sS'total_cq'
p361
I2
sasS'total_cqs'
p362
I2
ssI33
(dp363
S'iters'
p364
I5
sS'meta'
p365
(lp366
(dp367
S'objective'
p368
I3650
sS'query_time'
p369
F14.156666994094849
sS'comp_time'
p370
F0.13913798332214355
sS'exec_cq'
p371
I103
sS'total_cq'
p372
I103
sa(dp373
g368
I17
sg369
F0.008265018463134766
sg370
F0.04553103446960449
sg371
I16
sg372
I16
sa(dp374
g368
I26
sg369
F0.0011959075927734375
sg370
F0.004065036773681641
sg371
I7
sg372
I7
sa(dp375
g368
I10
sg369
F0.000553131103515625
sg370
F0.0022058486938476562
sg371
I4
sg372
I4
sa(dp376
g368
I3
sg369
F0.00014209747314453125
sg370
F0.0007581710815429688
sg371
I2
sg372
I2
sasS'total_cqs'
p377
I103
ssI34
(dp378
S'iters'
p379
I1
sS'meta'
p380
(lp381
(dp382
S'objective'
p383
I1
sS'query_time'
p384
F0.017349958419799805
sS'comp_time'
p385
F0.000476837158203125
sS'exec_cq'
p386
I2
sS'total_cq'
p387
I2
sasS'total_cqs'
p388
I2
ssI35
(dp389
S'iters'
p390
I16
sS'meta'
p391
(lp392
(dp393
S'objective'
p394
I2353
sS'query_time'
p395
F51.33139991760254
sS'comp_time'
p396
F3.364948034286499
sS'exec_cq'
p397
I70
sS'total_cq'
p398
I70
sa(dp399
g394
I2303
sg395
F0.8234372138977051
sg396
F3.3532142639160156
sg397
I69
sg398
I69
sa(dp400
g394
I2253
sg395
F1.0452020168304443
sg396
F4.034698247909546
sg397
I68
sg398
I68
sa(dp401
g394
I2203
sg395
F0.8432600498199463
sg396
F3.211555004119873
sg397
I67
sg398
I67
sa(dp402
g394
I2211
sg395
F0.0002498626708984375
sg396
F0.05816006660461426
sg397
I66
sg398
I66
sa(dp403
g394
I2011
sg395
F0.00024390220642089844
sg396
F0.0447850227355957
sg397
I65
sg398
I65
sa(dp404
g394
I1982
sg395
F0.07489585876464844
sg396
F0.06751585006713867
sg397
I62
sg398
I62
sa(dp405
g394
I1706
sg395
F0.2869560718536377
sg396
F0.23738694190979004
sg397
I61
sg398
I61
sa(dp406
g394
I1743
sg395
F0.24532699584960938
sg396
F0.22209930419921875
sg397
I57
sg398
I57
sa(dp407
g394
I1431
sg395
F0.04621005058288574
sg396
F0.045212745666503906
sg397
I56
sg398
I56
sa(dp408
g394
I1407
sg395
F0.04451489448547363
sg396
F0.04001808166503906
sg397
I52
sg398
I52
sa(dp409
g394
I1238
sg395
F0.2173621654510498
sg396
F0.21750307083129883
sg397
I50
sg398
I50
sa(dp410
g394
I1084
sg395
F0.032763004302978516
sg396
F0.030339956283569336
sg397
I46
sg398
I46
sa(dp411
g394
I982
sg395
F0.4380149841308594
sg396
F0.18722915649414062
sg397
I42
sg398
I42
sa(dp412
g394
I18
sg395
F0.4323418140411377
sg396
F0.027767181396484375
sg397
I3
sg398
I3
sa(dp413
g394
I1
sg395
F0.008008956909179688
sg396
F0.008282661437988281
sg397
I2
sg398
I2
sasS'total_cqs'
p414
I70
ssI36
(dp415
S'iters'
p416
I4
sS'meta'
p417
(lp418
(dp419
S'objective'
p420
I415
sS'query_time'
p421
F0.8814661502838135
sS'comp_time'
p422
F0.026764869689941406
sS'exec_cq'
p423
I33
sS'total_cq'
p424
I33
sa(dp425
g420
I374
sg421
F0.002550840377807617
sg422
F0.01063394546508789
sg423
I29
sg424
I29
sa(dp426
g420
I375
sg421
F0.0014691352844238281
sg422
F0.00739598274230957
sg423
I25
sg424
I25
sa(dp427
g420
I367
sg421
F0.0004949569702148438
sg422
F0.002489805221557617
sg423
I24
sg424
I24
sasS'total_cqs'
p428
I33
ssI37
(dp429
S'iters'
p430
I1
sS'meta'
p431
(lp432
(dp433
S'objective'
p434
I1
sS'query_time'
p435
F0.008594036102294922
sS'comp_time'
p436
F0.00026488304138183594
sS'exec_cq'
p437
I2
sS'total_cq'
p438
I2
sasS'total_cqs'
p439
I2
ssI38
(dp440
S'iters'
p441
I2
sS'meta'
p442
(lp443
(dp444
S'objective'
p445
I0
sS'query_time'
p446
F0.025233030319213867
sS'comp_time'
p447
F0.0004527568817138672
sS'exec_cq'
p448
I4
sS'total_cq'
p449
I4
sa(dp450
g445
I1
sg446
F0.000102996826171875
sg447
F0.00032401084899902344
sg448
I2
sg449
I2
sasS'total_cqs'
p451
I4
ssI39
(dp452
S'iters'
p453
I2
sS'meta'
p454
(lp455
(dp456
S'objective'
p457
I596
sS'query_time'
p458
F0.16582918167114258
sS'comp_time'
p459
F0.001447916030883789
sS'exec_cq'
p460
I44
sS'total_cq'
p461
I44
sa(dp462
g457
I747
sg458
F0.0002651214599609375
sg459
F0.005105018615722656
sg460
I37
sg461
I37
sasS'total_cqs'
p463
I44
ssI40
(dp464
S'iters'
p465
I1
sS'meta'
p466
(lp467
(dp468
S'objective'
p469
I18
sS'query_time'
p470
F0.05207991600036621
sS'comp_time'
p471
F0.00010204315185546875
sS'exec_cq'
p472
I7
sS'total_cq'
p473
I7
sasS'total_cqs'
p474
I7
ssI41
(dp475
S'iters'
p476
I2
sS'meta'
p477
(lp478
(dp479
S'objective'
p480
I58
sS'query_time'
p481
F0.08708405494689941
sS'comp_time'
p482
F0.00015401840209960938
sS'exec_cq'
p483
I12
sS'total_cq'
p484
I12
sa(dp485
g480
I54
sg481
F5.1975250244140625e-05
sg482
F6.508827209472656e-05
sg483
I11
sg484
I11
sasS'total_cqs'
p486
I12
ssI42
(dp487
S'iters'
p488
I2
sS'meta'
p489
(lp490
(dp491
S'objective'
p492
I813
sS'query_time'
p493
F0.16553902626037598
sS'comp_time'
p494
F0.00018095970153808594
sS'exec_cq'
p495
I41
sS'total_cq'
p496
I41
sa(dp497
g492
I793
sg493
F0.00015592575073242188
sg494
F0.0001049041748046875
sg495
I40
sg496
I40
sasS'total_cqs'
p498
I41
ssI43
(dp499
S'iters'
p500
I1
sS'meta'
p501
(lp502
(dp503
S'objective'
p504
I18
sS'query_time'
p505
F0.030134916305541992
sS'comp_time'
p506
F0.00010704994201660156
sS'exec_cq'
p507
I7
sS'total_cq'
p508
I7
sasS'total_cqs'
p509
I7
ssI44
(dp510
S'iters'
p511
I4
sS'meta'
p512
(lp513
(dp514
S'objective'
p515
I776
sS'query_time'
p516
F0.19354891777038574
sS'comp_time'
p517
F0.0011169910430908203
sS'exec_cq'
p518
I47
sS'total_cq'
p519
I47
sa(dp520
g515
I860
sg516
F0.00031495094299316406
sg517
F0.0011551380157470703
sg518
I40
sg519
I40
sa(dp521
g515
I20
sg516
F0.0013358592987060547
sg517
F0.0005898475646972656
sg518
I3
sg519
I3
sa(dp522
g515
I17
sg516
F0.00010800361633300781
sg517
F0.0006706714630126953
sg518
I2
sg519
I2
sasS'total_cqs'
p523
I47
ssI45
(dp524
S'iters'
p525
I0
sS'meta'
p526
(lp527
sS'total_cqs'
p528
I1
ssI46
(dp529
S'iters'
p530
I2
sS'meta'
p531
(lp532
(dp533
S'objective'
p534
I9
sS'query_time'
p535
F0.02893686294555664
sS'comp_time'
p536
F0.00029087066650390625
sS'exec_cq'
p537
I6
sS'total_cq'
p538
I6
sa(dp539
g534
I7
sg535
F3.409385681152344e-05
sg536
F5.91278076171875e-05
sg537
I5
sg538
I5
sasS'total_cqs'
p540
I6
ssI47
(dp541
S'iters'
p542
I1
sS'meta'
p543
(lp544
(dp545
S'objective'
p546
I1
sS'query_time'
p547
F0.010029792785644531
sS'comp_time'
p548
F0.0005679130554199219
sS'exec_cq'
p549
I2
sS'total_cq'
p550
I2
sasS'total_cqs'
p551
I2
ssI48
(dp552
S'iters'
p553
I0
sS'meta'
p554
(lp555
sS'total_cqs'
p556
I1
ssI49
(dp557
S'iters'
p558
I0
sS'meta'
p559
(lp560
sS'total_cqs'
p561
I1
ssI50
(dp562
S'iters'
p563
I2
sS'meta'
p564
(lp565
(dp566
S'objective'
p567
I5
sS'query_time'
p568
F0.015558004379272461
sS'comp_time'
p569
F0.00012302398681640625
sS'exec_cq'
p570
I5
sS'total_cq'
p571
I5
sa(dp572
g567
I2
sg568
F2.8848648071289062e-05
sg569
F6.914138793945312e-05
sg570
I4
sg571
I4
sasS'total_cqs'
p573
I5
ssI51
(dp574
S'iters'
p575
I1
sS'meta'
p576
(lp577
(dp578
S'objective'
p579
I1
sS'query_time'
p580
F0.008125782012939453
sS'comp_time'
p581
F0.0001690387725830078
sS'exec_cq'
p582
I2
sS'total_cq'
p583
I2
sasS'total_cqs'
p584
I2
ssI52
(dp585
S'iters'
p586
I1
sS'meta'
p587
(lp588
(dp589
S'objective'
p590
I1
sS'query_time'
p591
F0.009323835372924805
sS'comp_time'
p592
F0.0001990795135498047
sS'exec_cq'
p593
I2
sS'total_cq'
p594
I2
sasS'total_cqs'
p595
I2
ssI53
(dp596
S'iters'
p597
I2
sS'meta'
p598
(lp599
(dp600
S'objective'
p601
I0
sS'query_time'
p602
F0.021484851837158203
sS'comp_time'
p603
F0.0005300045013427734
sS'exec_cq'
p604
I4
sS'total_cq'
p605
I4
sa(dp606
g601
I1
sg602
F8.893013000488281e-05
sg603
F0.00044798851013183594
sg604
I2
sg605
I2
sasS'total_cqs'
p607
I4
ssI54
(dp608
S'iters'
p609
I1
sS'meta'
p610
(lp611
(dp612
S'objective'
p613
I0
sS'query_time'
p614
F0.010691165924072266
sS'comp_time'
p615
F0.0002968311309814453
sS'exec_cq'
p616
I3
sS'total_cq'
p617
I3
sasS'total_cqs'
p618
I3
ssI55
(dp619
S'iters'
p620
I9
sS'meta'
p621
(lp622
(dp623
S'objective'
p624
I4697
sS'query_time'
p625
F2.342909097671509
sS'comp_time'
p626
F0.03250575065612793
sS'exec_cq'
p627
I109
sS'total_cq'
p628
I109
sa(dp629
g624
I4600
sg625
F0.0007097721099853516
sg626
F0.0015790462493896484
sg627
I97
sg628
I97
sa(dp630
g624
I4507
sg625
F0.0003108978271484375
sg626
F0.0007889270782470703
sg627
I91
sg628
I91
sa(dp631
g624
I4486
sg625
F0.0002849102020263672
sg626
F0.0007660388946533203
sg627
I87
sg628
I87
sa(dp632
g624
I4373
sg625
F0.0002701282501220703
sg626
F0.0007889270782470703
sg627
I85
sg628
I85
sa(dp633
g624
I4309
sg625
F0.0002620220184326172
sg626
F0.0005848407745361328
sg627
I83
sg628
I83
sa(dp634
g624
I4225
sg625
F0.00023484230041503906
sg626
F0.0004229545593261719
sg627
I81
sg628
I81
sa(dp635
g624
I4165
sg625
F0.0002300739288330078
sg626
F0.00039196014404296875
sg627
I80
sg628
I80
sa(dp636
g624
I4127
sg625
F0.00023102760314941406
sg626
F0.00037980079650878906
sg627
I79
sg628
I79
sasS'total_cqs'
p637
I109
ssI56
(dp638
S'iters'
p639
I5
sS'meta'
p640
(lp641
(dp642
S'objective'
p643
I1550
sS'query_time'
p644
F3.4732890129089355
sS'comp_time'
p645
F0.14113903045654297
sS'exec_cq'
p646
I76
sS'total_cq'
p647
I76
sa(dp648
g643
I50
sg644
F0.005261898040771484
sg645
F0.009597063064575195
sg646
I16
sg647
I16
sa(dp649
g643
I7
sg644
F0.0024161338806152344
sg645
F0.0055048465728759766
sg646
I9
sg647
I9
sa(dp650
g643
I13
sg644
F0.0012600421905517578
sg645
F0.0043756961822509766
sg646
I5
sg647
I5
sa(dp651
g643
I6
sg644
F0.0008339881896972656
sg645
F0.003975868225097656
sg646
I3
sg647
I3
sasS'total_cqs'
p652
I76
ssI57
(dp653
S'iters'
p654
I6
sS'meta'
p655
(lp656
(dp657
S'objective'
p658
I52
sS'query_time'
p659
F68.07522296905518
sS'comp_time'
p660
F3.7493081092834473
sS'exec_cq'
p661
I51
sS'total_cq'
p662
I51
sa(dp663
g658
I31
sg659
F0.013878107070922852
sg660
F0.028856992721557617
sg661
I27
sg662
I27
sa(dp664
g658
I24
sg659
F0.0021109580993652344
sg660
F0.005641937255859375
sg661
I13
sg662
I13
sa(dp665
g658
I7
sg659
F0.0014200210571289062
sg660
F0.004040241241455078
sg661
I6
sg662
I6
sa(dp666
g658
I0
sg659
F0.0009429454803466797
sg660
F0.0026459693908691406
sg661
I3
sg662
I3
sa(dp667
g658
I17
sg659
F0.0004630088806152344
sg660
F0.002978801727294922
sg661
I2
sg662
I2
sasS'total_cqs'
p668
I51
ssI58
(dp669
S'iters'
p670
I7
sS'meta'
p671
(lp672
(dp673
S'objective'
p674
I88717
sS'query_time'
p675
F289.48742604255676
sS'comp_time'
p676
F16.673784255981445
sS'exec_cq'
p677
I486
sS'total_cq'
p678
I486
sa(dp679
g674
I3664
sg675
F0.034358978271484375
sg676
F0.20943093299865723
sg677
I64
sg678
I64
sa(dp680
g674
I2422
sg675
F0.016501903533935547
sg676
F0.1180109977722168
sg677
I38
sg678
I38
sa(dp681
g674
I36
sg675
F0.009654998779296875
sg676
F0.06470203399658203
sg677
I14
sg678
I14
sa(dp682
g674
I24
sg675
F0.004363059997558594
sg676
F0.010835886001586914
sg677
I7
sg678
I7
sa(dp683
g674
I35
sg675
F0.002254009246826172
sg676
F0.008094072341918945
sg677
I4
sg678
I4
sa(dp684
g674
I43
sg675
F0.00024199485778808594
sg676
F0.0009379386901855469
sg677
I2
sg678
I2
sasS'total_cqs'
p685
I486
ssI59
(dp686
S'iters'
p687
I2
sS'meta'
p688
(lp689
(dp690
S'objective'
p691
I14
sS'query_time'
p692
F0.05303502082824707
sS'comp_time'
p693
F0.0009047985076904297
sS'exec_cq'
p694
I7
sS'total_cq'
p695
I7
sa(dp696
g691
I3
sg692
F0.0001590251922607422
sg693
F0.0008099079132080078
sg694
I2
sg695
I2
sasS'total_cqs'
p697
I7
ssI60
(dp698
S'iters'
p699
I2
sS'meta'
p700
(lp701
(dp702
S'objective'
p703
I5
sS'query_time'
p704
F0.02486705780029297
sS'comp_time'
p705
F0.0003943443298339844
sS'exec_cq'
p706
I5
sS'total_cq'
p707
I5
sa(dp708
g703
I2
sg704
F6.985664367675781e-05
sg705
F0.0003006458282470703
sg706
I4
sg707
I4
sasS'total_cqs'
p709
I5
ssI61
(dp710
S'iters'
p711
I0
sS'meta'
p712
(lp713
sS'total_cqs'
p714
I1
ssI62
(dp715
S'iters'
p716
I2
sS'meta'
p717
(lp718
(dp719
S'objective'
p720
I50
sS'query_time'
p721
F0.04971790313720703
sS'comp_time'
p722
F0.00023603439331054688
sS'exec_cq'
p723
I12
sS'total_cq'
p724
I12
sa(dp725
g720
I50
sg721
F4.887580871582031e-05
sg722
F7.796287536621094e-05
sg723
I9
sg724
I9
sasS'total_cqs'
p726
I12
ssI63
(dp727
S'iters'
p728
I0
sS'meta'
p729
(lp730
sS'total_cqs'
p731
I1
ssI64
(dp732
S'iters'
p733
I3
sS'meta'
p734
(lp735
(dp736
S'objective'
p737
I24
sS'query_time'
p738
F0.15984702110290527
sS'comp_time'
p739
F0.003290414810180664
sS'exec_cq'
p740
I12
sS'total_cq'
p741
I12
sa(dp742
g737
I5
sg738
F0.00010085105895996094
sg739
F0.00039505958557128906
sg740
I4
sg741
I4
sa(dp743
g737
I2
sg738
F8.702278137207031e-05
sg739
F0.0003769397735595703
sg740
I3
sg741
I3
sasS'total_cqs'
p744
I12
ssI65
(dp745
S'iters'
p746
I3
sS'meta'
p747
(lp748
(dp749
S'objective'
p750
I274
sS'query_time'
p751
F0.8731019496917725
sS'comp_time'
p752
F0.03812694549560547
sS'exec_cq'
p753
I27
sS'total_cq'
p754
I27
sa(dp755
g750
I2
sg751
F0.0018079280853271484
sg752
F0.005357980728149414
sg753
I7
sg754
I7
sa(dp756
g750
I5
sg751
F0.00027108192443847656
sg752
F0.0013828277587890625
sg753
I2
sg754
I2
sasS'total_cqs'
p757
I27
ssI66
(dp758
S'iters'
p759
I0
sS'meta'
p760
(lp761
sS'total_cqs'
p762
I1
ssI67
(dp763
S'iters'
p764
I2
sS'meta'
p765
(lp766
(dp767
S'objective'
p768
I562
sS'query_time'
p769
F1.447066068649292
sS'comp_time'
p770
F0.006639003753662109
sS'exec_cq'
p771
I35
sS'total_cq'
p772
I35
sa(dp773
g768
I4
sg769
F0.0010099411010742188
sg770
F0.006302833557128906
sg771
I2
sg772
I2
sasS'total_cqs'
p774
I35
ssI68
(dp775
S'iters'
p776
I0
sS'meta'
p777
(lp778
sS'total_cqs'
p779
I1
ssI69
(dp780
S'iters'
p781
I1
sS'meta'
p782
(lp783
(dp784
S'objective'
p785
I1272
sS'query_time'
p786
F0.22401118278503418
sS'comp_time'
p787
F0.00023484230041503906
sS'exec_cq'
p788
I51
sS'total_cq'
p789
I51
sasS'total_cqs'
p790
I51
ssI70
(dp791
S'iters'
p792
I3
sS'meta'
p793
(lp794
(dp795
S'objective'
p796
I9
sS'query_time'
p797
F0.024708986282348633
sS'comp_time'
p798
F0.0006210803985595703
sS'exec_cq'
p799
I6
sS'total_cq'
p800
I6
sa(dp801
g796
I5
sg797
F4.792213439941406e-05
sg798
F0.00016188621520996094
sg799
I5
sg800
I5
sa(dp802
g796
I2
sg797
F3.814697265625e-05
sg798
F0.0001480579376220703
sg799
I4
sg800
I4
sasS'total_cqs'
p803
I6
ssI71
(dp804
S'iters'
p805
I6
sS'meta'
p806
(lp807
(dp808
S'objective'
p809
I3297
sS'query_time'
p810
F0.3880031108856201
sS'comp_time'
p811
F0.0008573532104492188
sS'exec_cq'
p812
I85
sS'total_cq'
p813
I85
sa(dp814
g809
I3196
sg810
F0.0003459453582763672
sg811
F0.0006859302520751953
sg812
I81
sg813
I81
sa(dp815
g809
I3076
sg810
F0.00026988983154296875
sg811
F0.0005390644073486328
sg812
I77
sg813
I77
sa(dp816
g809
I2946
sg810
F0.0002601146697998047
sg811
F0.00046706199645996094
sg812
I75
sg813
I75
sa(dp817
g809
I4
sg810
F0.0018241405487060547
sg811
F0.0001621246337890625
sg812
I3
sg813
I3
sa(dp818
g809
I21
sg810
F0.0037689208984375
sg811
F0.00015211105346679688
sg812
I2
sg813
I2
sasS'total_cqs'
p819
I85
ssI72
(dp820
S'iters'
p821
I3
sS'meta'
p822
(lp823
(dp824
S'objective'
p825
I8
sS'query_time'
p826
F0.40853404998779297
sS'comp_time'
p827
F0.007670164108276367
sS'exec_cq'
p828
I8
sS'total_cq'
p829
I8
sa(dp830
g825
I6
sg826
F0.00047588348388671875
sg827
F0.0030472278594970703
sg828
I6
sg829
I6
sa(dp831
g825
I2
sg826
F2.8848648071289062e-05
sg827
F0.0001068115234375
sg828
I3
sg829
I3
sasS'total_cqs'
p832
I8
ssI73
(dp833
S'iters'
p834
I0
sS'meta'
p835
(lp836
sS'total_cqs'
p837
I1
ssI74
(dp838
S'iters'
p839
I0
sS'meta'
p840
(lp841
sS'total_cqs'
p842
I1
ssI75
(dp843
S'iters'
p844
I2
sS'meta'
p845
(lp846
(dp847
S'objective'
p848
I5
sS'query_time'
p849
F0.012748956680297852
sS'comp_time'
p850
F9.202957153320312e-05
sS'exec_cq'
p851
I5
sS'total_cq'
p852
I5
sa(dp853
g848
I2
sg849
F1.9788742065429688e-05
sg850
F5.1975250244140625e-05
sg851
I4
sg852
I4
sasS'total_cqs'
p854
I5
ssI76
(dp855
S'iters'
p856
I1
sS'meta'
p857
(lp858
(dp859
S'objective'
p860
I1
sS'query_time'
p861
F0.014719009399414062
sS'comp_time'
p862
F0.00038623809814453125
sS'exec_cq'
p863
I2
sS'total_cq'
p864
I2
sasS'total_cqs'
p865
I2
ssI77
(dp866
S'iters'
p867
I0
sS'meta'
p868
(lp869
sS'total_cqs'
p870
I1
ssI78
(dp871
S'iters'
p872
I0
sS'meta'
p873
(lp874
sS'total_cqs'
p875
I1
ssI103
(dp876
S'iters'
p877
I2
sS'meta'
p878
(lp879
(dp880
S'objective'
p881
I54
sS'query_time'
p882
F0.09305214881896973
sS'comp_time'
p883
F0.00016880035400390625
sS'exec_cq'
p884
I12
sS'total_cq'
p885
I12
sa(dp886
g881
I52
sg882
F5.984306335449219e-05
sg883
F9.989738464355469e-05
sg884
I11
sg885
I11
sasS'total_cqs'
p887
I12
ssI104
(dp888
S'iters'
p889
I2
sS'meta'
p890
(lp891
(dp892
S'objective'
p893
I0
sS'query_time'
p894
F1.607132911682129
sS'comp_time'
p895
F0.10537505149841309
sS'exec_cq'
p896
I4
sS'total_cq'
p897
I4
sa(dp898
g893
I1
sg894
F0.014717817306518555
sg895
F0.1501469612121582
sg896
I2
sg897
I2
sasS'total_cqs'
p899
I4
ssI105
(dp900
S'iters'
p901
I0
sS'meta'
p902
(lp903
sS'total_cqs'
p904
I1
ssI106
(dp905
S'iters'
p906
I1
sS'meta'
p907
(lp908
(dp909
S'objective'
p910
I4
sS'query_time'
p911
F0.023313045501708984
sS'comp_time'
p912
F0.00010228157043457031
sS'exec_cq'
p913
I4
sS'total_cq'
p914
I4
sasS'total_cqs'
p915
I4
ssI107
(dp916
S'iters'
p917
I2
sS'meta'
p918
(lp919
(dp920
S'objective'
p921
I70
sS'query_time'
p922
F0.10750198364257812
sS'comp_time'
p923
F0.00015997886657714844
sS'exec_cq'
p924
I16
sS'total_cq'
p925
I16
sa(dp926
g921
I15
sg922
F0.006731986999511719
sg923
F9.393692016601562e-05
sg924
I3
sg925
I3
sasS'total_cqs'
p927
I16
ssI108
(dp928
S'iters'
p929
I0
sS'meta'
p930
(lp931
sS'total_cqs'
p932
I1
ss.