(dp0
I1
(dp1
S'error_cq'
p2
I0
sS'query_time'
p3
F0.03226184844970703
sS'dist'
p4
F3.333333333333333
sS'exec_cq'
p5
I12
sS'comp_time'
p6
F0.00019598007202148438
sS'parse_time'
p7
F0.0025849342346191406
sS'total_cq'
p8
I12
sS'timeout_cq'
p9
I0
sS'valid_cq'
p10
I5
ssI2
(dp11
g2
I0
sg3
F0.11423993110656738
sg4
F6.857142857142858
sg5
I28
sg6
F0.0005638599395751953
sg7
F0.002156972885131836
sg8
I28
sg9
I0
sg10
I16
ssI3
(dp12
g2
I0
sg3
F778.3826138973236
sg4
F19.80952380952381
sg5
I42
sg6
F1.8787009716033936
sg7
F0.0018057823181152344
sg8
I42
sg9
I19
sg10
I19
ssI4
(dp13
g2
I0
sg3
F3.2891039848327637
sg4
F3.2727272727272725
sg5
I11
sg6
F0.40712690353393555
sg7
F0.002196073532104492
sg8
I11
sg9
I0
sg10
I2
ssI5
(dp14
g2
I0
sg3
F76.54348707199097
sg4
F4.0
sg5
I8
sg6
F1.9838738441467285
sg7
F0.0020461082458496094
sg8
I8
sg9
I0
sg10
I8
ssI6
(dp15
g2
I0
sg3
F40.87801194190979
sg4
F8.555555555555557
sg5
I18
sg6
F1.6081910133361816
sg7
F0.002131938934326172
sg8
I18
sg9
I0
sg10
I11
ssI7
(dp16
g2
I0
sg3
F10.972043991088867
sg4
F4.444444444444445
sg5
I9
sg6
F1.0198380947113037
sg7
F0.002084016799926758
sg8
I9
sg9
I0
sg10
I9
ssI8
(dp17
g2
I0
sg3
F0.1143641471862793
sg4
F8.214285714285715
sg5
I28
sg6
F0.0007319450378417969
sg7
F0.0024459362030029297
sg8
I28
sg9
I0
sg10
I12
ssI9
(dp18
g2
I0
sg3
F0.06471395492553711
sg4
F3.4285714285714284
sg5
I7
sg6
F0.00026917457580566406
sg7
F0.002450227737426758
sg8
I7
sg9
I0
sg10
I6
ssI10
(dp19
g2
I0
sg3
F0.41575002670288086
sg4
F23.678571428571427
sg5
I56
sg6
F0.0026941299438476562
sg7
F0.004497051239013672
sg8
I56
sg9
I0
sg10
I42
ssI11
(dp20
g2
I0
sg3
F0.2650449275970459
sg4
F23.678571428571427
sg5
I56
sg6
F0.0026230812072753906
sg7
F0.0019388198852539062
sg8
I56
sg9
I0
sg10
I42
ssI12
(dp21
g2
I0
sg3
F0.4161660671234131
sg4
F24.470588235294116
sg5
I68
sg6
F0.017477035522460938
sg7
F0.0047991275787353516
sg8
I68
sg9
I0
sg10
I51
ssI13
(dp22
g2
I0
sg3
F0.265880823135376
sg4
F23.678571428571427
sg5
I56
sg6
F0.0023610591888427734
sg7
F0.0021228790283203125
sg8
I56
sg9
I0
sg10
I42
ssI14
(dp23
g2
I0
sg3
F0.16474008560180664
sg4
F13.357142857142858
sg5
I28
sg6
F0.00028204917907714844
sg7
F0.002009153366088867
sg8
I28
sg9
I0
sg10
I21
ssI15
(dp24
g2
I0
sg3
F27.815670013427734
sg4
F4.444444444444445
sg5
I9
sg6
F0.7913608551025391
sg7
F0.0019969940185546875
sg8
I9
sg9
I0
sg10
I9
ssI16
(dp25
g2
I0
sg3
F2.727522850036621
sg4
F5.454545454545455
sg5
I11
sg6
F0.10093092918395996
sg7
F0.001867055892944336
sg8
I11
sg9
I0
sg10
I9
ssI17
(dp26
g2
I0
sg3
F0.016177892684936523
sg4
F1.75
sg5
I8
sg6
F7.414817810058594e-05
sg7
F0.0018379688262939453
sg8
I8
sg9
I0
sg10
I1
ssI18
(dp27
g2
I0
sg3
F0.7275478839874268
sg4
F5.454545454545455
sg5
I11
sg6
F0.023962974548339844
sg7
F0.002251863479614258
sg8
I11
sg9
I0
sg10
I9
ssI19
(dp28
g2
I0
sg3
F0.2146751880645752
sg4
F4.363636363636363
sg5
I11
sg6
F0.0054149627685546875
sg7
F0.002032041549682617
sg8
I11
sg9
I0
sg10
I6
ssI20
(dp29
g2
I0
sg3
F0.003492116928100586
sg4
F0.0
sg5
I1
sg6
F0.00010204315185546875
sg7
F0.001928091049194336
sg8
I1
sg9
I0
sg10
I1
ssI21
(dp30
g2
I0
sg3
F0.007635831832885742
sg4
F0.0
sg5
I1
sg6
F5.984306335449219e-05
sg7
F0.0008828639984130859
sg8
I1
sg9
I0
sg10
I1
ssI22
(dp31
g2
I0
sg3
F0.0034952163696289062
sg4
F0.0
sg5
I1
sg6
F6.4849853515625e-05
sg7
F0.001917123794555664
sg8
I1
sg9
I0
sg10
I1
ssI23
(dp32
g2
I0
sg3
F0.03203988075256348
sg4
F1.8888888888888888
sg5
I18
sg6
F0.00011396408081054688
sg7
F0.0017900466918945312
sg8
I18
sg9
I0
sg10
I1
ssI24
(dp33
g2
I0
sg3
F0.03209400177001953
sg4
F3.5
sg5
I16
sg6
F0.0002281665802001953
sg7
F0.0017199516296386719
sg8
I16
sg9
I0
sg10
I4
ssI25
(dp34
g2
I0
sg3
F0.0035359859466552734
sg4
F0.0
sg5
I1
sg6
F6.103515625e-05
sg7
F0.0016939640045166016
sg8
I1
sg9
I0
sg10
I1
ssI26
(dp35
g2
I0
sg3
F0.010602951049804688
sg4
F0.0
sg5
I1
sg6
F0.0002598762512207031
sg7
F0.0007801055908203125
sg8
I1
sg9
I0
sg10
I1
ssI27
(dp36
g2
I0
sg3
F0.06431102752685547
sg4
F1.9523809523809523
sg5
I42
sg6
F5.817413330078125e-05
sg7
F0.0017199516296386719
sg8
I42
sg9
I0
sg10
I1
ssI28
(dp37
g2
I0
sg3
F16.83235216140747
sg4
F8.333333333333332
sg5
I30
sg6
F1.6631789207458496
sg7
F0.0020608901977539062
sg8
I30
sg9
I0
sg10
I8
ssI29
(dp38
g2
I0
sg3
F0.004065990447998047
sg4
F0.0
sg5
I1
sg6
F0.00011515617370605469
sg7
F0.0018777847290039062
sg8
I1
sg9
I0
sg10
I1
ssI30
(dp39
g2
I0
sg3
F175.504497051239
sg4
F22.204081632653065
sg5
I49
sg6
F11.312097072601318
sg7
F0.0028870105743408203
sg8
I49
sg9
I1
sg10
I45
ssI31
(dp40
g2
I0
sg3
F0.46585988998413086
sg4
F1.0
sg5
I2
sg6
F0.02684307098388672
sg7
F0.0023391246795654297
sg8
I2
sg9
I0
sg10
I2
ssI32
(dp41
g2
I0
sg3
F0.0038068294525146484
sg4
F0.0
sg5
I1
sg6
F7.390975952148438e-05
sg7
F0.002309083938598633
sg8
I1
sg9
I0
sg10
I1
ssI33
(dp42
g2
I0
sg3
F0.016082048416137695
sg4
F1.0
sg5
I2
sg6
F0.0002040863037109375
sg7
F0.001967191696166992
sg8
I2
sg9
I0
sg10
I2
ssI34
(dp43
g2
I0
sg3
F16.938647031784058
sg4
F27.029126213592235
sg5
I103
sg6
F0.08634805679321289
sg7
F0.005446195602416992
sg8
I103
sg9
I0
sg10
I40
ssI35
(dp44
g2
I0
sg3
F0.03579092025756836
sg4
F1.0
sg5
I2
sg6
F0.0005629062652587891
sg7
F0.0023491382598876953
sg8
I2
sg9
I0
sg10
I2
ssI36
(dp45
g2
I0
sg3
F339.1926429271698
sg4
F24.685714285714283
sg5
I70
sg6
F15.364885091781616
sg7
F0.002682924270629883
sg8
I70
sg9
I5
sg10
I42
ssI37
(dp46
g2
I0
sg3
F0.46666598320007324
sg4
F7.03030303030303
sg5
I33
sg6
F0.02526712417602539
sg7
F0.002149820327758789
sg8
I33
sg9
I0
sg10
I8
ssI38
(dp47
g2
I0
sg3
F0.01633000373840332
sg4
F1.0
sg5
I2
sg6
F0.00027179718017578125
sg7
F0.0018100738525390625
sg8
I2
sg9
I0
sg10
I2
ssI39
(dp48
g2
I0
sg3
F0.032217979431152344
sg4
F2.0
sg5
I4
sg6
F0.0006871223449707031
sg7
F0.0020830631256103516
sg8
I4
sg9
I0
sg10
I4
ssI40
(dp49
g2
I0
sg3
F0.1145179271697998
sg4
F11.772727272727273
sg5
I44
sg6
F0.0017099380493164062
sg7
F0.00465703010559082
sg8
I44
sg9
I0
sg10
I8
ssI41
(dp50
g2
I0
sg3
F0.06435990333557129
sg4
F1.7142857142857144
sg5
I7
sg6
F9.584426879882812e-05
sg7
F0.0019268989562988281
sg8
I7
sg9
I0
sg10
I1
ssI42
(dp51
g2
I0
sg3
F0.06444597244262695
sg4
F1.8333333333333333
sg5
I12
sg6
F0.0001289844512939453
sg7
F0.0017349720001220703
sg8
I12
sg9
I0
sg10
I2
ssI43
(dp52
g2
I0
sg3
F0.06445097923278809
sg4
F1.9500000000000002
sg5
I40
sg6
F9.703636169433594e-05
sg7
F0.0018699169158935547
sg8
I40
sg9
I0
sg10
I3
ssI44
(dp53
g2
I0
sg3
F0.03220987319946289
sg4
F1.7142857142857144
sg5
I7
sg6
F8.702278137207031e-05
sg7
F0.002213001251220703
sg8
I7
sg9
I0
sg10
I1
ssI45
(dp54
g2
I0
sg3
F0.11462903022766113
sg4
F11.914893617021276
sg5
I47
sg6
F0.0014140605926513672
sg7
F0.0018970966339111328
sg8
I47
sg9
I0
sg10
I11
ssI46
(dp55
g2
I0
sg3
F0.003319978713989258
sg4
F0.0
sg5
I1
sg6
F4.291534423828125e-05
sg7
F0.0018999576568603516
sg8
I1
sg9
I0
sg10
I1
ssI47
(dp56
g2
I0
sg3
F0.01785588264465332
sg4
F1.6666666666666665
sg5
I6
sg6
F0.0002551078796386719
sg7
F0.002053976058959961
sg8
I6
sg9
I0
sg10
I3
ssI48
(dp57
g2
I0
sg3
F0.00757908821105957
sg4
F1.0
sg5
I2
sg6
F0.00018596649169921875
sg7
F0.0020198822021484375
sg8
I2
sg9
I0
sg10
I2
ssI49
(dp58
g2
I0
sg3
F0.033699989318847656
sg4
F0.0
sg5
I1
sg6
F0.0007669925689697266
sg7
F0.0017960071563720703
sg8
I1
sg9
I0
sg10
I1
ssI50
(dp59
g2
I0
sg3
F0.06517601013183594
sg4
F0.0
sg5
I1
sg6
F0.0020360946655273438
sg7
F0.0016970634460449219
sg8
I1
sg9
I0
sg10
I1
ssI51
(dp60
g2
I0
sg3
F0.0034079551696777344
sg4
F1.3333333333333335
sg5
I3
sg6
F5.507469177246094e-05
sg7
F0.0016040802001953125
sg8
I3
sg9
I0
sg10
I1
ssI52
(dp61
g2
I0
sg3
F0.0076580047607421875
sg4
F1.6
sg5
I5
sg6
F7.581710815429688e-05
sg7
F0.001993894577026367
sg8
I5
sg9
I0
sg10
I5
ssI53
(dp62
g2
I0
sg3
F0.01593613624572754
sg4
F1.0
sg5
I2
sg6
F0.0001628398895263672
sg7
F0.0018329620361328125
sg8
I2
sg9
I0
sg10
I2
ssI54
(dp63
g2
I0
sg3
F0.01570892333984375
sg4
F1.0
sg5
I2
sg6
F0.0001990795135498047
sg7
F0.002185821533203125
sg8
I2
sg9
I0
sg10
I2
ssI55
(dp64
g2
I0
sg3
F0.032179832458496094
sg4
F2.0
sg5
I4
sg6
F0.0012969970703125
sg7
F0.0017189979553222656
sg8
I4
sg9
I0
sg10
I4
ssI56
(dp65
g2
I0
sg3
F0.06455183029174805
sg4
F1.8333333333333333
sg5
I12
sg6
F0.0006570816040039062
sg7
F0.001987934112548828
sg8
I12
sg9
I0
sg10
I4
ssI57
(dp66
g2
I0
sg3
F13.933480978012085
sg4
F3.7894736842105265
sg5
I38
sg6
F0.6666378974914551
sg7
F0.002640962600708008
sg8
I38
sg9
I0
sg10
I11
ssI58
(dp67
g2
I0
sg3
F0.016085147857666016
sg4
F1.3333333333333335
sg5
I3
sg6
F0.0003840923309326172
sg7
F0.0021369457244873047
sg8
I3
sg9
I0
sg10
I3
ssI59
(dp68
g2
I0
sg3
F2.828434944152832
sg4
F21.357798165137616
sg5
I109
sg6
F0.030113935470581055
sg7
F0.0039250850677490234
sg8
I109
sg9
I0
sg10
I31
ssI60
(dp69
g2
I0
sg3
F2.7278800010681152
sg4
F25.263157894736842
sg5
I76
sg6
F0.09363484382629395
sg7
F0.0034830570220947266
sg8
I76
sg9
I0
sg10
I31
ssI61
(dp70
g2
I0
sg3
F0.06422805786132812
sg4
I0
sg5
I7
sg6
I0
sg7
F0.002310037612915039
sg8
I7
sg9
I0
sg10
I0
ssI62
(dp71
g2
I0
sg3
F77.63709902763367
sg4
F25.411764705882355
sg5
I51
sg6
F2.722912073135376
sg7
F0.002744913101196289
sg8
I51
sg9
I0
sg10
I37
ssI63
(dp72
g2
I0
sg3
F612.6812789440155
sg4
F122.66666666666666
sg5
I486
sg6
F22.91899609565735
sg7
F0.007155895233154297
sg8
I486
sg9
I2
sg10
I242
ssI64
(dp73
g2
I0
sg3
F0.06432509422302246
sg4
F2.8571428571428568
sg5
I7
sg6
F0.0017468929290771484
sg7
F0.0018858909606933594
sg8
I7
sg9
I0
sg10
I2
ssI65
(dp74
g2
I0
sg3
F0.0324101448059082
sg4
F1.5
sg5
I4
sg6
F0.0005109310150146484
sg7
F0.0018329620361328125
sg8
I4
sg9
I0
sg10
I3
ssI66
(dp75
g2
I0
sg3
F0.0034198760986328125
sg4
F0.0
sg5
I1
sg6
F3.886222839355469e-05
sg7
F0.0020258426666259766
sg8
I1
sg9
I0
sg10
I1
ssI67
(dp76
g2
I0
sg3
F0.032113075256347656
sg4
F4.5
sg5
I12
sg6
F0.00017499923706054688
sg7
F0.002023935317993164
sg8
I12
sg9
I0
sg10
I5
ssI68
(dp77
g2
I0
sg3
F0.06433606147766113
sg4
F0.0
sg5
I1
sg6
F0.001271963119506836
sg7
F0.002017974853515625
sg8
I1
sg9
I0
sg10
I1
ssI69
(dp78
g2
I0
sg3
F0.1647169589996338
sg4
F5.333333333333334
sg5
I12
sg6
F0.004314899444580078
sg7
F0.001987934112548828
sg8
I12
sg9
I0
sg10
I9
ssI70
(dp79
g2
I0
sg3
F0.9821629524230957
sg4
F10.37037037037037
sg5
I27
sg6
F0.040051937103271484
sg7
F0.001981019973754883
sg8
I27
sg9
I0
sg10
I17
ssI71
(dp80
g2
I0
sg3
F0.003526926040649414
sg4
F0.0
sg5
I1
sg6
F0.00010418891906738281
sg7
F0.00144195556640625
sg8
I1
sg9
I0
sg10
I1
ssI72
(dp81
g2
I0
sg3
F3.035722017288208
sg4
F3.7714285714285714
sg5
I35
sg6
F0.012279987335205078
sg7
F0.0031490325927734375
sg8
I35
sg9
I0
sg10
I2
ssI73
(dp82
g2
I0
sg3
F0.007652997970581055
sg4
F0.0
sg5
I1
sg6
F0.00025200843811035156
sg7
F0.0019140243530273438
sg8
I1
sg9
I0
sg10
I1
ssI74
(dp83
g2
I0
sg3
F0.11464500427246094
sg4
I0
sg5
I50
sg6
I0
sg7
F0.0026950836181640625
sg8
I50
sg9
I0
sg10
I0
ssI75
(dp84
g2
I0
sg3
F0.015987873077392578
sg4
F1.6
sg5
I5
sg6
F0.0001399517059326172
sg7
F0.002466917037963867
sg8
I5
sg9
I0
sg10
I3
ssI76
(dp85
g2
I0
sg3
F0.5162069797515869
sg4
F7.623529411764705
sg5
I85
sg6
F0.000579833984375
sg7
F0.002229928970336914
sg8
I85
sg9
I0
sg10
I21
ssI77
(dp86
g2
I0
sg3
F0.0037260055541992188
sg4
I0
sg5
I1
sg6
I0
sg7
F0.0022859573364257812
sg8
I1
sg9
I0
sg10
I0
ssI78
(dp87
g2
I0
sg3
F0.031944990158081055
sg4
F1.6
sg5
I5
sg6
F0.0005209445953369141
sg7
F0.002290010452270508
sg8
I5
sg9
I0
sg10
I4
ssI79
(dp88
g2
I0
sg3
F0.3151850700378418
sg4
F3.75
sg5
I8
sg6
F0.005087852478027344
sg7
F0.0020589828491210938
sg8
I8
sg9
I0
sg10
I8
ssI80
(dp89
g2
I0
sg3
F0.0032930374145507812
sg4
F0.0
sg5
I1
sg6
F6.389617919921875e-05
sg7
F0.001928091049194336
sg8
I1
sg9
I0
sg10
I1
ssI81
(dp90
g2
I0
sg3
F0.06418704986572266
sg4
F0.0
sg5
I1
sg6
F0.0012669563293457031
sg7
F0.0019218921661376953
sg8
I1
sg9
I0
sg10
I1
ssI82
(dp91
g2
I0
sg3
F0.015996932983398438
sg4
F1.6
sg5
I5
sg6
F0.00010704994201660156
sg7
F0.0019130706787109375
sg8
I5
sg9
I0
sg10
I5
ssI83
(dp92
g2
I0
sg3
F0.015797853469848633
sg4
F1.0
sg5
I2
sg6
F0.0003261566162109375
sg7
F0.001847982406616211
sg8
I2
sg9
I0
sg10
I2
ssI84
(dp93
g2
I0
sg3
F0.03209114074707031
sg4
I0
sg5
I19
sg6
I0
sg7
F0.0019178390502929688
sg8
I19
sg9
I0
sg10
I0
ssI85
(dp94
g2
I0
sg3
F0.0363008975982666
sg4
F0.0
sg5
I1
sg6
F0.0008728504180908203
sg7
F0.0017418861389160156
sg8
I1
sg9
I0
sg10
I1
ssI86
(dp95
g2
I0
sg3
F0.06457400321960449
sg4
F0.0
sg5
I1
sg6
F0.0022568702697753906
sg7
F0.001744985580444336
sg8
I1
sg9
I0
sg10
I1
ssI113
(dp96
g2
I0
sg3
F0.06420016288757324
sg4
F1.8333333333333333
sg5
I12
sg6
F5.984306335449219e-05
sg7
F0.0018420219421386719
sg8
I12
sg9
I0
sg10
I1
ssI114
(dp97
g2
I0
sg3
F0.2652931213378906
sg4
F2.0
sg5
I4
sg6
F0.01512908935546875
sg7
F0.0019240379333496094
sg8
I4
sg9
I0
sg10
I4
ssI115
(dp98
g2
I0
sg3
F0.0034101009368896484
sg4
F0.0
sg5
I1
sg6
F4.100799560546875e-05
sg7
F0.002196073532104492
sg8
I1
sg9
I0
sg10
I1
ssI116
(dp99
g2
I0
sg3
F0.0322110652923584
sg4
I0
sg5
I4
sg6
I0
sg7
F0.0017130374908447266
sg8
I4
sg9
I0
sg10
I0
ssI117
(dp100
g2
I0
sg3
F0.06442403793334961
sg4
F3.5
sg5
I16
sg6
F7.390975952148438e-05
sg7
F0.002268075942993164
sg8
I16
sg9
I0
sg10
I4
ssI118
(dp101
g2
I0
sg3
F259.9104378223419
sg4
F0.0
sg5
I9
sg6
F4.6504340171813965
sg7
F0.0019190311431884766
sg8
I9
sg9
I5
sg10
I4
ssI119
(dp102
g2
I0
sg3
F0.1191558837890625
sg4
F4.800000000000001
sg5
I10
sg6
F0.004803895950317383
sg7
F0.002074003219604492
sg8
I10
sg9
I0
sg10
I10
ssI120
(dp103
g2
I0
sg3
F30.00936007499695
sg4
I0
sg5
I1
sg6
I0
sg7
F0.0018918514251708984
sg8
I1
sg9
I1
sg10
I0
ssI121
(dp104
g2
I0
sg3
F1.822282075881958
sg4
F4.800000000000001
sg5
I10
sg6
F0.038134098052978516
sg7
F0.002025127410888672
sg8
I10
sg9
I0
sg10
I8
ssI122
(dp105
g2
I0
sg3
F0.6191599369049072
sg4
F6.0
sg5
I12
sg6
F0.008967876434326172
sg7
F0.002312183380126953
sg8
I12
sg9
I0
sg10
I8
ssI123
(dp106
g2
I0
sg3
F1.3284459114074707
sg4
F50.25503355704698
sg5
I149
sg6
F0.018162965774536133
sg7
F0.00427699089050293
sg8
I149
sg9
I0
sg10
I40
ssI124
(dp107
g2
I0
sg3
F0.0033979415893554688
sg4
I0
sg5
I1
sg6
I0
sg7
F0.0020329952239990234
sg8
I1
sg9
I0
sg10
I0
ssI125
(dp108
g2
I0
sg3
F0.03216409683227539
sg4
F3.6
sg5
I20
sg6
F6.604194641113281e-05
sg7
F0.0018608570098876953
sg8
I20
sg9
I0
sg10
I2
ssI126
(dp109
g2
I0
sg3
F0.06411194801330566
sg4
F8.727272727272727
sg5
I22
sg6
F0.0002338886260986328
sg7
F0.002115011215209961
sg8
I22
sg9
I0
sg10
I8
ssI127
(dp110
g2
I0
sg3
F0.032319068908691406
sg4
F1.3333333333333335
sg5
I3
sg6
F0.00039696693420410156
sg7
F0.002107858657836914
sg8
I3
sg9
I0
sg10
I2
ss.