(dp0
I1
(dp1
S'iters'
p2
I2
sS'meta'
p3
(lp4
(dp5
S'objective'
p6
I42
sS'query_time'
p7
F0.03708004951477051
sS'comp_time'
p8
F0.00018310546875
sS'exec_cq'
p9
I12
sS'total_cq'
p10
I12
sa(dp11
g6
I40
sg7
F4.100799560546875e-05
sg8
F5.2928924560546875e-05
sg9
I10
sg10
I10
sasS'total_cqs'
p12
I12
ssI2
(dp13
S'iters'
p14
I5
sS'meta'
p15
(lp16
(dp17
S'objective'
p18
I238
sS'query_time'
p19
F0.1389760971069336
sS'comp_time'
p20
F0.0012900829315185547
sS'exec_cq'
p21
I27
sS'total_cq'
p22
I27
sa(dp23
g18
I238
sg19
F0.0001881122589111328
sg20
F0.0005788803100585938
sg21
I23
sg22
I23
sa(dp24
g18
I219
sg19
F0.0001239776611328125
sg20
F0.0003509521484375
sg21
I20
sg22
I20
sa(dp25
g18
I200
sg19
F0.00011396408081054688
sg20
F0.0004019737243652344
sg21
I18
sg22
I18
sa(dp26
g18
I179
sg19
F7.796287536621094e-05
sg20
F0.00022983551025390625
sg21
I17
sg22
I17
sasS'total_cqs'
p27
I27
ssI3
(dp28
S'iters'
p29
I3
sS'meta'
p30
(lp31
(dp32
S'objective'
p33
I228
sS'query_time'
p34
F157.97969794273376
sS'comp_time'
p35
F1.5407261848449707
sS'exec_cq'
p36
I43
sS'total_cq'
p37
I43
sa(dp38
g33
I13
sg34
F0.3356449604034424
sg35
F1.3388829231262207
sg36
I27
sg37
I27
sa(dp39
g33
I232
sg34
F0.06328392028808594
sg35
F0.4616968631744385
sg36
I13
sg37
I13
sasS'total_cqs'
p40
I43
ssI4
(dp41
S'iters'
p42
I2
sS'meta'
p43
(lp44
(dp45
S'objective'
p46
I28
sS'query_time'
p47
F3.9491770267486572
sS'comp_time'
p48
F0.48821187019348145
sS'exec_cq'
p49
I11
sS'total_cq'
p50
I11
sa(dp51
g46
I1
sg47
F0.14934396743774414
sg48
F0.40503787994384766
sg49
I2
sg50
I2
sasS'total_cqs'
p52
I11
ssI5
(dp53
S'iters'
p54
I3
sS'meta'
p55
(lp56
(dp57
S'objective'
p58
I0
sS'query_time'
p59
F27.52763605117798
sS'comp_time'
p60
F2.196167230606079
sS'exec_cq'
p61
I8
sS'total_cq'
p62
I8
sa(dp63
g58
I0
sg59
F0.010059833526611328
sg60
F0.0428309440612793
sg61
I4
sg62
I4
sa(dp64
g58
I5
sg59
F0.0068531036376953125
sg60
F0.0346829891204834
sg61
I2
sg62
I2
sasS'total_cqs'
p65
I8
ssI6
(dp66
S'iters'
p67
I3
sS'meta'
p68
(lp69
(dp70
S'objective'
p71
I21
sS'query_time'
p72
F30.530941009521484
sS'comp_time'
p73
F2.306778907775879
sS'exec_cq'
p74
I18
sS'total_cq'
p75
I18
sa(dp76
g71
I1
sg72
F0.6279997825622559
sg73
F2.1079890727996826
sg74
I7
sg75
I7
sa(dp77
g71
I7
sg72
F0.33658504486083984
sg73
F1.0974040031433105
sg74
I3
sg75
I3
sasS'total_cqs'
p78
I18
ssI7
(dp79
S'iters'
p80
I3
sS'meta'
p81
(lp82
(dp83
S'objective'
p84
I1
sS'query_time'
p85
F9.96947693824768
sS'comp_time'
p86
F1.0055911540985107
sS'exec_cq'
p87
I9
sS'total_cq'
p88
I9
sa(dp89
g84
I0
sg85
F0.27684617042541504
sg86
F1.0278589725494385
sg87
I5
sg88
I5
sa(dp90
g84
I5
sg85
F0.03645801544189453
sg86
F0.32488012313842773
sg87
I2
sg88
I2
sasS'total_cqs'
p91
I9
ssI8
(dp92
S'iters'
p93
I3
sS'meta'
p94
(lp95
(dp96
S'objective'
p97
I224
sS'query_time'
p98
F0.21515607833862305
sS'comp_time'
p99
F0.001119375228881836
sS'exec_cq'
p100
I27
sS'total_cq'
p101
I27
sa(dp102
g97
I193
sg98
F0.00012993812561035156
sg99
F0.0003170967102050781
sg100
I22
sg101
I22
sa(dp103
g97
I203
sg98
F6.508827209472656e-05
sg99
F8.487701416015625e-05
sg100
I19
sg101
I19
sasS'total_cqs'
p104
I27
ssI9
(dp105
S'iters'
p106
I3
sS'meta'
p107
(lp108
(dp109
S'objective'
p110
I8
sS'query_time'
p111
F0.051931142807006836
sS'comp_time'
p112
F0.0002689361572265625
sS'exec_cq'
p113
I7
sS'total_cq'
p114
I7
sa(dp115
g110
I0
sg111
F3.504753112792969e-05
sg112
F0.0001270771026611328
sg113
I4
sg114
I4
sa(dp116
g110
I5
sg111
F2.193450927734375e-05
sg112
F4.315376281738281e-05
sg113
I2
sg114
I2
sasS'total_cqs'
p117
I7
ssI10
(dp118
S'iters'
p119
I5
sS'meta'
p120
(lp121
(dp122
S'objective'
p123
I592
sS'query_time'
p124
F0.44748806953430176
sS'comp_time'
p125
F0.0063588619232177734
sS'exec_cq'
p126
I51
sS'total_cq'
p127
I51
sa(dp128
g123
I237
sg124
F0.00044989585876464844
sg125
F0.001367807388305664
sg126
I37
sg127
I37
sa(dp129
g123
I1
sg124
F0.0012919902801513672
sg125
F0.0004849433898925781
sg126
I12
sg127
I12
sa(dp130
g123
I0
sg124
F6.699562072753906e-05
sg125
F0.00023889541625976562
sg126
I6
sg127
I6
sa(dp131
g123
I10
sg124
F2.6941299438476562e-05
sg125
F9.489059448242188e-05
sg126
I3
sg127
I3
sasS'total_cqs'
p132
I51
ssI11
(dp133
S'iters'
p134
I4
sS'meta'
p135
(lp136
(dp137
S'objective'
p138
I1076
sS'query_time'
p139
F0.649744987487793
sS'comp_time'
p140
F0.014087915420532227
sS'exec_cq'
p141
I63
sS'total_cq'
p142
I63
sa(dp143
g138
I1016
sg139
F0.0009031295776367188
sg140
F0.0036940574645996094
sg141
I47
sg142
I47
sa(dp144
g138
I3
sg139
F0.0016369819641113281
sg140
F0.0008180141448974609
sg141
I9
sg142
I9
sa(dp145
g138
I36
sg139
F0.00011587142944335938
sg140
F0.0006248950958251953
sg141
I5
sg142
I5
sasS'total_cqs'
p146
I63
ssI12
(dp147
S'iters'
p148
I5
sS'meta'
p149
(lp150
(dp151
S'objective'
p152
I631
sS'query_time'
p153
F0.4196319580078125
sS'comp_time'
p154
F0.007323026657104492
sS'exec_cq'
p155
I50
sS'total_cq'
p156
I50
sa(dp157
g152
I383
sg153
F0.0004730224609375
sg154
F0.0017998218536376953
sg155
I38
sg156
I38
sa(dp158
g152
I13
sg153
F0.0017001628875732422
sg154
F0.0010120868682861328
sg155
I8
sg156
I8
sa(dp159
g152
I0
sg153
F3.314018249511719e-05
sg154
F8.296966552734375e-05
sg155
I4
sg156
I4
sa(dp160
g152
I10
sg153
F1.5974044799804688e-05
sg154
F5.602836608886719e-05
sg155
I2
sg156
I2
sasS'total_cqs'
p161
I50
ssI13
(dp162
S'iters'
p163
I4
sS'meta'
p164
(lp165
(dp166
S'objective'
p167
I10
sS'query_time'
p168
F0.1596240997314453
sS'comp_time'
p169
F0.00038909912109375
sS'exec_cq'
p170
I20
sS'total_cq'
p171
I20
sa(dp172
g167
I6
sg168
F0.0011699199676513672
sg169
F0.0002789497375488281
sg170
I11
sg171
I11
sa(dp173
g167
I12
sg168
F4.291534423828125e-05
sg169
F0.0001201629638671875
sg170
I6
sg171
I6
sa(dp174
g167
I3
sg168
F3.2901763916015625e-05
sg169
F8.988380432128906e-05
sg170
I4
sg171
I4
sasS'total_cqs'
p175
I20
ssI14
(dp176
S'iters'
p177
I3
sS'meta'
p178
(lp179
(dp180
S'objective'
p181
I1
sS'query_time'
p182
F27.241657972335815
sS'comp_time'
p183
F0.9335799217224121
sS'exec_cq'
p184
I9
sS'total_cq'
p185
I9
sa(dp186
g181
I1
sg182
F0.0069730281829833984
sg183
F0.032292842864990234
sg184
I4
sg185
I4
sa(dp187
g181
I4
sg182
F0.006944179534912109
sg183
F0.1058340072631836
sg184
I2
sg185
I2
sasS'total_cqs'
p188
I9
ssI15
(dp189
S'iters'
p190
I3
sS'meta'
p191
(lp192
(dp193
S'objective'
p194
I0
sS'query_time'
p195
F3.122941017150879
sS'comp_time'
p196
F0.1447010040283203
sS'exec_cq'
p197
I11
sS'total_cq'
p198
I11
sa(dp199
g194
I1
sg195
F0.03375697135925293
sg196
F0.13631701469421387
sg197
I6
sg198
I6
sa(dp200
g194
I4
sg195
F0.000982046127319336
sg196
F0.004188060760498047
sg197
I3
sg198
I3
sasS'total_cqs'
p201
I11
ssI16
(dp202
S'iters'
p203
I1
sS'meta'
p204
(lp205
(dp206
S'objective'
p207
I22
sS'query_time'
p208
F0.04496407508850098
sS'comp_time'
p209
F0.0001430511474609375
sS'exec_cq'
p210
I8
sS'total_cq'
p211
I8
sasS'total_cqs'
p212
I8
ssI17
(dp213
S'iters'
p214
I3
sS'meta'
p215
(lp216
(dp217
S'objective'
p218
I0
sS'query_time'
p219
F0.8791708946228027
sS'comp_time'
p220
F0.017184734344482422
sS'exec_cq'
p221
I11
sS'total_cq'
p222
I11
sa(dp223
g218
I1
sg219
F0.0016541481018066406
sg220
F0.007961273193359375
sg221
I4
sg222
I4
sa(dp224
g218
I4
sg219
F0.00013899803161621094
sg220
F0.0007741451263427734
sg221
I2
sg222
I2
sasS'total_cqs'
p225
I11
ssI18
(dp226
S'iters'
p227
I2
sS'meta'
p228
(lp229
(dp230
S'objective'
p231
I44
sS'query_time'
p232
F0.23520779609680176
sS'comp_time'
p233
F0.00356292724609375
sS'exec_cq'
p234
I11
sS'total_cq'
p235
I11
sa(dp236
g231
I35
sg232
F0.00019502639770507812
sg233
F0.0009069442749023438
sg234
I8
sg235
I8
sasS'total_cqs'
p237
I11
ssI22
(dp238
S'iters'
p239
I1
sS'meta'
p240
(lp241
(dp242
S'objective'
p243
I141
sS'query_time'
p244
F0.07557296752929688
sS'comp_time'
p245
F0.0001819133758544922
sS'exec_cq'
p246
I18
sS'total_cq'
p247
I18
sasS'total_cqs'
p248
I18
ssI23
(dp249
S'iters'
p250
I1
sS'meta'
p251
(lp252
(dp253
S'objective'
p254
I110
sS'query_time'
p255
F0.07830405235290527
sS'comp_time'
p256
F0.0005710124969482422
sS'exec_cq'
p257
I16
sS'total_cq'
p258
I16
sasS'total_cqs'
p259
I16
ssI26
(dp260
S'iters'
p261
I1
sS'meta'
p262
(lp263
(dp264
S'objective'
p265
I837
sS'query_time'
p266
F0.18934392929077148
sS'comp_time'
p267
F0.00017595291137695312
sS'exec_cq'
p268
I42
sS'total_cq'
p269
I42
sasS'total_cqs'
p270
I42
ssI27
(dp271
S'iters'
p272
I3
sS'meta'
p273
(lp274
(dp275
S'objective'
p276
I311
sS'query_time'
p277
F17.509078979492188
sS'comp_time'
p278
F1.874182939529419
sS'exec_cq'
p279
I30
sS'total_cq'
p280
I30
sa(dp281
g276
I3
sg277
F0.36806607246398926
sg278
F2.069288730621338
sg279
I5
sg280
I5
sa(dp282
g276
I11
sg277
F0.09279108047485352
sg278
F0.7732381820678711
sg279
I3
sg280
I3
sasS'total_cqs'
p283
I30
ssI29
(dp284
S'iters'
p285
I5
sS'meta'
p286
(lp287
(dp288
S'objective'
p289
I273
sS'query_time'
p290
F133.97983193397522
sS'comp_time'
p291
F15.951894998550415
sS'exec_cq'
p292
I49
sS'total_cq'
p293
I49
sa(dp294
g289
I0
sg290
F0.020735979080200195
sg291
F0.046605825424194336
sg292
I17
sg293
I17
sa(dp295
g289
I8
sg290
F0.0013570785522460938
sg291
F0.0051059722900390625
sg292
I9
sg293
I9
sa(dp296
g289
I3
sg290
F0.0007519721984863281
sg291
F0.00374603271484375
sg292
I5
sg293
I5
sa(dp297
g289
I16
sg290
F0.0009539127349853516
sg291
F0.0034580230712890625
sg292
I3
sg293
I3
sasS'total_cqs'
p298
I49
ssI30
(dp299
S'iters'
p300
I1
sS'meta'
p301
(lp302
(dp303
S'objective'
p304
I1
sS'query_time'
p305
F0.6857409477233887
sS'comp_time'
p306
F0.02996993064880371
sS'exec_cq'
p307
I2
sS'total_cq'
p308
I2
sasS'total_cqs'
p309
I2
ssI32
(dp310
S'iters'
p311
I1
sS'meta'
p312
(lp313
(dp314
S'objective'
p315
I1
sS'query_time'
p316
F0.011533021926879883
sS'comp_time'
p317
F0.0002961158752441406
sS'exec_cq'
p318
I2
sS'total_cq'
p319
I2
sasS'total_cqs'
p320
I2
ssI33
(dp321
S'iters'
p322
I5
sS'meta'
p323
(lp324
(dp325
S'objective'
p326
I3644
sS'query_time'
p327
F14.184598922729492
sS'comp_time'
p328
F0.14298295974731445
sS'exec_cq'
p329
I103
sS'total_cq'
p330
I103
sa(dp331
g326
I10
sg327
F0.008208036422729492
sg328
F0.04584097862243652
sg329
I16
sg330
I16
sa(dp332
g326
I1
sg327
F0.002877950668334961
sg328
F0.008665084838867188
sg329
I9
sg330
I9
sa(dp333
g326
I54
sg327
F0.0013339519500732422
sg328
F0.007726192474365234
sg329
I4
sg330
I4
sa(dp334
g326
I77
sg327
F0.0006740093231201172
sg328
F0.003484010696411133
sg329
I2
sg330
I2
sasS'total_cqs'
p335
I103
ssI34
(dp336
S'iters'
p337
I1
sS'meta'
p338
(lp339
(dp340
S'objective'
p341
I1
sS'query_time'
p342
F0.021430015563964844
sS'comp_time'
p343
F0.0006029605865478516
sS'exec_cq'
p344
I2
sS'total_cq'
p345
I2
sasS'total_cqs'
p346
I2
ssI35
(dp347
S'iters'
p348
I13
sS'meta'
p349
(lp350
(dp351
S'objective'
p352
I2345
sS'query_time'
p353
F49.78754496574402
sS'comp_time'
p354
F3.4472451210021973
sS'exec_cq'
p355
I70
sS'total_cq'
p356
I70
sa(dp357
g352
I2321
sg353
F0.0005960464477539062
sg354
F0.05318093299865723
sg355
I69
sg356
I69
sa(dp358
g352
I2278
sg353
F0.0001850128173828125
sg354
F0.058170318603515625
sg355
I68
sg356
I68
sa(dp359
g352
I2239
sg353
F0.0004189014434814453
sg354
F0.045619964599609375
sg355
I67
sg356
I67
sa(dp360
g352
I2003
sg353
F0.0002319812774658203
sg354
F0.044068098068237305
sg355
I66
sg356
I66
sa(dp361
g352
I2110
sg353
F0.000186920166015625
sg354
F0.05030488967895508
sg355
I63
sg356
I63
sa(dp362
g352
I1702
sg353
F0.2624998092651367
sg354
F0.23513197898864746
sg355
I62
sg356
I62
sa(dp363
g352
I1778
sg353
F0.048120975494384766
sg354
F0.030240297317504883
sg355
I58
sg356
I58
sa(dp364
g352
I1674
sg353
F0.27916860580444336
sg354
F0.21570992469787598
sg355
I57
sg356
I57
sa(dp365
g352
I1554
sg353
F0.053347110748291016
sg354
F0.05090975761413574
sg355
I55
sg356
I55
sa(dp366
g352
I1401
sg353
F0.18833017349243164
sg354
F0.19442391395568848
sg355
I53
sg356
I53
sa(dp367
g352
I6
sg353
F0.01812911033630371
sg354
F0.015842914581298828
sg355
I3
sg356
I3
sa(dp368
g352
I41
sg353
F0.00972604751586914
sg354
F0.008896112442016602
sg355
I2
sg356
I2
sasS'total_cqs'
p369
I70
ssI36
(dp370
S'iters'
p371
I4
sS'meta'
p372
(lp373
(dp374
S'objective'
p375
I383
sS'query_time'
p376
F0.8183541297912598
sS'comp_time'
p377
F0.027563095092773438
sS'exec_cq'
p378
I33
sS'total_cq'
p379
I33
sa(dp380
g375
I326
sg376
F0.004642963409423828
sg377
F0.021147966384887695
sg378
I29
sg379
I29
sa(dp381
g375
I337
sg376
F0.0015940666198730469
sg377
F0.0075910091400146484
sg378
I25
sg379
I25
sa(dp382
g375
I316
sg376
F0.0011081695556640625
sg377
F0.0051920413970947266
sg378
I24
sg379
I24
sasS'total_cqs'
p383
I33
ssI37
(dp384
S'iters'
p385
I1
sS'meta'
p386
(lp387
(dp388
S'objective'
p389
I1
sS'query_time'
p390
F0.009222984313964844
sS'comp_time'
p391
F0.0002601146697998047
sS'exec_cq'
p392
I2
sS'total_cq'
p393
I2
sasS'total_cqs'
p394
I2
ssI38
(dp395
S'iters'
p396
I2
sS'meta'
p397
(lp398
(dp399
S'objective'
p400
I0
sS'query_time'
p401
F0.031000852584838867
sS'comp_time'
p402
F0.0007071495056152344
sS'exec_cq'
p403
I4
sS'total_cq'
p404
I4
sa(dp405
g400
I3
sg401
F8.893013000488281e-05
sg402
F0.00030612945556640625
sg403
I2
sg404
I2
sasS'total_cqs'
p406
I4
ssI39
(dp407
S'iters'
p408
I2
sS'meta'
p409
(lp410
(dp411
S'objective'
p412
I624
sS'query_time'
p413
F0.20882797241210938
sS'comp_time'
p414
F0.001399993896484375
sS'exec_cq'
p415
I44
sS'total_cq'
p416
I44
sa(dp417
g412
I739
sg413
F0.0003139972686767578
sg414
F0.0011608600616455078
sg415
I37
sg416
I37
sasS'total_cqs'
p418
I44
ssI40
(dp419
S'iters'
p420
I1
sS'meta'
p421
(lp422
(dp423
S'objective'
p424
I14
sS'query_time'
p425
F0.04547715187072754
sS'comp_time'
p426
F9.393692016601562e-05
sS'exec_cq'
p427
I7
sS'total_cq'
p428
I7
sasS'total_cqs'
p429
I7
ssI41
(dp430
S'iters'
p431
I1
sS'meta'
p432
(lp433
(dp434
S'objective'
p435
I58
sS'query_time'
p436
F0.08003616333007812
sS'comp_time'
p437
F0.00014209747314453125
sS'exec_cq'
p438
I12
sS'total_cq'
p439
I12
sasS'total_cqs'
p440
I12
ssI42
(dp441
S'iters'
p442
I1
sS'meta'
p443
(lp444
(dp445
S'objective'
p446
I797
sS'query_time'
p447
F0.1613941192626953
sS'comp_time'
p448
F0.00021791458129882812
sS'exec_cq'
p449
I41
sS'total_cq'
p450
I41
sasS'total_cqs'
p451
I41
ssI43
(dp452
S'iters'
p453
I1
sS'meta'
p454
(lp455
(dp456
S'objective'
p457
I14
sS'query_time'
p458
F0.027348995208740234
sS'comp_time'
p459
F9.274482727050781e-05
sS'exec_cq'
p460
I7
sS'total_cq'
p461
I7
sasS'total_cqs'
p462
I7
ssI44
(dp463
S'iters'
p464
I4
sS'meta'
p465
(lp466
(dp467
S'objective'
p468
I832
sS'query_time'
p469
F0.16868901252746582
sS'comp_time'
p470
F0.0010890960693359375
sS'exec_cq'
p471
I47
sS'total_cq'
p472
I47
sa(dp473
g468
I770
sg469
F0.0002770423889160156
sg470
F0.0009260177612304688
sg471
I40
sg472
I40
sa(dp474
g468
I25
sg469
F0.0012221336364746094
sg470
F0.0006730556488037109
sg471
I3
sg472
I3
sa(dp475
g468
I9
sg469
F2.4080276489257812e-05
sg470
F9.107589721679688e-05
sg471
I2
sg472
I2
sasS'total_cqs'
p476
I47
ssI46
(dp477
S'iters'
p478
I1
sS'meta'
p479
(lp480
(dp481
S'objective'
p482
I9
sS'query_time'
p483
F0.019253015518188477
sS'comp_time'
p484
F0.0002682209014892578
sS'exec_cq'
p485
I6
sS'total_cq'
p486
I6
sasS'total_cqs'
p487
I6
ssI47
(dp488
S'iters'
p489
I1
sS'meta'
p490
(lp491
(dp492
S'objective'
p493
I1
sS'query_time'
p494
F0.011584043502807617
sS'comp_time'
p495
F0.0005011558532714844
sS'exec_cq'
p496
I2
sS'total_cq'
p497
I2
sasS'total_cqs'
p498
I2
ssI50
(dp499
S'iters'
p500
I1
sS'meta'
p501
(lp502
(dp503
S'objective'
p504
I5
sS'query_time'
p505
F0.013357162475585938
sS'comp_time'
p506
F0.00013685226440429688
sS'exec_cq'
p507
I5
sS'total_cq'
p508
I5
sasS'total_cqs'
p509
I5
ssI51
(dp510
S'iters'
p511
I1
sS'meta'
p512
(lp513
(dp514
S'objective'
p515
I1
sS'query_time'
p516
F0.007592916488647461
sS'comp_time'
p517
F0.00015497207641601562
sS'exec_cq'
p518
I2
sS'total_cq'
p519
I2
sasS'total_cqs'
p520
I2
ssI52
(dp521
S'iters'
p522
I1
sS'meta'
p523
(lp524
(dp525
S'objective'
p526
I1
sS'query_time'
p527
F0.012758016586303711
sS'comp_time'
p528
F0.00021600723266601562
sS'exec_cq'
p529
I2
sS'total_cq'
p530
I2
sasS'total_cqs'
p531
I2
ssI53
(dp532
S'iters'
p533
I1
sS'meta'
p534
(lp535
(dp536
S'objective'
p537
I2
sS'query_time'
p538
F0.033123016357421875
sS'comp_time'
p539
F0.0006377696990966797
sS'exec_cq'
p540
I4
sS'total_cq'
p541
I4
sasS'total_cqs'
p542
I4
ssI54
(dp543
S'iters'
p544
I2
sS'meta'
p545
(lp546
(dp547
S'objective'
p548
I0
sS'query_time'
p549
F0.011765003204345703
sS'comp_time'
p550
F0.0002589225769042969
sS'exec_cq'
p551
I3
sS'total_cq'
p552
I3
sa(dp553
g548
I1
sg549
F4.100799560546875e-05
sg550
F0.00019979476928710938
sg551
I2
sg552
I2
sasS'total_cqs'
p554
I3
ssI55
(dp555
S'iters'
p556
I4
sS'meta'
p557
(lp558
(dp559
S'objective'
p560
I4711
sS'query_time'
p561
F2.3338959217071533
sS'comp_time'
p562
F0.03129982948303223
sS'exec_cq'
p563
I109
sS'total_cq'
p564
I109
sa(dp565
g560
I22
sg561
F0.0029058456420898438
sg562
F0.010397195816040039
sg563
I9
sg564
I9
sa(dp566
g560
I12
sg561
F0.000553131103515625
sg562
F0.0021719932556152344
sg563
I5
sg564
I5
sa(dp567
g560
I6
sg561
F0.0001049041748046875
sg562
F0.0005190372467041016
sg563
I2
sg564
I2
sasS'total_cqs'
p568
I109
ssI56
(dp569
S'iters'
p570
I5
sS'meta'
p571
(lp572
(dp573
S'objective'
p574
I1528
sS'query_time'
p575
F3.420153856277466
sS'comp_time'
p576
F0.12270617485046387
sS'exec_cq'
p577
I76
sS'total_cq'
p578
I76
sa(dp579
g574
I33
sg575
F0.005012035369873047
sg576
F0.009701013565063477
sg577
I16
sg578
I16
sa(dp580
g574
I12
sg575
F0.002868175506591797
sg576
F0.00778508186340332
sg577
I9
sg578
I9
sa(dp581
g574
I39
sg575
F0.0003910064697265625
sg576
F0.0023877620697021484
sg577
I4
sg578
I4
sa(dp582
g574
I2
sg575
F0.00030803680419921875
sg576
F0.0019309520721435547
sg577
I3
sg578
I3
sasS'total_cqs'
p583
I76
ssI57
(dp584
S'iters'
p585
I5
sS'meta'
p586
(lp587
(dp588
S'objective'
p589
I62
sS'query_time'
p590
F67.96949505805969
sS'comp_time'
p591
F3.9082179069519043
sS'exec_cq'
p592
I51
sS'total_cq'
p593
I51
sa(dp594
g589
I26
sg590
F0.015758037567138672
sg591
F0.027944087982177734
sg592
I27
sg593
I27
sa(dp595
g589
I48
sg590
F0.002138853073120117
sg591
F0.005578041076660156
sg592
I13
sg593
I13
sa(dp596
g589
I1
sg590
F0.009594202041625977
sg591
F0.004786014556884766
sg592
I6
sg593
I6
sa(dp597
g589
I9
sg590
F0.0014379024505615234
sg591
F0.004141807556152344
sg592
I4
sg593
I4
sasS'total_cqs'
p598
I51
ssI58
(dp599
S'iters'
p600
I5
sS'meta'
p601
(lp602
(dp603
S'objective'
p604
I88067
sS'query_time'
p605
F292.0216450691223
sS'comp_time'
p606
F16.64206600189209
sS'exec_cq'
p607
I486
sS'total_cq'
p608
I486
sa(dp609
g604
I4137
sg605
F0.03476595878601074
sg606
F0.19883513450622559
sg607
I64
sg608
I64
sa(dp610
g604
I2319
sg605
F0.01945209503173828
sg606
F0.1016390323638916
sg607
I38
sg608
I38
sa(dp611
g604
I1309
sg605
F0.007993936538696289
sg606
F0.06538510322570801
sg607
I14
sg608
I14
sa(dp612
g604
I443
sg605
F0.001071929931640625
sg606
F0.0043680667877197266
sg607
I6
sg608
I6
sasS'total_cqs'
p613
I486
ssI59
(dp614
S'iters'
p615
I2
sS'meta'
p616
(lp617
(dp618
S'objective'
p619
I8
sS'query_time'
p620
F0.05295896530151367
sS'comp_time'
p621
F0.0009520053863525391
sS'exec_cq'
p622
I7
sS'total_cq'
p623
I7
sa(dp624
g619
I4
sg620
F0.00015687942504882812
sg621
F0.0008378028869628906
sg622
I2
sg623
I2
sasS'total_cqs'
p625
I7
ssI60
(dp626
S'iters'
p627
I1
sS'meta'
p628
(lp629
(dp630
S'objective'
p631
I5
sS'query_time'
p632
F0.022342920303344727
sS'comp_time'
p633
F0.0003199577331542969
sS'exec_cq'
p634
I5
sS'total_cq'
p635
I5
sasS'total_cqs'
p636
I5
ssI62
(dp637
S'iters'
p638
I2
sS'meta'
p639
(lp640
(dp641
S'objective'
p642
I32
sS'query_time'
p643
F0.036489009857177734
sS'comp_time'
p644
F0.00017786026000976562
sS'exec_cq'
p645
I12
sS'total_cq'
p646
I12
sa(dp647
g642
I35
sg643
F4.100799560546875e-05
sg644
F6.914138793945312e-05
sg645
I9
sg646
I9
sasS'total_cqs'
p648
I12
ssI64
(dp649
S'iters'
p650
I2
sS'meta'
p651
(lp652
(dp653
S'objective'
p654
I36
sS'query_time'
p655
F0.15234708786010742
sS'comp_time'
p656
F0.003857135772705078
sS'exec_cq'
p657
I12
sS'total_cq'
p658
I12
sa(dp659
g654
I1
sg655
F0.0002110004425048828
sg656
F0.0010399818420410156
sg657
I4
sg658
I4
sasS'total_cqs'
p660
I12
ssI65
(dp661
S'iters'
p662
I4
sS'meta'
p663
(lp664
(dp665
S'objective'
p666
I108
sS'query_time'
p667
F0.7686870098114014
sS'comp_time'
p668
F0.03685808181762695
sS'exec_cq'
p669
I27
sS'total_cq'
p670
I27
sa(dp671
g666
I3
sg667
F0.0012021064758300781
sg668
F0.0044078826904296875
sg669
I7
sg670
I7
sa(dp672
g666
I14
sg667
F0.0005509853363037109
sg668
F0.0029039382934570312
sg669
I3
sg670
I3
sa(dp673
g666
I4
sg667
F0.00023102760314941406
sg668
F0.0015790462493896484
sg669
I2
sg670
I2
sasS'total_cqs'
p674
I27
ssI67
(dp675
S'iters'
p676
I2
sS'meta'
p677
(lp678
(dp679
S'objective'
p680
I554
sS'query_time'
p681
F1.3521571159362793
sS'comp_time'
p682
F0.011017799377441406
sS'exec_cq'
p683
I35
sS'total_cq'
p684
I35
sa(dp685
g680
I18
sg681
F0.0012850761413574219
sg682
F0.006309032440185547
sg683
I2
sg684
I2
sasS'total_cqs'
p686
I35
ssI69
(dp687
S'iters'
p688
I1
sS'meta'
p689
(lp690
(dp691
S'objective'
p692
I1246
sS'query_time'
p693
F0.21274805068969727
sS'comp_time'
p694
F0.00024509429931640625
sS'exec_cq'
p695
I51
sS'total_cq'
p696
I51
sasS'total_cqs'
p697
I51
ssI70
(dp698
S'iters'
p699
I1
sS'meta'
p700
(lp701
(dp702
S'objective'
p703
I9
sS'query_time'
p704
F0.022309064865112305
sS'comp_time'
p705
F0.000232696533203125
sS'exec_cq'
p706
I6
sS'total_cq'
p707
I6
sasS'total_cqs'
p708
I6
ssI71
(dp709
S'iters'
p710
I6
sS'meta'
p711
(lp712
(dp713
S'objective'
p714
I3193
sS'query_time'
p715
F0.3729979991912842
sS'comp_time'
p716
F0.0008280277252197266
sS'exec_cq'
p717
I85
sS'total_cq'
p718
I85
sa(dp719
g714
I3032
sg715
F0.00033092498779296875
sg716
F0.000659942626953125
sg717
I81
sg718
I81
sa(dp720
g714
I2922
sg715
F0.0002770423889160156
sg716
F0.004381895065307617
sg717
I77
sg718
I77
sa(dp721
g714
I2789
sg715
F0.00026416778564453125
sg716
F0.000431060791015625
sg717
I74
sg718
I74
sa(dp722
g714
I2734
sg715
F0.0002429485321044922
sg716
F0.0003559589385986328
sg717
I71
sg718
I71
sa(dp723
g714
I31
sg715
F0.002042055130004883
sg716
F0.0001761913299560547
sg717
I3
sg718
I3
sasS'total_cqs'
p724
I85
ssI72
(dp725
S'iters'
p726
I3
sS'meta'
p727
(lp728
(dp729
S'objective'
p730
I8
sS'query_time'
p731
F0.4113438129425049
sS'comp_time'
p732
F0.002483844757080078
sS'exec_cq'
p733
I8
sS'total_cq'
p734
I8
sa(dp735
g730
I2
sg731
F0.00010895729064941406
sg732
F0.0003337860107421875
sg733
I5
sg734
I5
sa(dp736
g730
I2
sg731
F8.392333984375e-05
sg732
F0.0002923011779785156
sg733
I3
sg734
I3
sasS'total_cqs'
p737
I8
ssI75
(dp738
S'iters'
p739
I1
sS'meta'
p740
(lp741
(dp742
S'objective'
p743
I5
sS'query_time'
p744
F0.014670848846435547
sS'comp_time'
p745
F0.00012922286987304688
sS'exec_cq'
p746
I5
sS'total_cq'
p747
I5
sasS'total_cqs'
p748
I5
ssI76
(dp749
S'iters'
p750
I1
sS'meta'
p751
(lp752
(dp753
S'objective'
p754
I1
sS'query_time'
p755
F0.013084888458251953
sS'comp_time'
p756
F0.00030684471130371094
sS'exec_cq'
p757
I2
sS'total_cq'
p758
I2
sasS'total_cqs'
p759
I2
ssI103
(dp760
S'iters'
p761
I1
sS'meta'
p762
(lp763
(dp764
S'objective'
p765
I58
sS'query_time'
p766
F0.0999140739440918
sS'comp_time'
p767
F0.00014400482177734375
sS'exec_cq'
p768
I12
sS'total_cq'
p769
I12
sasS'total_cqs'
p770
I12
ssI104
(dp771
S'iters'
p772
I2
sS'meta'
p773
(lp774
(dp775
S'objective'
p776
I0
sS'query_time'
p777
F1.5301427841186523
sS'comp_time'
p778
F0.08483409881591797
sS'exec_cq'
p779
I4
sS'total_cq'
p780
I4
sa(dp781
g776
I3
sg777
F0.012254953384399414
sg778
F0.08866310119628906
sg779
I2
sg780
I2
sasS'total_cqs'
p782
I4
ssI106
(dp783
S'iters'
p784
I1
sS'meta'
p785
(lp786
(dp787
S'objective'
p788
I2
sS'query_time'
p789
F0.02627086639404297
sS'comp_time'
p790
F0.00010204315185546875
sS'exec_cq'
p791
I4
sS'total_cq'
p792
I4
sasS'total_cqs'
p793
I4
ssI107
(dp794
S'iters'
p795
I2
sS'meta'
p796
(lp797
(dp798
S'objective'
p799
I68
sS'query_time'
p800
F0.1024179458618164
sS'comp_time'
p801
F0.0002048015594482422
sS'exec_cq'
p802
I16
sS'total_cq'
p803
I16
sa(dp804
g799
I8
sg800
F0.006890058517456055
sg801
F0.000102996826171875
sg802
I3
sg803
I3
sasS'total_cqs'
p805
I16
ss.