(dp0
I1
(dp1
S'iters'
p2
I3
sS'meta'
p3
(lp4
(dp5
S'objective'
p6
I10
sS'query_time'
p7
F0.016611099243164062
sS'comp_time'
p8
F8.296966552734375e-05
sS'exec_cq'
p9
I1
sS'total_cq'
p10
I12
sa(dp11
g6
I9
sg7
F0.010171175003051758
sg8
F7.891654968261719e-05
sg9
I2
sg10
I11
sa(dp12
g6
I8
sg7
F0.008852958679199219
sg8
F6.866455078125e-05
sg9
I2
sg10
I10
sasS'total_cqs'
p13
I12
ssI2
(dp14
S'iters'
p15
I8
sS'meta'
p16
(lp17
(dp18
S'objective'
p19
I21
sS'query_time'
p20
F0.02832818031311035
sS'comp_time'
p21
F9.393692016601562e-05
sS'exec_cq'
p22
I1
sS'total_cq'
p23
I27
sa(dp24
g19
I22
sg20
F0.014953851699829102
sg21
F8.392333984375e-05
sg22
I1
sg23
I24
sa(dp25
g19
I19
sg20
F0.028100967407226562
sg21
F0.00010728836059570312
sg22
I3
sg23
I23
sa(dp26
g19
I17
sg20
F0.012946128845214844
sg21
F6.508827209472656e-05
sg22
I2
sg23
I21
sa(dp27
g19
I15
sg20
F0.02324700355529785
sg21
F9.489059448242188e-05
sg22
I1
sg23
I19
sa(dp28
g19
I15
sg20
F0.01483607292175293
sg21
F7.915496826171875e-05
sg22
I2
sg23
I17
sa(dp29
g19
I14
sg20
F0.011617898941040039
sg21
F7.700920104980469e-05
sg22
I4
sg23
I16
sa(dp30
g19
I13
sg20
F0.015356063842773438
sg21
F8.606910705566406e-05
sg22
I2
sg23
I15
sasS'total_cqs'
p31
I27
ssI3
(dp32
S'iters'
p33
I5
sS'meta'
p34
(lp35
(dp36
S'objective'
p37
I35
sS'query_time'
p38
F45.48287796974182
sS'comp_time'
p39
F0.00011014938354492188
sS'exec_cq'
p40
I2
sS'total_cq'
p41
I43
sa(dp42
g37
I31
sg38
F16.669267177581787
sg39
F0.000469207763671875
sg40
I1
sg41
I39
sa(dp43
g37
I3
sg38
F5.4741270542144775
sg39
F0.00017189979553222656
sg40
I2
sg41
I35
sa(dp44
g37
I11
sg38
F7.173865079879761
sg39
F0.0002238750457763672
sg40
I1
sg41
I19
sa(dp45
g37
I13
sg38
F41.69767689704895
sg39
F0.00010991096496582031
sg40
I4
sg41
I15
sasS'total_cqs'
p46
I43
ssI4
(dp47
S'iters'
p48
I2
sS'meta'
p49
(lp50
(dp51
S'objective'
p52
I7
sS'query_time'
p53
F0.5796740055084229
sS'comp_time'
p54
F9.107589721679688e-05
sS'exec_cq'
p55
I3
sS'total_cq'
p56
I11
sa(dp57
g52
I0
sg53
F3.1825220584869385
sg54
F0.000823974609375
sg55
I1
sg56
I2
sasS'total_cqs'
p58
I11
ssI5
(dp59
S'iters'
p60
I7
sS'meta'
p61
(lp62
(dp63
S'objective'
p64
I6
sS'query_time'
p65
F6.457782030105591
sS'comp_time'
p66
F0.0001010894775390625
sS'exec_cq'
p67
I1
sS'total_cq'
p68
I8
sa(dp69
g64
I5
sg65
F12.258700847625732
sg66
F0.00017786026000976562
sg67
I1
sg68
I7
sa(dp70
g64
I4
sg65
F0.0348508358001709
sg66
F9.393692016601562e-05
sg67
I1
sg68
I6
sa(dp71
g64
I3
sg65
F0.5213260650634766
sg66
F7.915496826171875e-05
sg67
I1
sg68
I5
sa(dp72
g64
I2
sg65
F5.837492942810059
sg66
F0.00021219253540039062
sg67
I1
sg68
I4
sa(dp73
g64
I1
sg65
F0.656919002532959
sg66
F0.00010704994201660156
sg67
I1
sg68
I3
sa(dp74
g64
I0
sg65
F0.25502991676330566
sg66
F6.699562072753906e-05
sg67
I1
sg68
I2
sasS'total_cqs'
p75
I8
ssI6
(dp76
S'iters'
p77
I5
sS'meta'
p78
(lp79
(dp80
S'objective'
p81
I12
sS'query_time'
p82
F7.486285924911499
sS'comp_time'
p83
F0.0002818107604980469
sS'exec_cq'
p84
I1
sS'total_cq'
p85
I18
sa(dp86
g81
I13
sg82
F0.06052589416503906
sg83
F0.00010418891906738281
sg84
I1
sg85
I15
sa(dp87
g81
I12
sg82
F0.6494541168212891
sg83
F0.00010824203491210938
sg84
I1
sg85
I14
sa(dp88
g81
I9
sg82
F0.4278261661529541
sg83
F9.107589721679688e-05
sg84
I1
sg85
I13
sa(dp89
g81
I0
sg82
F0.00562596321105957
sg83
F5.3882598876953125e-05
sg84
I1
sg85
I2
sasS'total_cqs'
p90
I18
ssI7
(dp91
S'iters'
p92
I2
sS'meta'
p93
(lp94
(dp95
S'objective'
p96
I3
sS'query_time'
p97
F0.1895768642425537
sS'comp_time'
p98
F8.893013000488281e-05
sS'exec_cq'
p99
I1
sS'total_cq'
p100
I9
sa(dp101
g96
I4
sg97
F0.21509599685668945
sg98
F7.009506225585938e-05
sg99
I1
sg100
I6
sasS'total_cqs'
p102
I9
ssI8
(dp103
S'iters'
p104
I5
sS'meta'
p105
(lp106
(dp107
S'objective'
p108
I17
sS'query_time'
p109
F0.022528886795043945
sS'comp_time'
p110
F0.00010085105895996094
sS'exec_cq'
p111
I1
sS'total_cq'
p112
I27
sa(dp113
g108
I20
sg109
F0.020827054977416992
sg110
F9.369850158691406e-05
sg111
I2
sg112
I22
sa(dp114
g108
I19
sg109
F0.03785896301269531
sg110
F8.702278137207031e-05
sg111
I10
sg112
I21
sa(dp115
g108
I14
sg109
F0.024411916732788086
sg110
F8.416175842285156e-05
sg111
I11
sg112
I20
sa(dp116
g108
I15
sg109
F0.011631011962890625
sg110
F7.581710815429688e-05
sg111
I7
sg112
I17
sasS'total_cqs'
p117
I27
ssI9
(dp118
S'iters'
p119
I3
sS'meta'
p120
(lp121
(dp122
S'objective'
p123
I3
sS'query_time'
p124
F0.015362977981567383
sS'comp_time'
p125
F7.891654968261719e-05
sS'exec_cq'
p126
I1
sS'total_cq'
p127
I7
sa(dp128
g123
I1
sg124
F0.020018815994262695
sg125
F7.43865966796875e-05
sg126
I1
sg127
I5
sa(dp129
g123
I0
sg124
F0.003813028335571289
sg125
F5.412101745605469e-05
sg126
I1
sg127
I2
sasS'total_cqs'
p130
I7
ssI10
(dp131
S'iters'
p132
I10
sS'meta'
p133
(lp134
(dp135
S'objective'
p136
I23
sS'query_time'
p137
F0.08704400062561035
sS'comp_time'
p138
F9.918212890625e-05
sS'exec_cq'
p139
I1
sS'total_cq'
p140
I51
sa(dp141
g136
I33
sg137
F0.03931903839111328
sg138
F0.00011181831359863281
sg139
I1
sg140
I37
sa(dp142
g136
I31
sg137
F0.05231213569641113
sg138
F0.00010895729064941406
sg139
I1
sg140
I35
sa(dp143
g136
I27
sg137
F0.02501201629638672
sg138
F0.00010395050048828125
sg139
I2
sg140
I33
sa(dp144
g136
I24
sg137
F0.06691098213195801
sg138
F0.00010585784912109375
sg139
I4
sg140
I30
sa(dp145
g136
I23
sg137
F0.043235063552856445
sg138
F9.894371032714844e-05
sg139
I1
sg140
I27
sa(dp146
g136
I11
sg137
F0.030082225799560547
sg138
F0.00010013580322265625
sg139
I2
sg140
I25
sa(dp147
g136
I1
sg137
F0.01668095588684082
sg138
F7.176399230957031e-05
sg139
I1
sg140
I7
sa(dp148
g136
I0
sg137
F0.00574183464050293
sg138
F5.221366882324219e-05
sg139
I1
sg140
I4
sa(dp149
g136
I0
sg137
F0.002959012985229492
sg138
F4.792213439941406e-05
sg139
I2
sg140
I2
sasS'total_cqs'
p150
I51
ssI11
(dp151
S'iters'
p152
I8
sS'meta'
p153
(lp154
(dp155
S'objective'
p156
I57
sS'query_time'
p157
F0.06956696510314941
sS'comp_time'
p158
F0.0001308917999267578
sS'exec_cq'
p159
I1
sS'total_cq'
p160
I63
sa(dp161
g156
I58
sg157
F0.057389020919799805
sg158
F0.00010991096496582031
sg159
I1
sg160
I60
sa(dp162
g156
I55
sg157
F0.13119101524353027
sg158
F0.0001430511474609375
sg159
I1
sg160
I59
sa(dp163
g156
I55
sg157
F0.29335689544677734
sg158
F0.00011873245239257812
sg159
I1
sg160
I57
sa(dp164
g156
I44
sg157
F0.10456418991088867
sg158
F0.00016689300537109375
sg159
I1
sg160
I56
sa(dp165
g156
I42
sg157
F0.07305192947387695
sg158
F0.00010585784912109375
sg159
I1
sg160
I50
sa(dp166
g156
I0
sg157
F0.011533975601196289
sg158
F6.413459777832031e-05
sg159
I2
sg160
I4
sa(dp167
g156
I0
sg157
F0.004228115081787109
sg158
F5.888938903808594e-05
sg159
I1
sg160
I2
sasS'total_cqs'
p168
I63
ssI12
(dp169
S'iters'
p170
I8
sS'meta'
p171
(lp172
(dp173
S'objective'
p174
I16
sS'query_time'
p175
F0.05144691467285156
sS'comp_time'
p176
F0.00011873245239257812
sS'exec_cq'
p177
I1
sS'total_cq'
p178
I50
sa(dp179
g174
I31
sg175
F0.09851694107055664
sg176
F0.000102996826171875
sg177
I1
sg178
I33
sa(dp180
g174
I28
sg175
F0.06971001625061035
sg176
F0.000102996826171875
sg177
I2
sg178
I32
sa(dp181
g174
I16
sg175
F0.054036855697631836
sg176
F0.000102996826171875
sg177
I2
sg178
I30
sa(dp182
g174
I3
sg175
F0.03201413154602051
sg176
F9.202957153320312e-05
sg177
I1
sg178
I7
sa(dp183
g174
I3
sg175
F0.0243990421295166
sg176
F7.891654968261719e-05
sg177
I1
sg178
I5
sa(dp184
g174
I2
sg175
F0.023179054260253906
sg176
F7.700920104980469e-05
sg177
I1
sg178
I4
sa(dp185
g174
I1
sg175
F0.011343002319335938
sg176
F7.605552673339844e-05
sg177
I2
sg178
I3
sasS'total_cqs'
p186
I50
ssI13
(dp187
S'iters'
p188
I4
sS'meta'
p189
(lp190
(dp191
S'objective'
p192
I8
sS'query_time'
p193
F0.07718014717102051
sS'comp_time'
p194
F8.893013000488281e-05
sS'exec_cq'
p195
I1
sS'total_cq'
p196
I20
sa(dp197
g192
I4
sg193
F0.021574020385742188
sg194
F8.511543273925781e-05
sg195
I1
sg196
I14
sa(dp198
g192
I1
sg193
F0.0063059329986572266
sg194
F6.723403930664062e-05
sg195
I1
sg196
I5
sa(dp199
g192
I1
sg193
F0.005563020706176758
sg194
F5.984306335449219e-05
sg195
I1
sg196
I3
sasS'total_cqs'
p200
I20
ssI14
(dp201
S'iters'
p202
I3
sS'meta'
p203
(lp204
(dp205
S'objective'
p206
I7
sS'query_time'
p207
F0.01067209243774414
sS'comp_time'
p208
F7.414817810058594e-05
sS'exec_cq'
p209
I1
sS'total_cq'
p210
I9
sa(dp211
g206
I4
sg207
F0.7732398509979248
sg208
F8.988380432128906e-05
sg209
I1
sg210
I8
sa(dp212
g206
I0
sg207
F0.3040640354156494
sg208
F7.009506225585938e-05
sg209
I1
sg210
I2
sasS'total_cqs'
p213
I9
ssI15
(dp214
S'iters'
p215
I2
sS'meta'
p216
(lp217
(dp218
S'objective'
p219
I5
sS'query_time'
p220
F1.0592138767242432
sS'comp_time'
p221
F8.106231689453125e-05
sS'exec_cq'
p222
I2
sS'total_cq'
p223
I11
sa(dp224
g219
I6
sg220
F0.04378104209899902
sg221
F8.082389831542969e-05
sg222
I1
sg223
I8
sasS'total_cqs'
p225
I11
ssI16
(dp226
S'iters'
p227
I1
sS'meta'
p228
(lp229
(dp230
S'objective'
p231
I6
sS'query_time'
p232
F0.011021852493286133
sS'comp_time'
p233
F6.699562072753906e-05
sS'exec_cq'
p234
I4
sS'total_cq'
p235
I8
sasS'total_cqs'
p236
I8
ssI17
(dp237
S'iters'
p238
I2
sS'meta'
p239
(lp240
(dp241
S'objective'
p242
I7
sS'query_time'
p243
F0.028340816497802734
sS'comp_time'
p244
F7.677078247070312e-05
sS'exec_cq'
p245
I1
sS'total_cq'
p246
I11
sa(dp247
g242
I0
sg243
F0.23769307136535645
sg244
F9.679794311523438e-05
sg245
I1
sg246
I2
sasS'total_cqs'
p248
I11
ssI18
(dp249
S'iters'
p250
I4
sS'meta'
p251
(lp252
(dp253
S'objective'
p254
I9
sS'query_time'
p255
F0.020330190658569336
sS'comp_time'
p256
F9.703636169433594e-05
sS'exec_cq'
p257
I1
sS'total_cq'
p258
I11
sa(dp259
g254
I8
sg255
F0.047289133071899414
sg256
F9.083747863769531e-05
sg257
I2
sg258
I10
sa(dp260
g254
I7
sg255
F0.09228110313415527
sg256
F8.20159912109375e-05
sg257
I4
sg258
I9
sa(dp261
g254
I6
sg255
F0.022227048873901367
sg256
F6.985664367675781e-05
sg257
I2
sg258
I8
sasS'total_cqs'
p262
I11
ssI22
(dp263
S'iters'
p264
I1
sS'meta'
p265
(lp266
(dp267
S'objective'
p268
I16
sS'query_time'
p269
F0.02692580223083496
sS'comp_time'
p270
F7.295608520507812e-05
sS'exec_cq'
p271
I10
sS'total_cq'
p272
I18
sasS'total_cqs'
p273
I18
ssI23
(dp274
S'iters'
p275
I3
sS'meta'
p276
(lp277
(dp278
S'objective'
p279
I14
sS'query_time'
p280
F0.02786111831665039
sS'comp_time'
p281
F7.319450378417969e-05
sS'exec_cq'
p282
I9
sS'total_cq'
p283
I16
sa(dp284
g279
I11
sg280
F0.010900020599365234
sg281
F8.797645568847656e-05
sg282
I2
sg283
I15
sa(dp285
g279
I11
sg280
F0.009387969970703125
sg281
F7.295608520507812e-05
sg282
I1
sg283
I13
sasS'total_cqs'
p286
I16
ssI26
(dp287
S'iters'
p288
I1
sS'meta'
p289
(lp290
(dp291
S'objective'
p292
I40
sS'query_time'
p293
F0.04562997817993164
sS'comp_time'
p294
F0.00011324882507324219
sS'exec_cq'
p295
I4
sS'total_cq'
p296
I42
sasS'total_cqs'
p297
I42
ssI27
(dp298
S'iters'
p299
I6
sS'meta'
p300
(lp301
(dp302
S'objective'
p303
I28
sS'query_time'
p304
F3.892091989517212
sS'comp_time'
p305
F0.0002288818359375
sS'exec_cq'
p306
I6
sS'total_cq'
p307
I30
sa(dp308
g303
I27
sg304
F0.38962793350219727
sg305
F0.000125885009765625
sg306
I1
sg307
I29
sa(dp309
g303
I26
sg304
F1.3484468460083008
sg305
F0.00010895729064941406
sg306
I1
sg307
I28
sa(dp310
g303
I23
sg304
F0.5458500385284424
sg305
F0.00011181831359863281
sg306
I8
sg307
I27
sa(dp311
g303
I23
sg304
F8.943264961242676
sg305
F0.0005190372467041016
sg306
I4
sg307
I25
sa(dp312
g303
I22
sg304
F2.4203360080718994
sg305
F0.00018787384033203125
sg306
I8
sg307
I24
sasS'total_cqs'
p313
I30
ssI29
(dp314
S'iters'
p315
I5
sS'meta'
p316
(lp317
(dp318
S'objective'
p319
I47
sS'query_time'
p320
F1.4268620014190674
sS'comp_time'
p321
F0.00012993812561035156
sS'exec_cq'
p322
I1
sS'total_cq'
p323
I49
sa(dp324
g319
I38
sg320
F0.8288919925689697
sg321
F0.00016307830810546875
sg322
I1
sg323
I48
sa(dp325
g319
I3
sg320
F3.802716016769409
sg321
F0.00014495849609375
sg322
I1
sg323
I5
sa(dp326
g319
I2
sg320
F0.06327986717224121
sg321
F0.00013303756713867188
sg322
I1
sg323
I4
sa(dp327
g319
I1
sg320
F0.11979794502258301
sg321
F9.107589721679688e-05
sg322
I1
sg323
I3
sasS'total_cqs'
p328
I49
ssI30
(dp329
S'iters'
p330
I1
sS'meta'
p331
(lp332
(dp333
S'objective'
p334
I0
sS'query_time'
p335
F0.6721808910369873
sS'comp_time'
p336
F6.318092346191406e-05
sS'exec_cq'
p337
I1
sS'total_cq'
p338
I2
sasS'total_cqs'
p339
I2
ssI32
(dp340
S'iters'
p341
I1
sS'meta'
p342
(lp343
(dp344
S'objective'
p345
I0
sS'query_time'
p346
F0.00475001335144043
sS'comp_time'
p347
F5.91278076171875e-05
sS'exec_cq'
p348
I1
sS'total_cq'
p349
I2
sasS'total_cqs'
p350
I2
ssI33
(dp351
S'iters'
p352
I8
sS'meta'
p353
(lp354
(dp355
S'objective'
p356
I99
sS'query_time'
p357
F0.8710319995880127
sS'comp_time'
p358
F0.00018286705017089844
sS'exec_cq'
p359
I1
sS'total_cq'
p360
I103
sa(dp361
g356
I99
sg357
F1.541593074798584
sg358
F0.00015211105346679688
sg359
I1
sg360
I101
sa(dp362
g356
I96
sg357
F0.9957311153411865
sg358
F0.0001728534698486328
sg359
I2
sg360
I100
sa(dp363
g356
I94
sg357
F0.5208280086517334
sg358
F0.0002009868621826172
sg359
I2
sg360
I98
sa(dp364
g356
I92
sg357
F3.580406904220581
sg358
F0.00015592575073242188
sg359
I1
sg360
I96
sa(dp365
g356
I88
sg357
F0.5955138206481934
sg358
F0.00016808509826660156
sg359
I2
sg360
I94
sa(dp366
g356
I87
sg357
F0.5790250301361084
sg358
F0.0001671314239501953
sg359
I1
sg360
I91
sa(dp367
g356
I87
sg357
F0.37940502166748047
sg358
F0.00016570091247558594
sg359
I3
sg360
I89
sasS'total_cqs'
p368
I103
ssI34
(dp369
S'iters'
p370
I1
sS'meta'
p371
(lp372
(dp373
S'objective'
p374
I0
sS'query_time'
p375
F0.012874126434326172
sS'comp_time'
p376
F7.104873657226562e-05
sS'exec_cq'
p377
I1
sS'total_cq'
p378
I2
sasS'total_cqs'
p379
I2
ssI35
(dp380
S'iters'
p381
I5
sS'meta'
p382
(lp383
(dp384
S'objective'
p385
I64
sS'query_time'
p386
F4.337763071060181
sS'comp_time'
p387
F0.0001270771026611328
sS'exec_cq'
p388
I1
sS'total_cq'
p389
I70
sa(dp390
g385
I61
sg386
F20.890517950057983
sg387
F0.00013184547424316406
sg388
I2
sg389
I67
sa(dp391
g385
I46
sg386
F0.2507011890411377
sg387
F0.0001399517059326172
sg388
I1
sg389
I64
sa(dp392
g385
I53
sg386
F15.39613389968872
sg387
F0.00021409988403320312
sg388
I2
sg389
I55
sa(dp393
g385
I52
sg386
F0.29616689682006836
sg387
F0.0001418590545654297
sg388
I1
sg389
I54
sasS'total_cqs'
p394
I70
ssI36
(dp395
S'iters'
p396
I3
sS'meta'
p397
(lp398
(dp399
S'objective'
p400
I31
sS'query_time'
p401
F0.08803105354309082
sS'comp_time'
p402
F9.703636169433594e-05
sS'exec_cq'
p403
I2
sS'total_cq'
p404
I33
sa(dp405
g400
I30
sg401
F0.03540492057800293
sg402
F0.00010395050048828125
sg403
I1
sg404
I32
sa(dp406
g400
I29
sg401
F0.04988384246826172
sg402
F9.775161743164062e-05
sg403
I1
sg404
I31
sasS'total_cqs'
p407
I33
ssI37
(dp408
S'iters'
p409
I1
sS'meta'
p410
(lp411
(dp412
S'objective'
p413
I0
sS'query_time'
p414
F0.00481104850769043
sS'comp_time'
p415
F7.200241088867188e-05
sS'exec_cq'
p416
I1
sS'total_cq'
p417
I2
sasS'total_cqs'
p418
I2
ssI38
(dp419
S'iters'
p420
I3
sS'meta'
p421
(lp422
(dp423
S'objective'
p424
I2
sS'query_time'
p425
F0.011803150177001953
sS'comp_time'
p426
F7.200241088867188e-05
sS'exec_cq'
p427
I1
sS'total_cq'
p428
I4
sa(dp429
g424
I1
sg425
F0.002351045608520508
sg426
F6.604194641113281e-05
sg427
I1
sg428
I3
sa(dp430
g424
I0
sg425
F0.012672901153564453
sg426
F7.319450378417969e-05
sg427
I1
sg428
I2
sasS'total_cqs'
p431
I4
ssI39
(dp432
S'iters'
p433
I5
sS'meta'
p434
(lp435
(dp436
S'objective'
p437
I28
sS'query_time'
p438
F0.04599499702453613
sS'comp_time'
p439
F0.00010514259338378906
sS'exec_cq'
p440
I4
sS'total_cq'
p441
I44
sa(dp442
g437
I6
sg438
F0.016103029251098633
sg439
F8.130073547363281e-05
sg440
I2
sg441
I8
sa(dp443
g437
I5
sg438
F0.013432979583740234
sg439
F6.508827209472656e-05
sg440
I2
sg441
I7
sa(dp444
g437
I4
sg438
F0.010751962661743164
sg439
F7.224082946777344e-05
sg440
I2
sg441
I6
sa(dp445
g437
I3
sg438
F0.034718990325927734
sg439
F6.985664367675781e-05
sg440
I2
sg441
I5
sasS'total_cqs'
p446
I44
ssI40
(dp447
S'iters'
p448
I1
sS'meta'
p449
(lp450
(dp451
S'objective'
p452
I5
sS'query_time'
p453
F0.01398015022277832
sS'comp_time'
p454
F7.200241088867188e-05
sS'exec_cq'
p455
I1
sS'total_cq'
p456
I7
sasS'total_cqs'
p457
I7
ssI41
(dp458
S'iters'
p459
I2
sS'meta'
p460
(lp461
(dp462
S'objective'
p463
I10
sS'query_time'
p464
F0.03491687774658203
sS'comp_time'
p465
F7.987022399902344e-05
sS'exec_cq'
p466
I3
sS'total_cq'
p467
I12
sa(dp468
g463
I9
sg464
F0.017167091369628906
sg465
F8.606910705566406e-05
sg466
I1
sg467
I11
sasS'total_cqs'
p469
I12
ssI42
(dp470
S'iters'
p471
I3
sS'meta'
p472
(lp473
(dp474
S'objective'
p475
I39
sS'query_time'
p476
F0.050039052963256836
sS'comp_time'
p477
F0.00011134147644042969
sS'exec_cq'
p478
I12
sS'total_cq'
p479
I41
sa(dp480
g475
I38
sg476
F0.02299213409423828
sg477
F0.00010585784912109375
sg478
I6
sg479
I40
sa(dp481
g475
I37
sg476
F0.030827999114990234
sg477
F9.202957153320312e-05
sg478
I18
sg479
I39
sasS'total_cqs'
p482
I41
ssI43
(dp483
S'iters'
p484
I1
sS'meta'
p485
(lp486
(dp487
S'objective'
p488
I5
sS'query_time'
p489
F0.014035940170288086
sS'comp_time'
p490
F7.200241088867188e-05
sS'exec_cq'
p491
I2
sS'total_cq'
p492
I7
sasS'total_cqs'
p493
I7
ssI44
(dp494
S'iters'
p495
I4
sS'meta'
p496
(lp497
(dp498
S'objective'
p499
I33
sS'query_time'
p500
F0.04706907272338867
sS'comp_time'
p501
F0.00010418891906738281
sS'exec_cq'
p502
I4
sS'total_cq'
p503
I47
sa(dp504
g499
I38
sg500
F0.07259893417358398
sg501
F0.00011277198791503906
sg502
I2
sg503
I40
sa(dp505
g499
I37
sg500
F0.05815601348876953
sg501
F0.0001239776611328125
sg502
I2
sg503
I39
sa(dp506
g499
I36
sg500
F0.034800052642822266
sg501
F0.00011324882507324219
sg502
I11
sg503
I38
sasS'total_cqs'
p507
I47
ssI46
(dp508
S'iters'
p509
I3
sS'meta'
p510
(lp511
(dp512
S'objective'
p513
I4
sS'query_time'
p514
F0.00852203369140625
sS'comp_time'
p515
F6.604194641113281e-05
sS'exec_cq'
p516
I1
sS'total_cq'
p517
I6
sa(dp518
g513
I3
sg514
F0.004431962966918945
sg515
F5.7220458984375e-05
sg516
I2
sg517
I5
sa(dp519
g513
I2
sg514
F0.00374603271484375
sg515
F6.318092346191406e-05
sg516
I2
sg517
I4
sasS'total_cqs'
p520
I6
ssI47
(dp521
S'iters'
p522
I1
sS'meta'
p523
(lp524
(dp525
S'objective'
p526
I0
sS'query_time'
p527
F0.003145933151245117
sS'comp_time'
p528
F6.699562072753906e-05
sS'exec_cq'
p529
I1
sS'total_cq'
p530
I2
sasS'total_cqs'
p531
I2
ssI50
(dp532
S'iters'
p533
I2
sS'meta'
p534
(lp535
(dp536
S'objective'
p537
I3
sS'query_time'
p538
F0.005124092102050781
sS'comp_time'
p539
F6.580352783203125e-05
sS'exec_cq'
p540
I1
sS'total_cq'
p541
I5
sa(dp542
g537
I2
sg538
F0.003984928131103516
sg539
F5.3882598876953125e-05
sg540
I1
sg541
I4
sasS'total_cqs'
p543
I5
ssI51
(dp544
S'iters'
p545
I1
sS'meta'
p546
(lp547
(dp548
S'objective'
p549
I0
sS'query_time'
p550
F0.005449056625366211
sS'comp_time'
p551
F6.008148193359375e-05
sS'exec_cq'
p552
I1
sS'total_cq'
p553
I2
sasS'total_cqs'
p554
I2
ssI52
(dp555
S'iters'
p556
I1
sS'meta'
p557
(lp558
(dp559
S'objective'
p560
I0
sS'query_time'
p561
F0.005758047103881836
sS'comp_time'
p562
F6.4849853515625e-05
sS'exec_cq'
p563
I1
sS'total_cq'
p564
I2
sasS'total_cqs'
p565
I2
ssI53
(dp566
S'iters'
p567
I1
sS'meta'
p568
(lp569
(dp570
S'objective'
p571
I2
sS'query_time'
p572
F0.011323213577270508
sS'comp_time'
p573
F6.29425048828125e-05
sS'exec_cq'
p574
I1
sS'total_cq'
p575
I4
sasS'total_cqs'
p576
I4
ssI54
(dp577
S'iters'
p578
I2
sS'meta'
p579
(lp580
(dp581
S'objective'
p582
I1
sS'query_time'
p583
F0.004291057586669922
sS'comp_time'
p584
F6.103515625e-05
sS'exec_cq'
p585
I1
sS'total_cq'
p586
I3
sa(dp587
g582
I0
sg583
F0.007238864898681641
sg584
F6.67572021484375e-05
sg585
I1
sg586
I2
sasS'total_cqs'
p588
I3
ssI55
(dp589
S'iters'
p590
I2
sS'meta'
p591
(lp592
(dp593
S'objective'
p594
I103
sS'query_time'
p595
F0.21234798431396484
sS'comp_time'
p596
F0.0001690387725830078
sS'exec_cq'
p597
I2
sS'total_cq'
p598
I109
sa(dp599
g594
I1
sg595
F0.009196043014526367
sg596
F8.487701416015625e-05
sg597
I1
sg598
I3
sasS'total_cqs'
p600
I109
ssI56
(dp601
S'iters'
p602
I5
sS'meta'
p603
(lp604
(dp605
S'objective'
p606
I72
sS'query_time'
p607
F0.40666699409484863
sS'comp_time'
p608
F0.00014495849609375
sS'exec_cq'
p609
I1
sS'total_cq'
p610
I76
sa(dp611
g606
I60
sg607
F0.37125396728515625
sg608
F0.00014925003051757812
sg609
I1
sg610
I74
sa(dp612
g606
I65
sg607
F0.08510398864746094
sg608
F0.00013017654418945312
sg609
I4
sg610
I67
sa(dp613
g606
I60
sg607
F0.33400893211364746
sg608
F0.0001430511474609375
sg609
I2
sg610
I66
sa(dp614
g606
I61
sg607
F0.18877696990966797
sg608
F0.00015997886657714844
sg609
I1
sg610
I63
sasS'total_cqs'
p615
I76
ssI57
(dp616
S'iters'
p617
I7
sS'meta'
p618
(lp619
(dp620
S'objective'
p621
I19
sS'query_time'
p622
F2.6650550365448
sS'comp_time'
p623
F0.00011396408081054688
sS'exec_cq'
p624
I1
sS'total_cq'
p625
I51
sa(dp626
g621
I14
sg622
F0.3938119411468506
sg623
F8.606910705566406e-05
sg624
I1
sg625
I16
sa(dp627
g621
I1
sg622
F0.718864917755127
sg623
F8.392333984375e-05
sg624
I1
sg625
I15
sa(dp628
g621
I1
sg622
F2.095961809158325
sg623
F9.608268737792969e-05
sg624
I1
sg625
I7
sa(dp629
g621
I2
sg622
F0.10924100875854492
sg623
F6.985664367675781e-05
sg624
I1
sg625
I4
sa(dp630
g621
I1
sg622
F5.308578968048096
sg623
F9.799003601074219e-05
sg624
I2
sg625
I3
sa(dp631
g621
I0
sg622
F2.3264739513397217
sg623
F8.296966552734375e-05
sg624
I2
sg625
I2
sasS'total_cqs'
p632
I51
ssI58
(dp633
S'iters'
p634
I12
sS'meta'
p635
(lp636
(dp637
S'objective'
p638
I460
sS'query_time'
p639
F3.2126481533050537
sS'comp_time'
p640
F0.0008449554443359375
sS'exec_cq'
p641
I1
sS'total_cq'
p642
I486
sa(dp643
g638
I471
sg639
F29.077142000198364
sg640
F0.000823974609375
sg641
I5
sg642
I473
sa(dp644
g638
I436
sg639
F2.631136178970337
sg640
F0.0005490779876708984
sg641
I1
sg642
I472
sa(dp645
g638
I430
sg639
F10.336426973342896
sg640
F0.00048422813415527344
sg641
I1
sg642
I454
sa(dp646
g638
I432
sg639
F11.606477975845337
sg640
F0.00042510032653808594
sg641
I3
sg642
I442
sa(dp647
g638
I391
sg639
F4.197067022323608
sg640
F0.0007061958312988281
sg641
I2
sg642
I437
sa(dp648
g638
I15
sg639
F3.8919827938079834
sg640
F0.00020599365234375
sg641
I1
sg642
I23
sa(dp649
g638
I7
sg639
F0.9048559665679932
sg640
F9.298324584960938e-05
sg641
I1
sg642
I19
sa(dp650
g638
I3
sg639
F0.21133804321289062
sg640
F8.082389831542969e-05
sg641
I1
sg642
I13
sa(dp651
g638
I1
sg639
F0.18027997016906738
sg640
F0.00012803077697753906
sg641
I1
sg642
I5
sa(dp652
g638
I1
sg639
F0.39253711700439453
sg640
F5.3882598876953125e-05
sg641
I1
sg642
I3
sa(dp653
g638
I0
sg639
F0.06766605377197266
sg640
F6.389617919921875e-05
sg641
I1
sg642
I2
sasS'total_cqs'
p654
I486
ssI59
(dp655
S'iters'
p656
I2
sS'meta'
p657
(lp658
(dp659
S'objective'
p660
I5
sS'query_time'
p661
F0.042617082595825195
sS'comp_time'
p662
F8.7738037109375e-05
sS'exec_cq'
p663
I5
sS'total_cq'
p664
I7
sa(dp665
g660
I4
sg661
F0.01223611831665039
sg662
F9.894371032714844e-05
sg663
I5
sg664
I6
sasS'total_cqs'
p666
I7
ssI60
(dp667
S'iters'
p668
I4
sS'meta'
p669
(lp670
(dp671
S'objective'
p672
I3
sS'query_time'
p673
F0.005548954010009766
sS'comp_time'
p674
F6.699562072753906e-05
sS'exec_cq'
p675
I1
sS'total_cq'
p676
I5
sa(dp677
g672
I2
sg673
F0.013012886047363281
sg674
F8.726119995117188e-05
sg675
I1
sg676
I4
sa(dp678
g672
I1
sg673
F0.003437042236328125
sg674
F6.29425048828125e-05
sg675
I1
sg676
I3
sa(dp679
g672
I0
sg673
F0.0028488636016845703
sg674
F5.507469177246094e-05
sg675
I2
sg676
I2
sasS'total_cqs'
p680
I5
ssI62
(dp681
S'iters'
p682
I3
sS'meta'
p683
(lp684
(dp685
S'objective'
p686
I10
sS'query_time'
p687
F0.03106212615966797
sS'comp_time'
p688
F9.489059448242188e-05
sS'exec_cq'
p689
I1
sS'total_cq'
p690
I12
sa(dp691
g686
I9
sg687
F0.0204010009765625
sg688
F8.606910705566406e-05
sg689
I2
sg690
I11
sa(dp692
g686
I8
sg687
F0.00871586799621582
sg688
F8.392333984375e-05
sg689
I1
sg690
I10
sasS'total_cqs'
p693
I12
ssI64
(dp694
S'iters'
p695
I3
sS'meta'
p696
(lp697
(dp698
S'objective'
p699
I6
sS'query_time'
p700
F0.03812599182128906
sS'comp_time'
p701
F0.00010013580322265625
sS'exec_cq'
p702
I1
sS'total_cq'
p703
I12
sa(dp704
g699
I1
sg700
F0.013145923614501953
sg701
F7.200241088867188e-05
sg702
I1
sg703
I3
sa(dp705
g699
I0
sg700
F0.012782096862792969
sg701
F6.29425048828125e-05
sg702
I1
sg703
I2
sasS'total_cqs'
p706
I12
ssI65
(dp707
S'iters'
p708
I2
sS'meta'
p709
(lp710
(dp711
S'objective'
p712
I23
sS'query_time'
p713
F0.03325295448303223
sS'comp_time'
p714
F0.00010800361633300781
sS'exec_cq'
p715
I1
sS'total_cq'
p716
I27
sa(dp717
g712
I0
sg713
F0.006170034408569336
sg714
F9.894371032714844e-05
sg715
I2
sg716
I2
sasS'total_cqs'
p718
I27
ssI67
(dp719
S'iters'
p720
I2
sS'meta'
p721
(lp722
(dp723
S'objective'
p724
I33
sS'query_time'
p725
F0.7156310081481934
sS'comp_time'
p726
F0.00017714500427246094
sS'exec_cq'
p727
I16
sS'total_cq'
p728
I35
sa(dp729
g724
I32
sg725
F0.5095260143280029
sg726
F0.00011014938354492188
sg727
I7
sg728
I34
sasS'total_cqs'
p730
I35
ssI69
(dp731
S'iters'
p732
I1
sS'meta'
p733
(lp734
(dp735
S'objective'
p736
I49
sS'query_time'
p737
F0.10630512237548828
sS'comp_time'
p738
F0.00011420249938964844
sS'exec_cq'
p739
I19
sS'total_cq'
p740
I51
sasS'total_cqs'
p741
I51
ssI70
(dp742
S'iters'
p743
I3
sS'meta'
p744
(lp745
(dp746
S'objective'
p747
I4
sS'query_time'
p748
F0.00642704963684082
sS'comp_time'
p749
F6.413459777832031e-05
sS'exec_cq'
p750
I1
sS'total_cq'
p751
I6
sa(dp752
g747
I3
sg748
F0.0044558048248291016
sg749
F5.602836608886719e-05
sg750
I1
sg751
I5
sa(dp753
g747
I2
sg748
F0.0070650577545166016
sg749
F5.888938903808594e-05
sg750
I2
sg751
I4
sasS'total_cqs'
p754
I6
ssI71
(dp755
S'iters'
p756
I3
sS'meta'
p757
(lp758
(dp759
S'objective'
p760
I79
sS'query_time'
p761
F0.12958288192749023
sS'comp_time'
p762
F0.0001518726348876953
sS'exec_cq'
p763
I2
sS'total_cq'
p764
I85
sa(dp765
g760
I1
sg761
F0.009616851806640625
sg762
F7.915496826171875e-05
sg763
I2
sg764
I3
sa(dp766
g760
I0
sg761
F0.00115203857421875
sg762
F4.8160552978515625e-05
sg763
I1
sg764
I2
sasS'total_cqs'
p767
I85
ssI72
(dp768
S'iters'
p769
I3
sS'meta'
p770
(lp771
(dp772
S'objective'
p773
I4
sS'query_time'
p774
F0.16959404945373535
sS'comp_time'
p775
F8.726119995117188e-05
sS'exec_cq'
p776
I1
sS'total_cq'
p777
I8
sa(dp778
g773
I2
sg774
F0.0062639713287353516
sg775
F6.67572021484375e-05
sg776
I1
sg777
I6
sa(dp779
g773
I2
sg774
F0.007728099822998047
sg775
F8.106231689453125e-05
sg776
I1
sg777
I4
sasS'total_cqs'
p780
I8
ssI75
(dp781
S'iters'
p782
I4
sS'meta'
p783
(lp784
(dp785
S'objective'
p786
I3
sS'query_time'
p787
F0.005984067916870117
sS'comp_time'
p788
F7.390975952148438e-05
sS'exec_cq'
p789
I1
sS'total_cq'
p790
I5
sa(dp791
g786
I2
sg787
F0.010010957717895508
sg788
F8.0108642578125e-05
sg789
I1
sg790
I4
sa(dp792
g786
I1
sg787
F0.0029349327087402344
sg788
F5.6743621826171875e-05
sg789
I1
sg790
I3
sa(dp793
g786
I0
sg787
F0.0019428730010986328
sg788
F4.792213439941406e-05
sg789
I1
sg790
I2
sasS'total_cqs'
p794
I5
ssI76
(dp795
S'iters'
p796
I1
sS'meta'
p797
(lp798
(dp799
S'objective'
p800
I0
sS'query_time'
p801
F0.00893092155456543
sS'comp_time'
p802
F6.413459777832031e-05
sS'exec_cq'
p803
I1
sS'total_cq'
p804
I2
sasS'total_cqs'
p805
I2
ssI103
(dp806
S'iters'
p807
I1
sS'meta'
p808
(lp809
(dp810
S'objective'
p811
I10
sS'query_time'
p812
F0.04938507080078125
sS'comp_time'
p813
F9.608268737792969e-05
sS'exec_cq'
p814
I5
sS'total_cq'
p815
I12
sasS'total_cqs'
p816
I12
ssI104
(dp817
S'iters'
p818
I1
sS'meta'
p819
(lp820
(dp821
S'objective'
p822
I2
sS'query_time'
p823
F1.3755168914794922
sS'comp_time'
p824
F8.988380432128906e-05
sS'exec_cq'
p825
I1
sS'total_cq'
p826
I4
sasS'total_cqs'
p827
I4
ssI106
(dp828
S'iters'
p829
I1
sS'meta'
p830
(lp831
(dp832
S'objective'
p833
I2
sS'query_time'
p834
F0.020876169204711914
sS'comp_time'
p835
F7.390975952148438e-05
sS'exec_cq'
p836
I4
sS'total_cq'
p837
I4
sasS'total_cqs'
p838
I4
ssI107
(dp839
S'iters'
p840
I3
sS'meta'
p841
(lp842
(dp843
S'objective'
p844
I10
sS'query_time'
p845
F0.03145003318786621
sS'comp_time'
p846
F9.179115295410156e-05
sS'exec_cq'
p847
I2
sS'total_cq'
p848
I16
sa(dp849
g844
I1
sg845
F0.01308894157409668
sg846
F7.605552673339844e-05
sg847
I2
sg848
I3
sa(dp850
g844
I0
sg845
F0.030535221099853516
sg846
F8.296966552734375e-05
sg847
I2
sg848
I2
sasS'total_cqs'
p851
I16
ss.