(dp0
I1
(dp1
S'iters'
p2
I3
sS'meta'
p3
(lp4
(dp5
S'objective'
p6
I54
sS'query_time'
p7
F0.019196033477783203
sS'comp_time'
p8
F5.888938903808594e-05
sS'exec_cq'
p9
I1
sS'total_cq'
p10
I12
sa(dp11
g6
I48
sg7
F0.016215085983276367
sg8
F8.893013000488281e-05
sg9
I3
sg10
I11
sa(dp12
g6
I43
sg7
F0.00881814956665039
sg8
F5.3882598876953125e-05
sg9
I4
sg10
I10
sasS'total_cqs'
p13
I12
ssI2
(dp14
S'iters'
p15
I8
sS'meta'
p16
(lp17
(dp18
S'objective'
p19
I286
sS'query_time'
p20
F0.04077601432800293
sS'comp_time'
p21
F5.1975250244140625e-05
sS'exec_cq'
p22
I1
sS'total_cq'
p23
I27
sa(dp24
g19
I280
sg20
F0.02368307113647461
sg21
F6.198883056640625e-05
sg22
I1
sg23
I25
sa(dp25
g19
I242
sg20
F0.019299030303955078
sg21
F6.198883056640625e-05
sg22
I1
sg23
I24
sa(dp26
g19
I230
sg20
F0.06465291976928711
sg21
F5.2928924560546875e-05
sg22
I3
sg23
I22
sa(dp27
g19
I210
sg20
F0.031004905700683594
sg21
F4.696846008300781e-05
sg22
I3
sg23
I21
sa(dp28
g19
I189
sg20
F0.04106616973876953
sg21
F6.008148193359375e-05
sg22
I4
sg23
I20
sa(dp29
g19
I178
sg20
F0.025264978408813477
sg21
F8.296966552734375e-05
sg22
I5
sg23
I18
sa(dp30
g19
I164
sg20
F0.01052713394165039
sg21
F4.100799560546875e-05
sg22
I5
sg23
I17
sasS'total_cqs'
p31
I27
ssI3
(dp32
S'iters'
p33
I5
sS'meta'
p34
(lp35
(dp36
S'objective'
p37
I862
sS'query_time'
p38
F57.8428750038147
sS'comp_time'
p39
F0.0008139610290527344
sS'exec_cq'
p40
I3
sS'total_cq'
p41
I43
sa(dp42
g37
I170
sg38
F26.253391981124878
sg39
F9.799003601074219e-05
sg40
I4
sg41
I41
sa(dp43
g37
I271
sg38
F20.061269998550415
sg39
F0.00012683868408203125
sg40
I4
sg41
I25
sa(dp44
g37
I254
sg38
F34.08360290527344
sg39
F0.0004668235778808594
sg40
I6
sg41
I17
sa(dp45
g37
I283
sg38
F20.00723886489868
sg39
F0.000102996826171875
sg40
I7
sg41
I13
sasS'total_cqs'
p46
I43
ssI4
(dp47
S'iters'
p48
I2
sS'meta'
p49
(lp50
(dp51
S'objective'
p52
I48
sS'query_time'
p53
F0.7517881393432617
sS'comp_time'
p54
F9.799003601074219e-05
sS'exec_cq'
p55
I3
sS'total_cq'
p56
I11
sa(dp57
g52
I43
sg53
F3.395864963531494
sg54
F0.00046706199645996094
sg55
I4
sg56
I10
sasS'total_cqs'
p58
I11
ssI5
(dp59
S'iters'
p60
I5
sS'meta'
p61
(lp62
(dp63
S'objective'
p64
I16
sS'query_time'
p65
F6.98112678527832
sS'comp_time'
p66
F0.000141143798828125
sS'exec_cq'
p67
I1
sS'total_cq'
p68
I8
sa(dp69
g64
I12
sg65
F0.7017791271209717
sg66
F6.699562072753906e-05
sg67
I1
sg68
I6
sa(dp70
g64
I1
sg65
F0.3268859386444092
sg66
F7.581710815429688e-05
sg67
I1
sg68
I5
sa(dp71
g64
I7
sg65
F0.2882659435272217
sg66
F5.817413330078125e-05
sg67
I1
sg68
I3
sa(dp72
g64
I2
sg65
F0.004200935363769531
sg66
F4.00543212890625e-05
sg67
I1
sg68
I2
sasS'total_cqs'
p73
I8
ssI6
(dp74
S'iters'
p75
I5
sS'meta'
p76
(lp77
(dp78
S'objective'
p79
I135
sS'query_time'
p80
F0.09677696228027344
sS'comp_time'
p81
F5.412101745605469e-05
sS'exec_cq'
p82
I1
sS'total_cq'
p83
I18
sa(dp84
g79
I119
sg80
F12.693004846572876
sg81
F0.00011706352233886719
sg82
I1
sg83
I17
sa(dp85
g79
I82
sg80
F0.6679809093475342
sg81
F9.894371032714844e-05
sg82
I1
sg83
I16
sa(dp86
g79
I55
sg80
F0.8620789051055908
sg81
F8.082389831542969e-05
sg82
I2
sg83
I14
sa(dp87
g79
I62
sg80
F0.43163394927978516
sg81
F6.413459777832031e-05
sg82
I4
sg83
I11
sasS'total_cqs'
p88
I18
ssI7
(dp89
S'iters'
p90
I3
sS'meta'
p91
(lp92
(dp93
S'objective'
p94
I13
sS'query_time'
p95
F0.24101805686950684
sS'comp_time'
p96
F6.794929504394531e-05
sS'exec_cq'
p97
I1
sS'total_cq'
p98
I9
sa(dp99
g94
I0
sg95
F4.093446969985962
sg96
F0.0004019737243652344
sg97
I1
sg98
I3
sa(dp100
g94
I4
sg95
F0.22619891166687012
sg96
F0.0001251697540283203
sg97
I1
sg98
I2
sasS'total_cqs'
p101
I9
ssI8
(dp102
S'iters'
p103
I5
sS'meta'
p104
(lp105
(dp106
S'objective'
p107
I328
sS'query_time'
p108
F0.041680097579956055
sS'comp_time'
p109
F8.106231689453125e-05
sS'exec_cq'
p110
I3
sS'total_cq'
p111
I27
sa(dp112
g107
I255
sg108
F0.035331010818481445
sg109
F5.793571472167969e-05
sg110
I4
sg111
I26
sa(dp113
g107
I252
sg108
F0.026468992233276367
sg109
F7.200241088867188e-05
sg110
I9
sg111
I23
sa(dp114
g107
I222
sg108
F0.022893905639648438
sg109
F4.1961669921875e-05
sg110
I9
sg111
I21
sa(dp115
g107
I2
sg108
F0.014272928237915039
sg109
F6.198883056640625e-05
sg110
I2
sg111
I2
sasS'total_cqs'
p116
I27
ssI9
(dp117
S'iters'
p118
I2
sS'meta'
p119
(lp120
(dp121
S'objective'
p122
I10
sS'query_time'
p123
F0.018867969512939453
sS'comp_time'
p124
F3.600120544433594e-05
sS'exec_cq'
p125
I1
sS'total_cq'
p126
I7
sa(dp127
g122
I1
sg123
F0.00500798225402832
sg124
F3.504753112792969e-05
sg125
I1
sg126
I2
sasS'total_cqs'
p128
I7
ssI10
(dp129
S'iters'
p130
I7
sS'meta'
p131
(lp132
(dp133
S'objective'
p134
I1112
sS'query_time'
p135
F0.09703183174133301
sS'comp_time'
p136
F8.797645568847656e-05
sS'exec_cq'
p137
I1
sS'total_cq'
p138
I51
sa(dp139
g134
I401
sg135
F0.10763001441955566
sg136
F6.389617919921875e-05
sg137
I1
sg138
I48
sa(dp140
g134
I532
sg135
F0.03367805480957031
sg136
F7.677078247070312e-05
sg137
I1
sg138
I34
sa(dp141
g134
I541
sg135
F0.036889076232910156
sg136
F5.602836608886719e-05
sg137
I3
sg138
I29
sa(dp142
g134
I482
sg135
F0.043467044830322266
sg136
F5.888938903808594e-05
sg137
I3
sg138
I27
sa(dp143
g134
I332
sg135
F0.021106958389282227
sg136
F4.7206878662109375e-05
sg137
I3
sg138
I25
sa(dp144
g134
I384
sg135
F0.016043901443481445
sg136
F5.2928924560546875e-05
sg137
I8
sg138
I19
sasS'total_cqs'
p145
I51
ssI11
(dp146
S'iters'
p147
I12
sS'meta'
p148
(lp149
(dp150
S'objective'
p151
I1896
sS'query_time'
p152
F0.2000288963317871
sS'comp_time'
p153
F0.00010180473327636719
sS'exec_cq'
p154
I4
sS'total_cq'
p155
I63
sa(dp156
g151
I896
sg152
F0.12361693382263184
sg153
F0.00012803077697753906
sg154
I5
sg155
I62
sa(dp157
g151
I946
sg152
F0.05641007423400879
sg153
F5.91278076171875e-05
sg154
I7
sg155
I46
sa(dp158
g151
I1010
sg152
F0.04211902618408203
sg153
F5.698204040527344e-05
sg154
I8
sg155
I39
sa(dp159
g151
I968
sg152
F0.03861212730407715
sg153
F6.29425048828125e-05
sg154
I8
sg155
I37
sa(dp160
g151
I935
sg152
F0.043760061264038086
sg153
F5.2928924560546875e-05
sg154
I8
sg155
I35
sa(dp161
g151
I858
sg152
F0.11097908020019531
sg153
F8.392333984375e-05
sg154
I8
sg155
I34
sa(dp162
g151
I835
sg152
F0.09217000007629395
sg153
F8.511543273925781e-05
sg154
I8
sg155
I32
sa(dp163
g151
I774
sg152
F0.13551902770996094
sg153
F8.106231689453125e-05
sg154
I8
sg155
I31
sa(dp164
g151
I758
sg152
F0.04790616035461426
sg153
F7.390975952148438e-05
sg154
I10
sg155
I29
sa(dp165
g151
I680
sg152
F0.03082895278930664
sg153
F6.103515625e-05
sg154
I10
sg155
I28
sa(dp166
g151
I10
sg152
F0.006199836730957031
sg153
F5.1021575927734375e-05
sg154
I2
sg155
I3
sasS'total_cqs'
p167
I63
ssI12
(dp168
S'iters'
p169
I8
sS'meta'
p170
(lp171
(dp172
S'objective'
p173
I429
sS'query_time'
p174
F0.07866120338439941
sS'comp_time'
p175
F6.008148193359375e-05
sS'exec_cq'
p176
I1
sS'total_cq'
p177
I50
sa(dp178
g173
I654
sg174
F0.09598708152770996
sg175
F0.0001201629638671875
sg176
I2
sg177
I33
sa(dp179
g173
I661
sg174
F0.021245956420898438
sg175
F5.0067901611328125e-05
sg176
I2
sg177
I30
sa(dp180
g173
I553
sg174
F0.05925488471984863
sg175
F8.797645568847656e-05
sg176
I4
sg177
I29
sa(dp181
g173
I552
sg174
F0.03357887268066406
sg175
F5.698204040527344e-05
sg176
I5
sg177
I27
sa(dp182
g173
I379
sg174
F0.04613304138183594
sg175
F7.700920104980469e-05
sg176
I5
sg177
I26
sa(dp183
g173
I32
sg174
F0.006256103515625
sg175
F3.0994415283203125e-05
sg176
I1
sg177
I5
sa(dp184
g173
I17
sg174
F0.020908832550048828
sg175
F5.316734313964844e-05
sg176
I2
sg177
I4
sasS'total_cqs'
p185
I50
ssI13
(dp186
S'iters'
p187
I3
sS'meta'
p188
(lp189
(dp190
S'objective'
p191
I12
sS'query_time'
p192
F0.057576894760131836
sS'comp_time'
p193
F5.507469177246094e-05
sS'exec_cq'
p194
I1
sS'total_cq'
p195
I20
sa(dp196
g191
I41
sg192
F0.021066904067993164
sg193
F3.790855407714844e-05
sg194
I2
sg195
I9
sa(dp197
g191
I7
sg192
F0.002315044403076172
sg193
F3.3855438232421875e-05
sg194
I1
sg195
I2
sasS'total_cqs'
p198
I20
ssI14
(dp199
S'iters'
p200
I4
sS'meta'
p201
(lp202
(dp203
S'objective'
p204
I1
sS'query_time'
p205
F7.862732887268066
sS'comp_time'
p206
F0.00034999847412109375
sS'exec_cq'
p207
I1
sS'total_cq'
p208
I9
sa(dp209
g204
I9
sg205
F0.005435943603515625
sg206
F5.221366882324219e-05
sg207
I1
sg208
I6
sa(dp210
g204
I10
sg205
F0.29276585578918457
sg206
F6.794929504394531e-05
sg207
I1
sg208
I5
sa(dp211
g204
I1
sg205
F0.006224870681762695
sg206
F8.988380432128906e-05
sg207
I1
sg208
I3
sasS'total_cqs'
p212
I9
ssI15
(dp213
S'iters'
p214
I4
sS'meta'
p215
(lp216
(dp217
S'objective'
p218
I44
sS'query_time'
p219
F0.052572011947631836
sS'comp_time'
p220
F6.198883056640625e-05
sS'exec_cq'
p221
I1
sS'total_cq'
p222
I11
sa(dp223
g218
I35
sg219
F0.035433053970336914
sg220
F5.1021575927734375e-05
sg221
I1
sg222
I10
sa(dp224
g218
I13
sg219
F0.12928199768066406
sg220
F5.698204040527344e-05
sg221
I1
sg222
I9
sa(dp225
g218
I2
sg219
F0.03803205490112305
sg220
F8.106231689453125e-05
sg221
I1
sg222
I4
sasS'total_cqs'
p226
I11
ssI16
(dp227
S'iters'
p228
I1
sS'meta'
p229
(lp230
(dp231
S'objective'
p232
I26
sS'query_time'
p233
F0.013300895690917969
sS'comp_time'
p234
F5.1021575927734375e-05
sS'exec_cq'
p235
I4
sS'total_cq'
p236
I8
sasS'total_cqs'
p237
I8
ssI17
(dp238
S'iters'
p239
I2
sS'meta'
p240
(lp241
(dp242
S'objective'
p243
I0
sS'query_time'
p244
F0.04499006271362305
sS'comp_time'
p245
F6.794929504394531e-05
sS'exec_cq'
p246
I1
sS'total_cq'
p247
I11
sa(dp248
g243
I19
sg244
F0.022283077239990234
sg245
F6.890296936035156e-05
sg246
I3
sg247
I6
sasS'total_cqs'
p249
I11
ssI18
(dp250
S'iters'
p251
I4
sS'meta'
p252
(lp253
(dp254
S'objective'
p255
I46
sS'query_time'
p256
F0.030553102493286133
sS'comp_time'
p257
F7.009506225585938e-05
sS'exec_cq'
p258
I2
sS'total_cq'
p259
I11
sa(dp260
g255
I38
sg256
F0.08098077774047852
sg257
F6.914138793945312e-05
sg258
I2
sg259
I10
sa(dp261
g255
I31
sg256
F0.0363309383392334
sg257
F7.390975952148438e-05
sg258
I2
sg259
I9
sa(dp262
g255
I25
sg256
F0.014338016510009766
sg257
F4.601478576660156e-05
sg258
I2
sg259
I8
sasS'total_cqs'
p263
I11
ssI19
(dp264
S'iters'
p265
I0
sS'meta'
p266
(lp267
sS'total_cqs'
p268
I1
ssI20
(dp269
S'iters'
p270
I0
sS'meta'
p271
(lp272
sS'total_cqs'
p273
I1
ssI21
(dp274
S'iters'
p275
I0
sS'meta'
p276
(lp277
sS'total_cqs'
p278
I1
ssI22
(dp279
S'iters'
p280
I1
sS'meta'
p281
(lp282
(dp283
S'objective'
p284
I151
sS'query_time'
p285
F0.022729158401489258
sS'comp_time'
p286
F7.390975952148438e-05
sS'exec_cq'
p287
I9
sS'total_cq'
p288
I18
sasS'total_cqs'
p289
I18
ssI23
(dp290
S'iters'
p291
I3
sS'meta'
p292
(lp293
(dp294
S'objective'
p295
I90
sS'query_time'
p296
F0.013775110244750977
sS'comp_time'
p297
F4.792213439941406e-05
sS'exec_cq'
p298
I1
sS'total_cq'
p299
I16
sa(dp300
g295
I85
sg296
F0.023042917251586914
sg297
F5.817413330078125e-05
sg298
I2
sg299
I14
sa(dp301
g295
I81
sg296
F0.016798973083496094
sg297
F5.984306335449219e-05
sg298
I6
sg299
I13
sasS'total_cqs'
p302
I16
ssI24
(dp303
S'iters'
p304
I0
sS'meta'
p305
(lp306
sS'total_cqs'
p307
I1
ssI25
(dp308
S'iters'
p309
I0
sS'meta'
p310
(lp311
sS'total_cqs'
p312
I1
ssI26
(dp313
S'iters'
p314
I1
sS'meta'
p315
(lp316
(dp317
S'objective'
p318
I859
sS'query_time'
p319
F0.07304620742797852
sS'comp_time'
p320
F8.0108642578125e-05
sS'exec_cq'
p321
I21
sS'total_cq'
p322
I42
sasS'total_cqs'
p323
I42
ssI27
(dp324
S'iters'
p325
I4
sS'meta'
p326
(lp327
(dp328
S'objective'
p329
I369
sS'query_time'
p330
F1.221001148223877
sS'comp_time'
p331
F7.82012939453125e-05
sS'exec_cq'
p332
I6
sS'total_cq'
p333
I30
sa(dp334
g329
I373
sg330
F9.677142143249512
sg331
F0.00017189979553222656
sg332
I7
sg333
I28
sa(dp335
g329
I333
sg330
F2.7166709899902344
sg331
F9.393692016601562e-05
sg332
I12
sg333
I27
sa(dp336
g329
I1
sg330
F1322.7782440185547
sg331
F8.797645568847656e-05
sg332
I2
sg333
I2
sasS'total_cqs'
p337
I30
ssI28
(dp338
S'iters'
p339
I0
sS'meta'
p340
(lp341
sS'total_cqs'
p342
I1
ssI29
(dp343
S'iters'
p344
I18
sS'meta'
p345
(lp346
(dp347
S'objective'
p348
I821
sS'query_time'
p349
F1.1121189594268799
sS'comp_time'
p350
F8.0108642578125e-05
sS'exec_cq'
p351
I1
sS'total_cq'
p352
I49
sa(dp353
g348
I927
sg349
F0.9312307834625244
sg350
F9.107589721679688e-05
sg351
I1
sg352
I40
sa(dp354
g348
I747
sg349
F1.1696569919586182
sg350
F0.00010514259338378906
sg351
I1
sg352
I39
sa(dp355
g348
I769
sg349
F28.83235216140747
sg350
F0.00016999244689941406
sg351
I1
sg352
I35
sa(dp356
g348
I725
sg349
F6.6929931640625
sg350
F0.00012111663818359375
sg351
I1
sg352
I34
sa(dp357
g348
I682
sg349
F1.5506391525268555
sg350
F9.799003601074219e-05
sg351
I1
sg352
I33
sa(dp358
g348
I640
sg349
F0.03813290596008301
sg350
F4.291534423828125e-05
sg351
I1
sg352
I32
sa(dp359
g348
I567
sg349
F1.4203598499298096
sg350
F9.298324584960938e-05
sg351
I1
sg352
I31
sa(dp360
g348
I549
sg349
F0.490250825881958
sg350
F0.00015616416931152344
sg351
I3
sg352
I27
sa(dp361
g348
I487
sg349
F0.18848896026611328
sg350
F4.1961669921875e-05
sg351
I3
sg352
I26
sa(dp362
g348
I453
sg349
F8.207003116607666
sg350
F0.0002639293670654297
sg351
I3
sg352
I24
sa(dp363
g348
I427
sg349
F0.48885297775268555
sg350
F0.00013399124145507812
sg351
I3
sg352
I22
sa(dp364
g348
I351
sg349
F0.5167999267578125
sg350
F8.416175842285156e-05
sg351
I3
sg352
I21
sa(dp365
g348
I344
sg349
F0.42185401916503906
sg350
F8.392333984375e-05
sg351
I3
sg352
I19
sa(dp366
g348
I221
sg349
F1.186743974685669
sg350
F7.581710815429688e-05
sg351
I3
sg352
I18
sa(dp367
g348
I240
sg349
F1.44986891746521
sg350
F7.700920104980469e-05
sg351
I3
sg352
I14
sa(dp368
g348
I213
sg349
F2.149688959121704
sg350
F0.0005090236663818359
sg351
I3
sg352
I13
sa(dp369
g348
I189
sg349
F0.1133871078491211
sg350
F6.008148193359375e-05
sg351
I3
sg352
I12
sasS'total_cqs'
p370
I49
ssI30
(dp371
S'iters'
p372
I1
sS'meta'
p373
(lp374
(dp375
S'objective'
p376
I1
sS'query_time'
p377
F0.672476053237915
sS'comp_time'
p378
F7.295608520507812e-05
sS'exec_cq'
p379
I1
sS'total_cq'
p380
I2
sasS'total_cqs'
p381
I2
ssI31
(dp382
S'iters'
p383
I0
sS'meta'
p384
(lp385
sS'total_cqs'
p386
I1
ssI32
(dp387
S'iters'
p388
I1
sS'meta'
p389
(lp390
(dp391
S'objective'
p392
I1
sS'query_time'
p393
F0.012656927108764648
sS'comp_time'
p394
F5.3882598876953125e-05
sS'exec_cq'
p395
I1
sS'total_cq'
p396
I2
sasS'total_cqs'
p397
I2
ssI33
(dp398
S'iters'
p399
I13
sS'meta'
p400
(lp401
(dp402
S'objective'
p403
I4392
sS'query_time'
p404
F1.1694669723510742
sS'comp_time'
p405
F0.0001461505889892578
sS'exec_cq'
p406
I3
sS'total_cq'
p407
I103
sa(dp408
g403
I4592
sg404
F2.9489519596099854
sg405
F0.00015807151794433594
sg406
I10
sg407
I94
sa(dp409
g403
I4477
sg404
F0.7704579830169678
sg405
F0.0001971721649169922
sg406
I10
sg407
I92
sa(dp410
g403
I4309
sg404
F0.9809200763702393
sg405
F0.00013303756713867188
sg406
I15
sg407
I90
sa(dp411
g403
I4285
sg404
F0.6540079116821289
sg405
F0.00020503997802734375
sg406
I17
sg407
I88
sa(dp412
g403
I4217
sg404
F0.42214298248291016
sg405
F0.00012302398681640625
sg406
I20
sg407
I86
sa(dp413
g403
I4002
sg404
F0.34319305419921875
sg405
F0.00014090538024902344
sg406
I21
sg407
I85
sa(dp414
g403
I4006
sg404
F0.41808485984802246
sg405
F0.00013017654418945312
sg406
I22
sg407
I83
sa(dp415
g403
I3803
sg404
F0.3897409439086914
sg405
F0.00021910667419433594
sg406
I22
sg407
I82
sa(dp416
g403
I3708
sg404
F0.551652193069458
sg405
F0.00014710426330566406
sg406
I33
sg407
I80
sa(dp417
g403
I3714
sg404
F0.2067091464996338
sg405
F7.390975952148438e-05
sg406
I33
sg407
I77
sa(dp418
g403
I3577
sg404
F0.21742701530456543
sg405
F8.20159912109375e-05
sg406
I33
sg407
I76
sa(dp419
g403
I10
sg404
F0.03292107582092285
sg405
F3.504753112792969e-05
sg406
I1
sg407
I2
sasS'total_cqs'
p420
I103
ssI34
(dp421
S'iters'
p422
I1
sS'meta'
p423
(lp424
(dp425
S'objective'
p426
I1
sS'query_time'
p427
F0.015737056732177734
sS'comp_time'
p428
F6.103515625e-05
sS'exec_cq'
p429
I1
sS'total_cq'
p430
I2
sasS'total_cqs'
p431
I2
ssI35
(dp432
S'iters'
p433
I15
sS'meta'
p434
(lp435
(dp436
S'objective'
p437
I2255
sS'query_time'
p438
F10.431466102600098
sS'comp_time'
p439
F0.009264945983886719
sS'exec_cq'
p440
I2
sS'total_cq'
p441
I70
sa(dp442
g437
I2170
sg438
F24.777137994766235
sg439
F0.000164031982421875
sg440
I5
sg441
I68
sa(dp443
g437
I2096
sg438
F0.8508069515228271
sg439
F0.00011992454528808594
sg440
I5
sg441
I66
sa(dp444
g437
I1975
sg438
F0.5163838863372803
sg439
F0.00011587142944335938
sg440
I5
sg441
I64
sa(dp445
g437
I1833
sg438
F13.182206153869629
sg439
F0.00014400482177734375
sg440
I5
sg441
I61
sa(dp446
g437
I1834
sg438
F19.453924894332886
sg439
F0.0006070137023925781
sg440
I5
sg441
I58
sa(dp447
g437
I1775
sg438
F0.22568893432617188
sg439
F0.00010919570922851562
sg440
I5
sg441
I57
sa(dp448
g437
I1717
sg438
F0.3318030834197998
sg439
F0.00010800361633300781
sg440
I5
sg441
I56
sa(dp449
g437
I1662
sg438
F0.49864792823791504
sg439
F0.00017118453979492188
sg440
I6
sg441
I55
sa(dp450
g437
I1323
sg438
F0.3207888603210449
sg439
F0.000164031982421875
sg440
I6
sg441
I54
sa(dp451
g437
I1413
sg438
F24.506784915924072
sg439
F0.0002040863037109375
sg440
I6
sg441
I47
sa(dp452
g437
I1361
sg438
F3.1412971019744873
sg439
F0.00016117095947265625
sg440
I6
sg441
I46
sa(dp453
g437
I1236
sg438
F3.214337110519409
sg439
F0.0001609325408935547
sg440
I6
sg441
I45
sa(dp454
g437
I1151
sg438
F0.15046000480651855
sg439
F6.699562072753906e-05
sg440
I6
sg441
I43
sa(dp455
g437
I15
sg438
F0.010246038436889648
sg439
F3.2901763916015625e-05
sg440
I1
sg441
I2
sasS'total_cqs'
p456
I70
ssI36
(dp457
S'iters'
p458
I4
sS'meta'
p459
(lp460
(dp461
S'objective'
p462
I455
sS'query_time'
p463
F0.061181068420410156
sS'comp_time'
p464
F8.511543273925781e-05
sS'exec_cq'
p465
I2
sS'total_cq'
p466
I33
sa(dp467
g462
I448
sg463
F0.1069180965423584
sg464
F8.606910705566406e-05
sg465
I3
sg466
I31
sa(dp468
g462
I400
sg463
F0.06956100463867188
sg464
F8.58306884765625e-05
sg465
I5
sg466
I30
sa(dp469
g462
I403
sg463
F0.13992094993591309
sg464
F8.106231689453125e-05
sg465
I12
sg466
I28
sasS'total_cqs'
p470
I33
ssI37
(dp471
S'iters'
p472
I1
sS'meta'
p473
(lp474
(dp475
S'objective'
p476
I1
sS'query_time'
p477
F0.011502981185913086
sS'comp_time'
p478
F6.008148193359375e-05
sS'exec_cq'
p479
I1
sS'total_cq'
p480
I2
sasS'total_cqs'
p481
I2
ssI38
(dp482
S'iters'
p483
I3
sS'meta'
p484
(lp485
(dp486
S'objective'
p487
I8
sS'query_time'
p488
F0.018646955490112305
sS'comp_time'
p489
F4.887580871582031e-05
sS'exec_cq'
p490
I1
sS'total_cq'
p491
I4
sa(dp492
g487
I1
sg488
F0.05554986000061035
sg489
F3.3855438232421875e-05
sg490
I1
sg491
I3
sa(dp493
g487
I1
sg488
F0.01108407974243164
sg489
F4.291534423828125e-05
sg490
I1
sg491
I2
sasS'total_cqs'
p494
I4
ssI39
(dp495
S'iters'
p496
I2
sS'meta'
p497
(lp498
(dp499
S'objective'
p500
I758
sS'query_time'
p501
F0.08418512344360352
sS'comp_time'
p502
F0.0004780292510986328
sS'exec_cq'
p503
I19
sS'total_cq'
p504
I44
sa(dp505
g500
I70
sg501
F0.05652117729187012
sg502
F6.890296936035156e-05
sg503
I2
sg504
I8
sasS'total_cqs'
p506
I44
ssI40
(dp507
S'iters'
p508
I1
sS'meta'
p509
(lp510
(dp511
S'objective'
p512
I18
sS'query_time'
p513
F0.02318882942199707
sS'comp_time'
p514
F7.486343383789062e-05
sS'exec_cq'
p515
I3
sS'total_cq'
p516
I7
sasS'total_cqs'
p517
I7
ssI41
(dp518
S'iters'
p519
I1
sS'meta'
p520
(lp521
(dp522
S'objective'
p523
I64
sS'query_time'
p524
F0.038316965103149414
sS'comp_time'
p525
F7.605552673339844e-05
sS'exec_cq'
p526
I6
sS'total_cq'
p527
I12
sasS'total_cqs'
p528
I12
ssI42
(dp529
S'iters'
p530
I2
sS'meta'
p531
(lp532
(dp533
S'objective'
p534
I807
sS'query_time'
p535
F0.03368496894836426
sS'comp_time'
p536
F7.987022399902344e-05
sS'exec_cq'
p537
I15
sS'total_cq'
p538
I41
sa(dp539
g534
I790
sg535
F0.021736860275268555
sg536
F7.081031799316406e-05
sg537
I19
sg538
I40
sasS'total_cqs'
p540
I41
ssI43
(dp541
S'iters'
p542
I1
sS'meta'
p543
(lp544
(dp545
S'objective'
p546
I18
sS'query_time'
p547
F0.02025914192199707
sS'comp_time'
p548
F4.887580871582031e-05
sS'exec_cq'
p549
I3
sS'total_cq'
p550
I7
sasS'total_cqs'
p551
I7
ssI44
(dp552
S'iters'
p553
I3
sS'meta'
p554
(lp555
(dp556
S'objective'
p557
I906
sS'query_time'
p558
F0.11284923553466797
sS'comp_time'
p559
F6.198883056640625e-05
sS'exec_cq'
p560
I1
sS'total_cq'
p561
I47
sa(dp562
g557
I17
sg558
F0.018635034561157227
sg559
F5.698204040527344e-05
sg560
I2
sg561
I3
sa(dp563
g557
I14
sg558
F0.02471303939819336
sg559
F3.314018249511719e-05
sg560
I1
sg561
I2
sasS'total_cqs'
p564
I47
ssI45
(dp565
S'iters'
p566
I0
sS'meta'
p567
(lp568
sS'total_cqs'
p569
I1
ssI46
(dp570
S'iters'
p571
I2
sS'meta'
p572
(lp573
(dp574
S'objective'
p575
I11
sS'query_time'
p576
F0.007679939270019531
sS'comp_time'
p577
F6.794929504394531e-05
sS'exec_cq'
p578
I2
sS'total_cq'
p579
I6
sa(dp580
g575
I8
sg576
F0.0041849613189697266
sg577
F3.814697265625e-05
sg578
I2
sg579
I5
sasS'total_cqs'
p581
I6
ssI47
(dp582
S'iters'
p583
I1
sS'meta'
p584
(lp585
(dp586
S'objective'
p587
I1
sS'query_time'
p588
F0.006031990051269531
sS'comp_time'
p589
F4.1961669921875e-05
sS'exec_cq'
p590
I1
sS'total_cq'
p591
I2
sasS'total_cqs'
p592
I2
ssI48
(dp593
S'iters'
p594
I0
sS'meta'
p595
(lp596
sS'total_cqs'
p597
I1
ssI49
(dp598
S'iters'
p599
I0
sS'meta'
p600
(lp601
sS'total_cqs'
p602
I1
ssI50
(dp603
S'iters'
p604
I2
sS'meta'
p605
(lp606
(dp607
S'objective'
p608
I5
sS'query_time'
p609
F0.006518125534057617
sS'comp_time'
p610
F3.695487976074219e-05
sS'exec_cq'
p611
I1
sS'total_cq'
p612
I5
sa(dp613
g608
I2
sg609
F0.007671833038330078
sg610
F6.604194641113281e-05
sg611
I1
sg612
I4
sasS'total_cqs'
p614
I5
ssI51
(dp615
S'iters'
p616
I1
sS'meta'
p617
(lp618
(dp619
S'objective'
p620
I1
sS'query_time'
p621
F0.004939079284667969
sS'comp_time'
p622
F4.506111145019531e-05
sS'exec_cq'
p623
I1
sS'total_cq'
p624
I2
sasS'total_cqs'
p625
I2
ssI52
(dp626
S'iters'
p627
I1
sS'meta'
p628
(lp629
(dp630
S'objective'
p631
I1
sS'query_time'
p632
F0.005527019500732422
sS'comp_time'
p633
F4.506111145019531e-05
sS'exec_cq'
p634
I1
sS'total_cq'
p635
I2
sasS'total_cqs'
p636
I2
ssI53
(dp637
S'iters'
p638
I2
sS'meta'
p639
(lp640
(dp641
S'objective'
p642
I2
sS'query_time'
p643
F0.010622978210449219
sS'comp_time'
p644
F7.796287536621094e-05
sS'exec_cq'
p645
I1
sS'total_cq'
p646
I4
sa(dp647
g642
I0
sg643
F0.012362957000732422
sg644
F6.914138793945312e-05
sg645
I1
sg646
I3
sasS'total_cqs'
p648
I4
ssI54
(dp649
S'iters'
p650
I1
sS'meta'
p651
(lp652
(dp653
S'objective'
p654
I0
sS'query_time'
p655
F0.00669097900390625
sS'comp_time'
p656
F4.792213439941406e-05
sS'exec_cq'
p657
I1
sS'total_cq'
p658
I3
sasS'total_cqs'
p659
I3
ssI55
(dp660
S'iters'
p661
I8
sS'meta'
p662
(lp663
(dp664
S'objective'
p665
I5797
sS'query_time'
p666
F0.23514914512634277
sS'comp_time'
p667
F0.00014209747314453125
sS'exec_cq'
p668
I11
sS'total_cq'
p669
I109
sa(dp670
g665
I5408
sg666
F0.3937971591949463
sg667
F0.0001220703125
sg668
I14
sg669
I108
sa(dp671
g665
I5466
sg666
F0.6583929061889648
sg667
F0.00013399124145507812
sg668
I15
sg669
I104
sa(dp672
g665
I5055
sg666
F0.4545588493347168
sg667
F0.00014090538024902344
sg668
I19
sg669
I103
sa(dp673
g665
I4821
sg666
F0.15918397903442383
sg667
F9.799003601074219e-05
sg668
I21
sg669
I99
sa(dp674
g665
I4676
sg666
F0.2515120506286621
sg667
F0.0001468658447265625
sg668
I22
sg669
I95
sa(dp675
g665
I28
sg666
F0.007714033126831055
sg667
F3.695487976074219e-05
sg668
I1
sg669
I3
sa(dp676
g665
I1
sg666
F0.014029979705810547
sg667
F4.506111145019531e-05
sg668
I1
sg669
I2
sasS'total_cqs'
p677
I109
ssI56
(dp678
S'iters'
p679
I15
sS'meta'
p680
(lp681
(dp682
S'objective'
p683
I2774
sS'query_time'
p684
F0.34253501892089844
sS'comp_time'
p685
F0.00013303756713867188
sS'exec_cq'
p686
I1
sS'total_cq'
p687
I76
sa(dp688
g683
I2702
sg684
F0.39557409286499023
sg685
F0.00011801719665527344
sg686
I2
sg687
I75
sa(dp689
g683
I2540
sg684
F0.33930206298828125
sg685
F0.00011515617370605469
sg686
I3
sg687
I74
sa(dp690
g683
I2516
sg684
F0.9370119571685791
sg685
F0.00011491775512695312
sg686
I3
sg687
I70
sa(dp691
g683
I2299
sg684
F0.27928900718688965
sg685
F7.796287536621094e-05
sg686
I3
sg687
I69
sa(dp692
g683
I2307
sg684
F0.35183191299438477
sg685
F0.00010895729064941406
sg686
I4
sg687
I66
sa(dp693
g683
I2243
sg684
F0.23999881744384766
sg685
F0.00010204315185546875
sg686
I5
sg687
I65
sa(dp694
g683
I2185
sg684
F0.4263589382171631
sg685
F9.179115295410156e-05
sg686
I8
sg687
I64
sa(dp695
g683
I2125
sg684
F0.17232012748718262
sg685
F6.699562072753906e-05
sg686
I8
sg687
I63
sa(dp696
g683
I2000
sg684
F0.16269683837890625
sg685
F7.200241088867188e-05
sg686
I10
sg687
I62
sa(dp697
g683
I1983
sg684
F0.16555500030517578
sg685
F7.605552673339844e-05
sg686
I12
sg687
I60
sa(dp698
g683
I1416
sg684
F0.21335196495056152
sg685
F9.417533874511719e-05
sg686
I12
sg687
I59
sa(dp699
g683
I121
sg684
F0.07114601135253906
sg685
F4.38690185546875e-05
sg686
I1
sg687
I10
sa(dp700
g683
I112
sg684
F0.25939393043518066
sg685
F5.888938903808594e-05
sg686
I1
sg687
I8
sa(dp701
g683
I86
sg684
F0.040390968322753906
sg685
F4.8160552978515625e-05
sg686
I1
sg687
I7
sasS'total_cqs'
p702
I76
ssI57
(dp703
S'iters'
p704
I9
sS'meta'
p705
(lp706
(dp707
S'objective'
p708
I1224
sS'query_time'
p709
F1.7479019165039062
sS'comp_time'
p710
F9.894371032714844e-05
sS'exec_cq'
p711
I1
sS'total_cq'
p712
I51
sa(dp713
g708
I385
sg709
F0.6896848678588867
sg710
F0.00010204315185546875
sg711
I1
sg712
I50
sa(dp714
g708
I670
sg709
F9.686410188674927
sg710
F0.0001671314239501953
sg711
I3
sg712
I33
sa(dp715
g708
I596
sg709
F4.921298980712891
sg710
F8.797645568847656e-05
sg711
I6
sg712
I31
sa(dp716
g708
I517
sg709
F0.6692750453948975
sg710
F0.0001499652862548828
sg711
I6
sg712
I29
sa(dp717
g708
I399
sg709
F0.2511730194091797
sg710
F0.00011610984802246094
sg711
I6
sg712
I25
sa(dp718
g708
I68
sg709
F0.05326104164123535
sg710
F3.2901763916015625e-05
sg711
I1
sg712
I4
sa(dp719
g708
I47
sg709
F0.06782698631286621
sg710
F0.00024390220642089844
sg711
I1
sg712
I3
sa(dp720
g708
I11
sg709
F0.028889894485473633
sg710
F2.5033950805664062e-05
sg711
I1
sg712
I2
sasS'total_cqs'
p721
I51
ssI58
(dp722
S'iters'
p723
I25
sS'meta'
p724
(lp725
(dp726
S'objective'
p727
I116901
sS'query_time'
p728
F0.6537299156188965
sS'comp_time'
p729
F0.0004520416259765625
sS'exec_cq'
p730
I1
sS'total_cq'
p731
I486
sa(dp732
g727
I110995
sg728
F13.645119905471802
sg729
F0.0004401206970214844
sg730
I1
sg731
I484
sa(dp733
g727
I113340
sg728
F2.142963171005249
sg729
F0.0005130767822265625
sg730
I1
sg731
I472
sa(dp734
g727
I96746
sg728
F1.8168830871582031
sg729
F0.00026297569274902344
sg730
I3
sg731
I471
sa(dp735
g727
I104007
sg728
F25.344300031661987
sg729
F0.00030493736267089844
sg730
I3
sg731
I435
sa(dp736
g727
I103016
sg728
F0.5112340450286865
sg729
F0.00023698806762695312
sg730
I4
sg731
I432
sa(dp737
g727
I102609
sg728
F1.7355120182037354
sg729
F0.0007190704345703125
sg730
I4
sg731
I430
sa(dp738
g727
I95122
sg728
F3.945124864578247
sg729
F0.0003731250762939453
sg730
I5
sg731
I427
sa(dp739
g727
I98233
sg728
F4.225738048553467
sg729
F0.0004208087921142578
sg730
I8
sg731
I415
sa(dp740
g727
I96192
sg728
F1.6074280738830566
sg729
F0.00047707557678222656
sg730
I8
sg731
I414
sa(dp741
g727
I93769
sg728
F1.6782000064849854
sg729
F0.0002551078796386719
sg730
I10
sg731
I408
sa(dp742
g727
I81078
sg728
F3.224216938018799
sg729
F0.00018906593322753906
sg730
I15
sg731
I402
sa(dp743
g727
I84637
sg728
F8.097496032714844
sg729
F0.00041294097900390625
sg730
I21
sg731
I372
sa(dp744
g727
I84112
sg728
F11.194185972213745
sg729
F0.00028896331787109375
sg730
I31
sg731
I364
sa(dp745
g727
I84453
sg728
F1.054931879043579
sg729
F0.00023508071899414062
sg730
I32
sg731
I360
sa(dp746
g727
I83409
sg728
F0.6312329769134521
sg729
F0.0002110004425048828
sg730
I32
sg731
I359
sa(dp747
g727
I82275
sg728
F2.196408987045288
sg729
F0.0005400180816650391
sg730
I32
sg731
I356
sa(dp748
g727
I81543
sg728
F4.262972116470337
sg729
F0.0006418228149414062
sg730
I32
sg731
I351
sa(dp749
g727
I81552
sg728
F2.558497905731201
sg729
F0.0004000663757324219
sg730
I36
sg731
I349
sa(dp750
g727
I80286
sg728
F1.2548730373382568
sg729
F0.0003459453582763672
sg730
I36
sg731
I348
sa(dp751
g727
I80311
sg728
F6.372992992401123
sg729
F0.0002868175506591797
sg730
I39
sg731
I344
sa(dp752
g727
I78774
sg728
F1.6668500900268555
sg729
F0.00021004676818847656
sg730
I41
sg731
I343
sa(dp753
g727
I77586
sg728
F1.7940490245819092
sg729
F0.00022411346435546875
sg730
I52
sg731
I340
sa(dp754
g727
I76842
sg728
F1.064601182937622
sg729
F0.0002357959747314453
sg730
I52
sg731
I335
sa(dp755
g727
I424
sg728
F0.037902116775512695
sg729
F5.793571472167969e-05
sg730
I1
sg731
I3
sasS'total_cqs'
p756
I486
ssI59
(dp757
S'iters'
p758
I2
sS'meta'
p759
(lp760
(dp761
S'objective'
p762
I16
sS'query_time'
p763
F0.027026891708374023
sS'comp_time'
p764
F5.698204040527344e-05
sS'exec_cq'
p765
I3
sS'total_cq'
p766
I7
sa(dp767
g762
I4
sg763
F0.04165506362915039
sg764
F5.793571472167969e-05
sg765
I2
sg766
I2
sasS'total_cqs'
p768
I7
ssI60
(dp769
S'iters'
p770
I1
sS'meta'
p771
(lp772
(dp773
S'objective'
p774
I7
sS'query_time'
p775
F0.006505012512207031
sS'comp_time'
p776
F5.0067901611328125e-05
sS'exec_cq'
p777
I2
sS'total_cq'
p778
I5
sasS'total_cqs'
p779
I5
ssI61
(dp780
S'iters'
p781
I0
sS'meta'
p782
(lp783
sS'total_cqs'
p784
I1
ssI62
(dp785
S'iters'
p786
I3
sS'meta'
p787
(lp788
(dp789
S'objective'
p790
I58
sS'query_time'
p791
F0.021224021911621094
sS'comp_time'
p792
F5.3882598876953125e-05
sS'exec_cq'
p793
I3
sS'total_cq'
p794
I12
sa(dp795
g790
I40
sg791
F0.025603055953979492
sg792
F7.200241088867188e-05
sg793
I3
sg794
I11
sa(dp796
g790
I40
sg791
F0.010766983032226562
sg792
F7.796287536621094e-05
sg793
I4
sg794
I8
sasS'total_cqs'
p797
I12
ssI63
(dp798
S'iters'
p799
I0
sS'meta'
p800
(lp801
sS'total_cqs'
p802
I1
ssI64
(dp803
S'iters'
p804
I5
sS'meta'
p805
(lp806
(dp807
S'objective'
p808
I54
sS'query_time'
p809
F0.138779878616333
sS'comp_time'
p810
F7.200241088867188e-05
sS'exec_cq'
p811
I1
sS'total_cq'
p812
I12
sa(dp813
g808
I44
sg809
F0.034017086029052734
sg810
F6.008148193359375e-05
sg811
I1
sg812
I11
sa(dp814
g808
I35
sg809
F0.015289783477783203
sg810
F4.887580871582031e-05
sg811
I1
sg812
I10
sa(dp815
g808
I19
sg809
F0.011687994003295898
sg810
F4.38690185546875e-05
sg811
I3
sg812
I9
sa(dp816
g808
I1
sg809
F0.0035059452056884766
sg810
F3.1948089599609375e-05
sg811
I1
sg812
I2
sasS'total_cqs'
p817
I12
ssI65
(dp818
S'iters'
p819
I5
sS'meta'
p820
(lp821
(dp822
S'objective'
p823
I324
sS'query_time'
p824
F0.0816049575805664
sS'comp_time'
p825
F4.506111145019531e-05
sS'exec_cq'
p826
I1
sS'total_cq'
p827
I27
sa(dp828
g823
I299
sg824
F0.08004093170166016
sg825
F8.20159912109375e-05
sg826
I1
sg827
I26
sa(dp829
g823
I255
sg824
F0.03378796577453613
sg825
F5.602836608886719e-05
sg826
I2
sg827
I25
sa(dp830
g823
I214
sg824
F0.020591020584106445
sg825
F4.9114227294921875e-05
sg826
I2
sg827
I23
sa(dp831
g823
I8
sg824
F0.003906965255737305
sg825
F4.00543212890625e-05
sg826
I2
sg827
I2
sasS'total_cqs'
p832
I27
ssI66
(dp833
S'iters'
p834
I0
sS'meta'
p835
(lp836
sS'total_cqs'
p837
I1
ssI67
(dp838
S'iters'
p839
I1
sS'meta'
p840
(lp841
(dp842
S'objective'
p843
I592
sS'query_time'
p844
F1.1012160778045654
sS'comp_time'
p845
F6.985664367675781e-05
sS'exec_cq'
p846
I17
sS'total_cq'
p847
I35
sasS'total_cqs'
p848
I35
ssI68
(dp849
S'iters'
p850
I0
sS'meta'
p851
(lp852
sS'total_cqs'
p853
I1
ssI69
(dp854
S'iters'
p855
I1
sS'meta'
p856
(lp857
(dp858
S'objective'
p859
I1272
sS'query_time'
p860
F0.1029059886932373
sS'comp_time'
p861
F0.00010800361633300781
sS'exec_cq'
p862
I25
sS'total_cq'
p863
I51
sasS'total_cqs'
p864
I51
ssI70
(dp865
S'iters'
p866
I2
sS'meta'
p867
(lp868
(dp869
S'objective'
p870
I9
sS'query_time'
p871
F0.00816488265991211
sS'comp_time'
p872
F3.910064697265625e-05
sS'exec_cq'
p873
I1
sS'total_cq'
p874
I6
sa(dp875
g870
I7
sg871
F0.009046792984008789
sg872
F5.91278076171875e-05
sg873
I2
sg874
I5
sasS'total_cqs'
p876
I6
ssI71
(dp877
S'iters'
p878
I7
sS'meta'
p879
(lp880
(dp881
S'objective'
p882
I3301
sS'query_time'
p883
F0.12247896194458008
sS'comp_time'
p884
F9.679794311523438e-05
sS'exec_cq'
p885
I2
sS'total_cq'
p886
I85
sa(dp887
g882
I3314
sg883
F0.07489800453186035
sg884
F0.00010895729064941406
sg885
I3
sg886
I81
sa(dp888
g882
I3164
sg883
F0.09381294250488281
sg884
F0.00011801719665527344
sg885
I17
sg886
I80
sa(dp889
g882
I2986
sg883
F0.06740593910217285
sg884
F0.00010180473327636719
sg885
I25
sg886
I77
sa(dp890
g882
I3027
sg883
F0.05368494987487793
sg884
F0.00011301040649414062
sg885
I28
sg886
I74
sa(dp891
g882
I2970
sg883
F0.04928016662597656
sg884
F7.200241088867188e-05
sg885
I30
sg886
I73
sa(dp892
g882
I2937
sg883
F0.03893780708312988
sg884
F8.106231689453125e-05
sg885
I34
sg886
I71
sasS'total_cqs'
p893
I85
ssI72
(dp894
S'iters'
p895
I3
sS'meta'
p896
(lp897
(dp898
S'objective'
p899
I20
sS'query_time'
p900
F0.26355981826782227
sS'comp_time'
p901
F8.320808410644531e-05
sS'exec_cq'
p902
I1
sS'total_cq'
p903
I8
sa(dp904
g899
I2
sg900
F0.0500030517578125
sg901
F4.601478576660156e-05
sg902
I1
sg903
I7
sa(dp905
g899
I5
sg900
F0.006743907928466797
sg901
F4.506111145019531e-05
sg902
I1
sg903
I5
sasS'total_cqs'
p906
I8
ssI73
(dp907
S'iters'
p908
I0
sS'meta'
p909
(lp910
sS'total_cqs'
p911
I1
ssI74
(dp912
S'iters'
p913
I0
sS'meta'
p914
(lp915
sS'total_cqs'
p916
I1
ssI75
(dp917
S'iters'
p918
I2
sS'meta'
p919
(lp920
(dp921
S'objective'
p922
I5
sS'query_time'
p923
F0.005257844924926758
sS'comp_time'
p924
F4.696846008300781e-05
sS'exec_cq'
p925
I1
sS'total_cq'
p926
I5
sa(dp927
g922
I2
sg923
F0.00467681884765625
sg924
F5.698204040527344e-05
sg925
I1
sg926
I4
sasS'total_cqs'
p928
I5
ssI76
(dp929
S'iters'
p930
I1
sS'meta'
p931
(lp932
(dp933
S'objective'
p934
I1
sS'query_time'
p935
F0.008424043655395508
sS'comp_time'
p936
F4.696846008300781e-05
sS'exec_cq'
p937
I1
sS'total_cq'
p938
I2
sasS'total_cqs'
p939
I2
ssI77
(dp940
S'iters'
p941
I0
sS'meta'
p942
(lp943
sS'total_cqs'
p944
I1
ssI78
(dp945
S'iters'
p946
I0
sS'meta'
p947
(lp948
sS'total_cqs'
p949
I1
ssI103
(dp950
S'iters'
p951
I1
sS'meta'
p952
(lp953
(dp954
S'objective'
p955
I64
sS'query_time'
p956
F0.04344010353088379
sS'comp_time'
p957
F6.604194641113281e-05
sS'exec_cq'
p958
I6
sS'total_cq'
p959
I12
sasS'total_cqs'
p960
I12
ssI104
(dp961
S'iters'
p962
I2
sS'meta'
p963
(lp964
(dp965
S'objective'
p966
I0
sS'query_time'
p967
F0.04093790054321289
sS'comp_time'
p968
F2.9802322387695312e-05
sS'exec_cq'
p969
I1
sS'total_cq'
p970
I4
sa(dp971
g966
I1
sg967
F1.3561570644378662
sg968
F7.605552673339844e-05
sg969
I1
sg970
I2
sasS'total_cqs'
p972
I4
ssI105
(dp973
S'iters'
p974
I0
sS'meta'
p975
(lp976
sS'total_cqs'
p977
I1
ssI106
(dp978
S'iters'
p979
I1
sS'meta'
p980
(lp981
(dp982
S'objective'
p983
I4
sS'query_time'
p984
F0.01650404930114746
sS'comp_time'
p985
F5.4836273193359375e-05
sS'exec_cq'
p986
I2
sS'total_cq'
p987
I4
sasS'total_cqs'
p988
I4
ssI107
(dp989
S'iters'
p990
I2
sS'meta'
p991
(lp992
(dp993
S'objective'
p994
I76
sS'query_time'
p995
F0.03132295608520508
sS'comp_time'
p996
F6.890296936035156e-05
sS'exec_cq'
p997
I4
sS'total_cq'
p998
I16
sa(dp999
g994
I12
sg995
F0.0271151065826416
sg996
F5.1021575927734375e-05
sg997
I2
sg998
I3
sasS'total_cqs'
p1000
I16
ssI108
(dp1001
S'iters'
p1002
I0
sS'meta'
p1003
(lp1004
sS'total_cqs'
p1005
I1
ss.