(dp0
I1
(dp1
S'iters'
p2
I3
sS'meta'
p3
(lp4
(dp5
S'objective'
p6
I38
sS'query_time'
p7
F0.038194894790649414
sS'comp_time'
p8
F0.02089405059814453
sS'exec_cq'
p9
I12
sS'total_cq'
p10
I12
sa(dp11
g6
I44
sg7
F6.103515625e-05
sg8
F0.0002071857452392578
sg9
I10
sg10
I10
sa(dp12
g6
I43
sg7
F5.91278076171875e-05
sg8
F0.00016760826110839844
sg9
I9
sg10
I9
sasS'total_cqs'
p13
I12
ssI2
(dp14
S'iters'
p15
I5
sS'meta'
p16
(lp17
(dp18
S'objective'
p19
I248
sS'query_time'
p20
F0.09898495674133301
sS'comp_time'
p21
F0.0318598747253418
sS'exec_cq'
p22
I14
sS'total_cq'
p23
I27
sa(dp24
g19
I215
sg20
F0.055500030517578125
sg21
F0.0006563663482666016
sg22
I13
sg23
I24
sa(dp25
g19
I186
sg20
F0.00011610984802246094
sg21
F0.0005128383636474609
sg22
I11
sg23
I21
sa(dp26
g19
I169
sg20
F5.698204040527344e-05
sg21
F0.0002512931823730469
sg22
I10
sg23
I19
sa(dp27
g19
I181
sg20
F4.1961669921875e-05
sg21
F0.0001933574676513672
sg22
I8
sg23
I17
sasS'total_cqs'
p28
I27
ssI3
(dp29
S'iters'
p30
I4
sS'meta'
p31
(lp32
(dp33
S'objective'
p34
I170
sS'query_time'
p35
F78.37935495376587
sS'comp_time'
p36
F0.6258547306060791
sS'exec_cq'
p37
I16
sS'total_cq'
p38
I43
sa(dp39
g34
I44
sg35
F109.18203115463257
sg36
F2.1732969284057617
sg37
I14
sg38
I27
sa(dp40
g34
I27
sg35
F42.48743677139282
sg36
F0.6693930625915527
sg37
I9
sg38
I13
sa(dp41
g34
I113
sg35
F11.156873941421509
sg36
F0.0019741058349609375
sg37
I6
sg38
I6
sasS'total_cqs'
p42
I43
ssI4
(dp43
S'iters'
p44
I2
sS'meta'
p45
(lp46
(dp47
S'objective'
p48
I44
sS'query_time'
p49
F4.935047149658203
sS'comp_time'
p50
F1.1120798587799072
sS'exec_cq'
p51
I11
sS'total_cq'
p52
I11
sa(dp53
g48
I3
sg49
F0.21011090278625488
sg50
F0.9058403968811035
sg51
I2
sg52
I2
sasS'total_cqs'
p54
I11
ssI5
(dp55
S'iters'
p56
I3
sS'meta'
p57
(lp58
(dp59
S'objective'
p60
I0
sS'query_time'
p61
F33.85657215118408
sS'comp_time'
p62
F3.850414991378784
sS'exec_cq'
p63
I8
sS'total_cq'
p64
I8
sa(dp65
g60
I0
sg61
F0.015332937240600586
sg62
F0.07160782814025879
sg63
I4
sg64
I4
sa(dp66
g60
I3
sg61
F0.004327058792114258
sg62
F0.019818782806396484
sg63
I2
sg64
I2
sasS'total_cqs'
p67
I8
ssI6
(dp68
S'iters'
p69
I4
sS'meta'
p70
(lp71
(dp72
S'objective'
p73
I9
sS'query_time'
p74
F37.38399410247803
sS'comp_time'
p75
F3.551852226257324
sS'exec_cq'
p76
I18
sS'total_cq'
p77
I18
sa(dp78
g73
I1
sg74
F0.6145060062408447
sg75
F4.084774732589722
sg76
I7
sg77
I7
sa(dp79
g73
I3
sg74
F0.12785792350769043
sg75
F1.935791015625
sg76
I4
sg77
I4
sa(dp80
g73
I10
sg74
F0.014812946319580078
sg75
F0.2840538024902344
sg76
I2
sg77
I2
sasS'total_cqs'
p81
I18
ssI7
(dp82
S'iters'
p83
I3
sS'meta'
p84
(lp85
(dp86
S'objective'
p87
I1
sS'query_time'
p88
F13.049903869628906
sS'comp_time'
p89
F2.4394264221191406
sS'exec_cq'
p90
I9
sS'total_cq'
p91
I9
sa(dp92
g87
I1
sg88
F0.18471002578735352
sg89
F0.14167094230651855
sg90
I4
sg91
I4
sa(dp93
g87
I4
sg88
F0.003756999969482422
sg89
F0.02142500877380371
sg90
I2
sg91
I2
sasS'total_cqs'
p94
I9
ssI8
(dp95
S'iters'
p96
I5
sS'meta'
p97
(lp98
(dp99
S'objective'
p100
I260
sS'query_time'
p101
F0.061196088790893555
sS'comp_time'
p102
F0.02898383140563965
sS'exec_cq'
p103
I14
sS'total_cq'
p104
I27
sa(dp105
g100
I229
sg101
F0.06930708885192871
sg102
F0.0005328655242919922
sg103
I13
sg104
I22
sa(dp106
g100
I224
sg101
F3.695487976074219e-05
sg102
F0.00015687942504882812
sg103
I9
sg104
I19
sa(dp107
g100
I231
sg101
F3.790855407714844e-05
sg102
F0.00010633468627929688
sg103
I10
sg104
I18
sa(dp108
g100
I224
sg101
F5.602836608886719e-05
sg102
F8.58306884765625e-05
sg103
I17
sg104
I17
sasS'total_cqs'
p109
I27
ssI9
(dp110
S'iters'
p111
I3
sS'meta'
p112
(lp113
(dp114
S'objective'
p115
I4
sS'query_time'
p116
F0.04881787300109863
sS'comp_time'
p117
F0.0048978328704833984
sS'exec_cq'
p118
I7
sS'total_cq'
p119
I7
sa(dp120
g115
I4
sg116
F2.5987625122070312e-05
sg117
F0.00020885467529296875
sg118
I4
sg119
I4
sa(dp121
g115
I2
sg116
F0.0014081001281738281
sg117
F9.679794311523438e-05
sg118
I2
sg119
I2
sasS'total_cqs'
p122
I7
ssI10
(dp123
S'iters'
p124
I6
sS'meta'
p125
(lp126
(dp127
S'objective'
p128
I586
sS'query_time'
p129
F0.2204270362854004
sS'comp_time'
p130
F0.08247494697570801
sS'exec_cq'
p131
I28
sS'total_cq'
p132
I51
sa(dp133
g128
I274
sg129
F0.28723907470703125
sg130
F0.001634359359741211
sg131
I23
sg132
I37
sa(dp134
g128
I409
sg129
F0.00016999244689941406
sg130
F0.0009829998016357422
sg131
I14
sg132
I25
sa(dp135
g128
I406
sg129
F6.604194641113281e-05
sg130
F0.0002818107604980469
sg131
I11
sg132
I21
sa(dp136
g128
I7
sg129
F0.015568017959594727
sg130
F0.00034499168395996094
sg131
I3
sg132
I3
sa(dp137
g128
I5
sg129
F1.71661376953125e-05
sg130
F8.320808410644531e-05
sg131
I2
sg132
I2
sasS'total_cqs'
p138
I51
ssI11
(dp139
S'iters'
p140
I7
sS'meta'
p141
(lp142
(dp143
S'objective'
p144
I882
sS'query_time'
p145
F0.5543560981750488
sS'comp_time'
p146
F0.16740655899047852
sS'exec_cq'
p147
I63
sS'total_cq'
p148
I63
sa(dp149
g144
I929
sg145
F0.0012929439544677734
sg146
F0.006760358810424805
sg147
I47
sg148
I47
sa(dp150
g144
I901
sg145
F0.0007328987121582031
sg146
F0.004195690155029297
sg147
I40
sg148
I40
sa(dp151
g144
I805
sg145
F0.0005939006805419922
sg146
F0.003176450729370117
sg147
I35
sg148
I35
sa(dp152
g144
I22
sg145
F0.0017971992492675781
sg146
F0.0009410381317138672
sg147
I5
sg148
I5
sa(dp153
g144
I9
sg145
F2.288818359375e-05
sg146
F0.00010895729064941406
sg147
I3
sg148
I3
sa(dp154
g144
I5
sg145
F1.5974044799804688e-05
sg146
F0.00015473365783691406
sg147
I2
sg148
I2
sasS'total_cqs'
p155
I63
ssI12
(dp156
S'iters'
p157
I5
sS'meta'
p158
(lp159
(dp160
S'objective'
p161
I335
sS'query_time'
p162
F0.15656208992004395
sS'comp_time'
p163
F0.07670927047729492
sS'exec_cq'
p164
I28
sS'total_cq'
p165
I50
sa(dp166
g161
I387
sg162
F0.14815592765808105
sg163
F0.0028901100158691406
sg164
I22
sg165
I33
sa(dp167
g161
I506
sg162
F0.00013589859008789062
sg163
F0.0006380081176757812
sg164
I15
sg165
I26
sa(dp168
g161
I7
sg162
F0.0013458728790283203
sg163
F0.0004949569702148438
sg164
I4
sg165
I4
sa(dp169
g161
I9
sg162
F2.002716064453125e-05
sg163
F0.00013399124145507812
sg164
I2
sg165
I2
sasS'total_cqs'
p170
I50
ssI13
(dp171
S'iters'
p172
I3
sS'meta'
p173
(lp174
(dp175
S'objective'
p176
I26
sS'query_time'
p177
F0.1654829978942871
sS'comp_time'
p178
F0.03309273719787598
sS'exec_cq'
p179
I20
sS'total_cq'
p180
I20
sa(dp181
g176
I42
sg177
F5.4836273193359375e-05
sg178
F0.0004227161407470703
sg179
I9
sg180
I9
sa(dp182
g176
I13
sg177
F0.0017299652099609375
sg178
F0.00015401840209960938
sg179
I2
sg180
I2
sasS'total_cqs'
p183
I20
ssI14
(dp184
S'iters'
p185
I4
sS'meta'
p186
(lp187
(dp188
S'objective'
p189
I1
sS'query_time'
p190
F33.038005113601685
sS'comp_time'
p191
F1.640138864517212
sS'exec_cq'
p192
I9
sS'total_cq'
p193
I9
sa(dp194
g189
I5
sg190
F0.01044321060180664
sg191
F0.18769216537475586
sg192
I5
sg193
I5
sa(dp195
g189
I0
sg190
F0.009469985961914062
sg191
F0.045556068420410156
sg192
I4
sg193
I4
sa(dp196
g189
I1
sg190
F0.0056858062744140625
sg191
F0.13613390922546387
sg192
I2
sg193
I2
sasS'total_cqs'
p197
I9
ssI15
(dp198
S'iters'
p199
I5
sS'meta'
p200
(lp201
(dp202
S'objective'
p203
I2
sS'query_time'
p204
F3.7614848613739014
sS'comp_time'
p205
F0.29806017875671387
sS'exec_cq'
p206
I11
sS'total_cq'
p207
I11
sa(dp208
g203
I12
sg204
F0.0007410049438476562
sg205
F0.004151105880737305
sg206
I6
sg207
I6
sa(dp209
g203
I4
sg204
F0.00046896934509277344
sg205
F0.0033500194549560547
sg206
I5
sg207
I5
sa(dp210
g203
I1
sg204
F0.00045299530029296875
sg205
F0.0035238265991210938
sg206
I4
sg207
I4
sa(dp211
g203
I1
sg204
F0.00041222572326660156
sg205
F0.003442049026489258
sg206
I2
sg207
I2
sasS'total_cqs'
p212
I11
ssI16
(dp213
S'iters'
p214
I1
sS'meta'
p215
(lp216
(dp217
S'objective'
p218
I30
sS'query_time'
p219
F0.030236005783081055
sS'comp_time'
p220
F0.004095792770385742
sS'exec_cq'
p221
I8
sS'total_cq'
p222
I8
sasS'total_cqs'
p223
I8
ssI17
(dp224
S'iters'
p225
I4
sS'meta'
p226
(lp227
(dp228
S'objective'
p229
I2
sS'query_time'
p230
F0.92500901222229
sS'comp_time'
p231
F0.05170297622680664
sS'exec_cq'
p232
I11
sS'total_cq'
p233
I11
sa(dp234
g229
I0
sg230
F0.00824284553527832
sg231
F0.030449390411376953
sg232
I7
sg233
I7
sa(dp235
g229
I2
sg230
F0.0002560615539550781
sg231
F0.0015628337860107422
sg232
I3
sg233
I3
sa(dp236
g229
I1
sg230
F0.000209808349609375
sg231
F0.001592874526977539
sg232
I2
sg233
I2
sasS'total_cqs'
p237
I11
ssI18
(dp238
S'iters'
p239
I1
sS'meta'
p240
(lp241
(dp242
S'objective'
p243
I58
sS'query_time'
p244
F0.20308923721313477
sS'comp_time'
p245
F0.02071666717529297
sS'exec_cq'
p246
I10
sS'total_cq'
p247
I11
sasS'total_cqs'
p248
I11
ssI19
(dp249
S'iters'
p250
I0
sS'meta'
p251
(lp252
sS'total_cqs'
p253
I1
ssI20
(dp254
S'iters'
p255
I0
sS'meta'
p256
(lp257
sS'total_cqs'
p258
I1
ssI21
(dp259
S'iters'
p260
I0
sS'meta'
p261
(lp262
sS'total_cqs'
p263
I1
ssI22
(dp264
S'iters'
p265
I1
sS'meta'
p266
(lp267
(dp268
S'objective'
p269
I159
sS'query_time'
p270
F0.06658005714416504
sS'comp_time'
p271
F0.030354976654052734
sS'exec_cq'
p272
I18
sS'total_cq'
p273
I18
sasS'total_cqs'
p274
I18
ssI23
(dp275
S'iters'
p276
I2
sS'meta'
p277
(lp278
(dp279
S'objective'
p280
I114
sS'query_time'
p281
F0.04532790184020996
sS'comp_time'
p282
F0.0285031795501709
sS'exec_cq'
p283
I8
sS'total_cq'
p284
I16
sa(dp285
g280
I115
sg281
F3.790855407714844e-05
sg282
F0.00017070770263671875
sg283
I7
sg284
I15
sasS'total_cqs'
p286
I16
ssI24
(dp287
S'iters'
p288
I0
sS'meta'
p289
(lp290
sS'total_cqs'
p291
I1
ssI25
(dp292
S'iters'
p293
I0
sS'meta'
p294
(lp295
sS'total_cqs'
p296
I1
ssI26
(dp297
S'iters'
p298
I1
sS'meta'
p299
(lp300
(dp301
S'objective'
p302
I879
sS'query_time'
p303
F0.18415403366088867
sS'comp_time'
p304
F0.11137747764587402
sS'exec_cq'
p305
I42
sS'total_cq'
p306
I42
sasS'total_cqs'
p307
I42
ssI27
(dp308
S'iters'
p309
I4
sS'meta'
p310
(lp311
(dp312
S'objective'
p313
I337
sS'query_time'
p314
F22.194073915481567
sS'comp_time'
p315
F4.543335676193237
sS'exec_cq'
p316
I30
sS'total_cq'
p317
I30
sa(dp318
g313
I2
sg314
F0.9754760265350342
sg315
F3.7557520866394043
sg316
I5
sg317
I5
sa(dp319
g313
I7
sg314
F0.3562450408935547
sg315
F2.0724844932556152
sg316
I3
sg317
I3
sa(dp320
g313
I2
sg314
F0.31865811347961426
sg315
F1.9805631637573242
sg316
I2
sg317
I2
sasS'total_cqs'
p321
I30
ssI28
(dp322
S'iters'
p323
I0
sS'meta'
p324
(lp325
sS'total_cqs'
p326
I1
ssI29
(dp327
S'iters'
p328
I6
sS'meta'
p329
(lp330
(dp331
S'objective'
p332
I159
sS'query_time'
p333
F27.254060983657837
sS'comp_time'
p334
F0.867241621017456
sS'exec_cq'
p335
I35
sS'total_cq'
p336
I49
sa(dp337
g332
I9
sg333
F0.07080292701721191
sg334
F0.5579414367675781
sg335
I17
sg336
I17
sa(dp338
g332
I10
sg333
F0.04334306716918945
sg334
F0.5111749172210693
sg335
I9
sg336
I9
sa(dp339
g332
I14
sg333
F0.02364206314086914
sg334
F0.2686800956726074
sg335
I5
sg336
I5
sa(dp340
g332
I31
sg333
F0.0021440982818603516
sg334
F0.010819196701049805
sg335
I3
sg336
I3
sa(dp341
g332
I13
sg333
F0.0014600753784179688
sg334
F0.008142948150634766
sg335
I2
sg336
I2
sasS'total_cqs'
p342
I49
ssI30
(dp343
S'iters'
p344
I1
sS'meta'
p345
(lp346
(dp347
S'objective'
p348
I1
sS'query_time'
p349
F0.7044029235839844
sS'comp_time'
p350
F0.0401763916015625
sS'exec_cq'
p351
I2
sS'total_cq'
p352
I2
sasS'total_cqs'
p353
I2
ssI31
(dp354
S'iters'
p355
I0
sS'meta'
p356
(lp357
sS'total_cqs'
p358
I1
ssI32
(dp359
S'iters'
p360
I1
sS'meta'
p361
(lp362
(dp363
S'objective'
p364
I1
sS'query_time'
p365
F0.010951995849609375
sS'comp_time'
p366
F0.002912759780883789
sS'exec_cq'
p367
I2
sS'total_cq'
p368
I2
sasS'total_cqs'
p369
I2
ssI33
(dp370
S'iters'
p371
I6
sS'meta'
p372
(lp373
(dp374
S'objective'
p375
I3828
sS'query_time'
p376
F16.470956087112427
sS'comp_time'
p377
F0.96518874168396
sS'exec_cq'
p378
I103
sS'total_cq'
p379
I103
sa(dp380
g375
I4
sg376
F0.0077419281005859375
sg377
F0.026193857192993164
sg378
I16
sg379
I16
sa(dp381
g375
I36
sg376
F0.0011060237884521484
sg377
F0.004080057144165039
sg378
I7
sg379
I7
sa(dp382
g375
I10
sg376
F0.0005190372467041016
sg377
F0.0031571388244628906
sg378
I5
sg379
I5
sa(dp383
g375
I2
sg376
F0.0003628730773925781
sg377
F0.0023610591888427734
sg378
I3
sg379
I3
sa(dp384
g375
I2
sg376
F7.700920104980469e-05
sg377
F0.00055694580078125
sg378
I2
sg379
I2
sasS'total_cqs'
p385
I103
ssI34
(dp386
S'iters'
p387
I1
sS'meta'
p388
(lp389
(dp390
S'objective'
p391
I1
sS'query_time'
p392
F0.01749897003173828
sS'comp_time'
p393
F0.00189971923828125
sS'exec_cq'
p394
I2
sS'total_cq'
p395
I2
sasS'total_cqs'
p396
I2
ssI35
(dp397
S'iters'
p398
I5
sS'meta'
p399
(lp400
(dp401
S'objective'
p402
I1449
sS'query_time'
p403
F22.91339612007141
sS'comp_time'
p404
F0.26103997230529785
sS'exec_cq'
p405
I50
sS'total_cq'
p406
I70
sa(dp407
g402
I1617
sg403
F0.13376998901367188
sg404
F0.011349678039550781
sg405
I37
sg406
I57
sa(dp408
g402
I3
sg403
F0.0018069744110107422
sg404
F0.0075283050537109375
sg405
I7
sg406
I7
sa(dp409
g402
I0
sg403
F0.0019850730895996094
sg404
F0.006034135818481445
sg405
I4
sg406
I4
sa(dp410
g402
I5
sg403
F0.0003249645233154297
sg404
F0.002232789993286133
sg405
I2
sg406
I2
sasS'total_cqs'
p411
I70
ssI36
(dp412
S'iters'
p413
I2
sS'meta'
p414
(lp415
(dp416
S'objective'
p417
I383
sS'query_time'
p418
F0.7259659767150879
sS'comp_time'
p419
F0.1477048397064209
sS'exec_cq'
p420
I33
sS'total_cq'
p421
I33
sa(dp422
g417
I452
sg418
F0.00518488883972168
sg419
F0.005372285842895508
sg420
I28
sg421
I29
sasS'total_cqs'
p423
I33
ssI37
(dp424
S'iters'
p425
I1
sS'meta'
p426
(lp427
(dp428
S'objective'
p429
I1
sS'query_time'
p430
F0.014951944351196289
sS'comp_time'
p431
F0.002179384231567383
sS'exec_cq'
p432
I2
sS'total_cq'
p433
I2
sasS'total_cqs'
p434
I2
ssI38
(dp435
S'iters'
p436
I2
sS'meta'
p437
(lp438
(dp439
S'objective'
p440
I0
sS'query_time'
p441
F0.04179811477661133
sS'comp_time'
p442
F0.0033152103424072266
sS'exec_cq'
p443
I4
sS'total_cq'
p444
I4
sa(dp445
g440
I1
sg441
F7.915496826171875e-05
sg442
F0.00041103363037109375
sg443
I2
sg444
I2
sasS'total_cqs'
p446
I4
ssI39
(dp447
S'iters'
p448
I2
sS'meta'
p449
(lp450
(dp451
S'objective'
p452
I718
sS'query_time'
p453
F0.16312503814697266
sS'comp_time'
p454
F0.1862177848815918
sS'exec_cq'
p455
I44
sS'total_cq'
p456
I44
sa(dp457
g452
I830
sg453
F0.00033283233642578125
sg454
F0.002023458480834961
sg455
I37
sg456
I37
sasS'total_cqs'
p458
I44
ssI40
(dp459
S'iters'
p460
I1
sS'meta'
p461
(lp462
(dp463
S'objective'
p464
I22
sS'query_time'
p465
F0.0362701416015625
sS'comp_time'
p466
F0.0059888362884521484
sS'exec_cq'
p467
I7
sS'total_cq'
p468
I7
sasS'total_cqs'
p469
I7
ssI41
(dp470
S'iters'
p471
I2
sS'meta'
p472
(lp473
(dp474
S'objective'
p475
I56
sS'query_time'
p476
F0.09366106986999512
sS'comp_time'
p477
F0.015749216079711914
sS'exec_cq'
p478
I12
sS'total_cq'
p479
I12
sa(dp480
g475
I59
sg476
F6.103515625e-05
sg477
F0.000186920166015625
sg478
I11
sg479
I11
sasS'total_cqs'
p481
I12
ssI42
(dp482
S'iters'
p483
I2
sS'meta'
p484
(lp485
(dp486
S'objective'
p487
I787
sS'query_time'
p488
F0.07224106788635254
sS'comp_time'
p489
F0.155501127243042
sS'exec_cq'
p490
I21
sS'total_cq'
p491
I41
sa(dp492
g487
I800
sg488
F0.00013399124145507812
sg489
F0.00020384788513183594
sg490
I20
sg491
I40
sasS'total_cqs'
p493
I41
ssI43
(dp494
S'iters'
p495
I1
sS'meta'
p496
(lp497
(dp498
S'objective'
p499
I22
sS'query_time'
p500
F0.039129018783569336
sS'comp_time'
p501
F0.005964994430541992
sS'exec_cq'
p502
I7
sS'total_cq'
p503
I7
sasS'total_cqs'
p504
I7
ssI44
(dp505
S'iters'
p506
I5
sS'meta'
p507
(lp508
(dp509
S'objective'
p510
I864
sS'query_time'
p511
F0.18510198593139648
sS'comp_time'
p512
F0.17412877082824707
sS'exec_cq'
p513
I47
sS'total_cq'
p514
I47
sa(dp515
g510
I912
sg511
F0.0002579689025878906
sg512
F0.0013599395751953125
sg513
I40
sg514
I40
sa(dp516
g510
I916
sg511
F0.0002200603485107422
sg512
F0.0008158683776855469
sg513
I39
sg514
I39
sa(dp517
g510
I11
sg511
F0.00167083740234375
sg512
F0.0016331672668457031
sg513
I3
sg514
I3
sa(dp518
g510
I11
sg511
F9.608268737792969e-05
sg512
F0.0006480216979980469
sg513
I2
sg514
I2
sasS'total_cqs'
p519
I47
ssI45
(dp520
S'iters'
p521
I0
sS'meta'
p522
(lp523
sS'total_cqs'
p524
I1
ssI46
(dp525
S'iters'
p526
I3
sS'meta'
p527
(lp528
(dp529
S'objective'
p530
I9
sS'query_time'
p531
F0.01750493049621582
sS'comp_time'
p532
F0.0026667118072509766
sS'exec_cq'
p533
I4
sS'total_cq'
p534
I6
sa(dp535
g530
I5
sg531
F4.291534423828125e-05
sg532
F0.0002942085266113281
sg533
I3
sg534
I5
sa(dp536
g530
I4
sg531
F1.3113021850585938e-05
sg532
F6.67572021484375e-05
sg533
I2
sg534
I4
sasS'total_cqs'
p537
I6
ssI47
(dp538
S'iters'
p539
I1
sS'meta'
p540
(lp541
(dp542
S'objective'
p543
I1
sS'query_time'
p544
F0.010396003723144531
sS'comp_time'
p545
F0.001245260238647461
sS'exec_cq'
p546
I2
sS'total_cq'
p547
I2
sasS'total_cqs'
p548
I2
ssI48
(dp549
S'iters'
p550
I0
sS'meta'
p551
(lp552
sS'total_cqs'
p553
I1
ssI49
(dp554
S'iters'
p555
I0
sS'meta'
p556
(lp557
sS'total_cqs'
p558
I1
ssI50
(dp559
S'iters'
p560
I3
sS'meta'
p561
(lp562
(dp563
S'objective'
p564
I5
sS'query_time'
p565
F0.013756036758422852
sS'comp_time'
p566
F0.002102375030517578
sS'exec_cq'
p567
I5
sS'total_cq'
p568
I5
sa(dp569
g564
I2
sg565
F2.7894973754882812e-05
sg566
F0.00013327598571777344
sg567
I4
sg568
I4
sa(dp570
g564
I0
sg565
F2.4080276489257812e-05
sg566
F0.0001270771026611328
sg567
I3
sg568
I3
sasS'total_cqs'
p571
I5
ssI51
(dp572
S'iters'
p573
I1
sS'meta'
p574
(lp575
(dp576
S'objective'
p577
I1
sS'query_time'
p578
F0.015550851821899414
sS'comp_time'
p579
F0.0010571479797363281
sS'exec_cq'
p580
I2
sS'total_cq'
p581
I2
sasS'total_cqs'
p582
I2
ssI52
(dp583
S'iters'
p584
I1
sS'meta'
p585
(lp586
(dp587
S'objective'
p588
I1
sS'query_time'
p589
F0.008053064346313477
sS'comp_time'
p590
F0.0011851787567138672
sS'exec_cq'
p591
I2
sS'total_cq'
p592
I2
sasS'total_cqs'
p593
I2
ssI53
(dp594
S'iters'
p595
I3
sS'meta'
p596
(lp597
(dp598
S'objective'
p599
I2
sS'query_time'
p600
F0.020968914031982422
sS'comp_time'
p601
F0.0025758743286132812
sS'exec_cq'
p602
I4
sS'total_cq'
p603
I4
sa(dp604
g599
I0
sg600
F6.29425048828125e-05
sg601
F0.0010609626770019531
sg602
I3
sg603
I3
sa(dp605
g599
I1
sg600
F6.318092346191406e-05
sg601
F0.0004279613494873047
sg602
I2
sg603
I2
sasS'total_cqs'
p606
I4
ssI54
(dp607
S'iters'
p608
I2
sS'meta'
p609
(lp610
(dp611
S'objective'
p612
I0
sS'query_time'
p613
F0.04338717460632324
sS'comp_time'
p614
F0.0016796588897705078
sS'exec_cq'
p615
I3
sS'total_cq'
p616
I3
sa(dp617
g612
I1
sg613
F4.00543212890625e-05
sg614
F0.00026488304138183594
sg615
I2
sg616
I2
sasS'total_cqs'
p618
I3
ssI55
(dp619
S'iters'
p620
I4
sS'meta'
p621
(lp622
(dp623
S'objective'
p624
I4929
sS'query_time'
p625
F2.6268160343170166
sS'comp_time'
p626
F0.5146410465240479
sS'exec_cq'
p627
I109
sS'total_cq'
p628
I109
sa(dp629
g624
I15
sg625
F0.0063359737396240234
sg626
F0.027666807174682617
sg627
I9
sg628
I9
sa(dp630
g624
I29
sg625
F0.002004861831665039
sg626
F0.011512279510498047
sg627
I4
sg628
I4
sa(dp631
g624
I57
sg625
F0.0002560615539550781
sg626
F0.0013058185577392578
sg627
I2
sg628
I2
sasS'total_cqs'
p632
I109
ssI56
(dp633
S'iters'
p634
I5
sS'meta'
p635
(lp636
(dp637
S'objective'
p638
I1624
sS'query_time'
p639
F1.5519530773162842
sS'comp_time'
p640
F0.2842085361480713
sS'exec_cq'
p641
I67
sS'total_cq'
p642
I76
sa(dp643
g638
I91
sg639
F0.007698774337768555
sg640
F0.23894596099853516
sg641
I16
sg642
I16
sa(dp644
g638
I1
sg639
F0.004128932952880859
sg640
F0.013993978500366211
sg641
I9
sg642
I9
sa(dp645
g638
I29
sg639
F0.0005729198455810547
sg640
F0.004409313201904297
sg641
I4
sg642
I4
sa(dp646
g638
I38
sg639
F0.0001900196075439453
sg640
F0.0013942718505859375
sg641
I2
sg642
I2
sasS'total_cqs'
p647
I76
ssI57
(dp648
S'iters'
p649
I6
sS'meta'
p650
(lp651
(dp652
S'objective'
p653
I70
sS'query_time'
p654
F23.014829874038696
sS'comp_time'
p655
F0.4854850769042969
sS'exec_cq'
p656
I45
sS'total_cq'
p657
I51
sa(dp658
g653
I70
sg654
F0.01555013656616211
sg655
F0.03365015983581543
sg656
I27
sg657
I27
sa(dp659
g653
I8
sg654
F0.014443159103393555
sg655
F0.03387570381164551
sg656
I12
sg657
I12
sa(dp660
g653
I3
sg654
F0.00593113899230957
sg655
F0.13986897468566895
sg656
I8
sg657
I8
sa(dp661
g653
I4
sg654
F0.0012221336364746094
sg655
F0.003256082534790039
sg656
I3
sg657
I3
sa(dp662
g653
I11
sg654
F0.0004987716674804688
sg655
F0.0029201507568359375
sg656
I2
sg657
I2
sasS'total_cqs'
p663
I51
ssI58
(dp664
S'iters'
p665
I7
sS'meta'
p666
(lp667
(dp668
S'objective'
p669
I83275
sS'query_time'
p670
F111.2363510131836
sS'comp_time'
p671
F18.030141830444336
sS'exec_cq'
p672
I348
sS'total_cq'
p673
I486
sa(dp674
g669
I88016
sg670
F0.03737306594848633
sg671
F1.728769302368164
sg672
I276
sg673
I414
sa(dp675
g669
I22
sg670
F0.01585221290588379
sg671
F0.08522844314575195
sg672
I28
sg673
I28
sa(dp676
g669
I1
sg670
F0.007803916931152344
sg671
F0.02005600929260254
sg672
I12
sg673
I12
sa(dp677
g669
I109
sg670
F0.002351045608520508
sg671
F0.009403467178344727
sg672
I5
sg673
I5
sa(dp678
g669
I222
sg670
F0.0017039775848388672
sg671
F0.007058143615722656
sg672
I3
sg673
I3
sa(dp679
g669
I14
sg670
F0.0010008811950683594
sg671
F0.007191181182861328
sg672
I2
sg673
I2
sasS'total_cqs'
p680
I486
ssI59
(dp681
S'iters'
p682
I2
sS'meta'
p683
(lp684
(dp685
S'objective'
p686
I10
sS'query_time'
p687
F0.06566905975341797
sS'comp_time'
p688
F0.015990018844604492
sS'exec_cq'
p689
I7
sS'total_cq'
p690
I7
sa(dp691
g686
I3
sg687
F0.0001678466796875
sg688
F0.0011668205261230469
sg689
I2
sg690
I2
sasS'total_cqs'
p692
I7
ssI60
(dp693
S'iters'
p694
I1
sS'meta'
p695
(lp696
(dp697
S'objective'
p698
I9
sS'query_time'
p699
F0.020361900329589844
sS'comp_time'
p700
F0.003190279006958008
sS'exec_cq'
p701
I3
sS'total_cq'
p702
I5
sasS'total_cqs'
p703
I5
ssI61
(dp704
S'iters'
p705
I0
sS'meta'
p706
(lp707
sS'total_cqs'
p708
I1
ssI62
(dp709
S'iters'
p710
I3
sS'meta'
p711
(lp712
(dp713
S'objective'
p714
I38
sS'query_time'
p715
F0.030546903610229492
sS'comp_time'
p716
F0.016825199127197266
sS'exec_cq'
p717
I12
sS'total_cq'
p718
I12
sa(dp719
g714
I38
sg715
F4.792213439941406e-05
sg716
F0.0001881122589111328
sg717
I9
sg718
I9
sa(dp720
g714
I40
sg715
F3.1948089599609375e-05
sg716
F9.393692016601562e-05
sg717
I8
sg718
I8
sasS'total_cqs'
p721
I12
ssI63
(dp722
S'iters'
p723
I0
sS'meta'
p724
(lp725
sS'total_cqs'
p726
I1
ssI64
(dp727
S'iters'
p728
I3
sS'meta'
p729
(lp730
(dp731
S'objective'
p732
I14
sS'query_time'
p733
F0.12177085876464844
sS'comp_time'
p734
F0.09721899032592773
sS'exec_cq'
p735
I12
sS'total_cq'
p736
I12
sa(dp737
g732
I0
sg733
F0.0002009868621826172
sg734
F0.0013108253479003906
sg735
I4
sg736
I4
sa(dp738
g732
I8
sg733
F5.1021575927734375e-05
sg734
F0.0002567768096923828
sg735
I2
sg736
I2
sasS'total_cqs'
p739
I12
ssI65
(dp740
S'iters'
p741
I4
sS'meta'
p742
(lp743
(dp744
S'objective'
p745
I164
sS'query_time'
p746
F0.8322300910949707
sS'comp_time'
p747
F0.26218700408935547
sS'exec_cq'
p748
I27
sS'total_cq'
p749
I27
sa(dp750
g745
I7
sg746
F0.0019960403442382812
sg747
F0.010203361511230469
sg748
I7
sg749
I7
sa(dp751
g745
I7
sg746
F0.0002529621124267578
sg747
F0.0012340545654296875
sg748
I3
sg749
I3
sa(dp752
g745
I16
sg746
F0.00010609626770019531
sg747
F0.0006902217864990234
sg748
I2
sg749
I2
sasS'total_cqs'
p753
I27
ssI66
(dp754
S'iters'
p755
I0
sS'meta'
p756
(lp757
sS'total_cqs'
p758
I1
ssI67
(dp759
S'iters'
p760
I2
sS'meta'
p761
(lp762
(dp763
S'objective'
p764
I574
sS'query_time'
p765
F1.0599241256713867
sS'comp_time'
p766
F0.1593918800354004
sS'exec_cq'
p767
I35
sS'total_cq'
p768
I35
sa(dp769
g764
I8
sg765
F0.0017299652099609375
sg766
F0.011007070541381836
sg767
I2
sg768
I2
sasS'total_cqs'
p770
I35
ssI68
(dp771
S'iters'
p772
I0
sS'meta'
p773
(lp774
sS'total_cqs'
p775
I1
ssI69
(dp776
S'iters'
p777
I1
sS'meta'
p778
(lp779
(dp780
S'objective'
p781
I1298
sS'query_time'
p782
F0.20146799087524414
sS'comp_time'
p783
F0.21999216079711914
sS'exec_cq'
p784
I51
sS'total_cq'
p785
I51
sasS'total_cqs'
p786
I51
ssI70
(dp787
S'iters'
p788
I3
sS'meta'
p789
(lp790
(dp791
S'objective'
p792
I9
sS'query_time'
p793
F0.02831292152404785
sS'comp_time'
p794
F0.003576040267944336
sS'exec_cq'
p795
I6
sS'total_cq'
p796
I6
sa(dp797
g792
I7
sg793
F5.0067901611328125e-05
sg794
F0.0002391338348388672
sg795
I5
sg796
I5
sa(dp798
g792
I5
sg793
F4.00543212890625e-05
sg794
F0.00019788742065429688
sg795
I4
sg796
I4
sasS'total_cqs'
p799
I6
ssI71
(dp800
S'iters'
p801
I8
sS'meta'
p802
(lp803
(dp804
S'objective'
p805
I3221
sS'query_time'
p806
F0.2744159698486328
sS'comp_time'
p807
F0.19078993797302246
sS'exec_cq'
p808
I73
sS'total_cq'
p809
I85
sa(dp810
g805
I3106
sg806
F0.00028395652770996094
sg807
F0.0011301040649414062
sg808
I69
sg809
I81
sa(dp811
g805
I3012
sg806
F0.0002460479736328125
sg807
F0.0009660720825195312
sg808
I65
sg809
I77
sa(dp812
g805
I2918
sg806
F0.0002551078796386719
sg807
F0.0008382797241210938
sg808
I62
sg809
I74
sa(dp813
g805
I2822
sg806
F0.00021314620971679688
sg807
F0.0006277561187744141
sg808
I60
sg809
I72
sa(dp814
g805
I2780
sg806
F0.00019693374633789062
sg807
F0.0005440711975097656
sg808
I57
sg809
I69
sa(dp815
g805
I1
sg806
F0.002192974090576172
sg807
F0.002241373062133789
sg808
I3
sg809
I3
sa(dp816
g805
I10
sg806
F0.0030591487884521484
sg807
F0.00019407272338867188
sg808
I2
sg809
I2
sasS'total_cqs'
p817
I85
ssI72
(dp818
S'iters'
p819
I3
sS'meta'
p820
(lp821
(dp822
S'objective'
p823
I10
sS'query_time'
p824
F0.02972698211669922
sS'comp_time'
p825
F0.004208803176879883
sS'exec_cq'
p826
I4
sS'total_cq'
p827
I8
sa(dp828
g823
I1
sg824
F0.29865097999572754
sg825
F0.00287628173828125
sg826
I4
sg827
I6
sa(dp829
g823
I5
sg824
F8.20159912109375e-05
sg825
F0.0002923011779785156
sg826
I2
sg827
I3
sasS'total_cqs'
p830
I8
ssI73
(dp831
S'iters'
p832
I0
sS'meta'
p833
(lp834
sS'total_cqs'
p835
I1
ssI74
(dp836
S'iters'
p837
I0
sS'meta'
p838
(lp839
sS'total_cqs'
p840
I1
ssI75
(dp841
S'iters'
p842
I3
sS'meta'
p843
(lp844
(dp845
S'objective'
p846
I5
sS'query_time'
p847
F0.009977102279663086
sS'comp_time'
p848
F0.0015430450439453125
sS'exec_cq'
p849
I5
sS'total_cq'
p850
I5
sa(dp851
g846
I2
sg847
F2.8133392333984375e-05
sg848
F0.00010967254638671875
sg849
I4
sg850
I4
sa(dp852
g846
I0
sg847
F2.09808349609375e-05
sg848
F9.202957153320312e-05
sg849
I3
sg850
I3
sasS'total_cqs'
p853
I5
ssI76
(dp854
S'iters'
p855
I1
sS'meta'
p856
(lp857
(dp858
S'objective'
p859
I1
sS'query_time'
p860
F0.01299595832824707
sS'comp_time'
p861
F0.001026153564453125
sS'exec_cq'
p862
I2
sS'total_cq'
p863
I2
sasS'total_cqs'
p864
I2
ssI77
(dp865
S'iters'
p866
I0
sS'meta'
p867
(lp868
sS'total_cqs'
p869
I1
ssI78
(dp870
S'iters'
p871
I0
sS'meta'
p872
(lp873
sS'total_cqs'
p874
I1
ssI103
(dp875
S'iters'
p876
I1
sS'meta'
p877
(lp878
(dp879
S'objective'
p880
I70
sS'query_time'
p881
F0.0667870044708252
sS'comp_time'
p882
F0.015749454498291016
sS'exec_cq'
p883
I12
sS'total_cq'
p884
I12
sasS'total_cqs'
p885
I12
ssI104
(dp886
S'iters'
p887
I2
sS'meta'
p888
(lp889
(dp890
S'objective'
p891
I2
sS'query_time'
p892
F1.2762060165405273
sS'comp_time'
p893
F0.1758420467376709
sS'exec_cq'
p894
I4
sS'total_cq'
p895
I4
sa(dp896
g891
I2
sg892
F0.011237859725952148
sg893
F0.162353515625
sg894
I2
sg895
I2
sasS'total_cqs'
p897
I4
ssI105
(dp898
S'iters'
p899
I0
sS'meta'
p900
(lp901
sS'total_cqs'
p902
I1
ssI106
(dp903
S'iters'
p904
I1
sS'meta'
p905
(lp906
(dp907
S'objective'
p908
I6
sS'query_time'
p909
F0.02074909210205078
sS'comp_time'
p910
F0.0019402503967285156
sS'exec_cq'
p911
I4
sS'total_cq'
p912
I4
sasS'total_cqs'
p913
I4
ssI107
(dp914
S'iters'
p915
I2
sS'meta'
p916
(lp917
(dp918
S'objective'
p919
I94
sS'query_time'
p920
F0.07412600517272949
sS'comp_time'
p921
F0.07613706588745117
sS'exec_cq'
p922
I16
sS'total_cq'
p923
I16
sa(dp924
g919
I11
sg920
F0.004738807678222656
sg921
F0.00036025047302246094
sg922
I3
sg923
I3
sasS'total_cqs'
p925
I16
ssI108
(dp926
S'iters'
p927
I0
sS'meta'
p928
(lp929
sS'total_cqs'
p930
I1
ss.