(dp0
I1
(dp1
S'iters'
p2
I2
sS'meta'
p3
(lp4
(dp5
S'objective'
p6
I50
sS'query_time'
p7
F0.013832807540893555
sS'comp_time'
p8
F7.677078247070312e-05
sS'exec_cq'
p9
I1
sS'total_cq'
p10
I12
sa(dp11
g6
I44
sg7
F0.009675979614257812
sg8
F8.893013000488281e-05
sg9
I2
sg10
I10
sasS'total_cqs'
p12
I12
ssI2
(dp13
S'iters'
p14
I4
sS'meta'
p15
(lp16
(dp17
S'objective'
p18
I250
sS'query_time'
p19
F0.022320032119750977
sS'comp_time'
p20
F9.393692016601562e-05
sS'exec_cq'
p21
I1
sS'total_cq'
p22
I27
sa(dp23
g18
I264
sg19
F0.026162147521972656
sg20
F8.702278137207031e-05
sg21
I2
sg22
I24
sa(dp24
g18
I209
sg19
F0.023458003997802734
sg20
F9.584426879882812e-05
sg21
I2
sg22
I23
sa(dp25
g18
I205
sg19
F0.013334989547729492
sg20
F8.511543273925781e-05
sg21
I2
sg22
I20
sasS'total_cqs'
p26
I27
ssI3
(dp27
S'iters'
p28
I4
sS'meta'
p29
(lp30
(dp31
S'objective'
p32
I246
sS'query_time'
p33
F25.908518075942993
sS'comp_time'
p34
F0.0001900196075439453
sS'exec_cq'
p35
I2
sS'total_cq'
p36
I43
sa(dp37
g32
I318
sg33
F8.099251985549927
sg34
F0.00031280517578125
sg35
I2
sg36
I29
sa(dp38
g32
I201
sg33
F15.942848920822144
sg34
F0.00011897087097167969
sg35
I2
sg36
I22
sa(dp39
g32
I261
sg33
F0.0038268566131591797
sg34
F6.318092346191406e-05
sg35
I2
sg36
I14
sasS'total_cqs'
p40
I43
ssI4
(dp41
S'iters'
p42
I1
sS'meta'
p43
(lp44
(dp45
S'objective'
p46
I46
sS'query_time'
p47
F3.5765011310577393
sS'comp_time'
p48
F0.0009438991546630859
sS'exec_cq'
p49
I2
sS'total_cq'
p50
I11
sasS'total_cqs'
p51
I11
ssI5
(dp52
S'iters'
p53
I2
sS'meta'
p54
(lp55
(dp56
S'objective'
p57
I2
sS'query_time'
p58
F0.8585169315338135
sS'comp_time'
p59
F8.511543273925781e-05
sS'exec_cq'
p60
I1
sS'total_cq'
p61
I8
sa(dp62
g57
I3
sg58
F0.3004469871520996
sg59
F6.699562072753906e-05
sg60
I1
sg61
I4
sasS'total_cqs'
p63
I8
ssI6
(dp64
S'iters'
p65
I3
sS'meta'
p66
(lp67
(dp68
S'objective'
p69
I137
sS'query_time'
p70
F1.5303239822387695
sS'comp_time'
p71
F0.0001010894775390625
sS'exec_cq'
p72
I2
sS'total_cq'
p73
I18
sa(dp74
g69
I108
sg70
F0.4383251667022705
sg71
F9.083747863769531e-05
sg72
I3
sg73
I17
sa(dp75
g69
I7
sg70
F0.006561994552612305
sg71
F5.817413330078125e-05
sg72
I1
sg73
I3
sasS'total_cqs'
p76
I18
ssI7
(dp77
S'iters'
p78
I2
sS'meta'
p79
(lp80
(dp81
S'objective'
p82
I17
sS'query_time'
p83
F2.9689841270446777
sS'comp_time'
p84
F0.00010800361633300781
sS'exec_cq'
p85
I1
sS'total_cq'
p86
I9
sa(dp87
g82
I15
sg83
F0.17678022384643555
sg84
F6.008148193359375e-05
sg85
I1
sg86
I7
sasS'total_cqs'
p88
I9
ssI8
(dp89
S'iters'
p90
I3
sS'meta'
p91
(lp92
(dp93
S'objective'
p94
I268
sS'query_time'
p95
F0.028545856475830078
sS'comp_time'
p96
F9.799003601074219e-05
sS'exec_cq'
p97
I2
sS'total_cq'
p98
I27
sa(dp99
g94
I189
sg95
F0.028958797454833984
sg96
F9.369850158691406e-05
sg97
I3
sg98
I24
sa(dp100
g94
I212
sg95
F0.011163949966430664
sg96
F8.916854858398438e-05
sg97
I3
sg98
I21
sasS'total_cqs'
p101
I27
ssI9
(dp102
S'iters'
p103
I3
sS'meta'
p104
(lp105
(dp106
S'objective'
p107
I16
sS'query_time'
p108
F0.01706409454345703
sS'comp_time'
p109
F8.296966552734375e-05
sS'exec_cq'
p110
I1
sS'total_cq'
p111
I7
sa(dp112
g107
I0
sg108
F0.02118992805480957
sg109
F8.296966552734375e-05
sg110
I2
sg111
I5
sa(dp113
g107
I3
sg108
F0.0026171207427978516
sg109
F5.7220458984375e-05
sg110
I2
sg111
I2
sasS'total_cqs'
p114
I7
ssI10
(dp115
S'iters'
p116
I6
sS'meta'
p117
(lp118
(dp119
S'objective'
p120
I1074
sS'query_time'
p121
F0.16128802299499512
sS'comp_time'
p122
F0.00010395050048828125
sS'exec_cq'
p123
I1
sS'total_cq'
p124
I51
sa(dp125
g120
I544
sg121
F0.0431821346282959
sg122
F0.00012612342834472656
sg123
I1
sg124
I48
sa(dp126
g120
I18
sg121
F0.029150009155273438
sg122
F8.0108642578125e-05
sg123
I1
sg124
I12
sa(dp127
g120
I19
sg121
F0.011559009552001953
sg122
F5.817413330078125e-05
sg123
I1
sg124
I6
sa(dp128
g120
I1
sg121
F0.0042459964752197266
sg122
F5.0067901611328125e-05
sg123
I1
sg124
I3
sa(dp129
g120
I37
sg121
F0.0035469532012939453
sg122
F7.867813110351562e-05
sg123
I2
sg124
I2
sasS'total_cqs'
p130
I51
ssI11
(dp131
S'iters'
p132
I10
sS'meta'
p133
(lp134
(dp135
S'objective'
p136
I1100
sS'query_time'
p137
F0.13129305839538574
sS'comp_time'
p138
F0.00013399124145507812
sS'exec_cq'
p139
I1
sS'total_cq'
p140
I63
sa(dp141
g136
I1436
sg137
F0.05504298210144043
sg138
F0.00011801719665527344
sg139
I1
sg140
I47
sa(dp142
g136
I1265
sg137
F0.05720210075378418
sg138
F0.0001399517059326172
sg139
I1
sg140
I46
sa(dp143
g136
I1067
sg137
F0.06972312927246094
sg138
F0.00012803077697753906
sg139
I1
sg140
I44
sa(dp144
g136
I1114
sg137
F0.05924701690673828
sg138
F0.00011515617370605469
sg139
I3
sg140
I41
sa(dp145
g136
I877
sg137
F0.1200258731842041
sg138
F0.00011110305786132812
sg139
I3
sg140
I40
sa(dp146
g136
I891
sg137
F0.05587291717529297
sg138
F0.0001010894775390625
sg139
I3
sg140
I36
sa(dp147
g136
I855
sg137
F0.04114198684692383
sg138
F8.296966552734375e-05
sg139
I3
sg140
I34
sa(dp148
g136
I676
sg137
F0.05651211738586426
sg138
F0.00010418891906738281
sg139
I4
sg140
I33
sa(dp149
g136
I17
sg137
F0.01040196418762207
sg138
F5.602836608886719e-05
sg139
I2
sg140
I4
sasS'total_cqs'
p150
I63
ssI12
(dp151
S'iters'
p152
I9
sS'meta'
p153
(lp154
(dp155
S'objective'
p156
I1175
sS'query_time'
p157
F0.13310790061950684
sS'comp_time'
p158
F0.0001327991485595703
sS'exec_cq'
p159
I1
sS'total_cq'
p160
I50
sa(dp161
g156
I893
sg157
F0.04775810241699219
sg158
F0.00013494491577148438
sg159
I1
sg160
I49
sa(dp162
g156
I933
sg157
F0.07745718955993652
sg158
F0.00015807151794433594
sg159
I1
sg160
I42
sa(dp163
g156
I766
sg157
F0.039472103118896484
sg158
F0.00013399124145507812
sg159
I3
sg160
I40
sa(dp164
g156
I235
sg157
F0.029146909713745117
sg158
F0.0001418590545654297
sg159
I4
sg160
I36
sa(dp165
g156
I292
sg157
F0.0269930362701416
sg158
F0.0001239776611328125
sg159
I5
sg160
I25
sa(dp166
g156
I59
sg157
F0.020990848541259766
sg158
F9.512901306152344e-05
sg159
I2
sg160
I6
sa(dp167
g156
I2
sg157
F0.006675004959106445
sg158
F5.888938903808594e-05
sg159
I2
sg160
I5
sa(dp168
g156
I29
sg157
F0.00448298454284668
sg158
F4.7206878662109375e-05
sg159
I2
sg160
I2
sasS'total_cqs'
p169
I50
ssI13
(dp170
S'iters'
p171
I4
sS'meta'
p172
(lp173
(dp174
S'objective'
p175
I86
sS'query_time'
p176
F0.07065510749816895
sS'comp_time'
p177
F0.00010895729064941406
sS'exec_cq'
p178
I1
sS'total_cq'
p179
I20
sa(dp180
g175
I94
sg176
F0.02686905860900879
sg177
F8.916854858398438e-05
sg178
I3
sg179
I14
sa(dp181
g175
I63
sg176
F0.013646125793457031
sg177
F8.416175842285156e-05
sg178
I3
sg179
I12
sa(dp182
g175
I3
sg176
F0.0071527957916259766
sg177
F9.107589721679688e-05
sg178
I2
sg179
I3
sasS'total_cqs'
p183
I20
ssI14
(dp184
S'iters'
p185
I4
sS'meta'
p186
(lp187
(dp188
S'objective'
p189
I27
sS'query_time'
p190
F0.0106201171875
sS'comp_time'
p191
F8.511543273925781e-05
sS'exec_cq'
p192
I1
sS'total_cq'
p193
I9
sa(dp194
g189
I10
sg190
F0.35422492027282715
sg191
F8.106231689453125e-05
sg192
I1
sg193
I8
sa(dp195
g189
I5
sg190
F0.020498037338256836
sg191
F7.605552673339844e-05
sg192
I1
sg193
I4
sa(dp196
g189
I2
sg190
F6.05864405632019
sg191
F0.00012302398681640625
sg192
I2
sg193
I2
sasS'total_cqs'
p197
I9
ssI15
(dp198
S'iters'
p199
I1
sS'meta'
p200
(lp201
(dp202
S'objective'
p203
I46
sS'query_time'
p204
F0.04709601402282715
sS'comp_time'
p205
F7.605552673339844e-05
sS'exec_cq'
p206
I2
sS'total_cq'
p207
I11
sasS'total_cqs'
p208
I11
ssI16
(dp209
S'iters'
p210
I1
sS'meta'
p211
(lp212
(dp213
S'objective'
p214
I22
sS'query_time'
p215
F0.010032892227172852
sS'comp_time'
p216
F7.581710815429688e-05
sS'exec_cq'
p217
I2
sS'total_cq'
p218
I8
sasS'total_cqs'
p219
I8
ssI17
(dp220
S'iters'
p221
I1
sS'meta'
p222
(lp223
(dp224
S'objective'
p225
I46
sS'query_time'
p226
F0.027306079864501953
sS'comp_time'
p227
F8.296966552734375e-05
sS'exec_cq'
p228
I2
sS'total_cq'
p229
I11
sasS'total_cqs'
p230
I11
ssI18
(dp231
S'iters'
p232
I1
sS'meta'
p233
(lp234
(dp235
S'objective'
p236
I46
sS'query_time'
p237
F0.02918386459350586
sS'comp_time'
p238
F7.605552673339844e-05
sS'exec_cq'
p239
I2
sS'total_cq'
p240
I11
sasS'total_cqs'
p241
I11
ssI22
(dp242
S'iters'
p243
I1
sS'meta'
p244
(lp245
(dp246
S'objective'
p247
I141
sS'query_time'
p248
F0.04658198356628418
sS'comp_time'
p249
F9.799003601074219e-05
sS'exec_cq'
p250
I4
sS'total_cq'
p251
I18
sasS'total_cqs'
p252
I18
ssI23
(dp253
S'iters'
p254
I1
sS'meta'
p255
(lp256
(dp257
S'objective'
p258
I110
sS'query_time'
p259
F0.017026185989379883
sS'comp_time'
p260
F8.082389831542969e-05
sS'exec_cq'
p261
I4
sS'total_cq'
p262
I16
sasS'total_cqs'
p263
I16
ssI26
(dp264
S'iters'
p265
I1
sS'meta'
p266
(lp267
(dp268
S'objective'
p269
I837
sS'query_time'
p270
F0.07572579383850098
sS'comp_time'
p271
F0.00014591217041015625
sS'exec_cq'
p272
I10
sS'total_cq'
p273
I42
sasS'total_cqs'
p274
I42
ssI27
(dp275
S'iters'
p276
I3
sS'meta'
p277
(lp278
(dp279
S'objective'
p280
I405
sS'query_time'
p281
F3.7614409923553467
sS'comp_time'
p282
F0.00014209747314453125
sS'exec_cq'
p283
I1
sS'total_cq'
p284
I30
sa(dp285
g280
I383
sg281
F8.455299854278564
sg282
F0.0001499652862548828
sg283
I4
sg284
I29
sa(dp286
g280
I361
sg281
F2.449022054672241
sg282
F0.00014138221740722656
sg283
I5
sg284
I28
sasS'total_cqs'
p287
I30
ssI29
(dp288
S'iters'
p289
I11
sS'meta'
p290
(lp291
(dp292
S'objective'
p293
I1127
sS'query_time'
p294
F9.487167119979858
sS'comp_time'
p295
F0.0001468658447265625
sS'exec_cq'
p296
I1
sS'total_cq'
p297
I49
sa(dp298
g293
I688
sg294
F0.5455009937286377
sg295
F0.00011515617370605469
sg296
I1
sg297
I48
sa(dp299
g293
I808
sg294
F26.425122022628784
sg295
F0.0001518726348876953
sg296
I2
sg297
I39
sa(dp300
g293
I782
sg294
F1.330820083618164
sg295
F0.0005509853363037109
sg296
I2
sg297
I37
sa(dp301
g293
I740
sg294
F0.043691158294677734
sg295
F9.703636169433594e-05
sg296
I2
sg297
I36
sa(dp302
g293
I685
sg294
F0.43201494216918945
sg295
F0.00011873245239257812
sg296
I2
sg297
I35
sa(dp303
g293
I652
sg294
F3.213702917098999
sg295
F0.00011396408081054688
sg296
I2
sg297
I33
sa(dp304
g293
I613
sg294
F0.060051918029785156
sg295
F0.00011110305786132812
sg296
I2
sg297
I32
sa(dp305
g293
I575
sg294
F0.16867303848266602
sg295
F0.00011086463928222656
sg296
I2
sg297
I31
sa(dp306
g293
I514
sg294
F0.17022299766540527
sg295
F0.0001227855682373047
sg296
I2
sg297
I30
sa(dp307
g293
I26
sg294
F0.02007007598876953
sg295
F5.817413330078125e-05
sg296
I1
sg297
I2
sasS'total_cqs'
p308
I49
ssI30
(dp309
S'iters'
p310
I1
sS'meta'
p311
(lp312
(dp313
S'objective'
p314
I1
sS'query_time'
p315
F0.772629976272583
sS'comp_time'
p316
F7.390975952148438e-05
sS'exec_cq'
p317
I1
sS'total_cq'
p318
I2
sasS'total_cqs'
p319
I2
ssI32
(dp320
S'iters'
p321
I1
sS'meta'
p322
(lp323
(dp324
S'objective'
p325
I1
sS'query_time'
p326
F0.14704489707946777
sS'comp_time'
p327
F7.200241088867188e-05
sS'exec_cq'
p328
I1
sS'total_cq'
p329
I2
sasS'total_cqs'
p330
I2
ssI33
(dp331
S'iters'
p332
I13
sS'meta'
p333
(lp334
(dp335
S'objective'
p336
I5064
sS'query_time'
p337
F1.625777006149292
sS'comp_time'
p338
F0.00018095970153808594
sS'exec_cq'
p339
I10
sS'total_cq'
p340
I103
sa(dp341
g336
I5024
sg337
F0.5128340721130371
sg338
F0.00021409988403320312
sg339
I10
sg340
I100
sa(dp342
g336
I4933
sg337
F3.461068868637085
sg338
F0.000164031982421875
sg339
I10
sg340
I99
sa(dp343
g336
I4703
sg337
F0.4867091178894043
sg338
F0.00016617774963378906
sg339
I10
sg340
I98
sa(dp344
g336
I4540
sg337
F0.5960860252380371
sg338
F0.0001697540283203125
sg339
I10
sg340
I96
sa(dp345
g336
I4526
sg337
F1.23732590675354
sg338
F0.00021195411682128906
sg339
I11
sg340
I94
sa(dp346
g336
I4188
sg337
F0.419935941696167
sg338
F0.0001590251922607422
sg339
I13
sg340
I93
sa(dp347
g336
I4233
sg337
F0.9050798416137695
sg338
F0.00018906593322753906
sg339
I13
sg340
I89
sa(dp348
g336
I4113
sg337
F0.6620008945465088
sg338
F0.0002551078796386719
sg339
I14
sg340
I88
sa(dp349
g336
I4021
sg337
F3.3551299571990967
sg338
F0.0002551078796386719
sg339
I15
sg340
I86
sa(dp350
g336
I3710
sg337
F0.34126996994018555
sg338
F0.00015807151794433594
sg339
I15
sg340
I84
sa(dp351
g336
I42
sg337
F0.03409314155578613
sg338
F9.512901306152344e-05
sg339
I1
sg340
I5
sa(dp352
g336
I77
sg337
F0.02885293960571289
sg338
F0.00011515617370605469
sg339
I1
sg340
I2
sasS'total_cqs'
p353
I103
ssI34
(dp354
S'iters'
p355
I1
sS'meta'
p356
(lp357
(dp358
S'objective'
p359
I1
sS'query_time'
p360
F0.011816024780273438
sS'comp_time'
p361
F8.416175842285156e-05
sS'exec_cq'
p362
I1
sS'total_cq'
p363
I2
sasS'total_cqs'
p364
I2
ssI35
(dp365
S'iters'
p366
I8
sS'meta'
p367
(lp368
(dp369
S'objective'
p370
I2235
sS'query_time'
p371
F0.5699920654296875
sS'comp_time'
p372
F0.00014901161193847656
sS'exec_cq'
p373
I1
sS'total_cq'
p374
I70
sa(dp375
g370
I1972
sg371
F0.4751620292663574
sg372
F0.00011920928955078125
sg373
I3
sg374
I68
sa(dp376
g370
I2036
sg371
F0.6945629119873047
sg372
F0.000141143798828125
sg373
I4
sg374
I64
sa(dp377
g370
I1891
sg371
F1.114928960800171
sg372
F0.00017404556274414062
sg373
I4
sg374
I63
sa(dp378
g370
I1720
sg371
F2.992079019546509
sg372
F0.0001430511474609375
sg373
I4
sg374
I60
sa(dp379
g370
I1564
sg371
F3.5590648651123047
sg372
F0.0001418590545654297
sg373
I4
sg374
I57
sa(dp380
g370
I1509
sg371
F26.379011154174805
sg372
F0.0003578662872314453
sg373
I8
sg374
I54
sa(dp381
g370
I1502
sg371
F0.13778281211853027
sg372
F0.0001499652862548828
sg373
I8
sg374
I52
sasS'total_cqs'
p382
I70
ssI36
(dp383
S'iters'
p384
I2
sS'meta'
p385
(lp386
(dp387
S'objective'
p388
I467
sS'query_time'
p389
F0.15535998344421387
sS'comp_time'
p390
F0.00011491775512695312
sS'exec_cq'
p391
I7
sS'total_cq'
p392
I33
sa(dp393
g388
I462
sg389
F0.03997683525085449
sg390
F9.202957153320312e-05
sg391
I7
sg392
I31
sasS'total_cqs'
p394
I33
ssI37
(dp395
S'iters'
p396
I1
sS'meta'
p397
(lp398
(dp399
S'objective'
p400
I1
sS'query_time'
p401
F0.007287025451660156
sS'comp_time'
p402
F7.200241088867188e-05
sS'exec_cq'
p403
I1
sS'total_cq'
p404
I2
sasS'total_cqs'
p405
I2
ssI38
(dp406
S'iters'
p407
I2
sS'meta'
p408
(lp409
(dp410
S'objective'
p411
I6
sS'query_time'
p412
F0.01670098304748535
sS'comp_time'
p413
F7.891654968261719e-05
sS'exec_cq'
p414
I1
sS'total_cq'
p415
I4
sa(dp416
g411
I0
sg412
F0.004750967025756836
sg413
F5.0067901611328125e-05
sg414
I2
sg415
I3
sasS'total_cqs'
p417
I4
ssI39
(dp418
S'iters'
p419
I3
sS'meta'
p420
(lp421
(dp422
S'objective'
p423
I596
sS'query_time'
p424
F0.0492548942565918
sS'comp_time'
p425
F0.0001327991485595703
sS'exec_cq'
p426
I8
sS'total_cq'
p427
I44
sa(dp428
g423
I123
sg424
F0.016231060028076172
sg425
F8.511543273925781e-05
sg426
I2
sg427
I8
sa(dp429
g423
I92
sg424
F0.04135704040527344
sg425
F8.511543273925781e-05
sg426
I2
sg427
I7
sasS'total_cqs'
p430
I44
ssI40
(dp431
S'iters'
p432
I1
sS'meta'
p433
(lp434
(dp435
S'objective'
p436
I14
sS'query_time'
p437
F0.014621973037719727
sS'comp_time'
p438
F8.416175842285156e-05
sS'exec_cq'
p439
I1
sS'total_cq'
p440
I7
sasS'total_cqs'
p441
I7
ssI41
(dp442
S'iters'
p443
I1
sS'meta'
p444
(lp445
(dp446
S'objective'
p447
I58
sS'query_time'
p448
F0.037153005599975586
sS'comp_time'
p449
F8.606910705566406e-05
sS'exec_cq'
p450
I3
sS'total_cq'
p451
I12
sasS'total_cqs'
p452
I12
ssI42
(dp453
S'iters'
p454
I3
sS'meta'
p455
(lp456
(dp457
S'objective'
p458
I793
sS'query_time'
p459
F0.030801057815551758
sS'comp_time'
p460
F0.00013303756713867188
sS'exec_cq'
p461
I8
sS'total_cq'
p462
I41
sa(dp463
g458
I761
sg459
F0.02048182487487793
sg460
F0.0001270771026611328
sg461
I8
sg462
I40
sa(dp464
g458
I730
sg459
F0.01976799964904785
sg460
F0.00010991096496582031
sg461
I8
sg462
I39
sasS'total_cqs'
p465
I41
ssI43
(dp466
S'iters'
p467
I1
sS'meta'
p468
(lp469
(dp470
S'objective'
p471
I14
sS'query_time'
p472
F0.013466119766235352
sS'comp_time'
p473
F8.106231689453125e-05
sS'exec_cq'
p474
I1
sS'total_cq'
p475
I7
sasS'total_cqs'
p476
I7
ssI44
(dp477
S'iters'
p478
I3
sS'meta'
p479
(lp480
(dp481
S'objective'
p482
I768
sS'query_time'
p483
F0.04666900634765625
sS'comp_time'
p484
F0.000102996826171875
sS'exec_cq'
p485
I1
sS'total_cq'
p486
I47
sa(dp487
g482
I782
sg483
F0.04848814010620117
sg484
F0.0001251697540283203
sg485
I1
sg486
I40
sa(dp488
g482
I9
sg483
F0.0015079975128173828
sg484
F5.817413330078125e-05
sg485
I1
sg486
I2
sasS'total_cqs'
p489
I47
ssI46
(dp490
S'iters'
p491
I1
sS'meta'
p492
(lp493
(dp494
S'objective'
p495
I9
sS'query_time'
p496
F0.005594015121459961
sS'comp_time'
p497
F6.198883056640625e-05
sS'exec_cq'
p498
I1
sS'total_cq'
p499
I6
sasS'total_cqs'
p500
I6
ssI47
(dp501
S'iters'
p502
I1
sS'meta'
p503
(lp504
(dp505
S'objective'
p506
I1
sS'query_time'
p507
F0.006651878356933594
sS'comp_time'
p508
F6.389617919921875e-05
sS'exec_cq'
p509
I1
sS'total_cq'
p510
I2
sasS'total_cqs'
p511
I2
ssI50
(dp512
S'iters'
p513
I1
sS'meta'
p514
(lp515
(dp516
S'objective'
p517
I5
sS'query_time'
p518
F0.004907131195068359
sS'comp_time'
p519
F5.507469177246094e-05
sS'exec_cq'
p520
I1
sS'total_cq'
p521
I5
sasS'total_cqs'
p522
I5
ssI51
(dp523
S'iters'
p524
I1
sS'meta'
p525
(lp526
(dp527
S'objective'
p528
I1
sS'query_time'
p529
F0.09890103340148926
sS'comp_time'
p530
F7.915496826171875e-05
sS'exec_cq'
p531
I1
sS'total_cq'
p532
I2
sasS'total_cqs'
p533
I2
ssI52
(dp534
S'iters'
p535
I1
sS'meta'
p536
(lp537
(dp538
S'objective'
p539
I1
sS'query_time'
p540
F0.10067105293273926
sS'comp_time'
p541
F8.893013000488281e-05
sS'exec_cq'
p542
I1
sS'total_cq'
p543
I2
sasS'total_cqs'
p544
I2
ssI53
(dp545
S'iters'
p546
I1
sS'meta'
p547
(lp548
(dp549
S'objective'
p550
I2
sS'query_time'
p551
F0.01754593849182129
sS'comp_time'
p552
F0.00011301040649414062
sS'exec_cq'
p553
I1
sS'total_cq'
p554
I4
sasS'total_cqs'
p555
I4
ssI54
(dp556
S'iters'
p557
I2
sS'meta'
p558
(lp559
(dp560
S'objective'
p561
I0
sS'query_time'
p562
F0.0038640499114990234
sS'comp_time'
p563
F4.76837158203125e-05
sS'exec_cq'
p564
I1
sS'total_cq'
p565
I3
sa(dp566
g561
I1
sg562
F0.0049550533294677734
sg563
F5.888938903808594e-05
sg564
I1
sg565
I2
sasS'total_cqs'
p567
I3
ssI55
(dp568
S'iters'
p569
I9
sS'meta'
p570
(lp571
(dp572
S'objective'
p573
I5777
sS'query_time'
p574
F0.20106005668640137
sS'comp_time'
p575
F0.0001811981201171875
sS'exec_cq'
p576
I1
sS'total_cq'
p577
I109
sa(dp578
g573
I5418
sg574
F0.2558720111846924
sg575
F0.00017404556274414062
sg576
I4
sg577
I108
sa(dp579
g573
I5400
sg574
F0.1483449935913086
sg575
F0.00014495849609375
sg576
I10
sg577
I104
sa(dp580
g573
I4890
sg574
F0.18874096870422363
sg575
F0.00017499923706054688
sg576
I10
sg577
I102
sa(dp581
g573
I4990
sg574
F0.15728187561035156
sg575
F0.0001888275146484375
sg576
I11
sg577
I96
sa(dp582
g573
I4545
sg574
F0.17120885848999023
sg575
F0.00017595291137695312
sg576
I11
sg577
I94
sa(dp583
g573
I4424
sg574
F0.1863420009613037
sg575
F0.00016808509826660156
sg576
I13
sg577
I90
sa(dp584
g573
I4333
sg574
F0.12441897392272949
sg575
F0.00015282630920410156
sg576
I17
sg577
I87
sa(dp585
g573
I21
sg574
F0.0025191307067871094
sg575
F5.2928924560546875e-05
sg576
I1
sg577
I2
sasS'total_cqs'
p586
I109
ssI56
(dp587
S'iters'
p588
I5
sS'meta'
p589
(lp590
(dp591
S'objective'
p592
I2774
sS'query_time'
p593
F0.09233307838439941
sS'comp_time'
p594
F0.000141143798828125
sS'exec_cq'
p595
I1
sS'total_cq'
p596
I76
sa(dp597
g592
I2494
sg593
F0.3348100185394287
sg594
F0.0001590251922607422
sg595
I2
sg596
I75
sa(dp598
g592
I2318
sg593
F0.3207271099090576
sg594
F0.0001552104949951172
sg595
I4
sg596
I72
sa(dp599
g592
I35
sg593
F0.024441003799438477
sg594
F8.296966552734375e-05
sg595
I1
sg596
I3
sa(dp600
g592
I10
sg593
F0.013655900955200195
sg594
F5.507469177246094e-05
sg595
I1
sg596
I2
sasS'total_cqs'
p601
I76
ssI57
(dp602
S'iters'
p603
I9
sS'meta'
p604
(lp605
(dp606
S'objective'
p607
I1178
sS'query_time'
p608
F1.271003007888794
sS'comp_time'
p609
F0.0001220703125
sS'exec_cq'
p610
I1
sS'total_cq'
p611
I51
sa(dp612
g607
I860
sg608
F0.5936598777770996
sg609
F0.00011897087097167969
sg610
I1
sg611
I49
sa(dp613
g607
I48
sg608
F0.3184220790863037
sg609
F0.00010395050048828125
sg610
I2
sg611
I42
sa(dp614
g607
I126
sg608
F0.2612650394439697
sg609
F9.608268737792969e-05
sg610
I1
sg611
I22
sa(dp615
g607
I91
sg608
F2.6264500617980957
sg609
F9.083747863769531e-05
sg610
I1
sg611
I13
sa(dp616
g607
I109
sg608
F0.12577605247497559
sg609
F0.00014400482177734375
sg610
I1
sg611
I7
sa(dp617
g607
I34
sg608
F0.13567805290222168
sg609
F0.00013494491577148438
sg610
I1
sg611
I6
sa(dp618
g607
I45
sg608
F0.05206799507141113
sg609
F9.107589721679688e-05
sg610
I1
sg611
I3
sa(dp619
g607
I27
sg608
F4.750594854354858
sg609
F9.799003601074219e-05
sg610
I2
sg611
I2
sasS'total_cqs'
p620
I51
ssI58
(dp621
S'iters'
p622
I16
sS'meta'
p623
(lp624
(dp625
S'objective'
p626
I117373
sS'query_time'
p627
F5.42572808265686
sS'comp_time'
p628
F0.0006532669067382812
sS'exec_cq'
p629
I3
sS'total_cq'
p630
I486
sa(dp631
g626
I114975
sg627
F4.04182505607605
sg628
F0.000576019287109375
sg629
I5
sg630
I485
sa(dp632
g626
I114918
sg627
F8.412980079650879
sg628
F0.0009839534759521484
sg629
I6
sg630
I481
sa(dp633
g626
I114713
sg627
F5.418749094009399
sg628
F0.001421213150024414
sg629
I7
sg630
I478
sa(dp634
g626
I110172
sg627
F3.337817907333374
sg628
F0.0007600784301757812
sg629
I7
sg630
I477
sa(dp635
g626
I111093
sg627
F0.6061580181121826
sg628
F0.0005121231079101562
sg629
I8
sg630
I469
sa(dp636
g626
I101331
sg627
F1.895932912826538
sg628
F0.0005350112915039062
sg629
I8
sg630
I467
sa(dp637
g626
I97133
sg627
F1.7401738166809082
sg628
F0.0005249977111816406
sg629
I8
sg630
I446
sa(dp638
g626
I96971
sg627
F0.7099201679229736
sg628
F0.0005550384521484375
sg629
I8
sg630
I426
sa(dp639
g626
I95333
sg627
F1.8674371242523193
sg628
F0.0005428791046142578
sg629
I9
sg630
I414
sa(dp640
g626
I92877
sg627
F4.480330944061279
sg628
F0.0005431175231933594
sg629
I9
sg630
I406
sa(dp641
g626
I90565
sg627
F1.426145076751709
sg628
F0.0005309581756591797
sg629
I10
sg630
I397
sa(dp642
g626
I88792
sg627
F2.0056209564208984
sg628
F0.0003879070281982422
sg629
I11
sg630
I388
sa(dp643
g626
I88805
sg627
F0.6209900379180908
sg628
F0.0016880035400390625
sg629
I11
sg630
I379
sa(dp644
g626
I83
sg627
F0.03686094284057617
sg628
F0.00012803077697753906
sg629
I1
sg630
I3
sa(dp645
g626
I187
sg627
F0.057188987731933594
sg628
F7.891654968261719e-05
sg629
I1
sg630
I2
sasS'total_cqs'
p646
I486
ssI59
(dp647
S'iters'
p648
I2
sS'meta'
p649
(lp650
(dp651
S'objective'
p652
I12
sS'query_time'
p653
F0.016666889190673828
sS'comp_time'
p654
F6.389617919921875e-05
sS'exec_cq'
p655
I1
sS'total_cq'
p656
I7
sa(dp657
g652
I6
sg653
F0.03568005561828613
sg654
F7.796287536621094e-05
sg655
I2
sg656
I2
sasS'total_cqs'
p658
I7
ssI60
(dp659
S'iters'
p660
I1
sS'meta'
p661
(lp662
(dp663
S'objective'
p664
I5
sS'query_time'
p665
F0.0054798126220703125
sS'comp_time'
p666
F6.818771362304688e-05
sS'exec_cq'
p667
I1
sS'total_cq'
p668
I5
sasS'total_cqs'
p669
I5
ssI62
(dp670
S'iters'
p671
I1
sS'meta'
p672
(lp673
(dp674
S'objective'
p675
I58
sS'query_time'
p676
F0.013083934783935547
sS'comp_time'
p677
F6.604194641113281e-05
sS'exec_cq'
p678
I3
sS'total_cq'
p679
I12
sasS'total_cqs'
p680
I12
ssI64
(dp681
S'iters'
p682
I4
sS'meta'
p683
(lp684
(dp685
S'objective'
p686
I54
sS'query_time'
p687
F0.07808995246887207
sS'comp_time'
p688
F8.797645568847656e-05
sS'exec_cq'
p689
I1
sS'total_cq'
p690
I12
sa(dp691
g686
I44
sg687
F0.08859491348266602
sg688
F9.608268737792969e-05
sg689
I1
sg690
I11
sa(dp692
g686
I19
sg687
F0.028700828552246094
sg688
F9.298324584960938e-05
sg689
I1
sg690
I10
sa(dp693
g686
I2
sg687
F0.0020689964294433594
sg688
F5.412101745605469e-05
sg689
I1
sg690
I2
sasS'total_cqs'
p694
I12
ssI65
(dp695
S'iters'
p696
I3
sS'meta'
p697
(lp698
(dp699
S'objective'
p700
I286
sS'query_time'
p701
F0.031154870986938477
sS'comp_time'
p702
F0.00011587142944335938
sS'exec_cq'
p703
I1
sS'total_cq'
p704
I27
sa(dp705
g700
I278
sg701
F0.03416299819946289
sg702
F0.00011229515075683594
sg703
I4
sg704
I25
sa(dp706
g700
I261
sg701
F0.023192882537841797
sg702
F0.00010418891906738281
sg703
I4
sg704
I23
sasS'total_cqs'
p707
I27
ssI67
(dp708
S'iters'
p709
I1
sS'meta'
p710
(lp711
(dp712
S'objective'
p713
I574
sS'query_time'
p714
F0.7909212112426758
sS'comp_time'
p715
F0.00010800361633300781
sS'exec_cq'
p716
I8
sS'total_cq'
p717
I35
sasS'total_cqs'
p718
I35
ssI69
(dp719
S'iters'
p720
I1
sS'meta'
p721
(lp722
(dp723
S'objective'
p724
I1246
sS'query_time'
p725
F0.0984959602355957
sS'comp_time'
p726
F0.00010991096496582031
sS'exec_cq'
p727
I12
sS'total_cq'
p728
I51
sasS'total_cqs'
p729
I51
ssI70
(dp730
S'iters'
p731
I1
sS'meta'
p732
(lp733
(dp734
S'objective'
p735
I9
sS'query_time'
p736
F0.008877992630004883
sS'comp_time'
p737
F6.794929504394531e-05
sS'exec_cq'
p738
I1
sS'total_cq'
p739
I6
sasS'total_cqs'
p740
I6
ssI71
(dp741
S'iters'
p742
I3
sS'meta'
p743
(lp744
(dp745
S'objective'
p746
I3487
sS'query_time'
p747
F0.11448407173156738
sS'comp_time'
p748
F0.0001609325408935547
sS'exec_cq'
p749
I2
sS'total_cq'
p750
I85
sa(dp751
g746
I3327
sg747
F0.09283804893493652
sg748
F0.00015807151794433594
sg749
I2
sg750
I84
sa(dp752
g746
I3319
sg747
F0.0799720287322998
sg748
F0.00015735626220703125
sg749
I19
sg750
I82
sasS'total_cqs'
p753
I85
ssI72
(dp754
S'iters'
p755
I2
sS'meta'
p756
(lp757
(dp758
S'objective'
p759
I8
sS'query_time'
p760
F0.05740213394165039
sS'comp_time'
p761
F8.797645568847656e-05
sS'exec_cq'
p762
I1
sS'total_cq'
p763
I8
sa(dp764
g759
I8
sg760
F0.007050037384033203
sg761
F7.295608520507812e-05
sg762
I1
sg763
I6
sasS'total_cqs'
p765
I8
ssI75
(dp766
S'iters'
p767
I1
sS'meta'
p768
(lp769
(dp770
S'objective'
p771
I5
sS'query_time'
p772
F0.005068063735961914
sS'comp_time'
p773
F9.989738464355469e-05
sS'exec_cq'
p774
I1
sS'total_cq'
p775
I5
sasS'total_cqs'
p776
I5
ssI76
(dp777
S'iters'
p778
I1
sS'meta'
p779
(lp780
(dp781
S'objective'
p782
I1
sS'query_time'
p783
F0.008537054061889648
sS'comp_time'
p784
F5.4836273193359375e-05
sS'exec_cq'
p785
I1
sS'total_cq'
p786
I2
sasS'total_cqs'
p787
I2
ssI103
(dp788
S'iters'
p789
I1
sS'meta'
p790
(lp791
(dp792
S'objective'
p793
I58
sS'query_time'
p794
F0.03566098213195801
sS'comp_time'
p795
F8.487701416015625e-05
sS'exec_cq'
p796
I3
sS'total_cq'
p797
I12
sasS'total_cqs'
p798
I12
ssI104
(dp799
S'iters'
p800
I1
sS'meta'
p801
(lp802
(dp803
S'objective'
p804
I2
sS'query_time'
p805
F1.2524938583374023
sS'comp_time'
p806
F7.104873657226562e-05
sS'exec_cq'
p807
I1
sS'total_cq'
p808
I4
sasS'total_cqs'
p809
I4
ssI106
(dp810
S'iters'
p811
I1
sS'meta'
p812
(lp813
(dp814
S'objective'
p815
I2
sS'query_time'
p816
F0.01376199722290039
sS'comp_time'
p817
F8.082389831542969e-05
sS'exec_cq'
p818
I1
sS'total_cq'
p819
I4
sasS'total_cqs'
p820
I4
ssI107
(dp821
S'iters'
p822
I2
sS'meta'
p823
(lp824
(dp825
S'objective'
p826
I60
sS'query_time'
p827
F0.022674083709716797
sS'comp_time'
p828
F9.822845458984375e-05
sS'exec_cq'
p829
I1
sS'total_cq'
p830
I16
sa(dp831
g826
I12
sg827
F0.031746864318847656
sg828
F9.775161743164062e-05
sg829
I2
sg830
I3
sasS'total_cqs'
p832
I16
ss.