(dp0
I1
(dp1
S'iters'
p2
I2
sS'meta'
p3
(lp4
(dp5
S'objective'
p6
I36
sS'query_time'
p7
F0.05386209487915039
sS'comp_time'
p8
F0.01925945281982422
sS'exec_cq'
p9
I12
sS'total_cq'
p10
I12
sa(dp11
g6
I37
sg7
F6.699562072753906e-05
sg8
F0.0001678466796875
sg9
I10
sg10
I10
sasS'total_cqs'
p12
I12
ssI2
(dp13
S'iters'
p14
I4
sS'meta'
p15
(lp16
(dp17
S'objective'
p18
I272
sS'query_time'
p19
F0.12076926231384277
sS'comp_time'
p20
F0.048868417739868164
sS'exec_cq'
p21
I27
sS'total_cq'
p22
I27
sa(dp23
g18
I229
sg19
F0.00021195411682128906
sg20
F0.0007340908050537109
sg21
I23
sg22
I23
sa(dp24
g18
I209
sg19
F0.00013303756713867188
sg20
F0.0004286766052246094
sg21
I20
sg22
I20
sa(dp25
g18
I199
sg19
F0.00012731552124023438
sg20
F0.00038933753967285156
sg21
I18
sg22
I18
sasS'total_cqs'
p26
I27
ssI3
(dp27
S'iters'
p28
I4
sS'meta'
p29
(lp30
(dp31
S'objective'
p32
I616
sS'query_time'
p33
F228.80087399482727
sS'comp_time'
p34
F2.3540940284729004
sS'exec_cq'
p35
I39
sS'total_cq'
p36
I43
sa(dp37
g32
I495
sg33
F0.5784609317779541
sg34
F2.256028175354004
sg35
I31
sg36
I35
sa(dp38
g32
I434
sg33
F0.19393086433410645
sg34
F0.2942538261413574
sg35
I24
sg36
I28
sa(dp39
g32
I468
sg33
F11.492827415466309
sg34
F0.00019288063049316406
sg35
I25
sg36
I25
sasS'total_cqs'
p40
I43
ssI4
(dp41
S'iters'
p42
I2
sS'meta'
p43
(lp44
(dp45
S'objective'
p46
I30
sS'query_time'
p47
F4.840072870254517
sS'comp_time'
p48
F0.4010932445526123
sS'exec_cq'
p49
I11
sS'total_cq'
p50
I11
sa(dp51
g46
I2
sg47
F0.21206092834472656
sg48
F0.31682443618774414
sg49
I2
sg50
I2
sasS'total_cqs'
p52
I11
ssI5
(dp53
S'iters'
p54
I3
sS'meta'
p55
(lp56
(dp57
S'objective'
p58
I0
sS'query_time'
p59
F34.23531198501587
sS'comp_time'
p60
F3.4822018146514893
sS'exec_cq'
p61
I8
sS'total_cq'
p62
I8
sa(dp63
g58
I2
sg59
F0.09493899345397949
sg60
F0.5499441623687744
sg61
I3
sg62
I3
sa(dp64
g58
I4
sg59
F0.01076197624206543
sg60
F0.017915010452270508
sg61
I2
sg62
I2
sasS'total_cqs'
p65
I8
ssI6
(dp66
S'iters'
p67
I4
sS'meta'
p68
(lp69
(dp70
S'objective'
p71
I31
sS'query_time'
p72
F37.50217604637146
sS'comp_time'
p73
F1.5633432865142822
sS'exec_cq'
p74
I18
sS'total_cq'
p75
I18
sa(dp76
g71
I0
sg72
F0.6668260097503662
sg73
F2.73183274269104
sg74
I7
sg75
I7
sa(dp77
g71
I1
sg72
F0.50235915184021
sg73
F1.1279377937316895
sg74
I3
sg75
I3
sa(dp78
g71
I12
sg72
F0.4039738178253174
sg73
F0.861605167388916
sg74
I2
sg75
I2
sasS'total_cqs'
p79
I18
ssI7
(dp80
S'iters'
p81
I3
sS'meta'
p82
(lp83
(dp84
S'objective'
p85
I1
sS'query_time'
p86
F13.307299852371216
sS'comp_time'
p87
F1.3928136825561523
sS'exec_cq'
p88
I9
sS'total_cq'
p89
I9
sa(dp90
g85
I0
sg86
F0.08626580238342285
sg87
F0.5432665348052979
sg88
I4
sg89
I4
sa(dp91
g85
I5
sg86
F0.004147052764892578
sg87
F0.005692720413208008
sg88
I2
sg89
I2
sasS'total_cqs'
p92
I9
ssI8
(dp93
S'iters'
p94
I3
sS'meta'
p95
(lp96
(dp97
S'objective'
p98
I224
sS'query_time'
p99
F0.16972017288208008
sS'comp_time'
p100
F0.03361701965332031
sS'exec_cq'
p101
I27
sS'total_cq'
p102
I27
sa(dp103
g98
I193
sg99
F0.00021600723266601562
sg100
F0.0008308887481689453
sg101
I24
sg102
I24
sa(dp104
g98
I203
sg99
F0.00010395050048828125
sg100
F0.0002758502960205078
sg101
I19
sg102
I19
sasS'total_cqs'
p105
I27
ssI9
(dp106
S'iters'
p107
I3
sS'meta'
p108
(lp109
(dp110
S'objective'
p111
I8
sS'query_time'
p112
F0.05731511116027832
sS'comp_time'
p113
F0.004979848861694336
sS'exec_cq'
p114
I7
sS'total_cq'
p115
I7
sa(dp116
g111
I2
sg112
F0.0014390945434570312
sg113
F0.0006051063537597656
sg114
I5
sg115
I5
sa(dp117
g111
I4
sg112
F2.9087066650390625e-05
sg113
F0.00015473365783691406
sg114
I3
sg115
I3
sasS'total_cqs'
p118
I7
ssI10
(dp119
S'iters'
p120
I5
sS'meta'
p121
(lp122
(dp123
S'objective'
p124
I506
sS'query_time'
p125
F0.38564085960388184
sS'comp_time'
p126
F0.08257484436035156
sS'exec_cq'
p127
I51
sS'total_cq'
p128
I51
sa(dp129
g124
I160
sg125
F0.000308990478515625
sg126
F0.0025429725646972656
sg127
I23
sg128
I37
sa(dp130
g124
I12
sg125
F0.0018019676208496094
sg126
F0.005578279495239258
sg127
I12
sg128
I12
sa(dp131
g124
I29
sg125
F7.104873657226562e-05
sg126
F0.0007288455963134766
sg127
I6
sg128
I6
sa(dp132
g124
I3
sg125
F2.09808349609375e-05
sg126
F0.000125885009765625
sg127
I3
sg128
I3
sasS'total_cqs'
p133
I51
ssI11
(dp134
S'iters'
p135
I5
sS'meta'
p136
(lp137
(dp138
S'objective'
p139
I1022
sS'query_time'
p140
F0.5837910175323486
sS'comp_time'
p141
F0.16422605514526367
sS'exec_cq'
p142
I63
sS'total_cq'
p143
I63
sa(dp144
g139
I899
sg140
F0.0013239383697509766
sg141
F0.005113124847412109
sg142
I47
sg143
I47
sa(dp145
g139
I12
sg140
F0.001806020736694336
sg141
F0.002574443817138672
sg142
I9
sg143
I9
sa(dp146
g139
I45
sg140
F3.504753112792969e-05
sg141
F0.0002357959747314453
sg142
I4
sg143
I4
sa(dp147
g139
I1
sg140
F2.8133392333984375e-05
sg141
F0.00021719932556152344
sg142
I3
sg143
I3
sasS'total_cqs'
p148
I63
ssI12
(dp149
S'iters'
p150
I5
sS'meta'
p151
(lp152
(dp153
S'objective'
p154
I543
sS'query_time'
p155
F0.3903617858886719
sS'comp_time'
p156
F0.09226083755493164
sS'exec_cq'
p157
I50
sS'total_cq'
p158
I50
sa(dp159
g154
I379
sg155
F0.0004589557647705078
sg156
F0.0026111602783203125
sg157
I22
sg158
I33
sa(dp160
g154
I3
sg155
F0.0015330314636230469
sg156
F0.0015578269958496094
sg157
I8
sg158
I8
sa(dp161
g154
I30
sg155
F4.9114227294921875e-05
sg156
F0.0002791881561279297
sg157
I5
sg158
I5
sa(dp162
g154
I4
sg155
F2.2172927856445312e-05
sg156
F0.00010704994201660156
sg157
I2
sg158
I2
sasS'total_cqs'
p163
I50
ssI13
(dp164
S'iters'
p165
I3
sS'meta'
p166
(lp167
(dp168
S'objective'
p169
I26
sS'query_time'
p170
F0.14404797554016113
sS'comp_time'
p171
F0.04410433769226074
sS'exec_cq'
p172
I20
sS'total_cq'
p173
I20
sa(dp174
g169
I42
sg170
F6.198883056640625e-05
sg171
F0.00045037269592285156
sg172
I9
sg173
I9
sa(dp175
g169
I7
sg170
F0.0016560554504394531
sg171
F0.00019311904907226562
sg172
I2
sg173
I2
sasS'total_cqs'
p176
I20
ssI14
(dp177
S'iters'
p178
I3
sS'meta'
p179
(lp180
(dp181
S'objective'
p182
I1
sS'query_time'
p183
F32.2825231552124
sS'comp_time'
p184
F1.8282890319824219
sS'exec_cq'
p185
I9
sS'total_cq'
p186
I9
sa(dp187
g182
I1
sg183
F0.08219504356384277
sg184
F0.5509412288665771
sg185
I5
sg186
I5
sa(dp188
g182
I5
sg183
F0.00836491584777832
sg184
F0.011244773864746094
sg185
I2
sg186
I2
sasS'total_cqs'
p189
I9
ssI15
(dp190
S'iters'
p191
I3
sS'meta'
p192
(lp193
(dp194
S'objective'
p195
I0
sS'query_time'
p196
F3.8325750827789307
sS'comp_time'
p197
F0.09433293342590332
sS'exec_cq'
p198
I11
sS'total_cq'
p199
I11
sa(dp200
g195
I1
sg196
F0.04311490058898926
sg197
F0.18024730682373047
sg198
I5
sg199
I5
sa(dp201
g195
I3
sg196
F0.027451038360595703
sg197
F0.02914595603942871
sg198
I3
sg199
I3
sasS'total_cqs'
p202
I11
ssI16
(dp203
S'iters'
p204
I1
sS'meta'
p205
(lp206
(dp207
S'objective'
p208
I22
sS'query_time'
p209
F0.024969100952148438
sS'comp_time'
p210
F0.004621028900146484
sS'exec_cq'
p211
I8
sS'total_cq'
p212
I8
sasS'total_cqs'
p213
I8
ssI17
(dp214
S'iters'
p215
I3
sS'meta'
p216
(lp217
(dp218
S'objective'
p219
I0
sS'query_time'
p220
F0.9124069213867188
sS'comp_time'
p221
F0.027463912963867188
sS'exec_cq'
p222
I11
sS'total_cq'
p223
I11
sa(dp224
g219
I3
sg220
F0.005666017532348633
sg221
F0.008204936981201172
sg222
I7
sg223
I7
sa(dp225
g219
I2
sg220
F0.0028810501098632812
sg221
F0.004948139190673828
sg222
I2
sg223
I2
sasS'total_cqs'
p226
I11
ssI18
(dp227
S'iters'
p228
I2
sS'meta'
p229
(lp230
(dp231
S'objective'
p232
I42
sS'query_time'
p233
F0.25267624855041504
sS'comp_time'
p234
F0.03718161582946777
sS'exec_cq'
p235
I11
sS'total_cq'
p236
I11
sa(dp237
g232
I34
sg233
F0.0002620220184326172
sg234
F0.0004639625549316406
sg235
I7
sg236
I8
sasS'total_cqs'
p238
I11
ssI19
(dp239
S'iters'
p240
I0
sS'meta'
p241
(lp242
sS'total_cqs'
p243
I1
ssI20
(dp244
S'iters'
p245
I0
sS'meta'
p246
(lp247
sS'total_cqs'
p248
I1
ssI21
(dp249
S'iters'
p250
I0
sS'meta'
p251
(lp252
sS'total_cqs'
p253
I1
ssI22
(dp254
S'iters'
p255
I1
sS'meta'
p256
(lp257
(dp258
S'objective'
p259
I141
sS'query_time'
p260
F0.05430006980895996
sS'comp_time'
p261
F0.0288541316986084
sS'exec_cq'
p262
I18
sS'total_cq'
p263
I18
sasS'total_cqs'
p264
I18
ssI23
(dp265
S'iters'
p266
I1
sS'meta'
p267
(lp268
(dp269
S'objective'
p270
I110
sS'query_time'
p271
F0.0740969181060791
sS'comp_time'
p272
F0.023511171340942383
sS'exec_cq'
p273
I16
sS'total_cq'
p274
I16
sasS'total_cqs'
p275
I16
ssI24
(dp276
S'iters'
p277
I0
sS'meta'
p278
(lp279
sS'total_cqs'
p280
I1
ssI25
(dp281
S'iters'
p282
I0
sS'meta'
p283
(lp284
sS'total_cqs'
p285
I1
ssI26
(dp286
S'iters'
p287
I1
sS'meta'
p288
(lp289
(dp290
S'objective'
p291
I837
sS'query_time'
p292
F0.1376662254333496
sS'comp_time'
p293
F0.1235799789428711
sS'exec_cq'
p294
I42
sS'total_cq'
p295
I42
sasS'total_cqs'
p296
I42
ssI27
(dp297
S'iters'
p298
I3
sS'meta'
p299
(lp300
(dp301
S'objective'
p302
I287
sS'query_time'
p303
F22.278189182281494
sS'comp_time'
p304
F2.308669328689575
sS'exec_cq'
p305
I30
sS'total_cq'
p306
I30
sa(dp307
g302
I9
sg303
F0.5464699268341064
sg304
F1.5480101108551025
sg305
I5
sg306
I5
sa(dp308
g302
I1
sg303
F0.4736061096191406
sg304
F0.9819488525390625
sg305
I2
sg306
I2
sasS'total_cqs'
p309
I30
ssI28
(dp310
S'iters'
p311
I0
sS'meta'
p312
(lp313
sS'total_cqs'
p314
I1
ssI29
(dp315
S'iters'
p316
I5
sS'meta'
p317
(lp318
(dp319
S'objective'
p320
I269
sS'query_time'
p321
F26.475964069366455
sS'comp_time'
p322
F0.49965524673461914
sS'exec_cq'
p323
I35
sS'total_cq'
p324
I49
sa(dp325
g320
I16
sg321
F0.06649994850158691
sg322
F0.48894715309143066
sg323
I17
sg324
I17
sa(dp326
g320
I7
sg321
F0.2874000072479248
sg322
F0.7797191143035889
sg323
I9
sg324
I9
sa(dp327
g320
I30
sg321
F0.008362054824829102
sg322
F0.010064840316772461
sg323
I3
sg324
I3
sa(dp328
g320
I1
sg321
F0.0026679039001464844
sg322
F0.0032999515533447266
sg323
I2
sg324
I2
sasS'total_cqs'
p329
I49
ssI30
(dp330
S'iters'
p331
I1
sS'meta'
p332
(lp333
(dp334
S'objective'
p335
I1
sS'query_time'
p336
F0.7539098262786865
sS'comp_time'
p337
F0.012063026428222656
sS'exec_cq'
p338
I2
sS'total_cq'
p339
I2
sasS'total_cqs'
p340
I2
ssI31
(dp341
S'iters'
p342
I0
sS'meta'
p343
(lp344
sS'total_cqs'
p345
I1
ssI32
(dp346
S'iters'
p347
I1
sS'meta'
p348
(lp349
(dp350
S'objective'
p351
I1
sS'query_time'
p352
F0.014449119567871094
sS'comp_time'
p353
F0.0020232200622558594
sS'exec_cq'
p354
I2
sS'total_cq'
p355
I2
sasS'total_cqs'
p356
I2
ssI33
(dp357
S'iters'
p358
I5
sS'meta'
p359
(lp360
(dp361
S'objective'
p362
I3648
sS'query_time'
p363
F16.717936038970947
sS'comp_time'
p364
F0.8921329975128174
sS'exec_cq'
p365
I103
sS'total_cq'
p366
I103
sa(dp367
g362
I4
sg363
F0.008083105087280273
sg364
F0.08211088180541992
sg365
I16
sg366
I16
sa(dp368
g362
I7
sg363
F0.00394892692565918
sg364
F0.021054744720458984
sg365
I10
sg366
I10
sa(dp369
g362
I0
sg363
F0.0009350776672363281
sg364
F0.0019998550415039062
sg365
I6
sg366
I6
sa(dp370
g362
I49
sg363
F0.0004010200500488281
sg364
F0.0009315013885498047
sg365
I3
sg366
I3
sasS'total_cqs'
p371
I103
ssI34
(dp372
S'iters'
p373
I1
sS'meta'
p374
(lp375
(dp376
S'objective'
p377
I1
sS'query_time'
p378
F0.026636123657226562
sS'comp_time'
p379
F0.001756906509399414
sS'exec_cq'
p380
I2
sS'total_cq'
p381
I2
sasS'total_cqs'
p382
I2
ssI35
(dp383
S'iters'
p384
I4
sS'meta'
p385
(lp386
(dp387
S'objective'
p388
I1391
sS'query_time'
p389
F68.24438810348511
sS'comp_time'
p390
F2.608450174331665
sS'exec_cq'
p391
I70
sS'total_cq'
p392
I70
sa(dp393
g388
I53
sg389
F0.0048329830169677734
sg390
F0.017145156860351562
sg391
I16
sg392
I16
sa(dp394
g388
I5
sg389
F0.001611948013305664
sg390
F0.005201816558837891
sg391
I7
sg392
I7
sa(dp395
g388
I13
sg389
F0.00029015541076660156
sg390
F0.00067901611328125
sg391
I2
sg392
I2
sasS'total_cqs'
p396
I70
ssI36
(dp397
S'iters'
p398
I4
sS'meta'
p399
(lp400
(dp401
S'objective'
p402
I349
sS'query_time'
p403
F0.7275433540344238
sS'comp_time'
p404
F0.16518783569335938
sS'exec_cq'
p405
I33
sS'total_cq'
p406
I33
sa(dp407
g402
I319
sg403
F0.0072710514068603516
sg404
F0.017041444778442383
sg405
I29
sg406
I29
sa(dp408
g402
I329
sg403
F0.015272140502929688
sg404
F0.0044138431549072266
sg405
I25
sg406
I25
sa(dp409
g402
I306
sg403
F0.0017039775848388672
sg404
F0.0018229484558105469
sg405
I24
sg406
I24
sasS'total_cqs'
p410
I33
ssI37
(dp411
S'iters'
p412
I1
sS'meta'
p413
(lp414
(dp415
S'objective'
p416
I1
sS'query_time'
p417
F0.010683059692382812
sS'comp_time'
p418
F0.0010828971862792969
sS'exec_cq'
p419
I2
sS'total_cq'
p420
I2
sasS'total_cqs'
p421
I2
ssI38
(dp422
S'iters'
p423
I2
sS'meta'
p424
(lp425
(dp426
S'objective'
p427
I0
sS'query_time'
p428
F0.030688047409057617
sS'comp_time'
p429
F0.003469228744506836
sS'exec_cq'
p430
I4
sS'total_cq'
p431
I4
sa(dp432
g427
I3
sg428
F9.393692016601562e-05
sg429
F0.00019931793212890625
sg430
I2
sg431
I2
sasS'total_cqs'
p433
I4
ssI39
(dp434
S'iters'
p435
I2
sS'meta'
p436
(lp437
(dp438
S'objective'
p439
I774
sS'query_time'
p440
F0.1417100429534912
sS'comp_time'
p441
F0.1624751091003418
sS'exec_cq'
p442
I44
sS'total_cq'
p443
I44
sa(dp444
g439
I814
sg440
F0.00031304359436035156
sg441
F0.0008809566497802734
sg442
I37
sg443
I37
sasS'total_cqs'
p445
I44
ssI40
(dp446
S'iters'
p447
I1
sS'meta'
p448
(lp449
(dp450
S'objective'
p451
I14
sS'query_time'
p452
F0.030858993530273438
sS'comp_time'
p453
F0.005659580230712891
sS'exec_cq'
p454
I7
sS'total_cq'
p455
I7
sasS'total_cqs'
p456
I7
ssI41
(dp457
S'iters'
p458
I1
sS'meta'
p459
(lp460
(dp461
S'objective'
p462
I58
sS'query_time'
p463
F0.08167910575866699
sS'comp_time'
p464
F0.01583242416381836
sS'exec_cq'
p465
I12
sS'total_cq'
p466
I12
sasS'total_cqs'
p467
I12
ssI42
(dp468
S'iters'
p469
I1
sS'meta'
p470
(lp471
(dp472
S'objective'
p473
I797
sS'query_time'
p474
F0.10191082954406738
sS'comp_time'
p475
F0.09661531448364258
sS'exec_cq'
p476
I41
sS'total_cq'
p477
I41
sasS'total_cqs'
p478
I41
ssI43
(dp479
S'iters'
p480
I1
sS'meta'
p481
(lp482
(dp483
S'objective'
p484
I14
sS'query_time'
p485
F0.04181694984436035
sS'comp_time'
p486
F0.005593776702880859
sS'exec_cq'
p487
I7
sS'total_cq'
p488
I7
sasS'total_cqs'
p489
I7
ssI44
(dp490
S'iters'
p491
I4
sS'meta'
p492
(lp493
(dp494
S'objective'
p495
I822
sS'query_time'
p496
F0.1361401081085205
sS'comp_time'
p497
F0.15544891357421875
sS'exec_cq'
p498
I47
sS'total_cq'
p499
I47
sa(dp500
g495
I861
sg496
F0.0003139972686767578
sg497
F0.0011858940124511719
sg498
I40
sg499
I40
sa(dp501
g495
I35
sg496
F0.0012159347534179688
sg497
F0.0015289783477783203
sg498
I3
sg499
I3
sa(dp502
g495
I28
sg496
F0.00011301040649414062
sg497
F0.0002491474151611328
sg498
I2
sg499
I2
sasS'total_cqs'
p503
I47
ssI45
(dp504
S'iters'
p505
I0
sS'meta'
p506
(lp507
sS'total_cqs'
p508
I1
ssI46
(dp509
S'iters'
p510
I1
sS'meta'
p511
(lp512
(dp513
S'objective'
p514
I9
sS'query_time'
p515
F0.016003131866455078
sS'comp_time'
p516
F0.002501964569091797
sS'exec_cq'
p517
I4
sS'total_cq'
p518
I6
sasS'total_cqs'
p519
I6
ssI47
(dp520
S'iters'
p521
I1
sS'meta'
p522
(lp523
(dp524
S'objective'
p525
I1
sS'query_time'
p526
F0.011305809020996094
sS'comp_time'
p527
F0.00164794921875
sS'exec_cq'
p528
I2
sS'total_cq'
p529
I2
sasS'total_cqs'
p530
I2
ssI48
(dp531
S'iters'
p532
I0
sS'meta'
p533
(lp534
sS'total_cqs'
p535
I1
ssI49
(dp536
S'iters'
p537
I0
sS'meta'
p538
(lp539
sS'total_cqs'
p540
I1
ssI50
(dp541
S'iters'
p542
I1
sS'meta'
p543
(lp544
(dp545
S'objective'
p546
I5
sS'query_time'
p547
F0.0887441635131836
sS'comp_time'
p548
F0.0034101009368896484
sS'exec_cq'
p549
I5
sS'total_cq'
p550
I5
sasS'total_cqs'
p551
I5
ssI51
(dp552
S'iters'
p553
I1
sS'meta'
p554
(lp555
(dp556
S'objective'
p557
I1
sS'query_time'
p558
F0.014738082885742188
sS'comp_time'
p559
F0.0014729499816894531
sS'exec_cq'
p560
I2
sS'total_cq'
p561
I2
sasS'total_cqs'
p562
I2
ssI52
(dp563
S'iters'
p564
I1
sS'meta'
p565
(lp566
(dp567
S'objective'
p568
I1
sS'query_time'
p569
F0.024213075637817383
sS'comp_time'
p570
F0.0010828971862792969
sS'exec_cq'
p571
I2
sS'total_cq'
p572
I2
sasS'total_cqs'
p573
I2
ssI53
(dp574
S'iters'
p575
I1
sS'meta'
p576
(lp577
(dp578
S'objective'
p579
I2
sS'query_time'
p580
F0.021498918533325195
sS'comp_time'
p581
F0.0025093555450439453
sS'exec_cq'
p582
I4
sS'total_cq'
p583
I4
sasS'total_cqs'
p584
I4
ssI54
(dp585
S'iters'
p586
I2
sS'meta'
p587
(lp588
(dp589
S'objective'
p590
I0
sS'query_time'
p591
F0.011764049530029297
sS'comp_time'
p592
F0.0016810894012451172
sS'exec_cq'
p593
I3
sS'total_cq'
p594
I3
sa(dp595
g590
I1
sg591
F4.601478576660156e-05
sg592
F0.00013113021850585938
sg593
I2
sg594
I2
sasS'total_cqs'
p596
I3
ssI55
(dp597
S'iters'
p598
I8
sS'meta'
p599
(lp600
(dp601
S'objective'
p602
I4981
sS'query_time'
p603
F2.375058174133301
sS'comp_time'
p604
F0.6408407688140869
sS'exec_cq'
p605
I109
sS'total_cq'
p606
I109
sa(dp607
g602
I4836
sg603
F0.0011210441589355469
sg604
F0.0047550201416015625
sg605
I97
sg606
I97
sa(dp608
g602
I4596
sg603
F0.00043082237243652344
sg604
F0.0017826557159423828
sg605
I91
sg606
I91
sa(dp609
g602
I4579
sg603
F0.0004100799560546875
sg604
F0.0014081001281738281
sg605
I87
sg606
I87
sa(dp610
g602
I4475
sg603
F0.0004050731658935547
sg604
F0.0010991096496582031
sg605
I85
sg606
I85
sa(dp611
g602
I4394
sg603
F0.0003590583801269531
sg604
F0.0008912086486816406
sg605
I83
sg606
I83
sa(dp612
g602
I4322
sg603
F0.00032210350036621094
sg604
F0.0006110668182373047
sg605
I81
sg606
I81
sa(dp613
g602
I4244
sg603
F0.00035500526428222656
sg604
F0.0004911422729492188
sg605
I80
sg606
I80
sasS'total_cqs'
p614
I109
ssI56
(dp615
S'iters'
p616
I5
sS'meta'
p617
(lp618
(dp619
S'objective'
p620
I1530
sS'query_time'
p621
F1.5663769245147705
sS'comp_time'
p622
F0.32759594917297363
sS'exec_cq'
p623
I67
sS'total_cq'
p624
I76
sa(dp625
g620
I28
sg621
F0.007094860076904297
sg622
F0.0704798698425293
sg623
I16
sg624
I16
sa(dp626
g620
I31
sg621
F0.0006508827209472656
sg622
F0.003551959991455078
sg623
I7
sg624
I7
sa(dp627
g620
I5
sg621
F0.0003790855407714844
sg622
F0.0014221668243408203
sg623
I4
sg624
I4
sa(dp628
g620
I20
sg621
F0.00021004676818847656
sg622
F0.0004992485046386719
sg623
I2
sg624
I2
sasS'total_cqs'
p629
I76
ssI57
(dp630
S'iters'
p631
I5
sS'meta'
p632
(lp633
(dp634
S'objective'
p635
I288
sS'query_time'
p636
F24.511733055114746
sS'comp_time'
p637
F0.16913604736328125
sS'exec_cq'
p638
I45
sS'total_cq'
p639
I51
sa(dp640
g635
I141
sg636
F0.02601003646850586
sg637
F0.04451704025268555
sg638
I31
sg639
I31
sa(dp641
g635
I3
sg636
F0.011459827423095703
sg637
F0.08130955696105957
sg638
I12
sg639
I12
sa(dp642
g635
I2
sg636
F0.0038480758666992188
sg637
F0.004870891571044922
sg638
I6
sg639
I6
sa(dp643
g635
I5
sg636
F0.0010979175567626953
sg637
F0.0012180805206298828
sg638
I3
sg639
I3
sasS'total_cqs'
p644
I51
ssI58
(dp645
S'iters'
p646
I7
sS'meta'
p647
(lp648
(dp649
S'objective'
p650
I84217
sS'query_time'
p651
F323.53825211524963
sS'comp_time'
p652
F25.740203857421875
sS'exec_cq'
p653
I486
sS'total_cq'
p654
I486
sa(dp655
g650
I87179
sg651
F5.486103773117065
sg652
F9.351577520370483
sg653
I414
sg654
I414
sa(dp656
g650
I12
sg651
F0.02836918830871582
sg652
F0.18399333953857422
sg653
I28
sg654
I28
sa(dp657
g650
I7
sg651
F0.012217998504638672
sg652
F1.5668108463287354
sg653
I15
sg654
I15
sa(dp658
g650
I25
sg651
F0.005629062652587891
sg652
F0.05722999572753906
sg653
I9
sg654
I9
sa(dp659
g650
I24
sg651
F0.0015778541564941406
sg652
F0.0023870468139648438
sg653
I5
sg654
I5
sa(dp660
g650
I284
sg651
F0.0012860298156738281
sg652
F0.0016560554504394531
sg653
I3
sg654
I3
sasS'total_cqs'
p661
I486
ssI59
(dp662
S'iters'
p663
I2
sS'meta'
p664
(lp665
(dp666
S'objective'
p667
I8
sS'query_time'
p668
F0.06493592262268066
sS'comp_time'
p669
F0.0065097808837890625
sS'exec_cq'
p670
I7
sS'total_cq'
p671
I7
sa(dp672
g667
I4
sg668
F0.0003941059112548828
sg669
F0.0004119873046875
sg670
I2
sg671
I2
sasS'total_cqs'
p673
I7
ssI60
(dp674
S'iters'
p675
I1
sS'meta'
p676
(lp677
(dp678
S'objective'
p679
I5
sS'query_time'
p680
F0.019932031631469727
sS'comp_time'
p681
F0.0033528804779052734
sS'exec_cq'
p682
I4
sS'total_cq'
p683
I5
sasS'total_cqs'
p684
I5
ssI61
(dp685
S'iters'
p686
I0
sS'meta'
p687
(lp688
sS'total_cqs'
p689
I1
ssI62
(dp690
S'iters'
p691
I2
sS'meta'
p692
(lp693
(dp694
S'objective'
p695
I40
sS'query_time'
p696
F0.029562950134277344
sS'comp_time'
p697
F0.07985782623291016
sS'exec_cq'
p698
I12
sS'total_cq'
p699
I12
sa(dp700
g695
I39
sg696
F4.291534423828125e-05
sg697
F0.00015044212341308594
sg698
I9
sg699
I9
sasS'total_cqs'
p701
I12
ssI63
(dp702
S'iters'
p703
I0
sS'meta'
p704
(lp705
sS'total_cqs'
p706
I1
ssI64
(dp707
S'iters'
p708
I3
sS'meta'
p709
(lp710
(dp711
S'objective'
p712
I6
sS'query_time'
p713
F0.13411283493041992
sS'comp_time'
p714
F0.01987767219543457
sS'exec_cq'
p715
I12
sS'total_cq'
p716
I12
sa(dp717
g712
I4
sg713
F9.799003601074219e-05
sg714
F0.0007100105285644531
sg715
I4
sg716
I4
sa(dp718
g712
I4
sg713
F2.5987625122070312e-05
sg714
F0.00011396408081054688
sg715
I2
sg716
I2
sasS'total_cqs'
p719
I12
ssI65
(dp720
S'iters'
p721
I4
sS'meta'
p722
(lp723
(dp724
S'objective'
p725
I100
sS'query_time'
p726
F0.9245500564575195
sS'comp_time'
p727
F0.06305670738220215
sS'exec_cq'
p728
I27
sS'total_cq'
p729
I27
sa(dp730
g725
I3
sg726
F0.0018930435180664062
sg727
F0.0039408206939697266
sg728
I7
sg729
I7
sa(dp731
g725
I16
sg726
F0.0006549358367919922
sg727
F0.0011281967163085938
sg728
I3
sg729
I3
sa(dp732
g725
I2
sg726
F0.0002779960632324219
sg727
F0.0005838871002197266
sg728
I2
sg729
I2
sasS'total_cqs'
p733
I27
ssI66
(dp734
S'iters'
p735
I0
sS'meta'
p736
(lp737
sS'total_cqs'
p738
I1
ssI67
(dp739
S'iters'
p740
I2
sS'meta'
p741
(lp742
(dp743
S'objective'
p744
I508
sS'query_time'
p745
F1.078218936920166
sS'comp_time'
p746
F0.0840456485748291
sS'exec_cq'
p747
I35
sS'total_cq'
p748
I35
sa(dp749
g744
I5
sg745
F0.0010581016540527344
sg746
F0.002385854721069336
sg747
I2
sg748
I2
sasS'total_cqs'
p750
I35
ssI68
(dp751
S'iters'
p752
I0
sS'meta'
p753
(lp754
sS'total_cqs'
p755
I1
ssI69
(dp756
S'iters'
p757
I1
sS'meta'
p758
(lp759
(dp760
S'objective'
p761
I1246
sS'query_time'
p762
F0.18313002586364746
sS'comp_time'
p763
F0.2014319896697998
sS'exec_cq'
p764
I51
sS'total_cq'
p765
I51
sasS'total_cqs'
p766
I51
ssI70
(dp767
S'iters'
p768
I1
sS'meta'
p769
(lp770
(dp771
S'objective'
p772
I9
sS'query_time'
p773
F0.02380514144897461
sS'comp_time'
p774
F0.0026628971099853516
sS'exec_cq'
p775
I6
sS'total_cq'
p776
I6
sasS'total_cqs'
p777
I6
ssI71
(dp778
S'iters'
p779
I3
sS'meta'
p780
(lp781
(dp782
S'objective'
p783
I3125
sS'query_time'
p784
F0.31928515434265137
sS'comp_time'
p785
F0.3396008014678955
sS'exec_cq'
p786
I85
sS'total_cq'
p787
I85
sa(dp788
g783
I3074
sg784
F0.00031185150146484375
sg785
F0.001123666763305664
sg786
I81
sg787
I81
sa(dp789
g783
I28
sg784
F0.002017974853515625
sg785
F0.003509044647216797
sg786
I3
sg787
I3
sasS'total_cqs'
p790
I85
ssI72
(dp791
S'iters'
p792
I3
sS'meta'
p793
(lp794
(dp795
S'objective'
p796
I8
sS'query_time'
p797
F0.3021728992462158
sS'comp_time'
p798
F0.0054128170013427734
sS'exec_cq'
p799
I8
sS'total_cq'
p800
I8
sa(dp801
g796
I2
sg797
F0.00027108192443847656
sg798
F0.0008950233459472656
sg799
I4
sg800
I6
sa(dp802
g796
I2
sg797
F6.198883056640625e-05
sg798
F5.316734313964844e-05
sg799
I2
sg800
I3
sasS'total_cqs'
p803
I8
ssI73
(dp804
S'iters'
p805
I0
sS'meta'
p806
(lp807
sS'total_cqs'
p808
I1
ssI74
(dp809
S'iters'
p810
I0
sS'meta'
p811
(lp812
sS'total_cqs'
p813
I1
ssI75
(dp814
S'iters'
p815
I1
sS'meta'
p816
(lp817
(dp818
S'objective'
p819
I5
sS'query_time'
p820
F0.012655019760131836
sS'comp_time'
p821
F0.0019941329956054688
sS'exec_cq'
p822
I5
sS'total_cq'
p823
I5
sasS'total_cqs'
p824
I5
ssI76
(dp825
S'iters'
p826
I1
sS'meta'
p827
(lp828
(dp829
S'objective'
p830
I1
sS'query_time'
p831
F0.017081022262573242
sS'comp_time'
p832
F0.0009398460388183594
sS'exec_cq'
p833
I2
sS'total_cq'
p834
I2
sasS'total_cqs'
p835
I2
ssI77
(dp836
S'iters'
p837
I0
sS'meta'
p838
(lp839
sS'total_cqs'
p840
I1
ssI78
(dp841
S'iters'
p842
I0
sS'meta'
p843
(lp844
sS'total_cqs'
p845
I1
ssI103
(dp846
S'iters'
p847
I2
sS'meta'
p848
(lp849
(dp850
S'objective'
p851
I54
sS'query_time'
p852
F0.05691885948181152
sS'comp_time'
p853
F0.019542932510375977
sS'exec_cq'
p854
I12
sS'total_cq'
p855
I12
sa(dp856
g851
I46
sg852
F5.602836608886719e-05
sg853
F0.00013875961303710938
sg854
I11
sg855
I11
sasS'total_cqs'
p857
I12
ssI104
(dp858
S'iters'
p859
I1
sS'meta'
p860
(lp861
(dp862
S'objective'
p863
I2
sS'query_time'
p864
F1.2837321758270264
sS'comp_time'
p865
F0.1535484790802002
sS'exec_cq'
p866
I4
sS'total_cq'
p867
I4
sasS'total_cqs'
p868
I4
ssI105
(dp869
S'iters'
p870
I0
sS'meta'
p871
(lp872
sS'total_cqs'
p873
I1
ssI106
(dp874
S'iters'
p875
I1
sS'meta'
p876
(lp877
(dp878
S'objective'
p879
I2
sS'query_time'
p880
F0.021661043167114258
sS'comp_time'
p881
F0.00174713134765625
sS'exec_cq'
p882
I4
sS'total_cq'
p883
I4
sasS'total_cqs'
p884
I4
ssI107
(dp885
S'iters'
p886
I2
sS'meta'
p887
(lp888
(dp889
S'objective'
p890
I60
sS'query_time'
p891
F0.07932305335998535
sS'comp_time'
p892
F0.01926708221435547
sS'exec_cq'
p893
I16
sS'total_cq'
p894
I16
sa(dp895
g890
I12
sg891
F0.0051839351654052734
sg892
F0.0004048347473144531
sg893
I3
sg894
I3
sasS'total_cqs'
p896
I16
ssI108
(dp897
S'iters'
p898
I0
sS'meta'
p899
(lp900
sS'total_cqs'
p901
I1
ss.