(dp0
I1
(dp1
S'iters'
p2
I2
sS'meta'
p3
(lp4
(dp5
S'objective'
p6
I32
sS'query_time'
p7
F0.016370058059692383
sS'comp_time'
p8
F8.296966552734375e-05
sS'exec_cq'
p9
I1
sS'total_cq'
p10
I12
sa(dp11
g6
I35
sg7
F0.009469032287597656
sg8
F8.20159912109375e-05
sg9
I1
sg10
I10
sasS'total_cqs'
p12
I12
ssI2
(dp13
S'iters'
p14
I4
sS'meta'
p15
(lp16
(dp17
S'objective'
p18
I318
sS'query_time'
p19
F0.028807878494262695
sS'comp_time'
p20
F0.000102996826171875
sS'exec_cq'
p21
I2
sS'total_cq'
p22
I27
sa(dp23
g18
I274
sg19
F0.013124942779541016
sg20
F9.489059448242188e-05
sg21
I2
sg22
I25
sa(dp24
g18
I265
sg19
F0.012408971786499023
sg20
F0.0001010894775390625
sg21
I3
sg22
I23
sa(dp25
g18
I244
sg19
F0.009844064712524414
sg20
F0.00011706352233886719
sg21
I3
sg22
I22
sasS'total_cqs'
p26
I27
ssI3
(dp27
S'iters'
p28
I4
sS'meta'
p29
(lp30
(dp31
S'objective'
p32
I360
sS'query_time'
p33
F9.882545948028564
sS'comp_time'
p34
F0.00016999244689941406
sS'exec_cq'
p35
I1
sS'total_cq'
p36
I43
sa(dp37
g32
I275
sg33
F8.515590906143188
sg34
F0.00034117698669433594
sg35
I1
sg36
I27
sa(dp38
g32
I172
sg33
F8.73546814918518
sg34
F0.0002281665802001953
sg35
I1
sg36
I20
sa(dp39
g32
I78
sg33
F2.082595109939575
sg34
F8.487701416015625e-05
sg35
I2
sg36
I6
sasS'total_cqs'
p40
I43
ssI4
(dp41
S'iters'
p42
I1
sS'meta'
p43
(lp44
(dp45
S'objective'
p46
I46
sS'query_time'
p47
F3.4833450317382812
sS'comp_time'
p48
F0.00028514862060546875
sS'exec_cq'
p49
I2
sS'total_cq'
p50
I11
sasS'total_cqs'
p51
I11
ssI5
(dp52
S'iters'
p53
I2
sS'meta'
p54
(lp55
(dp56
S'objective'
p57
I2
sS'query_time'
p58
F0.8455209732055664
sS'comp_time'
p59
F0.00011086463928222656
sS'exec_cq'
p60
I1
sS'total_cq'
p61
I8
sa(dp62
g57
I3
sg58
F0.3032228946685791
sg59
F7.295608520507812e-05
sg60
I1
sg61
I4
sasS'total_cqs'
p63
I8
ssI6
(dp64
S'iters'
p65
I3
sS'meta'
p66
(lp67
(dp68
S'objective'
p69
I135
sS'query_time'
p70
F1.5451838970184326
sS'comp_time'
p71
F0.00010395050048828125
sS'exec_cq'
p72
I1
sS'total_cq'
p73
I18
sa(dp74
g69
I83
sg70
F0.43389296531677246
sg71
F9.918212890625e-05
sg72
I3
sg73
I17
sa(dp75
g69
I5
sg70
F0.011764049530029297
sg71
F5.984306335449219e-05
sg72
I1
sg73
I4
sasS'total_cqs'
p76
I18
ssI7
(dp77
S'iters'
p78
I2
sS'meta'
p79
(lp80
(dp81
S'objective'
p82
I27
sS'query_time'
p83
F2.9982640743255615
sS'comp_time'
p84
F0.0006358623504638672
sS'exec_cq'
p85
I1
sS'total_cq'
p86
I9
sa(dp87
g82
I20
sg83
F0.22065210342407227
sg84
F0.00012874603271484375
sg85
I1
sg86
I8
sasS'total_cqs'
p88
I9
ssI8
(dp89
S'iters'
p90
I4
sS'meta'
p91
(lp92
(dp93
S'objective'
p94
I328
sS'query_time'
p95
F0.04175615310668945
sS'comp_time'
p96
F9.894371032714844e-05
sS'exec_cq'
p97
I3
sS'total_cq'
p98
I27
sa(dp99
g94
I299
sg95
F0.026773929595947266
sg96
F0.00011491775512695312
sg97
I3
sg98
I26
sa(dp100
g94
I266
sg95
F0.02454400062561035
sg96
F0.0001533031463623047
sg97
I4
sg98
I24
sa(dp101
g94
I14
sg95
F0.013542890548706055
sg96
F9.393692016601562e-05
sg97
I2
sg98
I2
sasS'total_cqs'
p102
I27
ssI9
(dp103
S'iters'
p104
I3
sS'meta'
p105
(lp106
(dp107
S'objective'
p108
I10
sS'query_time'
p109
F0.018131017684936523
sS'comp_time'
p110
F7.081031799316406e-05
sS'exec_cq'
p111
I1
sS'total_cq'
p112
I7
sa(dp113
g108
I3
sg109
F0.031205177307128906
sg110
F7.510185241699219e-05
sg111
I2
sg112
I5
sa(dp114
g108
I6
sg109
F0.0022509098052978516
sg110
F5.412101745605469e-05
sg111
I2
sg112
I2
sasS'total_cqs'
p115
I7
ssI10
(dp116
S'iters'
p117
I6
sS'meta'
p118
(lp119
(dp120
S'objective'
p121
I932
sS'query_time'
p122
F0.1336839199066162
sS'comp_time'
p123
F0.00013589859008789062
sS'exec_cq'
p124
I1
sS'total_cq'
p125
I51
sa(dp126
g121
I781
sg122
F0.080902099609375
sg123
F0.0001399517059326172
sg124
I1
sg125
I46
sa(dp127
g121
I861
sg122
F0.050276994705200195
sg123
F0.00011777877807617188
sg124
I1
sg125
I41
sa(dp128
g121
I536
sg122
F0.03182220458984375
sg123
F0.0001049041748046875
sg124
I1
sg125
I40
sa(dp129
g121
I36
sg122
F0.009477853775024414
sg123
F8.0108642578125e-05
sg124
I1
sg125
I7
sa(dp130
g121
I31
sg122
F0.015154838562011719
sg123
F7.987022399902344e-05
sg124
I2
sg125
I4
sasS'total_cqs'
p131
I51
ssI11
(dp132
S'iters'
p133
I8
sS'meta'
p134
(lp135
(dp136
S'objective'
p137
I1890
sS'query_time'
p138
F0.27022695541381836
sS'comp_time'
p139
F0.00013399124145507812
sS'exec_cq'
p140
I1
sS'total_cq'
p141
I63
sa(dp142
g137
I1651
sg138
F0.10880184173583984
sg139
F0.0001361370086669922
sg140
I1
sg141
I62
sa(dp143
g137
I1080
sg138
F0.09172511100769043
sg139
F0.0001518726348876953
sg140
I1
sg141
I58
sa(dp144
g137
I1329
sg138
F0.08105206489562988
sg139
F0.00011205673217773438
sg140
I5
sg141
I46
sa(dp145
g137
I815
sg138
F0.08324718475341797
sg139
F0.00013399124145507812
sg140
I5
sg141
I45
sa(dp146
g137
I91
sg138
F0.020659923553466797
sg139
F8.606910705566406e-05
sg140
I1
sg141
I8
sa(dp147
g137
I28
sg138
F0.013816118240356445
sg139
F7.915496826171875e-05
sg140
I1
sg141
I6
sa(dp148
g137
I18
sg138
F0.006724834442138672
sg139
F8.893013000488281e-05
sg140
I2
sg141
I2
sasS'total_cqs'
p149
I63
ssI12
(dp150
S'iters'
p151
I7
sS'meta'
p152
(lp153
(dp154
S'objective'
p155
I647
sS'query_time'
p156
F0.07712388038635254
sS'comp_time'
p157
F0.00011920928955078125
sS'exec_cq'
p158
I1
sS'total_cq'
p159
I50
sa(dp160
g155
I497
sg156
F0.022381067276000977
sg157
F0.00010991096496582031
sg158
I1
sg159
I38
sa(dp161
g155
I601
sg156
F0.10404706001281738
sg157
F0.00010895729064941406
sg158
I2
sg159
I30
sa(dp162
g155
I553
sg156
F0.05388498306274414
sg157
F0.00010085105895996094
sg158
I4
sg159
I27
sa(dp163
g155
I353
sg156
F0.04651808738708496
sg157
F0.000102996826171875
sg158
I4
sg159
I25
sa(dp164
g155
I14
sg156
F0.010040044784545898
sg157
F8.082389831542969e-05
sg158
I1
sg159
I6
sa(dp165
g155
I7
sg156
F0.014408111572265625
sg157
F5.91278076171875e-05
sg158
I2
sg159
I4
sasS'total_cqs'
p166
I50
ssI13
(dp167
S'iters'
p168
I5
sS'meta'
p169
(lp170
(dp171
S'objective'
p172
I80
sS'query_time'
p173
F0.08194494247436523
sS'comp_time'
p174
F0.00011801719665527344
sS'exec_cq'
p175
I1
sS'total_cq'
p176
I20
sa(dp177
g172
I43
sg173
F0.02203202247619629
sg174
F9.417533874511719e-05
sg175
I3
sg176
I15
sa(dp178
g172
I5
sg173
F0.022923946380615234
sg174
F7.295608520507812e-05
sg175
I2
sg176
I6
sa(dp179
g172
I12
sg173
F0.031304121017456055
sg174
F7.796287536621094e-05
sg175
I2
sg176
I4
sa(dp180
g172
I12
sg173
F0.005326986312866211
sg174
F0.00010418891906738281
sg175
I2
sg176
I2
sasS'total_cqs'
p181
I20
ssI14
(dp182
S'iters'
p183
I4
sS'meta'
p184
(lp185
(dp186
S'objective'
p187
I29
sS'query_time'
p188
F0.8828089237213135
sS'comp_time'
p189
F6.890296936035156e-05
sS'exec_cq'
p190
I1
sS'total_cq'
p191
I9
sa(dp192
g187
I1
sg188
F0.04385209083557129
sg189
F0.0001201629638671875
sg190
I1
sg191
I6
sa(dp193
g187
I10
sg188
F0.3312499523162842
sg189
F7.081031799316406e-05
sg190
I1
sg191
I3
sa(dp194
g187
I2
sg188
F0.0035719871520996094
sg189
F4.57763671875e-05
sg190
I1
sg191
I2
sasS'total_cqs'
p195
I9
ssI15
(dp196
S'iters'
p197
I2
sS'meta'
p198
(lp199
(dp200
S'objective'
p201
I32
sS'query_time'
p202
F0.9241750240325928
sS'comp_time'
p203
F9.584426879882812e-05
sS'exec_cq'
p204
I1
sS'total_cq'
p205
I11
sa(dp206
g201
I29
sg202
F0.03733015060424805
sg203
F5.316734313964844e-05
sg204
I1
sg205
I9
sasS'total_cqs'
p207
I11
ssI16
(dp208
S'iters'
p209
I1
sS'meta'
p210
(lp211
(dp212
S'objective'
p213
I22
sS'query_time'
p214
F0.010486841201782227
sS'comp_time'
p215
F8.0108642578125e-05
sS'exec_cq'
p216
I2
sS'total_cq'
p217
I8
sasS'total_cqs'
p218
I8
ssI17
(dp219
S'iters'
p220
I2
sS'meta'
p221
(lp222
(dp223
S'objective'
p224
I44
sS'query_time'
p225
F0.01717090606689453
sS'comp_time'
p226
F8.916854858398438e-05
sS'exec_cq'
p227
I1
sS'total_cq'
p228
I11
sa(dp229
g224
I35
sg225
F0.023493051528930664
sg226
F8.296966552734375e-05
sg227
I1
sg228
I10
sasS'total_cqs'
p230
I11
ssI18
(dp231
S'iters'
p232
I2
sS'meta'
p233
(lp234
(dp235
S'objective'
p236
I38
sS'query_time'
p237
F0.029387950897216797
sS'comp_time'
p238
F8.702278137207031e-05
sS'exec_cq'
p239
I1
sS'total_cq'
p240
I11
sa(dp241
g236
I32
sg237
F0.012310028076171875
sg238
F8.320808410644531e-05
sg239
I1
sg240
I9
sasS'total_cqs'
p242
I11
ssI19
(dp243
S'iters'
p244
I0
sS'meta'
p245
(lp246
sS'total_cqs'
p247
I1
ssI20
(dp248
S'iters'
p249
I0
sS'meta'
p250
(lp251
sS'total_cqs'
p252
I1
ssI21
(dp253
S'iters'
p254
I0
sS'meta'
p255
(lp256
sS'total_cqs'
p257
I1
ssI22
(dp258
S'iters'
p259
I1
sS'meta'
p260
(lp261
(dp262
S'objective'
p263
I141
sS'query_time'
p264
F0.038162946701049805
sS'comp_time'
p265
F8.7738037109375e-05
sS'exec_cq'
p266
I4
sS'total_cq'
p267
I18
sasS'total_cqs'
p268
I18
ssI23
(dp269
S'iters'
p270
I1
sS'meta'
p271
(lp272
(dp273
S'objective'
p274
I110
sS'query_time'
p275
F0.016061067581176758
sS'comp_time'
p276
F7.987022399902344e-05
sS'exec_cq'
p277
I4
sS'total_cq'
p278
I16
sasS'total_cqs'
p279
I16
ssI24
(dp280
S'iters'
p281
I0
sS'meta'
p282
(lp283
sS'total_cqs'
p284
I1
ssI25
(dp285
S'iters'
p286
I0
sS'meta'
p287
(lp288
sS'total_cqs'
p289
I1
ssI26
(dp290
S'iters'
p291
I1
sS'meta'
p292
(lp293
(dp294
S'objective'
p295
I837
sS'query_time'
p296
F0.07405614852905273
sS'comp_time'
p297
F0.00011801719665527344
sS'exec_cq'
p298
I10
sS'total_cq'
p299
I42
sasS'total_cqs'
p300
I42
ssI27
(dp301
S'iters'
p302
I4
sS'meta'
p303
(lp304
(dp305
S'objective'
p306
I355
sS'query_time'
p307
F1.392132043838501
sS'comp_time'
p308
F0.0001227855682373047
sS'exec_cq'
p309
I3
sS'total_cq'
p310
I30
sa(dp311
g306
I354
sg307
F0.650968074798584
sg308
F0.00011801719665527344
sg309
I5
sg310
I27
sa(dp312
g306
I332
sg307
F2.6266939640045166
sg308
F0.0001418590545654297
sg309
I5
sg310
I25
sa(dp313
g306
I23
sg307
F1205.3781101703644
sg308
F0.00013208389282226562
sg309
I2
sg310
I2
sasS'total_cqs'
p314
I30
ssI28
(dp315
S'iters'
p316
I0
sS'meta'
p317
(lp318
sS'total_cqs'
p319
I1
ssI29
(dp320
S'iters'
p321
I8
sS'meta'
p322
(lp323
(dp324
S'objective'
p325
I687
sS'query_time'
p326
F0.7930159568786621
sS'comp_time'
p327
F0.00013685226440429688
sS'exec_cq'
p328
I1
sS'total_cq'
p329
I49
sa(dp330
g325
I860
sg326
F7.942363023757935
sg327
F0.00027489662170410156
sg328
I1
sg329
I40
sa(dp331
g325
I406
sg326
F1.3570480346679688
sg327
F0.0007231235504150391
sg328
I1
sg329
I39
sa(dp332
g325
I567
sg326
F3.4100840091705322
sg327
F0.0004649162292480469
sg328
I1
sg329
I30
sa(dp333
g325
I526
sg326
F0.3424801826477051
sg327
F0.0001220703125
sg328
I1
sg329
I29
sa(dp334
g325
I329
sg326
F0.46699094772338867
sg327
F0.00010991096496582031
sg328
I1
sg329
I28
sa(dp335
g325
I36
sg326
F0.04106593132019043
sg327
F0.00012493133544921875
sg328
I1
sg329
I3
sa(dp336
g325
I2
sg326
F1.6484980583190918
sg327
F7.987022399902344e-05
sg328
I1
sg329
I2
sasS'total_cqs'
p337
I49
ssI30
(dp338
S'iters'
p339
I1
sS'meta'
p340
(lp341
(dp342
S'objective'
p343
I1
sS'query_time'
p344
F0.7745208740234375
sS'comp_time'
p345
F7.009506225585938e-05
sS'exec_cq'
p346
I1
sS'total_cq'
p347
I2
sasS'total_cqs'
p348
I2
ssI31
(dp349
S'iters'
p350
I0
sS'meta'
p351
(lp352
sS'total_cqs'
p353
I1
ssI32
(dp354
S'iters'
p355
I1
sS'meta'
p356
(lp357
(dp358
S'objective'
p359
I1
sS'query_time'
p360
F0.24606609344482422
sS'comp_time'
p361
F9.703636169433594e-05
sS'exec_cq'
p362
I1
sS'total_cq'
p363
I2
sasS'total_cqs'
p364
I2
ssI33
(dp365
S'iters'
p366
I13
sS'meta'
p367
(lp368
(dp369
S'objective'
p370
I5150
sS'query_time'
p371
F0.8027369976043701
sS'comp_time'
p372
F0.00017714500427246094
sS'exec_cq'
p373
I1
sS'total_cq'
p374
I103
sa(dp375
g370
I5057
sg371
F0.6854879856109619
sg372
F0.0002741813659667969
sg373
I5
sg374
I102
sa(dp376
g370
I4863
sg371
F0.7279689311981201
sg372
F0.0001659393310546875
sg373
I6
sg374
I101
sa(dp377
g370
I4257
sg371
F0.5551819801330566
sg372
F0.00017404556274414062
sg373
I6
sg374
I99
sa(dp378
g370
I4401
sg371
F0.5108230113983154
sg372
F0.0002110004425048828
sg373
I6
sg374
I90
sa(dp379
g370
I4335
sg371
F0.463778018951416
sg372
F0.00017309188842773438
sg373
I8
sg374
I88
sa(dp380
g370
I4186
sg371
F1.8773748874664307
sg372
F0.00014972686767578125
sg373
I8
sg374
I87
sa(dp381
g370
I4066
sg371
F0.3356177806854248
sg372
F0.0001571178436279297
sg373
I9
sg374
I85
sa(dp382
g370
I4014
sg371
F0.8198421001434326
sg372
F0.0001499652862548828
sg373
I10
sg374
I83
sa(dp383
g370
I3772
sg371
F0.6719620227813721
sg372
F0.00015115737915039062
sg373
I12
sg374
I82
sa(dp384
g370
I3490
sg371
F0.4048619270324707
sg372
F0.0006608963012695312
sg373
I14
sg374
I80
sa(dp385
g370
I89
sg371
F0.0267488956451416
sg372
F5.602836608886719e-05
sg373
I1
sg374
I3
sa(dp386
g370
I2
sg371
F0.021158933639526367
sg372
F5.1975250244140625e-05
sg373
I1
sg374
I2
sasS'total_cqs'
p387
I103
ssI34
(dp388
S'iters'
p389
I1
sS'meta'
p390
(lp391
(dp392
S'objective'
p393
I1
sS'query_time'
p394
F0.014066934585571289
sS'comp_time'
p395
F8.58306884765625e-05
sS'exec_cq'
p396
I1
sS'total_cq'
p397
I2
sasS'total_cqs'
p398
I2
ssI35
(dp399
S'iters'
p400
I12
sS'meta'
p401
(lp402
(dp403
S'objective'
p404
I2153
sS'query_time'
p405
F0.4912691116333008
sS'comp_time'
p406
F0.000164031982421875
sS'exec_cq'
p407
I1
sS'total_cq'
p408
I70
sa(dp409
g404
I2183
sg405
F21.231405019760132
sg406
F0.0006780624389648438
sg407
I2
sg408
I66
sa(dp410
g404
I2117
sg405
F0.2837529182434082
sg406
F0.00014495849609375
sg407
I2
sg408
I65
sa(dp411
g404
I1992
sg405
F0.3201429843902588
sg406
F0.00026607513427734375
sg407
I2
sg408
I64
sa(dp412
g404
I1958
sg405
F0.3245429992675781
sg406
F0.0001270771026611328
sg407
I2
sg408
I62
sa(dp413
g404
I1587
sg405
F0.36194801330566406
sg406
F0.0001327991485595703
sg407
I2
sg408
I61
sa(dp414
g404
I1681
sg405
F4.626235008239746
sg406
F0.00014591217041015625
sg407
I2
sg408
I53
sa(dp415
g404
I1623
sg405
F0.5674290657043457
sg406
F0.00015211105346679688
sg407
I3
sg408
I52
sa(dp416
g404
I1451
sg405
F2.800858974456787
sg406
F0.00011610984802246094
sg407
I3
sg408
I51
sa(dp417
g404
I1457
sg405
F20.822514057159424
sg406
F0.00012302398681640625
sg407
I6
sg408
I48
sa(dp418
g404
I1378
sg405
F0.12295389175415039
sg406
F0.00012087821960449219
sg407
I6
sg408
I47
sa(dp419
g404
I41
sg405
F0.010268926620483398
sg406
F6.079673767089844e-05
sg407
I1
sg408
I2
sasS'total_cqs'
p420
I70
ssI36
(dp421
S'iters'
p422
I3
sS'meta'
p423
(lp424
(dp425
S'objective'
p426
I501
sS'query_time'
p427
F0.1904590129852295
sS'comp_time'
p428
F9.489059448242188e-05
sS'exec_cq'
p429
I4
sS'total_cq'
p430
I33
sa(dp431
g426
I447
sg427
F0.04195284843444824
sg428
F0.00012803077697753906
sg429
I5
sg430
I32
sa(dp432
g426
I437
sg427
F0.0668950080871582
sg428
F7.700920104980469e-05
sg429
I6
sg430
I30
sasS'total_cqs'
p433
I33
ssI37
(dp434
S'iters'
p435
I1
sS'meta'
p436
(lp437
(dp438
S'objective'
p439
I1
sS'query_time'
p440
F0.006953001022338867
sS'comp_time'
p441
F7.390975952148438e-05
sS'exec_cq'
p442
I1
sS'total_cq'
p443
I2
sasS'total_cqs'
p444
I2
ssI38
(dp445
S'iters'
p446
I2
sS'meta'
p447
(lp448
(dp449
S'objective'
p450
I2
sS'query_time'
p451
F0.015635013580322266
sS'comp_time'
p452
F7.081031799316406e-05
sS'exec_cq'
p453
I1
sS'total_cq'
p454
I4
sa(dp455
g450
I2
sg451
F0.0017230510711669922
sg452
F5.412101745605469e-05
sg453
I1
sg454
I2
sasS'total_cqs'
p456
I4
ssI39
(dp457
S'iters'
p458
I2
sS'meta'
p459
(lp460
(dp461
S'objective'
p462
I680
sS'query_time'
p463
F0.04743814468383789
sS'comp_time'
p464
F0.00012087821960449219
sS'exec_cq'
p465
I1
sS'total_cq'
p466
I44
sa(dp467
g462
I87
sg463
F0.048002004623413086
sg464
F7.510185241699219e-05
sg465
I2
sg466
I8
sasS'total_cqs'
p468
I44
ssI40
(dp469
S'iters'
p470
I1
sS'meta'
p471
(lp472
(dp473
S'objective'
p474
I14
sS'query_time'
p475
F0.015338897705078125
sS'comp_time'
p476
F8.296966552734375e-05
sS'exec_cq'
p477
I1
sS'total_cq'
p478
I7
sasS'total_cqs'
p479
I7
ssI41
(dp480
S'iters'
p481
I1
sS'meta'
p482
(lp483
(dp484
S'objective'
p485
I58
sS'query_time'
p486
F0.027725934982299805
sS'comp_time'
p487
F9.298324584960938e-05
sS'exec_cq'
p488
I3
sS'total_cq'
p489
I12
sasS'total_cqs'
p490
I12
ssI42
(dp491
S'iters'
p492
I2
sS'meta'
p493
(lp494
(dp495
S'objective'
p496
I793
sS'query_time'
p497
F0.029581069946289062
sS'comp_time'
p498
F0.00012493133544921875
sS'exec_cq'
p499
I8
sS'total_cq'
p500
I41
sa(dp501
g496
I763
sg497
F0.021188974380493164
sg498
F0.00013184547424316406
sg499
I9
sg500
I40
sasS'total_cqs'
p502
I41
ssI43
(dp503
S'iters'
p504
I1
sS'meta'
p505
(lp506
(dp507
S'objective'
p508
I14
sS'query_time'
p509
F0.01817488670349121
sS'comp_time'
p510
F8.606910705566406e-05
sS'exec_cq'
p511
I1
sS'total_cq'
p512
I7
sasS'total_cqs'
p513
I7
ssI44
(dp514
S'iters'
p515
I4
sS'meta'
p516
(lp517
(dp518
S'objective'
p519
I1046
sS'query_time'
p520
F0.05407094955444336
sS'comp_time'
p521
F0.00011491775512695312
sS'exec_cq'
p522
I7
sS'total_cq'
p523
I47
sa(dp524
g519
I727
sg520
F0.039154052734375
sg521
F0.00011086463928222656
sg522
I7
sg523
I46
sa(dp525
g519
I783
sg520
F0.027163028717041016
sg521
F8.535385131835938e-05
sg522
I7
sg523
I39
sa(dp526
g519
I12
sg520
F0.029469013214111328
sg521
F0.0001010894775390625
sg522
I2
sg523
I2
sasS'total_cqs'
p527
I47
ssI45
(dp528
S'iters'
p529
I0
sS'meta'
p530
(lp531
sS'total_cqs'
p532
I1
ssI46
(dp533
S'iters'
p534
I1
sS'meta'
p535
(lp536
(dp537
S'objective'
p538
I9
sS'query_time'
p539
F0.0062139034271240234
sS'comp_time'
p540
F6.794929504394531e-05
sS'exec_cq'
p541
I1
sS'total_cq'
p542
I6
sasS'total_cqs'
p543
I6
ssI47
(dp544
S'iters'
p545
I1
sS'meta'
p546
(lp547
(dp548
S'objective'
p549
I1
sS'query_time'
p550
F0.005391120910644531
sS'comp_time'
p551
F6.222724914550781e-05
sS'exec_cq'
p552
I1
sS'total_cq'
p553
I2
sasS'total_cqs'
p554
I2
ssI48
(dp555
S'iters'
p556
I0
sS'meta'
p557
(lp558
sS'total_cqs'
p559
I1
ssI49
(dp560
S'iters'
p561
I0
sS'meta'
p562
(lp563
sS'total_cqs'
p564
I1
ssI50
(dp565
S'iters'
p566
I1
sS'meta'
p567
(lp568
(dp569
S'objective'
p570
I5
sS'query_time'
p571
F0.00498199462890625
sS'comp_time'
p572
F5.91278076171875e-05
sS'exec_cq'
p573
I1
sS'total_cq'
p574
I5
sasS'total_cqs'
p575
I5
ssI51
(dp576
S'iters'
p577
I1
sS'meta'
p578
(lp579
(dp580
S'objective'
p581
I1
sS'query_time'
p582
F0.18768000602722168
sS'comp_time'
p583
F6.508827209472656e-05
sS'exec_cq'
p584
I1
sS'total_cq'
p585
I2
sasS'total_cqs'
p586
I2
ssI52
(dp587
S'iters'
p588
I1
sS'meta'
p589
(lp590
(dp591
S'objective'
p592
I1
sS'query_time'
p593
F0.1816270351409912
sS'comp_time'
p594
F8.106231689453125e-05
sS'exec_cq'
p595
I1
sS'total_cq'
p596
I2
sasS'total_cqs'
p597
I2
ssI53
(dp598
S'iters'
p599
I1
sS'meta'
p600
(lp601
(dp602
S'objective'
p603
I2
sS'query_time'
p604
F0.020612001419067383
sS'comp_time'
p605
F7.295608520507812e-05
sS'exec_cq'
p606
I1
sS'total_cq'
p607
I4
sasS'total_cqs'
p608
I4
ssI54
(dp609
S'iters'
p610
I2
sS'meta'
p611
(lp612
(dp613
S'objective'
p614
I0
sS'query_time'
p615
F0.004908084869384766
sS'comp_time'
p616
F6.914138793945312e-05
sS'exec_cq'
p617
I1
sS'total_cq'
p618
I3
sa(dp619
g614
I1
sg615
F0.006056070327758789
sg616
F5.91278076171875e-05
sg617
I1
sg618
I2
sasS'total_cqs'
p620
I3
ssI55
(dp621
S'iters'
p622
I4
sS'meta'
p623
(lp624
(dp625
S'objective'
p626
I5683
sS'query_time'
p627
F0.30359792709350586
sS'comp_time'
p628
F0.00016307830810546875
sS'exec_cq'
p629
I3
sS'total_cq'
p630
I109
sa(dp631
g626
I5517
sg627
F0.19760608673095703
sg628
F0.00015306472778320312
sg629
I7
sg630
I106
sa(dp632
g626
I5200
sg627
F0.2482309341430664
sg628
F0.0001819133758544922
sg629
I14
sg630
I104
sa(dp633
g626
I73
sg627
F0.0043239593505859375
sg628
F6.413459777832031e-05
sg629
I1
sg630
I3
sasS'total_cqs'
p634
I109
ssI56
(dp635
S'iters'
p636
I8
sS'meta'
p637
(lp638
(dp639
S'objective'
p640
I2512
sS'query_time'
p641
F0.38762903213500977
sS'comp_time'
p642
F0.00013899803161621094
sS'exec_cq'
p643
I1
sS'total_cq'
p644
I76
sa(dp645
g640
I2581
sg641
F0.49561214447021484
sg642
F0.00015425682067871094
sg643
I6
sg644
I73
sa(dp646
g640
I2372
sg641
F0.2570149898529053
sg642
F0.00016188621520996094
sg643
I7
sg644
I72
sa(dp647
g640
I2383
sg641
F0.09529304504394531
sg642
F0.0001652240753173828
sg643
I9
sg644
I69
sa(dp648
g640
I2097
sg641
F0.28055906295776367
sg642
F0.00014591217041015625
sg643
I12
sg644
I68
sa(dp649
g640
I2100
sg641
F0.15410399436950684
sg642
F0.00013899803161621094
sg643
I12
sg644
I64
sa(dp650
g640
I1550
sg641
F0.13573789596557617
sg642
F0.00014090538024902344
sg643
I12
sg644
I62
sa(dp651
g640
I202
sg641
F0.013967037200927734
sg642
F0.00010991096496582031
sg643
I1
sg644
I9
sasS'total_cqs'
p652
I76
ssI57
(dp653
S'iters'
p654
I4
sS'meta'
p655
(lp656
(dp657
S'objective'
p658
I936
sS'query_time'
p659
F1.0177979469299316
sS'comp_time'
p660
F0.0001327991485595703
sS'exec_cq'
p661
I1
sS'total_cq'
p662
I51
sa(dp663
g658
I141
sg659
F0.09040498733520508
sg660
F0.00010704994201660156
sg661
I1
sg662
I6
sa(dp664
g658
I66
sg659
F0.10036420822143555
sg660
F9.799003601074219e-05
sg661
I1
sg662
I5
sa(dp665
g658
I37
sg659
F0.06676506996154785
sg660
F7.891654968261719e-05
sg661
I1
sg662
I4
sasS'total_cqs'
p666
I51
ssI58
(dp667
S'iters'
p668
I20
sS'meta'
p669
(lp670
(dp671
S'objective'
p672
I115981
sS'query_time'
p673
F11.66034197807312
sS'comp_time'
p674
F0.0006709098815917969
sS'exec_cq'
p675
I2
sS'total_cq'
p676
I486
sa(dp677
g672
I115159
sg673
F8.211831092834473
sg674
F0.0005128383636474609
sg675
I2
sg676
I482
sa(dp678
g672
I112458
sg673
F2.0850939750671387
sg674
F0.0006761550903320312
sg675
I3
sg676
I479
sa(dp679
g672
I111335
sg673
F2.6080188751220703
sg674
F0.0006930828094482422
sg675
I3
sg676
I471
sa(dp680
g672
I110964
sg673
F4.136991024017334
sg674
F0.0017359256744384766
sg675
I3
sg676
I465
sa(dp681
g672
I110939
sg673
F4.142287015914917
sg674
F0.0010008811950683594
sg675
I5
sg676
I462
sa(dp682
g672
I104808
sg673
F3.2544169425964355
sg674
F0.0005092620849609375
sg675
I5
sg676
I461
sa(dp683
g672
I105018
sg673
F3.537559986114502
sg674
F0.0005528926849365234
sg675
I5
sg676
I449
sa(dp684
g672
I105625
sg673
F1.8784589767456055
sg674
F0.0010027885437011719
sg675
I9
sg676
I441
sa(dp685
g672
I105159
sg673
F2.6106410026550293
sg674
F0.0006868839263916016
sg675
I10
sg676
I440
sa(dp686
g672
I104179
sg673
F1.9515631198883057
sg674
F0.0007541179656982422
sg675
I10
sg676
I439
sa(dp687
g672
I103395
sg673
F0.6940109729766846
sg674
F0.0008759498596191406
sg675
I12
sg676
I437
sa(dp688
g672
I101151
sg673
F0.5298418998718262
sg674
F0.000553131103515625
sg675
I12
sg676
I435
sa(dp689
g672
I96686
sg673
F2.6389501094818115
sg674
F0.0005848407745361328
sg675
I12
sg676
I431
sa(dp690
g672
I97834
sg673
F6.412827968597412
sg674
F0.0005381107330322266
sg675
I13
sg676
I422
sa(dp691
g672
I97771
sg673
F0.4984419345855713
sg674
F0.0004999637603759766
sg675
I13
sg676
I420
sa(dp692
g672
I86519
sg673
F1.8895440101623535
sg674
F0.0008370876312255859
sg675
I13
sg676
I418
sa(dp693
g672
I2187
sg673
F0.2984890937805176
sg674
F0.00021386146545410156
sg675
I1
sg676
I27
sa(dp694
g672
I3223
sg673
F0.9828281402587891
sg674
F0.00011992454528808594
sg675
I1
sg676
I21
sa(dp695
g672
I2894
sg673
F0.12470388412475586
sg674
F0.00010919570922851562
sg675
I1
sg676
I20
sasS'total_cqs'
p696
I486
ssI59
(dp697
S'iters'
p698
I2
sS'meta'
p699
(lp700
(dp701
S'objective'
p702
I8
sS'query_time'
p703
F0.016992807388305664
sS'comp_time'
p704
F7.581710815429688e-05
sS'exec_cq'
p705
I1
sS'total_cq'
p706
I7
sa(dp707
g702
I4
sg703
F0.03566694259643555
sg704
F6.079673767089844e-05
sg705
I2
sg706
I2
sasS'total_cqs'
p708
I7
ssI60
(dp709
S'iters'
p710
I1
sS'meta'
p711
(lp712
(dp713
S'objective'
p714
I5
sS'query_time'
p715
F0.0057220458984375
sS'comp_time'
p716
F6.389617919921875e-05
sS'exec_cq'
p717
I1
sS'total_cq'
p718
I5
sasS'total_cqs'
p719
I5
ssI61
(dp720
S'iters'
p721
I0
sS'meta'
p722
(lp723
sS'total_cqs'
p724
I1
ssI62
(dp725
S'iters'
p726
I1
sS'meta'
p727
(lp728
(dp729
S'objective'
p730
I58
sS'query_time'
p731
F0.013048887252807617
sS'comp_time'
p732
F7.200241088867188e-05
sS'exec_cq'
p733
I3
sS'total_cq'
p734
I12
sasS'total_cqs'
p735
I12
ssI63
(dp736
S'iters'
p737
I0
sS'meta'
p738
(lp739
sS'total_cqs'
p740
I1
ssI64
(dp741
S'iters'
p742
I4
sS'meta'
p743
(lp744
(dp745
S'objective'
p746
I54
sS'query_time'
p747
F0.10460495948791504
sS'comp_time'
p748
F0.00010132789611816406
sS'exec_cq'
p749
I1
sS'total_cq'
p750
I12
sa(dp751
g746
I44
sg747
F0.030998945236206055
sg748
F9.512901306152344e-05
sg749
I1
sg750
I11
sa(dp752
g746
I17
sg747
F0.02339005470275879
sg748
F8.821487426757812e-05
sg749
I1
sg750
I10
sa(dp753
g746
I1
sg747
F0.0031359195709228516
sg748
F5.2928924560546875e-05
sg749
I1
sg750
I2
sasS'total_cqs'
p754
I12
ssI65
(dp755
S'iters'
p756
I2
sS'meta'
p757
(lp758
(dp759
S'objective'
p760
I252
sS'query_time'
p761
F0.06152200698852539
sS'comp_time'
p762
F0.00010776519775390625
sS'exec_cq'
p763
I1
sS'total_cq'
p764
I27
sa(dp765
g760
I19
sg761
F0.008586883544921875
sg762
F7.081031799316406e-05
sg763
I1
sg764
I3
sasS'total_cqs'
p766
I27
ssI66
(dp767
S'iters'
p768
I0
sS'meta'
p769
(lp770
sS'total_cqs'
p771
I1
ssI67
(dp772
S'iters'
p773
I1
sS'meta'
p774
(lp775
(dp776
S'objective'
p777
I574
sS'query_time'
p778
F0.7931139469146729
sS'comp_time'
p779
F0.00010776519775390625
sS'exec_cq'
p780
I8
sS'total_cq'
p781
I35
sasS'total_cqs'
p782
I35
ssI68
(dp783
S'iters'
p784
I0
sS'meta'
p785
(lp786
sS'total_cqs'
p787
I1
ssI69
(dp788
S'iters'
p789
I1
sS'meta'
p790
(lp791
(dp792
S'objective'
p793
I1246
sS'query_time'
p794
F0.09845781326293945
sS'comp_time'
p795
F0.00011587142944335938
sS'exec_cq'
p796
I12
sS'total_cq'
p797
I51
sasS'total_cqs'
p798
I51
ssI70
(dp799
S'iters'
p800
I1
sS'meta'
p801
(lp802
(dp803
S'objective'
p804
I9
sS'query_time'
p805
F0.009186029434204102
sS'comp_time'
p806
F6.222724914550781e-05
sS'exec_cq'
p807
I1
sS'total_cq'
p808
I6
sasS'total_cqs'
p809
I6
ssI71
(dp810
S'iters'
p811
I4
sS'meta'
p812
(lp813
(dp814
S'objective'
p815
I3515
sS'query_time'
p816
F0.10136294364929199
sS'comp_time'
p817
F0.00014400482177734375
sS'exec_cq'
p818
I16
sS'total_cq'
p819
I85
sa(dp820
g815
I3307
sg816
F0.0907602310180664
sg817
F0.00014591217041015625
sg818
I18
sg819
I84
sa(dp821
g815
I3298
sg816
F0.07564210891723633
sg817
F0.0001621246337890625
sg818
I19
sg819
I81
sa(dp822
g815
I56
sg816
F0.0021750926971435547
sg817
F5.316734313964844e-05
sg818
I1
sg819
I3
sasS'total_cqs'
p823
I85
ssI72
(dp824
S'iters'
p825
I2
sS'meta'
p826
(lp827
(dp828
S'objective'
p829
I20
sS'query_time'
p830
F0.6183757781982422
sS'comp_time'
p831
F0.0001201629638671875
sS'exec_cq'
p832
I1
sS'total_cq'
p833
I8
sa(dp834
g829
I14
sg830
F0.018123865127563477
sg831
F0.00011205673217773438
sg832
I1
sg833
I7
sasS'total_cqs'
p835
I8
ssI73
(dp836
S'iters'
p837
I0
sS'meta'
p838
(lp839
sS'total_cqs'
p840
I1
ssI74
(dp841
S'iters'
p842
I0
sS'meta'
p843
(lp844
sS'total_cqs'
p845
I1
ssI75
(dp846
S'iters'
p847
I1
sS'meta'
p848
(lp849
(dp850
S'objective'
p851
I5
sS'query_time'
p852
F0.012007951736450195
sS'comp_time'
p853
F7.319450378417969e-05
sS'exec_cq'
p854
I1
sS'total_cq'
p855
I5
sasS'total_cqs'
p856
I5
ssI76
(dp857
S'iters'
p858
I1
sS'meta'
p859
(lp860
(dp861
S'objective'
p862
I1
sS'query_time'
p863
F0.009292125701904297
sS'comp_time'
p864
F6.389617919921875e-05
sS'exec_cq'
p865
I1
sS'total_cq'
p866
I2
sasS'total_cqs'
p867
I2
ssI77
(dp868
S'iters'
p869
I0
sS'meta'
p870
(lp871
sS'total_cqs'
p872
I1
ssI78
(dp873
S'iters'
p874
I0
sS'meta'
p875
(lp876
sS'total_cqs'
p877
I1
ssI103
(dp878
S'iters'
p879
I1
sS'meta'
p880
(lp881
(dp882
S'objective'
p883
I58
sS'query_time'
p884
F0.04146003723144531
sS'comp_time'
p885
F9.012222290039062e-05
sS'exec_cq'
p886
I3
sS'total_cq'
p887
I12
sasS'total_cqs'
p888
I12
ssI104
(dp889
S'iters'
p890
I1
sS'meta'
p891
(lp892
(dp893
S'objective'
p894
I2
sS'query_time'
p895
F1.361881971359253
sS'comp_time'
p896
F0.00010824203491210938
sS'exec_cq'
p897
I1
sS'total_cq'
p898
I4
sasS'total_cqs'
p899
I4
ssI105
(dp900
S'iters'
p901
I0
sS'meta'
p902
(lp903
sS'total_cqs'
p904
I1
ssI106
(dp905
S'iters'
p906
I1
sS'meta'
p907
(lp908
(dp909
S'objective'
p910
I2
sS'query_time'
p911
F0.020745038986206055
sS'comp_time'
p912
F7.104873657226562e-05
sS'exec_cq'
p913
I1
sS'total_cq'
p914
I4
sasS'total_cqs'
p915
I4
ssI107
(dp916
S'iters'
p917
I2
sS'meta'
p918
(lp919
(dp920
S'objective'
p921
I54
sS'query_time'
p922
F0.024631977081298828
sS'comp_time'
p923
F9.512901306152344e-05
sS'exec_cq'
p924
I1
sS'total_cq'
p925
I16
sa(dp926
g921
I15
sg922
F0.032570838928222656
sg923
F6.985664367675781e-05
sg924
I2
sg925
I3
sasS'total_cqs'
p927
I16
ssI108
(dp928
S'iters'
p929
I0
sS'meta'
p930
(lp931
sS'total_cqs'
p932
I1
ss.