(dp0
I1
(dp1
S'iters'
p2
I2
sS'meta'
p3
(lp4
(dp5
S'objective'
p6
I38
sS'query_time'
p7
F0.030311107635498047
sS'comp_time'
p8
F0.01828479766845703
sS'exec_cq'
p9
I12
sS'total_cq'
p10
I12
sa(dp11
g6
I38
sg7
F5.1975250244140625e-05
sg8
F0.00016188621520996094
sg9
I10
sg10
I10
sasS'total_cqs'
p12
I12
ssI2
(dp13
S'iters'
p14
I3
sS'meta'
p15
(lp16
(dp17
S'objective'
p18
I216
sS'query_time'
p19
F0.06227993965148926
sS'comp_time'
p20
F0.030282020568847656
sS'exec_cq'
p21
I13
sS'total_cq'
p22
I27
sa(dp23
g18
I249
sg19
F5.698204040527344e-05
sg20
F0.000335693359375
sg21
I9
sg22
I23
sa(dp24
g18
I229
sg19
F3.695487976074219e-05
sg20
F0.00013518333435058594
sg21
I8
sg22
I22
sasS'total_cqs'
p25
I27
ssI3
(dp26
S'iters'
p27
I4
sS'meta'
p28
(lp29
(dp30
S'objective'
p31
I258
sS'query_time'
p32
F78.32512712478638
sS'comp_time'
p33
F0.5766720771789551
sS'exec_cq'
p34
I16
sS'total_cq'
p35
I43
sa(dp36
g31
I20
sg32
F110.06696105003357
sg33
F2.515634298324585
sg34
I14
sg35
I27
sa(dp37
g31
I27
sg32
F42.614449977874756
sg33
F0.7081208229064941
sg34
I9
sg35
I13
sa(dp38
g31
I74
sg32
F12.034251928329468
sg33
F0.0025589466094970703
sg34
I6
sg35
I6
sasS'total_cqs'
p39
I43
ssI4
(dp40
S'iters'
p41
I2
sS'meta'
p42
(lp43
(dp44
S'objective'
p45
I40
sS'query_time'
p46
F5.010812044143677
sS'comp_time'
p47
F1.0027050971984863
sS'exec_cq'
p48
I11
sS'total_cq'
p49
I11
sa(dp50
g45
I7
sg46
F0.24145221710205078
sg47
F1.0262808799743652
sg48
I2
sg49
I2
sasS'total_cqs'
p51
I11
ssI5
(dp52
S'iters'
p53
I3
sS'meta'
p54
(lp55
(dp56
S'objective'
p57
I0
sS'query_time'
p58
F33.60439205169678
sS'comp_time'
p59
F3.706707715988159
sS'exec_cq'
p60
I8
sS'total_cq'
p61
I8
sa(dp62
g57
I0
sg58
F0.4183340072631836
sg59
F1.7107830047607422
sg60
I4
sg61
I4
sa(dp63
g57
I5
sg58
F0.003742218017578125
sg59
F0.020595788955688477
sg60
I2
sg61
I2
sasS'total_cqs'
p64
I8
ssI6
(dp65
S'iters'
p66
I3
sS'meta'
p67
(lp68
(dp69
S'objective'
p70
I51
sS'query_time'
p71
F37.09964990615845
sS'comp_time'
p72
F3.605623245239258
sS'exec_cq'
p73
I18
sS'total_cq'
p74
I18
sa(dp75
g70
I0
sg71
F0.6111040115356445
sg72
F3.479290008544922
sg73
I7
sg74
I7
sa(dp76
g70
I0
sg71
F0.018106937408447266
sg72
F0.08989906311035156
sg73
I3
sg74
I3
sasS'total_cqs'
p77
I18
ssI7
(dp78
S'iters'
p79
I3
sS'meta'
p80
(lp81
(dp82
S'objective'
p83
I1
sS'query_time'
p84
F12.524620056152344
sS'comp_time'
p85
F1.8856215476989746
sS'exec_cq'
p86
I9
sS'total_cq'
p87
I9
sa(dp88
g83
I0
sg84
F0.012824058532714844
sg85
F0.20800089836120605
sg86
I5
sg87
I5
sa(dp89
g83
I5
sg84
F0.00821685791015625
sg85
F0.17211008071899414
sg86
I2
sg87
I2
sasS'total_cqs'
p90
I9
ssI8
(dp91
S'iters'
p92
I3
sS'meta'
p93
(lp94
(dp95
S'objective'
p96
I278
sS'query_time'
p97
F0.091796875
sS'comp_time'
p98
F0.07110929489135742
sS'exec_cq'
p99
I13
sS'total_cq'
p100
I27
sa(dp101
g96
I236
sg97
F0.06391310691833496
sg98
F0.0007297992706298828
sg99
I14
sg100
I24
sa(dp102
g96
I238
sg97
F4.38690185546875e-05
sg98
F0.00020170211791992188
sg99
I10
sg100
I19
sasS'total_cqs'
p103
I27
ssI9
(dp104
S'iters'
p105
I2
sS'meta'
p106
(lp107
(dp108
S'objective'
p109
I6
sS'query_time'
p110
F0.060986995697021484
sS'comp_time'
p111
F0.0044689178466796875
sS'exec_cq'
p112
I7
sS'total_cq'
p113
I7
sa(dp114
g109
I3
sg110
F1.7881393432617188e-05
sg111
F0.000225067138671875
sg112
I2
sg113
I2
sasS'total_cqs'
p115
I7
ssI10
(dp116
S'iters'
p117
I5
sS'meta'
p118
(lp119
(dp120
S'objective'
p121
I392
sS'query_time'
p122
F0.17651700973510742
sS'comp_time'
p123
F0.09333419799804688
sS'exec_cq'
p124
I28
sS'total_cq'
p125
I51
sa(dp126
g121
I183
sg122
F0.14516806602478027
sg123
F0.0015811920166015625
sg124
I23
sg125
I37
sa(dp127
g121
I0
sg122
F0.001825094223022461
sg123
F0.0011301040649414062
sg124
I12
sg125
I12
sa(dp128
g121
I3
sg122
F9.512901306152344e-05
sg123
F0.0005061626434326172
sg124
I7
sg125
I7
sa(dp129
g121
I6
sg122
F4.601478576660156e-05
sg123
F0.00026297569274902344
sg124
I4
sg125
I4
sasS'total_cqs'
p130
I51
ssI11
(dp131
S'iters'
p132
I5
sS'meta'
p133
(lp134
(dp135
S'objective'
p136
I1122
sS'query_time'
p137
F0.7094018459320068
sS'comp_time'
p138
F0.16733527183532715
sS'exec_cq'
p139
I63
sS'total_cq'
p140
I63
sa(dp141
g136
I797
sg137
F0.0011909008026123047
sg138
F0.006490230560302734
sg139
I47
sg140
I47
sa(dp142
g136
I0
sg137
F0.0018019676208496094
sg138
F0.0025267601013183594
sg139
I9
sg140
I9
sa(dp143
g136
I19
sg137
F3.504753112792969e-05
sg138
F0.00022101402282714844
sg139
I4
sg140
I4
sa(dp144
g136
I11
sg137
F1.5974044799804688e-05
sg138
F0.00014901161193847656
sg139
I2
sg140
I2
sasS'total_cqs'
p145
I63
ssI12
(dp146
S'iters'
p147
I5
sS'meta'
p148
(lp149
(dp150
S'objective'
p151
I435
sS'query_time'
p152
F0.19187116622924805
sS'comp_time'
p153
F0.07708072662353516
sS'exec_cq'
p154
I28
sS'total_cq'
p155
I50
sa(dp156
g151
I305
sg152
F0.168503999710083
sg153
F0.0031080245971679688
sg154
I22
sg155
I33
sa(dp157
g151
I15
sg152
F0.0018019676208496094
sg153
F0.0018811225891113281
sg154
I8
sg155
I8
sa(dp158
g151
I13
sg152
F3.814697265625e-05
sg153
F0.0002269744873046875
sg154
I4
sg155
I4
sa(dp159
g151
I1
sg152
F1.5974044799804688e-05
sg153
F8.988380432128906e-05
sg154
I2
sg155
I2
sasS'total_cqs'
p160
I50
ssI13
(dp161
S'iters'
p162
I3
sS'meta'
p163
(lp164
(dp165
S'objective'
p166
I44
sS'query_time'
p167
F0.13080501556396484
sS'comp_time'
p168
F0.027354955673217773
sS'exec_cq'
p169
I20
sS'total_cq'
p170
I20
sa(dp171
g166
I31
sg167
F5.2928924560546875e-05
sg168
F0.00043201446533203125
sg169
I9
sg170
I9
sa(dp172
g166
I6
sg167
F0.0012748241424560547
sg168
F0.00016832351684570312
sg169
I2
sg170
I2
sasS'total_cqs'
p173
I20
ssI14
(dp174
S'iters'
p175
I3
sS'meta'
p176
(lp177
(dp178
S'objective'
p179
I1
sS'query_time'
p180
F32.7667510509491
sS'comp_time'
p181
F1.580219030380249
sS'exec_cq'
p182
I9
sS'total_cq'
p183
I9
sa(dp184
g179
I1
sg180
F0.016175031661987305
sg181
F0.2461390495300293
sg182
I6
sg183
I6
sa(dp185
g179
I4
sg180
F0.009067058563232422
sg181
F0.03862190246582031
sg182
I2
sg183
I2
sasS'total_cqs'
p186
I9
ssI15
(dp187
S'iters'
p188
I3
sS'meta'
p189
(lp190
(dp191
S'objective'
p192
I10
sS'query_time'
p193
F3.95603609085083
sS'comp_time'
p194
F0.2898681163787842
sS'exec_cq'
p195
I11
sS'total_cq'
p196
I11
sa(dp197
g192
I0
sg193
F0.041731834411621094
sg194
F0.26878976821899414
sg195
I6
sg196
I6
sa(dp198
g192
I6
sg193
F0.013202190399169922
sg194
F0.1908397674560547
sg195
I3
sg196
I3
sasS'total_cqs'
p199
I11
ssI16
(dp200
S'iters'
p201
I1
sS'meta'
p202
(lp203
(dp204
S'objective'
p205
I22
sS'query_time'
p206
F0.027594804763793945
sS'comp_time'
p207
F0.004351377487182617
sS'exec_cq'
p208
I8
sS'total_cq'
p209
I8
sasS'total_cqs'
p210
I8
ssI17
(dp211
S'iters'
p212
I3
sS'meta'
p213
(lp214
(dp215
S'objective'
p216
I2
sS'query_time'
p217
F0.8933579921722412
sS'comp_time'
p218
F0.047419071197509766
sS'exec_cq'
p219
I11
sS'total_cq'
p220
I11
sa(dp221
g216
I0
sg217
F0.009100914001464844
sg218
F0.029310941696166992
sg219
I4
sg220
I4
sa(dp222
g216
I3
sg217
F0.0023958683013916016
sg218
F0.013310670852661133
sg219
I2
sg220
I2
sasS'total_cqs'
p223
I11
ssI18
(dp224
S'iters'
p225
I3
sS'meta'
p226
(lp227
(dp228
S'objective'
p229
I48
sS'query_time'
p230
F0.12274003028869629
sS'comp_time'
p231
F0.023057222366333008
sS'exec_cq'
p232
I5
sS'total_cq'
p233
I11
sa(dp234
g229
I5
sg230
F0.005682945251464844
sg231
F0.005777597427368164
sg232
I5
sg233
I10
sa(dp235
g229
I11
sg230
F0.09512209892272949
sg231
F0.0007860660552978516
sg232
I7
sg233
I7
sasS'total_cqs'
p236
I11
ssI19
(dp237
S'iters'
p238
I0
sS'meta'
p239
(lp240
sS'total_cqs'
p241
I1
ssI20
(dp242
S'iters'
p243
I0
sS'meta'
p244
(lp245
sS'total_cqs'
p246
I1
ssI21
(dp247
S'iters'
p248
I0
sS'meta'
p249
(lp250
sS'total_cqs'
p251
I1
ssI22
(dp252
S'iters'
p253
I1
sS'meta'
p254
(lp255
(dp256
S'objective'
p257
I141
sS'query_time'
p258
F0.07522296905517578
sS'comp_time'
p259
F0.03342914581298828
sS'exec_cq'
p260
I18
sS'total_cq'
p261
I18
sasS'total_cqs'
p262
I18
ssI23
(dp263
S'iters'
p264
I3
sS'meta'
p265
(lp266
(dp267
S'objective'
p268
I120
sS'query_time'
p269
F0.03812384605407715
sS'comp_time'
p270
F0.030057907104492188
sS'exec_cq'
p271
I8
sS'total_cq'
p272
I16
sa(dp273
g268
I96
sg269
F0.04022216796875
sg270
F0.0005230903625488281
sg271
I14
sg272
I14
sa(dp274
g268
I86
sg269
F6.794929504394531e-05
sg270
F0.00014209747314453125
sg271
I13
sg272
I13
sasS'total_cqs'
p275
I16
ssI24
(dp276
S'iters'
p277
I0
sS'meta'
p278
(lp279
sS'total_cqs'
p280
I1
ssI25
(dp281
S'iters'
p282
I0
sS'meta'
p283
(lp284
sS'total_cqs'
p285
I1
ssI26
(dp286
S'iters'
p287
I1
sS'meta'
p288
(lp289
(dp290
S'objective'
p291
I837
sS'query_time'
p292
F0.1677248477935791
sS'comp_time'
p293
F0.11803317070007324
sS'exec_cq'
p294
I42
sS'total_cq'
p295
I42
sasS'total_cqs'
p296
I42
ssI27
(dp297
S'iters'
p298
I3
sS'meta'
p299
(lp300
(dp301
S'objective'
p302
I281
sS'query_time'
p303
F22.404142141342163
sS'comp_time'
p304
F4.595767021179199
sS'exec_cq'
p305
I30
sS'total_cq'
p306
I30
sa(dp307
g302
I2
sg303
F0.5675230026245117
sg304
F3.657687187194824
sg305
I5
sg306
I5
sa(dp308
g302
I3
sg303
F0.3453049659729004
sg304
F1.9712250232696533
sg305
I2
sg306
I2
sasS'total_cqs'
p309
I30
ssI28
(dp310
S'iters'
p311
I0
sS'meta'
p312
(lp313
sS'total_cqs'
p314
I1
ssI29
(dp315
S'iters'
p316
I5
sS'meta'
p317
(lp318
(dp319
S'objective'
p320
I411
sS'query_time'
p321
F29.221648931503296
sS'comp_time'
p322
F0.7222621440887451
sS'exec_cq'
p323
I35
sS'total_cq'
p324
I49
sa(dp325
g320
I19
sg321
F0.003336191177368164
sg322
F0.011170148849487305
sg323
I16
sg324
I16
sa(dp326
g320
I9
sg321
F0.0023450851440429688
sg322
F0.009471893310546875
sg323
I10
sg324
I10
sa(dp327
g320
I5
sg321
F0.0014851093292236328
sg322
F0.008189916610717773
sg323
I5
sg324
I5
sa(dp328
g320
I23
sg321
F0.0008628368377685547
sg322
F0.005506038665771484
sg323
I2
sg324
I2
sasS'total_cqs'
p329
I49
ssI30
(dp330
S'iters'
p331
I1
sS'meta'
p332
(lp333
(dp334
S'objective'
p335
I1
sS'query_time'
p336
F0.7133278846740723
sS'comp_time'
p337
F0.04251289367675781
sS'exec_cq'
p338
I2
sS'total_cq'
p339
I2
sasS'total_cqs'
p340
I2
ssI31
(dp341
S'iters'
p342
I0
sS'meta'
p343
(lp344
sS'total_cqs'
p345
I1
ssI32
(dp346
S'iters'
p347
I1
sS'meta'
p348
(lp349
(dp350
S'objective'
p351
I1
sS'query_time'
p352
F0.014075994491577148
sS'comp_time'
p353
F0.0028433799743652344
sS'exec_cq'
p354
I2
sS'total_cq'
p355
I2
sasS'total_cqs'
p356
I2
ssI33
(dp357
S'iters'
p358
I5
sS'meta'
p359
(lp360
(dp361
S'objective'
p362
I3728
sS'query_time'
p363
F16.054841995239258
sS'comp_time'
p364
F0.9982619285583496
sS'exec_cq'
p365
I103
sS'total_cq'
p366
I103
sa(dp367
g362
I30
sg363
F0.008543014526367188
sg364
F0.21641206741333008
sg365
I16
sg366
I16
sa(dp368
g362
I18
sg363
F0.0029761791229248047
sg364
F0.013042688369750977
sg365
I8
sg366
I8
sa(dp369
g362
I43
sg363
F0.0008409023284912109
sg364
F0.004728794097900391
sg365
I5
sg366
I5
sa(dp370
g362
I77
sg363
F7.605552673339844e-05
sg364
F0.0006339550018310547
sg365
I2
sg366
I2
sasS'total_cqs'
p371
I103
ssI34
(dp372
S'iters'
p373
I1
sS'meta'
p374
(lp375
(dp376
S'objective'
p377
I1
sS'query_time'
p378
F0.015045881271362305
sS'comp_time'
p379
F0.0015590190887451172
sS'exec_cq'
p380
I2
sS'total_cq'
p381
I2
sasS'total_cqs'
p382
I2
ssI35
(dp383
S'iters'
p384
I5
sS'meta'
p385
(lp386
(dp387
S'objective'
p388
I1271
sS'query_time'
p389
F21.77724313735962
sS'comp_time'
p390
F0.26000094413757324
sS'exec_cq'
p391
I50
sS'total_cq'
p392
I70
sa(dp393
g388
I23
sg389
F0.1838359832763672
sg390
F0.0165102481842041
sg391
I16
sg392
I16
sa(dp394
g388
I3
sg389
F0.002045869827270508
sg390
F0.006066799163818359
sg391
I7
sg392
I7
sa(dp395
g388
I18
sg389
F0.0009970664978027344
sg390
F0.0048847198486328125
sg391
I3
sg392
I3
sa(dp396
g388
I21
sg389
F0.0006868839263916016
sg390
F0.004139900207519531
sg391
I2
sg392
I2
sasS'total_cqs'
p397
I70
ssI36
(dp398
S'iters'
p399
I1
sS'meta'
p400
(lp401
(dp402
S'objective'
p403
I509
sS'query_time'
p404
F0.6311068534851074
sS'comp_time'
p405
F0.1378021240234375
sS'exec_cq'
p406
I28
sS'total_cq'
p407
I33
sasS'total_cqs'
p408
I33
ssI37
(dp409
S'iters'
p410
I1
sS'meta'
p411
(lp412
(dp413
S'objective'
p414
I1
sS'query_time'
p415
F0.012386798858642578
sS'comp_time'
p416
F0.00125885009765625
sS'exec_cq'
p417
I2
sS'total_cq'
p418
I2
sasS'total_cqs'
p419
I2
ssI38
(dp420
S'iters'
p421
I2
sS'meta'
p422
(lp423
(dp424
S'objective'
p425
I0
sS'query_time'
p426
F0.026404857635498047
sS'comp_time'
p427
F0.0031969547271728516
sS'exec_cq'
p428
I4
sS'total_cq'
p429
I4
sa(dp430
g425
I3
sg426
F9.489059448242188e-05
sg427
F0.000446319580078125
sg428
I2
sg429
I2
sasS'total_cqs'
p431
I4
ssI39
(dp432
S'iters'
p433
I2
sS'meta'
p434
(lp435
(dp436
S'objective'
p437
I580
sS'query_time'
p438
F0.1629650592803955
sS'comp_time'
p439
F0.14296364784240723
sS'exec_cq'
p440
I44
sS'total_cq'
p441
I44
sa(dp442
g437
I717
sg438
F0.00032711029052734375
sg439
F0.00199127197265625
sg440
I37
sg441
I37
sasS'total_cqs'
p443
I44
ssI40
(dp444
S'iters'
p445
I1
sS'meta'
p446
(lp447
(dp448
S'objective'
p449
I14
sS'query_time'
p450
F0.03020191192626953
sS'comp_time'
p451
F0.0057675838470458984
sS'exec_cq'
p452
I7
sS'total_cq'
p453
I7
sasS'total_cqs'
p454
I7
ssI41
(dp455
S'iters'
p456
I1
sS'meta'
p457
(lp458
(dp459
S'objective'
p460
I58
sS'query_time'
p461
F0.06693506240844727
sS'comp_time'
p462
F0.015681982040405273
sS'exec_cq'
p463
I12
sS'total_cq'
p464
I12
sasS'total_cqs'
p465
I12
ssI42
(dp466
S'iters'
p467
I2
sS'meta'
p468
(lp469
(dp470
S'objective'
p471
I781
sS'query_time'
p472
F0.054425954818725586
sS'comp_time'
p473
F0.07497477531433105
sS'exec_cq'
p474
I21
sS'total_cq'
p475
I41
sa(dp476
g471
I757
sg472
F9.083747863769531e-05
sg473
F0.0002086162567138672
sg474
I20
sg475
I40
sasS'total_cqs'
p477
I41
ssI43
(dp478
S'iters'
p479
I1
sS'meta'
p480
(lp481
(dp482
S'objective'
p483
I14
sS'query_time'
p484
F0.02661609649658203
sS'comp_time'
p485
F0.005682229995727539
sS'exec_cq'
p486
I7
sS'total_cq'
p487
I7
sasS'total_cqs'
p488
I7
ssI44
(dp489
S'iters'
p490
I4
sS'meta'
p491
(lp492
(dp493
S'objective'
p494
I816
sS'query_time'
p495
F0.14323186874389648
sS'comp_time'
p496
F0.16228938102722168
sS'exec_cq'
p497
I47
sS'total_cq'
p498
I47
sa(dp499
g494
I828
sg495
F0.0003199577331542969
sg496
F0.0016431808471679688
sg497
I40
sg498
I40
sa(dp500
g494
I22
sg495
F0.0013840198516845703
sg496
F0.0018017292022705078
sg497
I3
sg498
I3
sa(dp501
g494
I27
sg495
F0.00011897087097167969
sg496
F0.0007748603820800781
sg497
I2
sg498
I2
sasS'total_cqs'
p502
I47
ssI45
(dp503
S'iters'
p504
I0
sS'meta'
p505
(lp506
sS'total_cqs'
p507
I1
ssI46
(dp508
S'iters'
p509
I1
sS'meta'
p510
(lp511
(dp512
S'objective'
p513
I9
sS'query_time'
p514
F0.01356816291809082
sS'comp_time'
p515
F0.0027272701263427734
sS'exec_cq'
p516
I4
sS'total_cq'
p517
I6
sasS'total_cqs'
p518
I6
ssI47
(dp519
S'iters'
p520
I1
sS'meta'
p521
(lp522
(dp523
S'objective'
p524
I1
sS'query_time'
p525
F0.008996963500976562
sS'comp_time'
p526
F0.001226186752319336
sS'exec_cq'
p527
I2
sS'total_cq'
p528
I2
sasS'total_cqs'
p529
I2
ssI48
(dp530
S'iters'
p531
I0
sS'meta'
p532
(lp533
sS'total_cqs'
p534
I1
ssI49
(dp535
S'iters'
p536
I0
sS'meta'
p537
(lp538
sS'total_cqs'
p539
I1
ssI50
(dp540
S'iters'
p541
I1
sS'meta'
p542
(lp543
(dp544
S'objective'
p545
I5
sS'query_time'
p546
F0.014718055725097656
sS'comp_time'
p547
F0.0026090145111083984
sS'exec_cq'
p548
I5
sS'total_cq'
p549
I5
sasS'total_cqs'
p550
I5
ssI51
(dp551
S'iters'
p552
I1
sS'meta'
p553
(lp554
(dp555
S'objective'
p556
I1
sS'query_time'
p557
F0.022567033767700195
sS'comp_time'
p558
F0.0010700225830078125
sS'exec_cq'
p559
I2
sS'total_cq'
p560
I2
sasS'total_cqs'
p561
I2
ssI52
(dp562
S'iters'
p563
I1
sS'meta'
p564
(lp565
(dp566
S'objective'
p567
I1
sS'query_time'
p568
F0.007072925567626953
sS'comp_time'
p569
F0.0009710788726806641
sS'exec_cq'
p570
I2
sS'total_cq'
p571
I2
sasS'total_cqs'
p572
I2
ssI53
(dp573
S'iters'
p574
I2
sS'meta'
p575
(lp576
(dp577
S'objective'
p578
I0
sS'query_time'
p579
F0.02109980583190918
sS'comp_time'
p580
F0.0032401084899902344
sS'exec_cq'
p581
I4
sS'total_cq'
p582
I4
sa(dp583
g578
I3
sg579
F0.00012493133544921875
sg580
F0.0005867481231689453
sg581
I2
sg582
I2
sasS'total_cqs'
p584
I4
ssI54
(dp585
S'iters'
p586
I2
sS'meta'
p587
(lp588
(dp589
S'objective'
p590
I0
sS'query_time'
p591
F0.011604070663452148
sS'comp_time'
p592
F0.001589059829711914
sS'exec_cq'
p593
I3
sS'total_cq'
p594
I3
sa(dp595
g590
I1
sg591
F3.886222839355469e-05
sg592
F0.00027108192443847656
sg593
I2
sg594
I2
sasS'total_cqs'
p596
I3
ssI55
(dp597
S'iters'
p598
I4
sS'meta'
p599
(lp600
(dp601
S'objective'
p602
I4995
sS'query_time'
p603
F2.621562957763672
sS'comp_time'
p604
F0.7037394046783447
sS'exec_cq'
p605
I109
sS'total_cq'
p606
I109
sa(dp607
g602
I18
sg603
F0.009918928146362305
sg604
F0.04587268829345703
sg605
I10
sg606
I10
sa(dp608
g602
I11
sg603
F0.0004978179931640625
sg604
F0.0014808177947998047
sg605
I4
sg606
I4
sa(dp609
g602
I40
sg603
F0.0002040863037109375
sg604
F0.001203775405883789
sg605
I2
sg606
I2
sasS'total_cqs'
p610
I109
ssI56
(dp611
S'iters'
p612
I5
sS'meta'
p613
(lp614
(dp615
S'objective'
p616
I1494
sS'query_time'
p617
F1.7400469779968262
sS'comp_time'
p618
F0.4228649139404297
sS'exec_cq'
p619
I67
sS'total_cq'
p620
I76
sa(dp621
g616
I8
sg617
F0.019977092742919922
sg618
F0.053009986877441406
sg619
I16
sg620
I16
sa(dp622
g616
I12
sg617
F0.0038640499114990234
sg618
F0.026436805725097656
sg619
I9
sg620
I9
sa(dp623
g616
I17
sg617
F0.014180898666381836
sg618
F0.018518924713134766
sg619
I4
sg620
I4
sa(dp624
g616
I20
sg617
F0.0002880096435546875
sg618
F0.002194643020629883
sg619
I2
sg620
I2
sasS'total_cqs'
p625
I76
ssI57
(dp626
S'iters'
p627
I5
sS'meta'
p628
(lp629
(dp630
S'objective'
p631
I302
sS'query_time'
p632
F22.952656030654907
sS'comp_time'
p633
F0.4059152603149414
sS'exec_cq'
p634
I45
sS'total_cq'
p635
I51
sa(dp636
g631
I42
sg632
F0.0026748180389404297
sg633
F0.008587837219238281
sg634
I27
sg635
I33
sa(dp637
g631
I20
sg632
F0.0024650096893310547
sg633
F0.007281780242919922
sg634
I13
sg635
I13
sa(dp638
g631
I23
sg632
F0.0010268688201904297
sg633
F0.0039000511169433594
sg634
I5
sg635
I5
sa(dp639
g631
I10
sg632
F0.0004591941833496094
sg633
F0.0027930736541748047
sg634
I2
sg635
I2
sasS'total_cqs'
p640
I51
ssI58
(dp641
S'iters'
p642
I6
sS'meta'
p643
(lp644
(dp645
S'objective'
p646
I86897
sS'query_time'
p647
F110.46859788894653
sS'comp_time'
p648
F16.91648817062378
sS'exec_cq'
p649
I348
sS'total_cq'
p650
I486
sa(dp651
g646
I91223
sg647
F0.04268693923950195
sg648
F1.502868890762329
sg649
I276
sg650
I414
sa(dp652
g646
I214
sg647
F0.01820087432861328
sg648
F0.08582520484924316
sg649
I28
sg650
I28
sa(dp653
g646
I76
sg647
F0.007200002670288086
sg648
F0.018556833267211914
sg649
I14
sg650
I14
sa(dp654
g646
I12
sg647
F0.001405954360961914
sg648
F0.00718235969543457
sg649
I4
sg650
I4
sa(dp655
g646
I20
sg647
F0.0014641284942626953
sg648
F0.0058290958404541016
sg649
I2
sg650
I2
sasS'total_cqs'
p656
I486
ssI59
(dp657
S'iters'
p658
I2
sS'meta'
p659
(lp660
(dp661
S'objective'
p662
I2
sS'query_time'
p663
F0.05490589141845703
sS'comp_time'
p664
F0.019741058349609375
sS'exec_cq'
p665
I7
sS'total_cq'
p666
I7
sa(dp667
g662
I1
sg663
F0.00016808509826660156
sg664
F0.0012698173522949219
sg665
I2
sg666
I2
sasS'total_cqs'
p668
I7
ssI60
(dp669
S'iters'
p670
I1
sS'meta'
p671
(lp672
(dp673
S'objective'
p674
I5
sS'query_time'
p675
F0.013858795166015625
sS'comp_time'
p676
F0.0030488967895507812
sS'exec_cq'
p677
I3
sS'total_cq'
p678
I5
sasS'total_cqs'
p679
I5
ssI61
(dp680
S'iters'
p681
I0
sS'meta'
p682
(lp683
sS'total_cqs'
p684
I1
ssI62
(dp685
S'iters'
p686
I2
sS'meta'
p687
(lp688
(dp689
S'objective'
p690
I50
sS'query_time'
p691
F0.030510902404785156
sS'comp_time'
p692
F0.018187999725341797
sS'exec_cq'
p693
I12
sS'total_cq'
p694
I12
sa(dp695
g690
I44
sg691
F4.9114227294921875e-05
sg692
F0.0001671314239501953
sg693
I9
sg694
I9
sasS'total_cqs'
p696
I12
ssI63
(dp697
S'iters'
p698
I0
sS'meta'
p699
(lp700
sS'total_cqs'
p701
I1
ssI64
(dp702
S'iters'
p703
I3
sS'meta'
p704
(lp705
(dp706
S'objective'
p707
I26
sS'query_time'
p708
F0.11264419555664062
sS'comp_time'
p709
F0.23123669624328613
sS'exec_cq'
p710
I12
sS'total_cq'
p711
I12
sa(dp712
g707
I0
sg708
F0.00011110305786132812
sg709
F0.0006778240203857422
sg710
I4
sg711
I4
sa(dp713
g707
I7
sg708
F3.695487976074219e-05
sg709
F0.0002288818359375
sg710
I2
sg711
I2
sasS'total_cqs'
p714
I12
ssI65
(dp715
S'iters'
p716
I3
sS'meta'
p717
(lp718
(dp719
S'objective'
p720
I224
sS'query_time'
p721
F0.647374153137207
sS'comp_time'
p722
F0.3874020576477051
sS'exec_cq'
p723
I27
sS'total_cq'
p724
I27
sa(dp725
g720
I1
sg721
F0.0014798641204833984
sg722
F0.005689144134521484
sg723
I7
sg724
I7
sa(dp726
g720
I6
sg721
F0.00016188621520996094
sg722
F0.0009412765502929688
sg723
I3
sg724
I3
sasS'total_cqs'
p727
I27
ssI66
(dp728
S'iters'
p729
I0
sS'meta'
p730
(lp731
sS'total_cqs'
p732
I1
ssI67
(dp733
S'iters'
p734
I2
sS'meta'
p735
(lp736
(dp737
S'objective'
p738
I506
sS'query_time'
p739
F1.0925521850585938
sS'comp_time'
p740
F0.07934808731079102
sS'exec_cq'
p741
I35
sS'total_cq'
p742
I35
sa(dp743
g738
I6
sg739
F0.0012879371643066406
sg740
F0.007670879364013672
sg741
I2
sg742
I2
sasS'total_cqs'
p744
I35
ssI68
(dp745
S'iters'
p746
I0
sS'meta'
p747
(lp748
sS'total_cqs'
p749
I1
ssI69
(dp750
S'iters'
p751
I1
sS'meta'
p752
(lp753
(dp754
S'objective'
p755
I1246
sS'query_time'
p756
F0.1998729705810547
sS'comp_time'
p757
F0.2033681869506836
sS'exec_cq'
p758
I51
sS'total_cq'
p759
I51
sasS'total_cqs'
p760
I51
ssI70
(dp761
S'iters'
p762
I1
sS'meta'
p763
(lp764
(dp765
S'objective'
p766
I9
sS'query_time'
p767
F0.023723125457763672
sS'comp_time'
p768
F0.002752065658569336
sS'exec_cq'
p769
I6
sS'total_cq'
p770
I6
sasS'total_cqs'
p771
I6
ssI71
(dp772
S'iters'
p773
I5
sS'meta'
p774
(lp775
(dp776
S'objective'
p777
I3181
sS'query_time'
p778
F0.29259395599365234
sS'comp_time'
p779
F0.4761507511138916
sS'exec_cq'
p780
I73
sS'total_cq'
p781
I85
sa(dp782
g777
I3068
sg778
F0.00031113624572753906
sg779
F0.0011301040649414062
sg780
I69
sg781
I81
sa(dp783
g777
I2911
sg778
F0.00022912025451660156
sg779
F0.0009582042694091797
sg780
I65
sg781
I77
sa(dp784
g777
I6
sg778
F0.002115011215209961
sg779
F0.0030579566955566406
sg780
I3
sg781
I3
sa(dp785
g777
I44
sg778
F0.0037069320678710938
sg779
F0.00024700164794921875
sg780
I2
sg781
I2
sasS'total_cqs'
p786
I85
ssI72
(dp787
S'iters'
p788
I3
sS'meta'
p789
(lp790
(dp791
S'objective'
p792
I6
sS'query_time'
p793
F0.31152915954589844
sS'comp_time'
p794
F0.007439851760864258
sS'exec_cq'
p795
I4
sS'total_cq'
p796
I8
sa(dp797
g792
I7
sg793
F0.029439926147460938
sg794
F0.0004067420959472656
sg795
I4
sg796
I5
sa(dp798
g792
I0
sg793
F2.09808349609375e-05
sg794
F9.894371032714844e-05
sg795
I2
sg796
I3
sasS'total_cqs'
p799
I8
ssI73
(dp800
S'iters'
p801
I0
sS'meta'
p802
(lp803
sS'total_cqs'
p804
I1
ssI74
(dp805
S'iters'
p806
I0
sS'meta'
p807
(lp808
sS'total_cqs'
p809
I1
ssI75
(dp810
S'iters'
p811
I1
sS'meta'
p812
(lp813
(dp814
S'objective'
p815
I5
sS'query_time'
p816
F0.013016939163208008
sS'comp_time'
p817
F0.0021729469299316406
sS'exec_cq'
p818
I5
sS'total_cq'
p819
I5
sasS'total_cqs'
p820
I5
ssI76
(dp821
S'iters'
p822
I1
sS'meta'
p823
(lp824
(dp825
S'objective'
p826
I1
sS'query_time'
p827
F0.01184391975402832
sS'comp_time'
p828
F0.0012660026550292969
sS'exec_cq'
p829
I2
sS'total_cq'
p830
I2
sasS'total_cqs'
p831
I2
ssI77
(dp832
S'iters'
p833
I0
sS'meta'
p834
(lp835
sS'total_cqs'
p836
I1
ssI78
(dp837
S'iters'
p838
I0
sS'meta'
p839
(lp840
sS'total_cqs'
p841
I1
ssI103
(dp842
S'iters'
p843
I1
sS'meta'
p844
(lp845
(dp846
S'objective'
p847
I58
sS'query_time'
p848
F0.061989784240722656
sS'comp_time'
p849
F0.024150848388671875
sS'exec_cq'
p850
I12
sS'total_cq'
p851
I12
sasS'total_cqs'
p852
I12
ssI104
(dp853
S'iters'
p854
I2
sS'meta'
p855
(lp856
(dp857
S'objective'
p858
I0
sS'query_time'
p859
F1.33101487159729
sS'comp_time'
p860
F0.16554832458496094
sS'exec_cq'
p861
I4
sS'total_cq'
p862
I4
sa(dp863
g858
I3
sg859
F0.011145830154418945
sg860
F0.15183067321777344
sg861
I2
sg862
I2
sasS'total_cqs'
p864
I4
ssI105
(dp865
S'iters'
p866
I0
sS'meta'
p867
(lp868
sS'total_cqs'
p869
I1
ssI106
(dp870
S'iters'
p871
I1
sS'meta'
p872
(lp873
(dp874
S'objective'
p875
I2
sS'query_time'
p876
F0.024775028228759766
sS'comp_time'
p877
F0.002016782760620117
sS'exec_cq'
p878
I4
sS'total_cq'
p879
I4
sasS'total_cqs'
p880
I4
ssI107
(dp881
S'iters'
p882
I2
sS'meta'
p883
(lp884
(dp885
S'objective'
p886
I82
sS'query_time'
p887
F0.07867693901062012
sS'comp_time'
p888
F0.17283129692077637
sS'exec_cq'
p889
I16
sS'total_cq'
p890
I16
sa(dp891
g886
I1
sg887
F0.005697965621948242
sg888
F0.0004620552062988281
sg889
I3
sg890
I3
sasS'total_cqs'
p892
I16
ssI108
(dp893
S'iters'
p894
I0
sS'meta'
p895
(lp896
sS'total_cqs'
p897
I1
ss.