(dp0
I1
(dp1
S'iters'
p2
I4
sS'meta'
p3
(lp4
(dp5
S'objective'
p6
I52
sS'query_time'
p7
F0.06134986877441406
sS'comp_time'
p8
F0.0004639625549316406
sS'exec_cq'
p9
I12
sS'total_cq'
p10
I12
sa(dp11
g6
I55
sg7
F8.487701416015625e-05
sg8
F0.0001728534698486328
sg9
I10
sg10
I10
sa(dp12
g6
I56
sg7
F5.793571472167969e-05
sg8
F0.0001461505889892578
sg9
I9
sg10
I9
sa(dp13
g6
I56
sg7
F5.316734313964844e-05
sg8
F0.00013017654418945312
sg9
I8
sg10
I8
sasS'total_cqs'
p14
I12
ssI2
(dp15
S'iters'
p16
I8
sS'meta'
p17
(lp18
(dp19
S'objective'
p20
I228
sS'query_time'
p21
F0.13615679740905762
sS'comp_time'
p22
F0.0013980865478515625
sS'exec_cq'
p23
I27
sS'total_cq'
p24
I27
sa(dp25
g20
I237
sg21
F0.00015020370483398438
sg22
F0.0007431507110595703
sg23
I24
sg24
I24
sa(dp26
g20
I208
sg21
F0.0001850128173828125
sg22
F0.0006549358367919922
sg23
I22
sg24
I22
sa(dp27
g20
I187
sg21
F8.893013000488281e-05
sg22
F0.0003437995910644531
sg23
I19
sg24
I19
sa(dp28
g20
I173
sg21
F7.390975952148438e-05
sg22
F0.00022292137145996094
sg23
I18
sg24
I18
sa(dp29
g20
I153
sg21
F6.29425048828125e-05
sg22
F0.0001842975616455078
sg23
I16
sg24
I16
sa(dp30
g20
I167
sg21
F5.1975250244140625e-05
sg22
F0.00014901161193847656
sg23
I14
sg24
I14
sa(dp31
g20
I168
sg21
F4.38690185546875e-05
sg22
F7.486343383789062e-05
sg23
I13
sg24
I13
sasS'total_cqs'
p32
I27
ssI3
(dp33
S'iters'
p34
I4
sS'meta'
p35
(lp36
(dp37
S'objective'
p38
I534
sS'query_time'
p39
F569.0366270542145
sS'comp_time'
p40
F3.289092779159546
sS'exec_cq'
p41
I43
sS'total_cq'
p42
I43
sa(dp43
g38
I340
sg39
F0.606579065322876
sg40
F3.3226230144500732
sg41
I35
sg42
I35
sa(dp44
g38
I356
sg39
F0.5028781890869141
sg40
F2.504718065261841
sg41
I27
sg42
I27
sa(dp45
g38
I446
sg39
F7.700920104980469e-05
sg40
F0.0001270771026611328
sg41
I20
sg42
I20
sasS'total_cqs'
p46
I43
ssI4
(dp47
S'iters'
p48
I2
sS'meta'
p49
(lp50
(dp51
S'objective'
p52
I54
sS'query_time'
p53
F3.984861135482788
sS'comp_time'
p54
F0.9630208015441895
sS'exec_cq'
p55
I11
sS'total_cq'
p56
I11
sa(dp57
g52
I4
sg53
F0.16104602813720703
sg54
F0.7123751640319824
sg55
I2
sg56
I2
sasS'total_cqs'
p58
I11
ssI5
(dp59
S'iters'
p60
I3
sS'meta'
p61
(lp62
(dp63
S'objective'
p64
I0
sS'query_time'
p65
F27.22564697265625
sS'comp_time'
p66
F3.185359001159668
sS'exec_cq'
p67
I8
sS'total_cq'
p68
I8
sa(dp69
g64
I2
sg65
F0.4494340419769287
sg66
F1.605855941772461
sg67
I4
sg68
I4
sa(dp70
g64
I6
sg65
F0.21496891975402832
sg66
F1.0433928966522217
sg67
I2
sg68
I2
sasS'total_cqs'
p71
I8
ssI6
(dp72
S'iters'
p73
I4
sS'meta'
p74
(lp75
(dp76
S'objective'
p77
I29
sS'query_time'
p78
F30.352088928222656
sS'comp_time'
p79
F3.3456778526306152
sS'exec_cq'
p80
I18
sS'total_cq'
p81
I18
sa(dp82
g77
I1
sg78
F0.6863241195678711
sg79
F3.1034178733825684
sg80
I7
sg81
I7
sa(dp83
g77
I7
sg78
F0.30655384063720703
sg79
F1.4598312377929688
sg80
I4
sg81
I4
sa(dp84
g77
I12
sg78
F0.015215158462524414
sg79
F0.22675585746765137
sg80
I2
sg81
I2
sasS'total_cqs'
p85
I18
ssI7
(dp86
S'iters'
p87
I4
sS'meta'
p88
(lp89
(dp90
S'objective'
p91
I1
sS'query_time'
p92
F9.907160997390747
sS'comp_time'
p93
F1.3414478302001953
sS'exec_cq'
p94
I9
sS'total_cq'
p95
I9
sa(dp96
g91
I1
sg92
F0.018644094467163086
sg93
F0.22152185440063477
sg94
I5
sg95
I5
sa(dp97
g91
I6
sg92
F0.01489400863647461
sg93
F0.18083524703979492
sg94
I3
sg95
I3
sa(dp98
g91
I1
sg92
F0.016260862350463867
sg93
F0.17274093627929688
sg94
I2
sg95
I2
sasS'total_cqs'
p99
I9
ssI8
(dp100
S'iters'
p101
I5
sS'meta'
p102
(lp103
(dp104
S'objective'
p105
I190
sS'query_time'
p106
F0.13626503944396973
sS'comp_time'
p107
F0.00156402587890625
sS'exec_cq'
p108
I27
sS'total_cq'
p109
I27
sa(dp110
g105
I178
sg106
F0.00012993812561035156
sg107
F0.0004520416259765625
sg108
I22
sg109
I22
sa(dp111
g105
I201
sg106
F6.4849853515625e-05
sg107
F0.0001251697540283203
sg108
I19
sg109
I19
sa(dp112
g105
I208
sg106
F5.888938903808594e-05
sg107
F0.00010204315185546875
sg108
I18
sg109
I18
sa(dp113
g105
I210
sg106
F5.2928924560546875e-05
sg107
F7.796287536621094e-05
sg108
I17
sg109
I17
sasS'total_cqs'
p114
I27
ssI9
(dp115
S'iters'
p116
I4
sS'meta'
p117
(lp118
(dp119
S'objective'
p120
I2
sS'query_time'
p121
F0.07869911193847656
sS'comp_time'
p122
F0.0003781318664550781
sS'exec_cq'
p123
I7
sS'total_cq'
p124
I7
sa(dp125
g120
I3
sg121
F5.698204040527344e-05
sg122
F0.0002009868621826172
sg123
I5
sg124
I5
sa(dp126
g120
I1
sg121
F6.890296936035156e-05
sg122
F0.00030684471130371094
sg123
I3
sg124
I3
sa(dp127
g120
I2
sg121
F1.5020370483398438e-05
sg122
F8.296966552734375e-05
sg123
I2
sg124
I2
sasS'total_cqs'
p128
I7
ssI10
(dp129
S'iters'
p130
I7
sS'meta'
p131
(lp132
(dp133
S'objective'
p134
I584
sS'query_time'
p135
F0.48634791374206543
sS'comp_time'
p136
F0.009507894515991211
sS'exec_cq'
p137
I51
sS'total_cq'
p138
I51
sa(dp139
g134
I337
sg135
F0.00044798851013183594
sg136
F0.0025272369384765625
sg137
I39
sg138
I39
sa(dp140
g134
I290
sg135
F0.0001811981201171875
sg136
F0.0008511543273925781
sg137
I25
sg138
I25
sa(dp141
g134
I372
sg135
F9.703636169433594e-05
sg136
F0.00040030479431152344
sg137
I21
sg138
I21
sa(dp142
g134
I338
sg135
F8.702278137207031e-05
sg136
F0.00039196014404296875
sg137
I20
sg138
I20
sa(dp143
g134
I27
sg135
F2.4080276489257812e-05
sg136
F0.0001227855682373047
sg137
I3
sg138
I3
sa(dp144
g134
I32
sg135
F1.1920928955078125e-05
sg136
F7.200241088867188e-05
sg137
I2
sg138
I2
sasS'total_cqs'
p145
I51
ssI11
(dp146
S'iters'
p147
I6
sS'meta'
p148
(lp149
(dp150
S'objective'
p151
I1168
sS'query_time'
p152
F0.5749809741973877
sS'comp_time'
p153
F0.02218914031982422
sS'exec_cq'
p154
I63
sS'total_cq'
p155
I63
sa(dp156
g151
I1030
sg152
F0.0011970996856689453
sg153
F0.006484031677246094
sg154
I47
sg155
I47
sa(dp157
g151
I21
sg152
F0.00022292137145996094
sg153
F0.0016148090362548828
sg154
I9
sg155
I9
sa(dp158
g151
I9
sg152
F0.00014400482177734375
sg153
F0.0014719963073730469
sg154
I5
sg155
I5
sa(dp159
g151
I14
sg152
F2.8848648071289062e-05
sg153
F0.00015282630920410156
sg154
I3
sg155
I3
sa(dp160
g151
I45
sg152
F1.5020370483398438e-05
sg153
F8.392333984375e-05
sg154
I2
sg155
I2
sasS'total_cqs'
p161
I63
ssI12
(dp162
S'iters'
p163
I9
sS'meta'
p164
(lp165
(dp166
S'objective'
p167
I351
sS'query_time'
p168
F0.4588460922241211
sS'comp_time'
p169
F0.006545066833496094
sS'exec_cq'
p170
I50
sS'total_cq'
p171
I50
sa(dp172
g167
I493
sg168
F0.0004010200500488281
sg169
F0.003000974655151367
sg170
I33
sg171
I33
sa(dp173
g167
I487
sg168
F0.00013685226440429688
sg169
F0.0006251335144042969
sg170
I26
sg171
I26
sa(dp174
g167
I466
sg168
F0.00010991096496582031
sg169
F0.0003750324249267578
sg170
I23
sg171
I23
sa(dp175
g167
I416
sg168
F9.894371032714844e-05
sg169
F0.00039505958557128906
sg170
I21
sg171
I21
sa(dp176
g167
I367
sg168
F8.797645568847656e-05
sg169
F0.00030517578125
sg170
I19
sg171
I19
sa(dp177
g167
I347
sg168
F8.296966552734375e-05
sg169
F0.00029587745666503906
sg170
I18
sg171
I18
sa(dp178
g167
I322
sg168
F5.3882598876953125e-05
sg169
F0.00010275840759277344
sg170
I17
sg171
I17
sa(dp179
g167
I28
sg168
F2.5033950805664062e-05
sg169
F0.00011277198791503906
sg170
I3
sg171
I3
sasS'total_cqs'
p180
I50
ssI13
(dp181
S'iters'
p182
I6
sS'meta'
p183
(lp184
(dp185
S'objective'
p186
I14
sS'query_time'
p187
F0.2445240020751953
sS'comp_time'
p188
F0.0005121231079101562
sS'exec_cq'
p189
I20
sS'total_cq'
p190
I20
sa(dp191
g186
I24
sg187
F0.0001220703125
sg188
F0.00035691261291503906
sg189
I11
sg190
I11
sa(dp192
g186
I10
sg187
F3.409385681152344e-05
sg188
F0.00028705596923828125
sg189
I6
sg190
I6
sa(dp193
g186
I1
sg187
F2.193450927734375e-05
sg188
F0.000102996826171875
sg189
I4
sg190
I4
sa(dp194
g186
I1
sg187
F1.6927719116210938e-05
sg188
F9.107589721679688e-05
sg189
I3
sg190
I3
sa(dp195
g186
I2
sg187
F1.2874603271484375e-05
sg188
F0.0001418590545654297
sg189
I2
sg190
I2
sasS'total_cqs'
p196
I20
ssI14
(dp197
S'iters'
p198
I3
sS'meta'
p199
(lp200
(dp201
S'objective'
p202
I1
sS'query_time'
p203
F27.183982849121094
sS'comp_time'
p204
F1.5113067626953125
sS'exec_cq'
p205
I9
sS'total_cq'
p206
I9
sa(dp207
g202
I2
sg203
F0.3207249641418457
sg204
F1.4037730693817139
sg205
I4
sg206
I4
sa(dp208
g202
I8
sg203
F0.14521503448486328
sg204
F0.8117742538452148
sg205
I2
sg206
I2
sasS'total_cqs'
p209
I9
ssI15
(dp210
S'iters'
p211
I3
sS'meta'
p212
(lp213
(dp214
S'objective'
p215
I0
sS'query_time'
p216
F3.2173049449920654
sS'comp_time'
p217
F0.24131488800048828
sS'exec_cq'
p218
I11
sS'total_cq'
p219
I11
sa(dp220
g215
I9
sg216
F0.013498067855834961
sg217
F0.1133880615234375
sg218
I6
sg219
I6
sa(dp221
g215
I10
sg216
F0.008297920227050781
sg217
F0.10871601104736328
sg218
I2
sg219
I2
sasS'total_cqs'
p222
I11
ssI16
(dp223
S'iters'
p224
I1
sS'meta'
p225
(lp226
(dp227
S'objective'
p228
I34
sS'query_time'
p229
F0.023513078689575195
sS'comp_time'
p230
F0.0001709461212158203
sS'exec_cq'
p231
I8
sS'total_cq'
p232
I8
sasS'total_cqs'
p233
I8
ssI17
(dp234
S'iters'
p235
I4
sS'meta'
p236
(lp237
(dp238
S'objective'
p239
I0
sS'query_time'
p240
F0.9338150024414062
sS'comp_time'
p241
F0.02852010726928711
sS'exec_cq'
p242
I11
sS'total_cq'
p243
I11
sa(dp244
g239
I15
sg240
F0.00012993812561035156
sg241
F0.0009572505950927734
sg242
I5
sg243
I5
sa(dp245
g239
I8
sg240
F9.202957153320312e-05
sg241
F0.0009827613830566406
sg242
I4
sg243
I4
sa(dp246
g239
I14
sg240
F8.511543273925781e-05
sg241
F0.0008459091186523438
sg242
I3
sg243
I3
sasS'total_cqs'
p247
I11
ssI18
(dp248
S'iters'
p249
I4
sS'meta'
p250
(lp251
(dp252
S'objective'
p253
I18
sS'query_time'
p254
F0.3623971939086914
sS'comp_time'
p255
F0.007275104522705078
sS'exec_cq'
p256
I11
sS'total_cq'
p257
I11
sa(dp258
g253
I22
sg254
F0.00023698806762695312
sg255
F0.0018918514251708984
sg256
I8
sg257
I8
sa(dp259
g253
I22
sg254
F5.316734313964844e-05
sg255
F0.00036215782165527344
sg256
I7
sg257
I7
sa(dp260
g253
I25
sg254
F3.1948089599609375e-05
sg255
F0.00013780593872070312
sg256
I6
sg257
I6
sasS'total_cqs'
p261
I11
ssI19
(dp262
S'iters'
p263
I0
sS'meta'
p264
(lp265
sS'total_cqs'
p266
I1
ssI20
(dp267
S'iters'
p268
I0
sS'meta'
p269
(lp270
sS'total_cqs'
p271
I1
ssI21
(dp272
S'iters'
p273
I0
sS'meta'
p274
(lp275
sS'total_cqs'
p276
I1
ssI22
(dp277
S'iters'
p278
I1
sS'meta'
p279
(lp280
(dp281
S'objective'
p282
I169
sS'query_time'
p283
F0.10720491409301758
sS'comp_time'
p284
F0.000308990478515625
sS'exec_cq'
p285
I18
sS'total_cq'
p286
I18
sasS'total_cqs'
p287
I18
ssI23
(dp288
S'iters'
p289
I3
sS'meta'
p290
(lp291
(dp292
S'objective'
p293
I82
sS'query_time'
p294
F0.053874969482421875
sS'comp_time'
p295
F0.001180887222290039
sS'exec_cq'
p296
I16
sS'total_cq'
p297
I16
sa(dp298
g293
I103
sg294
F0.00014710426330566406
sg295
F0.0006670951843261719
sg296
I14
sg297
I14
sa(dp299
g293
I104
sg294
F5.698204040527344e-05
sg295
F9.298324584960938e-05
sg296
I13
sg297
I13
sasS'total_cqs'
p300
I16
ssI24
(dp301
S'iters'
p302
I0
sS'meta'
p303
(lp304
sS'total_cqs'
p305
I1
ssI25
(dp306
S'iters'
p307
I0
sS'meta'
p308
(lp309
sS'total_cqs'
p310
I1
ssI26
(dp311
S'iters'
p312
I1
sS'meta'
p313
(lp314
(dp315
S'objective'
p316
I901
sS'query_time'
p317
F0.16491913795471191
sS'comp_time'
p318
F0.0002181529998779297
sS'exec_cq'
p319
I42
sS'total_cq'
p320
I42
sasS'total_cqs'
p321
I42
ssI27
(dp322
S'iters'
p323
I4
sS'meta'
p324
(lp325
(dp326
S'objective'
p327
I287
sS'query_time'
p328
F17.573421955108643
sS'comp_time'
p329
F3.0992021560668945
sS'exec_cq'
p330
I30
sS'total_cq'
p331
I30
sa(dp332
g327
I5
sg328
F0.5913650989532471
sg329
F3.8937060832977295
sg330
I5
sg331
I5
sa(dp333
g327
I14
sg328
F0.08409690856933594
sg329
F1.2205450534820557
sg330
I3
sg331
I3
sa(dp334
g327
I12
sg328
F0.18375802040100098
sg329
F0.7702200412750244
sg330
I2
sg331
I2
sasS'total_cqs'
p335
I30
ssI28
(dp336
S'iters'
p337
I0
sS'meta'
p338
(lp339
sS'total_cqs'
p340
I1
ssI29
(dp341
S'iters'
p342
I7
sS'meta'
p343
(lp344
(dp345
S'objective'
p346
I415
sS'query_time'
p347
F139.9762568473816
sS'comp_time'
p348
F22.53507900238037
sS'exec_cq'
p349
I49
sS'total_cq'
p350
I49
sa(dp351
g346
I37
sg347
F0.02096414566040039
sg348
F0.07561993598937988
sg349
I17
sg350
I17
sa(dp352
g346
I0
sg347
F0.0013880729675292969
sg348
F0.008413314819335938
sg349
I9
sg350
I9
sa(dp353
g346
I10
sg347
F0.001486063003540039
sg348
F0.008381843566894531
sg349
I7
sg350
I7
sa(dp354
g346
I1
sg347
F0.000949859619140625
sg348
F0.008066892623901367
sg349
I6
sg350
I6
sa(dp355
g346
I4
sg347
F0.0013539791107177734
sg348
F0.006545066833496094
sg349
I3
sg350
I3
sa(dp356
g346
I9
sg347
F0.0005788803100585938
sg348
F0.005461215972900391
sg349
I2
sg350
I2
sasS'total_cqs'
p357
I49
ssI30
(dp358
S'iters'
p359
I1
sS'meta'
p360
(lp361
(dp362
S'objective'
p363
I1
sS'query_time'
p364
F0.7801558971405029
sS'comp_time'
p365
F0.04053211212158203
sS'exec_cq'
p366
I2
sS'total_cq'
p367
I2
sasS'total_cqs'
p368
I2
ssI31
(dp369
S'iters'
p370
I0
sS'meta'
p371
(lp372
sS'total_cqs'
p373
I1
ssI32
(dp374
S'iters'
p375
I1
sS'meta'
p376
(lp377
(dp378
S'objective'
p379
I1
sS'query_time'
p380
F0.3767509460449219
sS'comp_time'
p381
F0.00041294097900390625
sS'exec_cq'
p382
I2
sS'total_cq'
p383
I2
sasS'total_cqs'
p384
I2
ssI33
(dp385
S'iters'
p386
I6
sS'meta'
p387
(lp388
(dp389
S'objective'
p390
I3744
sS'query_time'
p391
F14.13071322441101
sS'comp_time'
p392
F0.18131113052368164
sS'exec_cq'
p393
I103
sS'total_cq'
p394
I103
sa(dp395
g390
I10
sg391
F0.00813913345336914
sg392
F0.029621124267578125
sg393
I16
sg394
I16
sa(dp396
g390
I24
sg391
F0.0029480457305908203
sg392
F0.016067981719970703
sg393
I8
sg394
I8
sa(dp397
g390
I43
sg391
F0.0004658699035644531
sg392
F0.004171848297119141
sg393
I4
sg394
I4
sa(dp398
g390
I13
sg391
F0.0003859996795654297
sg392
F0.003998279571533203
sg393
I3
sg394
I3
sa(dp399
g390
I49
sg391
F0.00014591217041015625
sg392
F0.0015349388122558594
sg393
I2
sg394
I2
sasS'total_cqs'
p400
I103
ssI34
(dp401
S'iters'
p402
I1
sS'meta'
p403
(lp404
(dp405
S'objective'
p406
I1
sS'query_time'
p407
F0.023951053619384766
sS'comp_time'
p408
F0.0008058547973632812
sS'exec_cq'
p409
I2
sS'total_cq'
p410
I2
sasS'total_cqs'
p411
I2
ssI35
(dp412
S'iters'
p413
I6
sS'meta'
p414
(lp415
(dp416
S'objective'
p417
I1575
sS'query_time'
p418
F252.6163511276245
sS'comp_time'
p419
F28.18132209777832
sS'exec_cq'
p420
I70
sS'total_cq'
p421
I70
sa(dp422
g417
I45
sg418
F0.004716157913208008
sg419
F0.01781606674194336
sg420
I16
sg421
I16
sa(dp423
g417
I28
sg418
F0.0021469593048095703
sg419
F0.011816024780273438
sg420
I10
sg421
I10
sa(dp424
g417
I7
sg418
F0.001402139663696289
sg419
F0.00830698013305664
sg420
I5
sg421
I5
sa(dp425
g417
I52
sg418
F0.0009288787841796875
sg419
F0.007687807083129883
sg420
I3
sg421
I3
sa(dp426
g417
I5
sg418
F0.00028586387634277344
sg419
F0.0028862953186035156
sg420
I2
sg421
I2
sasS'total_cqs'
p427
I70
ssI36
(dp428
S'iters'
p429
I5
sS'meta'
p430
(lp431
(dp432
S'objective'
p433
I413
sS'query_time'
p434
F0.9203779697418213
sS'comp_time'
p435
F0.03858685493469238
sS'exec_cq'
p436
I33
sS'total_cq'
p437
I33
sa(dp438
g433
I403
sg434
F0.003406047821044922
sg435
F0.048124074935913086
sg436
I29
sg437
I29
sa(dp439
g433
I403
sg434
F0.001516103744506836
sg435
F0.010403871536254883
sg436
I25
sg437
I25
sa(dp440
g433
I388
sg434
F0.0008831024169921875
sg435
F0.007003068923950195
sg436
I24
sg437
I24
sa(dp441
g433
I404
sg434
F9.083747863769531e-05
sg435
F0.0004010200500488281
sg436
I23
sg437
I23
sasS'total_cqs'
p442
I33
ssI37
(dp443
S'iters'
p444
I1
sS'meta'
p445
(lp446
(dp447
S'objective'
p448
I1
sS'query_time'
p449
F0.007409095764160156
sS'comp_time'
p450
F0.0005309581756591797
sS'exec_cq'
p451
I2
sS'total_cq'
p452
I2
sasS'total_cqs'
p453
I2
ssI38
(dp454
S'iters'
p455
I2
sS'meta'
p456
(lp457
(dp458
S'objective'
p459
I0
sS'query_time'
p460
F0.036685943603515625
sS'comp_time'
p461
F0.0009028911590576172
sS'exec_cq'
p462
I4
sS'total_cq'
p463
I4
sa(dp464
g459
I3
sg460
F9.918212890625e-05
sg461
F0.0006029605865478516
sg462
I2
sg463
I2
sasS'total_cqs'
p465
I4
ssI39
(dp466
S'iters'
p467
I2
sS'meta'
p468
(lp469
(dp470
S'objective'
p471
I700
sS'query_time'
p472
F0.12946200370788574
sS'comp_time'
p473
F0.0068359375
sS'exec_cq'
p474
I44
sS'total_cq'
p475
I44
sa(dp476
g471
I843
sg472
F0.00038695335388183594
sg473
F0.0020341873168945312
sg474
I37
sg475
I37
sasS'total_cqs'
p477
I44
ssI40
(dp478
S'iters'
p479
I1
sS'meta'
p480
(lp481
(dp482
S'objective'
p483
I26
sS'query_time'
p484
F0.046083927154541016
sS'comp_time'
p485
F0.0003352165222167969
sS'exec_cq'
p486
I7
sS'total_cq'
p487
I7
sasS'total_cqs'
p488
I7
ssI41
(dp489
S'iters'
p490
I2
sS'meta'
p491
(lp492
(dp493
S'objective'
p494
I70
sS'query_time'
p495
F0.11565399169921875
sS'comp_time'
p496
F0.00020313262939453125
sS'exec_cq'
p497
I12
sS'total_cq'
p498
I12
sa(dp499
g494
I72
sg495
F6.890296936035156e-05
sg496
F0.00011706352233886719
sg497
I11
sg498
I11
sasS'total_cqs'
p500
I12
ssI42
(dp501
S'iters'
p502
I4
sS'meta'
p503
(lp504
(dp505
S'objective'
p506
I791
sS'query_time'
p507
F0.07088303565979004
sS'comp_time'
p508
F0.0002219676971435547
sS'exec_cq'
p509
I41
sS'total_cq'
p510
I41
sa(dp511
g506
I804
sg507
F0.0002110004425048828
sg508
F0.00016808509826660156
sg509
I40
sg510
I40
sa(dp512
g506
I807
sg507
F0.0001571178436279297
sg508
F0.00015878677368164062
sg509
I39
sg510
I39
sa(dp513
g506
I809
sg507
F0.00014495849609375
sg508
F0.00012087821960449219
sg509
I38
sg510
I38
sasS'total_cqs'
p514
I41
ssI43
(dp515
S'iters'
p516
I1
sS'meta'
p517
(lp518
(dp519
S'objective'
p520
I26
sS'query_time'
p521
F0.02450704574584961
sS'comp_time'
p522
F0.00010919570922851562
sS'exec_cq'
p523
I7
sS'total_cq'
p524
I7
sasS'total_cqs'
p525
I7
ssI44
(dp526
S'iters'
p527
I4
sS'meta'
p528
(lp529
(dp530
S'objective'
p531
I684
sS'query_time'
p532
F0.09131407737731934
sS'comp_time'
p533
F0.0019011497497558594
sS'exec_cq'
p534
I47
sS'total_cq'
p535
I47
sa(dp536
g531
I772
sg532
F0.0002989768981933594
sg533
F0.001230001449584961
sg534
I40
sg535
I40
sa(dp537
g531
I13
sg532
F8.392333984375e-05
sg533
F0.0040760040283203125
sg534
I3
sg535
I3
sa(dp538
g531
I25
sg532
F2.193450927734375e-05
sg533
F0.00013208389282226562
sg534
I2
sg535
I2
sasS'total_cqs'
p539
I47
ssI45
(dp540
S'iters'
p541
I0
sS'meta'
p542
(lp543
sS'total_cqs'
p544
I1
ssI46
(dp545
S'iters'
p546
I3
sS'meta'
p547
(lp548
(dp549
S'objective'
p550
I11
sS'query_time'
p551
F0.014302968978881836
sS'comp_time'
p552
F0.0004799365997314453
sS'exec_cq'
p553
I6
sS'total_cq'
p554
I6
sa(dp555
g550
I8
sg551
F3.409385681152344e-05
sg552
F0.00010895729064941406
sg553
I5
sg554
I5
sa(dp556
g550
I10
sg551
F2.288818359375e-05
sg552
F8.821487426757812e-05
sg553
I4
sg554
I4
sasS'total_cqs'
p557
I6
ssI47
(dp558
S'iters'
p559
I1
sS'meta'
p560
(lp561
(dp562
S'objective'
p563
I1
sS'query_time'
p564
F0.0075740814208984375
sS'comp_time'
p565
F0.0008559226989746094
sS'exec_cq'
p566
I2
sS'total_cq'
p567
I2
sasS'total_cqs'
p568
I2
ssI48
(dp569
S'iters'
p570
I0
sS'meta'
p571
(lp572
sS'total_cqs'
p573
I1
ssI49
(dp574
S'iters'
p575
I0
sS'meta'
p576
(lp577
sS'total_cqs'
p578
I1
ssI50
(dp579
S'iters'
p580
I4
sS'meta'
p581
(lp582
(dp583
S'objective'
p584
I5
sS'query_time'
p585
F0.011497974395751953
sS'comp_time'
p586
F0.00017881393432617188
sS'exec_cq'
p587
I5
sS'total_cq'
p588
I5
sa(dp589
g584
I2
sg585
F2.5987625122070312e-05
sg586
F0.0001270771026611328
sg587
I4
sg588
I4
sa(dp590
g584
I0
sg585
F1.5974044799804688e-05
sg586
F9.083747863769531e-05
sg587
I3
sg588
I3
sa(dp591
g584
I1
sg585
F1.1920928955078125e-05
sg586
F9.72747802734375e-05
sg587
I2
sg588
I2
sasS'total_cqs'
p592
I5
ssI51
(dp593
S'iters'
p594
I1
sS'meta'
p595
(lp596
(dp597
S'objective'
p598
I1
sS'query_time'
p599
F0.27394700050354004
sS'comp_time'
p600
F0.0002491474151611328
sS'exec_cq'
p601
I2
sS'total_cq'
p602
I2
sasS'total_cqs'
p603
I2
ssI52
(dp604
S'iters'
p605
I1
sS'meta'
p606
(lp607
(dp608
S'objective'
p609
I1
sS'query_time'
p610
F0.25892090797424316
sS'comp_time'
p611
F0.0003027915954589844
sS'exec_cq'
p612
I2
sS'total_cq'
p613
I2
sasS'total_cqs'
p614
I2
ssI53
(dp615
S'iters'
p616
I2
sS'meta'
p617
(lp618
(dp619
S'objective'
p620
I0
sS'query_time'
p621
F0.0491480827331543
sS'comp_time'
p622
F0.0011560916900634766
sS'exec_cq'
p623
I4
sS'total_cq'
p624
I4
sa(dp625
g620
I3
sg621
F0.00011587142944335938
sg622
F0.0009796619415283203
sg623
I2
sg624
I2
sasS'total_cqs'
p626
I4
ssI54
(dp627
S'iters'
p628
I2
sS'meta'
p629
(lp630
(dp631
S'objective'
p632
I0
sS'query_time'
p633
F0.009295940399169922
sS'comp_time'
p634
F0.0005130767822265625
sS'exec_cq'
p635
I3
sS'total_cq'
p636
I3
sa(dp637
g632
I1
sg633
F0.00010919570922851562
sg634
F0.0004241466522216797
sg635
I2
sg636
I2
sasS'total_cqs'
p638
I3
ssI55
(dp639
S'iters'
p640
I9
sS'meta'
p641
(lp642
(dp643
S'objective'
p644
I4727
sS'query_time'
p645
F2.380936861038208
sS'comp_time'
p646
F0.04973006248474121
sS'exec_cq'
p647
I109
sS'total_cq'
p648
I109
sa(dp649
g644
I4305
sg645
F0.0006940364837646484
sg646
F0.0024318695068359375
sg647
I97
sg648
I97
sa(dp650
g644
I4589
sg645
F0.00030493736267089844
sg646
F0.001155853271484375
sg647
I91
sg648
I91
sa(dp651
g644
I4509
sg645
F0.00028705596923828125
sg646
F0.0012791156768798828
sg647
I87
sg648
I87
sa(dp652
g644
I4428
sg645
F0.00028514862060546875
sg646
F0.001046895980834961
sg647
I85
sg648
I85
sa(dp653
g644
I4405
sg645
F0.00025391578674316406
sg646
F0.0008051395416259766
sg647
I83
sg648
I83
sa(dp654
g644
I4362
sg645
F0.00023794174194335938
sg646
F0.0008208751678466797
sg647
I81
sg648
I81
sa(dp655
g644
I4316
sg645
F0.00023794174194335938
sg646
F0.0006520748138427734
sg647
I80
sg648
I80
sa(dp656
g644
I4362
sg645
F0.0002300739288330078
sg646
F0.0006353855133056641
sg647
I79
sg648
I79
sasS'total_cqs'
p657
I109
ssI56
(dp658
S'iters'
p659
I6
sS'meta'
p660
(lp661
(dp662
S'objective'
p663
I1770
sS'query_time'
p664
F3.3129420280456543
sS'comp_time'
p665
F0.23585009574890137
sS'exec_cq'
p666
I76
sS'total_cq'
p667
I76
sa(dp668
g663
I4
sg664
F0.0051860809326171875
sg665
F0.014883995056152344
sg666
I16
sg667
I16
sa(dp669
g663
I1
sg664
F0.0026400089263916016
sg665
F0.008931159973144531
sg666
I9
sg667
I9
sa(dp670
g663
I6
sg664
F0.00027298927307128906
sg665
F0.0020830631256103516
sg666
I4
sg667
I4
sa(dp671
g663
I13
sg664
F0.00017595291137695312
sg665
F0.0017158985137939453
sg666
I3
sg667
I3
sa(dp672
g663
I26
sg664
F9.799003601074219e-05
sg665
F0.0009188652038574219
sg666
I2
sg667
I2
sasS'total_cqs'
p673
I76
ssI57
(dp674
S'iters'
p675
I7
sS'meta'
p676
(lp677
(dp678
S'objective'
p679
I2
sS'query_time'
p680
F69.07107901573181
sS'comp_time'
p681
F5.762389898300171
sS'exec_cq'
p682
I51
sS'total_cq'
p683
I51
sa(dp684
g679
I50
sg680
F0.017964839935302734
sg681
F0.046267032623291016
sg682
I31
sg683
I31
sa(dp685
g679
I0
sg680
F0.015614986419677734
sg681
F0.044548988342285156
sg682
I16
sg683
I16
sa(dp686
g679
I7
sg680
F0.003984928131103516
sg681
F0.018923044204711914
sg682
I6
sg683
I6
sa(dp687
g679
I5
sg680
F0.0020530223846435547
sg681
F0.0171968936920166
sg682
I4
sg683
I4
sa(dp688
g679
I8
sg680
F0.0009999275207519531
sg681
F0.006400108337402344
sg682
I3
sg683
I3
sa(dp689
g679
I11
sg680
F0.0006740093231201172
sg681
F0.006167888641357422
sg682
I2
sg683
I2
sasS'total_cqs'
p690
I51
ssI58
(dp691
S'iters'
p692
I7
sS'meta'
p693
(lp694
(dp695
S'objective'
p696
I84257
sS'query_time'
p697
F523.0287752151489
sS'comp_time'
p698
F41.66694092750549
sS'exec_cq'
p699
I486
sS'total_cq'
p700
I486
sa(dp701
g696
I87307
sg697
F10.888710021972656
sg698
F41.10917901992798
sg699
I414
sg700
I414
sa(dp702
g696
I62
sg697
F0.006412029266357422
sg698
F0.027470827102661133
sg699
I24
sg700
I24
sa(dp703
g696
I167
sg697
F0.000759124755859375
sg698
F0.003398895263671875
sg699
I12
sg700
I12
sa(dp704
g696
I122
sg697
F0.00022101402282714844
sg698
F0.0018117427825927734
sg699
I6
sg700
I6
sa(dp705
g696
I37
sg697
F0.0001659393310546875
sg698
F0.0016689300537109375
sg699
I3
sg700
I3
sa(dp706
g696
I411
sg697
F0.00014281272888183594
sg698
F0.0014998912811279297
sg699
I2
sg700
I2
sasS'total_cqs'
p707
I486
ssI59
(dp708
S'iters'
p709
I2
sS'meta'
p710
(lp711
(dp712
S'objective'
p713
I14
sS'query_time'
p714
F0.04631996154785156
sS'comp_time'
p715
F0.0016291141510009766
sS'exec_cq'
p716
I7
sS'total_cq'
p717
I7
sa(dp718
g713
I5
sg714
F0.0001418590545654297
sg715
F0.0047321319580078125
sg716
I2
sg717
I2
sasS'total_cqs'
p719
I7
ssI60
(dp720
S'iters'
p721
I4
sS'meta'
p722
(lp723
(dp724
S'objective'
p725
I5
sS'query_time'
p726
F0.016254901885986328
sS'comp_time'
p727
F0.0007290840148925781
sS'exec_cq'
p728
I5
sS'total_cq'
p729
I5
sa(dp730
g725
I4
sg726
F3.910064697265625e-05
sg727
F0.0001933574676513672
sg728
I4
sg729
I4
sa(dp731
g725
I3
sg726
F2.8133392333984375e-05
sg727
F0.000164031982421875
sg728
I3
sg729
I3
sa(dp732
g725
I3
sg726
F1.7881393432617188e-05
sg727
F0.00011181831359863281
sg728
I2
sg729
I2
sasS'total_cqs'
p733
I5
ssI61
(dp734
S'iters'
p735
I0
sS'meta'
p736
(lp737
sS'total_cqs'
p738
I1
ssI62
(dp739
S'iters'
p740
I3
sS'meta'
p741
(lp742
(dp743
S'objective'
p744
I54
sS'query_time'
p745
F0.02799701690673828
sS'comp_time'
p746
F0.00026988983154296875
sS'exec_cq'
p747
I12
sS'total_cq'
p748
I12
sa(dp749
g744
I44
sg745
F6.29425048828125e-05
sg746
F0.000186920166015625
sg747
I11
sg748
I11
sa(dp750
g744
I53
sg745
F2.8848648071289062e-05
sg746
F8.58306884765625e-05
sg747
I8
sg748
I8
sasS'total_cqs'
p751
I12
ssI63
(dp752
S'iters'
p753
I0
sS'meta'
p754
(lp755
sS'total_cqs'
p756
I1
ssI64
(dp757
S'iters'
p758
I3
sS'meta'
p759
(lp760
(dp761
S'objective'
p762
I28
sS'query_time'
p763
F0.12861108779907227
sS'comp_time'
p764
F0.00516200065612793
sS'exec_cq'
p765
I12
sS'total_cq'
p766
I12
sa(dp767
g762
I1
sg763
F9.202957153320312e-05
sg764
F0.0005710124969482422
sg765
I4
sg766
I4
sa(dp768
g762
I11
sg763
F2.288818359375e-05
sg764
F0.00017118453979492188
sg765
I2
sg766
I2
sasS'total_cqs'
p769
I12
ssI65
(dp770
S'iters'
p771
I5
sS'meta'
p772
(lp773
(dp774
S'objective'
p775
I234
sS'query_time'
p776
F0.7645199298858643
sS'comp_time'
p777
F0.05761575698852539
sS'exec_cq'
p778
I27
sS'total_cq'
p779
I27
sa(dp780
g775
I0
sg776
F0.0011839866638183594
sg777
F0.00727391242980957
sg778
I7
sg779
I7
sa(dp781
g775
I10
sg776
F0.00036215782165527344
sg777
F0.0034189224243164062
sg778
I4
sg779
I4
sa(dp782
g775
I1
sg776
F0.0002818107604980469
sg777
F0.003034830093383789
sg778
I3
sg779
I3
sa(dp783
g775
I4
sg776
F0.0002269744873046875
sg777
F0.0023660659790039062
sg778
I2
sg779
I2
sasS'total_cqs'
p784
I27
ssI66
(dp785
S'iters'
p786
I0
sS'meta'
p787
(lp788
sS'total_cqs'
p789
I1
ssI67
(dp790
S'iters'
p791
I2
sS'meta'
p792
(lp793
(dp794
S'objective'
p795
I568
sS'query_time'
p796
F1.356740951538086
sS'comp_time'
p797
F0.010622262954711914
sS'exec_cq'
p798
I35
sS'total_cq'
p799
I35
sa(dp800
g795
I29
sg796
F0.0016660690307617188
sg797
F0.008884906768798828
sg798
I2
sg799
I2
sasS'total_cqs'
p801
I35
ssI68
(dp802
S'iters'
p803
I0
sS'meta'
p804
(lp805
sS'total_cqs'
p806
I1
ssI69
(dp807
S'iters'
p808
I1
sS'meta'
p809
(lp810
(dp811
S'objective'
p812
I1324
sS'query_time'
p813
F0.14739108085632324
sS'comp_time'
p814
F0.0003390312194824219
sS'exec_cq'
p815
I51
sS'total_cq'
p816
I51
sasS'total_cqs'
p817
I51
ssI70
(dp818
S'iters'
p819
I4
sS'meta'
p820
(lp821
(dp822
S'objective'
p823
I11
sS'query_time'
p824
F0.011667013168334961
sS'comp_time'
p825
F0.0003077983856201172
sS'exec_cq'
p826
I6
sS'total_cq'
p827
I6
sa(dp828
g823
I10
sg824
F4.1961669921875e-05
sg825
F0.0002741813659667969
sg826
I5
sg827
I5
sa(dp829
g823
I9
sg824
F3.600120544433594e-05
sg825
F0.0002410411834716797
sg826
I4
sg827
I4
sa(dp830
g823
I9
sg824
F3.0040740966796875e-05
sg825
F0.00022077560424804688
sg826
I3
sg827
I3
sasS'total_cqs'
p831
I6
ssI71
(dp832
S'iters'
p833
I8
sS'meta'
p834
(lp835
(dp836
S'objective'
p837
I3325
sS'query_time'
p838
F0.30524492263793945
sS'comp_time'
p839
F0.0010211467742919922
sS'exec_cq'
p840
I85
sS'total_cq'
p841
I85
sa(dp842
g837
I3198
sg838
F0.0003590583801269531
sg839
F0.0007908344268798828
sg840
I82
sg841
I82
sa(dp843
g837
I3056
sg838
F0.0002758502960205078
sg839
F0.0006768703460693359
sg840
I78
sg841
I78
sa(dp844
g837
I2952
sg838
F0.00024700164794921875
sg839
F0.0007369518280029297
sg840
I74
sg841
I74
sa(dp845
g837
I2870
sg838
F0.00022602081298828125
sg839
F0.00047397613525390625
sg840
I72
sg841
I72
sa(dp846
g837
I2787
sg838
F0.00021600723266601562
sg839
F0.0003540515899658203
sg840
I69
sg841
I69
sa(dp847
g837
I71
sg838
F3.600120544433594e-05
sg839
F0.00025010108947753906
sg840
I3
sg841
I3
sa(dp848
g837
I80
sg838
F3.1948089599609375e-05
sg839
F0.0002472400665283203
sg840
I2
sg841
I2
sasS'total_cqs'
p849
I85
ssI72
(dp850
S'iters'
p851
I3
sS'meta'
p852
(lp853
(dp854
S'objective'
p855
I4
sS'query_time'
p856
F0.3836791515350342
sS'comp_time'
p857
F0.005454063415527344
sS'exec_cq'
p858
I8
sS'total_cq'
p859
I8
sa(dp860
g855
I2
sg856
F8.392333984375e-05
sg857
F0.00046706199645996094
sg858
I5
sg859
I5
sa(dp861
g855
I5
sg856
F3.409385681152344e-05
sg857
F0.0002200603485107422
sg858
I3
sg859
I3
sasS'total_cqs'
p862
I8
ssI73
(dp863
S'iters'
p864
I0
sS'meta'
p865
(lp866
sS'total_cqs'
p867
I1
ssI74
(dp868
S'iters'
p869
I0
sS'meta'
p870
(lp871
sS'total_cqs'
p872
I1
ssI75
(dp873
S'iters'
p874
I4
sS'meta'
p875
(lp876
(dp877
S'objective'
p878
I5
sS'query_time'
p879
F0.007035970687866211
sS'comp_time'
p880
F0.00014209747314453125
sS'exec_cq'
p881
I5
sS'total_cq'
p882
I5
sa(dp883
g878
I2
sg879
F2.384185791015625e-05
sg880
F0.00011229515075683594
sg881
I4
sg882
I4
sa(dp884
g878
I0
sg879
F1.6927719116210938e-05
sg880
F8.58306884765625e-05
sg881
I3
sg882
I3
sa(dp885
g878
I1
sg879
F1.1920928955078125e-05
sg880
F8.20159912109375e-05
sg881
I2
sg882
I2
sasS'total_cqs'
p886
I5
ssI76
(dp887
S'iters'
p888
I1
sS'meta'
p889
(lp890
(dp891
S'objective'
p892
I1
sS'query_time'
p893
F0.015864133834838867
sS'comp_time'
p894
F0.0004940032958984375
sS'exec_cq'
p895
I2
sS'total_cq'
p896
I2
sasS'total_cqs'
p897
I2
ssI77
(dp898
S'iters'
p899
I0
sS'meta'
p900
(lp901
sS'total_cqs'
p902
I1
ssI78
(dp903
S'iters'
p904
I0
sS'meta'
p905
(lp906
sS'total_cqs'
p907
I1
ssI103
(dp908
S'iters'
p909
I2
sS'meta'
p910
(lp911
(dp912
S'objective'
p913
I68
sS'query_time'
p914
F0.10070586204528809
sS'comp_time'
p915
F0.00027680397033691406
sS'exec_cq'
p916
I12
sS'total_cq'
p917
I12
sa(dp918
g913
I71
sg914
F6.985664367675781e-05
sg915
F0.004133939743041992
sg916
I11
sg917
I11
sasS'total_cqs'
p919
I12
ssI104
(dp920
S'iters'
p921
I2
sS'meta'
p922
(lp923
(dp924
S'objective'
p925
I2
sS'query_time'
p926
F1.614799976348877
sS'comp_time'
p927
F0.18824195861816406
sS'exec_cq'
p928
I4
sS'total_cq'
p929
I4
sa(dp930
g925
I2
sg926
F0.07011008262634277
sg927
F0.09125804901123047
sg928
I2
sg929
I2
sasS'total_cqs'
p931
I4
ssI105
(dp932
S'iters'
p933
I0
sS'meta'
p934
(lp935
sS'total_cqs'
p936
I1
ssI106
(dp937
S'iters'
p938
I1
sS'meta'
p939
(lp940
(dp941
S'objective'
p942
I8
sS'query_time'
p943
F0.018717050552368164
sS'comp_time'
p944
F0.00014710426330566406
sS'exec_cq'
p945
I4
sS'total_cq'
p946
I4
sasS'total_cqs'
p947
I4
ssI107
(dp948
S'iters'
p949
I2
sS'meta'
p950
(lp951
(dp952
S'objective'
p953
I78
sS'query_time'
p954
F0.11244583129882812
sS'comp_time'
p955
F0.00025916099548339844
sS'exec_cq'
p956
I16
sS'total_cq'
p957
I16
sa(dp958
g953
I27
sg954
F3.600120544433594e-05
sg955
F0.00015497207641601562
sg956
I3
sg957
I3
sasS'total_cqs'
p959
I16
ssI108
(dp960
S'iters'
p961
I0
sS'meta'
p962
(lp963
sS'total_cqs'
p964
I1
ss.