(dp0
I1
(dp1
S'iters'
p2
I3
sS'meta'
p3
(lp4
(dp5
S'objective'
p6
I8
sS'query_time'
p7
F0.03950691223144531
sS'comp_time'
p8
F0.0002200603485107422
sS'exec_cq'
p9
I12
sS'total_cq'
p10
I12
sa(dp11
g6
I8
sg7
F5.698204040527344e-05
sg8
F7.390975952148438e-05
sg9
I10
sg10
I10
sa(dp12
g6
I7
sg7
F4.00543212890625e-05
sg8
F6.079673767089844e-05
sg9
I9
sg10
I9
sasS'total_cqs'
p13
I12
ssI2
(dp14
S'iters'
p15
I8
sS'meta'
p16
(lp17
(dp18
S'objective'
p19
I19
sS'query_time'
p20
F0.15840911865234375
sS'comp_time'
p21
F0.0010941028594970703
sS'exec_cq'
p22
I27
sS'total_cq'
p23
I27
sa(dp24
g19
I17
sg20
F0.0001590251922607422
sg21
F0.0004870891571044922
sg22
I23
sg23
I23
sa(dp25
g19
I16
sg20
F0.0001239776611328125
sg21
F0.00041794776916503906
sg22
I20
sg23
I20
sa(dp26
g19
I14
sg20
F0.00013589859008789062
sg21
F0.000270843505859375
sg22
I18
sg23
I18
sa(dp27
g19
I14
sg20
F8.702278137207031e-05
sg21
F0.00023984909057617188
sg22
I16
sg23
I16
sa(dp28
g19
I13
sg20
F6.508827209472656e-05
sg21
F0.00013208389282226562
sg22
I15
sg23
I15
sa(dp29
g19
I12
sg20
F5.1021575927734375e-05
sg21
F6.604194641113281e-05
sg22
I14
sg23
I14
sa(dp30
g19
I11
sg20
F4.506111145019531e-05
sg21
F4.9114227294921875e-05
sg22
I13
sg23
I13
sasS'total_cqs'
p31
I27
ssI3
(dp32
S'iters'
p33
I4
sS'meta'
p34
(lp35
(dp36
S'objective'
p37
I11
sS'query_time'
p38
F158.47236108779907
sS'comp_time'
p39
F1.6330599784851074
sS'exec_cq'
p40
I43
sS'total_cq'
p41
I43
sa(dp42
g37
I1
sg38
F0.33855509757995605
sg39
F1.3267409801483154
sg40
I27
sg41
I27
sa(dp43
g37
I1
sg38
F0.06072807312011719
sg39
F0.4685351848602295
sg40
I13
sg41
I13
sa(dp44
g37
I5
sg38
F6.318092346191406e-05
sg39
F0.002908945083618164
sg40
I7
sg41
I7
sasS'total_cqs'
p45
I43
ssI4
(dp46
S'iters'
p47
I2
sS'meta'
p48
(lp49
(dp50
S'objective'
p51
I7
sS'query_time'
p52
F3.950495958328247
sS'comp_time'
p53
F0.40502405166625977
sS'exec_cq'
p54
I11
sS'total_cq'
p55
I11
sa(dp56
g51
I0
sg52
F0.11811685562133789
sg53
F0.4505589008331299
sg54
I2
sg55
I2
sasS'total_cqs'
p57
I11
ssI5
(dp58
S'iters'
p59
I3
sS'meta'
p60
(lp61
(dp62
S'objective'
p63
I0
sS'query_time'
p64
F27.471207857131958
sS'comp_time'
p65
F2.378445863723755
sS'exec_cq'
p66
I8
sS'total_cq'
p67
I8
sa(dp68
g63
I0
sg64
F0.010751008987426758
sg65
F0.04143810272216797
sg66
I4
sg67
I4
sa(dp69
g63
I0
sg64
F0.0034360885620117188
sg65
F0.015758037567138672
sg66
I2
sg67
I2
sasS'total_cqs'
p70
I8
ssI6
(dp71
S'iters'
p72
I4
sS'meta'
p73
(lp74
(dp75
S'objective'
p76
I4
sS'query_time'
p77
F30.643367052078247
sS'comp_time'
p78
F2.7383031845092773
sS'exec_cq'
p79
I18
sS'total_cq'
p80
I18
sa(dp81
g76
I1
sg77
F0.6909751892089844
sg78
F2.537075996398926
sg79
I7
sg80
I7
sa(dp82
g76
I0
sg77
F0.026814937591552734
sg78
F0.0889120101928711
sg79
I4
sg80
I4
sa(dp83
g76
I0
sg77
F0.01123189926147461
sg78
F0.2428739070892334
sg79
I2
sg80
I2
sasS'total_cqs'
p84
I18
ssI7
(dp85
S'iters'
p86
I3
sS'meta'
p87
(lp88
(dp89
S'objective'
p90
I1
sS'query_time'
p91
F9.918843030929565
sS'comp_time'
p92
F1.2238428592681885
sS'exec_cq'
p93
I9
sS'total_cq'
p94
I9
sa(dp95
g90
I1
sg91
F0.010514020919799805
sg92
F0.040042877197265625
sg93
I5
sg94
I5
sa(dp96
g90
I0
sg91
F0.11876106262207031
sg92
F0.037851810455322266
sg93
I2
sg94
I2
sasS'total_cqs'
p97
I9
ssI8
(dp98
S'iters'
p99
I5
sS'meta'
p100
(lp101
(dp102
S'objective'
p103
I17
sS'query_time'
p104
F0.1233530044555664
sS'comp_time'
p105
F0.00107574462890625
sS'exec_cq'
p106
I27
sS'total_cq'
p107
I27
sa(dp108
g103
I16
sg104
F0.00022792816162109375
sg105
F0.0004019737243652344
sg106
I22
sg107
I22
sa(dp109
g103
I17
sg104
F6.794929504394531e-05
sg105
F9.083747863769531e-05
sg106
I19
sg107
I19
sa(dp110
g103
I16
sg104
F6.103515625e-05
sg105
F7.605552673339844e-05
sg106
I18
sg107
I18
sa(dp111
g103
I15
sg104
F7.009506225585938e-05
sg105
F6.127357482910156e-05
sg106
I17
sg107
I17
sasS'total_cqs'
p112
I27
ssI9
(dp113
S'iters'
p114
I3
sS'meta'
p115
(lp116
(dp117
S'objective'
p118
I1
sS'query_time'
p119
F0.04165792465209961
sS'comp_time'
p120
F0.00022482872009277344
sS'exec_cq'
p121
I7
sS'total_cq'
p122
I7
sa(dp123
g118
I0
sg119
F3.2901763916015625e-05
sg120
F5.698204040527344e-05
sg121
I4
sg122
I4
sa(dp124
g118
I0
sg119
F0.0012640953063964844
sg120
F7.891654968261719e-05
sg121
I2
sg122
I2
sasS'total_cqs'
p125
I7
ssI10
(dp126
S'iters'
p127
I6
sS'meta'
p128
(lp129
(dp130
S'objective'
p131
I23
sS'query_time'
p132
F0.4452788829803467
sS'comp_time'
p133
F0.006267070770263672
sS'exec_cq'
p134
I51
sS'total_cq'
p135
I51
sa(dp136
g131
I13
sg132
F0.0004119873046875
sg133
F0.001428842544555664
sg134
I37
sg135
I37
sa(dp137
g131
I0
sg132
F0.0013730525970458984
sg133
F0.0004878044128417969
sg134
I12
sg135
I12
sa(dp138
g131
I2
sg132
F4.410743713378906e-05
sg133
F0.00013709068298339844
sg134
I6
sg135
I6
sa(dp139
g131
I0
sg132
F2.9087066650390625e-05
sg133
F7.987022399902344e-05
sg134
I4
sg135
I4
sa(dp140
g131
I0
sg132
F1.5974044799804688e-05
sg133
F5.602836608886719e-05
sg134
I2
sg135
I2
sasS'total_cqs'
p141
I51
ssI11
(dp142
S'iters'
p143
I5
sS'meta'
p144
(lp145
(dp146
S'objective'
p147
I31
sS'query_time'
p148
F0.6290740966796875
sS'comp_time'
p149
F0.014293909072875977
sS'exec_cq'
p150
I63
sS'total_cq'
p151
I63
sa(dp152
g147
I29
sg148
F0.001157999038696289
sg149
F0.004620075225830078
sg150
I47
sg151
I47
sa(dp153
g147
I1
sg148
F0.0013430118560791016
sg149
F0.0010380744934082031
sg150
I9
sg151
I9
sa(dp154
g147
I0
sg148
F3.409385681152344e-05
sg149
F0.00010585784912109375
sg150
I4
sg151
I4
sa(dp155
g147
I0
sg148
F1.5974044799804688e-05
sg149
F5.412101745605469e-05
sg150
I2
sg151
I2
sasS'total_cqs'
p156
I63
ssI12
(dp157
S'iters'
p158
I5
sS'meta'
p159
(lp160
(dp161
S'objective'
p162
I16
sS'query_time'
p163
F0.36463093757629395
sS'comp_time'
p164
F0.006856679916381836
sS'exec_cq'
p165
I50
sS'total_cq'
p166
I50
sa(dp167
g162
I17
sg163
F0.0004909038543701172
sg164
F0.0018820762634277344
sg165
I33
sg166
I33
sa(dp168
g162
I0
sg163
F0.0015139579772949219
sg164
F0.0014088153839111328
sg165
I8
sg166
I8
sa(dp169
g162
I0
sg163
F0.00018095970153808594
sg164
F0.000990152359008789
sg165
I4
sg166
I4
sa(dp170
g162
I0
sg163
F3.0040740966796875e-05
sg164
F0.00011992454528808594
sg165
I2
sg166
I2
sasS'total_cqs'
p171
I50
ssI13
(dp172
S'iters'
p173
I3
sS'meta'
p174
(lp175
(dp176
S'objective'
p177
I2
sS'query_time'
p178
F0.16781401634216309
sS'comp_time'
p179
F0.00045013427734375
sS'exec_cq'
p180
I20
sS'total_cq'
p181
I20
sa(dp182
g177
I5
sg178
F5.412101745605469e-05
sg179
F6.985664367675781e-05
sg180
I9
sg181
I9
sa(dp183
g177
I0
sg178
F0.0016820430755615234
sg179
F8.20159912109375e-05
sg180
I2
sg181
I2
sasS'total_cqs'
p184
I20
ssI14
(dp185
S'iters'
p186
I3
sS'meta'
p187
(lp188
(dp189
S'objective'
p190
I1
sS'query_time'
p191
F27.68373703956604
sS'comp_time'
p192
F0.9693992137908936
sS'exec_cq'
p193
I9
sS'total_cq'
p194
I9
sa(dp195
g190
I1
sg191
F0.008516073226928711
sg192
F0.03345084190368652
sg193
I5
sg194
I5
sa(dp196
g190
I0
sg191
F0.005861043930053711
sg192
F0.10261130332946777
sg193
I2
sg194
I2
sasS'total_cqs'
p197
I9
ssI15
(dp198
S'iters'
p199
I3
sS'meta'
p200
(lp201
(dp202
S'objective'
p203
I1
sS'query_time'
p204
F3.0688629150390625
sS'comp_time'
p205
F0.1243448257446289
sS'exec_cq'
p206
I11
sS'total_cq'
p207
I11
sa(dp208
g203
I2
sg204
F0.0004820823669433594
sg205
F0.0023348331451416016
sg206
I6
sg207
I6
sa(dp209
g203
I0
sg204
F0.0002810955047607422
sg205
F0.0019221305847167969
sg206
I2
sg207
I2
sasS'total_cqs'
p210
I11
ssI16
(dp211
S'iters'
p212
I1
sS'meta'
p213
(lp214
(dp215
S'objective'
p216
I6
sS'query_time'
p217
F0.03334784507751465
sS'comp_time'
p218
F0.00012493133544921875
sS'exec_cq'
p219
I8
sS'total_cq'
p220
I8
sasS'total_cqs'
p221
I8
ssI17
(dp222
S'iters'
p223
I3
sS'meta'
p224
(lp225
(dp226
S'objective'
p227
I1
sS'query_time'
p228
F0.8767950534820557
sS'comp_time'
p229
F0.022778034210205078
sS'exec_cq'
p230
I11
sS'total_cq'
p231
I11
sa(dp232
g227
I2
sg228
F0.00020003318786621094
sg229
F0.0010612010955810547
sg230
I6
sg231
I6
sa(dp233
g227
I0
sg228
F0.00013709068298339844
sg229
F0.0010843276977539062
sg230
I2
sg231
I2
sasS'total_cqs'
p234
I11
ssI18
(dp235
S'iters'
p236
I4
sS'meta'
p237
(lp238
(dp239
S'objective'
p240
I5
sS'query_time'
p241
F0.21946406364440918
sS'comp_time'
p242
F0.00436711311340332
sS'exec_cq'
p243
I11
sS'total_cq'
p244
I11
sa(dp245
g240
I6
sg241
F0.00023102760314941406
sg242
F0.0011262893676757812
sg243
I8
sg244
I8
sa(dp246
g240
I5
sg241
F6.794929504394531e-05
sg242
F0.00028514862060546875
sg243
I7
sg244
I7
sa(dp247
g240
I4
sg241
F3.409385681152344e-05
sg242
F8.368492126464844e-05
sg243
I6
sg244
I6
sasS'total_cqs'
p248
I11
ssI22
(dp249
S'iters'
p250
I1
sS'meta'
p251
(lp252
(dp253
S'objective'
p254
I16
sS'query_time'
p255
F0.05269193649291992
sS'comp_time'
p256
F0.00017499923706054688
sS'exec_cq'
p257
I18
sS'total_cq'
p258
I18
sasS'total_cqs'
p259
I18
ssI23
(dp260
S'iters'
p261
I3
sS'meta'
p262
(lp263
(dp264
S'objective'
p265
I12
sS'query_time'
p266
F0.07196187973022461
sS'comp_time'
p267
F0.0006570816040039062
sS'exec_cq'
p268
I16
sS'total_cq'
p269
I16
sa(dp270
g265
I12
sg266
F0.00010013580322265625
sg267
F0.0002911090850830078
sg268
I14
sg269
I14
sa(dp271
g265
I11
sg266
F5.984306335449219e-05
sg267
F5.602836608886719e-05
sg268
I13
sg269
I13
sasS'total_cqs'
p272
I16
ssI26
(dp273
S'iters'
p274
I1
sS'meta'
p275
(lp276
(dp277
S'objective'
p278
I40
sS'query_time'
p279
F0.12218403816223145
sS'comp_time'
p280
F0.0001800060272216797
sS'exec_cq'
p281
I42
sS'total_cq'
p282
I42
sasS'total_cqs'
p283
I42
ssI27
(dp284
S'iters'
p285
I3
sS'meta'
p286
(lp287
(dp288
S'objective'
p289
I20
sS'query_time'
p290
F17.26489496231079
sS'comp_time'
p291
F1.8469719886779785
sS'exec_cq'
p292
I30
sS'total_cq'
p293
I30
sa(dp294
g289
I1
sg290
F0.36496901512145996
sg291
F1.9177298545837402
sg292
I5
sg293
I5
sa(dp295
g289
I0
sg290
F0.06685996055603027
sg291
F0.46581196784973145
sg292
I2
sg293
I2
sasS'total_cqs'
p296
I30
ssI29
(dp297
S'iters'
p298
I5
sS'meta'
p299
(lp300
(dp301
S'objective'
p302
I15
sS'query_time'
p303
F135.4848988056183
sS'comp_time'
p304
F13.188678979873657
sS'exec_cq'
p305
I49
sS'total_cq'
p306
I49
sa(dp307
g302
I1
sg303
F0.023121118545532227
sg304
F0.04795503616333008
sg305
I17
sg306
I17
sa(dp308
g302
I1
sg303
F0.6316070556640625
sg304
F0.05307722091674805
sg305
I9
sg306
I9
sa(dp309
g302
I1
sg303
F0.0034132003784179688
sg304
F0.012244939804077148
sg305
I5
sg306
I5
sa(dp310
g302
I1
sg303
F0.0011858940124511719
sg304
F0.004555225372314453
sg305
I3
sg306
I3
sasS'total_cqs'
p311
I49
ssI30
(dp312
S'iters'
p313
I1
sS'meta'
p314
(lp315
(dp316
S'objective'
p317
I0
sS'query_time'
p318
F0.6568610668182373
sS'comp_time'
p319
F0.023944854736328125
sS'exec_cq'
p320
I2
sS'total_cq'
p321
I2
sasS'total_cqs'
p322
I2
ssI32
(dp323
S'iters'
p324
I1
sS'meta'
p325
(lp326
(dp327
S'objective'
p328
I0
sS'query_time'
p329
F0.00999903678894043
sS'comp_time'
p330
F0.00025081634521484375
sS'exec_cq'
p331
I2
sS'total_cq'
p332
I2
sasS'total_cqs'
p333
I2
ssI33
(dp334
S'iters'
p335
I5
sS'meta'
p336
(lp337
(dp338
S'objective'
p339
I71
sS'query_time'
p340
F14.099339962005615
sS'comp_time'
p341
F0.12235498428344727
sS'exec_cq'
p342
I103
sS'total_cq'
p343
I103
sa(dp344
g339
I0
sg340
F0.007008075714111328
sg341
F0.03788900375366211
sg342
I16
sg343
I16
sa(dp345
g339
I0
sg340
F0.0024919509887695312
sg341
F0.009582996368408203
sg342
I8
sg343
I8
sa(dp346
g339
I0
sg340
F0.0014681816101074219
sg341
F0.005295991897583008
sg342
I4
sg343
I4
sa(dp347
g339
I0
sg340
F0.0002830028533935547
sg341
F0.0017290115356445312
sg342
I2
sg343
I2
sasS'total_cqs'
p348
I103
ssI34
(dp349
S'iters'
p350
I1
sS'meta'
p351
(lp352
(dp353
S'objective'
p354
I0
sS'query_time'
p355
F0.016764163970947266
sS'comp_time'
p356
F0.0006070137023925781
sS'exec_cq'
p357
I2
sS'total_cq'
p358
I2
sasS'total_cqs'
p359
I2
ssI35
(dp360
S'iters'
p361
I8
sS'meta'
p362
(lp363
(dp364
S'objective'
p365
I68
sS'query_time'
p366
F46.05555486679077
sS'comp_time'
p367
F3.4293177127838135
sS'exec_cq'
p368
I70
sS'total_cq'
p369
I70
sa(dp370
g365
I67
sg366
F0.0005779266357421875
sg367
F0.041954994201660156
sg368
I69
sg369
I69
sa(dp371
g365
I62
sg366
F0.00021982192993164062
sg367
F0.04447007179260254
sg368
I68
sg369
I68
sa(dp372
g365
I63
sg366
F0.00020313262939453125
sg367
F0.04939603805541992
sg368
I65
sg369
I65
sa(dp373
g365
I62
sg366
F0.0002300739288330078
sg367
F0.03875279426574707
sg368
I64
sg369
I64
sa(dp374
g365
I61
sg366
F0.0001990795135498047
sg367
F0.06443595886230469
sg368
I63
sg369
I63
sa(dp375
g365
I58
sg366
F0.2899179458618164
sg367
F0.25846099853515625
sg368
I62
sg369
I62
sa(dp376
g365
I0
sg366
F0.014664173126220703
sg367
F0.009361028671264648
sg368
I2
sg369
I2
sasS'total_cqs'
p377
I70
ssI36
(dp378
S'iters'
p379
I4
sS'meta'
p380
(lp381
(dp382
S'objective'
p383
I25
sS'query_time'
p384
F0.8186399936676025
sS'comp_time'
p385
F0.028169870376586914
sS'exec_cq'
p386
I33
sS'total_cq'
p387
I33
sa(dp388
g383
I21
sg384
F0.003993988037109375
sg385
F0.01837301254272461
sg386
I29
sg387
I29
sa(dp389
g383
I23
sg384
F0.0013871192932128906
sg385
F0.006752967834472656
sg386
I25
sg387
I25
sa(dp390
g383
I22
sg384
F0.00041985511779785156
sg385
F0.0022220611572265625
sg386
I24
sg387
I24
sasS'total_cqs'
p391
I33
ssI37
(dp392
S'iters'
p393
I1
sS'meta'
p394
(lp395
(dp396
S'objective'
p397
I0
sS'query_time'
p398
F0.015079021453857422
sS'comp_time'
p399
F0.0002970695495605469
sS'exec_cq'
p400
I2
sS'total_cq'
p401
I2
sasS'total_cqs'
p402
I2
ssI38
(dp403
S'iters'
p404
I2
sS'meta'
p405
(lp406
(dp407
S'objective'
p408
I0
sS'query_time'
p409
F0.03396201133728027
sS'comp_time'
p410
F0.0006740093231201172
sS'exec_cq'
p411
I4
sS'total_cq'
p412
I4
sa(dp413
g408
I0
sg409
F8.702278137207031e-05
sg410
F0.0003218650817871094
sg411
I2
sg412
I2
sasS'total_cqs'
p414
I4
ssI39
(dp415
S'iters'
p416
I2
sS'meta'
p417
(lp418
(dp419
S'objective'
p420
I30
sS'query_time'
p421
F0.23723793029785156
sS'comp_time'
p422
F0.0013930797576904297
sS'exec_cq'
p423
I44
sS'total_cq'
p424
I44
sa(dp425
g420
I35
sg421
F0.0002899169921875
sg422
F0.0010340213775634766
sg423
I37
sg424
I37
sasS'total_cqs'
p426
I44
ssI40
(dp427
S'iters'
p428
I1
sS'meta'
p429
(lp430
(dp431
S'objective'
p432
I5
sS'query_time'
p433
F0.039292097091674805
sS'comp_time'
p434
F0.00010323524475097656
sS'exec_cq'
p435
I7
sS'total_cq'
p436
I7
sasS'total_cqs'
p437
I7
ssI41
(dp438
S'iters'
p439
I1
sS'meta'
p440
(lp441
(dp442
S'objective'
p443
I10
sS'query_time'
p444
F0.07602620124816895
sS'comp_time'
p445
F0.00011587142944335938
sS'exec_cq'
p446
I12
sS'total_cq'
p447
I12
sasS'total_cqs'
p448
I12
ssI42
(dp449
S'iters'
p450
I3
sS'meta'
p451
(lp452
(dp453
S'objective'
p454
I39
sS'query_time'
p455
F0.14650321006774902
sS'comp_time'
p456
F0.00018715858459472656
sS'exec_cq'
p457
I41
sS'total_cq'
p458
I41
sa(dp459
g454
I38
sg455
F0.00011301040649414062
sg456
F8.225440979003906e-05
sg457
I40
sg458
I40
sa(dp460
g454
I37
sg455
F8.988380432128906e-05
sg456
F6.508827209472656e-05
sg457
I39
sg458
I39
sasS'total_cqs'
p461
I41
ssI43
(dp462
S'iters'
p463
I1
sS'meta'
p464
(lp465
(dp466
S'objective'
p467
I5
sS'query_time'
p468
F0.0411531925201416
sS'comp_time'
p469
F0.00010704994201660156
sS'exec_cq'
p470
I7
sS'total_cq'
p471
I7
sasS'total_cqs'
p472
I7
ssI44
(dp473
S'iters'
p474
I4
sS'meta'
p475
(lp476
(dp477
S'objective'
p478
I33
sS'query_time'
p479
F0.1729729175567627
sS'comp_time'
p480
F0.0011050701141357422
sS'exec_cq'
p481
I47
sS'total_cq'
p482
I47
sa(dp483
g478
I34
sg479
F0.00032782554626464844
sg480
F0.001087188720703125
sg481
I40
sg482
I40
sa(dp484
g478
I1
sg479
F0.0015919208526611328
sg480
F0.0006411075592041016
sg481
I3
sg482
I3
sa(dp485
g478
I0
sg479
F9.679794311523438e-05
sg480
F0.004317045211791992
sg481
I2
sg482
I2
sasS'total_cqs'
p486
I47
ssI46
(dp487
S'iters'
p488
I2
sS'meta'
p489
(lp490
(dp491
S'objective'
p492
I4
sS'query_time'
p493
F0.023520946502685547
sS'comp_time'
p494
F0.0006222724914550781
sS'exec_cq'
p495
I6
sS'total_cq'
p496
I6
sa(dp497
g492
I3
sg493
F2.7894973754882812e-05
sg494
F5.507469177246094e-05
sg495
I5
sg496
I5
sasS'total_cqs'
p498
I6
ssI47
(dp499
S'iters'
p500
I1
sS'meta'
p501
(lp502
(dp503
S'objective'
p504
I0
sS'query_time'
p505
F0.009615182876586914
sS'comp_time'
p506
F0.00022602081298828125
sS'exec_cq'
p507
I2
sS'total_cq'
p508
I2
sasS'total_cqs'
p509
I2
ssI50
(dp510
S'iters'
p511
I3
sS'meta'
p512
(lp513
(dp514
S'objective'
p515
I3
sS'query_time'
p516
F0.025057077407836914
sS'comp_time'
p517
F0.00011897087097167969
sS'exec_cq'
p518
I5
sS'total_cq'
p519
I5
sa(dp520
g515
I2
sg516
F3.0994415283203125e-05
sg517
F9.489059448242188e-05
sg518
I4
sg519
I4
sa(dp521
g515
I1
sg516
F2.4080276489257812e-05
sg517
F7.581710815429688e-05
sg518
I3
sg519
I3
sasS'total_cqs'
p522
I5
ssI51
(dp523
S'iters'
p524
I1
sS'meta'
p525
(lp526
(dp527
S'objective'
p528
I0
sS'query_time'
p529
F0.008305072784423828
sS'comp_time'
p530
F0.00014710426330566406
sS'exec_cq'
p531
I2
sS'total_cq'
p532
I2
sasS'total_cqs'
p533
I2
ssI52
(dp534
S'iters'
p535
I1
sS'meta'
p536
(lp537
(dp538
S'objective'
p539
I0
sS'query_time'
p540
F0.009053945541381836
sS'comp_time'
p541
F0.0002448558807373047
sS'exec_cq'
p542
I2
sS'total_cq'
p543
I2
sasS'total_cqs'
p544
I2
ssI53
(dp545
S'iters'
p546
I2
sS'meta'
p547
(lp548
(dp549
S'objective'
p550
I0
sS'query_time'
p551
F0.02400493621826172
sS'comp_time'
p552
F0.001260995864868164
sS'exec_cq'
p553
I4
sS'total_cq'
p554
I4
sa(dp555
g550
I0
sg551
F8.702278137207031e-05
sg552
F0.0004820823669433594
sg553
I2
sg554
I2
sasS'total_cqs'
p556
I4
ssI54
(dp557
S'iters'
p558
I1
sS'meta'
p559
(lp560
(dp561
S'objective'
p562
I1
sS'query_time'
p563
F0.01589798927307129
sS'comp_time'
p564
F0.0002779960632324219
sS'exec_cq'
p565
I3
sS'total_cq'
p566
I3
sasS'total_cqs'
p567
I3
ssI55
(dp568
S'iters'
p569
I7
sS'meta'
p570
(lp571
(dp572
S'objective'
p573
I85
sS'query_time'
p574
F2.304105043411255
sS'comp_time'
p575
F0.030487060546875
sS'exec_cq'
p576
I109
sS'total_cq'
p577
I109
sa(dp578
g573
I85
sg574
F0.0006902217864990234
sg575
F0.001535177230834961
sg576
I97
sg577
I97
sa(dp579
g573
I83
sg574
F0.0002989768981933594
sg575
F0.0007731914520263672
sg576
I91
sg577
I91
sa(dp580
g573
I83
sg574
F0.0002830028533935547
sg575
F0.0007219314575195312
sg576
I87
sg577
I87
sa(dp581
g573
I81
sg574
F0.0002601146697998047
sg575
F0.000698089599609375
sg576
I85
sg577
I85
sa(dp582
g573
I79
sg574
F0.00024080276489257812
sg575
F0.0004951953887939453
sg576
I83
sg577
I83
sa(dp583
g573
I79
sg574
F0.0002338886260986328
sg575
F0.0004069805145263672
sg576
I81
sg577
I81
sasS'total_cqs'
p584
I109
ssI56
(dp585
S'iters'
p586
I5
sS'meta'
p587
(lp588
(dp589
S'objective'
p590
I44
sS'query_time'
p591
F3.4545199871063232
sS'comp_time'
p592
F0.13818097114562988
sS'exec_cq'
p593
I76
sS'total_cq'
p594
I76
sa(dp595
g590
I0
sg591
F0.005583047866821289
sg592
F0.009274005889892578
sg593
I16
sg594
I16
sa(dp596
g590
I0
sg591
F0.0023691654205322266
sg592
F0.0065000057220458984
sg593
I8
sg594
I8
sa(dp597
g590
I0
sg591
F0.0002779960632324219
sg592
F0.00121307373046875
sg593
I4
sg594
I4
sa(dp598
g590
I0
sg591
F0.00013399124145507812
sg592
F0.0008997917175292969
sg593
I2
sg594
I2
sasS'total_cqs'
p599
I76
ssI57
(dp600
S'iters'
p601
I6
sS'meta'
p602
(lp603
(dp604
S'objective'
p605
I3
sS'query_time'
p606
F70.85103178024292
sS'comp_time'
p607
F3.393662214279175
sS'exec_cq'
p608
I51
sS'total_cq'
p609
I51
sa(dp610
g605
I1
sg606
F0.013209104537963867
sg607
F0.0272369384765625
sg608
I27
sg609
I27
sa(dp611
g605
I1
sg606
F0.0020678043365478516
sg607
F0.005663871765136719
sg608
I13
sg609
I13
sa(dp612
g605
I0
sg606
F0.0014119148254394531
sg607
F0.003997087478637695
sg608
I6
sg609
I6
sa(dp613
g605
I1
sg606
F0.0002181529998779297
sg607
F0.0009958744049072266
sg608
I3
sg609
I3
sa(dp614
g605
I0
sg606
F0.00018095970153808594
sg607
F0.0011441707611083984
sg608
I2
sg609
I2
sasS'total_cqs'
p615
I51
ssI58
(dp616
S'iters'
p617
I9
sS'meta'
p618
(lp619
(dp620
S'objective'
p621
I358
sS'query_time'
p622
F294.6005461215973
sS'comp_time'
p623
F16.580916166305542
sS'exec_cq'
p624
I486
sS'total_cq'
p625
I486
sa(dp626
g621
I40
sg622
F0.036306142807006836
sg623
F0.17063593864440918
sg624
I64
sg625
I64
sa(dp627
g621
I12
sg622
F0.025164127349853516
sg623
F0.1682109832763672
sg624
I52
sg625
I52
sa(dp628
g621
I10
sg622
F0.019205808639526367
sg623
F0.9860899448394775
sg624
I32
sg625
I32
sa(dp629
g621
I1
sg622
F0.008756160736083984
sg623
F0.03288912773132324
sg624
I21
sg625
I21
sa(dp630
g621
I1
sg622
F0.005565166473388672
sg623
F0.03266191482543945
sg624
I11
sg625
I11
sa(dp631
g621
I0
sg622
F0.0027930736541748047
sg623
F0.011358022689819336
sg624
I6
sg625
I6
sa(dp632
g621
I1
sg622
F0.0011818408966064453
sg623
F0.005644083023071289
sg624
I3
sg625
I3
sa(dp633
g621
I0
sg622
F0.00028586387634277344
sg623
F0.0012059211730957031
sg624
I2
sg625
I2
sasS'total_cqs'
p634
I486
ssI59
(dp635
S'iters'
p636
I2
sS'meta'
p637
(lp638
(dp639
S'objective'
p640
I3
sS'query_time'
p641
F0.05956315994262695
sS'comp_time'
p642
F0.0009520053863525391
sS'exec_cq'
p643
I7
sS'total_cq'
p644
I7
sa(dp645
g640
I0
sg641
F0.0001499652862548828
sg642
F0.0008091926574707031
sg643
I2
sg644
I2
sasS'total_cqs'
p646
I7
ssI60
(dp647
S'iters'
p648
I3
sS'meta'
p649
(lp650
(dp651
S'objective'
p652
I3
sS'query_time'
p653
F0.04567098617553711
sS'comp_time'
p654
F0.000331878662109375
sS'exec_cq'
p655
I5
sS'total_cq'
p656
I5
sa(dp657
g652
I2
sg653
F5.888938903808594e-05
sg654
F0.0002448558807373047
sg655
I4
sg656
I4
sa(dp658
g652
I1
sg653
F2.002716064453125e-05
sg654
F5.3882598876953125e-05
sg655
I3
sg656
I3
sasS'total_cqs'
p659
I5
ssI62
(dp660
S'iters'
p661
I2
sS'meta'
p662
(lp663
(dp664
S'objective'
p665
I6
sS'query_time'
p666
F0.05030393600463867
sS'comp_time'
p667
F0.00017905235290527344
sS'exec_cq'
p668
I12
sS'total_cq'
p669
I12
sa(dp670
g665
I7
sg666
F4.601478576660156e-05
sg667
F6.008148193359375e-05
sg668
I9
sg669
I9
sasS'total_cqs'
p671
I12
ssI64
(dp672
S'iters'
p673
I3
sS'meta'
p674
(lp675
(dp676
S'objective'
p677
I4
sS'query_time'
p678
F0.15645098686218262
sS'comp_time'
p679
F0.006702899932861328
sS'exec_cq'
p680
I12
sS'total_cq'
p681
I12
sa(dp682
g677
I0
sg678
F0.00016999244689941406
sg679
F0.000820159912109375
sg680
I4
sg681
I4
sa(dp683
g677
I0
sg678
F9.799003601074219e-05
sg679
F0.0005681514739990234
sg680
I2
sg681
I2
sasS'total_cqs'
p684
I12
ssI65
(dp685
S'iters'
p686
I4
sS'meta'
p687
(lp688
(dp689
S'objective'
p690
I13
sS'query_time'
p691
F0.801469087600708
sS'comp_time'
p692
F0.032978057861328125
sS'exec_cq'
p693
I27
sS'total_cq'
p694
I27
sa(dp695
g690
I1
sg691
F0.0012309551239013672
sg692
F0.0041141510009765625
sg693
I7
sg694
I7
sa(dp696
g690
I0
sg691
F0.0003821849822998047
sg692
F0.0020751953125
sg693
I4
sg694
I4
sa(dp697
g690
I0
sg691
F8.296966552734375e-05
sg692
F0.0004558563232421875
sg693
I2
sg694
I2
sasS'total_cqs'
p698
I27
ssI67
(dp699
S'iters'
p700
I2
sS'meta'
p701
(lp702
(dp703
S'objective'
p704
I31
sS'query_time'
p705
F1.4919650554656982
sS'comp_time'
p706
F0.007795810699462891
sS'exec_cq'
p707
I35
sS'total_cq'
p708
I35
sa(dp709
g704
I0
sg705
F0.0014100074768066406
sg706
F0.006934165954589844
sg707
I2
sg708
I2
sasS'total_cqs'
p710
I35
ssI69
(dp711
S'iters'
p712
I1
sS'meta'
p713
(lp714
(dp715
S'objective'
p716
I49
sS'query_time'
p717
F0.2096858024597168
sS'comp_time'
p718
F0.00024890899658203125
sS'exec_cq'
p719
I51
sS'total_cq'
p720
I51
sasS'total_cqs'
p721
I51
ssI70
(dp722
S'iters'
p723
I2
sS'meta'
p724
(lp725
(dp726
S'objective'
p727
I4
sS'query_time'
p728
F0.03516101837158203
sS'comp_time'
p729
F0.0002639293670654297
sS'exec_cq'
p730
I6
sS'total_cq'
p731
I6
sa(dp732
g727
I3
sg728
F5.602836608886719e-05
sg729
F0.0002028942108154297
sg730
I5
sg731
I5
sasS'total_cqs'
p733
I6
ssI71
(dp734
S'iters'
p735
I6
sS'meta'
p736
(lp737
(dp738
S'objective'
p739
I77
sS'query_time'
p740
F0.3734099864959717
sS'comp_time'
p741
F0.0008041858673095703
sS'exec_cq'
p742
I85
sS'total_cq'
p743
I85
sa(dp744
g739
I73
sg740
F0.0003349781036376953
sg741
F0.0005848407745361328
sg742
I81
sg743
I81
sa(dp745
g739
I71
sg740
F0.0003008842468261719
sg741
F0.0005130767822265625
sg742
I77
sg743
I77
sa(dp746
g739
I68
sg740
F0.00024819374084472656
sg741
F0.0004057884216308594
sg742
I74
sg743
I74
sa(dp747
g739
I65
sg740
F0.00023102760314941406
sg741
F0.0003299713134765625
sg742
I71
sg743
I71
sa(dp748
g739
I1
sg740
F0.001934051513671875
sg741
F0.00023818016052246094
sg742
I3
sg743
I3
sasS'total_cqs'
p749
I85
ssI72
(dp750
S'iters'
p751
I3
sS'meta'
p752
(lp753
(dp754
S'objective'
p755
I2
sS'query_time'
p756
F0.36873292922973633
sS'comp_time'
p757
F0.0022690296173095703
sS'exec_cq'
p758
I8
sS'total_cq'
p759
I8
sa(dp760
g755
I1
sg756
F0.00010800361633300781
sg757
F0.0003390312194824219
sg758
I5
sg759
I5
sa(dp761
g755
I1
sg756
F4.00543212890625e-05
sg757
F0.00015687942504882812
sg758
I3
sg759
I3
sasS'total_cqs'
p762
I8
ssI75
(dp763
S'iters'
p764
I4
sS'meta'
p765
(lp766
(dp767
S'objective'
p768
I3
sS'query_time'
p769
F0.020675182342529297
sS'comp_time'
p770
F0.0001327991485595703
sS'exec_cq'
p771
I5
sS'total_cq'
p772
I5
sa(dp773
g768
I2
sg769
F3.0994415283203125e-05
sg770
F7.796287536621094e-05
sg771
I4
sg772
I4
sa(dp774
g768
I1
sg769
F2.5033950805664062e-05
sg770
F7.987022399902344e-05
sg771
I3
sg772
I3
sa(dp775
g768
I0
sg769
F2.193450927734375e-05
sg770
F4.38690185546875e-05
sg771
I2
sg772
I2
sasS'total_cqs'
p776
I5
ssI76
(dp777
S'iters'
p778
I1
sS'meta'
p779
(lp780
(dp781
S'objective'
p782
I0
sS'query_time'
p783
F0.018605947494506836
sS'comp_time'
p784
F0.00074005126953125
sS'exec_cq'
p785
I2
sS'total_cq'
p786
I2
sasS'total_cqs'
p787
I2
ssI103
(dp788
S'iters'
p789
I1
sS'meta'
p790
(lp791
(dp792
S'objective'
p793
I10
sS'query_time'
p794
F0.10085105895996094
sS'comp_time'
p795
F0.00016307830810546875
sS'exec_cq'
p796
I12
sS'total_cq'
p797
I12
sasS'total_cqs'
p798
I12
ssI104
(dp799
S'iters'
p800
I2
sS'meta'
p801
(lp802
(dp803
S'objective'
p804
I0
sS'query_time'
p805
F1.5599761009216309
sS'comp_time'
p806
F0.0836939811706543
sS'exec_cq'
p807
I4
sS'total_cq'
p808
I4
sa(dp809
g804
I0
sg805
F0.012346982955932617
sg806
F0.0805506706237793
sg807
I2
sg808
I2
sasS'total_cqs'
p810
I4
ssI106
(dp811
S'iters'
p812
I1
sS'meta'
p813
(lp814
(dp815
S'objective'
p816
I2
sS'query_time'
p817
F0.029531002044677734
sS'comp_time'
p818
F9.226799011230469e-05
sS'exec_cq'
p819
I4
sS'total_cq'
p820
I4
sasS'total_cqs'
p821
I4
ssI107
(dp822
S'iters'
p823
I2
sS'meta'
p824
(lp825
(dp826
S'objective'
p827
I10
sS'query_time'
p828
F0.10252594947814941
sS'comp_time'
p829
F0.0001850128173828125
sS'exec_cq'
p830
I16
sS'total_cq'
p831
I16
sa(dp832
g827
I1
sg828
F0.006763935089111328
sg829
F0.00015997886657714844
sg830
I3
sg831
I3
sasS'total_cqs'
p833
I16
ss.