(dp0
I1
(dp1
S'iters'
p2
I4
sS'meta'
p3
(lp4
(dp5
S'objective'
p6
I56
sS'query_time'
p7
F0.03886008262634277
sS'comp_time'
p8
F0.0002551078796386719
sS'exec_cq'
p9
I12
sS'total_cq'
p10
I12
sa(dp11
g6
I55
sg7
F5.793571472167969e-05
sg8
F8.487701416015625e-05
sg9
I10
sg10
I10
sa(dp12
g6
I51
sg7
F4.410743713378906e-05
sg8
F7.104873657226562e-05
sg9
I9
sg10
I9
sa(dp13
g6
I54
sg7
F3.790855407714844e-05
sg8
F5.817413330078125e-05
sg9
I8
sg10
I8
sasS'total_cqs'
p14
I12
ssI2
(dp15
S'iters'
p16
I8
sS'meta'
p17
(lp18
(dp19
S'objective'
p20
I252
sS'query_time'
p21
F0.13801193237304688
sS'comp_time'
p22
F0.0014290809631347656
sS'exec_cq'
p23
I27
sS'total_cq'
p24
I27
sa(dp25
g20
I193
sg21
F0.00023293495178222656
sg22
F0.0008349418640136719
sg23
I24
sg24
I24
sa(dp26
g20
I202
sg21
F0.0001571178436279297
sg22
F0.0005452632904052734
sg23
I20
sg24
I20
sa(dp27
g20
I180
sg21
F0.00011897087097167969
sg22
F0.0003972053527832031
sg23
I19
sg24
I19
sa(dp28
g20
I168
sg21
F0.00011181831359863281
sg22
F0.0003788471221923828
sg23
I17
sg24
I17
sa(dp29
g20
I178
sg21
F7.510185241699219e-05
sg22
F0.0002028942108154297
sg23
I15
sg24
I15
sa(dp30
g20
I176
sg21
F5.793571472167969e-05
sg22
F0.00011920928955078125
sg23
I14
sg24
I14
sa(dp31
g20
I177
sg21
F4.696846008300781e-05
sg22
F4.9114227294921875e-05
sg23
I13
sg24
I13
sasS'total_cqs'
p32
I27
ssI3
(dp33
S'iters'
p34
I4
sS'meta'
p35
(lp36
(dp37
S'objective'
p38
I280
sS'query_time'
p39
F157.6743779182434
sS'comp_time'
p40
F1.5598399639129639
sS'exec_cq'
p41
I43
sS'total_cq'
p42
I43
sa(dp43
g38
I21
sg39
F0.3618760108947754
sg40
F1.319000005722046
sg41
I27
sg42
I27
sa(dp44
g38
I33
sg39
F0.07462096214294434
sg40
F0.3961160182952881
sg41
I13
sg42
I13
sa(dp45
g38
I140
sg39
F4.38690185546875e-05
sg40
F0.004162311553955078
sg41
I7
sg42
I7
sasS'total_cqs'
p46
I43
ssI4
(dp47
S'iters'
p48
I2
sS'meta'
p49
(lp50
(dp51
S'objective'
p52
I60
sS'query_time'
p53
F4.031750917434692
sS'comp_time'
p54
F0.4402120113372803
sS'exec_cq'
p55
I11
sS'total_cq'
p56
I11
sa(dp57
g52
I1
sg53
F0.12512779235839844
sg54
F0.42281508445739746
sg55
I2
sg56
I2
sasS'total_cqs'
p58
I11
ssI5
(dp59
S'iters'
p60
I3
sS'meta'
p61
(lp62
(dp63
S'objective'
p64
I0
sS'query_time'
p65
F27.239316940307617
sS'comp_time'
p66
F2.282274007797241
sS'exec_cq'
p67
I8
sS'total_cq'
p68
I8
sa(dp69
g64
I2
sg65
F0.5289709568023682
sg66
F2.4152050018310547
sg67
I4
sg68
I4
sa(dp70
g64
I6
sg65
F0.08105587959289551
sg66
F0.8285720348358154
sg67
I2
sg68
I2
sasS'total_cqs'
p71
I8
ssI6
(dp72
S'iters'
p73
I4
sS'meta'
p74
(lp75
(dp76
S'objective'
p77
I67
sS'query_time'
p78
F30.16109609603882
sS'comp_time'
p79
F2.3892509937286377
sS'exec_cq'
p80
I18
sS'total_cq'
p81
I18
sa(dp82
g77
I0
sg78
F0.5644440650939941
sg79
F2.114201068878174
sg80
I7
sg81
I7
sa(dp83
g77
I0
sg78
F0.11048698425292969
sg79
F0.9975402355194092
sg80
I4
sg81
I4
sa(dp84
g77
I11
sg78
F0.012513160705566406
sg79
F0.1413097381591797
sg80
I2
sg81
I2
sasS'total_cqs'
p85
I18
ssI7
(dp86
S'iters'
p87
I5
sS'meta'
p88
(lp89
(dp90
S'objective'
p91
I1
sS'query_time'
p92
F10.047783851623535
sS'comp_time'
p93
F0.9671778678894043
sS'exec_cq'
p94
I9
sS'total_cq'
p95
I9
sa(dp96
g91
I0
sg92
F0.026023149490356445
sg93
F0.24776911735534668
sg94
I6
sg95
I6
sa(dp97
g91
I1
sg92
F0.02715301513671875
sg93
F0.17679977416992188
sg94
I4
sg95
I4
sa(dp98
g91
I0
sg92
F0.0069539546966552734
sg93
F0.036170005798339844
sg94
I3
sg95
I3
sa(dp99
g91
I1
sg92
F0.0029129981994628906
sg93
F0.012874126434326172
sg94
I2
sg95
I2
sasS'total_cqs'
p100
I9
ssI8
(dp101
S'iters'
p102
I5
sS'meta'
p103
(lp104
(dp105
S'objective'
p106
I262
sS'query_time'
p107
F0.15512704849243164
sS'comp_time'
p108
F0.0012810230255126953
sS'exec_cq'
p109
I27
sS'total_cq'
p110
I27
sa(dp111
g106
I216
sg107
F0.00019311904907226562
sg108
F0.0005671977996826172
sg109
I24
sg110
I24
sa(dp112
g106
I234
sg107
F8.106231689453125e-05
sg108
F0.00011277198791503906
sg109
I19
sg110
I19
sa(dp113
g106
I245
sg107
F7.796287536621094e-05
sg108
F9.894371032714844e-05
sg109
I18
sg110
I18
sa(dp114
g106
I246
sg107
F5.3882598876953125e-05
sg108
F6.4849853515625e-05
sg109
I17
sg110
I17
sasS'total_cqs'
p115
I27
ssI9
(dp116
S'iters'
p117
I4
sS'meta'
p118
(lp119
(dp120
S'objective'
p121
I2
sS'query_time'
p122
F0.08124399185180664
sS'comp_time'
p123
F0.00029921531677246094
sS'exec_cq'
p124
I7
sS'total_cq'
p125
I7
sa(dp126
g121
I1
sg122
F5.316734313964844e-05
sg123
F0.00012302398681640625
sg124
I5
sg125
I5
sa(dp127
g121
I2
sg122
F0.0011970996856689453
sg123
F0.0001430511474609375
sg124
I3
sg125
I3
sa(dp128
g121
I3
sg122
F2.002716064453125e-05
sg123
F5.602836608886719e-05
sg124
I2
sg125
I2
sasS'total_cqs'
p129
I7
ssI10
(dp130
S'iters'
p131
I7
sS'meta'
p132
(lp133
(dp134
S'objective'
p135
I566
sS'query_time'
p136
F0.4302680492401123
sS'comp_time'
p137
F0.007111072540283203
sS'exec_cq'
p138
I51
sS'total_cq'
p139
I51
sa(dp140
g135
I400
sg136
F0.0004489421844482422
sg137
F0.00152587890625
sg138
I37
sg139
I37
sa(dp141
g135
I9
sg136
F0.001584768295288086
sg137
F0.0005950927734375
sg138
I12
sg139
I12
sa(dp142
g135
I4
sg136
F0.00010704994201660156
sg137
F0.000308990478515625
sg138
I8
sg139
I8
sa(dp143
g135
I6
sg136
F6.699562072753906e-05
sg137
F0.00021600723266601562
sg138
I5
sg139
I5
sa(dp144
g135
I3
sg136
F3.504753112792969e-05
sg137
F0.00016188621520996094
sg138
I3
sg139
I3
sa(dp145
g135
I11
sg136
F1.9073486328125e-05
sg137
F5.698204040527344e-05
sg138
I2
sg139
I2
sasS'total_cqs'
p146
I51
ssI11
(dp147
S'iters'
p148
I7
sS'meta'
p149
(lp150
(dp151
S'objective'
p152
I936
sS'query_time'
p153
F0.60471510887146
sS'comp_time'
p154
F0.014462947845458984
sS'exec_cq'
p155
I63
sS'total_cq'
p156
I63
sa(dp157
g152
I1102
sg153
F0.0011649131774902344
sg154
F0.004810810089111328
sg155
I47
sg156
I47
sa(dp158
g152
I937
sg153
F0.0007789134979248047
sg154
F0.0037450790405273438
sg155
I42
sg156
I42
sa(dp159
g152
I901
sg153
F0.0004999637603759766
sg154
F0.0024597644805908203
sg155
I35
sg156
I35
sa(dp160
g152
I4
sg153
F0.0012521743774414062
sg154
F0.0001678466796875
sg155
I6
sg156
I6
sa(dp161
g152
I41
sg153
F3.0994415283203125e-05
sg154
F7.82012939453125e-05
sg155
I4
sg156
I4
sa(dp162
g152
I3
sg153
F1.5020370483398438e-05
sg154
F4.792213439941406e-05
sg155
I2
sg156
I2
sasS'total_cqs'
p163
I63
ssI12
(dp164
S'iters'
p165
I8
sS'meta'
p166
(lp167
(dp168
S'objective'
p169
I473
sS'query_time'
p170
F0.4638688564300537
sS'comp_time'
p171
F0.007843017578125
sS'exec_cq'
p172
I50
sS'total_cq'
p173
I50
sa(dp174
g169
I462
sg170
F0.0004971027374267578
sg171
F0.0020189285278320312
sg172
I33
sg173
I33
sa(dp175
g169
I434
sg170
F0.00015497207641601562
sg171
F0.00047016143798828125
sg172
I26
sg173
I26
sa(dp176
g169
I443
sg170
F0.00017690658569335938
sg171
F0.00020813941955566406
sg172
I23
sg173
I23
sa(dp177
g169
I401
sg170
F7.700920104980469e-05
sg171
F0.00018906593322753906
sg172
I21
sg173
I21
sa(dp178
g169
I363
sg170
F6.29425048828125e-05
sg171
F0.00010418891906738281
sg172
I20
sg173
I20
sa(dp179
g169
I37
sg170
F0.0012009143829345703
sg171
F7.462501525878906e-05
sg172
I4
sg173
I4
sa(dp180
g169
I1
sg170
F1.3113021850585938e-05
sg171
F4.38690185546875e-05
sg172
I2
sg173
I2
sasS'total_cqs'
p181
I50
ssI13
(dp182
S'iters'
p183
I5
sS'meta'
p184
(lp185
(dp186
S'objective'
p187
I20
sS'query_time'
p188
F0.21176886558532715
sS'comp_time'
p189
F0.0004138946533203125
sS'exec_cq'
p190
I20
sS'total_cq'
p191
I20
sa(dp192
g187
I1
sg188
F0.0014951229095458984
sg189
F0.00026106834411621094
sg190
I11
sg191
I11
sa(dp193
g187
I9
sg188
F4.100799560546875e-05
sg189
F0.00010037422180175781
sg190
I6
sg191
I6
sa(dp194
g187
I1
sg188
F3.0040740966796875e-05
sg189
F7.987022399902344e-05
sg190
I4
sg191
I4
sa(dp195
g187
I14
sg188
F2.09808349609375e-05
sg189
F5.7220458984375e-05
sg190
I3
sg191
I3
sasS'total_cqs'
p196
I20
ssI14
(dp197
S'iters'
p198
I4
sS'meta'
p199
(lp200
(dp201
S'objective'
p202
I1
sS'query_time'
p203
F26.929625988006592
sS'comp_time'
p204
F1.0668559074401855
sS'exec_cq'
p205
I9
sS'total_cq'
p206
I9
sa(dp207
g202
I2
sg203
F0.2038719654083252
sg204
F0.6813569068908691
sg205
I6
sg206
I6
sa(dp208
g202
I4
sg203
F0.004401206970214844
sg204
F0.01630115509033203
sg205
I3
sg206
I3
sa(dp209
g202
I1
sg203
F0.0033731460571289062
sg204
F0.015737056732177734
sg205
I2
sg206
I2
sasS'total_cqs'
p210
I9
ssI15
(dp211
S'iters'
p212
I4
sS'meta'
p213
(lp214
(dp215
S'objective'
p216
I0
sS'query_time'
p217
F3.1986849308013916
sS'comp_time'
p218
F0.17096686363220215
sS'exec_cq'
p219
I11
sS'total_cq'
p220
I11
sa(dp221
g216
I13
sg217
F0.009429931640625
sg218
F0.05124998092651367
sg219
I6
sg220
I6
sa(dp222
g216
I5
sg217
F0.03878593444824219
sg218
F0.04874992370605469
sg219
I5
sg220
I5
sa(dp223
g216
I7
sg217
F0.009093046188354492
sg218
F0.08036327362060547
sg219
I2
sg220
I2
sasS'total_cqs'
p224
I11
ssI16
(dp225
S'iters'
p226
I1
sS'meta'
p227
(lp228
(dp229
S'objective'
p230
I34
sS'query_time'
p231
F0.02498602867126465
sS'comp_time'
p232
F0.00012803077697753906
sS'exec_cq'
p233
I8
sS'total_cq'
p234
I8
sasS'total_cqs'
p235
I8
ssI17
(dp236
S'iters'
p237
I5
sS'meta'
p238
(lp239
(dp240
S'objective'
p241
I0
sS'query_time'
p242
F0.9299418926239014
sS'comp_time'
p243
F0.02260303497314453
sS'exec_cq'
p244
I11
sS'total_cq'
p245
I11
sa(dp246
g241
I11
sg242
F0.0026569366455078125
sg243
F0.01416015625
sg244
I6
sg245
I6
sa(dp247
g241
I10
sg242
F0.0033388137817382812
sg243
F0.012682914733886719
sg244
I5
sg245
I5
sa(dp248
g241
I10
sg242
F0.0028390884399414062
sg243
F0.01373910903930664
sg244
I4
sg245
I4
sa(dp249
g241
I1
sg242
F0.0023469924926757812
sg243
F0.013818979263305664
sg244
I2
sg245
I2
sasS'total_cqs'
p250
I11
ssI18
(dp251
S'iters'
p252
I4
sS'meta'
p253
(lp254
(dp255
S'objective'
p256
I36
sS'query_time'
p257
F0.27585291862487793
sS'comp_time'
p258
F0.005331993103027344
sS'exec_cq'
p259
I11
sS'total_cq'
p260
I11
sa(dp261
g256
I33
sg257
F0.00034809112548828125
sg258
F0.0011968612670898438
sg259
I8
sg260
I8
sa(dp262
g256
I38
sg257
F6.890296936035156e-05
sg258
F0.0002830028533935547
sg259
I7
sg260
I7
sa(dp263
g256
I38
sg257
F3.504753112792969e-05
sg258
F8.893013000488281e-05
sg259
I6
sg260
I6
sasS'total_cqs'
p264
I11
ssI19
(dp265
S'iters'
p266
I0
sS'meta'
p267
(lp268
sS'total_cqs'
p269
I1
ssI20
(dp270
S'iters'
p271
I0
sS'meta'
p272
(lp273
sS'total_cqs'
p274
I1
ssI21
(dp275
S'iters'
p276
I0
sS'meta'
p277
(lp278
sS'total_cqs'
p279
I1
ssI22
(dp280
S'iters'
p281
I1
sS'meta'
p282
(lp283
(dp284
S'objective'
p285
I169
sS'query_time'
p286
F0.10130000114440918
sS'comp_time'
p287
F0.00019502639770507812
sS'exec_cq'
p288
I18
sS'total_cq'
p289
I18
sasS'total_cqs'
p290
I18
ssI23
(dp291
S'iters'
p292
I3
sS'meta'
p293
(lp294
(dp295
S'objective'
p296
I104
sS'query_time'
p297
F0.06792807579040527
sS'comp_time'
p298
F0.0006749629974365234
sS'exec_cq'
p299
I16
sS'total_cq'
p300
I16
sa(dp301
g296
I110
sg297
F0.00010919570922851562
sg298
F0.00030612945556640625
sg299
I14
sg300
I14
sa(dp302
g296
I113
sg297
F5.602836608886719e-05
sg298
F7.390975952148438e-05
sg299
I13
sg300
I13
sasS'total_cqs'
p303
I16
ssI24
(dp304
S'iters'
p305
I0
sS'meta'
p306
(lp307
sS'total_cqs'
p308
I1
ssI25
(dp309
S'iters'
p310
I0
sS'meta'
p311
(lp312
sS'total_cqs'
p313
I1
ssI26
(dp314
S'iters'
p315
I1
sS'meta'
p316
(lp317
(dp318
S'objective'
p319
I901
sS'query_time'
p320
F0.24377989768981934
sS'comp_time'
p321
F0.00024700164794921875
sS'exec_cq'
p322
I42
sS'total_cq'
p323
I42
sasS'total_cqs'
p324
I42
ssI27
(dp325
S'iters'
p326
I4
sS'meta'
p327
(lp328
(dp329
S'objective'
p330
I297
sS'query_time'
p331
F17.446383953094482
sS'comp_time'
p332
F2.243824005126953
sS'exec_cq'
p333
I30
sS'total_cq'
p334
I30
sa(dp335
g330
I14
sg331
F0.40581798553466797
sg332
F2.000761032104492
sg333
I5
sg334
I5
sa(dp336
g330
I25
sg331
F0.07027912139892578
sg332
F0.472517728805542
sg333
I3
sg334
I3
sa(dp337
g330
I3
sg331
F0.13000702857971191
sg332
F0.40738487243652344
sg333
I2
sg334
I2
sasS'total_cqs'
p338
I30
ssI28
(dp339
S'iters'
p340
I0
sS'meta'
p341
(lp342
sS'total_cqs'
p343
I1
ssI29
(dp344
S'iters'
p345
I5
sS'meta'
p346
(lp347
(dp348
S'objective'
p349
I447
sS'query_time'
p350
F134.6802520751953
sS'comp_time'
p351
F13.799937009811401
sS'exec_cq'
p352
I49
sS'total_cq'
p353
I49
sa(dp354
g349
I13
sg350
F0.020923137664794922
sg351
F0.046338796615600586
sg352
I17
sg353
I17
sa(dp355
g349
I24
sg350
F0.5801329612731934
sg351
F0.037301063537597656
sg352
I7
sg353
I7
sa(dp356
g349
I8
sg350
F0.0015850067138671875
sg351
F0.007353067398071289
sg352
I3
sg353
I3
sa(dp357
g349
I35
sg350
F0.0018429756164550781
sg351
F0.007108926773071289
sg352
I2
sg353
I2
sasS'total_cqs'
p358
I49
ssI30
(dp359
S'iters'
p360
I1
sS'meta'
p361
(lp362
(dp363
S'objective'
p364
I1
sS'query_time'
p365
F0.7268929481506348
sS'comp_time'
p366
F0.023819923400878906
sS'exec_cq'
p367
I2
sS'total_cq'
p368
I2
sasS'total_cqs'
p369
I2
ssI31
(dp370
S'iters'
p371
I0
sS'meta'
p372
(lp373
sS'total_cqs'
p374
I1
ssI32
(dp375
S'iters'
p376
I1
sS'meta'
p377
(lp378
(dp379
S'objective'
p380
I1
sS'query_time'
p381
F0.015423059463500977
sS'comp_time'
p382
F0.0002570152282714844
sS'exec_cq'
p383
I2
sS'total_cq'
p384
I2
sasS'total_cqs'
p385
I2
ssI33
(dp386
S'iters'
p387
I6
sS'meta'
p388
(lp389
(dp390
S'objective'
p391
I3746
sS'query_time'
p392
F14.214955806732178
sS'comp_time'
p393
F0.1293799877166748
sS'exec_cq'
p394
I103
sS'total_cq'
p395
I103
sa(dp396
g391
I1
sg392
F0.007554054260253906
sg393
F0.04260396957397461
sg394
I16
sg395
I16
sa(dp397
g391
I5
sg392
F0.003038167953491211
sg393
F0.012562036514282227
sg394
I8
sg395
I8
sa(dp398
g391
I7
sg392
F0.0010271072387695312
sg393
F0.005231142044067383
sg394
I4
sg395
I4
sa(dp399
g391
I52
sg392
F0.0007238388061523438
sg393
F0.003612041473388672
sg394
I3
sg395
I3
sa(dp400
g391
I20
sg392
F0.0006260871887207031
sg393
F0.003444194793701172
sg394
I2
sg395
I2
sasS'total_cqs'
p401
I103
ssI34
(dp402
S'iters'
p403
I1
sS'meta'
p404
(lp405
(dp406
S'objective'
p407
I1
sS'query_time'
p408
F0.020591020584106445
sS'comp_time'
p409
F0.0005860328674316406
sS'exec_cq'
p410
I2
sS'total_cq'
p411
I2
sasS'total_cqs'
p412
I2
ssI35
(dp413
S'iters'
p414
I18
sS'meta'
p415
(lp416
(dp417
S'objective'
p418
I2353
sS'query_time'
p419
F51.0426390171051
sS'comp_time'
p420
F3.4006059169769287
sS'exec_cq'
p421
I70
sS'total_cq'
p422
I70
sa(dp423
g418
I2341
sg419
F0.8200490474700928
sg420
F4.82020378112793
sg421
I69
sg422
I69
sa(dp424
g418
I2324
sg419
F0.8181262016296387
sg420
F3.2791519165039062
sg421
I68
sg422
I68
sa(dp425
g418
I2214
sg419
F0.8231821060180664
sg420
F3.1853561401367188
sg421
I67
sg422
I67
sa(dp426
g418
I2247
sg419
F0.9621560573577881
sg420
F3.3518729209899902
sg421
I64
sg422
I64
sa(dp427
g418
I2239
sg419
F0.0005991458892822266
sg420
F0.05229687690734863
sg421
I63
sg422
I63
sa(dp428
g418
I2112
sg419
F0.26088380813598633
sg420
F0.2502760887145996
sg421
I62
sg422
I62
sa(dp429
g418
I2044
sg419
F0.23326992988586426
sg420
F0.23383498191833496
sg421
I61
sg422
I61
sa(dp430
g418
I1647
sg419
F0.0565338134765625
sg420
F0.04727482795715332
sg421
I60
sg422
I60
sa(dp431
g418
I1410
sg419
F0.04590106010437012
sg420
F0.04097604751586914
sg421
I56
sg422
I56
sa(dp432
g418
I1519
sg419
F0.13474798202514648
sg420
F0.04856705665588379
sg421
I52
sg422
I52
sa(dp433
g418
I1408
sg419
F0.22614192962646484
sg420
F0.23979401588439941
sg421
I51
sg422
I51
sa(dp434
g418
I1391
sg419
F0.3683359622955322
sg420
F0.20041298866271973
sg421
I47
sg422
I47
sa(dp435
g418
I1299
sg419
F0.5424840450286865
sg420
F0.1982569694519043
sg421
I46
sg422
I46
sa(dp436
g418
I1281
sg419
F0.023813962936401367
sg420
F0.020679950714111328
sg421
I44
sg422
I44
sa(dp437
g418
I1174
sg419
F0.1738910675048828
sg420
F0.14987587928771973
sg421
I43
sg422
I43
sa(dp438
g418
I10
sg419
F0.042207956314086914
sg420
F0.01665210723876953
sg421
I3
sg422
I3
sa(dp439
g418
I31
sg419
F0.006387948989868164
sg420
F0.001775979995727539
sg421
I2
sg422
I2
sasS'total_cqs'
p440
I70
ssI36
(dp441
S'iters'
p442
I5
sS'meta'
p443
(lp444
(dp445
S'objective'
p446
I419
sS'query_time'
p447
F1.0282189846038818
sS'comp_time'
p448
F0.029199838638305664
sS'exec_cq'
p449
I33
sS'total_cq'
p450
I33
sa(dp451
g446
I396
sg447
F0.0027379989624023438
sg448
F0.010795116424560547
sg449
I29
sg450
I29
sa(dp452
g446
I409
sg447
F0.0011980533599853516
sg448
F0.006465911865234375
sg449
I25
sg450
I25
sa(dp453
g446
I398
sg447
F0.0004820823669433594
sg448
F0.002415895462036133
sg449
I24
sg450
I24
sa(dp454
g446
I410
sg447
F0.00012111663818359375
sg448
F0.00031304359436035156
sg449
I23
sg450
I23
sasS'total_cqs'
p455
I33
ssI37
(dp456
S'iters'
p457
I1
sS'meta'
p458
(lp459
(dp460
S'objective'
p461
I1
sS'query_time'
p462
F0.008056879043579102
sS'comp_time'
p463
F0.0002772808074951172
sS'exec_cq'
p464
I2
sS'total_cq'
p465
I2
sasS'total_cqs'
p466
I2
ssI38
(dp467
S'iters'
p468
I2
sS'meta'
p469
(lp470
(dp471
S'objective'
p472
I0
sS'query_time'
p473
F0.027248144149780273
sS'comp_time'
p474
F0.0005011558532714844
sS'exec_cq'
p475
I4
sS'total_cq'
p476
I4
sa(dp477
g472
I3
sg473
F7.510185241699219e-05
sg474
F0.00030517578125
sg475
I2
sg476
I2
sasS'total_cqs'
p478
I4
ssI39
(dp479
S'iters'
p480
I2
sS'meta'
p481
(lp482
(dp483
S'objective'
p484
I736
sS'query_time'
p485
F0.189194917678833
sS'comp_time'
p486
F0.0015711784362792969
sS'exec_cq'
p487
I44
sS'total_cq'
p488
I44
sa(dp489
g484
I861
sg485
F0.00028395652770996094
sg486
F0.005110979080200195
sg487
I37
sg488
I37
sasS'total_cqs'
p490
I44
ssI40
(dp491
S'iters'
p492
I1
sS'meta'
p493
(lp494
(dp495
S'objective'
p496
I26
sS'query_time'
p497
F0.0542449951171875
sS'comp_time'
p498
F0.00010418891906738281
sS'exec_cq'
p499
I7
sS'total_cq'
p500
I7
sasS'total_cqs'
p501
I7
ssI41
(dp502
S'iters'
p503
I2
sS'meta'
p504
(lp505
(dp506
S'objective'
p507
I68
sS'query_time'
p508
F0.09553003311157227
sS'comp_time'
p509
F0.0001499652862548828
sS'exec_cq'
p510
I12
sS'total_cq'
p511
I12
sa(dp512
g507
I71
sg508
F5.412101745605469e-05
sg509
F8.177757263183594e-05
sg510
I11
sg511
I11
sasS'total_cqs'
p513
I12
ssI42
(dp514
S'iters'
p515
I4
sS'meta'
p516
(lp517
(dp518
S'objective'
p519
I797
sS'query_time'
p520
F0.12977886199951172
sS'comp_time'
p521
F0.0002238750457763672
sS'exec_cq'
p522
I41
sS'total_cq'
p523
I41
sa(dp524
g519
I767
sg520
F0.00017595291137695312
sg521
F0.00013494491577148438
sg522
I40
sg523
I40
sa(dp525
g519
I744
sg520
F0.00016689300537109375
sg521
F0.00011491775512695312
sg522
I39
sg523
I39
sa(dp526
g519
I769
sg520
F0.00013899803161621094
sg521
F8.392333984375e-05
sg522
I38
sg523
I38
sasS'total_cqs'
p527
I41
ssI43
(dp528
S'iters'
p529
I1
sS'meta'
p530
(lp531
(dp532
S'objective'
p533
I26
sS'query_time'
p534
F0.033679962158203125
sS'comp_time'
p535
F0.00011277198791503906
sS'exec_cq'
p536
I7
sS'total_cq'
p537
I7
sasS'total_cqs'
p538
I7
ssI44
(dp539
S'iters'
p540
I5
sS'meta'
p541
(lp542
(dp543
S'objective'
p544
I732
sS'query_time'
p545
F0.19424700736999512
sS'comp_time'
p546
F0.0010440349578857422
sS'exec_cq'
p547
I47
sS'total_cq'
p548
I47
sa(dp549
g544
I868
sg545
F0.0003159046173095703
sg546
F0.000988006591796875
sg547
I40
sg548
I40
sa(dp550
g544
I843
sg545
F0.0002429485321044922
sg546
F0.0006251335144042969
sg547
I39
sg548
I39
sa(dp551
g544
I0
sg545
F0.001483917236328125
sg546
F0.0037708282470703125
sg547
I3
sg548
I3
sa(dp552
g544
I12
sg545
F0.00011420249938964844
sg546
F0.0005848407745361328
sg547
I2
sg548
I2
sasS'total_cqs'
p553
I47
ssI45
(dp554
S'iters'
p555
I0
sS'meta'
p556
(lp557
sS'total_cqs'
p558
I1
ssI46
(dp559
S'iters'
p560
I3
sS'meta'
p561
(lp562
(dp563
S'objective'
p564
I11
sS'query_time'
p565
F0.022064924240112305
sS'comp_time'
p566
F0.0002617835998535156
sS'exec_cq'
p567
I6
sS'total_cq'
p568
I6
sa(dp569
g564
I8
sg565
F5.602836608886719e-05
sg566
F0.00019788742065429688
sg567
I5
sg568
I5
sa(dp570
g564
I10
sg565
F2.09808349609375e-05
sg566
F5.793571472167969e-05
sg567
I4
sg568
I4
sasS'total_cqs'
p571
I6
ssI47
(dp572
S'iters'
p573
I1
sS'meta'
p574
(lp575
(dp576
S'objective'
p577
I1
sS'query_time'
p578
F0.008951902389526367
sS'comp_time'
p579
F0.0002200603485107422
sS'exec_cq'
p580
I2
sS'total_cq'
p581
I2
sasS'total_cqs'
p582
I2
ssI48
(dp583
S'iters'
p584
I0
sS'meta'
p585
(lp586
sS'total_cqs'
p587
I1
ssI49
(dp588
S'iters'
p589
I0
sS'meta'
p590
(lp591
sS'total_cqs'
p592
I1
ssI50
(dp593
S'iters'
p594
I4
sS'meta'
p595
(lp596
(dp597
S'objective'
p598
I5
sS'query_time'
p599
F0.030777931213378906
sS'comp_time'
p600
F0.0001468658447265625
sS'exec_cq'
p601
I5
sS'total_cq'
p602
I5
sa(dp603
g598
I2
sg599
F3.1948089599609375e-05
sg600
F8.702278137207031e-05
sg601
I4
sg602
I4
sa(dp604
g598
I0
sg599
F2.2172927856445312e-05
sg600
F7.295608520507812e-05
sg601
I3
sg602
I3
sa(dp605
g598
I1
sg599
F1.71661376953125e-05
sg600
F6.175041198730469e-05
sg601
I2
sg602
I2
sasS'total_cqs'
p606
I5
ssI51
(dp607
S'iters'
p608
I1
sS'meta'
p609
(lp610
(dp611
S'objective'
p612
I1
sS'query_time'
p613
F0.007512092590332031
sS'comp_time'
p614
F0.0001239776611328125
sS'exec_cq'
p615
I2
sS'total_cq'
p616
I2
sasS'total_cqs'
p617
I2
ssI52
(dp618
S'iters'
p619
I1
sS'meta'
p620
(lp621
(dp622
S'objective'
p623
I1
sS'query_time'
p624
F0.018718957901000977
sS'comp_time'
p625
F0.0002148151397705078
sS'exec_cq'
p626
I2
sS'total_cq'
p627
I2
sasS'total_cqs'
p628
I2
ssI53
(dp629
S'iters'
p630
I2
sS'meta'
p631
(lp632
(dp633
S'objective'
p634
I2
sS'query_time'
p635
F0.027734994888305664
sS'comp_time'
p636
F0.0007190704345703125
sS'exec_cq'
p637
I4
sS'total_cq'
p638
I4
sa(dp639
g634
I2
sg635
F8.893013000488281e-05
sg636
F0.00048422813415527344
sg637
I2
sg638
I2
sasS'total_cqs'
p640
I4
ssI54
(dp641
S'iters'
p642
I2
sS'meta'
p643
(lp644
(dp645
S'objective'
p646
I0
sS'query_time'
p647
F0.012597084045410156
sS'comp_time'
p648
F0.0002830028533935547
sS'exec_cq'
p649
I3
sS'total_cq'
p650
I3
sa(dp651
g646
I1
sg647
F4.410743713378906e-05
sg648
F0.00020813941955566406
sg649
I2
sg650
I2
sasS'total_cqs'
p652
I3
ssI55
(dp653
S'iters'
p654
I9
sS'meta'
p655
(lp656
(dp657
S'objective'
p658
I4419
sS'query_time'
p659
F2.4029760360717773
sS'comp_time'
p660
F0.03515291213989258
sS'exec_cq'
p661
I109
sS'total_cq'
p662
I109
sa(dp663
g658
I4519
sg659
F0.0007638931274414062
sg660
F0.0015537738800048828
sg661
I97
sg662
I97
sa(dp664
g658
I4291
sg659
F0.00047707557678222656
sg660
F0.0016770362854003906
sg661
I93
sg662
I93
sa(dp665
g658
I4247
sg659
F0.0002880096435546875
sg660
F0.0007622241973876953
sg661
I87
sg662
I87
sa(dp666
g658
I4216
sg659
F0.00025916099548339844
sg660
F0.0005860328674316406
sg661
I85
sg662
I85
sa(dp667
g658
I4142
sg659
F0.0002541542053222656
sg660
F0.0004999637603759766
sg661
I83
sg662
I83
sa(dp668
g658
I4082
sg659
F0.00023508071899414062
sg660
F0.0004239082336425781
sg661
I81
sg662
I81
sa(dp669
g658
I4049
sg659
F0.00023102760314941406
sg660
F0.0004031658172607422
sg661
I80
sg662
I80
sa(dp670
g658
I4100
sg659
F0.0002281665802001953
sg660
F0.0005168914794921875
sg661
I79
sg662
I79
sasS'total_cqs'
p671
I109
ssI56
(dp672
S'iters'
p673
I5
sS'meta'
p674
(lp675
(dp676
S'objective'
p677
I1744
sS'query_time'
p678
F3.465981960296631
sS'comp_time'
p679
F0.15148687362670898
sS'exec_cq'
p680
I76
sS'total_cq'
p681
I76
sa(dp682
g677
I63
sg678
F0.005548954010009766
sg679
F0.009881973266601562
sg680
I16
sg681
I16
sa(dp683
g677
I15
sg678
F0.0015330314636230469
sg679
F0.0058209896087646484
sg680
I10
sg681
I10
sa(dp684
g677
I16
sg678
F0.00016999244689941406
sg679
F0.0008037090301513672
sg680
I4
sg681
I4
sa(dp685
g677
I68
sg678
F8.511543273925781e-05
sg679
F0.0004820823669433594
sg680
I2
sg681
I2
sasS'total_cqs'
p686
I76
ssI57
(dp687
S'iters'
p688
I6
sS'meta'
p689
(lp690
(dp691
S'objective'
p692
I150
sS'query_time'
p693
F67.85820078849792
sS'comp_time'
p694
F3.419682025909424
sS'exec_cq'
p695
I51
sS'total_cq'
p696
I51
sa(dp697
g692
I70
sg693
F0.013829946517944336
sg694
F0.028255939483642578
sg695
I27
sg696
I27
sa(dp698
g692
I26
sg693
F0.002068042755126953
sg694
F0.005934953689575195
sg695
I13
sg696
I13
sa(dp699
g692
I0
sg693
F0.001425027847290039
sg694
F0.004057884216308594
sg695
I6
sg696
I6
sa(dp700
g692
I5
sg693
F0.000993967056274414
sg694
F0.0035970211029052734
sg695
I3
sg696
I3
sa(dp701
g692
I34
sg693
F0.0006477832794189453
sg694
F0.002913951873779297
sg695
I2
sg696
I2
sasS'total_cqs'
p702
I51
ssI58
(dp703
S'iters'
p704
I10
sS'meta'
p705
(lp706
(dp707
S'objective'
p708
I86991
sS'query_time'
p709
F293.06307911872864
sS'comp_time'
p710
F16.771345853805542
sS'exec_cq'
p711
I486
sS'total_cq'
p712
I486
sa(dp713
g708
I10457
sg709
F0.03482794761657715
sg710
F0.19506573677062988
sg711
I64
sg712
I64
sa(dp714
g708
I2628
sg709
F0.03469705581665039
sg710
F1.2991580963134766
sg711
I52
sg712
I52
sa(dp715
g708
I2807
sg709
F0.014240026473999023
sg710
F0.10119080543518066
sg711
I32
sg712
I32
sa(dp716
g708
I477
sg709
F0.010476112365722656
sg710
F0.2769019603729248
sg711
I21
sg712
I21
sa(dp717
g708
I44
sg709
F0.00454401969909668
sg710
F0.03638792037963867
sg711
I11
sg712
I11
sa(dp718
g708
I109
sg709
F0.0016169548034667969
sg710
F0.005087852478027344
sg711
I6
sg712
I6
sa(dp719
g708
I250
sg709
F0.0010080337524414062
sg710
F0.005120992660522461
sg711
I4
sg712
I4
sa(dp720
g708
I181
sg709
F0.0008819103240966797
sg710
F0.00397491455078125
sg711
I3
sg712
I3
sa(dp721
g708
I10
sg709
F0.0006999969482421875
sg710
F0.003556966781616211
sg711
I2
sg712
I2
sasS'total_cqs'
p722
I486
ssI59
(dp723
S'iters'
p724
I2
sS'meta'
p725
(lp726
(dp727
S'objective'
p728
I18
sS'query_time'
p729
F0.06651711463928223
sS'comp_time'
p730
F0.0008847713470458984
sS'exec_cq'
p731
I7
sS'total_cq'
p732
I7
sa(dp733
g728
I3
sg729
F0.00015497207641601562
sg730
F0.0008270740509033203
sg731
I2
sg732
I2
sasS'total_cqs'
p734
I7
ssI60
(dp735
S'iters'
p736
I4
sS'meta'
p737
(lp738
(dp739
S'objective'
p740
I5
sS'query_time'
p741
F0.022822856903076172
sS'comp_time'
p742
F0.00032901763916015625
sS'exec_cq'
p743
I5
sS'total_cq'
p744
I5
sa(dp745
g740
I2
sg741
F3.0040740966796875e-05
sg742
F9.417533874511719e-05
sg743
I4
sg744
I4
sa(dp746
g740
I0
sg741
F2.8848648071289062e-05
sg742
F8.988380432128906e-05
sg743
I3
sg744
I3
sa(dp747
g740
I1
sg741
F1.5020370483398438e-05
sg742
F4.696846008300781e-05
sg743
I2
sg744
I2
sasS'total_cqs'
p748
I5
ssI61
(dp749
S'iters'
p750
I0
sS'meta'
p751
(lp752
sS'total_cqs'
p753
I1
ssI62
(dp754
S'iters'
p755
I3
sS'meta'
p756
(lp757
(dp758
S'objective'
p759
I44
sS'query_time'
p760
F0.06064796447753906
sS'comp_time'
p761
F0.0002110004425048828
sS'exec_cq'
p762
I12
sS'total_cq'
p763
I12
sa(dp764
g759
I37
sg760
F5.1975250244140625e-05
sg761
F8.296966552734375e-05
sg762
I9
sg763
I9
sa(dp765
g759
I47
sg760
F3.504753112792969e-05
sg761
F5.817413330078125e-05
sg762
I8
sg763
I8
sasS'total_cqs'
p766
I12
ssI63
(dp767
S'iters'
p768
I0
sS'meta'
p769
(lp770
sS'total_cqs'
p771
I1
ssI64
(dp772
S'iters'
p773
I3
sS'meta'
p774
(lp775
(dp776
S'objective'
p777
I22
sS'query_time'
p778
F0.16655302047729492
sS'comp_time'
p779
F0.008317947387695312
sS'exec_cq'
p780
I12
sS'total_cq'
p781
I12
sa(dp782
g777
I2
sg778
F0.0001220703125
sg779
F0.00045800209045410156
sg780
I4
sg781
I4
sa(dp783
g777
I11
sg778
F2.9802322387695312e-05
sg779
F0.00014019012451171875
sg780
I2
sg781
I2
sasS'total_cqs'
p784
I12
ssI65
(dp785
S'iters'
p786
I5
sS'meta'
p787
(lp788
(dp789
S'objective'
p790
I146
sS'query_time'
p791
F0.840742826461792
sS'comp_time'
p792
F0.04080390930175781
sS'exec_cq'
p793
I27
sS'total_cq'
p794
I27
sa(dp795
g790
I10
sg791
F0.0014619827270507812
sg792
F0.0050661563873291016
sg793
I7
sg794
I7
sa(dp796
g790
I3
sg791
F0.0008959770202636719
sg792
F0.004050016403198242
sg793
I5
sg794
I5
sa(dp797
g790
I20
sg791
F0.0003418922424316406
sg792
F0.00263214111328125
sg793
I3
sg794
I3
sa(dp798
g790
I3
sg791
F9.012222290039062e-05
sg792
F0.0005791187286376953
sg793
I2
sg794
I2
sasS'total_cqs'
p799
I27
ssI66
(dp800
S'iters'
p801
I0
sS'meta'
p802
(lp803
sS'total_cqs'
p804
I1
ssI67
(dp805
S'iters'
p806
I2
sS'meta'
p807
(lp808
(dp809
S'objective'
p810
I588
sS'query_time'
p811
F1.4540739059448242
sS'comp_time'
p812
F0.008111000061035156
sS'exec_cq'
p813
I35
sS'total_cq'
p814
I35
sa(dp815
g810
I19
sg811
F0.0016129016876220703
sg812
F0.006512165069580078
sg813
I2
sg814
I2
sasS'total_cqs'
p816
I35
ssI68
(dp817
S'iters'
p818
I0
sS'meta'
p819
(lp820
sS'total_cqs'
p821
I1
ssI69
(dp822
S'iters'
p823
I1
sS'meta'
p824
(lp825
(dp826
S'objective'
p827
I1324
sS'query_time'
p828
F0.23147106170654297
sS'comp_time'
p829
F0.00027680397033691406
sS'exec_cq'
p830
I51
sS'total_cq'
p831
I51
sasS'total_cqs'
p832
I51
ssI70
(dp833
S'iters'
p834
I4
sS'meta'
p835
(lp836
(dp837
S'objective'
p838
I9
sS'query_time'
p839
F0.025202035903930664
sS'comp_time'
p840
F0.0002117156982421875
sS'exec_cq'
p841
I6
sS'total_cq'
p842
I6
sa(dp843
g838
I5
sg839
F4.410743713378906e-05
sg840
F0.00015807151794433594
sg841
I5
sg842
I5
sa(dp844
g838
I4
sg839
F3.695487976074219e-05
sg840
F0.00014495849609375
sg841
I4
sg842
I4
sa(dp845
g838
I5
sg839
F3.1948089599609375e-05
sg840
F0.00013589859008789062
sg841
I3
sg842
I3
sasS'total_cqs'
p846
I6
ssI71
(dp847
S'iters'
p848
I7
sS'meta'
p849
(lp850
(dp851
S'objective'
p852
I3355
sS'query_time'
p853
F0.4257059097290039
sS'comp_time'
p854
F0.0007078647613525391
sS'exec_cq'
p855
I85
sS'total_cq'
p856
I85
sa(dp857
g852
I3219
sg853
F0.0002880096435546875
sg854
F0.0005099773406982422
sg855
I82
sg856
I82
sa(dp858
g852
I3084
sg853
F0.0002219676971435547
sg854
F0.00044798851013183594
sg855
I78
sg856
I78
sa(dp859
g852
I2997
sg853
F0.0002028942108154297
sg854
F0.0003790855407714844
sg855
I74
sg856
I74
sa(dp860
g852
I2940
sg853
F0.000186920166015625
sg854
F0.0002658367156982422
sg855
I71
sg856
I71
sa(dp861
g852
I9
sg853
F0.0019409656524658203
sg854
F0.00013494491577148438
sg855
I3
sg856
I3
sa(dp862
g852
I45
sg853
F0.003690958023071289
sg854
F0.00013113021850585938
sg855
I2
sg856
I2
sasS'total_cqs'
p863
I85
ssI72
(dp864
S'iters'
p865
I3
sS'meta'
p866
(lp867
(dp868
S'objective'
p869
I8
sS'query_time'
p870
F0.4156191349029541
sS'comp_time'
p871
F0.0051670074462890625
sS'exec_cq'
p872
I8
sS'total_cq'
p873
I8
sa(dp874
g869
I0
sg870
F0.0004279613494873047
sg871
F0.0018541812896728516
sg872
I6
sg873
I6
sa(dp875
g869
I9
sg870
F2.9087066650390625e-05
sg871
F0.00010895729064941406
sg872
I3
sg873
I3
sasS'total_cqs'
p876
I8
ssI73
(dp877
S'iters'
p878
I0
sS'meta'
p879
(lp880
sS'total_cqs'
p881
I1
ssI74
(dp882
S'iters'
p883
I0
sS'meta'
p884
(lp885
sS'total_cqs'
p886
I1
ssI75
(dp887
S'iters'
p888
I4
sS'meta'
p889
(lp890
(dp891
S'objective'
p892
I5
sS'query_time'
p893
F0.020780086517333984
sS'comp_time'
p894
F0.00012803077697753906
sS'exec_cq'
p895
I5
sS'total_cq'
p896
I5
sa(dp897
g892
I2
sg893
F3.2901763916015625e-05
sg894
F7.295608520507812e-05
sg895
I4
sg896
I4
sa(dp898
g892
I0
sg893
F2.09808349609375e-05
sg894
F6.604194641113281e-05
sg895
I3
sg896
I3
sa(dp899
g892
I1
sg893
F1.6927719116210938e-05
sg894
F4.792213439941406e-05
sg895
I2
sg896
I2
sasS'total_cqs'
p900
I5
ssI76
(dp901
S'iters'
p902
I1
sS'meta'
p903
(lp904
(dp905
S'objective'
p906
I1
sS'query_time'
p907
F0.015178918838500977
sS'comp_time'
p908
F0.0003590583801269531
sS'exec_cq'
p909
I2
sS'total_cq'
p910
I2
sasS'total_cqs'
p911
I2
ssI77
(dp912
S'iters'
p913
I0
sS'meta'
p914
(lp915
sS'total_cqs'
p916
I1
ssI78
(dp917
S'iters'
p918
I0
sS'meta'
p919
(lp920
sS'total_cqs'
p921
I1
ssI103
(dp922
S'iters'
p923
I2
sS'meta'
p924
(lp925
(dp926
S'objective'
p927
I70
sS'query_time'
p928
F0.10538697242736816
sS'comp_time'
p929
F0.0001747608184814453
sS'exec_cq'
p930
I12
sS'total_cq'
p931
I12
sa(dp932
g927
I72
sg928
F6.198883056640625e-05
sg929
F9.894371032714844e-05
sg930
I11
sg931
I11
sasS'total_cqs'
p933
I12
ssI104
(dp934
S'iters'
p935
I2
sS'meta'
p936
(lp937
(dp938
S'objective'
p939
I0
sS'query_time'
p940
F1.6665501594543457
sS'comp_time'
p941
F0.1156911849975586
sS'exec_cq'
p942
I4
sS'total_cq'
p943
I4
sa(dp944
g939
I3
sg940
F0.013556957244873047
sg941
F0.13849806785583496
sg942
I2
sg943
I2
sasS'total_cqs'
p945
I4
ssI105
(dp946
S'iters'
p947
I0
sS'meta'
p948
(lp949
sS'total_cqs'
p950
I1
ssI106
(dp951
S'iters'
p952
I1
sS'meta'
p953
(lp954
(dp955
S'objective'
p956
I8
sS'query_time'
p957
F0.035349130630493164
sS'comp_time'
p958
F0.00010514259338378906
sS'exec_cq'
p959
I4
sS'total_cq'
p960
I4
sasS'total_cqs'
p961
I4
ssI107
(dp962
S'iters'
p963
I2
sS'meta'
p964
(lp965
(dp966
S'objective'
p967
I92
sS'query_time'
p968
F0.10987496376037598
sS'comp_time'
p969
F0.00021219253540039062
sS'exec_cq'
p970
I16
sS'total_cq'
p971
I16
sa(dp972
g967
I20
sg968
F0.008136987686157227
sg969
F0.00012421607971191406
sg970
I3
sg971
I3
sasS'total_cqs'
p973
I16
ssI108
(dp974
S'iters'
p975
I0
sS'meta'
p976
(lp977
sS'total_cqs'
p978
I1
ss.