(dp0
I1
(dp1
S'iters'
p2
I3
sS'meta'
p3
(lp4
(dp5
S'objective'
p6
I60
sS'query_time'
p7
F0.03326296806335449
sS'comp_time'
p8
F0.02050471305847168
sS'exec_cq'
p9
I12
sS'total_cq'
p10
I12
sa(dp11
g6
I51
sg7
F6.604194641113281e-05
sg8
F0.00023746490478515625
sg9
I10
sg10
I10
sa(dp12
g6
I46
sg7
F4.482269287109375e-05
sg8
F0.00015091896057128906
sg9
I9
sg10
I9
sasS'total_cqs'
p13
I12
ssI2
(dp14
S'iters'
p15
I7
sS'meta'
p16
(lp17
(dp18
S'objective'
p19
I302
sS'query_time'
p20
F0.052828073501586914
sS'comp_time'
p21
F0.0321042537689209
sS'exec_cq'
p22
I14
sS'total_cq'
p23
I27
sa(dp24
g19
I208
sg20
F0.04962587356567383
sg21
F0.0006606578826904297
sg22
I13
sg23
I24
sa(dp25
g19
I200
sg20
F0.00010514259338378906
sg21
F0.0004830360412597656
sg22
I11
sg23
I21
sa(dp26
g19
I199
sg20
F7.700920104980469e-05
sg21
F0.00040602684020996094
sg22
I9
sg23
I19
sa(dp27
g19
I176
sg20
F5.507469177246094e-05
sg21
F0.0002079010009765625
sg22
I10
sg23
I17
sa(dp28
g19
I189
sg20
F3.910064697265625e-05
sg21
F0.00019979476928710938
sg22
I7
sg23
I15
sa(dp29
g19
I163
sg20
F6.079673767089844e-05
sg21
F0.0001468658447265625
sg22
I14
sg23
I14
sasS'total_cqs'
p30
I27
ssI3
(dp31
S'iters'
p32
I4
sS'meta'
p33
(lp34
(dp35
S'objective'
p36
I266
sS'query_time'
p37
F77.36631512641907
sS'comp_time'
p38
F0.6008932590484619
sS'exec_cq'
p39
I16
sS'total_cq'
p40
I43
sa(dp41
g36
I10
sg37
F108.68464016914368
sg38
F2.2172341346740723
sg39
I14
sg40
I27
sa(dp42
g36
I32
sg37
F42.107444047927856
sg38
F0.7079005241394043
sg39
I9
sg40
I13
sa(dp43
g36
I87
sg37
F11.182087898254395
sg38
F0.00302886962890625
sg39
I6
sg40
I6
sasS'total_cqs'
p44
I43
ssI4
(dp45
S'iters'
p46
I2
sS'meta'
p47
(lp48
(dp49
S'objective'
p50
I34
sS'query_time'
p51
F4.9097230434417725
sS'comp_time'
p52
F0.9101011753082275
sS'exec_cq'
p53
I11
sS'total_cq'
p54
I11
sa(dp55
g50
I2
sg51
F0.2171180248260498
sg52
F0.8402681350708008
sg53
I2
sg54
I2
sasS'total_cqs'
p56
I11
ssI5
(dp57
S'iters'
p58
I3
sS'meta'
p59
(lp60
(dp61
S'objective'
p62
I0
sS'query_time'
p63
F33.24166488647461
sS'comp_time'
p64
F4.797066688537598
sS'exec_cq'
p65
I8
sS'total_cq'
p66
I8
sa(dp67
g62
I0
sg63
F0.010448932647705078
sg64
F0.05901646614074707
sg65
I4
sg66
I4
sa(dp68
g62
I1
sg63
F0.005023002624511719
sg64
F0.03304862976074219
sg65
I2
sg66
I2
sasS'total_cqs'
p69
I8
ssI6
(dp70
S'iters'
p71
I4
sS'meta'
p72
(lp73
(dp74
S'objective'
p75
I33
sS'query_time'
p76
F36.631579875946045
sS'comp_time'
p77
F3.5371689796447754
sS'exec_cq'
p78
I18
sS'total_cq'
p79
I18
sa(dp80
g75
I1
sg76
F0.6109609603881836
sg77
F3.4549190998077393
sg78
I7
sg79
I7
sa(dp81
g75
I0
sg76
F0.43076300621032715
sg77
F2.0610849857330322
sg78
I5
sg79
I5
sa(dp82
g75
I3
sg76
F0.2837390899658203
sg77
F1.5057878494262695
sg78
I3
sg79
I3
sasS'total_cqs'
p83
I18
ssI7
(dp84
S'iters'
p85
I3
sS'meta'
p86
(lp87
(dp88
S'objective'
p89
I1
sS'query_time'
p90
F12.782549142837524
sS'comp_time'
p91
F1.9041521549224854
sS'exec_cq'
p92
I9
sS'total_cq'
p93
I9
sa(dp94
g89
I1
sg90
F0.17833518981933594
sg91
F0.3242218494415283
sg92
I6
sg93
I6
sa(dp95
g89
I0
sg90
F0.030946969985961914
sg91
F0.44838786125183105
sg92
I4
sg93
I4
sasS'total_cqs'
p96
I9
ssI8
(dp97
S'iters'
p98
I3
sS'meta'
p99
(lp100
(dp101
S'objective'
p102
I304
sS'query_time'
p103
F0.09084606170654297
sS'comp_time'
p104
F0.032540321350097656
sS'exec_cq'
p105
I13
sS'total_cq'
p106
I27
sa(dp107
g102
I211
sg103
F0.11246895790100098
sg104
F0.0007808208465576172
sg105
I14
sg106
I24
sa(dp108
g102
I246
sg103
F5.0067901611328125e-05
sg104
F0.00021791458129882812
sg105
I10
sg106
I19
sasS'total_cqs'
p109
I27
ssI9
(dp110
S'iters'
p111
I3
sS'meta'
p112
(lp113
(dp114
S'objective'
p115
I2
sS'query_time'
p116
F0.04620099067687988
sS'comp_time'
p117
F0.005276679992675781
sS'exec_cq'
p118
I7
sS'total_cq'
p119
I7
sa(dp120
g115
I3
sg116
F2.7894973754882812e-05
sg117
F0.00017571449279785156
sg118
I4
sg119
I4
sa(dp121
g115
I4
sg116
F0.0016520023345947266
sg117
F9.489059448242188e-05
sg118
I2
sg119
I2
sasS'total_cqs'
p122
I7
ssI10
(dp123
S'iters'
p124
I5
sS'meta'
p125
(lp126
(dp127
S'objective'
p128
I736
sS'query_time'
p129
F0.19303011894226074
sS'comp_time'
p130
F0.09598684310913086
sS'exec_cq'
p131
I28
sS'total_cq'
p132
I51
sa(dp133
g128
I495
sg129
F0.18736481666564941
sg130
F0.0016438961029052734
sg131
I23
sg132
I37
sa(dp134
g128
I6
sg129
F0.001895904541015625
sg130
F0.0012612342834472656
sg131
I12
sg132
I12
sa(dp135
g128
I5
sg129
F0.00011897087097167969
sg130
F0.0006182193756103516
sg131
I7
sg132
I7
sa(dp136
g128
I17
sg129
F2.6941299438476562e-05
sg130
F0.00016808509826660156
sg131
I3
sg132
I3
sasS'total_cqs'
p137
I51
ssI11
(dp138
S'iters'
p139
I6
sS'meta'
p140
(lp141
(dp142
S'objective'
p143
I1038
sS'query_time'
p144
F0.7759859561920166
sS'comp_time'
p145
F0.18781089782714844
sS'exec_cq'
p146
I63
sS'total_cq'
p147
I63
sa(dp148
g143
I893
sg144
F0.0135040283203125
sg145
F0.006912946701049805
sg146
I47
sg147
I47
sa(dp149
g143
I840
sg144
F0.0006730556488037109
sg145
F0.004425048828125
sg146
I40
sg147
I40
sa(dp150
g143
I1
sg144
F0.001631021499633789
sg145
F0.0012519359588623047
sg146
I6
sg147
I6
sa(dp151
g143
I23
sg144
F2.8848648071289062e-05
sg145
F0.0001652240753173828
sg146
I3
sg147
I3
sa(dp152
g143
I8
sg144
F1.5974044799804688e-05
sg145
F7.891654968261719e-05
sg146
I2
sg147
I2
sasS'total_cqs'
p153
I63
ssI12
(dp154
S'iters'
p155
I6
sS'meta'
p156
(lp157
(dp158
S'objective'
p159
I525
sS'query_time'
p160
F0.18621087074279785
sS'comp_time'
p161
F0.08485221862792969
sS'exec_cq'
p162
I28
sS'total_cq'
p163
I50
sa(dp164
g159
I532
sg160
F0.16822290420532227
sg161
F0.0031871795654296875
sg162
I22
sg163
I33
sa(dp165
g159
I440
sg160
F7.796287536621094e-05
sg161
F0.000553131103515625
sg162
I11
sg163
I26
sa(dp166
g159
I444
sg160
F0.00013113021850585938
sg161
F0.0005018711090087891
sg162
I15
sg163
I23
sa(dp167
g159
I389
sg160
F0.000102996826171875
sg161
F0.0004820823669433594
sg162
I13
sg163
I21
sa(dp168
g159
I9
sg160
F0.0013899803161621094
sg161
F0.00044655799865722656
sg162
I5
sg163
I5
sasS'total_cqs'
p169
I50
ssI13
(dp170
S'iters'
p171
I5
sS'meta'
p172
(lp173
(dp174
S'objective'
p175
I10
sS'query_time'
p176
F0.1770648956298828
sS'comp_time'
p177
F0.043244123458862305
sS'exec_cq'
p178
I20
sS'total_cq'
p179
I20
sa(dp180
g175
I38
sg176
F0.0015959739685058594
sg177
F0.0007162094116210938
sg178
I11
sg179
I11
sa(dp181
g175
I10
sg176
F3.600120544433594e-05
sg177
F0.00021076202392578125
sg178
I5
sg179
I5
sa(dp182
g175
I12
sg176
F2.09808349609375e-05
sg177
F9.489059448242188e-05
sg178
I3
sg179
I3
sa(dp183
g175
I5
sg176
F1.3828277587890625e-05
sg177
F7.009506225585938e-05
sg178
I2
sg179
I2
sasS'total_cqs'
p184
I20
ssI14
(dp185
S'iters'
p186
I3
sS'meta'
p187
(lp188
(dp189
S'objective'
p190
I1
sS'query_time'
p191
F33.655380964279175
sS'comp_time'
p192
F1.643406867980957
sS'exec_cq'
p193
I9
sS'total_cq'
p194
I9
sa(dp195
g190
I5
sg191
F0.29372215270996094
sg192
F1.1333448886871338
sg193
I5
sg194
I5
sa(dp196
g190
I2
sg191
F0.0037949085235595703
sg192
F0.02036309242248535
sg193
I3
sg194
I3
sasS'total_cqs'
p197
I9
ssI15
(dp198
S'iters'
p199
I3
sS'meta'
p200
(lp201
(dp202
S'objective'
p203
I0
sS'query_time'
p204
F3.614051103591919
sS'comp_time'
p205
F0.2949700355529785
sS'exec_cq'
p206
I11
sS'total_cq'
p207
I11
sa(dp208
g203
I1
sg204
F0.028628826141357422
sg205
F0.21126222610473633
sg206
I5
sg207
I5
sa(dp209
g203
I3
sg204
F0.001010894775390625
sg205
F0.005039215087890625
sg206
I2
sg207
I2
sasS'total_cqs'
p210
I11
ssI16
(dp211
S'iters'
p212
I1
sS'meta'
p213
(lp214
(dp215
S'objective'
p216
I26
sS'query_time'
p217
F0.028673887252807617
sS'comp_time'
p218
F0.004309415817260742
sS'exec_cq'
p219
I8
sS'total_cq'
p220
I8
sasS'total_cqs'
p221
I8
ssI17
(dp222
S'iters'
p223
I3
sS'meta'
p224
(lp225
(dp226
S'objective'
p227
I0
sS'query_time'
p228
F0.8942441940307617
sS'comp_time'
p229
F0.05057716369628906
sS'exec_cq'
p230
I11
sS'total_cq'
p231
I11
sa(dp232
g227
I3
sg228
F0.003178119659423828
sg229
F0.0191800594329834
sg230
I6
sg231
I6
sa(dp233
g227
I1
sg228
F0.002778768539428711
sg229
F0.01772308349609375
sg230
I2
sg231
I2
sasS'total_cqs'
p234
I11
ssI18
(dp235
S'iters'
p236
I1
sS'meta'
p237
(lp238
(dp239
S'objective'
p240
I52
sS'query_time'
p241
F0.2075049877166748
sS'comp_time'
p242
F0.07036972045898438
sS'exec_cq'
p243
I10
sS'total_cq'
p244
I11
sasS'total_cqs'
p245
I11
ssI19
(dp246
S'iters'
p247
I0
sS'meta'
p248
(lp249
sS'total_cqs'
p250
I1
ssI20
(dp251
S'iters'
p252
I0
sS'meta'
p253
(lp254
sS'total_cqs'
p255
I1
ssI21
(dp256
S'iters'
p257
I0
sS'meta'
p258
(lp259
sS'total_cqs'
p260
I1
ssI22
(dp261
S'iters'
p262
I1
sS'meta'
p263
(lp264
(dp265
S'objective'
p266
I151
sS'query_time'
p267
F0.0806269645690918
sS'comp_time'
p268
F0.031043052673339844
sS'exec_cq'
p269
I18
sS'total_cq'
p270
I18
sasS'total_cqs'
p271
I18
ssI23
(dp272
S'iters'
p273
I2
sS'meta'
p274
(lp275
(dp276
S'objective'
p277
I112
sS'query_time'
p278
F0.02383112907409668
sS'comp_time'
p279
F0.02560710906982422
sS'exec_cq'
p280
I8
sS'total_cq'
p281
I16
sa(dp282
g277
I106
sg278
F0.02887582778930664
sg279
F0.0004792213439941406
sg280
I8
sg281
I14
sasS'total_cqs'
p283
I16
ssI24
(dp284
S'iters'
p285
I0
sS'meta'
p286
(lp287
sS'total_cqs'
p288
I1
ssI25
(dp289
S'iters'
p290
I0
sS'meta'
p291
(lp292
sS'total_cqs'
p293
I1
ssI26
(dp294
S'iters'
p295
I1
sS'meta'
p296
(lp297
(dp298
S'objective'
p299
I859
sS'query_time'
p300
F0.11070704460144043
sS'comp_time'
p301
F0.10192322731018066
sS'exec_cq'
p302
I42
sS'total_cq'
p303
I42
sasS'total_cqs'
p304
I42
ssI27
(dp305
S'iters'
p306
I3
sS'meta'
p307
(lp308
(dp309
S'objective'
p310
I379
sS'query_time'
p311
F22.652323961257935
sS'comp_time'
p312
F4.736152172088623
sS'exec_cq'
p313
I30
sS'total_cq'
p314
I30
sa(dp315
g310
I1
sg311
F0.5427830219268799
sg312
F4.804879188537598
sg313
I5
sg314
I5
sa(dp316
g310
I11
sg311
F0.4366309642791748
sg312
F2.548758029937744
sg313
I3
sg314
I3
sasS'total_cqs'
p317
I30
ssI28
(dp318
S'iters'
p319
I0
sS'meta'
p320
(lp321
sS'total_cqs'
p322
I1
ssI29
(dp323
S'iters'
p324
I5
sS'meta'
p325
(lp326
(dp327
S'objective'
p328
I249
sS'query_time'
p329
F26.868331909179688
sS'comp_time'
p330
F0.8468420505523682
sS'exec_cq'
p331
I35
sS'total_cq'
p332
I49
sa(dp333
g328
I6
sg329
F0.04806780815124512
sg330
F0.36646199226379395
sg331
I17
sg332
I17
sa(dp334
g328
I19
sg329
F0.011386871337890625
sg330
F0.08531785011291504
sg331
I7
sg332
I7
sa(dp335
g328
I8
sg329
F0.0016720294952392578
sg330
F0.00874781608581543
sg331
I4
sg332
I4
sa(dp336
g328
I17
sg329
F0.0006361007690429688
sg330
F0.003823995590209961
sg331
I2
sg332
I2
sasS'total_cqs'
p337
I49
ssI30
(dp338
S'iters'
p339
I1
sS'meta'
p340
(lp341
(dp342
S'objective'
p343
I1
sS'query_time'
p344
F0.7489781379699707
sS'comp_time'
p345
F0.04477858543395996
sS'exec_cq'
p346
I2
sS'total_cq'
p347
I2
sasS'total_cqs'
p348
I2
ssI31
(dp349
S'iters'
p350
I0
sS'meta'
p351
(lp352
sS'total_cqs'
p353
I1
ssI32
(dp354
S'iters'
p355
I1
sS'meta'
p356
(lp357
(dp358
S'objective'
p359
I1
sS'query_time'
p360
F0.010012149810791016
sS'comp_time'
p361
F0.0018627643585205078
sS'exec_cq'
p362
I2
sS'total_cq'
p363
I2
sasS'total_cqs'
p364
I2
ssI33
(dp365
S'iters'
p366
I5
sS'meta'
p367
(lp368
(dp369
S'objective'
p370
I3670
sS'query_time'
p371
F16.326415061950684
sS'comp_time'
p372
F1.004305362701416
sS'exec_cq'
p373
I103
sS'total_cq'
p374
I103
sa(dp375
g370
I1
sg371
F0.16891694068908691
sg372
F0.030455827713012695
sg373
I16
sg374
I16
sa(dp376
g370
I14
sg371
F0.002956867218017578
sg372
F0.011973142623901367
sg373
I8
sg374
I8
sa(dp377
g370
I2
sg371
F0.0022649765014648438
sg372
F0.010198831558227539
sg373
I5
sg374
I5
sa(dp378
g370
I4
sg371
F0.0002980232238769531
sg372
F0.002145051956176758
sg373
I2
sg374
I2
sasS'total_cqs'
p379
I103
ssI34
(dp380
S'iters'
p381
I1
sS'meta'
p382
(lp383
(dp384
S'objective'
p385
I1
sS'query_time'
p386
F0.02519083023071289
sS'comp_time'
p387
F0.005720853805541992
sS'exec_cq'
p388
I2
sS'total_cq'
p389
I2
sasS'total_cqs'
p390
I2
ssI35
(dp391
S'iters'
p392
I5
sS'meta'
p393
(lp394
(dp395
S'objective'
p396
I1313
sS'query_time'
p397
F21.677446842193604
sS'comp_time'
p398
F0.250960111618042
sS'exec_cq'
p399
I50
sS'total_cq'
p400
I70
sa(dp401
g396
I100
sg397
F0.130295991897583
sg398
F0.01534581184387207
sg399
I16
sg400
I16
sa(dp402
g396
I9
sg397
F0.0026619434356689453
sg398
F0.008409976959228516
sg399
I10
sg400
I10
sa(dp403
g396
I0
sg397
F0.0016548633575439453
sg398
F0.006349802017211914
sg399
I4
sg400
I4
sa(dp404
g396
I16
sg397
F0.0013968944549560547
sg398
F0.004734039306640625
sg399
I2
sg400
I2
sasS'total_cqs'
p405
I70
ssI36
(dp406
S'iters'
p407
I2
sS'meta'
p408
(lp409
(dp410
S'objective'
p411
I455
sS'query_time'
p412
F0.7392518520355225
sS'comp_time'
p413
F0.13387107849121094
sS'exec_cq'
p414
I33
sS'total_cq'
p415
I33
sa(dp416
g411
I472
sg412
F0.005015850067138672
sg413
F0.007319211959838867
sg414
I28
sg415
I29
sasS'total_cqs'
p417
I33
ssI37
(dp418
S'iters'
p419
I1
sS'meta'
p420
(lp421
(dp422
S'objective'
p423
I1
sS'query_time'
p424
F0.011529922485351562
sS'comp_time'
p425
F0.0017976760864257812
sS'exec_cq'
p426
I2
sS'total_cq'
p427
I2
sasS'total_cqs'
p428
I2
ssI38
(dp429
S'iters'
p430
I2
sS'meta'
p431
(lp432
(dp433
S'objective'
p434
I0
sS'query_time'
p435
F0.03472304344177246
sS'comp_time'
p436
F0.0036323070526123047
sS'exec_cq'
p437
I4
sS'total_cq'
p438
I4
sa(dp439
g434
I1
sg435
F9.393692016601562e-05
sg436
F0.00045990943908691406
sg437
I2
sg438
I2
sasS'total_cqs'
p440
I4
ssI39
(dp441
S'iters'
p442
I2
sS'meta'
p443
(lp444
(dp445
S'objective'
p446
I712
sS'query_time'
p447
F0.14531588554382324
sS'comp_time'
p448
F0.15725183486938477
sS'exec_cq'
p449
I44
sS'total_cq'
p450
I44
sa(dp451
g446
I805
sg447
F0.0003190040588378906
sg448
F0.002087116241455078
sg449
I37
sg450
I37
sasS'total_cqs'
p452
I44
ssI40
(dp453
S'iters'
p454
I1
sS'meta'
p455
(lp456
(dp457
S'objective'
p458
I18
sS'query_time'
p459
F0.02959585189819336
sS'comp_time'
p460
F0.006013154983520508
sS'exec_cq'
p461
I7
sS'total_cq'
p462
I7
sasS'total_cqs'
p463
I7
ssI41
(dp464
S'iters'
p465
I2
sS'meta'
p466
(lp467
(dp468
S'objective'
p469
I54
sS'query_time'
p470
F0.0710761547088623
sS'comp_time'
p471
F0.024999141693115234
sS'exec_cq'
p472
I12
sS'total_cq'
p473
I12
sa(dp474
g469
I52
sg470
F6.389617919921875e-05
sg471
F0.000164031982421875
sg472
I11
sg473
I11
sasS'total_cqs'
p475
I12
ssI42
(dp476
S'iters'
p477
I1
sS'meta'
p478
(lp479
(dp480
S'objective'
p481
I817
sS'query_time'
p482
F0.06186103820800781
sS'comp_time'
p483
F0.14720559120178223
sS'exec_cq'
p484
I21
sS'total_cq'
p485
I41
sasS'total_cqs'
p486
I41
ssI43
(dp487
S'iters'
p488
I1
sS'meta'
p489
(lp490
(dp491
S'objective'
p492
I18
sS'query_time'
p493
F0.025789976119995117
sS'comp_time'
p494
F0.005738735198974609
sS'exec_cq'
p495
I7
sS'total_cq'
p496
I7
sasS'total_cqs'
p497
I7
ssI44
(dp498
S'iters'
p499
I4
sS'meta'
p500
(lp501
(dp502
S'objective'
p503
I700
sS'query_time'
p504
F0.25797080993652344
sS'comp_time'
p505
F0.12662220001220703
sS'exec_cq'
p506
I47
sS'total_cq'
p507
I47
sa(dp508
g503
I794
sg504
F0.00038504600524902344
sg505
F0.0019838809967041016
sg506
I40
sg507
I40
sa(dp509
g503
I8
sg504
F0.0021898746490478516
sg505
F0.0025627613067626953
sg506
I3
sg507
I3
sa(dp510
g503
I16
sg504
F3.2901763916015625e-05
sg505
F0.00017714500427246094
sg506
I2
sg507
I2
sasS'total_cqs'
p511
I47
ssI45
(dp512
S'iters'
p513
I0
sS'meta'
p514
(lp515
sS'total_cqs'
p516
I1
ssI46
(dp517
S'iters'
p518
I2
sS'meta'
p519
(lp520
(dp521
S'objective'
p522
I11
sS'query_time'
p523
F0.020287036895751953
sS'comp_time'
p524
F0.0031681060791015625
sS'exec_cq'
p525
I4
sS'total_cq'
p526
I6
sa(dp527
g522
I8
sg523
F5.793571472167969e-05
sg524
F0.0004038810729980469
sg525
I3
sg526
I5
sasS'total_cqs'
p528
I6
ssI47
(dp529
S'iters'
p530
I1
sS'meta'
p531
(lp532
(dp533
S'objective'
p534
I1
sS'query_time'
p535
F0.009011983871459961
sS'comp_time'
p536
F0.0012698173522949219
sS'exec_cq'
p537
I2
sS'total_cq'
p538
I2
sasS'total_cqs'
p539
I2
ssI48
(dp540
S'iters'
p541
I0
sS'meta'
p542
(lp543
sS'total_cqs'
p544
I1
ssI49
(dp545
S'iters'
p546
I0
sS'meta'
p547
(lp548
sS'total_cqs'
p549
I1
ssI50
(dp550
S'iters'
p551
I2
sS'meta'
p552
(lp553
(dp554
S'objective'
p555
I5
sS'query_time'
p556
F0.017315149307250977
sS'comp_time'
p557
F0.0023193359375
sS'exec_cq'
p558
I5
sS'total_cq'
p559
I5
sa(dp560
g555
I2
sg556
F4.792213439941406e-05
sg557
F0.0001881122589111328
sg558
I4
sg559
I4
sasS'total_cqs'
p561
I5
ssI51
(dp562
S'iters'
p563
I1
sS'meta'
p564
(lp565
(dp566
S'objective'
p567
I1
sS'query_time'
p568
F0.012479782104492188
sS'comp_time'
p569
F0.001470327377319336
sS'exec_cq'
p570
I2
sS'total_cq'
p571
I2
sasS'total_cqs'
p572
I2
ssI52
(dp573
S'iters'
p574
I1
sS'meta'
p575
(lp576
(dp577
S'objective'
p578
I1
sS'query_time'
p579
F0.008198976516723633
sS'comp_time'
p580
F0.0012149810791015625
sS'exec_cq'
p581
I2
sS'total_cq'
p582
I2
sasS'total_cqs'
p583
I2
ssI53
(dp584
S'iters'
p585
I2
sS'meta'
p586
(lp587
(dp588
S'objective'
p589
I2
sS'query_time'
p590
F0.0427701473236084
sS'comp_time'
p591
F0.005697011947631836
sS'exec_cq'
p592
I4
sS'total_cq'
p593
I4
sa(dp594
g589
I0
sg590
F7.104873657226562e-05
sg591
F0.0004565715789794922
sg592
I3
sg593
I3
sasS'total_cqs'
p595
I4
ssI54
(dp596
S'iters'
p597
I1
sS'meta'
p598
(lp599
(dp600
S'objective'
p601
I0
sS'query_time'
p602
F0.011576175689697266
sS'comp_time'
p603
F0.0017502307891845703
sS'exec_cq'
p604
I3
sS'total_cq'
p605
I3
sasS'total_cqs'
p606
I3
ssI55
(dp607
S'iters'
p608
I5
sS'meta'
p609
(lp610
(dp611
S'objective'
p612
I4659
sS'query_time'
p613
F2.341179132461548
sS'comp_time'
p614
F0.8590023517608643
sS'exec_cq'
p615
I109
sS'total_cq'
p616
I109
sa(dp617
g612
I32
sg613
F0.010589122772216797
sg614
F0.041661977767944336
sg615
I10
sg616
I10
sa(dp618
g612
I8
sg613
F0.004490852355957031
sg614
F0.02098226547241211
sg615
I6
sg616
I6
sa(dp619
g612
I27
sg613
F0.0010869503021240234
sg614
F0.005407810211181641
sg615
I4
sg616
I4
sa(dp620
g612
I21
sg613
F0.0005099773406982422
sg614
F0.003726959228515625
sg615
I2
sg616
I2
sasS'total_cqs'
p621
I109
ssI56
(dp622
S'iters'
p623
I5
sS'meta'
p624
(lp625
(dp626
S'objective'
p627
I1580
sS'query_time'
p628
F1.5527520179748535
sS'comp_time'
p629
F0.30100274085998535
sS'exec_cq'
p630
I67
sS'total_cq'
p631
I76
sa(dp632
g627
I17
sg628
F0.008342981338500977
sg629
F0.019793987274169922
sg630
I16
sg631
I16
sa(dp633
g627
I33
sg628
F0.003103971481323242
sg629
F0.011744260787963867
sg630
I8
sg631
I8
sa(dp634
g627
I29
sg628
F0.0018510818481445312
sg629
F0.19035005569458008
sg630
I5
sg631
I5
sa(dp635
g627
I31
sg628
F0.0002989768981933594
sg629
F0.008410930633544922
sg630
I3
sg631
I3
sasS'total_cqs'
p636
I76
ssI57
(dp637
S'iters'
p638
I6
sS'meta'
p639
(lp640
(dp641
S'objective'
p642
I62
sS'query_time'
p643
F23.988852977752686
sS'comp_time'
p644
F0.4242117404937744
sS'exec_cq'
p645
I45
sS'total_cq'
p646
I51
sa(dp647
g642
I50
sg643
F0.015720129013061523
sg644
F0.033331871032714844
sg645
I27
sg646
I27
sa(dp648
g642
I0
sg643
F0.0025370121002197266
sg644
F0.00768280029296875
sg645
I12
sg646
I12
sa(dp649
g642
I0
sg643
F0.0011241436004638672
sg644
F0.003565549850463867
sg645
I6
sg646
I6
sa(dp650
g642
I5
sg643
F0.0005130767822265625
sg644
F0.002899169921875
sg645
I3
sg646
I3
sa(dp651
g642
I5
sg643
F0.00019502639770507812
sg644
F0.0011801719665527344
sg645
I2
sg646
I2
sasS'total_cqs'
p652
I51
ssI58
(dp653
S'iters'
p654
I7
sS'meta'
p655
(lp656
(dp657
S'objective'
p658
I79069
sS'query_time'
p659
F109.80218601226807
sS'comp_time'
p660
F14.898566007614136
sS'exec_cq'
p661
I348
sS'total_cq'
p662
I486
sa(dp663
g658
I86689
sg659
F0.0449979305267334
sg660
F1.8530299663543701
sg661
I276
sg662
I414
sa(dp664
g658
I28
sg659
F0.007651090621948242
sg660
F0.07459473609924316
sg661
I24
sg662
I24
sa(dp665
g658
I58
sg659
F0.006327152252197266
sg660
F0.020001888275146484
sg661
I13
sg662
I13
sa(dp666
g658
I50
sg659
F0.0024030208587646484
sg660
F0.010509967803955078
sg661
I7
sg662
I7
sa(dp667
g658
I132
sg659
F0.0008118152618408203
sg660
F0.0036041736602783203
sg661
I3
sg662
I3
sa(dp668
g658
I43
sg659
F0.0003859996795654297
sg660
F0.0019168853759765625
sg661
I2
sg662
I2
sasS'total_cqs'
p669
I486
ssI59
(dp670
S'iters'
p671
I2
sS'meta'
p672
(lp673
(dp674
S'objective'
p675
I14
sS'query_time'
p676
F0.05751299858093262
sS'comp_time'
p677
F0.015967607498168945
sS'exec_cq'
p678
I7
sS'total_cq'
p679
I7
sa(dp680
g675
I3
sg676
F0.0001900196075439453
sg677
F0.001401662826538086
sg678
I2
sg679
I2
sasS'total_cqs'
p681
I7
ssI60
(dp682
S'iters'
p683
I3
sS'meta'
p684
(lp685
(dp686
S'objective'
p687
I5
sS'query_time'
p688
F0.01419210433959961
sS'comp_time'
p689
F0.0032494068145751953
sS'exec_cq'
p690
I3
sS'total_cq'
p691
I5
sa(dp692
g687
I6
sg688
F0.002953052520751953
sg689
F0.00015282630920410156
sg690
I2
sg691
I4
sa(dp693
g687
I0
sg688
F5.1021575927734375e-05
sg689
F0.0001308917999267578
sg690
I2
sg691
I3
sasS'total_cqs'
p694
I5
ssI61
(dp695
S'iters'
p696
I0
sS'meta'
p697
(lp698
sS'total_cqs'
p699
I1
ssI62
(dp700
S'iters'
p701
I2
sS'meta'
p702
(lp703
(dp704
S'objective'
p705
I22
sS'query_time'
p706
F0.032794952392578125
sS'comp_time'
p707
F0.01682758331298828
sS'exec_cq'
p708
I12
sS'total_cq'
p709
I12
sa(dp710
g705
I36
sg706
F5.3882598876953125e-05
sg707
F0.0002760887145996094
sg708
I9
sg709
I9
sasS'total_cqs'
p711
I12
ssI63
(dp712
S'iters'
p713
I0
sS'meta'
p714
(lp715
sS'total_cqs'
p716
I1
ssI64
(dp717
S'iters'
p718
I3
sS'meta'
p719
(lp720
(dp721
S'objective'
p722
I2
sS'query_time'
p723
F0.3106708526611328
sS'comp_time'
p724
F0.022344112396240234
sS'exec_cq'
p725
I12
sS'total_cq'
p726
I12
sa(dp727
g722
I2
sg723
F0.00023508071899414062
sg724
F0.0013539791107177734
sg725
I4
sg726
I4
sa(dp728
g722
I5
sg723
F0.0001251697540283203
sg724
F0.0007910728454589844
sg725
I2
sg726
I2
sasS'total_cqs'
p729
I12
ssI65
(dp730
S'iters'
p731
I4
sS'meta'
p732
(lp733
(dp734
S'objective'
p735
I210
sS'query_time'
p736
F0.9001309871673584
sS'comp_time'
p737
F0.37329792976379395
sS'exec_cq'
p738
I27
sS'total_cq'
p739
I27
sa(dp740
g735
I2
sg736
F0.002292156219482422
sg737
F0.008849859237670898
sg738
I7
sg739
I7
sa(dp741
g735
I7
sg736
F0.0007050037384033203
sg737
F0.003976106643676758
sg738
I4
sg739
I4
sa(dp742
g735
I13
sg736
F0.00015401840209960938
sg737
F0.0009810924530029297
sg738
I2
sg739
I2
sasS'total_cqs'
p743
I27
ssI66
(dp744
S'iters'
p745
I0
sS'meta'
p746
(lp747
sS'total_cqs'
p748
I1
ssI67
(dp749
S'iters'
p750
I2
sS'meta'
p751
(lp752
(dp753
S'objective'
p754
I582
sS'query_time'
p755
F1.2890050411224365
sS'comp_time'
p756
F0.15477204322814941
sS'exec_cq'
p757
I35
sS'total_cq'
p758
I35
sa(dp759
g754
I14
sg755
F0.0013110637664794922
sg756
F0.007060527801513672
sg757
I2
sg758
I2
sasS'total_cqs'
p760
I35
ssI68
(dp761
S'iters'
p762
I0
sS'meta'
p763
(lp764
sS'total_cqs'
p765
I1
ssI69
(dp766
S'iters'
p767
I1
sS'meta'
p768
(lp769
(dp770
S'objective'
p771
I1272
sS'query_time'
p772
F0.1777210235595703
sS'comp_time'
p773
F0.12796902656555176
sS'exec_cq'
p774
I51
sS'total_cq'
p775
I51
sasS'total_cqs'
p776
I51
ssI70
(dp777
S'iters'
p778
I3
sS'meta'
p779
(lp780
(dp781
S'objective'
p782
I9
sS'query_time'
p783
F0.05149698257446289
sS'comp_time'
p784
F0.0036280155181884766
sS'exec_cq'
p785
I6
sS'total_cq'
p786
I6
sa(dp787
g782
I5
sg783
F4.601478576660156e-05
sg784
F0.00023865699768066406
sg785
I5
sg786
I5
sa(dp788
g782
I2
sg783
F4.00543212890625e-05
sg784
F0.0002048015594482422
sg785
I4
sg786
I4
sasS'total_cqs'
p789
I6
ssI71
(dp790
S'iters'
p791
I4
sS'meta'
p792
(lp793
(dp794
S'objective'
p795
I3231
sS'query_time'
p796
F0.36719489097595215
sS'comp_time'
p797
F0.30541372299194336
sS'exec_cq'
p798
I73
sS'total_cq'
p799
I85
sa(dp800
g795
I3065
sg796
F0.00038313865661621094
sg797
F0.0013611316680908203
sg798
I70
sg799
I82
sa(dp801
g795
I69
sg796
F0.002474069595336914
sg797
F0.004399776458740234
sg798
I3
sg799
I3
sa(dp802
g795
I41
sg796
F0.002753019332885742
sg797
F0.0002300739288330078
sg798
I2
sg799
I2
sasS'total_cqs'
p803
I85
ssI72
(dp804
S'iters'
p805
I3
sS'meta'
p806
(lp807
(dp808
S'objective'
p809
I8
sS'query_time'
p810
F0.2715020179748535
sS'comp_time'
p811
F0.007079362869262695
sS'exec_cq'
p812
I4
sS'total_cq'
p813
I8
sa(dp814
g809
I2
sg810
F0.026115894317626953
sg811
F0.0003726482391357422
sg812
I4
sg813
I5
sa(dp815
g809
I0
sg810
F5.698204040527344e-05
sg811
F0.0002727508544921875
sg812
I2
sg813
I3
sasS'total_cqs'
p816
I8
ssI73
(dp817
S'iters'
p818
I0
sS'meta'
p819
(lp820
sS'total_cqs'
p821
I1
ssI74
(dp822
S'iters'
p823
I0
sS'meta'
p824
(lp825
sS'total_cqs'
p826
I1
ssI75
(dp827
S'iters'
p828
I2
sS'meta'
p829
(lp830
(dp831
S'objective'
p832
I5
sS'query_time'
p833
F0.01671004295349121
sS'comp_time'
p834
F0.002608776092529297
sS'exec_cq'
p835
I5
sS'total_cq'
p836
I5
sa(dp837
g832
I2
sg833
F2.8133392333984375e-05
sg834
F0.00011682510375976562
sg835
I4
sg836
I4
sasS'total_cqs'
p838
I5
ssI76
(dp839
S'iters'
p840
I1
sS'meta'
p841
(lp842
(dp843
S'objective'
p844
I1
sS'query_time'
p845
F0.009445905685424805
sS'comp_time'
p846
F0.001069784164428711
sS'exec_cq'
p847
I2
sS'total_cq'
p848
I2
sasS'total_cqs'
p849
I2
ssI77
(dp850
S'iters'
p851
I0
sS'meta'
p852
(lp853
sS'total_cqs'
p854
I1
ssI78
(dp855
S'iters'
p856
I0
sS'meta'
p857
(lp858
sS'total_cqs'
p859
I1
ssI103
(dp860
S'iters'
p861
I1
sS'meta'
p862
(lp863
(dp864
S'objective'
p865
I64
sS'query_time'
p866
F0.06194019317626953
sS'comp_time'
p867
F0.016102075576782227
sS'exec_cq'
p868
I12
sS'total_cq'
p869
I12
sasS'total_cqs'
p870
I12
ssI104
(dp871
S'iters'
p872
I2
sS'meta'
p873
(lp874
(dp875
S'objective'
p876
I2
sS'query_time'
p877
F1.3368990421295166
sS'comp_time'
p878
F0.17898225784301758
sS'exec_cq'
p879
I4
sS'total_cq'
p880
I4
sa(dp881
g876
I0
sg877
F0.011785030364990234
sg878
F0.1703488826751709
sg879
I3
sg880
I3
sasS'total_cqs'
p882
I4
ssI105
(dp883
S'iters'
p884
I0
sS'meta'
p885
(lp886
sS'total_cqs'
p887
I1
ssI106
(dp888
S'iters'
p889
I1
sS'meta'
p890
(lp891
(dp892
S'objective'
p893
I4
sS'query_time'
p894
F0.027499914169311523
sS'comp_time'
p895
F0.0019207000732421875
sS'exec_cq'
p896
I4
sS'total_cq'
p897
I4
sasS'total_cqs'
p898
I4
ssI107
(dp899
S'iters'
p900
I2
sS'meta'
p901
(lp902
(dp903
S'objective'
p904
I92
sS'query_time'
p905
F0.07858395576477051
sS'comp_time'
p906
F0.02991485595703125
sS'exec_cq'
p907
I16
sS'total_cq'
p908
I16
sa(dp909
g904
I4
sg905
F0.004846096038818359
sg906
F0.0003662109375
sg907
I3
sg908
I3
sasS'total_cqs'
p910
I16
ssI108
(dp911
S'iters'
p912
I0
sS'meta'
p913
(lp914
sS'total_cqs'
p915
I1
ss.