(dp0
I1
(dp1
S'iters'
p2
I4
sS'meta'
p3
(lp4
(dp5
S'objective'
p6
I58
sS'query_time'
p7
F0.039956092834472656
sS'comp_time'
p8
F0.02356123924255371
sS'exec_cq'
p9
I12
sS'total_cq'
p10
I12
sa(dp11
g6
I50
sg7
F8.797645568847656e-05
sg8
F0.0002887248992919922
sg9
I11
sg10
I11
sa(dp12
g6
I47
sg7
F9.012222290039062e-05
sg8
F0.00027298927307128906
sg9
I10
sg10
I10
sa(dp13
g6
I45
sg7
F5.316734313964844e-05
sg8
F0.00019121170043945312
sg9
I8
sg10
I8
sasS'total_cqs'
p14
I12
ssI2
(dp15
S'iters'
p16
I7
sS'meta'
p17
(lp18
(dp19
S'objective'
p20
I296
sS'query_time'
p21
F0.1120140552520752
sS'comp_time'
p22
F0.04580116271972656
sS'exec_cq'
p23
I14
sS'total_cq'
p24
I27
sa(dp25
g20
I211
sg21
F0.0690619945526123
sg22
F0.0007739067077636719
sg23
I13
sg24
I24
sa(dp26
g20
I226
sg21
F0.00011181831359863281
sg22
F0.0005211830139160156
sg23
I11
sg24
I21
sa(dp27
g20
I196
sg21
F7.414817810058594e-05
sg22
F0.0003399848937988281
sg23
I10
sg24
I19
sa(dp28
g20
I187
sg21
F0.00011086463928222656
sg22
F0.0005543231964111328
sg23
I9
sg24
I17
sa(dp29
g20
I173
sg21
F4.601478576660156e-05
sg22
F0.0002701282501220703
sg23
I7
sg24
I15
sa(dp30
g20
I173
sg21
F7.414817810058594e-05
sg22
F0.0003268718719482422
sg23
I8
sg24
I14
sasS'total_cqs'
p31
I27
ssI3
(dp32
S'iters'
p33
I4
sS'meta'
p34
(lp35
(dp36
S'objective'
p37
I154
sS'query_time'
p38
F74.99748015403748
sS'comp_time'
p39
F0.6111950874328613
sS'exec_cq'
p40
I16
sS'total_cq'
p41
I43
sa(dp42
g37
I112
sg38
F107.43223190307617
sg39
F2.362644910812378
sg40
I14
sg41
I27
sa(dp43
g37
I23
sg38
F41.42147707939148
sg39
F0.694368839263916
sg40
I9
sg41
I13
sa(dp44
g37
I97
sg38
F10.714630842208862
sg39
F0.0024652481079101562
sg40
I6
sg41
I6
sasS'total_cqs'
p45
I43
ssI4
(dp46
S'iters'
p47
I2
sS'meta'
p48
(lp49
(dp50
S'objective'
p51
I40
sS'query_time'
p52
F4.8078320026397705
sS'comp_time'
p53
F0.8745532035827637
sS'exec_cq'
p54
I11
sS'total_cq'
p55
I11
sa(dp56
g51
I5
sg52
F0.20181012153625488
sg53
F0.8726353645324707
sg54
I2
sg55
I2
sasS'total_cqs'
p57
I11
ssI5
(dp58
S'iters'
p59
I3
sS'meta'
p60
(lp61
(dp62
S'objective'
p63
I0
sS'query_time'
p64
F31.992624044418335
sS'comp_time'
p65
F3.6559813022613525
sS'exec_cq'
p66
I8
sS'total_cq'
p67
I8
sa(dp68
g63
I0
sg64
F0.7592508792877197
sg65
F3.2848901748657227
sg66
I4
sg67
I4
sa(dp69
g63
I3
sg64
F0.36875391006469727
sg65
F2.3161861896514893
sg66
I2
sg67
I2
sasS'total_cqs'
p70
I8
ssI6
(dp71
S'iters'
p72
I4
sS'meta'
p73
(lp74
(dp75
S'objective'
p76
I51
sS'query_time'
p77
F36.287657022476196
sS'comp_time'
p78
F4.300081729888916
sS'exec_cq'
p79
I18
sS'total_cq'
p80
I18
sa(dp81
g76
I0
sg77
F0.7507009506225586
sg78
F4.0328528881073
sg79
I7
sg80
I7
sa(dp82
g76
I4
sg77
F0.0196990966796875
sg78
F0.0941321849822998
sg79
I3
sg80
I3
sa(dp83
g76
I1
sg77
F0.013281106948852539
sg78
F0.3133687973022461
sg79
I2
sg80
I2
sasS'total_cqs'
p84
I18
ssI7
(dp85
S'iters'
p86
I3
sS'meta'
p87
(lp88
(dp89
S'objective'
p90
I1
sS'query_time'
p91
F13.178876161575317
sS'comp_time'
p92
F3.120516777038574
sS'exec_cq'
p93
I9
sS'total_cq'
p94
I9
sa(dp95
g90
I0
sg91
F0.3442099094390869
sg92
F0.9547240734100342
sg93
I4
sg94
I4
sa(dp96
g90
I3
sg91
F0.004163026809692383
sg92
F0.02190685272216797
sg93
I2
sg94
I2
sasS'total_cqs'
p97
I9
ssI8
(dp98
S'iters'
p99
I4
sS'meta'
p100
(lp101
(dp102
S'objective'
p103
I192
sS'query_time'
p104
F0.07474184036254883
sS'comp_time'
p105
F0.031210899353027344
sS'exec_cq'
p106
I14
sS'total_cq'
p107
I27
sa(dp108
g103
I181
sg104
F0.07481503486633301
sg105
F0.0006361007690429688
sg106
I13
sg107
I22
sa(dp109
g103
I179
sg104
F5.698204040527344e-05
sg105
F0.0002090930938720703
sg106
I9
sg107
I19
sa(dp110
g103
I190
sg104
F8.797645568847656e-05
sg105
F0.00016164779663085938
sg106
I18
sg107
I18
sasS'total_cqs'
p111
I27
ssI9
(dp112
S'iters'
p113
I3
sS'meta'
p114
(lp115
(dp116
S'objective'
p117
I2
sS'query_time'
p118
F0.04538321495056152
sS'comp_time'
p119
F0.004904031753540039
sS'exec_cq'
p120
I7
sS'total_cq'
p121
I7
sa(dp122
g117
I5
sg118
F4.38690185546875e-05
sg119
F0.00022912025451660156
sg120
I5
sg121
I5
sa(dp123
g117
I1
sg118
F1.5020370483398438e-05
sg119
F8.678436279296875e-05
sg120
I2
sg121
I2
sasS'total_cqs'
p124
I7
ssI10
(dp125
S'iters'
p126
I7
sS'meta'
p127
(lp128
(dp129
S'objective'
p130
I526
sS'query_time'
p131
F0.19707417488098145
sS'comp_time'
p132
F0.08175897598266602
sS'exec_cq'
p133
I28
sS'total_cq'
p134
I51
sa(dp135
g130
I274
sg131
F0.17162108421325684
sg132
F0.0017499923706054688
sg133
I23
sg134
I37
sa(dp136
g130
I0
sg131
F0.001811981201171875
sg132
F0.001299142837524414
sg133
I12
sg134
I12
sa(dp137
g130
I15
sg131
F4.9114227294921875e-05
sg132
F0.00033926963806152344
sg133
I6
sg134
I6
sa(dp138
g130
I13
sg131
F3.600120544433594e-05
sg132
F0.00019598007202148438
sg133
I4
sg134
I4
sa(dp139
g130
I8
sg131
F3.1948089599609375e-05
sg132
F0.0001652240753173828
sg133
I3
sg134
I3
sa(dp140
g130
I13
sg131
F2.4080276489257812e-05
sg132
F0.00014281272888183594
sg133
I2
sg134
I2
sasS'total_cqs'
p141
I51
ssI11
(dp142
S'iters'
p143
I6
sS'meta'
p144
(lp145
(dp146
S'objective'
p147
I940
sS'query_time'
p148
F0.5924620628356934
sS'comp_time'
p149
F0.16810894012451172
sS'exec_cq'
p150
I63
sS'total_cq'
p151
I63
sa(dp152
g147
I840
sg148
F0.0013871192932128906
sg149
F0.0068552494049072266
sg150
I47
sg151
I47
sa(dp153
g147
I5
sg148
F0.002201080322265625
sg149
F0.0027573108673095703
sg150
I9
sg151
I9
sa(dp154
g147
I11
sg148
F0.0001659393310546875
sg149
F0.0010836124420166016
sg150
I5
sg151
I5
sa(dp155
g147
I0
sg148
F0.0001499652862548828
sg149
F0.0010457038879394531
sg150
I3
sg151
I3
sa(dp156
g147
I8
sg148
F1.6927719116210938e-05
sg149
F8.106231689453125e-05
sg150
I2
sg151
I2
sasS'total_cqs'
p157
I63
ssI12
(dp158
S'iters'
p159
I6
sS'meta'
p160
(lp161
(dp162
S'objective'
p163
I341
sS'query_time'
p164
F0.2365410327911377
sS'comp_time'
p165
F0.09033989906311035
sS'exec_cq'
p166
I28
sS'total_cq'
p167
I50
sa(dp168
g163
I460
sg164
F0.16805696487426758
sg165
F0.003531217575073242
sg166
I22
sg167
I33
sa(dp169
g163
I8
sg164
F0.0014510154724121094
sg165
F0.001888275146484375
sg166
I8
sg167
I8
sa(dp170
g163
I31
sg164
F7.200241088867188e-05
sg165
F0.0004055500030517578
sg166
I5
sg167
I5
sa(dp171
g163
I0
sg164
F5.602836608886719e-05
sg165
F0.0003707408905029297
sg166
I3
sg167
I3
sa(dp172
g163
I13
sg164
F2.5033950805664062e-05
sg165
F9.918212890625e-05
sg166
I2
sg167
I2
sasS'total_cqs'
p173
I50
ssI13
(dp174
S'iters'
p175
I3
sS'meta'
p176
(lp177
(dp178
S'objective'
p179
I16
sS'query_time'
p180
F0.3224050998687744
sS'comp_time'
p181
F0.028638362884521484
sS'exec_cq'
p182
I20
sS'total_cq'
p183
I20
sa(dp184
g179
I79
sg180
F4.696846008300781e-05
sg181
F0.00041365623474121094
sg182
I9
sg183
I9
sa(dp185
g179
I3
sg180
F0.00997304916381836
sg181
F0.00014710426330566406
sg182
I2
sg183
I2
sasS'total_cqs'
p186
I20
ssI14
(dp187
S'iters'
p188
I3
sS'meta'
p189
(lp190
(dp191
S'objective'
p192
I1
sS'query_time'
p193
F31.68769598007202
sS'comp_time'
p194
F2.360092878341675
sS'exec_cq'
p195
I9
sS'total_cq'
p196
I9
sa(dp197
g192
I0
sg193
F0.5223300457000732
sg194
F2.1770825386047363
sg195
I4
sg196
I4
sa(dp198
g192
I3
sg193
F0.3999300003051758
sg194
F1.014808177947998
sg195
I2
sg196
I2
sasS'total_cqs'
p199
I9
ssI15
(dp200
S'iters'
p201
I4
sS'meta'
p202
(lp203
(dp204
S'objective'
p205
I0
sS'query_time'
p206
F3.9787840843200684
sS'comp_time'
p207
F0.47820568084716797
sS'exec_cq'
p208
I11
sS'total_cq'
p209
I11
sa(dp210
g205
I1
sg206
F0.05753612518310547
sg207
F0.45293688774108887
sg208
I6
sg209
I6
sa(dp211
g205
I4
sg206
F0.0011560916900634766
sg207
F0.007245302200317383
sg208
I3
sg209
I3
sa(dp212
g205
I2
sg206
F0.00047206878662109375
sg207
F0.0033528804779052734
sg208
I2
sg209
I2
sasS'total_cqs'
p213
I11
ssI16
(dp214
S'iters'
p215
I1
sS'meta'
p216
(lp217
(dp218
S'objective'
p219
I30
sS'query_time'
p220
F0.018814802169799805
sS'comp_time'
p221
F0.004196882247924805
sS'exec_cq'
p222
I8
sS'total_cq'
p223
I8
sasS'total_cqs'
p224
I8
ssI17
(dp225
S'iters'
p226
I3
sS'meta'
p227
(lp228
(dp229
S'objective'
p230
I0
sS'query_time'
p231
F0.9601421356201172
sS'comp_time'
p232
F0.05361294746398926
sS'exec_cq'
p233
I11
sS'total_cq'
p234
I11
sa(dp235
g230
I3
sg231
F0.008706092834472656
sg232
F0.033315420150756836
sg233
I4
sg234
I4
sa(dp236
g230
I7
sg231
F0.002610921859741211
sg232
F0.01353311538696289
sg233
I2
sg234
I2
sasS'total_cqs'
p237
I11
ssI18
(dp238
S'iters'
p239
I2
sS'meta'
p240
(lp241
(dp242
S'objective'
p243
I54
sS'query_time'
p244
F0.20564913749694824
sS'comp_time'
p245
F0.01972794532775879
sS'exec_cq'
p246
I11
sS'total_cq'
p247
I11
sa(dp248
g243
I52
sg244
F0.0012640953063964844
sg245
F0.0010211467742919922
sg246
I10
sg247
I10
sasS'total_cqs'
p249
I11
ssI22
(dp250
S'iters'
p251
I1
sS'meta'
p252
(lp253
(dp254
S'objective'
p255
I159
sS'query_time'
p256
F0.06524205207824707
sS'comp_time'
p257
F0.03373074531555176
sS'exec_cq'
p258
I18
sS'total_cq'
p259
I18
sasS'total_cqs'
p260
I18
ssI23
(dp261
S'iters'
p262
I3
sS'meta'
p263
(lp264
(dp265
S'objective'
p266
I126
sS'query_time'
p267
F0.02497410774230957
sS'comp_time'
p268
F0.025728225708007812
sS'exec_cq'
p269
I8
sS'total_cq'
p270
I16
sa(dp271
g266
I107
sg267
F0.02863931655883789
sg268
F0.00036454200744628906
sg269
I14
sg270
I14
sa(dp272
g266
I109
sg267
F4.601478576660156e-05
sg268
F8.678436279296875e-05
sg269
I13
sg270
I13
sasS'total_cqs'
p273
I16
ssI26
(dp274
S'iters'
p275
I1
sS'meta'
p276
(lp277
(dp278
S'objective'
p279
I879
sS'query_time'
p280
F0.13523292541503906
sS'comp_time'
p281
F0.10368537902832031
sS'exec_cq'
p282
I42
sS'total_cq'
p283
I42
sasS'total_cqs'
p284
I42
ssI27
(dp285
S'iters'
p286
I4
sS'meta'
p287
(lp288
(dp289
S'objective'
p290
I263
sS'query_time'
p291
F21.806581020355225
sS'comp_time'
p292
F3.358673334121704
sS'exec_cq'
p293
I30
sS'total_cq'
p294
I30
sa(dp295
g290
I7
sg291
F0.43580198287963867
sg292
F4.451862096786499
sg293
I5
sg294
I5
sa(dp296
g290
I13
sg291
F0.028462886810302734
sg292
F0.49110960960388184
sg293
I3
sg294
I3
sa(dp297
g290
I1
sg291
F0.02479696273803711
sg292
F0.6084532737731934
sg293
I2
sg294
I2
sasS'total_cqs'
p298
I30
ssI29
(dp299
S'iters'
p300
I5
sS'meta'
p301
(lp302
(dp303
S'objective'
p304
I329
sS'query_time'
p305
F25.841284036636353
sS'comp_time'
p306
F0.813500165939331
sS'exec_cq'
p307
I35
sS'total_cq'
p308
I49
sa(dp309
g304
I0
sg305
F0.025143146514892578
sg306
F0.2064511775970459
sg307
I17
sg308
I17
sa(dp310
g304
I10
sg305
F0.007536888122558594
sg306
F0.04320979118347168
sg307
I7
sg308
I7
sa(dp311
g304
I11
sg305
F0.0009949207305908203
sg306
F0.004920005798339844
sg307
I4
sg308
I4
sa(dp312
g304
I25
sg305
F0.0006239414215087891
sg306
F0.0037500858306884766
sg307
I2
sg308
I2
sasS'total_cqs'
p313
I49
ssI30
(dp314
S'iters'
p315
I1
sS'meta'
p316
(lp317
(dp318
S'objective'
p319
I1
sS'query_time'
p320
F0.7214200496673584
sS'comp_time'
p321
F0.04272603988647461
sS'exec_cq'
p322
I2
sS'total_cq'
p323
I2
sasS'total_cqs'
p324
I2
ssI32
(dp325
S'iters'
p326
I1
sS'meta'
p327
(lp328
(dp329
S'objective'
p330
I1
sS'query_time'
p331
F0.009449005126953125
sS'comp_time'
p332
F0.0016160011291503906
sS'exec_cq'
p333
I2
sS'total_cq'
p334
I2
sasS'total_cqs'
p335
I2
ssI33
(dp336
S'iters'
p337
I6
sS'meta'
p338
(lp339
(dp340
S'objective'
p341
I4050
sS'query_time'
p342
F16.350311994552612
sS'comp_time'
p343
F0.9026932716369629
sS'exec_cq'
p344
I103
sS'total_cq'
p345
I103
sa(dp346
g341
I7
sg342
F0.008347034454345703
sg343
F0.027279138565063477
sg344
I16
sg345
I16
sa(dp347
g341
I4
sg342
F0.11726188659667969
sg343
F0.013587474822998047
sg344
I10
sg345
I10
sa(dp348
g341
I37
sg342
F0.002135038375854492
sg343
F0.010506391525268555
sg344
I6
sg345
I6
sa(dp349
g341
I1
sg342
F0.0023279190063476562
sg343
F0.009575366973876953
sg344
I5
sg345
I5
sa(dp350
g341
I22
sg342
F0.0014109611511230469
sg343
F0.007817506790161133
sg344
I3
sg345
I3
sasS'total_cqs'
p351
I103
ssI34
(dp352
S'iters'
p353
I1
sS'meta'
p354
(lp355
(dp356
S'objective'
p357
I1
sS'query_time'
p358
F0.049160003662109375
sS'comp_time'
p359
F0.008248090744018555
sS'exec_cq'
p360
I2
sS'total_cq'
p361
I2
sasS'total_cqs'
p362
I2
ssI35
(dp363
S'iters'
p364
I5
sS'meta'
p365
(lp366
(dp367
S'objective'
p368
I1379
sS'query_time'
p369
F23.858415842056274
sS'comp_time'
p370
F0.20504093170166016
sS'exec_cq'
p371
I50
sS'total_cq'
p372
I70
sa(dp373
g368
I5
sg369
F0.004889965057373047
sg370
F0.19817447662353516
sg371
I16
sg372
I16
sa(dp374
g368
I1
sg369
F0.0025720596313476562
sg370
F0.009022235870361328
sg371
I7
sg372
I7
sa(dp375
g368
I11
sg369
F0.002207040786743164
sg370
F0.009427070617675781
sg371
I4
sg372
I4
sa(dp376
g368
I37
sg369
F0.0004611015319824219
sg370
F0.0033190250396728516
sg371
I2
sg372
I2
sasS'total_cqs'
p377
I70
ssI36
(dp378
S'iters'
p379
I2
sS'meta'
p380
(lp381
(dp382
S'objective'
p383
I371
sS'query_time'
p384
F0.8407089710235596
sS'comp_time'
p385
F0.09587979316711426
sS'exec_cq'
p386
I33
sS'total_cq'
p387
I33
sa(dp388
g383
I446
sg384
F0.004535198211669922
sg385
F0.004613161087036133
sg386
I28
sg387
I29
sasS'total_cqs'
p389
I33
ssI37
(dp390
S'iters'
p391
I1
sS'meta'
p392
(lp393
(dp394
S'objective'
p395
I1
sS'query_time'
p396
F0.010267019271850586
sS'comp_time'
p397
F0.0018401145935058594
sS'exec_cq'
p398
I2
sS'total_cq'
p399
I2
sasS'total_cqs'
p400
I2
ssI38
(dp401
S'iters'
p402
I2
sS'meta'
p403
(lp404
(dp405
S'objective'
p406
I0
sS'query_time'
p407
F0.05354595184326172
sS'comp_time'
p408
F0.0023956298828125
sS'exec_cq'
p409
I4
sS'total_cq'
p410
I4
sa(dp411
g406
I1
sg407
F7.390975952148438e-05
sg408
F0.0004620552062988281
sg409
I2
sg410
I2
sasS'total_cqs'
p412
I4
ssI39
(dp413
S'iters'
p414
I2
sS'meta'
p415
(lp416
(dp417
S'objective'
p418
I682
sS'query_time'
p419
F0.22317814826965332
sS'comp_time'
p420
F0.09489679336547852
sS'exec_cq'
p421
I44
sS'total_cq'
p422
I44
sa(dp423
g418
I812
sg419
F0.0003180503845214844
sg420
F0.001990079879760742
sg421
I37
sg422
I37
sasS'total_cqs'
p424
I44
ssI40
(dp425
S'iters'
p426
I1
sS'meta'
p427
(lp428
(dp429
S'objective'
p430
I22
sS'query_time'
p431
F0.03379702568054199
sS'comp_time'
p432
F0.005660057067871094
sS'exec_cq'
p433
I7
sS'total_cq'
p434
I7
sasS'total_cqs'
p435
I7
ssI41
(dp436
S'iters'
p437
I2
sS'meta'
p438
(lp439
(dp440
S'objective'
p441
I64
sS'query_time'
p442
F0.0733339786529541
sS'comp_time'
p443
F0.016094446182250977
sS'exec_cq'
p444
I12
sS'total_cq'
p445
I12
sa(dp446
g441
I63
sg442
F6.604194641113281e-05
sg443
F0.0001862049102783203
sg444
I11
sg445
I11
sasS'total_cqs'
p447
I12
ssI42
(dp448
S'iters'
p449
I1
sS'meta'
p450
(lp451
(dp452
S'objective'
p453
I837
sS'query_time'
p454
F0.1938178539276123
sS'comp_time'
p455
F0.14850544929504395
sS'exec_cq'
p456
I21
sS'total_cq'
p457
I41
sasS'total_cqs'
p458
I41
ssI43
(dp459
S'iters'
p460
I1
sS'meta'
p461
(lp462
(dp463
S'objective'
p464
I22
sS'query_time'
p465
F0.023170948028564453
sS'comp_time'
p466
F0.004371166229248047
sS'exec_cq'
p467
I7
sS'total_cq'
p468
I7
sasS'total_cqs'
p469
I7
ssI44
(dp470
S'iters'
p471
I4
sS'meta'
p472
(lp473
(dp474
S'objective'
p475
I912
sS'query_time'
p476
F0.14394092559814453
sS'comp_time'
p477
F0.09329843521118164
sS'exec_cq'
p478
I47
sS'total_cq'
p479
I47
sa(dp480
g475
I872
sg476
F0.0003199577331542969
sg477
F0.0016541481018066406
sg478
I40
sg479
I40
sa(dp481
g475
I8
sg476
F0.0018889904022216797
sg477
F0.0017518997192382812
sg478
I3
sg479
I3
sa(dp482
g475
I15
sg476
F0.00012421607971191406
sg477
F0.0007848739624023438
sg478
I2
sg479
I2
sasS'total_cqs'
p483
I47
ssI46
(dp484
S'iters'
p485
I2
sS'meta'
p486
(lp487
(dp488
S'objective'
p489
I9
sS'query_time'
p490
F0.11020708084106445
sS'comp_time'
p491
F0.0027594566345214844
sS'exec_cq'
p492
I4
sS'total_cq'
p493
I6
sa(dp494
g489
I9
sg490
F0.054489850997924805
sg491
F0.0002079010009765625
sg492
I5
sg493
I5
sasS'total_cqs'
p495
I6
ssI47
(dp496
S'iters'
p497
I1
sS'meta'
p498
(lp499
(dp500
S'objective'
p501
I1
sS'query_time'
p502
F0.016503095626831055
sS'comp_time'
p503
F0.0013768672943115234
sS'exec_cq'
p504
I2
sS'total_cq'
p505
I2
sasS'total_cqs'
p506
I2
ssI50
(dp507
S'iters'
p508
I3
sS'meta'
p509
(lp510
(dp511
S'objective'
p512
I5
sS'query_time'
p513
F0.014484882354736328
sS'comp_time'
p514
F0.0022759437561035156
sS'exec_cq'
p515
I5
sS'total_cq'
p516
I5
sa(dp517
g512
I2
sg513
F3.504753112792969e-05
sg514
F0.0001659393310546875
sg515
I4
sg516
I4
sa(dp518
g512
I0
sg513
F2.384185791015625e-05
sg514
F0.00011396408081054688
sg515
I3
sg516
I3
sasS'total_cqs'
p519
I5
ssI51
(dp520
S'iters'
p521
I1
sS'meta'
p522
(lp523
(dp524
S'objective'
p525
I1
sS'query_time'
p526
F0.007256031036376953
sS'comp_time'
p527
F0.0012316703796386719
sS'exec_cq'
p528
I2
sS'total_cq'
p529
I2
sasS'total_cqs'
p530
I2
ssI52
(dp531
S'iters'
p532
I1
sS'meta'
p533
(lp534
(dp535
S'objective'
p536
I1
sS'query_time'
p537
F0.03906893730163574
sS'comp_time'
p538
F0.00319671630859375
sS'exec_cq'
p539
I2
sS'total_cq'
p540
I2
sasS'total_cqs'
p541
I2
ssI53
(dp542
S'iters'
p543
I3
sS'meta'
p544
(lp545
(dp546
S'objective'
p547
I2
sS'query_time'
p548
F0.027261018753051758
sS'comp_time'
p549
F0.002962827682495117
sS'exec_cq'
p550
I4
sS'total_cq'
p551
I4
sa(dp552
g547
I0
sg548
F7.510185241699219e-05
sg549
F0.0005011558532714844
sg550
I3
sg551
I3
sa(dp553
g547
I1
sg548
F6.508827209472656e-05
sg549
F0.0004475116729736328
sg550
I2
sg551
I2
sasS'total_cqs'
p554
I4
ssI54
(dp555
S'iters'
p556
I2
sS'meta'
p557
(lp558
(dp559
S'objective'
p560
I0
sS'query_time'
p561
F0.08475589752197266
sS'comp_time'
p562
F0.001905202865600586
sS'exec_cq'
p563
I3
sS'total_cq'
p564
I3
sa(dp565
g560
I1
sg561
F4.410743713378906e-05
sg562
F0.00027680397033691406
sg563
I2
sg564
I2
sasS'total_cqs'
p566
I3
ssI55
(dp567
S'iters'
p568
I4
sS'meta'
p569
(lp570
(dp571
S'objective'
p572
I4435
sS'query_time'
p573
F2.052933931350708
sS'comp_time'
p574
F0.7660350799560547
sS'exec_cq'
p575
I109
sS'total_cq'
p576
I109
sa(dp577
g572
I4591
sg573
F0.0008161067962646484
sg574
F0.003999471664428711
sg575
I97
sg576
I97
sa(dp578
g572
I44
sg573
F0.00042510032653808594
sg574
F0.007449150085449219
sg575
I4
sg576
I4
sa(dp579
g572
I76
sg573
F0.00014519691467285156
sg574
F0.0008561611175537109
sg575
I2
sg576
I2
sasS'total_cqs'
p580
I109
ssI56
(dp581
S'iters'
p582
I5
sS'meta'
p583
(lp584
(dp585
S'objective'
p586
I1692
sS'query_time'
p587
F1.8803679943084717
sS'comp_time'
p588
F0.44676709175109863
sS'exec_cq'
p589
I67
sS'total_cq'
p590
I76
sa(dp591
g586
I3
sg587
F0.005944013595581055
sg588
F0.014141082763671875
sg589
I16
sg590
I16
sa(dp592
g586
I42
sg587
F0.004313945770263672
sg588
F0.00793147087097168
sg589
I9
sg590
I9
sa(dp593
g586
I14
sg587
F0.0002589225769042969
sg588
F0.0013816356658935547
sg589
I3
sg590
I3
sa(dp594
g586
I34
sg587
F0.00013303756713867188
sg588
F0.0018815994262695312
sg589
I2
sg590
I2
sasS'total_cqs'
p595
I76
ssI57
(dp596
S'iters'
p597
I7
sS'meta'
p598
(lp599
(dp600
S'objective'
p601
I62
sS'query_time'
p602
F23.299143075942993
sS'comp_time'
p603
F0.19879484176635742
sS'exec_cq'
p604
I45
sS'total_cq'
p605
I51
sa(dp606
g601
I60
sg602
F0.017880916595458984
sg603
F0.03812718391418457
sg604
I27
sg605
I27
sa(dp607
g601
I17
sg602
F0.002950906753540039
sg603
F0.007340431213378906
sg604
I13
sg605
I13
sa(dp608
g601
I5
sg602
F0.0018939971923828125
sg603
F0.006466865539550781
sg604
I9
sg605
I9
sa(dp609
g601
I2
sg602
F0.00040984153747558594
sg603
F0.002638578414916992
sg604
I6
sg605
I6
sa(dp610
g601
I0
sg602
F0.00032782554626464844
sg603
F0.0023941993713378906
sg604
I4
sg605
I4
sa(dp611
g601
I7
sg602
F0.0003058910369873047
sg603
F0.002273082733154297
sg604
I2
sg605
I2
sasS'total_cqs'
p612
I51
ssI58
(dp613
S'iters'
p614
I8
sS'meta'
p615
(lp616
(dp617
S'objective'
p618
I87009
sS'query_time'
p619
F115.44744992256165
sS'comp_time'
p620
F15.962061643600464
sS'exec_cq'
p621
I348
sS'total_cq'
p622
I486
sa(dp623
g618
I64
sg619
F1.121070146560669
sg620
F0.4502863883972168
sg621
I64
sg622
I64
sa(dp624
g618
I5
sg619
F0.015806198120117188
sg620
F0.04628300666809082
sg621
I28
sg622
I28
sa(dp625
g618
I31
sg619
F0.003384828567504883
sg620
F0.008473873138427734
sg621
I16
sg622
I16
sa(dp626
g618
I15
sg619
F0.001238107681274414
sg620
F0.004328250885009766
sg621
I7
sg622
I7
sa(dp627
g618
I116
sg619
F0.0006239414215087891
sg620
F0.0027129650115966797
sg621
I4
sg622
I4
sa(dp628
g618
I40
sg619
F0.00047397613525390625
sg620
F0.0024530887603759766
sg621
I3
sg622
I3
sa(dp629
g618
I49
sg619
F0.0003399848937988281
sg620
F0.0019371509552001953
sg621
I2
sg622
I2
sasS'total_cqs'
p630
I486
ssI59
(dp631
S'iters'
p632
I2
sS'meta'
p633
(lp634
(dp635
S'objective'
p636
I14
sS'query_time'
p637
F0.04936790466308594
sS'comp_time'
p638
F0.17686223983764648
sS'exec_cq'
p639
I7
sS'total_cq'
p640
I7
sa(dp641
g636
I1
sg637
F0.00018405914306640625
sg638
F0.001154184341430664
sg639
I2
sg640
I2
sasS'total_cqs'
p642
I7
ssI60
(dp643
S'iters'
p644
I2
sS'meta'
p645
(lp646
(dp647
S'objective'
p648
I5
sS'query_time'
p649
F0.013801097869873047
sS'comp_time'
p650
F0.003350973129272461
sS'exec_cq'
p651
I2
sS'total_cq'
p652
I5
sa(dp653
g648
I4
sg649
F0.00921487808227539
sg650
F0.0003376007080078125
sg651
I3
sg652
I4
sasS'total_cqs'
p654
I5
ssI62
(dp655
S'iters'
p656
I3
sS'meta'
p657
(lp658
(dp659
S'objective'
p660
I20
sS'query_time'
p661
F0.03986406326293945
sS'comp_time'
p662
F0.02743697166442871
sS'exec_cq'
p663
I12
sS'total_cq'
p664
I12
sa(dp665
g660
I35
sg661
F5.0067901611328125e-05
sg662
F0.00018143653869628906
sg663
I9
sg664
I9
sa(dp666
g660
I34
sg661
F3.886222839355469e-05
sg662
F0.00010204315185546875
sg663
I8
sg664
I8
sasS'total_cqs'
p667
I12
ssI64
(dp668
S'iters'
p669
I3
sS'meta'
p670
(lp671
(dp672
S'objective'
p673
I22
sS'query_time'
p674
F0.12141013145446777
sS'comp_time'
p675
F0.025921106338500977
sS'exec_cq'
p676
I12
sS'total_cq'
p677
I12
sa(dp678
g673
I0
sg674
F0.00017213821411132812
sg675
F0.0010828971862792969
sg676
I4
sg677
I4
sa(dp679
g673
I6
sg674
F4.601478576660156e-05
sg675
F0.00019693374633789062
sg676
I2
sg677
I2
sasS'total_cqs'
p680
I12
ssI65
(dp681
S'iters'
p682
I4
sS'meta'
p683
(lp684
(dp685
S'objective'
p686
I242
sS'query_time'
p687
F0.9934141635894775
sS'comp_time'
p688
F0.11202025413513184
sS'exec_cq'
p689
I27
sS'total_cq'
p690
I27
sa(dp691
g686
I2
sg687
F0.0019330978393554688
sg688
F0.007722139358520508
sg689
I7
sg690
I7
sa(dp692
g686
I1
sg687
F0.0007939338684082031
sg688
F0.004099607467651367
sg689
I4
sg690
I4
sa(dp693
g686
I1
sg687
F0.00018095970153808594
sg688
F0.0012392997741699219
sg689
I2
sg690
I2
sasS'total_cqs'
p694
I27
ssI67
(dp695
S'iters'
p696
I2
sS'meta'
p697
(lp698
(dp699
S'objective'
p700
I564
sS'query_time'
p701
F1.1318202018737793
sS'comp_time'
p702
F0.21546721458435059
sS'exec_cq'
p703
I35
sS'total_cq'
p704
I35
sa(dp705
g700
I13
sg701
F0.001130819320678711
sg702
F0.0071947574615478516
sg703
I2
sg704
I2
sasS'total_cqs'
p706
I35
ssI69
(dp707
S'iters'
p708
I1
sS'meta'
p709
(lp710
(dp711
S'objective'
p712
I1298
sS'query_time'
p713
F0.1674790382385254
sS'comp_time'
p714
F0.15665411949157715
sS'exec_cq'
p715
I51
sS'total_cq'
p716
I51
sasS'total_cqs'
p717
I51
ssI70
(dp718
S'iters'
p719
I3
sS'meta'
p720
(lp721
(dp722
S'objective'
p723
I9
sS'query_time'
p724
F0.02049088478088379
sS'comp_time'
p725
F0.0037107467651367188
sS'exec_cq'
p726
I6
sS'total_cq'
p727
I6
sa(dp728
g723
I7
sg724
F5.0067901611328125e-05
sg725
F0.00024962425231933594
sg726
I5
sg727
I5
sa(dp729
g723
I5
sg724
F4.100799560546875e-05
sg725
F0.000209808349609375
sg726
I4
sg727
I4
sasS'total_cqs'
p730
I6
ssI71
(dp731
S'iters'
p732
I4
sS'meta'
p733
(lp734
(dp735
S'objective'
p736
I3209
sS'query_time'
p737
F0.26351284980773926
sS'comp_time'
p738
F0.1768639087677002
sS'exec_cq'
p739
I73
sS'total_cq'
p740
I85
sa(dp741
g736
I3122
sg737
F0.0003108978271484375
sg738
F0.0012347698211669922
sg739
I69
sg740
I81
sa(dp742
g736
I13
sg737
F0.001995086669921875
sg738
F0.0035400390625
sg739
I3
sg740
I3
sa(dp743
g736
I38
sg737
F0.003219127655029297
sg738
F0.00021791458129882812
sg739
I2
sg740
I2
sasS'total_cqs'
p744
I85
ssI72
(dp745
S'iters'
p746
I3
sS'meta'
p747
(lp748
(dp749
S'objective'
p750
I2
sS'query_time'
p751
F0.24493694305419922
sS'comp_time'
p752
F0.11002016067504883
sS'exec_cq'
p753
I4
sS'total_cq'
p754
I8
sa(dp755
g750
I1
sg751
F0.02395486831665039
sg752
F0.00031304359436035156
sg753
I4
sg754
I5
sa(dp756
g750
I3
sg751
F5.698204040527344e-05
sg752
F0.0002598762512207031
sg753
I2
sg754
I3
sasS'total_cqs'
p757
I8
ssI75
(dp758
S'iters'
p759
I3
sS'meta'
p760
(lp761
(dp762
S'objective'
p763
I5
sS'query_time'
p764
F0.010049819946289062
sS'comp_time'
p765
F0.0015349388122558594
sS'exec_cq'
p766
I5
sS'total_cq'
p767
I5
sa(dp768
g763
I2
sg764
F2.002716064453125e-05
sg765
F8.296966552734375e-05
sg766
I4
sg767
I4
sa(dp769
g763
I0
sg764
F1.4781951904296875e-05
sg765
F6.532669067382812e-05
sg766
I3
sg767
I3
sasS'total_cqs'
p770
I5
ssI76
(dp771
S'iters'
p772
I1
sS'meta'
p773
(lp774
(dp775
S'objective'
p776
I1
sS'query_time'
p777
F0.023406028747558594
sS'comp_time'
p778
F0.003068208694458008
sS'exec_cq'
p779
I2
sS'total_cq'
p780
I2
sasS'total_cqs'
p781
I2
ssI103
(dp782
S'iters'
p783
I2
sS'meta'
p784
(lp785
(dp786
S'objective'
p787
I64
sS'query_time'
p788
F0.057600975036621094
sS'comp_time'
p789
F0.07333207130432129
sS'exec_cq'
p790
I12
sS'total_cq'
p791
I12
sa(dp792
g787
I63
sg788
F7.700920104980469e-05
sg789
F0.0002372264862060547
sg790
I11
sg791
I11
sasS'total_cqs'
p793
I12
ssI104
(dp794
S'iters'
p795
I2
sS'meta'
p796
(lp797
(dp798
S'objective'
p799
I0
sS'query_time'
p800
F1.4891259670257568
sS'comp_time'
p801
F0.3335847854614258
sS'exec_cq'
p802
I4
sS'total_cq'
p803
I4
sa(dp804
g799
I1
sg800
F0.013352155685424805
sg801
F0.22272062301635742
sg802
I2
sg803
I2
sasS'total_cqs'
p805
I4
ssI106
(dp806
S'iters'
p807
I1
sS'meta'
p808
(lp809
(dp810
S'objective'
p811
I6
sS'query_time'
p812
F0.023060083389282227
sS'comp_time'
p813
F0.0024156570434570312
sS'exec_cq'
p814
I4
sS'total_cq'
p815
I4
sasS'total_cqs'
p816
I4
ssI107
(dp817
S'iters'
p818
I2
sS'meta'
p819
(lp820
(dp821
S'objective'
p822
I70
sS'query_time'
p823
F0.07990694046020508
sS'comp_time'
p824
F0.07619404792785645
sS'exec_cq'
p825
I16
sS'total_cq'
p826
I16
sa(dp827
g822
I23
sg823
F0.004997968673706055
sg824
F0.00044798851013183594
sg825
I3
sg826
I3
sasS'total_cqs'
p828
I16
ss.