(dp0
I1
(dp1
S'iters'
p2
I1
sS'meta'
p3
(lp4
(dp5
S'objective'
p6
I54
sS'query_time'
p7
F0.016197919845581055
sS'comp_time'
p8
F7.677078247070312e-05
sS'exec_cq'
p9
I1
sS'total_cq'
p10
I12
sasS'total_cqs'
p11
I12
ssI2
(dp12
S'iters'
p13
I1
sS'meta'
p14
(lp15
(dp16
S'objective'
p17
I324
sS'query_time'
p18
F0.030443906784057617
sS'comp_time'
p19
F0.00010085105895996094
sS'exec_cq'
p20
I1
sS'total_cq'
p21
I27
sasS'total_cqs'
p22
I27
ssI3
(dp23
S'iters'
p24
I1
sS'meta'
p25
(lp26
(dp27
S'objective'
p28
I860
sS'query_time'
p29
F0.014734983444213867
sS'comp_time'
p30
F0.00012612342834472656
sS'exec_cq'
p31
I1
sS'total_cq'
p32
I43
sasS'total_cqs'
p33
I43
ssI4
(dp34
S'iters'
p35
I1
sS'meta'
p36
(lp37
(dp38
S'objective'
p39
I44
sS'query_time'
p40
F2.982573986053467
sS'comp_time'
p41
F0.0005161762237548828
sS'exec_cq'
p42
I1
sS'total_cq'
p43
I11
sasS'total_cqs'
p44
I11
ssI5
(dp45
S'iters'
p46
I1
sS'meta'
p47
(lp48
(dp49
S'objective'
p50
I20
sS'query_time'
p51
F0.33640098571777344
sS'comp_time'
p52
F8.797645568847656e-05
sS'exec_cq'
p53
I1
sS'total_cq'
p54
I8
sasS'total_cqs'
p55
I8
ssI6
(dp56
S'iters'
p57
I1
sS'meta'
p58
(lp59
(dp60
S'objective'
p61
I135
sS'query_time'
p62
F0.5160748958587646
sS'comp_time'
p63
F7.915496826171875e-05
sS'exec_cq'
p64
I1
sS'total_cq'
p65
I18
sasS'total_cqs'
p66
I18
ssI7
(dp67
S'iters'
p68
I1
sS'meta'
p69
(lp70
(dp71
S'objective'
p72
I27
sS'query_time'
p73
F0.267409086227417
sS'comp_time'
p74
F8.797645568847656e-05
sS'exec_cq'
p75
I1
sS'total_cq'
p76
I9
sasS'total_cqs'
p77
I9
ssI8
(dp78
S'iters'
p79
I2
sS'meta'
p80
(lp81
(dp82
S'objective'
p83
I302
sS'query_time'
p84
F0.04212021827697754
sS'comp_time'
p85
F0.00010204315185546875
sS'exec_cq'
p86
I1
sS'total_cq'
p87
I27
sa(dp88
g83
I16
sg84
F0.011889934539794922
sg85
F0.00010395050048828125
sg86
I2
sg87
I2
sasS'total_cqs'
p89
I27
ssI9
(dp90
S'iters'
p91
I2
sS'meta'
p92
(lp93
(dp94
S'objective'
p95
I16
sS'query_time'
p96
F0.015092849731445312
sS'comp_time'
p97
F7.915496826171875e-05
sS'exec_cq'
p98
I1
sS'total_cq'
p99
I7
sa(dp100
g95
I8
sg96
F0.018397092819213867
sg97
F7.295608520507812e-05
sg98
I2
sg99
I5
sasS'total_cqs'
p101
I7
ssI10
(dp102
S'iters'
p103
I8
sS'meta'
p104
(lp105
(dp106
S'objective'
p107
I718
sS'query_time'
p108
F0.04791116714477539
sS'comp_time'
p109
F0.00011491775512695312
sS'exec_cq'
p110
I1
sS'total_cq'
p111
I51
sa(dp112
g107
I162
sg108
F0.06888818740844727
sg109
F9.202957153320312e-05
sg110
I2
sg111
I12
sa(dp113
g107
I119
sg108
F0.01979994773864746
sg109
F8.20159912109375e-05
sg110
I2
sg111
I9
sa(dp114
g107
I98
sg108
F0.0133819580078125
sg109
F7.43865966796875e-05
sg110
I2
sg111
I7
sa(dp115
g107
I49
sg108
F0.008996963500976562
sg109
F7.081031799316406e-05
sg110
I2
sg111
I6
sa(dp116
g107
I51
sg108
F0.0074880123138427734
sg109
F7.319450378417969e-05
sg110
I2
sg111
I4
sa(dp117
g107
I32
sg108
F0.0032291412353515625
sg109
F6.4849853515625e-05
sg110
I2
sg111
I3
sa(dp118
g107
I50
sg108
F0.0021848678588867188
sg109
F6.008148193359375e-05
sg110
I2
sg111
I2
sasS'total_cqs'
p119
I51
ssI11
(dp120
S'iters'
p121
I2
sS'meta'
p122
(lp123
(dp124
S'objective'
p125
I1376
sS'query_time'
p126
F0.11994791030883789
sS'comp_time'
p127
F0.00013303756713867188
sS'exec_cq'
p128
I1
sS'total_cq'
p129
I63
sa(dp130
g125
I194
sg126
F0.030226945877075195
sg127
F7.82012939453125e-05
sg128
I2
sg129
I9
sasS'total_cqs'
p131
I63
ssI12
(dp132
S'iters'
p133
I6
sS'meta'
p134
(lp135
(dp136
S'objective'
p137
I689
sS'query_time'
p138
F0.06718802452087402
sS'comp_time'
p139
F0.00012111663818359375
sS'exec_cq'
p140
I1
sS'total_cq'
p141
I50
sa(dp142
g137
I115
sg138
F0.06313204765319824
sg139
F0.0001010894775390625
sg140
I2
sg141
I8
sa(dp143
g137
I112
sg138
F0.04124593734741211
sg139
F8.893013000488281e-05
sg140
I2
sg141
I6
sa(dp144
g137
I84
sg138
F0.052716970443725586
sg139
F8.130073547363281e-05
sg140
I2
sg141
I5
sa(dp145
g137
I3
sg138
F0.011389017105102539
sg139
F5.793571472167969e-05
sg140
I2
sg141
I4
sa(dp146
g137
I41
sg138
F0.0022461414337158203
sg139
F4.4345855712890625e-05
sg140
I2
sg141
I2
sasS'total_cqs'
p147
I50
ssI13
(dp148
S'iters'
p149
I2
sS'meta'
p150
(lp151
(dp152
S'objective'
p153
I48
sS'query_time'
p154
F0.030354976654052734
sS'comp_time'
p155
F9.298324584960938e-05
sS'exec_cq'
p156
I1
sS'total_cq'
p157
I20
sa(dp158
g153
I89
sg154
F0.02378988265991211
sg155
F8.20159912109375e-05
sg156
I2
sg157
I11
sasS'total_cqs'
p159
I20
ssI14
(dp160
S'iters'
p161
I1
sS'meta'
p162
(lp163
(dp164
S'objective'
p165
I27
sS'query_time'
p166
F0.36919116973876953
sS'comp_time'
p167
F7.390975952148438e-05
sS'exec_cq'
p168
I1
sS'total_cq'
p169
I9
sasS'total_cqs'
p170
I9
ssI15
(dp171
S'iters'
p172
I1
sS'meta'
p173
(lp174
(dp175
S'objective'
p176
I44
sS'query_time'
p177
F0.04833698272705078
sS'comp_time'
p178
F9.179115295410156e-05
sS'exec_cq'
p179
I1
sS'total_cq'
p180
I11
sasS'total_cqs'
p181
I11
ssI16
(dp182
S'iters'
p183
I1
sS'meta'
p184
(lp185
(dp186
S'objective'
p187
I20
sS'query_time'
p188
F0.009804964065551758
sS'comp_time'
p189
F0.00010013580322265625
sS'exec_cq'
p190
I1
sS'total_cq'
p191
I8
sasS'total_cqs'
p192
I8
ssI17
(dp193
S'iters'
p194
I1
sS'meta'
p195
(lp196
(dp197
S'objective'
p198
I44
sS'query_time'
p199
F0.027973175048828125
sS'comp_time'
p200
F7.414817810058594e-05
sS'exec_cq'
p201
I1
sS'total_cq'
p202
I11
sasS'total_cqs'
p203
I11
ssI18
(dp204
S'iters'
p205
I1
sS'meta'
p206
(lp207
(dp208
S'objective'
p209
I44
sS'query_time'
p210
F0.017575979232788086
sS'comp_time'
p211
F8.487701416015625e-05
sS'exec_cq'
p212
I1
sS'total_cq'
p213
I11
sasS'total_cqs'
p214
I11
ssI19
(dp215
S'iters'
p216
I0
sS'meta'
p217
(lp218
sS'total_cqs'
p219
I1
ssI20
(dp220
S'iters'
p221
I0
sS'meta'
p222
(lp223
sS'total_cqs'
p224
I1
ssI21
(dp225
S'iters'
p226
I0
sS'meta'
p227
(lp228
sS'total_cqs'
p229
I1
ssI22
(dp230
S'iters'
p231
I1
sS'meta'
p232
(lp233
(dp234
S'objective'
p235
I135
sS'query_time'
p236
F0.021999120712280273
sS'comp_time'
p237
F8.58306884765625e-05
sS'exec_cq'
p238
I1
sS'total_cq'
p239
I18
sasS'total_cqs'
p240
I18
ssI23
(dp241
S'iters'
p242
I1
sS'meta'
p243
(lp244
(dp245
S'objective'
p246
I104
sS'query_time'
p247
F0.01400613784790039
sS'comp_time'
p248
F9.799003601074219e-05
sS'exec_cq'
p249
I1
sS'total_cq'
p250
I16
sasS'total_cqs'
p251
I16
ssI24
(dp252
S'iters'
p253
I0
sS'meta'
p254
(lp255
sS'total_cqs'
p256
I1
ssI25
(dp257
S'iters'
p258
I0
sS'meta'
p259
(lp260
sS'total_cqs'
p261
I1
ssI26
(dp262
S'iters'
p263
I1
sS'meta'
p264
(lp265
(dp266
S'objective'
p267
I819
sS'query_time'
p268
F0.04748415946960449
sS'comp_time'
p269
F0.00011587142944335938
sS'exec_cq'
p270
I1
sS'total_cq'
p271
I42
sasS'total_cqs'
p272
I42
ssI27
(dp273
S'iters'
p274
I2
sS'meta'
p275
(lp276
(dp277
S'objective'
p278
I393
sS'query_time'
p279
F2.603135108947754
sS'comp_time'
p280
F0.00010418891906738281
sS'exec_cq'
p281
I1
sS'total_cq'
p282
I30
sa(dp283
g278
I24
sg279
F1158.4043810367584
sg280
F0.00011301040649414062
sg281
I2
sg282
I2
sasS'total_cqs'
p284
I30
ssI28
(dp285
S'iters'
p286
I0
sS'meta'
p287
(lp288
sS'total_cqs'
p289
I1
ssI29
(dp290
S'iters'
p291
I1
sS'meta'
p292
(lp293
(dp294
S'objective'
p295
I1127
sS'query_time'
p296
F0.41837501525878906
sS'comp_time'
p297
F0.0001251697540283203
sS'exec_cq'
p298
I1
sS'total_cq'
p299
I49
sasS'total_cqs'
p300
I49
ssI30
(dp301
S'iters'
p302
I1
sS'meta'
p303
(lp304
(dp305
S'objective'
p306
I1
sS'query_time'
p307
F0.5872461795806885
sS'comp_time'
p308
F6.413459777832031e-05
sS'exec_cq'
p309
I1
sS'total_cq'
p310
I2
sasS'total_cqs'
p311
I2
ssI31
(dp312
S'iters'
p313
I0
sS'meta'
p314
(lp315
sS'total_cqs'
p316
I1
ssI32
(dp317
S'iters'
p318
I1
sS'meta'
p319
(lp320
(dp321
S'objective'
p322
I1
sS'query_time'
p323
F0.00838613510131836
sS'comp_time'
p324
F7.939338684082031e-05
sS'exec_cq'
p325
I1
sS'total_cq'
p326
I2
sasS'total_cqs'
p327
I2
ssI33
(dp328
S'iters'
p329
I2
sS'meta'
p330
(lp331
(dp332
S'objective'
p333
I5062
sS'query_time'
p334
F0.610184907913208
sS'comp_time'
p335
F0.0001990795135498047
sS'exec_cq'
p336
I1
sS'total_cq'
p337
I103
sa(dp338
g333
I59
sg334
F0.032305002212524414
sg335
F5.793571472167969e-05
sg336
I1
sg337
I3
sasS'total_cqs'
p339
I103
ssI34
(dp340
S'iters'
p341
I1
sS'meta'
p342
(lp343
(dp344
S'objective'
p345
I1
sS'query_time'
p346
F0.012234926223754883
sS'comp_time'
p347
F6.699562072753906e-05
sS'exec_cq'
p348
I1
sS'total_cq'
p349
I2
sasS'total_cqs'
p350
I2
ssI35
(dp351
S'iters'
p352
I1
sS'meta'
p353
(lp354
(dp355
S'objective'
p356
I2345
sS'query_time'
p357
F0.4285728931427002
sS'comp_time'
p358
F0.0001552104949951172
sS'exec_cq'
p359
I1
sS'total_cq'
p360
I70
sasS'total_cqs'
p361
I70
ssI36
(dp362
S'iters'
p363
I1
sS'meta'
p364
(lp365
(dp366
S'objective'
p367
I495
sS'query_time'
p368
F0.050125837326049805
sS'comp_time'
p369
F0.0001232624053955078
sS'exec_cq'
p370
I1
sS'total_cq'
p371
I33
sasS'total_cqs'
p372
I33
ssI37
(dp373
S'iters'
p374
I1
sS'meta'
p375
(lp376
(dp377
S'objective'
p378
I1
sS'query_time'
p379
F0.006897926330566406
sS'comp_time'
p380
F7.891654968261719e-05
sS'exec_cq'
p381
I1
sS'total_cq'
p382
I2
sasS'total_cqs'
p383
I2
ssI38
(dp384
S'iters'
p385
I3
sS'meta'
p386
(lp387
(dp388
S'objective'
p389
I8
sS'query_time'
p390
F0.013921976089477539
sS'comp_time'
p391
F7.104873657226562e-05
sS'exec_cq'
p392
I1
sS'total_cq'
p393
I4
sa(dp394
g389
I3
sg390
F0.0050280094146728516
sg391
F4.7206878662109375e-05
sg392
I1
sg393
I3
sa(dp395
g389
I2
sg390
F0.0039920806884765625
sg391
F4.291534423828125e-05
sg392
I2
sg393
I2
sasS'total_cqs'
p396
I4
ssI39
(dp397
S'iters'
p398
I1
sS'meta'
p399
(lp400
(dp401
S'objective'
p402
I902
sS'query_time'
p403
F0.0787210464477539
sS'comp_time'
p404
F0.00011181831359863281
sS'exec_cq'
p405
I1
sS'total_cq'
p406
I44
sasS'total_cqs'
p407
I44
ssI40
(dp408
S'iters'
p409
I1
sS'meta'
p410
(lp411
(dp412
S'objective'
p413
I14
sS'query_time'
p414
F0.0161588191986084
sS'comp_time'
p415
F8.511543273925781e-05
sS'exec_cq'
p416
I1
sS'total_cq'
p417
I7
sasS'total_cqs'
p418
I7
ssI41
(dp419
S'iters'
p420
I1
sS'meta'
p421
(lp422
(dp423
S'objective'
p424
I54
sS'query_time'
p425
F0.02002096176147461
sS'comp_time'
p426
F8.20159912109375e-05
sS'exec_cq'
p427
I1
sS'total_cq'
p428
I12
sasS'total_cqs'
p429
I12
ssI42
(dp430
S'iters'
p431
I1
sS'meta'
p432
(lp433
(dp434
S'objective'
p435
I779
sS'query_time'
p436
F0.03680706024169922
sS'comp_time'
p437
F0.00011277198791503906
sS'exec_cq'
p438
I1
sS'total_cq'
p439
I41
sasS'total_cqs'
p440
I41
ssI43
(dp441
S'iters'
p442
I1
sS'meta'
p443
(lp444
(dp445
S'objective'
p446
I14
sS'query_time'
p447
F0.013755083084106445
sS'comp_time'
p448
F8.392333984375e-05
sS'exec_cq'
p449
I1
sS'total_cq'
p450
I7
sasS'total_cqs'
p451
I7
ssI44
(dp452
S'iters'
p453
I2
sS'meta'
p454
(lp455
(dp456
S'objective'
p457
I984
sS'query_time'
p458
F0.04356503486633301
sS'comp_time'
p459
F0.00010895729064941406
sS'exec_cq'
p460
I1
sS'total_cq'
p461
I47
sa(dp462
g457
I22
sg458
F0.0310819149017334
sg459
F8.296966552734375e-05
sg460
I2
sg461
I2
sasS'total_cqs'
p463
I47
ssI45
(dp464
S'iters'
p465
I0
sS'meta'
p466
(lp467
sS'total_cqs'
p468
I1
ssI46
(dp469
S'iters'
p470
I1
sS'meta'
p471
(lp472
(dp473
S'objective'
p474
I9
sS'query_time'
p475
F0.006128072738647461
sS'comp_time'
p476
F6.794929504394531e-05
sS'exec_cq'
p477
I1
sS'total_cq'
p478
I6
sasS'total_cqs'
p479
I6
ssI47
(dp480
S'iters'
p481
I1
sS'meta'
p482
(lp483
(dp484
S'objective'
p485
I1
sS'query_time'
p486
F0.0066030025482177734
sS'comp_time'
p487
F7.009506225585938e-05
sS'exec_cq'
p488
I1
sS'total_cq'
p489
I2
sasS'total_cqs'
p490
I2
ssI48
(dp491
S'iters'
p492
I0
sS'meta'
p493
(lp494
sS'total_cqs'
p495
I1
ssI49
(dp496
S'iters'
p497
I0
sS'meta'
p498
(lp499
sS'total_cqs'
p500
I1
ssI50
(dp501
S'iters'
p502
I1
sS'meta'
p503
(lp504
(dp505
S'objective'
p506
I5
sS'query_time'
p507
F0.005309104919433594
sS'comp_time'
p508
F6.031990051269531e-05
sS'exec_cq'
p509
I1
sS'total_cq'
p510
I5
sasS'total_cqs'
p511
I5
ssI51
(dp512
S'iters'
p513
I1
sS'meta'
p514
(lp515
(dp516
S'objective'
p517
I1
sS'query_time'
p518
F0.005711078643798828
sS'comp_time'
p519
F8.487701416015625e-05
sS'exec_cq'
p520
I1
sS'total_cq'
p521
I2
sasS'total_cqs'
p522
I2
ssI52
(dp523
S'iters'
p524
I1
sS'meta'
p525
(lp526
(dp527
S'objective'
p528
I1
sS'query_time'
p529
F0.005711078643798828
sS'comp_time'
p530
F6.389617919921875e-05
sS'exec_cq'
p531
I1
sS'total_cq'
p532
I2
sasS'total_cqs'
p533
I2
ssI53
(dp534
S'iters'
p535
I1
sS'meta'
p536
(lp537
(dp538
S'objective'
p539
I2
sS'query_time'
p540
F0.012263059616088867
sS'comp_time'
p541
F8.487701416015625e-05
sS'exec_cq'
p542
I1
sS'total_cq'
p543
I4
sasS'total_cqs'
p544
I4
ssI54
(dp545
S'iters'
p546
I1
sS'meta'
p547
(lp548
(dp549
S'objective'
p550
I0
sS'query_time'
p551
F0.00773310661315918
sS'comp_time'
p552
F6.794929504394531e-05
sS'exec_cq'
p553
I1
sS'total_cq'
p554
I3
sasS'total_cqs'
p555
I3
ssI55
(dp556
S'iters'
p557
I3
sS'meta'
p558
(lp559
(dp560
S'objective'
p561
I5505
sS'query_time'
p562
F0.1794450283050537
sS'comp_time'
p563
F0.0001990795135498047
sS'exec_cq'
p564
I1
sS'total_cq'
p565
I109
sa(dp566
g561
I71
sg562
F0.006806135177612305
sg563
F6.389617919921875e-05
sg564
I1
sg565
I3
sa(dp567
g561
I60
sg562
F0.006346940994262695
sg563
F5.8650970458984375e-05
sg564
I1
sg565
I2
sasS'total_cqs'
p568
I109
ssI56
(dp569
S'iters'
p570
I2
sS'meta'
p571
(lp572
(dp573
S'objective'
p574
I2584
sS'query_time'
p575
F0.2694540023803711
sS'comp_time'
p576
F0.00014495849609375
sS'exec_cq'
p577
I1
sS'total_cq'
p578
I76
sa(dp579
g574
I19
sg575
F0.008507966995239258
sg576
F4.696846008300781e-05
sg577
I1
sg578
I3
sasS'total_cqs'
p580
I76
ssI57
(dp581
S'iters'
p582
I2
sS'meta'
p583
(lp584
(dp585
S'objective'
p586
I1128
sS'query_time'
p587
F0.4031829833984375
sS'comp_time'
p588
F0.00015616416931152344
sS'exec_cq'
p589
I1
sS'total_cq'
p590
I51
sa(dp591
g586
I3
sg587
F0.046389102935791016
sg588
F8.797645568847656e-05
sg589
I1
sg590
I3
sasS'total_cqs'
p592
I51
ssI58
(dp593
S'iters'
p594
I5
sS'meta'
p595
(lp596
(dp597
S'objective'
p598
I114817
sS'query_time'
p599
F1.9730441570281982
sS'comp_time'
p600
F0.0005412101745605469
sS'exec_cq'
p601
I1
sS'total_cq'
p602
I486
sa(dp603
g598
I836
sg599
F0.07312703132629395
sg600
F0.0001361370086669922
sg601
I1
sg602
I6
sa(dp604
g598
I319
sg599
F0.09019589424133301
sg600
F8.106231689453125e-05
sg601
I1
sg602
I5
sa(dp605
g598
I201
sg599
F0.26599621772766113
sg600
F8.726119995117188e-05
sg601
I2
sg602
I3
sa(dp606
g598
I467
sg599
F8.391731023788452
sg600
F8.821487426757812e-05
sg601
I2
sg602
I2
sasS'total_cqs'
p607
I486
ssI59
(dp608
S'iters'
p609
I2
sS'meta'
p610
(lp611
(dp612
S'objective'
p613
I6
sS'query_time'
p614
F0.017288923263549805
sS'comp_time'
p615
F8.821487426757812e-05
sS'exec_cq'
p616
I1
sS'total_cq'
p617
I7
sa(dp618
g613
I3
sg614
F0.034796953201293945
sg615
F7.724761962890625e-05
sg616
I2
sg617
I2
sasS'total_cqs'
p619
I7
ssI60
(dp620
S'iters'
p621
I1
sS'meta'
p622
(lp623
(dp624
S'objective'
p625
I5
sS'query_time'
p626
F0.0060520172119140625
sS'comp_time'
p627
F7.104873657226562e-05
sS'exec_cq'
p628
I1
sS'total_cq'
p629
I5
sasS'total_cqs'
p630
I5
ssI61
(dp631
S'iters'
p632
I0
sS'meta'
p633
(lp634
sS'total_cqs'
p635
I1
ssI62
(dp636
S'iters'
p637
I1
sS'meta'
p638
(lp639
(dp640
S'objective'
p641
I54
sS'query_time'
p642
F0.012864828109741211
sS'comp_time'
p643
F8.678436279296875e-05
sS'exec_cq'
p644
I1
sS'total_cq'
p645
I12
sasS'total_cqs'
p646
I12
ssI63
(dp647
S'iters'
p648
I0
sS'meta'
p649
(lp650
sS'total_cqs'
p651
I1
ssI64
(dp652
S'iters'
p653
I1
sS'meta'
p654
(lp655
(dp656
S'objective'
p657
I54
sS'query_time'
p658
F0.041519880294799805
sS'comp_time'
p659
F8.082389831542969e-05
sS'exec_cq'
p660
I1
sS'total_cq'
p661
I12
sasS'total_cqs'
p662
I12
ssI65
(dp663
S'iters'
p664
I3
sS'meta'
p665
(lp666
(dp667
S'objective'
p668
I238
sS'query_time'
p669
F0.0342249870300293
sS'comp_time'
p670
F0.00010180473327636719
sS'exec_cq'
p671
I1
sS'total_cq'
p672
I27
sa(dp673
g668
I18
sg669
F0.003041982650756836
sg670
F4.792213439941406e-05
sg671
I1
sg672
I3
sa(dp674
g668
I10
sg669
F0.0017559528350830078
sg670
F7.295608520507812e-05
sg671
I1
sg672
I2
sasS'total_cqs'
p675
I27
ssI66
(dp676
S'iters'
p677
I0
sS'meta'
p678
(lp679
sS'total_cqs'
p680
I1
ssI67
(dp681
S'iters'
p682
I1
sS'meta'
p683
(lp684
(dp685
S'objective'
p686
I560
sS'query_time'
p687
F0.5131130218505859
sS'comp_time'
p688
F0.000102996826171875
sS'exec_cq'
p689
I1
sS'total_cq'
p690
I35
sasS'total_cqs'
p691
I35
ssI68
(dp692
S'iters'
p693
I0
sS'meta'
p694
(lp695
sS'total_cqs'
p696
I1
ssI69
(dp697
S'iters'
p698
I1
sS'meta'
p699
(lp700
(dp701
S'objective'
p702
I1224
sS'query_time'
p703
F0.08965516090393066
sS'comp_time'
p704
F0.00010919570922851562
sS'exec_cq'
p705
I1
sS'total_cq'
p706
I51
sasS'total_cqs'
p707
I51
ssI70
(dp708
S'iters'
p709
I1
sS'meta'
p710
(lp711
(dp712
S'objective'
p713
I9
sS'query_time'
p714
F0.01963496208190918
sS'comp_time'
p715
F7.200241088867188e-05
sS'exec_cq'
p716
I1
sS'total_cq'
p717
I6
sasS'total_cqs'
p718
I6
ssI71
(dp719
S'iters'
p720
I1
sS'meta'
p721
(lp722
(dp723
S'objective'
p724
I3485
sS'query_time'
p725
F0.07295584678649902
sS'comp_time'
p726
F0.000148773193359375
sS'exec_cq'
p727
I1
sS'total_cq'
p728
I85
sasS'total_cqs'
p729
I85
ssI72
(dp730
S'iters'
p731
I1
sS'meta'
p732
(lp733
(dp734
S'objective'
p735
I20
sS'query_time'
p736
F0.008177042007446289
sS'comp_time'
p737
F8.726119995117188e-05
sS'exec_cq'
p738
I1
sS'total_cq'
p739
I8
sasS'total_cqs'
p740
I8
ssI73
(dp741
S'iters'
p742
I0
sS'meta'
p743
(lp744
sS'total_cqs'
p745
I1
ssI74
(dp746
S'iters'
p747
I0
sS'meta'
p748
(lp749
sS'total_cqs'
p750
I1
ssI75
(dp751
S'iters'
p752
I1
sS'meta'
p753
(lp754
(dp755
S'objective'
p756
I5
sS'query_time'
p757
F0.005074977874755859
sS'comp_time'
p758
F6.890296936035156e-05
sS'exec_cq'
p759
I1
sS'total_cq'
p760
I5
sasS'total_cqs'
p761
I5
ssI76
(dp762
S'iters'
p763
I1
sS'meta'
p764
(lp765
(dp766
S'objective'
p767
I1
sS'query_time'
p768
F0.008644819259643555
sS'comp_time'
p769
F5.888938903808594e-05
sS'exec_cq'
p770
I1
sS'total_cq'
p771
I2
sasS'total_cqs'
p772
I2
ssI77
(dp773
S'iters'
p774
I0
sS'meta'
p775
(lp776
sS'total_cqs'
p777
I1
ssI78
(dp778
S'iters'
p779
I0
sS'meta'
p780
(lp781
sS'total_cqs'
p782
I1
ssI103
(dp783
S'iters'
p784
I1
sS'meta'
p785
(lp786
(dp787
S'objective'
p788
I54
sS'query_time'
p789
F0.02861499786376953
sS'comp_time'
p790
F8.392333984375e-05
sS'exec_cq'
p791
I1
sS'total_cq'
p792
I12
sasS'total_cqs'
p793
I12
ssI104
(dp794
S'iters'
p795
I1
sS'meta'
p796
(lp797
(dp798
S'objective'
p799
I2
sS'query_time'
p800
F1.1043450832366943
sS'comp_time'
p801
F0.00011992454528808594
sS'exec_cq'
p802
I1
sS'total_cq'
p803
I4
sasS'total_cqs'
p804
I4
ssI105
(dp805
S'iters'
p806
I0
sS'meta'
p807
(lp808
sS'total_cqs'
p809
I1
ssI106
(dp810
S'iters'
p811
I1
sS'meta'
p812
(lp813
(dp814
S'objective'
p815
I2
sS'query_time'
p816
F0.017728090286254883
sS'comp_time'
p817
F6.794929504394531e-05
sS'exec_cq'
p818
I1
sS'total_cq'
p819
I4
sasS'total_cqs'
p820
I4
ssI107
(dp821
S'iters'
p822
I1
sS'meta'
p823
(lp824
(dp825
S'objective'
p826
I104
sS'query_time'
p827
F0.035382986068725586
sS'comp_time'
p828
F9.989738464355469e-05
sS'exec_cq'
p829
I1
sS'total_cq'
p830
I16
sasS'total_cqs'
p831
I16
ssI108
(dp832
S'iters'
p833
I0
sS'meta'
p834
(lp835
sS'total_cqs'
p836
I1
ss.