(dp0
I1
(dp1
S'iters'
p2
I4
sS'meta'
p3
(lp4
(dp5
S'objective'
p6
I54
sS'query_time'
p7
F0.04098701477050781
sS'comp_time'
p8
F0.00023603439331054688
sS'exec_cq'
p9
I12
sS'total_cq'
p10
I12
sa(dp11
g6
I54
sg7
F5.3882598876953125e-05
sg8
F7.963180541992188e-05
sg9
I10
sg10
I10
sa(dp12
g6
I50
sg7
F4.100799560546875e-05
sg8
F6.389617919921875e-05
sg9
I9
sg10
I9
sa(dp13
g6
I53
sg7
F3.314018249511719e-05
sg8
F5.793571472167969e-05
sg9
I8
sg10
I8
sasS'total_cqs'
p14
I12
ssI2
(dp15
S'iters'
p16
I8
sS'meta'
p17
(lp18
(dp19
S'objective'
p20
I214
sS'query_time'
p21
F0.12264585494995117
sS'comp_time'
p22
F0.0009541511535644531
sS'exec_cq'
p23
I27
sS'total_cq'
p24
I27
sa(dp25
g20
I172
sg21
F0.00011706352233886719
sg22
F0.0005707740783691406
sg23
I23
sg24
I23
sa(dp26
g20
I194
sg21
F0.00015807151794433594
sg22
F0.0005013942718505859
sg23
I20
sg24
I20
sa(dp27
g20
I174
sg21
F0.0001380443572998047
sg22
F0.00041103363037109375
sg23
I19
sg24
I19
sa(dp28
g20
I176
sg21
F0.00013399124145507812
sg22
F0.0003790855407714844
sg23
I17
sg24
I17
sa(dp29
g20
I175
sg21
F6.699562072753906e-05
sg22
F0.00014901161193847656
sg23
I15
sg24
I15
sa(dp30
g20
I176
sg21
F4.9114227294921875e-05
sg22
F6.508827209472656e-05
sg23
I14
sg24
I14
sa(dp31
g20
I176
sg21
F4.38690185546875e-05
sg22
F4.9114227294921875e-05
sg23
I13
sg24
I13
sasS'total_cqs'
p32
I27
ssI3
(dp33
S'iters'
p34
I4
sS'meta'
p35
(lp36
(dp37
S'objective'
p38
I180
sS'query_time'
p39
F157.65265607833862
sS'comp_time'
p40
F1.5637409687042236
sS'exec_cq'
p41
I43
sS'total_cq'
p42
I43
sa(dp43
g38
I85
sg39
F0.3405277729034424
sg40
F1.315843105316162
sg41
I27
sg42
I27
sa(dp44
g38
I11
sg39
F0.04276013374328613
sg40
F0.37090492248535156
sg41
I13
sg42
I13
sa(dp45
g38
I123
sg39
F9.799003601074219e-05
sg40
F0.003911018371582031
sg41
I7
sg42
I7
sasS'total_cqs'
p46
I43
ssI4
(dp47
S'iters'
p48
I2
sS'meta'
p49
(lp50
(dp51
S'objective'
p52
I44
sS'query_time'
p53
F4.01381516456604
sS'comp_time'
p54
F0.4455428123474121
sS'exec_cq'
p55
I11
sS'total_cq'
p56
I11
sa(dp57
g52
I9
sg53
F0.12912702560424805
sg54
F0.3718688488006592
sg55
I2
sg56
I2
sasS'total_cqs'
p58
I11
ssI5
(dp59
S'iters'
p60
I3
sS'meta'
p61
(lp62
(dp63
S'objective'
p64
I0
sS'query_time'
p65
F27.272118091583252
sS'comp_time'
p66
F2.300468921661377
sS'exec_cq'
p67
I8
sS'total_cq'
p68
I8
sa(dp69
g64
I2
sg65
F0.3504068851470947
sg66
F1.0493769645690918
sg67
I4
sg68
I4
sa(dp70
g64
I6
sg65
F0.18202805519104004
sg66
F0.6573538780212402
sg67
I2
sg68
I2
sasS'total_cqs'
p71
I8
ssI6
(dp72
S'iters'
p73
I4
sS'meta'
p74
(lp75
(dp76
S'objective'
p77
I19
sS'query_time'
p78
F29.810456037521362
sS'comp_time'
p79
F2.1278529167175293
sS'exec_cq'
p80
I18
sS'total_cq'
p81
I18
sa(dp82
g77
I0
sg78
F0.5359981060028076
sg79
F2.152287006378174
sg80
I7
sg81
I7
sa(dp83
g77
I6
sg78
F0.3875269889831543
sg79
F1.6733710765838623
sg80
I4
sg81
I4
sa(dp84
g77
I14
sg78
F0.2725410461425781
sg79
F1.251237154006958
sg80
I2
sg81
I2
sasS'total_cqs'
p85
I18
ssI7
(dp86
S'iters'
p87
I4
sS'meta'
p88
(lp89
(dp90
S'objective'
p91
I1
sS'query_time'
p92
F9.84020709991455
sS'comp_time'
p93
F0.870128870010376
sS'exec_cq'
p94
I9
sS'total_cq'
p95
I9
sa(dp96
g91
I0
sg92
F0.12864398956298828
sg93
F0.40227603912353516
sg94
I5
sg95
I5
sa(dp97
g91
I1
sg92
F0.003036975860595703
sg93
F0.014501094818115234
sg94
I3
sg95
I3
sa(dp98
g91
I3
sg92
F0.0020051002502441406
sg93
F0.05863475799560547
sg94
I2
sg95
I2
sasS'total_cqs'
p99
I9
ssI8
(dp100
S'iters'
p101
I5
sS'meta'
p102
(lp103
(dp104
S'objective'
p105
I240
sS'query_time'
p106
F0.13610291481018066
sS'comp_time'
p107
F0.0011360645294189453
sS'exec_cq'
p108
I27
sS'total_cq'
p109
I27
sa(dp110
g105
I243
sg106
F0.00013589859008789062
sg107
F0.0003261566162109375
sg108
I22
sg109
I22
sa(dp111
g105
I236
sg106
F6.914138793945312e-05
sg107
F9.393692016601562e-05
sg108
I19
sg109
I19
sa(dp112
g105
I252
sg106
F6.318092346191406e-05
sg107
F7.200241088867188e-05
sg108
I18
sg109
I18
sa(dp113
g105
I252
sg106
F5.698204040527344e-05
sg107
F5.602836608886719e-05
sg108
I17
sg109
I17
sasS'total_cqs'
p114
I27
ssI9
(dp115
S'iters'
p116
I3
sS'meta'
p117
(lp118
(dp119
S'objective'
p120
I6
sS'query_time'
p121
F0.06236886978149414
sS'comp_time'
p122
F0.0002741813659667969
sS'exec_cq'
p123
I7
sS'total_cq'
p124
I7
sa(dp125
g120
I3
sg121
F0.0019369125366210938
sg122
F0.0001900196075439453
sg123
I5
sg124
I5
sa(dp126
g120
I5
sg121
F2.002716064453125e-05
sg122
F6.127357482910156e-05
sg123
I2
sg124
I2
sasS'total_cqs'
p127
I7
ssI10
(dp128
S'iters'
p129
I5
sS'meta'
p130
(lp131
(dp132
S'objective'
p133
I606
sS'query_time'
p134
F0.4084029197692871
sS'comp_time'
p135
F0.006772041320800781
sS'exec_cq'
p136
I51
sS'total_cq'
p137
I51
sa(dp138
g133
I10
sg134
F0.0015180110931396484
sg135
F0.0006382465362548828
sg136
I12
sg137
I12
sa(dp139
g133
I23
sg134
F5.602836608886719e-05
sg135
F0.00016188621520996094
sg136
I6
sg137
I6
sa(dp140
g133
I23
sg134
F3.409385681152344e-05
sg135
F0.00011706352233886719
sg136
I3
sg137
I3
sa(dp141
g133
I50
sg134
F2.193450927734375e-05
sg135
F7.414817810058594e-05
sg136
I2
sg137
I2
sasS'total_cqs'
p142
I51
ssI11
(dp143
S'iters'
p144
I7
sS'meta'
p145
(lp146
(dp147
S'objective'
p148
I848
sS'query_time'
p149
F0.6489889621734619
sS'comp_time'
p150
F0.013818979263305664
sS'exec_cq'
p151
I63
sS'total_cq'
p152
I63
sa(dp153
g148
I1018
sg149
F0.0010840892791748047
sg150
F0.004187107086181641
sg151
I47
sg152
I47
sa(dp154
g148
I891
sg149
F0.0005879402160644531
sg150
F0.002858877182006836
sg151
I41
sg152
I41
sa(dp155
g148
I770
sg149
F0.0004470348358154297
sg150
F0.0021958351135253906
sg151
I36
sg152
I36
sa(dp156
g148
I2
sg149
F0.001260995864868164
sg150
F0.0001709461212158203
sg151
I7
sg152
I7
sa(dp157
g148
I9
sg149
F2.9087066650390625e-05
sg150
F9.989738464355469e-05
sg151
I4
sg152
I4
sa(dp158
g148
I30
sg149
F1.5974044799804688e-05
sg150
F5.5789947509765625e-05
sg151
I2
sg152
I2
sasS'total_cqs'
p159
I63
ssI12
(dp160
S'iters'
p161
I6
sS'meta'
p162
(lp163
(dp164
S'objective'
p165
I289
sS'query_time'
p166
F0.4795420169830322
sS'comp_time'
p167
F0.007449150085449219
sS'exec_cq'
p168
I50
sS'total_cq'
p169
I50
sa(dp170
g165
I368
sg166
F0.00041103363037109375
sg167
F0.001638174057006836
sg168
I33
sg169
I33
sa(dp171
g165
I3
sg166
F0.0019321441650390625
sg167
F0.0014977455139160156
sg168
I8
sg169
I8
sa(dp172
g165
I4
sg166
F9.489059448242188e-05
sg167
F0.0004279613494873047
sg168
I5
sg169
I5
sa(dp173
g165
I41
sg166
F3.409385681152344e-05
sg167
F0.00011301040649414062
sg168
I3
sg169
I3
sa(dp174
g165
I4
sg166
F1.7881393432617188e-05
sg167
F6.103515625e-05
sg168
I2
sg169
I2
sasS'total_cqs'
p175
I50
ssI13
(dp176
S'iters'
p177
I5
sS'meta'
p178
(lp179
(dp180
S'objective'
p181
I14
sS'query_time'
p182
F0.21168994903564453
sS'comp_time'
p183
F0.0003781318664550781
sS'exec_cq'
p184
I20
sS'total_cq'
p185
I20
sa(dp186
g181
I4
sg182
F0.0010559558868408203
sg183
F0.0002651214599609375
sg184
I11
sg185
I11
sa(dp187
g181
I8
sg182
F3.409385681152344e-05
sg183
F0.00011992454528808594
sg184
I5
sg185
I5
sa(dp188
g181
I9
sg182
F2.288818359375e-05
sg183
F7.081031799316406e-05
sg184
I3
sg185
I3
sa(dp189
g181
I6
sg182
F2.002716064453125e-05
sg183
F5.817413330078125e-05
sg184
I2
sg185
I2
sasS'total_cqs'
p190
I20
ssI14
(dp191
S'iters'
p192
I4
sS'meta'
p193
(lp194
(dp195
S'objective'
p196
I1
sS'query_time'
p197
F27.226863145828247
sS'comp_time'
p198
F1.1468420028686523
sS'exec_cq'
p199
I9
sS'total_cq'
p200
I9
sa(dp201
g196
I0
sg197
F0.00919485092163086
sg198
F0.034484148025512695
sg199
I5
sg200
I5
sa(dp202
g196
I5
sg197
F0.009387016296386719
sg198
F0.12564682960510254
sg199
I3
sg200
I3
sa(dp203
g196
I1
sg197
F0.005101919174194336
sg198
F0.023711204528808594
sg199
I2
sg200
I2
sasS'total_cqs'
p204
I9
ssI15
(dp205
S'iters'
p206
I5
sS'meta'
p207
(lp208
(dp209
S'objective'
p210
I2
sS'query_time'
p211
F3.122879981994629
sS'comp_time'
p212
F0.27306318283081055
sS'exec_cq'
p213
I11
sS'total_cq'
p214
I11
sa(dp215
g210
I14
sg211
F0.008028030395507812
sg212
F0.04717397689819336
sg213
I6
sg214
I6
sa(dp216
g210
I10
sg211
F0.028836965560913086
sg212
F0.04212188720703125
sg213
I5
sg214
I5
sa(dp217
g210
I7
sg211
F0.00805807113647461
sg212
F0.059931039810180664
sg213
I4
sg214
I4
sa(dp218
g210
I3
sg211
F0.008107185363769531
sg212
F0.03909921646118164
sg213
I2
sg214
I2
sasS'total_cqs'
p219
I11
ssI16
(dp220
S'iters'
p221
I1
sS'meta'
p222
(lp223
(dp224
S'objective'
p225
I34
sS'query_time'
p226
F0.03271913528442383
sS'comp_time'
p227
F0.0001327991485595703
sS'exec_cq'
p228
I8
sS'total_cq'
p229
I8
sasS'total_cqs'
p230
I8
ssI17
(dp231
S'iters'
p232
I3
sS'meta'
p233
(lp234
(dp235
S'objective'
p236
I0
sS'query_time'
p237
F0.9436299800872803
sS'comp_time'
p238
F0.016970157623291016
sS'exec_cq'
p239
I11
sS'total_cq'
p240
I11
sa(dp241
g236
I15
sg237
F0.00018906593322753906
sg238
F0.0008628368377685547
sg239
I6
sg240
I6
sa(dp242
g236
I7
sg237
F0.00013518333435058594
sg238
F0.0009009838104248047
sg239
I2
sg240
I2
sasS'total_cqs'
p243
I11
ssI18
(dp244
S'iters'
p245
I4
sS'meta'
p246
(lp247
(dp248
S'objective'
p249
I28
sS'query_time'
p250
F0.27760910987854004
sS'comp_time'
p251
F0.003993988037109375
sS'exec_cq'
p252
I11
sS'total_cq'
p253
I11
sa(dp254
g249
I31
sg250
F0.00023102760314941406
sg251
F0.001138925552368164
sg252
I8
sg253
I8
sa(dp255
g249
I29
sg250
F0.00017714500427246094
sg251
F0.0008959770202636719
sg252
I7
sg253
I7
sa(dp256
g249
I32
sg250
F3.600120544433594e-05
sg251
F8.702278137207031e-05
sg252
I6
sg253
I6
sasS'total_cqs'
p257
I11
ssI19
(dp258
S'iters'
p259
I0
sS'meta'
p260
(lp261
sS'total_cqs'
p262
I1
ssI20
(dp263
S'iters'
p264
I0
sS'meta'
p265
(lp266
sS'total_cqs'
p267
I1
ssI21
(dp268
S'iters'
p269
I0
sS'meta'
p270
(lp271
sS'total_cqs'
p272
I1
ssI22
(dp273
S'iters'
p274
I1
sS'meta'
p275
(lp276
(dp277
S'objective'
p278
I169
sS'query_time'
p279
F0.07541584968566895
sS'comp_time'
p280
F0.0002129077911376953
sS'exec_cq'
p281
I18
sS'total_cq'
p282
I18
sasS'total_cqs'
p283
I18
ssI23
(dp284
S'iters'
p285
I3
sS'meta'
p286
(lp287
(dp288
S'objective'
p289
I114
sS'query_time'
p290
F0.10035991668701172
sS'comp_time'
p291
F0.0005948543548583984
sS'exec_cq'
p292
I16
sS'total_cq'
p293
I16
sa(dp294
g289
I115
sg290
F6.198883056640625e-05
sg291
F7.700920104980469e-05
sg292
I15
sg293
I15
sa(dp295
g289
I118
sg290
F4.601478576660156e-05
sg291
F5.507469177246094e-05
sg292
I13
sg293
I13
sasS'total_cqs'
p296
I16
ssI24
(dp297
S'iters'
p298
I0
sS'meta'
p299
(lp300
sS'total_cqs'
p301
I1
ssI25
(dp302
S'iters'
p303
I0
sS'meta'
p304
(lp305
sS'total_cqs'
p306
I1
ssI26
(dp307
S'iters'
p308
I1
sS'meta'
p309
(lp310
(dp311
S'objective'
p312
I901
sS'query_time'
p313
F0.23627996444702148
sS'comp_time'
p314
F0.00018095970153808594
sS'exec_cq'
p315
I42
sS'total_cq'
p316
I42
sasS'total_cqs'
p317
I42
ssI27
(dp318
S'iters'
p319
I4
sS'meta'
p320
(lp321
(dp322
S'objective'
p323
I383
sS'query_time'
p324
F17.135287046432495
sS'comp_time'
p325
F1.8533940315246582
sS'exec_cq'
p326
I30
sS'total_cq'
p327
I30
sa(dp328
g323
I360
sg324
F0.2823648452758789
sg325
F1.2562408447265625
sg326
I27
sg327
I27
sa(dp329
g323
I6
sg324
F0.2498948574066162
sg325
F1.2408690452575684
sg326
I4
sg327
I4
sa(dp330
g323
I11
sg324
F0.010416984558105469
sg325
F0.13500380516052246
sg326
I2
sg327
I2
sasS'total_cqs'
p331
I30
ssI28
(dp332
S'iters'
p333
I0
sS'meta'
p334
(lp335
sS'total_cqs'
p336
I1
ssI29
(dp337
S'iters'
p338
I7
sS'meta'
p339
(lp340
(dp341
S'objective'
p342
I299
sS'query_time'
p343
F134.29964804649353
sS'comp_time'
p344
F13.313619136810303
sS'exec_cq'
p345
I49
sS'total_cq'
p346
I49
sa(dp347
g342
I27
sg343
F0.020748138427734375
sg344
F0.046218156814575195
sg345
I17
sg346
I17
sa(dp348
g342
I2
sg343
F0.5874021053314209
sg344
F0.0529630184173584
sg345
I9
sg346
I9
sa(dp349
g342
I6
sg343
F0.012578010559082031
sg344
F0.19611001014709473
sg345
I6
sg346
I6
sa(dp350
g342
I7
sg343
F0.0052947998046875
sg344
F0.025627851486206055
sg345
I4
sg346
I4
sa(dp351
g342
I16
sg343
F0.002502918243408203
sg344
F0.01086115837097168
sg345
I3
sg346
I3
sa(dp352
g342
I1
sg343
F0.0014729499816894531
sg344
F0.0070798397064208984
sg345
I2
sg346
I2
sasS'total_cqs'
p353
I49
ssI30
(dp354
S'iters'
p355
I1
sS'meta'
p356
(lp357
(dp358
S'objective'
p359
I1
sS'query_time'
p360
F0.7539300918579102
sS'comp_time'
p361
F0.030009984970092773
sS'exec_cq'
p362
I2
sS'total_cq'
p363
I2
sasS'total_cqs'
p364
I2
ssI31
(dp365
S'iters'
p366
I0
sS'meta'
p367
(lp368
sS'total_cqs'
p369
I1
ssI32
(dp370
S'iters'
p371
I1
sS'meta'
p372
(lp373
(dp374
S'objective'
p375
I1
sS'query_time'
p376
F0.012333869934082031
sS'comp_time'
p377
F0.00039076805114746094
sS'exec_cq'
p378
I2
sS'total_cq'
p379
I2
sasS'total_cqs'
p380
I2
ssI33
(dp381
S'iters'
p382
I7
sS'meta'
p383
(lp384
(dp385
S'objective'
p386
I3518
sS'query_time'
p387
F14.297159910202026
sS'comp_time'
p388
F0.12915706634521484
sS'exec_cq'
p389
I103
sS'total_cq'
p390
I103
sa(dp391
g386
I5
sg387
F0.007738828659057617
sg388
F0.04247021675109863
sg389
I16
sg390
I16
sa(dp392
g386
I2
sg387
F0.00333404541015625
sg388
F0.014016866683959961
sg389
I9
sg390
I9
sa(dp393
g386
I8
sg387
F0.0019440650939941406
sg388
F0.008722066879272461
sg389
I6
sg390
I6
sa(dp394
g386
I14
sg387
F0.0009310245513916016
sg388
F0.0043032169342041016
sg389
I4
sg390
I4
sa(dp395
g386
I29
sg387
F0.00030803680419921875
sg388
F0.0019428730010986328
sg389
I3
sg390
I3
sa(dp396
g386
I8
sg387
F7.82012939453125e-05
sg388
F0.00041604042053222656
sg389
I2
sg390
I2
sasS'total_cqs'
p397
I103
ssI34
(dp398
S'iters'
p399
I1
sS'meta'
p400
(lp401
(dp402
S'objective'
p403
I1
sS'query_time'
p404
F0.01879096031188965
sS'comp_time'
p405
F0.000438690185546875
sS'exec_cq'
p406
I2
sS'total_cq'
p407
I2
sasS'total_cqs'
p408
I2
ssI35
(dp409
S'iters'
p410
I14
sS'meta'
p411
(lp412
(dp413
S'objective'
p414
I2203
sS'query_time'
p415
F46.579155921936035
sS'comp_time'
p416
F3.448132038116455
sS'exec_cq'
p417
I70
sS'total_cq'
p418
I70
sa(dp419
g414
I2242
sg415
F0.7455060482025146
sg416
F3.258213996887207
sg417
I67
sg418
I67
sa(dp420
g414
I2193
sg415
F0.7633898258209229
sg416
F3.826697826385498
sg417
I66
sg418
I66
sa(dp421
g414
I2163
sg415
F0.7715010643005371
sg416
F3.327869176864624
sg417
I65
sg418
I65
sa(dp422
g414
I2161
sg415
F0.7577519416809082
sg416
F3.380702018737793
sg417
I64
sg418
I64
sa(dp423
g414
I2170
sg415
F0.8370108604431152
sg416
F3.367140054702759
sg417
I63
sg418
I63
sa(dp424
g414
I2040
sg415
F0.34540295600891113
sg416
F0.2549459934234619
sg417
I62
sg418
I62
sa(dp425
g414
I1974
sg415
F0.2539501190185547
sg416
F0.25284409523010254
sg417
I61
sg418
I61
sa(dp426
g414
I1839
sg415
F0.2823600769042969
sg416
F0.24251294136047363
sg417
I60
sg418
I60
sa(dp427
g414
I1726
sg415
F0.34911584854125977
sg416
F0.04816579818725586
sg417
I58
sg418
I58
sa(dp428
g414
I1719
sg415
F0.298907995223999
sg416
F0.24640417098999023
sg417
I56
sg418
I56
sa(dp429
g414
I1596
sg415
F0.509026050567627
sg416
F0.20827221870422363
sg417
I55
sg418
I55
sa(dp430
g414
I22
sg415
F0.46218419075012207
sg416
F0.034464120864868164
sg417
I4
sg418
I4
sa(dp431
g414
I32
sg415
F0.03711199760437012
sg416
F0.009346961975097656
sg417
I3
sg418
I3
sasS'total_cqs'
p432
I70
ssI36
(dp433
S'iters'
p434
I5
sS'meta'
p435
(lp436
(dp437
S'objective'
p438
I451
sS'query_time'
p439
F0.9447810649871826
sS'comp_time'
p440
F0.033004045486450195
sS'exec_cq'
p441
I33
sS'total_cq'
p442
I33
sa(dp443
g438
I410
sg439
F0.003462076187133789
sg440
F0.016373872756958008
sg441
I29
sg442
I29
sa(dp444
g438
I416
sg439
F0.0011720657348632812
sg440
F0.006267070770263672
sg441
I25
sg442
I25
sa(dp445
g438
I403
sg439
F0.0007970333099365234
sg440
F0.004141092300415039
sg441
I24
sg442
I24
sa(dp446
g438
I418
sg439
F8.988380432128906e-05
sg440
F0.00023174285888671875
sg441
I23
sg442
I23
sasS'total_cqs'
p447
I33
ssI37
(dp448
S'iters'
p449
I1
sS'meta'
p450
(lp451
(dp452
S'objective'
p453
I1
sS'query_time'
p454
F0.00908803939819336
sS'comp_time'
p455
F0.00027823448181152344
sS'exec_cq'
p456
I2
sS'total_cq'
p457
I2
sasS'total_cqs'
p458
I2
ssI38
(dp459
S'iters'
p460
I2
sS'meta'
p461
(lp462
(dp463
S'objective'
p464
I0
sS'query_time'
p465
F0.03478097915649414
sS'comp_time'
p466
F0.0005881786346435547
sS'exec_cq'
p467
I4
sS'total_cq'
p468
I4
sa(dp469
g464
I3
sg465
F8.702278137207031e-05
sg466
F0.00038313865661621094
sg467
I2
sg468
I2
sasS'total_cqs'
p470
I4
ssI39
(dp471
S'iters'
p472
I2
sS'meta'
p473
(lp474
(dp475
S'objective'
p476
I740
sS'query_time'
p477
F0.23896002769470215
sS'comp_time'
p478
F0.0020759105682373047
sS'exec_cq'
p479
I44
sS'total_cq'
p480
I44
sa(dp481
g476
I863
sg477
F0.00027489662170410156
sg478
F0.00807499885559082
sg479
I37
sg480
I37
sasS'total_cqs'
p482
I44
ssI40
(dp483
S'iters'
p484
I1
sS'meta'
p485
(lp486
(dp487
S'objective'
p488
I26
sS'query_time'
p489
F0.04345893859863281
sS'comp_time'
p490
F8.296966552734375e-05
sS'exec_cq'
p491
I7
sS'total_cq'
p492
I7
sasS'total_cqs'
p493
I7
ssI41
(dp494
S'iters'
p495
I2
sS'meta'
p496
(lp497
(dp498
S'objective'
p499
I64
sS'query_time'
p500
F0.0774240493774414
sS'comp_time'
p501
F0.000141143798828125
sS'exec_cq'
p502
I12
sS'total_cq'
p503
I12
sa(dp504
g499
I69
sg500
F5.0067901611328125e-05
sg501
F6.198883056640625e-05
sg502
I11
sg503
I11
sasS'total_cqs'
p505
I12
ssI42
(dp506
S'iters'
p507
I4
sS'meta'
p508
(lp509
(dp510
S'objective'
p511
I789
sS'query_time'
p512
F0.11763811111450195
sS'comp_time'
p513
F0.000247955322265625
sS'exec_cq'
p514
I41
sS'total_cq'
p515
I41
sa(dp516
g511
I767
sg512
F0.00013303756713867188
sg513
F0.00010609626770019531
sg514
I40
sg515
I40
sa(dp517
g511
I786
sg512
F0.0001220703125
sg513
F0.00010609626770019531
sg514
I39
sg515
I39
sa(dp518
g511
I789
sg512
F0.0001480579376220703
sg513
F8.511543273925781e-05
sg514
I38
sg515
I38
sasS'total_cqs'
p519
I41
ssI43
(dp520
S'iters'
p521
I1
sS'meta'
p522
(lp523
(dp524
S'objective'
p525
I26
sS'query_time'
p526
F0.03759002685546875
sS'comp_time'
p527
F0.00011682510375976562
sS'exec_cq'
p528
I7
sS'total_cq'
p529
I7
sasS'total_cqs'
p530
I7
ssI44
(dp531
S'iters'
p532
I5
sS'meta'
p533
(lp534
(dp535
S'objective'
p536
I802
sS'query_time'
p537
F0.21038508415222168
sS'comp_time'
p538
F0.0011830329895019531
sS'exec_cq'
p539
I47
sS'total_cq'
p540
I47
sa(dp541
g536
I899
sg537
F0.0005521774291992188
sg538
F0.0013129711151123047
sg539
I40
sg540
I40
sa(dp542
g536
I870
sg537
F0.0002779960632324219
sg538
F0.0008001327514648438
sg539
I39
sg540
I39
sa(dp543
g536
I7
sg537
F0.002825021743774414
sg538
F0.0005898475646972656
sg539
I3
sg540
I3
sa(dp544
g536
I10
sg537
F0.00011086463928222656
sg538
F0.0006258487701416016
sg539
I2
sg540
I2
sasS'total_cqs'
p545
I47
ssI45
(dp546
S'iters'
p547
I0
sS'meta'
p548
(lp549
sS'total_cqs'
p550
I1
ssI46
(dp551
S'iters'
p552
I3
sS'meta'
p553
(lp554
(dp555
S'objective'
p556
I13
sS'query_time'
p557
F0.027098894119262695
sS'comp_time'
p558
F0.00031280517578125
sS'exec_cq'
p559
I6
sS'total_cq'
p560
I6
sa(dp561
g556
I13
sg557
F6.079673767089844e-05
sg558
F0.00021791458129882812
sg559
I5
sg560
I5
sa(dp562
g556
I13
sg557
F2.002716064453125e-05
sg558
F4.696846008300781e-05
sg559
I4
sg560
I4
sasS'total_cqs'
p563
I6
ssI47
(dp564
S'iters'
p565
I1
sS'meta'
p566
(lp567
(dp568
S'objective'
p569
I1
sS'query_time'
p570
F0.009926080703735352
sS'comp_time'
p571
F0.0005757808685302734
sS'exec_cq'
p572
I2
sS'total_cq'
p573
I2
sasS'total_cqs'
p574
I2
ssI48
(dp575
S'iters'
p576
I0
sS'meta'
p577
(lp578
sS'total_cqs'
p579
I1
ssI49
(dp580
S'iters'
p581
I0
sS'meta'
p582
(lp583
sS'total_cqs'
p584
I1
ssI50
(dp585
S'iters'
p586
I4
sS'meta'
p587
(lp588
(dp589
S'objective'
p590
I5
sS'query_time'
p591
F0.027644872665405273
sS'comp_time'
p592
F0.00012493133544921875
sS'exec_cq'
p593
I5
sS'total_cq'
p594
I5
sa(dp595
g590
I2
sg591
F3.218650817871094e-05
sg592
F8.58306884765625e-05
sg593
I4
sg594
I4
sa(dp596
g590
I0
sg591
F2.193450927734375e-05
sg592
F7.176399230957031e-05
sg593
I3
sg594
I3
sa(dp597
g590
I1
sg591
F1.71661376953125e-05
sg592
F6.389617919921875e-05
sg593
I2
sg594
I2
sasS'total_cqs'
p598
I5
ssI51
(dp599
S'iters'
p600
I1
sS'meta'
p601
(lp602
(dp603
S'objective'
p604
I1
sS'query_time'
p605
F0.007597208023071289
sS'comp_time'
p606
F0.000125885009765625
sS'exec_cq'
p607
I2
sS'total_cq'
p608
I2
sasS'total_cqs'
p609
I2
ssI52
(dp610
S'iters'
p611
I1
sS'meta'
p612
(lp613
(dp614
S'objective'
p615
I1
sS'query_time'
p616
F0.00857996940612793
sS'comp_time'
p617
F0.00019979476928710938
sS'exec_cq'
p618
I2
sS'total_cq'
p619
I2
sasS'total_cqs'
p620
I2
ssI53
(dp621
S'iters'
p622
I2
sS'meta'
p623
(lp624
(dp625
S'objective'
p626
I4
sS'query_time'
p627
F0.021810054779052734
sS'comp_time'
p628
F0.0006260871887207031
sS'exec_cq'
p629
I4
sS'total_cq'
p630
I4
sa(dp631
g626
I1
sg627
F9.202957153320312e-05
sg628
F0.000843048095703125
sg629
I2
sg630
I2
sasS'total_cqs'
p632
I4
ssI54
(dp633
S'iters'
p634
I2
sS'meta'
p635
(lp636
(dp637
S'objective'
p638
I0
sS'query_time'
p639
F0.011136054992675781
sS'comp_time'
p640
F0.00028395652770996094
sS'exec_cq'
p641
I3
sS'total_cq'
p642
I3
sa(dp643
g638
I1
sg639
F5.1021575927734375e-05
sg640
F0.0002739429473876953
sg641
I2
sg642
I2
sasS'total_cqs'
p644
I3
ssI55
(dp645
S'iters'
p646
I9
sS'meta'
p647
(lp648
(dp649
S'objective'
p650
I4241
sS'query_time'
p651
F2.4540388584136963
sS'comp_time'
p652
F0.03940176963806152
sS'exec_cq'
p653
I109
sS'total_cq'
p654
I109
sa(dp655
g650
I4438
sg651
F0.002310037612915039
sg652
F0.003030061721801758
sg653
I97
sg654
I97
sa(dp656
g650
I4484
sg651
F0.0003058910369873047
sg652
F0.0007951259613037109
sg653
I91
sg654
I91
sa(dp657
g650
I4373
sg651
F0.0002799034118652344
sg652
F0.0007860660552978516
sg653
I87
sg654
I87
sa(dp658
g650
I4272
sg651
F0.0002551078796386719
sg652
F0.0007224082946777344
sg653
I85
sg654
I85
sa(dp659
g650
I4171
sg651
F0.00024390220642089844
sg652
F0.0005090236663818359
sg653
I83
sg654
I83
sa(dp660
g650
I4073
sg651
F0.0002338886260986328
sg652
F0.00045013427734375
sg653
I81
sg654
I81
sa(dp661
g650
I4062
sg651
F0.00023102760314941406
sg652
F0.0004050731658935547
sg653
I80
sg654
I80
sa(dp662
g650
I4117
sg651
F0.00022912025451660156
sg652
F0.0003871917724609375
sg653
I79
sg654
I79
sasS'total_cqs'
p663
I109
ssI56
(dp664
S'iters'
p665
I6
sS'meta'
p666
(lp667
(dp668
S'objective'
p669
I1690
sS'query_time'
p670
F3.410810947418213
sS'comp_time'
p671
F0.1719069480895996
sS'exec_cq'
p672
I76
sS'total_cq'
p673
I76
sa(dp674
g669
I4
sg670
F0.0070438385009765625
sg671
F0.012661933898925781
sg672
I16
sg673
I16
sa(dp675
g669
I13
sg670
F0.00335693359375
sg671
F0.007234811782836914
sg672
I9
sg673
I9
sa(dp676
g669
I4
sg670
F0.0018239021301269531
sg671
F0.005570888519287109
sg672
I5
sg673
I5
sa(dp677
g669
I17
sg670
F0.0012149810791015625
sg671
F0.004524946212768555
sg672
I3
sg673
I3
sa(dp678
g669
I29
sg670
F0.0008268356323242188
sg671
F0.004004001617431641
sg672
I2
sg673
I2
sasS'total_cqs'
p679
I76
ssI57
(dp680
S'iters'
p681
I6
sS'meta'
p682
(lp683
(dp684
S'objective'
p685
I134
sS'query_time'
p686
F69.11773300170898
sS'comp_time'
p687
F3.4350368976593018
sS'exec_cq'
p688
I51
sS'total_cq'
p689
I51
sa(dp690
g685
I108
sg686
F0.014251947402954102
sg687
F0.028033018112182617
sg688
I27
sg689
I27
sa(dp691
g685
I19
sg686
F0.002170085906982422
sg687
F0.005827665328979492
sg688
I12
sg689
I12
sa(dp692
g685
I3
sg686
F0.0011670589447021484
sg687
F0.003969907760620117
sg688
I6
sg689
I6
sa(dp693
g685
I8
sg686
F0.0005218982696533203
sg687
F0.0024831295013427734
sg688
I3
sg689
I3
sa(dp694
g685
I36
sg686
F0.00045800209045410156
sg687
F0.002458810806274414
sg688
I2
sg689
I2
sasS'total_cqs'
p695
I51
ssI58
(dp696
S'iters'
p697
I8
sS'meta'
p698
(lp699
(dp700
S'objective'
p701
I85251
sS'query_time'
p702
F292.4841239452362
sS'comp_time'
p703
F17.064560890197754
sS'exec_cq'
p704
I486
sS'total_cq'
p705
I486
sa(dp706
g701
I10583
sg702
F0.035529136657714844
sg703
F0.20435404777526855
sg704
I64
sg705
I64
sa(dp707
g701
I2792
sg702
F0.025516986846923828
sg703
F0.3362770080566406
sg704
I52
sg705
I52
sa(dp708
g701
I2496
sg702
F0.01782989501953125
sg703
F0.8392338752746582
sg704
I32
sg705
I32
sa(dp709
g701
I1567
sg702
F0.008513927459716797
sg703
F0.037087202072143555
sg704
I21
sg705
I21
sa(dp710
g701
I599
sg702
F0.006228923797607422
sg703
F0.019345998764038086
sg704
I9
sg705
I9
sa(dp711
g701
I193
sg702
F0.0003991127014160156
sg703
F0.0017528533935546875
sg704
I3
sg705
I3
sa(dp712
g701
I223
sg702
F0.00019097328186035156
sg703
F0.0010380744934082031
sg704
I2
sg705
I2
sasS'total_cqs'
p713
I486
ssI59
(dp714
S'iters'
p715
I2
sS'meta'
p716
(lp717
(dp718
S'objective'
p719
I14
sS'query_time'
p720
F0.05761003494262695
sS'comp_time'
p721
F0.0008449554443359375
sS'exec_cq'
p722
I7
sS'total_cq'
p723
I7
sa(dp724
g719
I5
sg720
F0.0001609325408935547
sg721
F0.0009319782257080078
sg722
I2
sg723
I2
sasS'total_cqs'
p725
I7
ssI60
(dp726
S'iters'
p727
I4
sS'meta'
p728
(lp729
(dp730
S'objective'
p731
I5
sS'query_time'
p732
F0.02333998680114746
sS'comp_time'
p733
F0.00039696693420410156
sS'exec_cq'
p734
I5
sS'total_cq'
p735
I5
sa(dp736
g731
I2
sg732
F0.00011992454528808594
sg733
F0.0003287792205810547
sg734
I4
sg735
I4
sa(dp737
g731
I0
sg732
F6.079673767089844e-05
sg733
F0.00029730796813964844
sg734
I3
sg735
I3
sa(dp738
g731
I1
sg732
F1.9073486328125e-05
sg733
F5.5789947509765625e-05
sg734
I2
sg735
I2
sasS'total_cqs'
p739
I5
ssI61
(dp740
S'iters'
p741
I0
sS'meta'
p742
(lp743
sS'total_cqs'
p744
I1
ssI62
(dp745
S'iters'
p746
I3
sS'meta'
p747
(lp748
(dp749
S'objective'
p750
I30
sS'query_time'
p751
F0.03476285934448242
sS'comp_time'
p752
F0.0001590251922607422
sS'exec_cq'
p753
I12
sS'total_cq'
p754
I12
sa(dp755
g750
I32
sg751
F4.100799560546875e-05
sg752
F6.794929504394531e-05
sg753
I9
sg754
I9
sa(dp756
g750
I41
sg751
F3.0994415283203125e-05
sg752
F5.316734313964844e-05
sg753
I8
sg754
I8
sasS'total_cqs'
p757
I12
ssI63
(dp758
S'iters'
p759
I0
sS'meta'
p760
(lp761
sS'total_cqs'
p762
I1
ssI64
(dp763
S'iters'
p764
I3
sS'meta'
p765
(lp766
(dp767
S'objective'
p768
I18
sS'query_time'
p769
F0.2098081111907959
sS'comp_time'
p770
F0.0070879459381103516
sS'exec_cq'
p771
I12
sS'total_cq'
p772
I12
sa(dp773
g768
I4
sg769
F0.0002307891845703125
sg770
F0.000978708267211914
sg771
I4
sg772
I4
sa(dp774
g768
I11
sg769
F4.315376281738281e-05
sg770
F0.00016617774963378906
sg771
I2
sg772
I2
sasS'total_cqs'
p775
I12
ssI65
(dp776
S'iters'
p777
I6
sS'meta'
p778
(lp779
(dp780
S'objective'
p781
I192
sS'query_time'
p782
F0.8328330516815186
sS'comp_time'
p783
F0.03478598594665527
sS'exec_cq'
p784
I27
sS'total_cq'
p785
I27
sa(dp786
g781
I9
sg782
F0.0016570091247558594
sg783
F0.004693031311035156
sg784
I7
sg785
I7
sa(dp787
g781
I1
sg782
F0.0007572174072265625
sg783
F0.0034220218658447266
sg784
I5
sg785
I5
sa(dp788
g781
I9
sg782
F0.000370025634765625
sg783
F0.0020160675048828125
sg784
I4
sg785
I4
sa(dp789
g781
I2
sg782
F0.00029587745666503906
sg783
F0.002190113067626953
sg784
I3
sg785
I3
sa(dp790
g781
I1
sg782
F8.511543273925781e-05
sg783
F0.0004849433898925781
sg784
I2
sg785
I2
sasS'total_cqs'
p791
I27
ssI66
(dp792
S'iters'
p793
I0
sS'meta'
p794
(lp795
sS'total_cqs'
p796
I1
ssI67
(dp797
S'iters'
p798
I2
sS'meta'
p799
(lp800
(dp801
S'objective'
p802
I600
sS'query_time'
p803
F1.3571360111236572
sS'comp_time'
p804
F0.006528139114379883
sS'exec_cq'
p805
I35
sS'total_cq'
p806
I35
sa(dp807
g802
I13
sg803
F0.0011701583862304688
sg804
F0.005697965621948242
sg805
I2
sg806
I2
sasS'total_cqs'
p808
I35
ssI68
(dp809
S'iters'
p810
I0
sS'meta'
p811
(lp812
sS'total_cqs'
p813
I1
ssI69
(dp814
S'iters'
p815
I1
sS'meta'
p816
(lp817
(dp818
S'objective'
p819
I1324
sS'query_time'
p820
F0.2272629737854004
sS'comp_time'
p821
F0.00024008750915527344
sS'exec_cq'
p822
I51
sS'total_cq'
p823
I51
sasS'total_cqs'
p824
I51
ssI70
(dp825
S'iters'
p826
I4
sS'meta'
p827
(lp828
(dp829
S'objective'
p830
I9
sS'query_time'
p831
F0.02103400230407715
sS'comp_time'
p832
F0.00024008750915527344
sS'exec_cq'
p833
I6
sS'total_cq'
p834
I6
sa(dp835
g830
I5
sg831
F5.1021575927734375e-05
sg832
F0.00017714500427246094
sg833
I5
sg834
I5
sa(dp836
g830
I6
sg831
F4.00543212890625e-05
sg832
F0.0001609325408935547
sg833
I4
sg834
I4
sa(dp837
g830
I6
sg831
F3.504753112792969e-05
sg832
F0.00017404556274414062
sg833
I3
sg834
I3
sasS'total_cqs'
p838
I6
ssI71
(dp839
S'iters'
p840
I9
sS'meta'
p841
(lp842
(dp843
S'objective'
p844
I3151
sS'query_time'
p845
F0.3990349769592285
sS'comp_time'
p846
F0.0009107589721679688
sS'exec_cq'
p847
I85
sS'total_cq'
p848
I85
sa(dp849
g844
I2943
sg845
F0.000370025634765625
sg846
F0.0008950233459472656
sg847
I81
sg848
I81
sa(dp850
g844
I2839
sg845
F0.0002751350402832031
sg846
F0.0005459785461425781
sg847
I77
sg848
I77
sa(dp851
g844
I2826
sg845
F0.00032210350036621094
sg846
F0.000576019287109375
sg847
I74
sg848
I74
sa(dp852
g844
I2776
sg845
F0.0002999305725097656
sg846
F0.0004379749298095703
sg847
I71
sg848
I71
sa(dp853
g844
I2750
sg845
F0.0002868175506591797
sg846
F0.00036406517028808594
sg847
I69
sg848
I69
sa(dp854
g844
I2766
sg845
F0.0002720355987548828
sg846
F0.0003151893615722656
sg847
I68
sg848
I68
sa(dp855
g844
I2
sg845
F0.003762960433959961
sg846
F0.00017690658569335938
sg847
I3
sg848
I3
sa(dp856
g844
I7
sg845
F0.003717184066772461
sg846
F0.00021696090698242188
sg847
I2
sg848
I2
sasS'total_cqs'
p857
I85
ssI72
(dp858
S'iters'
p859
I3
sS'meta'
p860
(lp861
(dp862
S'objective'
p863
I4
sS'query_time'
p864
F0.4199240207672119
sS'comp_time'
p865
F0.006518125534057617
sS'exec_cq'
p866
I8
sS'total_cq'
p867
I8
sa(dp868
g863
I0
sg864
F0.0001049041748046875
sg865
F0.00030517578125
sg866
I5
sg867
I5
sa(dp869
g863
I8
sg864
F3.504753112792969e-05
sg865
F0.00013589859008789062
sg866
I3
sg867
I3
sasS'total_cqs'
p870
I8
ssI73
(dp871
S'iters'
p872
I0
sS'meta'
p873
(lp874
sS'total_cqs'
p875
I1
ssI74
(dp876
S'iters'
p877
I0
sS'meta'
p878
(lp879
sS'total_cqs'
p880
I1
ssI75
(dp881
S'iters'
p882
I4
sS'meta'
p883
(lp884
(dp885
S'objective'
p886
I5
sS'query_time'
p887
F0.014154911041259766
sS'comp_time'
p888
F0.0001308917999267578
sS'exec_cq'
p889
I5
sS'total_cq'
p890
I5
sa(dp891
g886
I2
sg887
F3.0994415283203125e-05
sg888
F7.677078247070312e-05
sg889
I4
sg890
I4
sa(dp892
g886
I0
sg887
F2.3126602172851562e-05
sg888
F7.200241088867188e-05
sg889
I3
sg890
I3
sa(dp893
g886
I1
sg887
F2.09808349609375e-05
sg888
F6.723403930664062e-05
sg889
I2
sg890
I2
sasS'total_cqs'
p894
I5
ssI76
(dp895
S'iters'
p896
I1
sS'meta'
p897
(lp898
(dp899
S'objective'
p900
I1
sS'query_time'
p901
F0.013152837753295898
sS'comp_time'
p902
F0.0003712177276611328
sS'exec_cq'
p903
I2
sS'total_cq'
p904
I2
sasS'total_cqs'
p905
I2
ssI77
(dp906
S'iters'
p907
I0
sS'meta'
p908
(lp909
sS'total_cqs'
p910
I1
ssI78
(dp911
S'iters'
p912
I0
sS'meta'
p913
(lp914
sS'total_cqs'
p915
I1
ssI103
(dp916
S'iters'
p917
I2
sS'meta'
p918
(lp919
(dp920
S'objective'
p921
I58
sS'query_time'
p922
F0.11314105987548828
sS'comp_time'
p923
F0.00018477439880371094
sS'exec_cq'
p924
I12
sS'total_cq'
p925
I12
sa(dp926
g921
I66
sg922
F5.3882598876953125e-05
sg923
F9.322166442871094e-05
sg924
I11
sg925
I11
sasS'total_cqs'
p927
I12
ssI104
(dp928
S'iters'
p929
I2
sS'meta'
p930
(lp931
(dp932
S'objective'
p933
I0
sS'query_time'
p934
F1.548203945159912
sS'comp_time'
p935
F0.0865321159362793
sS'exec_cq'
p936
I4
sS'total_cq'
p937
I4
sa(dp938
g933
I3
sg934
F0.012664079666137695
sg935
F0.08055520057678223
sg936
I2
sg937
I2
sasS'total_cqs'
p939
I4
ssI105
(dp940
S'iters'
p941
I0
sS'meta'
p942
(lp943
sS'total_cqs'
p944
I1
ssI106
(dp945
S'iters'
p946
I1
sS'meta'
p947
(lp948
(dp949
S'objective'
p950
I8
sS'query_time'
p951
F0.049218177795410156
sS'comp_time'
p952
F0.00011181831359863281
sS'exec_cq'
p953
I4
sS'total_cq'
p954
I4
sasS'total_cqs'
p955
I4
ssI107
(dp956
S'iters'
p957
I2
sS'meta'
p958
(lp959
(dp960
S'objective'
p961
I110
sS'query_time'
p962
F0.11846208572387695
sS'comp_time'
p963
F0.0002009868621826172
sS'exec_cq'
p964
I16
sS'total_cq'
p965
I16
sa(dp966
g961
I11
sg962
F0.007369041442871094
sg963
F0.00011515617370605469
sg964
I3
sg965
I3
sasS'total_cqs'
p967
I16
ssI108
(dp968
S'iters'
p969
I0
sS'meta'
p970
(lp971
sS'total_cqs'
p972
I1
ss.