(dp0
I1
(dp1
S'iters'
p2
I2
sS'meta'
p3
(lp4
(dp5
S'objective'
p6
I54
sS'query_time'
p7
F0.12786293029785156
sS'comp_time'
p8
F0.00012493133544921875
sS'exec_cq'
p9
I1
sS'total_cq'
p10
I12
sa(dp11
g6
I46
sg7
F0.05412483215332031
sg8
F8.296966552734375e-05
sg9
I2
sg10
I11
sasS'total_cqs'
p12
I12
ssI2
(dp13
S'iters'
p14
I4
sS'meta'
p15
(lp16
(dp17
S'objective'
p18
I290
sS'query_time'
p19
F0.6290318965911865
sS'comp_time'
p20
F0.00010704994201660156
sS'exec_cq'
p21
I1
sS'total_cq'
p22
I27
sa(dp23
g18
I214
sg19
F0.20034193992614746
sg20
F0.00011801719665527344
sg21
I3
sg22
I25
sa(dp24
g18
I228
sg19
F0.029208898544311523
sg20
F7.915496826171875e-05
sg21
I3
sg22
I21
sa(dp25
g18
I207
sg19
F0.028623104095458984
sg20
F6.4849853515625e-05
sg21
I3
sg22
I20
sasS'total_cqs'
p26
I27
ssI3
(dp27
S'iters'
p28
I4
sS'meta'
p29
(lp30
(dp31
S'objective'
p32
I606
sS'query_time'
p33
F48.73688006401062
sS'comp_time'
p34
F0.0003559589385986328
sS'exec_cq'
p35
I3
sS'total_cq'
p36
I43
sa(dp37
g32
I204
sg33
F7.706650972366333
sg34
F0.0001010894775390625
sg35
I3
sg36
I37
sa(dp38
g32
I154
sg33
F10.964770078659058
sg34
F8.893013000488281e-05
sg35
I3
sg36
I23
sa(dp39
g32
I254
sg33
F0.0040760040283203125
sg34
F5.2928924560546875e-05
sg35
I3
sg36
I13
sasS'total_cqs'
p40
I43
ssI4
(dp41
S'iters'
p42
I1
sS'meta'
p43
(lp44
(dp45
S'objective'
p46
I46
sS'query_time'
p47
F5.323724031448364
sS'comp_time'
p48
F0.0010290145874023438
sS'exec_cq'
p49
I2
sS'total_cq'
p50
I11
sasS'total_cqs'
p51
I11
ssI5
(dp52
S'iters'
p53
I2
sS'meta'
p54
(lp55
(dp56
S'objective'
p57
I20
sS'query_time'
p58
F20.057363986968994
sS'comp_time'
p59
F0.00010704994201660156
sS'exec_cq'
p60
I1
sS'total_cq'
p61
I8
sa(dp62
g57
I14
sg58
F0.30236005783081055
sg59
F6.985664367675781e-05
sg60
I1
sg61
I7
sasS'total_cqs'
p63
I8
ssI6
(dp64
S'iters'
p65
I4
sS'meta'
p66
(lp67
(dp68
S'objective'
p69
I137
sS'query_time'
p70
F1.9206500053405762
sS'comp_time'
p71
F7.200241088867188e-05
sS'exec_cq'
p72
I2
sS'total_cq'
p73
I18
sa(dp74
g69
I80
sg70
F0.7292799949645996
sg71
F8.0108642578125e-05
sg72
I3
sg73
I17
sa(dp75
g69
I21
sg70
F0.02013397216796875
sg71
F5.0067901611328125e-05
sg72
I1
sg73
I4
sa(dp76
g69
I1
sg70
F20.008557081222534
sg71
F0.00010013580322265625
sg72
I2
sg73
I3
sasS'total_cqs'
p77
I18
ssI7
(dp78
S'iters'
p79
I2
sS'meta'
p80
(lp81
(dp82
S'objective'
p83
I27
sS'query_time'
p84
F2.9902901649475098
sS'comp_time'
p85
F6.794929504394531e-05
sS'exec_cq'
p86
I1
sS'total_cq'
p87
I9
sa(dp88
g83
I20
sg84
F0.2615091800689697
sg85
F7.295608520507812e-05
sg86
I1
sg87
I8
sasS'total_cqs'
p89
I9
ssI8
(dp90
S'iters'
p91
I3
sS'meta'
p92
(lp93
(dp94
S'objective'
p95
I324
sS'query_time'
p96
F0.8728680610656738
sS'comp_time'
p97
F0.00011014938354492188
sS'exec_cq'
p98
I1
sS'total_cq'
p99
I27
sa(dp100
g95
I301
sg96
F0.056572914123535156
sg97
F5.984306335449219e-05
sg98
I2
sg99
I26
sa(dp101
g95
I282
sg96
F0.03487706184387207
sg97
F8.797645568847656e-05
sg98
I4
sg99
I25
sasS'total_cqs'
p102
I27
ssI9
(dp103
S'iters'
p104
I3
sS'meta'
p105
(lp106
(dp107
S'objective'
p108
I8
sS'query_time'
p109
F0.32411885261535645
sS'comp_time'
p110
F5.2928924560546875e-05
sS'exec_cq'
p111
I1
sS'total_cq'
p112
I7
sa(dp113
g108
I2
sg109
F0.7072420120239258
sg110
F0.00010204315185546875
sg111
I2
sg112
I5
sa(dp114
g108
I6
sg109
F0.010343074798583984
sg110
F8.487701416015625e-05
sg111
I2
sg112
I2
sasS'total_cqs'
p115
I7
ssI10
(dp116
S'iters'
p117
I6
sS'meta'
p118
(lp119
(dp120
S'objective'
p121
I374
sS'query_time'
p122
F1.2517402172088623
sS'comp_time'
p123
F7.915496826171875e-05
sS'exec_cq'
p124
I1
sS'total_cq'
p125
I51
sa(dp126
g121
I760
sg122
F0.0664970874786377
sg123
F0.00011801719665527344
sg124
I4
sg125
I37
sa(dp127
g121
I557
sg122
F0.17635107040405273
sg123
F9.799003601074219e-05
sg124
I4
sg125
I36
sa(dp128
g121
I441
sg122
F0.0340421199798584
sg123
F6.389617919921875e-05
sg124
I4
sg125
I29
sa(dp129
g121
I50
sg122
F0.025053024291992188
sg123
F5.1021575927734375e-05
sg124
I2
sg125
I6
sa(dp130
g121
I5
sg122
F0.010198116302490234
sg123
F4.792213439941406e-05
sg124
I2
sg125
I4
sasS'total_cqs'
p131
I51
ssI11
(dp132
S'iters'
p133
I5
sS'meta'
p134
(lp135
(dp136
S'objective'
p137
I1432
sS'query_time'
p138
F1.2789280414581299
sS'comp_time'
p139
F0.00015306472778320312
sS'exec_cq'
p140
I1
sS'total_cq'
p141
I63
sa(dp142
g137
I68
sg138
F0.030384063720703125
sg139
F4.410743713378906e-05
sg140
I1
sg141
I9
sa(dp143
g137
I34
sg138
F0.043853044509887695
sg139
F0.0001068115234375
sg140
I2
sg141
I6
sa(dp144
g137
I57
sg138
F0.03550887107849121
sg139
F9.107589721679688e-05
sg140
I2
sg141
I4
sa(dp145
g137
I16
sg138
F0.009363889694213867
sg139
F5.0067901611328125e-05
sg140
I2
sg141
I3
sasS'total_cqs'
p146
I63
ssI12
(dp147
S'iters'
p148
I10
sS'meta'
p149
(lp150
(dp151
S'objective'
p152
I1111
sS'query_time'
p153
F1.39107084274292
sS'comp_time'
p154
F7.796287536621094e-05
sS'exec_cq'
p155
I1
sS'total_cq'
p156
I50
sa(dp157
g152
I877
sg153
F0.0946660041809082
sg154
F0.00010704994201660156
sg155
I1
sg156
I48
sa(dp158
g152
I823
sg153
F0.19344711303710938
sg154
F8.606910705566406e-05
sg155
I1
sg156
I43
sa(dp159
g152
I573
sg153
F0.056301116943359375
sg154
F5.2928924560546875e-05
sg155
I1
sg156
I40
sa(dp160
g152
I659
sg153
F0.06314897537231445
sg154
F6.413459777832031e-05
sg155
I1
sg156
I35
sa(dp161
g152
I615
sg153
F0.026326894760131836
sg154
F7.605552673339844e-05
sg155
I1
sg156
I34
sa(dp162
g152
I180
sg153
F0.04823112487792969
sg154
F7.82012939453125e-05
sg155
I1
sg156
I33
sa(dp163
g152
I230
sg153
F0.03680300712585449
sg154
F6.699562072753906e-05
sg155
I1
sg156
I21
sa(dp164
g152
I9
sg153
F0.01792287826538086
sg154
F4.315376281738281e-05
sg155
I2
sg156
I4
sa(dp165
g152
I35
sg153
F0.006387948989868164
sg154
F4.887580871582031e-05
sg155
I2
sg156
I2
sasS'total_cqs'
p166
I50
ssI13
(dp167
S'iters'
p168
I4
sS'meta'
p169
(lp170
(dp171
S'objective'
p172
I38
sS'query_time'
p173
F0.5056569576263428
sS'comp_time'
p174
F0.0001239776611328125
sS'exec_cq'
p175
I1
sS'total_cq'
p176
I20
sa(dp177
g172
I76
sg173
F0.7694330215454102
sg174
F4.410743713378906e-05
sg175
I1
sg176
I11
sa(dp178
g172
I42
sg173
F0.07683205604553223
sg174
F4.1961669921875e-05
sg175
I1
sg176
I9
sa(dp179
g172
I3
sg173
F0.03484797477722168
sg174
F7.581710815429688e-05
sg175
I2
sg176
I2
sasS'total_cqs'
p180
I20
ssI14
(dp181
S'iters'
p182
I3
sS'meta'
p183
(lp184
(dp185
S'objective'
p186
I27
sS'query_time'
p187
F0.015140056610107422
sS'comp_time'
p188
F0.00012111663818359375
sS'exec_cq'
p189
I1
sS'total_cq'
p190
I9
sa(dp191
g186
I8
sg187
F2.0501129627227783
sg188
F6.699562072753906e-05
sg189
I1
sg190
I8
sa(dp192
g186
I2
sg187
F0.016604900360107422
sg188
F3.695487976074219e-05
sg189
I1
sg190
I2
sasS'total_cqs'
p193
I9
ssI15
(dp194
S'iters'
p195
I2
sS'meta'
p196
(lp197
(dp198
S'objective'
p199
I26
sS'query_time'
p200
F3.601100206375122
sS'comp_time'
p201
F0.00010585784912109375
sS'exec_cq'
p202
I1
sS'total_cq'
p203
I11
sa(dp204
g199
I26
sg200
F0.04787707328796387
sg201
F3.504753112792969e-05
sg202
I1
sg203
I9
sasS'total_cqs'
p205
I11
ssI16
(dp206
S'iters'
p207
I1
sS'meta'
p208
(lp209
(dp210
S'objective'
p211
I22
sS'query_time'
p212
F0.014617919921875
sS'comp_time'
p213
F4.792213439941406e-05
sS'exec_cq'
p214
I2
sS'total_cq'
p215
I8
sasS'total_cqs'
p216
I8
ssI17
(dp217
S'iters'
p218
I2
sS'meta'
p219
(lp220
(dp221
S'objective'
p222
I38
sS'query_time'
p223
F1.0617759227752686
sS'comp_time'
p224
F8.893013000488281e-05
sS'exec_cq'
p225
I1
sS'total_cq'
p226
I11
sa(dp227
g222
I32
sg223
F0.1063089370727539
sg224
F6.29425048828125e-05
sg225
I1
sg226
I9
sasS'total_cqs'
p228
I11
ssI18
(dp229
S'iters'
p230
I1
sS'meta'
p231
(lp232
(dp233
S'objective'
p234
I46
sS'query_time'
p235
F0.35681891441345215
sS'comp_time'
p236
F6.794929504394531e-05
sS'exec_cq'
p237
I2
sS'total_cq'
p238
I11
sasS'total_cqs'
p239
I11
ssI19
(dp240
S'iters'
p241
I0
sS'meta'
p242
(lp243
sS'total_cqs'
p244
I1
ssI20
(dp245
S'iters'
p246
I0
sS'meta'
p247
(lp248
sS'total_cqs'
p249
I1
ssI21
(dp250
S'iters'
p251
I0
sS'meta'
p252
(lp253
sS'total_cqs'
p254
I1
ssI22
(dp255
S'iters'
p256
I1
sS'meta'
p257
(lp258
(dp259
S'objective'
p260
I141
sS'query_time'
p261
F0.11839008331298828
sS'comp_time'
p262
F6.985664367675781e-05
sS'exec_cq'
p263
I4
sS'total_cq'
p264
I18
sasS'total_cqs'
p265
I18
ssI23
(dp266
S'iters'
p267
I2
sS'meta'
p268
(lp269
(dp270
S'objective'
p271
I104
sS'query_time'
p272
F0.5726878643035889
sS'comp_time'
p273
F8.702278137207031e-05
sS'exec_cq'
p274
I1
sS'total_cq'
p275
I16
sa(dp276
g271
I94
sg272
F0.14264607429504395
sg273
F7.510185241699219e-05
sg274
I3
sg275
I15
sasS'total_cqs'
p277
I16
ssI24
(dp278
S'iters'
p279
I0
sS'meta'
p280
(lp281
sS'total_cqs'
p282
I1
ssI25
(dp283
S'iters'
p284
I0
sS'meta'
p285
(lp286
sS'total_cqs'
p287
I1
ssI26
(dp288
S'iters'
p289
I1
sS'meta'
p290
(lp291
(dp292
S'objective'
p293
I837
sS'query_time'
p294
F0.5019299983978271
sS'comp_time'
p295
F0.000125885009765625
sS'exec_cq'
p296
I10
sS'total_cq'
p297
I42
sasS'total_cqs'
p298
I42
ssI27
(dp299
S'iters'
p300
I3
sS'meta'
p301
(lp302
(dp303
S'objective'
p304
I407
sS'query_time'
p305
F4.741902828216553
sS'comp_time'
p306
F0.00011301040649414062
sS'exec_cq'
p307
I2
sS'total_cq'
p308
I30
sa(dp309
g304
I364
sg305
F20.311131954193115
sg306
F9.918212890625e-05
sg307
I6
sg308
I29
sa(dp310
g304
I12
sg305
F2.8476338386535645
sg306
F0.0001270771026611328
sg307
I2
sg308
I2
sasS'total_cqs'
p311
I30
ssI28
(dp312
S'iters'
p313
I0
sS'meta'
p314
(lp315
sS'total_cqs'
p316
I1
ssI29
(dp317
S'iters'
p318
I8
sS'meta'
p319
(lp320
(dp321
S'objective'
p322
I973
sS'query_time'
p323
F3.3410990238189697
sS'comp_time'
p324
F9.989738464355469e-05
sS'exec_cq'
p325
I1
sS'total_cq'
p326
I49
sa(dp327
g322
I1003
sg323
F7.0561299324035645
sg324
F9.393692016601562e-05
sg325
I1
sg326
I45
sa(dp328
g322
I343
sg323
F1.225571870803833
sg324
F0.00010895729064941406
sg325
I1
sg326
I44
sa(dp329
g322
I132
sg323
F0.09428000450134277
sg324
F5.507469177246094e-05
sg325
I1
sg326
I15
sa(dp330
g322
I161
sg323
F18.652859926223755
sg324
F7.605552673339844e-05
sg325
I1
sg326
I11
sa(dp331
g322
I44
sg323
F0.17158985137939453
sg324
F6.604194641113281e-05
sg325
I1
sg326
I10
sa(dp332
g322
I67
sg323
F0.023751020431518555
sg324
F6.008148193359375e-05
sg325
I1
sg326
I3
sa(dp333
g322
I3
sg323
F0.01040792465209961
sg324
F4.601478576660156e-05
sg325
I1
sg326
I2
sasS'total_cqs'
p334
I49
ssI30
(dp335
S'iters'
p336
I1
sS'meta'
p337
(lp338
(dp339
S'objective'
p340
I1
sS'query_time'
p341
F2.589043140411377
sS'comp_time'
p342
F8.797645568847656e-05
sS'exec_cq'
p343
I1
sS'total_cq'
p344
I2
sasS'total_cqs'
p345
I2
ssI31
(dp346
S'iters'
p347
I0
sS'meta'
p348
(lp349
sS'total_cqs'
p350
I1
ssI32
(dp351
S'iters'
p352
I1
sS'meta'
p353
(lp354
(dp355
S'objective'
p356
I1
sS'query_time'
p357
F0.179581880569458
sS'comp_time'
p358
F7.891654968261719e-05
sS'exec_cq'
p359
I1
sS'total_cq'
p360
I2
sasS'total_cqs'
p361
I2
ssI33
(dp362
S'iters'
p363
I6
sS'meta'
p364
(lp365
(dp366
S'objective'
p367
I5160
sS'query_time'
p368
F25.008893966674805
sS'comp_time'
p369
F9.703636169433594e-05
sS'exec_cq'
p370
I6
sS'total_cq'
p371
I103
sa(dp372
g367
I4006
sg368
F1.874161958694458
sg369
F0.00019598007202148438
sg370
I6
sg371
I102
sa(dp373
g367
I4444
sg368
F6.635847806930542
sg369
F0.00010895729064941406
sg370
I7
sg371
I94
sa(dp374
g367
I4098
sg368
F0.5403199195861816
sg369
F0.0001308917999267578
sg370
I7
sg371
I93
sa(dp375
g367
I4144
sg368
F1.4741880893707275
sg369
F0.0001270771026611328
sg370
I9
sg371
I90
sa(dp376
g367
I4073
sg368
F0.5046532154083252
sg369
F0.00012302398681640625
sg370
I15
sg371
I89
sasS'total_cqs'
p377
I103
ssI34
(dp378
S'iters'
p379
I1
sS'meta'
p380
(lp381
(dp382
S'objective'
p383
I1
sS'query_time'
p384
F0.4261949062347412
sS'comp_time'
p385
F7.510185241699219e-05
sS'exec_cq'
p386
I1
sS'total_cq'
p387
I2
sasS'total_cqs'
p388
I2
ssI35
(dp389
S'iters'
p390
I9
sS'meta'
p391
(lp392
(dp393
S'objective'
p394
I2213
sS'query_time'
p395
F20.211907863616943
sS'comp_time'
p396
F0.00011897087097167969
sS'exec_cq'
p397
I1
sS'total_cq'
p398
I70
sa(dp399
g394
I2039
sg395
F10.878111124038696
sg396
F0.00013184547424316406
sg397
I2
sg398
I68
sa(dp400
g394
I2060
sg395
F9.240722179412842
sg396
F0.0004911422729492188
sg397
I2
sg398
I64
sa(dp401
g394
I1999
sg395
F2.8153979778289795
sg396
F0.00010895729064941406
sg397
I3
sg398
I63
sa(dp402
g394
I1937
sg395
F19.02729082107544
sg396
F0.00011706352233886719
sg397
I3
sg398
I62
sa(dp403
g394
I1858
sg395
F25.584261894226074
sg396
F0.00011205673217773438
sg397
I5
sg398
I61
sa(dp404
g394
I1785
sg395
F0.9969868659973145
sg396
F0.0001220703125
sg397
I6
sg398
I59
sa(dp405
g394
I1743
sg395
F0.525123119354248
sg396
F0.00012087821960449219
sg397
I6
sg398
I57
sa(dp406
g394
I1692
sg395
F0.634246826171875
sg396
F0.00011897087097167969
sg397
I8
sg398
I56
sasS'total_cqs'
p407
I70
ssI36
(dp408
S'iters'
p409
I3
sS'meta'
p410
(lp411
(dp412
S'objective'
p413
I499
sS'query_time'
p414
F1.226837158203125
sS'comp_time'
p415
F0.00010704994201660156
sS'exec_cq'
p416
I3
sS'total_cq'
p417
I33
sa(dp418
g413
I448
sg414
F0.07172203063964844
sg415
F0.00011801719665527344
sg416
I4
sg417
I32
sa(dp419
g413
I437
sg414
F0.16143202781677246
sg415
F0.00010704994201660156
sg416
I6
sg417
I30
sasS'total_cqs'
p420
I33
ssI37
(dp421
S'iters'
p422
I1
sS'meta'
p423
(lp424
(dp425
S'objective'
p426
I1
sS'query_time'
p427
F0.1856229305267334
sS'comp_time'
p428
F7.82012939453125e-05
sS'exec_cq'
p429
I1
sS'total_cq'
p430
I2
sasS'total_cqs'
p431
I2
ssI38
(dp432
S'iters'
p433
I2
sS'meta'
p434
(lp435
(dp436
S'objective'
p437
I4
sS'query_time'
p438
F0.2828860282897949
sS'comp_time'
p439
F6.4849853515625e-05
sS'exec_cq'
p440
I1
sS'total_cq'
p441
I4
sa(dp442
g437
I1
sg438
F0.012578964233398438
sg439
F4.8160552978515625e-05
sg440
I1
sg441
I3
sasS'total_cqs'
p443
I4
ssI39
(dp444
S'iters'
p445
I4
sS'meta'
p446
(lp447
(dp448
S'objective'
p449
I564
sS'query_time'
p450
F0.27250003814697266
sS'comp_time'
p451
F0.00010395050048828125
sS'exec_cq'
p452
I6
sS'total_cq'
p453
I44
sa(dp454
g449
I135
sg450
F0.02842116355895996
sg451
F5.2928924560546875e-05
sg452
I2
sg453
I8
sa(dp455
g449
I100
sg450
F0.024298906326293945
sg451
F6.008148193359375e-05
sg452
I2
sg453
I7
sa(dp456
g449
I69
sg450
F0.7149980068206787
sg451
F6.4849853515625e-05
sg452
I2
sg453
I6
sasS'total_cqs'
p457
I44
ssI40
(dp458
S'iters'
p459
I1
sS'meta'
p460
(lp461
(dp462
S'objective'
p463
I14
sS'query_time'
p464
F0.3353080749511719
sS'comp_time'
p465
F8.20159912109375e-05
sS'exec_cq'
p466
I1
sS'total_cq'
p467
I7
sasS'total_cqs'
p468
I7
ssI41
(dp469
S'iters'
p470
I1
sS'meta'
p471
(lp472
(dp473
S'objective'
p474
I58
sS'query_time'
p475
F0.1685011386871338
sS'comp_time'
p476
F9.799003601074219e-05
sS'exec_cq'
p477
I3
sS'total_cq'
p478
I12
sasS'total_cqs'
p479
I12
ssI42
(dp480
S'iters'
p481
I1
sS'meta'
p482
(lp483
(dp484
S'objective'
p485
I797
sS'query_time'
p486
F0.13268208503723145
sS'comp_time'
p487
F0.00010395050048828125
sS'exec_cq'
p488
I10
sS'total_cq'
p489
I41
sasS'total_cqs'
p490
I41
ssI43
(dp491
S'iters'
p492
I1
sS'meta'
p493
(lp494
(dp495
S'objective'
p496
I14
sS'query_time'
p497
F0.2967960834503174
sS'comp_time'
p498
F7.200241088867188e-05
sS'exec_cq'
p499
I1
sS'total_cq'
p500
I7
sasS'total_cqs'
p501
I7
ssI44
(dp502
S'iters'
p503
I2
sS'meta'
p504
(lp505
(dp506
S'objective'
p507
I968
sS'query_time'
p508
F0.43834710121154785
sS'comp_time'
p509
F0.0001068115234375
sS'exec_cq'
p510
I5
sS'total_cq'
p511
I47
sa(dp512
g507
I6
sg508
F0.0014209747314453125
sg509
F4.220008850097656e-05
sg510
I1
sg511
I2
sasS'total_cqs'
p513
I47
ssI45
(dp514
S'iters'
p515
I0
sS'meta'
p516
(lp517
sS'total_cqs'
p518
I1
ssI46
(dp519
S'iters'
p520
I1
sS'meta'
p521
(lp522
(dp523
S'objective'
p524
I9
sS'query_time'
p525
F0.022249937057495117
sS'comp_time'
p526
F4.887580871582031e-05
sS'exec_cq'
p527
I1
sS'total_cq'
p528
I6
sasS'total_cqs'
p529
I6
ssI47
(dp530
S'iters'
p531
I1
sS'meta'
p532
(lp533
(dp534
S'objective'
p535
I1
sS'query_time'
p536
F0.0464479923248291
sS'comp_time'
p537
F8.416175842285156e-05
sS'exec_cq'
p538
I1
sS'total_cq'
p539
I2
sasS'total_cqs'
p540
I2
ssI48
(dp541
S'iters'
p542
I0
sS'meta'
p543
(lp544
sS'total_cqs'
p545
I1
ssI49
(dp546
S'iters'
p547
I0
sS'meta'
p548
(lp549
sS'total_cqs'
p550
I1
ssI50
(dp551
S'iters'
p552
I1
sS'meta'
p553
(lp554
(dp555
S'objective'
p556
I5
sS'query_time'
p557
F0.014503955841064453
sS'comp_time'
p558
F5.2928924560546875e-05
sS'exec_cq'
p559
I1
sS'total_cq'
p560
I5
sasS'total_cqs'
p561
I5
ssI51
(dp562
S'iters'
p563
I1
sS'meta'
p564
(lp565
(dp566
S'objective'
p567
I1
sS'query_time'
p568
F0.040611982345581055
sS'comp_time'
p569
F0.0001010894775390625
sS'exec_cq'
p570
I1
sS'total_cq'
p571
I2
sasS'total_cqs'
p572
I2
ssI52
(dp573
S'iters'
p574
I1
sS'meta'
p575
(lp576
(dp577
S'objective'
p578
I1
sS'query_time'
p579
F0.01989912986755371
sS'comp_time'
p580
F6.818771362304688e-05
sS'exec_cq'
p581
I1
sS'total_cq'
p582
I2
sasS'total_cqs'
p583
I2
ssI53
(dp584
S'iters'
p585
I1
sS'meta'
p586
(lp587
(dp588
S'objective'
p589
I2
sS'query_time'
p590
F0.12503886222839355
sS'comp_time'
p591
F7.200241088867188e-05
sS'exec_cq'
p592
I1
sS'total_cq'
p593
I4
sasS'total_cqs'
p594
I4
ssI54
(dp595
S'iters'
p596
I2
sS'meta'
p597
(lp598
(dp599
S'objective'
p600
I0
sS'query_time'
p601
F0.060761213302612305
sS'comp_time'
p602
F4.9114227294921875e-05
sS'exec_cq'
p603
I1
sS'total_cq'
p604
I3
sa(dp605
g600
I1
sg601
F0.06225013732910156
sg602
F9.894371032714844e-05
sg603
I1
sg604
I2
sasS'total_cqs'
p606
I3
ssI55
(dp607
S'iters'
p608
I4
sS'meta'
p609
(lp610
(dp611
S'objective'
p612
I5449
sS'query_time'
p613
F1.9222369194030762
sS'comp_time'
p614
F0.000164031982421875
sS'exec_cq'
p615
I6
sS'total_cq'
p616
I109
sa(dp617
g612
I5492
sg613
F0.5035929679870605
sg614
F0.00010800361633300781
sg615
I11
sg616
I105
sa(dp618
g612
I5387
sg613
F0.3567509651184082
sg614
F0.0001671314239501953
sg615
I20
sg616
I103
sa(dp619
g612
I5331
sg613
F0.28208398818969727
sg614
F0.0001289844512939453
sg615
I23
sg616
I101
sasS'total_cqs'
p620
I109
ssI56
(dp621
S'iters'
p622
I10
sS'meta'
p623
(lp624
(dp625
S'objective'
p626
I2780
sS'query_time'
p627
F1.919001817703247
sS'comp_time'
p628
F0.0001628398895263672
sS'exec_cq'
p629
I4
sS'total_cq'
p630
I76
sa(dp631
g626
I2709
sg627
F0.08252906799316406
sg628
F5.2928924560546875e-05
sg629
I4
sg630
I75
sa(dp632
g626
I2643
sg627
F0.8405489921569824
sg628
F9.298324584960938e-05
sg629
I6
sg630
I74
sa(dp633
g626
I2578
sg627
F1.2732880115509033
sg628
F0.00010800361633300781
sg629
I7
sg630
I73
sa(dp634
g626
I2391
sg627
F0.39954710006713867
sg628
F0.00011205673217773438
sg629
I8
sg630
I72
sa(dp635
g626
I2270
sg627
F0.8126599788665771
sg628
F0.0005979537963867188
sg629
I8
sg630
I70
sa(dp636
g626
I2268
sg627
F0.22106194496154785
sg628
F6.604194641113281e-05
sg629
I8
sg630
I68
sa(dp637
g626
I2209
sg627
F0.5092830657958984
sg628
F7.009506225585938e-05
sg629
I8
sg630
I67
sa(dp638
g626
I1974
sg627
F0.49819183349609375
sg628
F9.512901306152344e-05
sg629
I8
sg630
I66
sa(dp639
g626
I2006
sg627
F0.17332005500793457
sg628
F7.200241088867188e-05
sg629
I8
sg630
I62
sasS'total_cqs'
p640
I76
ssI57
(dp641
S'iters'
p642
I10
sS'meta'
p643
(lp644
(dp645
S'objective'
p646
I1226
sS'query_time'
p647
F0.08029699325561523
sS'comp_time'
p648
F0.000125885009765625
sS'exec_cq'
p649
I2
sS'total_cq'
p650
I51
sa(dp651
g646
I1156
sg647
F3.6926679611206055
sg648
F9.989738464355469e-05
sg649
I2
sg650
I50
sa(dp652
g646
I972
sg647
F0.38415098190307617
sg648
F5.888938903808594e-05
sg649
I3
sg650
I48
sa(dp653
g646
I892
sg647
F0.6488020420074463
sg648
F0.00013899803161621094
sg649
I3
sg650
I44
sa(dp654
g646
I835
sg647
F8.932148933410645
sg648
F0.0004711151123046875
sg649
I3
sg650
I39
sa(dp655
g646
I750
sg647
F2.516726016998291
sg648
F9.298324584960938e-05
sg649
I3
sg650
I36
sa(dp656
g646
I748
sg647
F3.6086931228637695
sg648
F8.392333984375e-05
sg649
I3
sg650
I34
sa(dp657
g646
I614
sg647
F1.9451241493225098
sg648
F0.0001499652862548828
sg649
I3
sg650
I33
sa(dp658
g646
I6
sg647
F0.06139087677001953
sg648
F2.6941299438476562e-05
sg649
I1
sg650
I3
sa(dp659
g646
I33
sg647
F0.06034111976623535
sg648
F5.984306335449219e-05
sg649
I1
sg650
I2
sasS'total_cqs'
p660
I51
ssI58
(dp661
S'iters'
p662
I9
sS'meta'
p663
(lp664
(dp665
S'objective'
p666
I114383
sS'query_time'
p667
F20.6545569896698
sS'comp_time'
p668
F0.0007889270782470703
sS'exec_cq'
p669
I1
sS'total_cq'
p670
I486
sa(dp671
g666
I113910
sg667
F0.7122809886932373
sg668
F0.00036597251892089844
sg669
I1
sg670
I479
sa(dp672
g666
I111906
sg667
F2.8758440017700195
sg668
F0.0002288818359375
sg669
I2
sg670
I476
sa(dp673
g666
I111883
sg667
F0.6137118339538574
sg668
F0.0002269744873046875
sg669
I2
sg670
I470
sa(dp674
g666
I99470
sg667
F3.7698252201080322
sg668
F0.0005199909210205078
sg669
I2
sg670
I468
sa(dp675
g666
I2014
sg667
F0.36229491233825684
sg668
F5.793571472167969e-05
sg669
I1
sg670
I26
sa(dp676
g666
I3391
sg667
F10.276516199111938
sg668
F9.012222290039062e-05
sg669
I1
sg670
I18
sa(dp677
g666
I1777
sg667
F0.17214703559875488
sg668
F9.322166442871094e-05
sg669
I1
sg670
I17
sa(dp678
g666
I306
sg667
F0.01679515838623047
sg668
F3.4809112548828125e-05
sg669
I1
sg670
I4
sasS'total_cqs'
p679
I486
ssI59
(dp680
S'iters'
p681
I2
sS'meta'
p682
(lp683
(dp684
S'objective'
p685
I8
sS'query_time'
p686
F0.6546528339385986
sS'comp_time'
p687
F0.00010013580322265625
sS'exec_cq'
p688
I1
sS'total_cq'
p689
I7
sa(dp690
g685
I4
sg686
F0.07376599311828613
sg687
F7.796287536621094e-05
sg688
I2
sg689
I2
sasS'total_cqs'
p691
I7
ssI60
(dp692
S'iters'
p693
I1
sS'meta'
p694
(lp695
(dp696
S'objective'
p697
I5
sS'query_time'
p698
F0.011759042739868164
sS'comp_time'
p699
F5.5789947509765625e-05
sS'exec_cq'
p700
I1
sS'total_cq'
p701
I5
sasS'total_cqs'
p702
I5
ssI61
(dp703
S'iters'
p704
I0
sS'meta'
p705
(lp706
sS'total_cqs'
p707
I1
ssI62
(dp708
S'iters'
p709
I2
sS'meta'
p710
(lp711
(dp712
S'objective'
p713
I54
sS'query_time'
p714
F0.15201687812805176
sS'comp_time'
p715
F6.794929504394531e-05
sS'exec_cq'
p716
I1
sS'total_cq'
p717
I12
sa(dp718
g713
I46
sg714
F0.05530405044555664
sg715
F7.009506225585938e-05
sg716
I2
sg717
I11
sasS'total_cqs'
p719
I12
ssI63
(dp720
S'iters'
p721
I0
sS'meta'
p722
(lp723
sS'total_cqs'
p724
I1
ssI64
(dp725
S'iters'
p726
I4
sS'meta'
p727
(lp728
(dp729
S'objective'
p730
I14
sS'query_time'
p731
F1.028601884841919
sS'comp_time'
p732
F0.000125885009765625
sS'exec_cq'
p733
I1
sS'total_cq'
p734
I12
sa(dp735
g730
I8
sg731
F0.13911008834838867
sg732
F4.982948303222656e-05
sg733
I1
sg734
I5
sa(dp736
g730
I2
sg731
F0.025580883026123047
sg732
F4.9114227294921875e-05
sg733
I1
sg734
I4
sa(dp737
g730
I9
sg731
F0.009165048599243164
sg732
F3.0994415283203125e-05
sg733
I1
sg734
I2
sasS'total_cqs'
p738
I12
ssI65
(dp739
S'iters'
p740
I3
sS'meta'
p741
(lp742
(dp743
S'objective'
p744
I302
sS'query_time'
p745
F1.183474063873291
sS'comp_time'
p746
F7.605552673339844e-05
sS'exec_cq'
p747
I5
sS'total_cq'
p748
I27
sa(dp749
g744
I262
sg745
F0.032968997955322266
sg746
F6.198883056640625e-05
sg747
I5
sg748
I25
sa(dp750
g744
I5
sg745
F0.004021167755126953
sg746
F5.316734313964844e-05
sg747
I1
sg748
I3
sasS'total_cqs'
p751
I27
ssI66
(dp752
S'iters'
p753
I0
sS'meta'
p754
(lp755
sS'total_cqs'
p756
I1
ssI67
(dp757
S'iters'
p758
I2
sS'meta'
p759
(lp760
(dp761
S'objective'
p762
I560
sS'query_time'
p763
F2.2308640480041504
sS'comp_time'
p764
F0.00010704994201660156
sS'exec_cq'
p765
I1
sS'total_cq'
p766
I35
sa(dp767
g762
I539
sg763
F1.4543449878692627
sg764
F8.392333984375e-05
sg765
I7
sg766
I34
sasS'total_cqs'
p768
I35
ssI68
(dp769
S'iters'
p770
I0
sS'meta'
p771
(lp772
sS'total_cqs'
p773
I1
ssI69
(dp774
S'iters'
p775
I1
sS'meta'
p776
(lp777
(dp778
S'objective'
p779
I1246
sS'query_time'
p780
F1.2962961196899414
sS'comp_time'
p781
F0.0001239776611328125
sS'exec_cq'
p782
I12
sS'total_cq'
p783
I51
sasS'total_cqs'
p784
I51
ssI70
(dp785
S'iters'
p786
I1
sS'meta'
p787
(lp788
(dp789
S'objective'
p790
I9
sS'query_time'
p791
F0.15231990814208984
sS'comp_time'
p792
F7.796287536621094e-05
sS'exec_cq'
p793
I1
sS'total_cq'
p794
I6
sasS'total_cqs'
p795
I6
ssI71
(dp796
S'iters'
p797
I5
sS'meta'
p798
(lp799
(dp800
S'objective'
p801
I3335
sS'query_time'
p802
F0.5035970211029053
sS'comp_time'
p803
F0.0001850128173828125
sS'exec_cq'
p804
I3
sS'total_cq'
p805
I85
sa(dp806
g801
I3333
sg802
F0.12514805793762207
sg803
F9.489059448242188e-05
sg804
I4
sg805
I82
sa(dp807
g801
I3262
sg802
F0.19480490684509277
sg803
F9.703636169433594e-05
sg804
I8
sg805
I81
sa(dp808
g801
I3096
sg802
F0.17726397514343262
sg803
F0.0001049041748046875
sg804
I9
sg805
I80
sa(dp809
g801
I3087
sg802
F0.10318613052368164
sg803
F0.00012993812561035156
sg804
I16
sg805
I78
sasS'total_cqs'
p810
I85
ssI72
(dp811
S'iters'
p812
I2
sS'meta'
p813
(lp814
(dp815
S'objective'
p816
I20
sS'query_time'
p817
F1.0666399002075195
sS'comp_time'
p818
F6.222724914550781e-05
sS'exec_cq'
p819
I1
sS'total_cq'
p820
I8
sa(dp821
g816
I14
sg817
F0.0076999664306640625
sg818
F5.1975250244140625e-05
sg819
I1
sg820
I7
sasS'total_cqs'
p822
I8
ssI73
(dp823
S'iters'
p824
I0
sS'meta'
p825
(lp826
sS'total_cqs'
p827
I1
ssI74
(dp828
S'iters'
p829
I0
sS'meta'
p830
(lp831
sS'total_cqs'
p832
I1
ssI75
(dp833
S'iters'
p834
I1
sS'meta'
p835
(lp836
(dp837
S'objective'
p838
I5
sS'query_time'
p839
F0.021064043045043945
sS'comp_time'
p840
F6.198883056640625e-05
sS'exec_cq'
p841
I1
sS'total_cq'
p842
I5
sasS'total_cqs'
p843
I5
ssI76
(dp844
S'iters'
p845
I1
sS'meta'
p846
(lp847
(dp848
S'objective'
p849
I1
sS'query_time'
p850
F0.17394185066223145
sS'comp_time'
p851
F9.298324584960938e-05
sS'exec_cq'
p852
I1
sS'total_cq'
p853
I2
sasS'total_cqs'
p854
I2
ssI77
(dp855
S'iters'
p856
I0
sS'meta'
p857
(lp858
sS'total_cqs'
p859
I1
ssI78
(dp860
S'iters'
p861
I0
sS'meta'
p862
(lp863
sS'total_cqs'
p864
I1
ssI103
(dp865
S'iters'
p866
I1
sS'meta'
p867
(lp868
(dp869
S'objective'
p870
I58
sS'query_time'
p871
F0.31194114685058594
sS'comp_time'
p872
F9.012222290039062e-05
sS'exec_cq'
p873
I3
sS'total_cq'
p874
I12
sasS'total_cqs'
p875
I12
ssI104
(dp876
S'iters'
p877
I1
sS'meta'
p878
(lp879
(dp880
S'objective'
p881
I2
sS'query_time'
p882
F3.376460075378418
sS'comp_time'
p883
F7.200241088867188e-05
sS'exec_cq'
p884
I1
sS'total_cq'
p885
I4
sasS'total_cqs'
p886
I4
ssI105
(dp887
S'iters'
p888
I0
sS'meta'
p889
(lp890
sS'total_cqs'
p891
I1
ssI106
(dp892
S'iters'
p893
I1
sS'meta'
p894
(lp895
(dp896
S'objective'
p897
I2
sS'query_time'
p898
F0.13683509826660156
sS'comp_time'
p899
F5.1975250244140625e-05
sS'exec_cq'
p900
I1
sS'total_cq'
p901
I4
sasS'total_cqs'
p902
I4
ssI107
(dp903
S'iters'
p904
I2
sS'meta'
p905
(lp906
(dp907
S'objective'
p908
I108
sS'query_time'
p909
F0.2760429382324219
sS'comp_time'
p910
F0.0001049041748046875
sS'exec_cq'
p911
I3
sS'total_cq'
p912
I16
sa(dp913
g908
I96
sg909
F0.048341989517211914
sg910
F9.083747863769531e-05
sg911
I3
sg912
I15
sasS'total_cqs'
p914
I16
ssI108
(dp915
S'iters'
p916
I0
sS'meta'
p917
(lp918
sS'total_cqs'
p919
I1
ss.