(dp0
I1
(dp1
S'iters'
p2
I2
sS'meta'
p3
(lp4
(dp5
S'objective'
p6
I54
sS'query_time'
p7
F0.022258996963500977
sS'comp_time'
p8
F9.417533874511719e-05
sS'exec_cq'
p9
I1
sS'total_cq'
p10
I12
sa(dp11
g6
I46
sg7
F0.016455888748168945
sg8
F8.082389831542969e-05
sg9
I2
sg10
I11
sasS'total_cqs'
p12
I12
ssI2
(dp13
S'iters'
p14
I2
sS'meta'
p15
(lp16
(dp17
S'objective'
p18
I324
sS'query_time'
p19
F0.028297901153564453
sS'comp_time'
p20
F9.822845458984375e-05
sS'exec_cq'
p21
I1
sS'total_cq'
p22
I27
sa(dp23
g18
I307
sg19
F0.025269031524658203
sg20
F0.00013017654418945312
sg21
I5
sg22
I26
sasS'total_cqs'
p24
I27
ssI3
(dp25
S'iters'
p26
I5
sS'meta'
p27
(lp28
(dp29
S'objective'
p30
I714
sS'query_time'
p31
F8.50006103515625
sS'comp_time'
p32
F0.0005249977111816406
sS'exec_cq'
p33
I1
sS'total_cq'
p34
I43
sa(dp35
g30
I218
sg31
F6.315459966659546
sg32
F9.417533874511719e-05
sg33
I1
sg34
I39
sa(dp36
g30
I252
sg31
F8.718014001846313
sg32
F8.702278137207031e-05
sg33
I1
sg34
I25
sa(dp37
g30
I264
sg31
F35.79486894607544
sg32
F0.00038170814514160156
sg33
I2
sg34
I20
sa(dp38
g30
I258
sg31
F1.8337180614471436
sg32
F8.916854858398438e-05
sg33
I3
sg34
I18
sasS'total_cqs'
p39
I43
ssI4
(dp40
S'iters'
p41
I2
sS'meta'
p42
(lp43
(dp44
S'objective'
p45
I44
sS'query_time'
p46
F0.7044591903686523
sS'comp_time'
p47
F8.988380432128906e-05
sS'exec_cq'
p48
I1
sS'total_cq'
p49
I11
sa(dp50
g45
I35
sg46
F3.050809144973755
sg47
F0.0007500648498535156
sg48
I1
sg49
I10
sasS'total_cqs'
p51
I11
ssI5
(dp52
S'iters'
p53
I2
sS'meta'
p54
(lp55
(dp56
S'objective'
p57
I14
sS'query_time'
p58
F6.396131992340088
sS'comp_time'
p59
F0.00019216537475585938
sS'exec_cq'
p60
I1
sS'total_cq'
p61
I8
sa(dp62
g57
I11
sg58
F0.29537200927734375
sg59
F0.0001289844512939453
sg60
I1
sg61
I6
sasS'total_cqs'
p63
I8
ssI6
(dp64
S'iters'
p65
I2
sS'meta'
p66
(lp67
(dp68
S'objective'
p69
I135
sS'query_time'
p70
F0.07698202133178711
sS'comp_time'
p71
F9.298324584960938e-05
sS'exec_cq'
p72
I1
sS'total_cq'
p73
I18
sa(dp74
g69
I123
sg70
F0.6335427761077881
sg71
F9.608268737792969e-05
sg72
I3
sg73
I17
sasS'total_cqs'
p75
I18
ssI7
(dp76
S'iters'
p77
I2
sS'meta'
p78
(lp79
(dp80
S'objective'
p81
I27
sS'query_time'
p82
F0.22635793685913086
sS'comp_time'
p83
F8.487701416015625e-05
sS'exec_cq'
p84
I1
sS'total_cq'
p85
I9
sa(dp86
g81
I20
sg82
F0.2651641368865967
sg83
F9.202957153320312e-05
sg84
I1
sg85
I8
sasS'total_cqs'
p87
I9
ssI8
(dp88
S'iters'
p89
I5
sS'meta'
p90
(lp91
(dp92
S'objective'
p93
I326
sS'query_time'
p94
F0.03659391403198242
sS'comp_time'
p95
F0.00010204315185546875
sS'exec_cq'
p96
I2
sS'total_cq'
p97
I27
sa(dp98
g93
I302
sg94
F0.027858972549438477
sg95
F9.918212890625e-05
sg96
I2
sg97
I26
sa(dp99
g93
I279
sg94
F0.020908832550048828
sg95
F0.00011706352233886719
sg96
I2
sg97
I25
sa(dp100
g93
I219
sg94
F0.018203020095825195
sg95
F9.894371032714844e-05
sg96
I3
sg97
I24
sa(dp101
g93
I2
sg94
F0.01412200927734375
sg95
F8.58306884765625e-05
sg96
I2
sg97
I2
sasS'total_cqs'
p102
I27
ssI9
(dp103
S'iters'
p104
I3
sS'meta'
p105
(lp106
(dp107
S'objective'
p108
I14
sS'query_time'
p109
F0.014914989471435547
sS'comp_time'
p110
F7.605552673339844e-05
sS'exec_cq'
p111
I1
sS'total_cq'
p112
I7
sa(dp113
g108
I1
sg109
F0.027953147888183594
sg110
F7.915496826171875e-05
sg111
I2
sg112
I5
sa(dp114
g108
I3
sg109
F0.002232074737548828
sg110
F5.984306335449219e-05
sg111
I2
sg112
I2
sasS'total_cqs'
p115
I7
ssI10
(dp116
S'iters'
p117
I7
sS'meta'
p118
(lp119
(dp120
S'objective'
p121
I1102
sS'query_time'
p122
F0.12784814834594727
sS'comp_time'
p123
F0.00012612342834472656
sS'exec_cq'
p124
I2
sS'total_cq'
p125
I51
sa(dp126
g121
I632
sg122
F0.04180097579956055
sg123
F0.00011086463928222656
sg124
I2
sg125
I48
sa(dp127
g121
I827
sg122
F0.060830116271972656
sg123
F0.0001227855682373047
sg124
I2
sg125
I36
sa(dp128
g121
I781
sg122
F0.018136024475097656
sg123
F8.487701416015625e-05
sg124
I2
sg125
I35
sa(dp129
g121
I164
sg122
F0.05458498001098633
sg123
F0.00010371208190917969
sg124
I2
sg125
I34
sa(dp130
g121
I282
sg122
F0.012428998947143555
sg123
F8.821487426757812e-05
sg124
I2
sg125
I21
sa(dp131
g121
I27
sg122
F0.00701594352722168
sg123
F7.009506225585938e-05
sg124
I2
sg125
I3
sasS'total_cqs'
p132
I51
ssI11
(dp133
S'iters'
p134
I6
sS'meta'
p135
(lp136
(dp137
S'objective'
p138
I1662
sS'query_time'
p139
F0.12046694755554199
sS'comp_time'
p140
F0.00014209747314453125
sS'exec_cq'
p141
I1
sS'total_cq'
p142
I63
sa(dp143
g138
I1715
sg139
F0.18184614181518555
sg140
F0.00013685226440429688
sg141
I1
sg142
I56
sa(dp144
g138
I1381
sg139
F0.07438898086547852
sg140
F0.00014495849609375
sg141
I2
sg142
I55
sa(dp145
g138
I2
sg139
F0.01079416275024414
sg140
F7.295608520507812e-05
sg141
I1
sg142
I6
sa(dp146
g138
I22
sg139
F0.013746976852416992
sg140
F6.413459777832031e-05
sg141
I2
sg142
I4
sa(dp147
g138
I38
sg139
F0.0026001930236816406
sg140
F5.316734313964844e-05
sg141
I2
sg142
I3
sasS'total_cqs'
p148
I63
ssI12
(dp149
S'iters'
p150
I7
sS'meta'
p151
(lp152
(dp153
S'objective'
p154
I517
sS'query_time'
p155
F0.06469607353210449
sS'comp_time'
p156
F0.0001239776611328125
sS'exec_cq'
p157
I1
sS'total_cq'
p158
I50
sa(dp159
g154
I742
sg155
F0.018509864807128906
sg156
F9.894371032714844e-05
sg157
I3
sg158
I33
sa(dp160
g154
I525
sg155
F0.05194902420043945
sg156
F9.393692016601562e-05
sg157
I5
sg158
I30
sa(dp161
g154
I484
sg155
F0.047556161880493164
sg156
F0.0001201629638671875
sg157
I5
sg158
I26
sa(dp162
g154
I422
sg155
F0.044075965881347656
sg156
F0.00012302398681640625
sg157
I6
sg158
I23
sa(dp163
g154
I12
sg155
F0.0137939453125
sg156
F9.083747863769531e-05
sg157
I2
sg158
I3
sa(dp164
g154
I33
sg155
F0.005825996398925781
sg156
F6.508827209472656e-05
sg157
I2
sg158
I2
sasS'total_cqs'
p165
I50
ssI13
(dp166
S'iters'
p167
I6
sS'meta'
p168
(lp169
(dp170
S'objective'
p171
I116
sS'query_time'
p172
F0.10935091972351074
sS'comp_time'
p173
F9.393692016601562e-05
sS'exec_cq'
p174
I1
sS'total_cq'
p175
I20
sa(dp176
g171
I29
sg172
F0.04763197898864746
sg173
F0.0001068115234375
sg174
I4
sg175
I16
sa(dp177
g171
I35
sg172
F0.04993009567260742
sg173
F0.0001010894775390625
sg174
I2
sg175
I8
sa(dp178
g171
I27
sg172
F0.026813030242919922
sg173
F0.00010323524475097656
sg174
I2
sg175
I6
sa(dp179
g171
I9
sg172
F0.01594996452331543
sg173
F6.604194641113281e-05
sg174
I2
sg175
I5
sa(dp180
g171
I8
sg172
F0.0034880638122558594
sg173
F5.984306335449219e-05
sg174
I2
sg175
I3
sasS'total_cqs'
p181
I20
ssI14
(dp182
S'iters'
p183
I3
sS'meta'
p184
(lp185
(dp186
S'objective'
p187
I21
sS'query_time'
p188
F0.7800741195678711
sS'comp_time'
p189
F7.295608520507812e-05
sS'exec_cq'
p190
I1
sS'total_cq'
p191
I9
sa(dp192
g187
I1
sg188
F0.3256659507751465
sg189
F7.581710815429688e-05
sg190
I1
sg191
I7
sa(dp193
g187
I1
sg188
F0.023029088973999023
sg189
F8.106231689453125e-05
sg190
I1
sg191
I4
sasS'total_cqs'
p194
I9
ssI15
(dp195
S'iters'
p196
I2
sS'meta'
p197
(lp198
(dp199
S'objective'
p200
I44
sS'query_time'
p201
F0.895089864730835
sS'comp_time'
p202
F0.0001010894775390625
sS'exec_cq'
p203
I1
sS'total_cq'
p204
I11
sa(dp205
g200
I35
sg201
F0.04440808296203613
sg202
F8.487701416015625e-05
sg203
I1
sg204
I10
sasS'total_cqs'
p206
I11
ssI16
(dp207
S'iters'
p208
I1
sS'meta'
p209
(lp210
(dp211
S'objective'
p212
I22
sS'query_time'
p213
F0.009429931640625
sS'comp_time'
p214
F7.915496826171875e-05
sS'exec_cq'
p215
I2
sS'total_cq'
p216
I8
sasS'total_cqs'
p217
I8
ssI17
(dp218
S'iters'
p219
I1
sS'meta'
p220
(lp221
(dp222
S'objective'
p223
I46
sS'query_time'
p224
F0.028218984603881836
sS'comp_time'
p225
F8.273124694824219e-05
sS'exec_cq'
p226
I2
sS'total_cq'
p227
I11
sasS'total_cqs'
p228
I11
ssI18
(dp229
S'iters'
p230
I2
sS'meta'
p231
(lp232
(dp233
S'objective'
p234
I44
sS'query_time'
p235
F0.024994850158691406
sS'comp_time'
p236
F9.083747863769531e-05
sS'exec_cq'
p237
I1
sS'total_cq'
p238
I11
sa(dp239
g234
I35
sg235
F0.0120849609375
sg236
F7.390975952148438e-05
sg237
I1
sg238
I10
sasS'total_cqs'
p240
I11
ssI19
(dp241
S'iters'
p242
I0
sS'meta'
p243
(lp244
sS'total_cqs'
p245
I1
ssI20
(dp246
S'iters'
p247
I0
sS'meta'
p248
(lp249
sS'total_cqs'
p250
I1
ssI21
(dp251
S'iters'
p252
I0
sS'meta'
p253
(lp254
sS'total_cqs'
p255
I1
ssI22
(dp256
S'iters'
p257
I1
sS'meta'
p258
(lp259
(dp260
S'objective'
p261
I141
sS'query_time'
p262
F0.03260397911071777
sS'comp_time'
p263
F9.489059448242188e-05
sS'exec_cq'
p264
I4
sS'total_cq'
p265
I18
sasS'total_cqs'
p266
I18
ssI23
(dp267
S'iters'
p268
I1
sS'meta'
p269
(lp270
(dp271
S'objective'
p272
I110
sS'query_time'
p273
F0.014721155166625977
sS'comp_time'
p274
F8.606910705566406e-05
sS'exec_cq'
p275
I4
sS'total_cq'
p276
I16
sasS'total_cqs'
p277
I16
ssI24
(dp278
S'iters'
p279
I0
sS'meta'
p280
(lp281
sS'total_cqs'
p282
I1
ssI25
(dp283
S'iters'
p284
I0
sS'meta'
p285
(lp286
sS'total_cqs'
p287
I1
ssI26
(dp288
S'iters'
p289
I1
sS'meta'
p290
(lp291
(dp292
S'objective'
p293
I837
sS'query_time'
p294
F0.05968904495239258
sS'comp_time'
p295
F0.00014495849609375
sS'exec_cq'
p296
I10
sS'total_cq'
p297
I42
sasS'total_cqs'
p298
I42
ssI27
(dp299
S'iters'
p300
I3
sS'meta'
p301
(lp302
(dp303
S'objective'
p304
I411
sS'query_time'
p305
F3.8211779594421387
sS'comp_time'
p306
F0.0003211498260498047
sS'exec_cq'
p307
I4
sS'total_cq'
p308
I30
sa(dp309
g304
I378
sg305
F2.6152069568634033
sg306
F0.00011992454528808594
sg307
I6
sg308
I29
sa(dp310
g304
I18
sg305
F0.0086669921875
sg306
F5.3882598876953125e-05
sg307
I1
sg308
I2
sasS'total_cqs'
p311
I30
ssI28
(dp312
S'iters'
p313
I0
sS'meta'
p314
(lp315
sS'total_cqs'
p316
I1
ssI29
(dp317
S'iters'
p318
I5
sS'meta'
p319
(lp320
(dp321
S'objective'
p322
I1065
sS'query_time'
p323
F2.1079540252685547
sS'comp_time'
p324
F0.00012111663818359375
sS'exec_cq'
p325
I2
sS'total_cq'
p326
I49
sa(dp327
g322
I969
sg323
F26.667438983917236
sg324
F0.00024509429931640625
sg325
I3
sg326
I47
sa(dp328
g322
I657
sg323
F0.4620969295501709
sg324
F0.00011396408081054688
sg325
I3
sg326
I45
sa(dp329
g322
I36
sg323
F0.09788799285888672
sg324
F0.00015020370483398438
sg325
I1
sg326
I8
sa(dp330
g322
I6
sg323
F0.13784003257751465
sg324
F0.00011682510375976562
sg325
I1
sg326
I4
sasS'total_cqs'
p331
I49
ssI30
(dp332
S'iters'
p333
I1
sS'meta'
p334
(lp335
(dp336
S'objective'
p337
I1
sS'query_time'
p338
F0.7485330104827881
sS'comp_time'
p339
F9.703636169433594e-05
sS'exec_cq'
p340
I1
sS'total_cq'
p341
I2
sasS'total_cqs'
p342
I2
ssI31
(dp343
S'iters'
p344
I0
sS'meta'
p345
(lp346
sS'total_cqs'
p347
I1
ssI32
(dp348
S'iters'
p349
I1
sS'meta'
p350
(lp351
(dp352
S'objective'
p353
I1
sS'query_time'
p354
F0.11729192733764648
sS'comp_time'
p355
F6.198883056640625e-05
sS'exec_cq'
p356
I1
sS'total_cq'
p357
I2
sasS'total_cqs'
p358
I2
ssI33
(dp359
S'iters'
p360
I10
sS'meta'
p361
(lp362
(dp363
S'objective'
p364
I4998
sS'query_time'
p365
F1.679987907409668
sS'comp_time'
p366
F0.00018215179443359375
sS'exec_cq'
p367
I1
sS'total_cq'
p368
I103
sa(dp369
g364
I4899
sg365
F3.7929580211639404
sg366
F0.00019216537475585938
sg367
I1
sg368
I100
sa(dp370
g364
I4842
sg365
F0.638861894607544
sg366
F0.00019288063049316406
sg367
I4
sg368
I98
sa(dp371
g364
I4708
sg365
F0.5516359806060791
sg366
F0.0002002716064453125
sg367
I6
sg368
I97
sa(dp372
g364
I4548
sg365
F0.6178300380706787
sg366
F0.00019478797912597656
sg367
I7
sg368
I95
sa(dp373
g364
I3724
sg365
F0.5916099548339844
sg366
F0.00014901161193847656
sg367
I12
sg368
I93
sa(dp374
g364
I4033
sg365
F3.2931690216064453
sg366
F0.00016808509826660156
sg367
I12
sg368
I84
sa(dp375
g364
I3901
sg365
F0.8697221279144287
sg366
F0.0002460479736328125
sg367
I13
sg368
I83
sa(dp376
g364
I3642
sg365
F0.5521249771118164
sg366
F0.00019288063049316406
sg367
I14
sg368
I80
sa(dp377
g364
I3668
sg365
F0.2613868713378906
sg366
F0.00016498565673828125
sg367
I15
sg368
I77
sasS'total_cqs'
p378
I103
ssI34
(dp379
S'iters'
p380
I1
sS'meta'
p381
(lp382
(dp383
S'objective'
p384
I1
sS'query_time'
p385
F0.013023138046264648
sS'comp_time'
p386
F7.200241088867188e-05
sS'exec_cq'
p387
I1
sS'total_cq'
p388
I2
sasS'total_cqs'
p389
I2
ssI35
(dp390
S'iters'
p391
I7
sS'meta'
p392
(lp393
(dp394
S'objective'
p395
I2215
sS'query_time'
p396
F2.021937131881714
sS'comp_time'
p397
F0.00012493133544921875
sS'exec_cq'
p398
I1
sS'total_cq'
p399
I70
sa(dp400
g395
I2050
sg396
F0.3388218879699707
sg397
F0.00012302398681640625
sg398
I1
sg399
I67
sa(dp401
g395
I2006
sg396
F0.46665287017822266
sg397
F0.0001308917999267578
sg398
I1
sg399
I63
sa(dp402
g395
I1827
sg396
F3.71052622795105
sg397
F0.00013899803161621094
sg398
I2
sg399
I61
sa(dp403
g395
I1219
sg396
F0.49083709716796875
sg397
F0.0001609325408935547
sg398
I2
sg399
I58
sa(dp404
g395
I1292
sg396
F26.485748052597046
sg397
F0.00015306472778320312
sg398
I6
sg399
I49
sa(dp405
g395
I1334
sg396
F0.1880178451538086
sg397
F0.00011229515075683594
sg398
I6
sg399
I46
sasS'total_cqs'
p406
I70
ssI36
(dp407
S'iters'
p408
I2
sS'meta'
p409
(lp410
(dp411
S'objective'
p412
I435
sS'query_time'
p413
F0.0420529842376709
sS'comp_time'
p414
F0.0001087188720703125
sS'exec_cq'
p415
I3
sS'total_cq'
p416
I33
sa(dp417
g412
I446
sg413
F0.05077695846557617
sg414
F0.00010395050048828125
sg415
I7
sg416
I29
sasS'total_cqs'
p418
I33
ssI37
(dp419
S'iters'
p420
I1
sS'meta'
p421
(lp422
(dp423
S'objective'
p424
I1
sS'query_time'
p425
F0.0072019100189208984
sS'comp_time'
p426
F7.891654968261719e-05
sS'exec_cq'
p427
I1
sS'total_cq'
p428
I2
sasS'total_cqs'
p429
I2
ssI38
(dp430
S'iters'
p431
I2
sS'meta'
p432
(lp433
(dp434
S'objective'
p435
I2
sS'query_time'
p436
F0.016211986541748047
sS'comp_time'
p437
F8.177757263183594e-05
sS'exec_cq'
p438
I1
sS'total_cq'
p439
I4
sa(dp440
g435
I2
sg436
F0.002811908721923828
sg437
F4.57763671875e-05
sg438
I1
sg439
I2
sasS'total_cqs'
p441
I4
ssI39
(dp442
S'iters'
p443
I4
sS'meta'
p444
(lp445
(dp446
S'objective'
p447
I512
sS'query_time'
p448
F0.04641413688659668
sS'comp_time'
p449
F0.0001201629638671875
sS'exec_cq'
p450
I1
sS'total_cq'
p451
I44
sa(dp452
g447
I151
sg448
F0.017766952514648438
sg449
F8.20159912109375e-05
sg450
I2
sg451
I8
sa(dp453
g447
I109
sg448
F0.019182920455932617
sg449
F8.082389831542969e-05
sg450
I2
sg451
I7
sa(dp454
g447
I84
sg448
F0.050462961196899414
sg449
F8.630752563476562e-05
sg450
I2
sg451
I6
sasS'total_cqs'
p455
I44
ssI40
(dp456
S'iters'
p457
I1
sS'meta'
p458
(lp459
(dp460
S'objective'
p461
I14
sS'query_time'
p462
F0.013517141342163086
sS'comp_time'
p463
F6.914138793945312e-05
sS'exec_cq'
p464
I1
sS'total_cq'
p465
I7
sasS'total_cqs'
p466
I7
ssI41
(dp467
S'iters'
p468
I1
sS'meta'
p469
(lp470
(dp471
S'objective'
p472
I58
sS'query_time'
p473
F0.03944516181945801
sS'comp_time'
p474
F8.511543273925781e-05
sS'exec_cq'
p475
I3
sS'total_cq'
p476
I12
sasS'total_cqs'
p477
I12
ssI42
(dp478
S'iters'
p479
I2
sS'meta'
p480
(lp481
(dp482
S'objective'
p483
I789
sS'query_time'
p484
F0.031092166900634766
sS'comp_time'
p485
F0.00012302398681640625
sS'exec_cq'
p486
I6
sS'total_cq'
p487
I41
sa(dp488
g483
I761
sg484
F0.024068832397460938
sg485
F0.00010895729064941406
sg486
I9
sg487
I40
sasS'total_cqs'
p489
I41
ssI43
(dp490
S'iters'
p491
I1
sS'meta'
p492
(lp493
(dp494
S'objective'
p495
I14
sS'query_time'
p496
F0.013195991516113281
sS'comp_time'
p497
F7.605552673339844e-05
sS'exec_cq'
p498
I1
sS'total_cq'
p499
I7
sasS'total_cqs'
p500
I7
ssI44
(dp501
S'iters'
p502
I3
sS'meta'
p503
(lp504
(dp505
S'objective'
p506
I856
sS'query_time'
p507
F0.04981803894042969
sS'comp_time'
p508
F0.0001380443572998047
sS'exec_cq'
p509
I8
sS'total_cq'
p510
I47
sa(dp511
g506
I862
sg507
F0.03189587593078613
sg508
F0.00011396408081054688
sg509
I10
sg510
I40
sa(dp512
g506
I9
sg507
F0.02882099151611328
sg508
F7.796287536621094e-05
sg509
I2
sg510
I2
sasS'total_cqs'
p513
I47
ssI45
(dp514
S'iters'
p515
I0
sS'meta'
p516
(lp517
sS'total_cqs'
p518
I1
ssI46
(dp519
S'iters'
p520
I1
sS'meta'
p521
(lp522
(dp523
S'objective'
p524
I9
sS'query_time'
p525
F0.006646156311035156
sS'comp_time'
p526
F8.177757263183594e-05
sS'exec_cq'
p527
I1
sS'total_cq'
p528
I6
sasS'total_cqs'
p529
I6
ssI47
(dp530
S'iters'
p531
I1
sS'meta'
p532
(lp533
(dp534
S'objective'
p535
I1
sS'query_time'
p536
F0.006206989288330078
sS'comp_time'
p537
F8.797645568847656e-05
sS'exec_cq'
p538
I1
sS'total_cq'
p539
I2
sasS'total_cqs'
p540
I2
ssI48
(dp541
S'iters'
p542
I0
sS'meta'
p543
(lp544
sS'total_cqs'
p545
I1
ssI49
(dp546
S'iters'
p547
I0
sS'meta'
p548
(lp549
sS'total_cqs'
p550
I1
ssI50
(dp551
S'iters'
p552
I1
sS'meta'
p553
(lp554
(dp555
S'objective'
p556
I5
sS'query_time'
p557
F0.006017923355102539
sS'comp_time'
p558
F6.29425048828125e-05
sS'exec_cq'
p559
I1
sS'total_cq'
p560
I5
sasS'total_cqs'
p561
I5
ssI51
(dp562
S'iters'
p563
I1
sS'meta'
p564
(lp565
(dp566
S'objective'
p567
I1
sS'query_time'
p568
F0.05728602409362793
sS'comp_time'
p569
F7.009506225585938e-05
sS'exec_cq'
p570
I1
sS'total_cq'
p571
I2
sasS'total_cqs'
p572
I2
ssI52
(dp573
S'iters'
p574
I1
sS'meta'
p575
(lp576
(dp577
S'objective'
p578
I1
sS'query_time'
p579
F0.08303499221801758
sS'comp_time'
p580
F8.511543273925781e-05
sS'exec_cq'
p581
I1
sS'total_cq'
p582
I2
sasS'total_cqs'
p583
I2
ssI53
(dp584
S'iters'
p585
I1
sS'meta'
p586
(lp587
(dp588
S'objective'
p589
I2
sS'query_time'
p590
F0.011077880859375
sS'comp_time'
p591
F7.987022399902344e-05
sS'exec_cq'
p592
I1
sS'total_cq'
p593
I4
sasS'total_cqs'
p594
I4
ssI54
(dp595
S'iters'
p596
I2
sS'meta'
p597
(lp598
(dp599
S'objective'
p600
I0
sS'query_time'
p601
F0.004281044006347656
sS'comp_time'
p602
F5.6743621826171875e-05
sS'exec_cq'
p603
I1
sS'total_cq'
p604
I3
sa(dp605
g600
I1
sg601
F0.005442142486572266
sg602
F7.796287536621094e-05
sg603
I1
sg604
I2
sasS'total_cqs'
p606
I3
ssI55
(dp607
S'iters'
p608
I8
sS'meta'
p609
(lp610
(dp611
S'objective'
p612
I5451
sS'query_time'
p613
F0.5652470588684082
sS'comp_time'
p614
F0.00019288063049316406
sS'exec_cq'
p615
I1
sS'total_cq'
p616
I109
sa(dp617
g612
I5043
sg613
F0.2385420799255371
sg614
F0.0002789497375488281
sg615
I1
sg616
I104
sa(dp618
g612
I5171
sg613
F0.2769429683685303
sg614
F0.00018095970153808594
sg615
I2
sg616
I100
sa(dp619
g612
I5071
sg613
F0.2201228141784668
sg614
F0.00018310546875
sg615
I4
sg616
I99
sa(dp620
g612
I4866
sg613
F0.16604399681091309
sg614
F0.0001811981201171875
sg615
I9
sg616
I98
sa(dp621
g612
I4668
sg613
F0.12754583358764648
sg614
F0.00018286705017089844
sg615
I14
sg616
I96
sa(dp622
g612
I4404
sg613
F0.12577509880065918
sg614
F0.00015091896057128906
sg615
I18
sg616
I94
sa(dp623
g612
I54
sg613
F0.004540920257568359
sg614
F5.078315734863281e-05
sg615
I1
sg616
I3
sasS'total_cqs'
p624
I109
ssI56
(dp625
S'iters'
p626
I6
sS'meta'
p627
(lp628
(dp629
S'objective'
p630
I2778
sS'query_time'
p631
F0.3670060634613037
sS'comp_time'
p632
F0.0001659393310546875
sS'exec_cq'
p633
I6
sS'total_cq'
p634
I76
sa(dp635
g630
I2712
sg631
F0.24433207511901855
sg632
F0.00016570091247558594
sg633
I6
sg634
I74
sa(dp636
g630
I2644
sg631
F0.07310605049133301
sg632
F0.00015497207641601562
sg633
I6
sg634
I73
sa(dp637
g630
I2585
sg631
F0.21824097633361816
sg632
F0.00015115737915039062
sg633
I10
sg634
I72
sa(dp638
g630
I2309
sg631
F0.3124208450317383
sg632
F0.00015282630920410156
sg633
I14
sg634
I71
sa(dp639
g630
I54
sg631
F0.03078007698059082
sg632
F7.295608520507812e-05
sg633
I1
sg634
I3
sasS'total_cqs'
p640
I76
ssI57
(dp641
S'iters'
p642
I6
sS'meta'
p643
(lp644
(dp645
S'objective'
p646
I1178
sS'query_time'
p647
F1.198033094406128
sS'comp_time'
p648
F0.00012612342834472656
sS'exec_cq'
p649
I1
sS'total_cq'
p650
I51
sa(dp651
g646
I1008
sg647
F2.134338140487671
sg648
F0.0001308917999267578
sg649
I1
sg650
I49
sa(dp652
g646
I844
sg647
F0.5015628337860107
sg648
F0.00013709068298339844
sg649
I1
sg650
I46
sa(dp653
g646
I43
sg647
F0.12033700942993164
sg648
F7.700920104980469e-05
sg649
I1
sg650
I5
sa(dp654
g646
I5
sg647
F0.047419071197509766
sg648
F6.318092346191406e-05
sg649
I2
sg650
I3
sa(dp655
g646
I36
sg647
F0.01853203773498535
sg648
F5.4836273193359375e-05
sg649
I1
sg650
I2
sasS'total_cqs'
p656
I51
ssI58
(dp657
S'iters'
p658
I38
sS'meta'
p659
(lp660
(dp661
S'objective'
p662
I112559
sS'query_time'
p663
F1.753843069076538
sS'comp_time'
p664
F0.0005578994750976562
sS'exec_cq'
p665
I2
sS'total_cq'
p666
I486
sa(dp667
g662
I110248
sg663
F2.156933069229126
sg664
F0.0005538463592529297
sg665
I2
sg666
I474
sa(dp668
g662
I111173
sg663
F2.8193159103393555
sg664
F0.0009918212890625
sg665
I3
sg666
I466
sa(dp669
g662
I111049
sg663
F3.6142401695251465
sg664
F0.0008041858673095703
sg665
I3
sg666
I464
sa(dp670
g662
I92654
sg663
F1.911458969116211
sg664
F0.0005688667297363281
sg665
I3
sg666
I463
sa(dp671
g662
I99274
sg663
F11.59974193572998
sg664
F0.00045490264892578125
sg665
I4
sg666
I427
sa(dp672
g662
I98923
sg663
F18.160608053207397
sg664
F0.0009241104125976562
sg665
I6
sg666
I421
sa(dp673
g662
I98289
sg663
F6.400166988372803
sg664
F0.0010657310485839844
sg665
I8
sg666
I419
sa(dp674
g662
I98108
sg663
F0.4938337802886963
sg664
F0.0004639625549316406
sg665
I8
sg666
I417
sa(dp675
g662
I96239
sg663
F2.6788039207458496
sg664
F0.0004930496215820312
sg665
I9
sg666
I416
sa(dp676
g662
I94594
sg663
F3.8202311992645264
sg664
F0.00046896934509277344
sg665
I9
sg666
I412
sa(dp677
g662
I93285
sg663
F0.47880101203918457
sg664
F0.0005538463592529297
sg665
I10
sg666
I408
sa(dp678
g662
I90851
sg663
F5.581308841705322
sg664
F0.0005898475646972656
sg665
I10
sg666
I404
sa(dp679
g662
I91827
sg663
F2.856482982635498
sg664
F0.0003800392150878906
sg665
I12
sg666
I398
sa(dp680
g662
I85397
sg663
F9.236939191818237
sg664
F0.0012569427490234375
sg665
I17
sg666
I397
sa(dp681
g662
I86180
sg663
F1.2627699375152588
sg664
F0.0004401206970214844
sg665
I17
sg666
I385
sa(dp682
g662
I86607
sg663
F1.499783992767334
sg664
F0.0003590583801269531
sg665
I17
sg666
I377
sa(dp683
g662
I83209
sg663
F2.4985179901123047
sg664
F0.0009028911590576172
sg665
I17
sg666
I376
sa(dp684
g662
I83488
sg663
F16.243957042694092
sg664
F0.0004379749298095703
sg665
I17
sg666
I364
sa(dp685
g662
I82865
sg663
F4.14350700378418
sg664
F0.0004532337188720703
sg665
I20
sg666
I361
sa(dp686
g662
I82406
sg663
F0.42681002616882324
sg664
F0.000431060791015625
sg665
I24
sg666
I357
sa(dp687
g662
I82151
sg663
F1.5001699924468994
sg664
F0.00045418739318847656
sg665
I31
sg666
I355
sa(dp688
g662
I80264
sg663
F3.891420841217041
sg664
F0.0004150867462158203
sg665
I31
sg666
I354
sa(dp689
g662
I80585
sg663
F4.685232162475586
sg664
F0.00044989585876464844
sg665
I33
sg666
I349
sa(dp690
g662
I77106
sg663
F1.3297398090362549
sg664
F0.0004551410675048828
sg665
I37
sg666
I348
sa(dp691
g662
I78234
sg663
F1.119499921798706
sg664
F0.0003879070281982422
sg665
I37
sg666
I341
sa(dp692
g662
I76286
sg663
F1.1781821250915527
sg664
F0.0004630088806152344
sg665
I39
sg666
I340
sa(dp693
g662
I75697
sg663
F2.1526129245758057
sg664
F0.0004851818084716797
sg665
I43
sg666
I335
sa(dp694
g662
I75793
sg663
F4.353168964385986
sg664
F0.00044798851013183594
sg665
I47
sg666
I332
sa(dp695
g662
I75369
sg663
F1.9175398349761963
sg664
F0.0004360675811767578
sg665
I47
sg666
I331
sa(dp696
g662
I73396
sg663
F9.523766994476318
sg664
F0.0007109642028808594
sg665
I49
sg666
I329
sa(dp697
g662
I73175
sg663
F3.1944639682769775
sg664
F0.0005919933319091797
sg665
I51
sg666
I324
sa(dp698
g662
I71859
sg663
F0.9896340370178223
sg664
F0.0005180835723876953
sg665
I51
sg666
I322
sa(dp699
g662
I72110
sg663
F3.5775370597839355
sg664
F0.0003879070281982422
sg665
I53
sg666
I319
sa(dp700
g662
I71316
sg663
F0.8886921405792236
sg664
F0.0003528594970703125
sg665
I53
sg666
I318
sa(dp701
g662
I70907
sg663
F1.0121710300445557
sg664
F0.0007159709930419922
sg665
I58
sg666
I316
sa(dp702
g662
I70049
sg663
F0.3366270065307617
sg664
F0.0003769397735595703
sg665
I59
sg666
I314
sa(dp703
g662
I69995
sg663
F0.8333339691162109
sg664
F0.0004119873046875
sg665
I59
sg666
I312
sasS'total_cqs'
p704
I486
ssI59
(dp705
S'iters'
p706
I2
sS'meta'
p707
(lp708
(dp709
S'objective'
p710
I10
sS'query_time'
p711
F0.01985311508178711
sS'comp_time'
p712
F7.915496826171875e-05
sS'exec_cq'
p713
I1
sS'total_cq'
p714
I7
sa(dp715
g710
I5
sg711
F0.036100149154663086
sg712
F7.581710815429688e-05
sg713
I2
sg714
I2
sasS'total_cqs'
p716
I7
ssI60
(dp717
S'iters'
p718
I1
sS'meta'
p719
(lp720
(dp721
S'objective'
p722
I5
sS'query_time'
p723
F0.0060901641845703125
sS'comp_time'
p724
F7.081031799316406e-05
sS'exec_cq'
p725
I1
sS'total_cq'
p726
I5
sasS'total_cqs'
p727
I5
ssI61
(dp728
S'iters'
p729
I0
sS'meta'
p730
(lp731
sS'total_cqs'
p732
I1
ssI62
(dp733
S'iters'
p734
I2
sS'meta'
p735
(lp736
(dp737
S'objective'
p738
I54
sS'query_time'
p739
F0.014085054397583008
sS'comp_time'
p740
F8.106231689453125e-05
sS'exec_cq'
p741
I1
sS'total_cq'
p742
I12
sa(dp743
g738
I46
sg739
F0.011996030807495117
sg740
F8.58306884765625e-05
sg741
I2
sg742
I11
sasS'total_cqs'
p744
I12
ssI63
(dp745
S'iters'
p746
I0
sS'meta'
p747
(lp748
sS'total_cqs'
p749
I1
ssI64
(dp750
S'iters'
p751
I4
sS'meta'
p752
(lp753
(dp754
S'objective'
p755
I54
sS'query_time'
p756
F0.033521175384521484
sS'comp_time'
p757
F8.20159912109375e-05
sS'exec_cq'
p758
I1
sS'total_cq'
p759
I12
sa(dp760
g755
I34
sg756
F0.02540278434753418
sg757
F8.177757263183594e-05
sg758
I2
sg759
I11
sa(dp761
g755
I14
sg756
F0.009848833084106445
sg757
F7.414817810058594e-05
sg758
I1
sg759
I3
sa(dp762
g755
I5
sg756
F0.00722813606262207
sg757
F6.29425048828125e-05
sg758
I2
sg759
I2
sasS'total_cqs'
p763
I12
ssI65
(dp764
S'iters'
p765
I3
sS'meta'
p766
(lp767
(dp768
S'objective'
p769
I276
sS'query_time'
p770
F0.08613014221191406
sS'comp_time'
p771
F0.00010800361633300781
sS'exec_cq'
p772
I2
sS'total_cq'
p773
I27
sa(dp774
g769
I183
sg770
F0.035305023193359375
sg771
F0.00010085105895996094
sg772
I4
sg773
I25
sa(dp775
g769
I28
sg770
F0.005377054214477539
sg771
F6.604194641113281e-05
sg772
I1
sg773
I6
sasS'total_cqs'
p776
I27
ssI66
(dp777
S'iters'
p778
I0
sS'meta'
p779
(lp780
sS'total_cqs'
p781
I1
ssI67
(dp782
S'iters'
p783
I1
sS'meta'
p784
(lp785
(dp786
S'objective'
p787
I574
sS'query_time'
p788
F0.7221570014953613
sS'comp_time'
p789
F8.606910705566406e-05
sS'exec_cq'
p790
I8
sS'total_cq'
p791
I35
sasS'total_cqs'
p792
I35
ssI68
(dp793
S'iters'
p794
I0
sS'meta'
p795
(lp796
sS'total_cqs'
p797
I1
ssI69
(dp798
S'iters'
p799
I1
sS'meta'
p800
(lp801
(dp802
S'objective'
p803
I1246
sS'query_time'
p804
F0.09976696968078613
sS'comp_time'
p805
F0.00011610984802246094
sS'exec_cq'
p806
I12
sS'total_cq'
p807
I51
sasS'total_cqs'
p808
I51
ssI70
(dp809
S'iters'
p810
I1
sS'meta'
p811
(lp812
(dp813
S'objective'
p814
I9
sS'query_time'
p815
F0.00927114486694336
sS'comp_time'
p816
F6.604194641113281e-05
sS'exec_cq'
p817
I1
sS'total_cq'
p818
I6
sasS'total_cqs'
p819
I6
ssI71
(dp820
S'iters'
p821
I5
sS'meta'
p822
(lp823
(dp824
S'objective'
p825
I3487
sS'query_time'
p826
F0.08224201202392578
sS'comp_time'
p827
F0.00016188621520996094
sS'exec_cq'
p828
I2
sS'total_cq'
p829
I85
sa(dp830
g825
I3219
sg826
F0.08894586563110352
sg827
F0.0001590251922607422
sg828
I3
sg829
I84
sa(dp831
g825
I3113
sg826
F0.09139895439147949
sg827
F0.0001289844512939453
sg828
I3
sg829
I80
sa(dp832
g825
I2784
sg826
F0.0773000717163086
sg827
F0.00013399124145507812
sg828
I3
sg829
I77
sa(dp833
g825
I2889
sg826
F0.07483196258544922
sg827
F0.00015282630920410156
sg828
I16
sg829
I73
sasS'total_cqs'
p834
I85
ssI72
(dp835
S'iters'
p836
I2
sS'meta'
p837
(lp838
(dp839
S'objective'
p840
I14
sS'query_time'
p841
F0.05668497085571289
sS'comp_time'
p842
F9.822845458984375e-05
sS'exec_cq'
p843
I1
sS'total_cq'
p844
I8
sa(dp845
g840
I11
sg841
F0.008047103881835938
sg842
F6.413459777832031e-05
sg843
I1
sg844
I6
sasS'total_cqs'
p846
I8
ssI73
(dp847
S'iters'
p848
I0
sS'meta'
p849
(lp850
sS'total_cqs'
p851
I1
ssI74
(dp852
S'iters'
p853
I0
sS'meta'
p854
(lp855
sS'total_cqs'
p856
I1
ssI75
(dp857
S'iters'
p858
I1
sS'meta'
p859
(lp860
(dp861
S'objective'
p862
I5
sS'query_time'
p863
F0.0054302215576171875
sS'comp_time'
p864
F7.176399230957031e-05
sS'exec_cq'
p865
I1
sS'total_cq'
p866
I5
sasS'total_cqs'
p867
I5
ssI76
(dp868
S'iters'
p869
I1
sS'meta'
p870
(lp871
(dp872
S'objective'
p873
I1
sS'query_time'
p874
F0.00972294807434082
sS'comp_time'
p875
F6.580352783203125e-05
sS'exec_cq'
p876
I1
sS'total_cq'
p877
I2
sasS'total_cqs'
p878
I2
ssI77
(dp879
S'iters'
p880
I0
sS'meta'
p881
(lp882
sS'total_cqs'
p883
I1
ssI78
(dp884
S'iters'
p885
I0
sS'meta'
p886
(lp887
sS'total_cqs'
p888
I1
ssI103
(dp889
S'iters'
p890
I1
sS'meta'
p891
(lp892
(dp893
S'objective'
p894
I58
sS'query_time'
p895
F0.04211592674255371
sS'comp_time'
p896
F0.0001049041748046875
sS'exec_cq'
p897
I3
sS'total_cq'
p898
I12
sasS'total_cqs'
p899
I12
ssI104
(dp900
S'iters'
p901
I1
sS'meta'
p902
(lp903
(dp904
S'objective'
p905
I2
sS'query_time'
p906
F1.37778902053833
sS'comp_time'
p907
F9.202957153320312e-05
sS'exec_cq'
p908
I1
sS'total_cq'
p909
I4
sasS'total_cqs'
p910
I4
ssI105
(dp911
S'iters'
p912
I0
sS'meta'
p913
(lp914
sS'total_cqs'
p915
I1
ssI106
(dp916
S'iters'
p917
I1
sS'meta'
p918
(lp919
(dp920
S'objective'
p921
I2
sS'query_time'
p922
F0.016982078552246094
sS'comp_time'
p923
F8.20159912109375e-05
sS'exec_cq'
p924
I1
sS'total_cq'
p925
I4
sasS'total_cqs'
p926
I4
ssI107
(dp927
S'iters'
p928
I3
sS'meta'
p929
(lp930
(dp931
S'objective'
p932
I64
sS'query_time'
p933
F0.022900104522705078
sS'comp_time'
p934
F7.128715515136719e-05
sS'exec_cq'
p935
I1
sS'total_cq'
p936
I16
sa(dp937
g932
I4
sg933
F0.03336811065673828
sg934
F6.794929504394531e-05
sg935
I2
sg936
I3
sa(dp938
g932
I6
sg933
F0.0010600090026855469
sg934
F4.315376281738281e-05
sg935
I1
sg936
I2
sasS'total_cqs'
p939
I16
ssI108
(dp940
S'iters'
p941
I0
sS'meta'
p942
(lp943
sS'total_cqs'
p944
I1
ss.