(dp0
I1
(dp1
S'iters'
p2
I2
sS'meta'
p3
(lp4
(dp5
S'objective'
p6
I54
sS'query_time'
p7
F0.015259027481079102
sS'comp_time'
p8
F0.00040411949157714844
sS'exec_cq'
p9
I12
sS'total_cq'
p10
I12
sa(dp11
g6
I42
sg7
F7.605552673339844e-05
sg8
F0.00014519691467285156
sg9
I10
sg10
I10
sasS'total_cqs'
p12
I12
ssI2
(dp13
S'iters'
p14
I6
sS'meta'
p15
(lp16
(dp17
S'objective'
p18
I298
sS'query_time'
p19
F0.034822940826416016
sS'comp_time'
p20
F0.0008962154388427734
sS'exec_cq'
p21
I14
sS'total_cq'
p22
I27
sa(dp23
g18
I282
sg19
F8.20159912109375e-05
sg20
F0.00027108192443847656
sg21
I11
sg22
I24
sa(dp24
g18
I214
sg19
F0.02620697021484375
sg20
F0.0006079673767089844
sg21
I13
sg22
I22
sa(dp25
g18
I222
sg19
F6.699562072753906e-05
sg20
F0.0002868175506591797
sg21
I9
sg22
I19
sa(dp26
g18
I212
sg19
F3.790855407714844e-05
sg20
F0.0002410411834716797
sg21
I7
sg22
I17
sa(dp27
g18
I173
sg19
F5.698204040527344e-05
sg20
F0.0002429485321044922
sg21
I10
sg22
I16
sasS'total_cqs'
p28
I27
ssI3
(dp29
S'iters'
p30
I4
sS'meta'
p31
(lp32
(dp33
S'objective'
p34
I508
sS'query_time'
p35
F231.97045493125916
sS'comp_time'
p36
F3.2139039039611816
sS'exec_cq'
p37
I14
sS'total_cq'
p38
I43
sa(dp39
g34
I519
sg35
F202.51138496398926
sg36
F0.02560138702392578
sg37
I16
sg38
I36
sa(dp40
g34
I299
sg35
F121.55451893806458
sg36
F1.3349120616912842
sg37
I9
sg38
I28
sa(dp41
g34
I375
sg35
F10.795742988586426
sg36
F0.00013875961303710938
sg37
I20
sg38
I20
sasS'total_cqs'
p42
I43
ssI4
(dp43
S'iters'
p44
I2
sS'meta'
p45
(lp46
(dp47
S'objective'
p48
I34
sS'query_time'
p49
F4.648128986358643
sS'comp_time'
p50
F1.556664228439331
sS'exec_cq'
p51
I11
sS'total_cq'
p52
I11
sa(dp53
g48
I6
sg49
F0.21334314346313477
sg50
F1.2853219509124756
sg51
I2
sg52
I2
sasS'total_cqs'
p54
I11
ssI5
(dp55
S'iters'
p56
I3
sS'meta'
p57
(lp58
(dp59
S'objective'
p60
I0
sS'query_time'
p61
F34.57832217216492
sS'comp_time'
p62
F6.093045949935913
sS'exec_cq'
p63
I8
sS'total_cq'
p64
I8
sa(dp65
g60
I0
sg61
F0.01116800308227539
sg62
F0.42348408699035645
sg63
I4
sg64
I4
sa(dp66
g60
I7
sg61
F0.00821995735168457
sg62
F0.25649309158325195
sg63
I2
sg64
I2
sasS'total_cqs'
p67
I8
ssI6
(dp68
S'iters'
p69
I3
sS'meta'
p70
(lp71
(dp72
S'objective'
p73
I41
sS'query_time'
p74
F36.70765686035156
sS'comp_time'
p75
F4.628814935684204
sS'exec_cq'
p76
I18
sS'total_cq'
p77
I18
sa(dp78
g73
I1
sg74
F0.8201889991760254
sg75
F4.6132659912109375
sg76
I7
sg77
I7
sa(dp79
g73
I3
sg74
F0.018419981002807617
sg75
F0.3967320919036865
sg76
I3
sg77
I3
sasS'total_cqs'
p80
I18
ssI7
(dp81
S'iters'
p82
I3
sS'meta'
p83
(lp84
(dp85
S'objective'
p86
I1
sS'query_time'
p87
F12.853166818618774
sS'comp_time'
p88
F2.9108612537384033
sS'exec_cq'
p89
I9
sS'total_cq'
p90
I9
sa(dp91
g86
I2
sg87
F0.09780097007751465
sg88
F1.1817529201507568
sg89
I4
sg90
I4
sa(dp92
g86
I6
sg87
F0.024331092834472656
sg88
F0.48897528648376465
sg89
I2
sg90
I2
sasS'total_cqs'
p93
I9
ssI8
(dp94
S'iters'
p95
I2
sS'meta'
p96
(lp97
(dp98
S'objective'
p99
I292
sS'query_time'
p100
F0.04727911949157715
sS'comp_time'
p101
F0.0008718967437744141
sS'exec_cq'
p102
I13
sS'total_cq'
p103
I27
sa(dp104
g99
I11
sg100
F6.198883056640625e-05
sg101
F0.0003330707550048828
sg102
I2
sg103
I2
sasS'total_cqs'
p105
I27
ssI9
(dp106
S'iters'
p107
I2
sS'meta'
p108
(lp109
(dp110
S'objective'
p111
I2
sS'query_time'
p112
F0.03757500648498535
sS'comp_time'
p113
F0.0005249977111816406
sS'exec_cq'
p114
I7
sS'total_cq'
p115
I7
sa(dp116
g111
I1
sg112
F2.288818359375e-05
sg113
F8.20159912109375e-05
sg114
I2
sg115
I2
sasS'total_cqs'
p117
I7
ssI10
(dp118
S'iters'
p119
I5
sS'meta'
p120
(lp121
(dp122
S'objective'
p123
I610
sS'query_time'
p124
F0.14108490943908691
sS'comp_time'
p125
F0.0034799575805664062
sS'exec_cq'
p126
I28
sS'total_cq'
p127
I51
sa(dp128
g123
I300
sg124
F0.11156797409057617
sg125
F0.0014150142669677734
sg126
I23
sg127
I37
sa(dp129
g123
I466
sg124
F0.0002300739288330078
sg125
F0.001178741455078125
sg126
I14
sg127
I25
sa(dp130
g123
I382
sg124
F8.797645568847656e-05
sg125
F0.00024890899658203125
sg126
I11
sg127
I21
sa(dp131
g123
I18
sg124
F2.7179718017578125e-05
sg125
F0.0001671314239501953
sg126
I3
sg127
I3
sasS'total_cqs'
p132
I51
ssI11
(dp133
S'iters'
p134
I5
sS'meta'
p135
(lp136
(dp137
S'objective'
p138
I1082
sS'query_time'
p139
F0.5309569835662842
sS'comp_time'
p140
F0.024707794189453125
sS'exec_cq'
p141
I63
sS'total_cq'
p142
I63
sa(dp143
g138
I905
sg139
F0.0013802051544189453
sg140
F0.00855565071105957
sg141
I47
sg142
I47
sa(dp144
g138
I4
sg139
F0.00026416778564453125
sg140
F0.0019199848175048828
sg141
I9
sg142
I9
sa(dp145
g138
I3
sg139
F3.3855438232421875e-05
sg140
F0.0001480579376220703
sg141
I4
sg142
I4
sa(dp146
g138
I45
sg139
F1.6927719116210938e-05
sg140
F9.799003601074219e-05
sg141
I2
sg142
I2
sasS'total_cqs'
p147
I63
ssI12
(dp148
S'iters'
p149
I5
sS'meta'
p150
(lp151
(dp152
S'objective'
p153
I439
sS'query_time'
p154
F0.13932108879089355
sS'comp_time'
p155
F0.0017614364624023438
sS'exec_cq'
p156
I28
sS'total_cq'
p157
I50
sa(dp158
g153
I483
sg154
F0.11216187477111816
sg155
F0.003175020217895508
sg156
I22
sg157
I33
sa(dp159
g153
I29
sg154
F0.00024390220642089844
sg155
F0.0019180774688720703
sg156
I8
sg157
I8
sa(dp160
g153
I49
sg154
F2.9087066650390625e-05
sg155
F0.00023603439331054688
sg156
I3
sg157
I3
sa(dp161
g153
I36
sg154
F1.5974044799804688e-05
sg155
F0.0001049041748046875
sg156
I2
sg157
I2
sasS'total_cqs'
p162
I50
ssI13
(dp163
S'iters'
p164
I4
sS'meta'
p165
(lp166
(dp167
S'objective'
p168
I4
sS'query_time'
p169
F0.09957194328308105
sS'comp_time'
p170
F0.0006458759307861328
sS'exec_cq'
p171
I20
sS'total_cq'
p172
I20
sa(dp173
g168
I7
sg169
F0.00013685226440429688
sg170
F0.0004391670227050781
sg171
I11
sg172
I11
sa(dp174
g168
I6
sg169
F4.00543212890625e-05
sg170
F0.00013494491577148438
sg171
I5
sg172
I5
sa(dp175
g168
I13
sg169
F1.3113021850585938e-05
sg170
F0.00010204315185546875
sg171
I2
sg172
I2
sasS'total_cqs'
p176
I20
ssI14
(dp177
S'iters'
p178
I3
sS'meta'
p179
(lp180
(dp181
S'objective'
p182
I1
sS'query_time'
p183
F34.35269498825073
sS'comp_time'
p184
F2.494929790496826
sS'exec_cq'
p185
I9
sS'total_cq'
p186
I9
sa(dp187
g182
I0
sg183
F0.43054699897766113
sg184
F2.264343023300171
sg185
I4
sg186
I4
sa(dp188
g182
I7
sg183
F0.26679182052612305
sg184
F1.4575400352478027
sg185
I2
sg186
I2
sasS'total_cqs'
p189
I9
ssI15
(dp190
S'iters'
p191
I3
sS'meta'
p192
(lp193
(dp194
S'objective'
p195
I0
sS'query_time'
p196
F3.85017991065979
sS'comp_time'
p197
F0.48131632804870605
sS'exec_cq'
p198
I11
sS'total_cq'
p199
I11
sa(dp200
g195
I5
sg196
F0.06734585762023926
sg197
F0.41852402687072754
sg198
I4
sg199
I4
sa(dp201
g195
I8
sg196
F0.0011789798736572266
sg197
F0.20929193496704102
sg198
I2
sg199
I2
sasS'total_cqs'
p202
I11
ssI16
(dp203
S'iters'
p204
I1
sS'meta'
p205
(lp206
(dp207
S'objective'
p208
I20
sS'query_time'
p209
F0.01144099235534668
sS'comp_time'
p210
F0.00017404556274414062
sS'exec_cq'
p211
I8
sS'total_cq'
p212
I8
sasS'total_cqs'
p213
I8
ssI17
(dp214
S'iters'
p215
I2
sS'meta'
p216
(lp217
(dp218
S'objective'
p219
I0
sS'query_time'
p220
F1.18306303024292
sS'comp_time'
p221
F0.047363996505737305
sS'exec_cq'
p222
I11
sS'total_cq'
p223
I11
sa(dp224
g219
I11
sg220
F0.00017189979553222656
sg221
F0.0014379024505615234
sg222
I5
sg223
I5
sasS'total_cqs'
p225
I11
ssI18
(dp226
S'iters'
p227
I1
sS'meta'
p228
(lp229
(dp230
S'objective'
p231
I44
sS'query_time'
p232
F0.1893160343170166
sS'comp_time'
p233
F0.0015857219696044922
sS'exec_cq'
p234
I10
sS'total_cq'
p235
I11
sasS'total_cqs'
p236
I11
ssI19
(dp237
S'iters'
p238
I0
sS'meta'
p239
(lp240
sS'total_cqs'
p241
I1
ssI20
(dp242
S'iters'
p243
I0
sS'meta'
p244
(lp245
sS'total_cqs'
p246
I1
ssI21
(dp247
S'iters'
p248
I0
sS'meta'
p249
(lp250
sS'total_cqs'
p251
I1
ssI22
(dp252
S'iters'
p253
I1
sS'meta'
p254
(lp255
(dp256
S'objective'
p257
I135
sS'query_time'
p258
F0.02242898941040039
sS'comp_time'
p259
F0.0002899169921875
sS'exec_cq'
p260
I18
sS'total_cq'
p261
I18
sasS'total_cqs'
p262
I18
ssI23
(dp263
S'iters'
p264
I2
sS'meta'
p265
(lp266
(dp267
S'objective'
p268
I80
sS'query_time'
p269
F0.016486167907714844
sS'comp_time'
p270
F0.00038695335388183594
sS'exec_cq'
p271
I8
sS'total_cq'
p272
I16
sa(dp273
g268
I76
sg269
F0.029448986053466797
sg270
F0.0007369518280029297
sg271
I8
sg272
I14
sasS'total_cqs'
p274
I16
ssI24
(dp275
S'iters'
p276
I0
sS'meta'
p277
(lp278
sS'total_cqs'
p279
I1
ssI25
(dp280
S'iters'
p281
I0
sS'meta'
p282
(lp283
sS'total_cqs'
p284
I1
ssI26
(dp285
S'iters'
p286
I1
sS'meta'
p287
(lp288
(dp289
S'objective'
p290
I819
sS'query_time'
p291
F0.05639815330505371
sS'comp_time'
p292
F0.00031256675720214844
sS'exec_cq'
p293
I42
sS'total_cq'
p294
I42
sasS'total_cqs'
p295
I42
ssI27
(dp296
S'iters'
p297
I2
sS'meta'
p298
(lp299
(dp300
S'objective'
p301
I343
sS'query_time'
p302
F22.942378997802734
sS'comp_time'
p303
F5.11917781829834
sS'exec_cq'
p304
I30
sS'total_cq'
p305
I30
sa(dp306
g301
I1
sg302
F0.63926100730896
sg303
F5.425847053527832
sg304
I5
sg305
I5
sasS'total_cqs'
p307
I30
ssI28
(dp308
S'iters'
p309
I0
sS'meta'
p310
(lp311
sS'total_cqs'
p312
I1
ssI29
(dp313
S'iters'
p314
I5
sS'meta'
p315
(lp316
(dp317
S'objective'
p318
I331
sS'query_time'
p319
F30.09517002105713
sS'comp_time'
p320
F0.622046709060669
sS'exec_cq'
p321
I35
sS'total_cq'
p322
I49
sa(dp323
g318
I47
sg319
F0.021274805068969727
sg320
F0.20960402488708496
sg321
I17
sg322
I17
sa(dp324
g318
I5
sg319
F0.021027088165283203
sg320
F0.09255290031433105
sg321
I9
sg322
I9
sa(dp325
g318
I3
sg319
F0.011546134948730469
sg320
F0.06776094436645508
sg321
I5
sg322
I5
sa(dp326
g318
I36
sg319
F0.007951974868774414
sg320
F0.15066099166870117
sg321
I3
sg322
I3
sasS'total_cqs'
p327
I49
ssI30
(dp328
S'iters'
p329
I1
sS'meta'
p330
(lp331
(dp332
S'objective'
p333
I1
sS'query_time'
p334
F0.7031221389770508
sS'comp_time'
p335
F0.07990503311157227
sS'exec_cq'
p336
I2
sS'total_cq'
p337
I2
sasS'total_cqs'
p338
I2
ssI31
(dp339
S'iters'
p340
I0
sS'meta'
p341
(lp342
sS'total_cqs'
p343
I1
ssI32
(dp344
S'iters'
p345
I1
sS'meta'
p346
(lp347
(dp348
S'objective'
p349
I1
sS'query_time'
p350
F0.0176389217376709
sS'comp_time'
p351
F0.0023500919342041016
sS'exec_cq'
p352
I2
sS'total_cq'
p353
I2
sasS'total_cqs'
p354
I2
ssI33
(dp355
S'iters'
p356
I4
sS'meta'
p357
(lp358
(dp359
S'objective'
p360
I3514
sS'query_time'
p361
F15.287575006484985
sS'comp_time'
p362
F0.479022741317749
sS'exec_cq'
p363
I103
sS'total_cq'
p364
I103
sa(dp365
g360
I11
sg361
F0.011648893356323242
sg362
F0.04368877410888672
sg363
I16
sg364
I16
sa(dp366
g360
I28
sg361
F0.00534820556640625
sg362
F0.03242301940917969
sg363
I9
sg364
I9
sa(dp367
g360
I41
sg361
F0.0009918212890625
sg362
F0.0066471099853515625
sg363
I5
sg364
I5
sasS'total_cqs'
p368
I103
ssI34
(dp369
S'iters'
p370
I1
sS'meta'
p371
(lp372
(dp373
S'objective'
p374
I1
sS'query_time'
p375
F0.012443065643310547
sS'comp_time'
p376
F0.0008990764617919922
sS'exec_cq'
p377
I2
sS'total_cq'
p378
I2
sasS'total_cqs'
p379
I2
ssI35
(dp380
S'iters'
p381
I4
sS'meta'
p382
(lp383
(dp384
S'objective'
p385
I1273
sS'query_time'
p386
F20.954435110092163
sS'comp_time'
p387
F0.20177817344665527
sS'exec_cq'
p388
I50
sS'total_cq'
p389
I70
sa(dp390
g385
I16
sg386
F0.00451207160949707
sg387
F0.020354747772216797
sg388
I16
sg389
I16
sa(dp391
g385
I31
sg386
F0.0029449462890625
sg387
F0.018208980560302734
sg388
I9
sg389
I9
sa(dp392
g385
I0
sg386
F0.0012140274047851562
sg387
F0.011127710342407227
sg388
I4
sg389
I4
sasS'total_cqs'
p393
I70
ssI36
(dp394
S'iters'
p395
I1
sS'meta'
p396
(lp397
(dp398
S'objective'
p399
I495
sS'query_time'
p400
F0.6183018684387207
sS'comp_time'
p401
F0.007044076919555664
sS'exec_cq'
p402
I28
sS'total_cq'
p403
I33
sasS'total_cqs'
p404
I33
ssI37
(dp405
S'iters'
p406
I1
sS'meta'
p407
(lp408
(dp409
S'objective'
p410
I1
sS'query_time'
p411
F0.005905866622924805
sS'comp_time'
p412
F0.0004260540008544922
sS'exec_cq'
p413
I2
sS'total_cq'
p414
I2
sasS'total_cqs'
p415
I2
ssI38
(dp416
S'iters'
p417
I2
sS'meta'
p418
(lp419
(dp420
S'objective'
p421
I0
sS'query_time'
p422
F0.018938064575195312
sS'comp_time'
p423
F0.0009081363677978516
sS'exec_cq'
p424
I4
sS'total_cq'
p425
I4
sa(dp426
g421
I3
sg422
F9.989738464355469e-05
sg423
F0.0006899833679199219
sg424
I2
sg425
I2
sasS'total_cqs'
p427
I4
ssI39
(dp428
S'iters'
p429
I2
sS'meta'
p430
(lp431
(dp432
S'objective'
p433
I780
sS'query_time'
p434
F0.0697031021118164
sS'comp_time'
p435
F0.0024881362915039062
sS'exec_cq'
p436
I44
sS'total_cq'
p437
I44
sa(dp438
g433
I797
sg434
F0.00032401084899902344
sg435
F0.002306699752807617
sg436
I37
sg437
I37
sasS'total_cqs'
p439
I44
ssI40
(dp440
S'iters'
p441
I1
sS'meta'
p442
(lp443
(dp444
S'objective'
p445
I14
sS'query_time'
p446
F0.03402996063232422
sS'comp_time'
p447
F0.001055002212524414
sS'exec_cq'
p448
I7
sS'total_cq'
p449
I7
sasS'total_cqs'
p450
I7
ssI41
(dp451
S'iters'
p452
I1
sS'meta'
p453
(lp454
(dp455
S'objective'
p456
I54
sS'query_time'
p457
F0.05444693565368652
sS'comp_time'
p458
F0.00026297569274902344
sS'exec_cq'
p459
I12
sS'total_cq'
p460
I12
sasS'total_cqs'
p461
I12
ssI42
(dp462
S'iters'
p463
I1
sS'meta'
p464
(lp465
(dp466
S'objective'
p467
I779
sS'query_time'
p468
F0.02355813980102539
sS'comp_time'
p469
F0.00019311904907226562
sS'exec_cq'
p470
I21
sS'total_cq'
p471
I41
sasS'total_cqs'
p472
I41
ssI43
(dp473
S'iters'
p474
I1
sS'meta'
p475
(lp476
(dp477
S'objective'
p478
I14
sS'query_time'
p479
F0.015169858932495117
sS'comp_time'
p480
F0.00024318695068359375
sS'exec_cq'
p481
I7
sS'total_cq'
p482
I7
sasS'total_cqs'
p483
I7
ssI44
(dp484
S'iters'
p485
I4
sS'meta'
p486
(lp487
(dp488
S'objective'
p489
I850
sS'query_time'
p490
F0.0747220516204834
sS'comp_time'
p491
F0.0021321773529052734
sS'exec_cq'
p492
I47
sS'total_cq'
p493
I47
sa(dp494
g489
I811
sg490
F0.00032782554626464844
sg491
F0.0018689632415771484
sg492
I40
sg493
I40
sa(dp495
g489
I31
sg490
F0.0001239776611328125
sg491
F0.0011510848999023438
sg492
I3
sg493
I3
sa(dp496
g489
I34
sg490
F0.00011301040649414062
sg491
F0.0012772083282470703
sg492
I2
sg493
I2
sasS'total_cqs'
p497
I47
ssI45
(dp498
S'iters'
p499
I0
sS'meta'
p500
(lp501
sS'total_cqs'
p502
I1
ssI46
(dp503
S'iters'
p504
I1
sS'meta'
p505
(lp506
(dp507
S'objective'
p508
I9
sS'query_time'
p509
F0.011831045150756836
sS'comp_time'
p510
F0.0005061626434326172
sS'exec_cq'
p511
I4
sS'total_cq'
p512
I6
sasS'total_cqs'
p513
I6
ssI47
(dp514
S'iters'
p515
I1
sS'meta'
p516
(lp517
(dp518
S'objective'
p519
I1
sS'query_time'
p520
F0.008382081985473633
sS'comp_time'
p521
F0.0006229877471923828
sS'exec_cq'
p522
I2
sS'total_cq'
p523
I2
sasS'total_cqs'
p524
I2
ssI48
(dp525
S'iters'
p526
I0
sS'meta'
p527
(lp528
sS'total_cqs'
p529
I1
ssI49
(dp530
S'iters'
p531
I0
sS'meta'
p532
(lp533
sS'total_cqs'
p534
I1
ssI50
(dp535
S'iters'
p536
I1
sS'meta'
p537
(lp538
(dp539
S'objective'
p540
I5
sS'query_time'
p541
F0.02342700958251953
sS'comp_time'
p542
F0.00026988983154296875
sS'exec_cq'
p543
I5
sS'total_cq'
p544
I5
sasS'total_cqs'
p545
I5
ssI51
(dp546
S'iters'
p547
I1
sS'meta'
p548
(lp549
(dp550
S'objective'
p551
I1
sS'query_time'
p552
F0.00577092170715332
sS'comp_time'
p553
F0.0003731250762939453
sS'exec_cq'
p554
I2
sS'total_cq'
p555
I2
sasS'total_cqs'
p556
I2
ssI52
(dp557
S'iters'
p558
I1
sS'meta'
p559
(lp560
(dp561
S'objective'
p562
I1
sS'query_time'
p563
F0.027257919311523438
sS'comp_time'
p564
F0.0004932880401611328
sS'exec_cq'
p565
I2
sS'total_cq'
p566
I2
sasS'total_cqs'
p567
I2
ssI53
(dp568
S'iters'
p569
I1
sS'meta'
p570
(lp571
(dp572
S'objective'
p573
I2
sS'query_time'
p574
F0.014905929565429688
sS'comp_time'
p575
F0.0010571479797363281
sS'exec_cq'
p576
I4
sS'total_cq'
p577
I4
sasS'total_cqs'
p578
I4
ssI54
(dp579
S'iters'
p580
I1
sS'meta'
p581
(lp582
(dp583
S'objective'
p584
I0
sS'query_time'
p585
F0.010088920593261719
sS'comp_time'
p586
F0.0005941390991210938
sS'exec_cq'
p587
I3
sS'total_cq'
p588
I3
sasS'total_cqs'
p589
I3
ssI55
(dp590
S'iters'
p591
I7
sS'meta'
p592
(lp593
(dp594
S'objective'
p595
I4611
sS'query_time'
p596
F2.192354917526245
sS'comp_time'
p597
F0.2311420440673828
sS'exec_cq'
p598
I109
sS'total_cq'
p599
I109
sa(dp600
g595
I4525
sg596
F0.0010418891906738281
sg597
F0.0036652088165283203
sg598
I97
sg599
I97
sa(dp601
g595
I4442
sg596
F0.0004649162292480469
sg597
F0.0017800331115722656
sg598
I91
sg599
I91
sa(dp602
g595
I4340
sg596
F0.000453948974609375
sg597
F0.0018510818481445312
sg598
I87
sg599
I87
sa(dp603
g595
I4253
sg596
F0.0003590583801269531
sg597
F0.0012629032135009766
sg598
I85
sg599
I85
sa(dp604
g595
I4143
sg596
F0.0003399848937988281
sg597
F0.0012278556823730469
sg598
I83
sg599
I83
sa(dp605
g595
I4044
sg596
F0.0003540515899658203
sg597
F0.0011060237884521484
sg598
I81
sg599
I81
sasS'total_cqs'
p606
I109
ssI56
(dp607
S'iters'
p608
I4
sS'meta'
p609
(lp610
(dp611
S'objective'
p612
I1320
sS'query_time'
p613
F1.7320380210876465
sS'comp_time'
p614
F0.08969879150390625
sS'exec_cq'
p615
I67
sS'total_cq'
p616
I76
sa(dp617
g612
I15
sg613
F0.016223907470703125
sg614
F0.07086753845214844
sg615
I16
sg616
I16
sa(dp618
g612
I3
sg613
F0.0007669925689697266
sg614
F0.0045926570892333984
sg615
I7
sg616
I7
sa(dp619
g612
I54
sg613
F0.0002989768981933594
sg614
F0.0028231143951416016
sg615
I3
sg616
I3
sasS'total_cqs'
p620
I76
ssI57
(dp621
S'iters'
p622
I5
sS'meta'
p623
(lp624
(dp625
S'objective'
p626
I94
sS'query_time'
p627
F23.34668207168579
sS'comp_time'
p628
F0.07010173797607422
sS'exec_cq'
p629
I45
sS'total_cq'
p630
I51
sa(dp631
g626
I14
sg627
F0.016763925552368164
sg628
F0.052640676498413086
sg629
I27
sg630
I27
sa(dp632
g626
I2
sg627
F0.0028350353240966797
sg628
F0.010735034942626953
sg629
I13
sg630
I13
sa(dp633
g626
I4
sg627
F0.0015039443969726562
sg628
F0.008838415145874023
sg629
I6
sg630
I6
sa(dp634
g626
I13
sg627
F0.001043081283569336
sg628
F0.006876707077026367
sg629
I3
sg630
I3
sasS'total_cqs'
p635
I51
ssI58
(dp636
S'iters'
p637
I6
sS'meta'
p638
(lp639
(dp640
S'objective'
p641
I79771
sS'query_time'
p642
F117.99994897842407
sS'comp_time'
p643
F0.4760570526123047
sS'exec_cq'
p644
I348
sS'total_cq'
p645
I486
sa(dp646
g641
I85650
sg642
F0.03703594207763672
sg643
F1.1291472911834717
sg644
I276
sg645
I414
sa(dp647
g641
I23
sg642
F0.016395092010498047
sg643
F0.05040311813354492
sg644
I28
sg645
I28
sa(dp648
g641
I2
sg642
F0.00878000259399414
sg643
F0.03248000144958496
sg644
I10
sg645
I10
sa(dp649
g641
I9
sg642
F0.003951072692871094
sg643
F0.019774675369262695
sg644
I6
sg645
I6
sa(dp650
g641
I133
sg642
F0.0008440017700195312
sg643
F0.006727695465087891
sg644
I2
sg645
I2
sasS'total_cqs'
p651
I486
ssI59
(dp652
S'iters'
p653
I2
sS'meta'
p654
(lp655
(dp656
S'objective'
p657
I12
sS'query_time'
p658
F0.03310799598693848
sS'comp_time'
p659
F0.017570972442626953
sS'exec_cq'
p660
I7
sS'total_cq'
p661
I7
sa(dp662
g657
I6
sg658
F0.00017404556274414062
sg659
F0.0017781257629394531
sg660
I2
sg661
I2
sasS'total_cqs'
p663
I7
ssI60
(dp664
S'iters'
p665
I1
sS'meta'
p666
(lp667
(dp668
S'objective'
p669
I5
sS'query_time'
p670
F0.009379863739013672
sS'comp_time'
p671
F0.00017690658569335938
sS'exec_cq'
p672
I3
sS'total_cq'
p673
I5
sasS'total_cqs'
p674
I5
ssI61
(dp675
S'iters'
p676
I0
sS'meta'
p677
(lp678
sS'total_cqs'
p679
I1
ssI62
(dp680
S'iters'
p681
I1
sS'meta'
p682
(lp683
(dp684
S'objective'
p685
I54
sS'query_time'
p686
F0.01575303077697754
sS'comp_time'
p687
F0.00034499168395996094
sS'exec_cq'
p688
I12
sS'total_cq'
p689
I12
sasS'total_cqs'
p690
I12
ssI63
(dp691
S'iters'
p692
I0
sS'meta'
p693
(lp694
sS'total_cqs'
p695
I1
ssI64
(dp696
S'iters'
p697
I2
sS'meta'
p698
(lp699
(dp700
S'objective'
p701
I26
sS'query_time'
p702
F0.08772802352905273
sS'comp_time'
p703
F0.00658416748046875
sS'exec_cq'
p704
I12
sS'total_cq'
p705
I12
sa(dp706
g701
I2
sg702
F0.00011706352233886719
sg703
F0.0007758140563964844
sg704
I4
sg705
I4
sasS'total_cqs'
p707
I12
ssI65
(dp708
S'iters'
p709
I3
sS'meta'
p710
(lp711
(dp712
S'objective'
p713
I230
sS'query_time'
p714
F0.7907431125640869
sS'comp_time'
p715
F0.18163371086120605
sS'exec_cq'
p716
I27
sS'total_cq'
p717
I27
sa(dp718
g713
I2
sg714
F0.0014040470123291016
sg715
F0.010463714599609375
sg716
I7
sg717
I7
sa(dp719
g713
I16
sg714
F0.0006051063537597656
sg715
F0.005681037902832031
sg716
I3
sg717
I3
sasS'total_cqs'
p720
I27
ssI66
(dp721
S'iters'
p722
I0
sS'meta'
p723
(lp724
sS'total_cqs'
p725
I1
ssI67
(dp726
S'iters'
p727
I2
sS'meta'
p728
(lp729
(dp730
S'objective'
p731
I518
sS'query_time'
p732
F0.9790308475494385
sS'comp_time'
p733
F0.013520002365112305
sS'exec_cq'
p734
I35
sS'total_cq'
p735
I35
sa(dp736
g731
I14
sg732
F0.0017330646514892578
sg733
F0.011993885040283203
sg734
I2
sg735
I2
sasS'total_cqs'
p737
I35
ssI68
(dp738
S'iters'
p739
I0
sS'meta'
p740
(lp741
sS'total_cqs'
p742
I1
ssI69
(dp743
S'iters'
p744
I1
sS'meta'
p745
(lp746
(dp747
S'objective'
p748
I1224
sS'query_time'
p749
F0.13694405555725098
sS'comp_time'
p750
F0.0004582405090332031
sS'exec_cq'
p751
I51
sS'total_cq'
p752
I51
sasS'total_cqs'
p753
I51
ssI70
(dp754
S'iters'
p755
I1
sS'meta'
p756
(lp757
(dp758
S'objective'
p759
I9
sS'query_time'
p760
F0.008929967880249023
sS'comp_time'
p761
F0.00030994415283203125
sS'exec_cq'
p762
I6
sS'total_cq'
p763
I6
sasS'total_cqs'
p764
I6
ssI71
(dp765
S'iters'
p766
I5
sS'meta'
p767
(lp768
(dp769
S'objective'
p770
I3213
sS'query_time'
p771
F0.22957491874694824
sS'comp_time'
p772
F0.0013530254364013672
sS'exec_cq'
p773
I73
sS'total_cq'
p774
I85
sa(dp775
g770
I3166
sg771
F0.00033402442932128906
sg772
F0.0009410381317138672
sg773
I69
sg774
I81
sa(dp776
g770
I3034
sg771
F0.00025081634521484375
sg772
F0.0007979869842529297
sg773
I65
sg774
I77
sa(dp777
g770
I2955
sg771
F0.00023603439331054688
sg772
F0.0006759166717529297
sg773
I63
sg774
I75
sa(dp778
g770
I64
sg771
F5.698204040527344e-05
sg772
F0.0003612041473388672
sg773
I3
sg774
I3
sasS'total_cqs'
p779
I85
ssI72
(dp780
S'iters'
p781
I3
sS'meta'
p782
(lp783
(dp784
S'objective'
p785
I0
sS'query_time'
p786
F0.3918650150299072
sS'comp_time'
p787
F0.09354925155639648
sS'exec_cq'
p788
I4
sS'total_cq'
p789
I8
sa(dp790
g785
I4
sg786
F0.028063058853149414
sg787
F0.0004839897155761719
sg788
I4
sg789
I5
sa(dp791
g785
I5
sg786
F1.5974044799804688e-05
sg787
F9.489059448242188e-05
sg788
I2
sg789
I3
sasS'total_cqs'
p792
I8
ssI73
(dp793
S'iters'
p794
I0
sS'meta'
p795
(lp796
sS'total_cqs'
p797
I1
ssI74
(dp798
S'iters'
p799
I0
sS'meta'
p800
(lp801
sS'total_cqs'
p802
I1
ssI75
(dp803
S'iters'
p804
I1
sS'meta'
p805
(lp806
(dp807
S'objective'
p808
I5
sS'query_time'
p809
F0.007241010665893555
sS'comp_time'
p810
F0.00023698806762695312
sS'exec_cq'
p811
I5
sS'total_cq'
p812
I5
sasS'total_cqs'
p813
I5
ssI76
(dp814
S'iters'
p815
I1
sS'meta'
p816
(lp817
(dp818
S'objective'
p819
I1
sS'query_time'
p820
F0.013957023620605469
sS'comp_time'
p821
F0.0038700103759765625
sS'exec_cq'
p822
I2
sS'total_cq'
p823
I2
sasS'total_cqs'
p824
I2
ssI77
(dp825
S'iters'
p826
I0
sS'meta'
p827
(lp828
sS'total_cqs'
p829
I1
ssI78
(dp830
S'iters'
p831
I0
sS'meta'
p832
(lp833
sS'total_cqs'
p834
I1
ssI103
(dp835
S'iters'
p836
I1
sS'meta'
p837
(lp838
(dp839
S'objective'
p840
I54
sS'query_time'
p841
F0.03816103935241699
sS'comp_time'
p842
F0.0003724098205566406
sS'exec_cq'
p843
I12
sS'total_cq'
p844
I12
sasS'total_cqs'
p845
I12
ssI104
(dp846
S'iters'
p847
I2
sS'meta'
p848
(lp849
(dp850
S'objective'
p851
I0
sS'query_time'
p852
F1.4373998641967773
sS'comp_time'
p853
F0.4099578857421875
sS'exec_cq'
p854
I4
sS'total_cq'
p855
I4
sa(dp856
g851
I3
sg852
F0.014295101165771484
sg853
F0.2800419330596924
sg854
I2
sg855
I2
sasS'total_cqs'
p857
I4
ssI105
(dp858
S'iters'
p859
I0
sS'meta'
p860
(lp861
sS'total_cqs'
p862
I1
ssI106
(dp863
S'iters'
p864
I1
sS'meta'
p865
(lp866
(dp867
S'objective'
p868
I2
sS'query_time'
p869
F0.014045000076293945
sS'comp_time'
p870
F0.00017213821411132812
sS'exec_cq'
p871
I4
sS'total_cq'
p872
I4
sasS'total_cqs'
p873
I4
ssI107
(dp874
S'iters'
p875
I2
sS'meta'
p876
(lp877
(dp878
S'objective'
p879
I86
sS'query_time'
p880
F0.05004000663757324
sS'comp_time'
p881
F0.0003497600555419922
sS'exec_cq'
p882
I16
sS'total_cq'
p883
I16
sa(dp884
g879
I7
sg880
F4.601478576660156e-05
sg881
F0.00022172927856445312
sg882
I3
sg883
I3
sasS'total_cqs'
p885
I16
ssI108
(dp886
S'iters'
p887
I0
sS'meta'
p888
(lp889
sS'total_cqs'
p890
I1
ss.