(dp0
I1
(dp1
S'iters'
p2
I2
sS'meta'
p3
(lp4
(dp5
S'objective'
p6
I40
sS'query_time'
p7
F0.029207944869995117
sS'comp_time'
p8
F0.0003509521484375
sS'exec_cq'
p9
I12
sS'total_cq'
p10
I12
sa(dp11
g6
I45
sg7
F4.887580871582031e-05
sg8
F0.00011324882507324219
sg9
I10
sg10
I10
sasS'total_cqs'
p12
I12
ssI2
(dp13
S'iters'
p14
I5
sS'meta'
p15
(lp16
(dp17
S'objective'
p18
I246
sS'query_time'
p19
F0.09765100479125977
sS'comp_time'
p20
F0.0012350082397460938
sS'exec_cq'
p21
I27
sS'total_cq'
p22
I27
sa(dp23
g18
I212
sg19
F0.00013494491577148438
sg20
F0.0006971359252929688
sg21
I24
sg22
I24
sa(dp24
g18
I212
sg19
F0.00010609626770019531
sg20
F0.0004649162292480469
sg21
I20
sg22
I20
sa(dp25
g18
I187
sg19
F0.0001430511474609375
sg20
F0.00027298927307128906
sg21
I19
sg22
I19
sa(dp26
g18
I182
sg19
F7.605552673339844e-05
sg20
F0.00023698806762695312
sg21
I17
sg22
I17
sasS'total_cqs'
p27
I27
ssI3
(dp28
S'iters'
p29
I4
sS'meta'
p30
(lp31
(dp32
S'objective'
p33
I566
sS'query_time'
p34
F569.9091670513153
sS'comp_time'
p35
F3.301676034927368
sS'exec_cq'
p36
I43
sS'total_cq'
p37
I43
sa(dp38
g33
I444
sg34
F0.611624002456665
sg35
F3.0124011039733887
sg36
I35
sg37
I35
sa(dp39
g33
I304
sg34
F0.06555891036987305
sg35
F0.8615448474884033
sg36
I28
sg37
I28
sa(dp40
g33
I406
sg34
F8.893013000488281e-05
sg35
F0.0002090930938720703
sg36
I20
sg37
I20
sasS'total_cqs'
p41
I43
ssI4
(dp42
S'iters'
p43
I2
sS'meta'
p44
(lp45
(dp46
S'objective'
p47
I40
sS'query_time'
p48
F3.9435019493103027
sS'comp_time'
p49
F0.9959769248962402
sS'exec_cq'
p50
I11
sS'total_cq'
p51
I11
sa(dp52
g47
I1
sg48
F0.15468907356262207
sg49
F0.7013728618621826
sg50
I2
sg51
I2
sasS'total_cqs'
p53
I11
ssI5
(dp54
S'iters'
p55
I3
sS'meta'
p56
(lp57
(dp58
S'objective'
p59
I0
sS'query_time'
p60
F28.041531085968018
sS'comp_time'
p61
F3.9881389141082764
sS'exec_cq'
p62
I8
sS'total_cq'
p63
I8
sa(dp64
g59
I2
sg60
F0.012181997299194336
sg61
F0.33050966262817383
sg62
I4
sg63
I4
sa(dp65
g59
I0
sg60
F0.005388975143432617
sg61
F0.09839320182800293
sg62
I3
sg63
I3
sasS'total_cqs'
p66
I8
ssI6
(dp67
S'iters'
p68
I4
sS'meta'
p69
(lp70
(dp71
S'objective'
p72
I47
sS'query_time'
p73
F30.117043018341064
sS'comp_time'
p74
F3.926008939743042
sS'exec_cq'
p75
I18
sS'total_cq'
p76
I18
sa(dp77
g72
I0
sg73
F0.6936049461364746
sg74
F3.3741440773010254
sg75
I7
sg76
I7
sa(dp78
g72
I3
sg73
F0.6443729400634766
sg74
F2.8391621112823486
sg75
I4
sg76
I4
sa(dp79
g72
I3
sg73
F0.27721095085144043
sg74
F1.3645939826965332
sg75
I2
sg76
I2
sasS'total_cqs'
p80
I18
ssI7
(dp81
S'iters'
p82
I3
sS'meta'
p83
(lp84
(dp85
S'objective'
p86
I1
sS'query_time'
p87
F9.798864841461182
sS'comp_time'
p88
F1.4394278526306152
sS'exec_cq'
p89
I9
sS'total_cq'
p90
I9
sa(dp91
g86
I1
sg87
F0.04630422592163086
sg88
F0.32830214500427246
sg89
I6
sg90
I6
sa(dp92
g86
I0
sg87
F0.0037369728088378906
sg88
F0.02544713020324707
sg89
I3
sg90
I3
sasS'total_cqs'
p93
I9
ssI8
(dp94
S'iters'
p95
I3
sS'meta'
p96
(lp97
(dp98
S'objective'
p99
I234
sS'query_time'
p100
F0.10682106018066406
sS'comp_time'
p101
F0.0015139579772949219
sS'exec_cq'
p102
I27
sS'total_cq'
p103
I27
sa(dp104
g99
I230
sg100
F0.00015997886657714844
sg101
F0.0005581378936767578
sg102
I22
sg103
I22
sa(dp105
g99
I238
sg100
F7.605552673339844e-05
sg101
F0.00014495849609375
sg102
I19
sg103
I19
sasS'total_cqs'
p106
I27
ssI9
(dp107
S'iters'
p108
I3
sS'meta'
p109
(lp110
(dp111
S'objective'
p112
I2
sS'query_time'
p113
F0.042587995529174805
sS'comp_time'
p114
F0.00032520294189453125
sS'exec_cq'
p115
I7
sS'total_cq'
p116
I7
sa(dp117
g112
I1
sg113
F6.389617919921875e-05
sg114
F0.00024199485778808594
sg115
I5
sg116
I5
sa(dp118
g112
I2
sg113
F2.9087066650390625e-05
sg114
F0.0001480579376220703
sg115
I3
sg116
I3
sasS'total_cqs'
p119
I7
ssI10
(dp120
S'iters'
p121
I6
sS'meta'
p122
(lp123
(dp124
S'objective'
p125
I482
sS'query_time'
p126
F0.33415818214416504
sS'comp_time'
p127
F0.0073261260986328125
sS'exec_cq'
p128
I51
sS'total_cq'
p129
I51
sa(dp130
g125
I192
sg126
F0.0004489421844482422
sg127
F0.0018451213836669922
sg128
I37
sg129
I37
sa(dp131
g125
I4
sg126
F0.000186920166015625
sg127
F0.0007050037384033203
sg128
I12
sg129
I12
sa(dp132
g125
I4
sg126
F9.417533874511719e-05
sg127
F0.0007357597351074219
sg128
I7
sg129
I7
sa(dp133
g125
I12
sg126
F3.2901763916015625e-05
sg127
F0.00017905235290527344
sg128
I4
sg129
I4
sa(dp134
g125
I4
sg126
F2.4080276489257812e-05
sg127
F0.0001678466796875
sg128
I3
sg129
I3
sasS'total_cqs'
p135
I51
ssI11
(dp136
S'iters'
p137
I5
sS'meta'
p138
(lp139
(dp140
S'objective'
p141
I938
sS'query_time'
p142
F0.480633020401001
sS'comp_time'
p143
F0.021936893463134766
sS'exec_cq'
p144
I63
sS'total_cq'
p145
I63
sa(dp146
g141
I853
sg142
F0.001127004623413086
sg143
F0.006508827209472656
sg144
I47
sg145
I47
sa(dp147
g141
I12
sg142
F0.0002231597900390625
sg143
F0.0015232563018798828
sg144
I9
sg145
I9
sa(dp148
g141
I8
sg142
F4.00543212890625e-05
sg143
F0.00014591217041015625
sg144
I5
sg145
I5
sa(dp149
g141
I19
sg142
F1.5020370483398438e-05
sg143
F8.416175842285156e-05
sg144
I2
sg145
I2
sasS'total_cqs'
p150
I63
ssI12
(dp151
S'iters'
p152
I5
sS'meta'
p153
(lp154
(dp155
S'objective'
p156
I485
sS'query_time'
p157
F0.33969807624816895
sS'comp_time'
p158
F0.011152982711791992
sS'exec_cq'
p159
I50
sS'total_cq'
p160
I50
sa(dp161
g156
I416
sg157
F0.0004870891571044922
sg158
F0.0028312206268310547
sg159
I33
sg160
I33
sa(dp162
g156
I2
sg157
F0.0002148151397705078
sg158
F0.0017092227935791016
sg159
I8
sg160
I8
sa(dp163
g156
I17
sg157
F7.295608520507812e-05
sg158
F0.0005118846893310547
sg159
I5
sg160
I5
sa(dp164
g156
I2
sg157
F5.698204040527344e-05
sg158
F0.0006341934204101562
sg159
I3
sg160
I3
sasS'total_cqs'
p165
I50
ssI13
(dp166
S'iters'
p167
I3
sS'meta'
p168
(lp169
(dp170
S'objective'
p171
I44
sS'query_time'
p172
F0.14996099472045898
sS'comp_time'
p173
F0.0005700588226318359
sS'exec_cq'
p174
I20
sS'total_cq'
p175
I20
sa(dp176
g171
I29
sg172
F5.507469177246094e-05
sg173
F0.00010395050048828125
sg174
I9
sg175
I9
sa(dp177
g171
I5
sg172
F1.6927719116210938e-05
sg173
F9.512901306152344e-05
sg174
I2
sg175
I2
sasS'total_cqs'
p178
I20
ssI14
(dp179
S'iters'
p180
I3
sS'meta'
p181
(lp182
(dp183
S'objective'
p184
I1
sS'query_time'
p185
F27.494024991989136
sS'comp_time'
p186
F1.4182109832763672
sS'exec_cq'
p187
I9
sS'total_cq'
p188
I9
sa(dp189
g184
I4
sg185
F0.003926992416381836
sg186
F0.027908802032470703
sg187
I3
sg188
I3
sa(dp190
g184
I1
sg185
F0.004615068435668945
sg186
F0.029797077178955078
sg187
I2
sg188
I2
sasS'total_cqs'
p191
I9
ssI15
(dp192
S'iters'
p193
I3
sS'meta'
p194
(lp195
(dp196
S'objective'
p197
I2
sS'query_time'
p198
F3.1177539825439453
sS'comp_time'
p199
F0.2506248950958252
sS'exec_cq'
p200
I11
sS'total_cq'
p201
I11
sa(dp202
g197
I0
sg198
F0.008112907409667969
sg199
F0.09974193572998047
sg200
I7
sg201
I7
sa(dp203
g197
I3
sg198
F0.0003609657287597656
sg199
F0.0033729076385498047
sg200
I2
sg201
I2
sasS'total_cqs'
p204
I11
ssI16
(dp205
S'iters'
p206
I1
sS'meta'
p207
(lp208
(dp209
S'objective'
p210
I26
sS'query_time'
p211
F0.01796412467956543
sS'comp_time'
p212
F0.00018596649169921875
sS'exec_cq'
p213
I8
sS'total_cq'
p214
I8
sasS'total_cqs'
p215
I8
ssI17
(dp216
S'iters'
p217
I3
sS'meta'
p218
(lp219
(dp220
S'objective'
p221
I0
sS'query_time'
p222
F0.8519179821014404
sS'comp_time'
p223
F0.0290069580078125
sS'exec_cq'
p224
I11
sS'total_cq'
p225
I11
sa(dp226
g221
I9
sg222
F0.00018095970153808594
sg223
F0.0015912055969238281
sg224
I6
sg225
I6
sa(dp227
g221
I2
sg222
F0.00013017654418945312
sg223
F0.0015499591827392578
sg224
I2
sg225
I2
sasS'total_cqs'
p228
I11
ssI18
(dp229
S'iters'
p230
I2
sS'meta'
p231
(lp232
(dp233
S'objective'
p234
I22
sS'query_time'
p235
F0.22446203231811523
sS'comp_time'
p236
F0.007203817367553711
sS'exec_cq'
p237
I11
sS'total_cq'
p238
I11
sa(dp239
g234
I30
sg235
F0.0002779960632324219
sg236
F0.0023272037506103516
sg237
I8
sg238
I8
sasS'total_cqs'
p240
I11
ssI19
(dp241
S'iters'
p242
I0
sS'meta'
p243
(lp244
sS'total_cqs'
p245
I1
ssI20
(dp246
S'iters'
p247
I0
sS'meta'
p248
(lp249
sS'total_cqs'
p250
I1
ssI21
(dp251
S'iters'
p252
I0
sS'meta'
p253
(lp254
sS'total_cqs'
p255
I1
ssI22
(dp256
S'iters'
p257
I1
sS'meta'
p258
(lp259
(dp260
S'objective'
p261
I151
sS'query_time'
p262
F0.04086899757385254
sS'comp_time'
p263
F0.0003380775451660156
sS'exec_cq'
p264
I18
sS'total_cq'
p265
I18
sasS'total_cqs'
p266
I18
ssI23
(dp267
S'iters'
p268
I2
sS'meta'
p269
(lp270
(dp271
S'objective'
p272
I80
sS'query_time'
p273
F0.04942893981933594
sS'comp_time'
p274
F0.0007860660552978516
sS'exec_cq'
p275
I16
sS'total_cq'
p276
I16
sa(dp277
g272
I90
sg273
F0.00011301040649414062
sg274
F0.0004050731658935547
sg275
I14
sg276
I14
sasS'total_cqs'
p278
I16
ssI24
(dp279
S'iters'
p280
I0
sS'meta'
p281
(lp282
sS'total_cqs'
p283
I1
ssI25
(dp284
S'iters'
p285
I0
sS'meta'
p286
(lp287
sS'total_cqs'
p288
I1
ssI26
(dp289
S'iters'
p290
I1
sS'meta'
p291
(lp292
(dp293
S'objective'
p294
I859
sS'query_time'
p295
F0.12407779693603516
sS'comp_time'
p296
F0.00017881393432617188
sS'exec_cq'
p297
I42
sS'total_cq'
p298
I42
sasS'total_cqs'
p299
I42
ssI27
(dp300
S'iters'
p301
I3
sS'meta'
p302
(lp303
(dp304
S'objective'
p305
I275
sS'query_time'
p306
F17.83867311477661
sS'comp_time'
p307
F2.9495749473571777
sS'exec_cq'
p308
I30
sS'total_cq'
p309
I30
sa(dp310
g305
I9
sg306
F0.49483394622802734
sg307
F3.143792152404785
sg308
I5
sg309
I5
sa(dp311
g305
I11
sg306
F0.06638503074645996
sg307
F0.8288769721984863
sg308
I2
sg309
I2
sasS'total_cqs'
p312
I30
ssI28
(dp313
S'iters'
p314
I0
sS'meta'
p315
(lp316
sS'total_cqs'
p317
I1
ssI29
(dp318
S'iters'
p319
I5
sS'meta'
p320
(lp321
(dp322
S'objective'
p323
I265
sS'query_time'
p324
F138.6418080329895
sS'comp_time'
p325
F14.597119808197021
sS'exec_cq'
p326
I49
sS'total_cq'
p327
I49
sa(dp328
g323
I0
sg324
F0.06724977493286133
sg325
F0.24462604522705078
sg326
I16
sg327
I16
sa(dp329
g323
I2
sg324
F0.01805281639099121
sg325
F0.1022341251373291
sg326
I7
sg327
I7
sa(dp330
g323
I3
sg324
F0.012758970260620117
sg325
F0.7843260765075684
sg326
I4
sg327
I4
sa(dp331
g323
I7
sg324
F0.0009131431579589844
sg325
F0.006478071212768555
sg326
I2
sg327
I2
sasS'total_cqs'
p332
I49
ssI30
(dp333
S'iters'
p334
I1
sS'meta'
p335
(lp336
(dp337
S'objective'
p338
I1
sS'query_time'
p339
F0.7139780521392822
sS'comp_time'
p340
F0.04754304885864258
sS'exec_cq'
p341
I2
sS'total_cq'
p342
I2
sasS'total_cqs'
p343
I2
ssI31
(dp344
S'iters'
p345
I0
sS'meta'
p346
(lp347
sS'total_cqs'
p348
I1
ssI32
(dp349
S'iters'
p350
I1
sS'meta'
p351
(lp352
(dp353
S'objective'
p354
I1
sS'query_time'
p355
F0.007718086242675781
sS'comp_time'
p356
F0.0003609657287597656
sS'exec_cq'
p357
I2
sS'total_cq'
p358
I2
sasS'total_cqs'
p359
I2
ssI33
(dp360
S'iters'
p361
I5
sS'meta'
p362
(lp363
(dp364
S'objective'
p365
I3834
sS'query_time'
p366
F13.831807136535645
sS'comp_time'
p367
F0.17272281646728516
sS'exec_cq'
p368
I103
sS'total_cq'
p369
I103
sa(dp370
g365
I7
sg366
F0.0071561336517333984
sg367
F0.02935791015625
sg368
I16
sg369
I16
sa(dp371
g365
I2
sg366
F0.003014087677001953
sg367
F0.014073848724365234
sg368
I9
sg369
I9
sa(dp372
g365
I17
sg366
F0.0009219646453857422
sg367
F0.007951021194458008
sg368
I5
sg369
I5
sa(dp373
g365
I1
sg366
F8.320808410644531e-05
sg367
F0.0007178783416748047
sg368
I2
sg369
I2
sasS'total_cqs'
p374
I103
ssI34
(dp375
S'iters'
p376
I1
sS'meta'
p377
(lp378
(dp379
S'objective'
p380
I1
sS'query_time'
p381
F0.02811908721923828
sS'comp_time'
p382
F0.0008261203765869141
sS'exec_cq'
p383
I2
sS'total_cq'
p384
I2
sasS'total_cqs'
p385
I2
ssI35
(dp386
S'iters'
p387
I5
sS'meta'
p388
(lp389
(dp390
S'objective'
p391
I1361
sS'query_time'
p392
F251.3268849849701
sS'comp_time'
p393
F28.75132989883423
sS'exec_cq'
p394
I70
sS'total_cq'
p395
I70
sa(dp396
g391
I26
sg392
F0.004508018493652344
sg393
F0.017912864685058594
sg394
I16
sg395
I16
sa(dp397
g391
I6
sg392
F0.0030739307403564453
sg393
F0.014014720916748047
sg394
I9
sg395
I9
sa(dp398
g391
I2
sg392
F0.0007200241088867188
sg393
F0.006754159927368164
sg394
I4
sg395
I4
sa(dp399
g391
I4
sg392
F0.00036597251892089844
sg393
F0.0039708614349365234
sg394
I2
sg395
I2
sasS'total_cqs'
p400
I70
ssI36
(dp401
S'iters'
p402
I4
sS'meta'
p403
(lp404
(dp405
S'objective'
p406
I415
sS'query_time'
p407
F0.7462351322174072
sS'comp_time'
p408
F0.043623924255371094
sS'exec_cq'
p409
I33
sS'total_cq'
p410
I33
sa(dp411
g406
I368
sg407
F0.003408193588256836
sg408
F0.04535818099975586
sg409
I29
sg410
I29
sa(dp412
g406
I372
sg407
F0.0015158653259277344
sg408
F0.010596036911010742
sg409
I25
sg410
I25
sa(dp413
g406
I364
sg407
F0.00038313865661621094
sg408
F0.0036017894744873047
sg409
I24
sg410
I24
sasS'total_cqs'
p414
I33
ssI37
(dp415
S'iters'
p416
I1
sS'meta'
p417
(lp418
(dp419
S'objective'
p420
I1
sS'query_time'
p421
F0.007690906524658203
sS'comp_time'
p422
F0.0004260540008544922
sS'exec_cq'
p423
I2
sS'total_cq'
p424
I2
sasS'total_cqs'
p425
I2
ssI38
(dp426
S'iters'
p427
I2
sS'meta'
p428
(lp429
(dp430
S'objective'
p431
I0
sS'query_time'
p432
F0.02835392951965332
sS'comp_time'
p433
F0.0007410049438476562
sS'exec_cq'
p434
I4
sS'total_cq'
p435
I4
sa(dp436
g431
I1
sg432
F9.179115295410156e-05
sg433
F0.000514984130859375
sg434
I2
sg435
I2
sasS'total_cqs'
p437
I4
ssI39
(dp438
S'iters'
p439
I2
sS'meta'
p440
(lp441
(dp442
S'objective'
p443
I692
sS'query_time'
p444
F0.11037492752075195
sS'comp_time'
p445
F0.002250194549560547
sS'exec_cq'
p446
I44
sS'total_cq'
p447
I44
sa(dp448
g443
I795
sg444
F0.00026416778564453125
sg445
F0.005161762237548828
sg446
I37
sg447
I37
sasS'total_cqs'
p449
I44
ssI40
(dp450
S'iters'
p451
I1
sS'meta'
p452
(lp453
(dp454
S'objective'
p455
I18
sS'query_time'
p456
F0.038906097412109375
sS'comp_time'
p457
F0.00017404556274414062
sS'exec_cq'
p458
I7
sS'total_cq'
p459
I7
sasS'total_cqs'
p460
I7
ssI41
(dp461
S'iters'
p462
I1
sS'meta'
p463
(lp464
(dp465
S'objective'
p466
I64
sS'query_time'
p467
F0.07833504676818848
sS'comp_time'
p468
F0.0005490779876708984
sS'exec_cq'
p469
I12
sS'total_cq'
p470
I12
sasS'total_cqs'
p471
I12
ssI42
(dp472
S'iters'
p473
I3
sS'meta'
p474
(lp475
(dp476
S'objective'
p477
I783
sS'query_time'
p478
F0.11030197143554688
sS'comp_time'
p479
F0.00025391578674316406
sS'exec_cq'
p480
I41
sS'total_cq'
p481
I41
sa(dp482
g477
I750
sg478
F0.0002009868621826172
sg479
F0.00017189979553222656
sg480
I40
sg481
I40
sa(dp483
g477
I742
sg478
F0.00015091896057128906
sg479
F0.00014591217041015625
sg480
I39
sg481
I39
sasS'total_cqs'
p484
I41
ssI43
(dp485
S'iters'
p486
I1
sS'meta'
p487
(lp488
(dp489
S'objective'
p490
I18
sS'query_time'
p491
F0.02999401092529297
sS'comp_time'
p492
F0.00013399124145507812
sS'exec_cq'
p493
I7
sS'total_cq'
p494
I7
sasS'total_cqs'
p495
I7
ssI44
(dp496
S'iters'
p497
I4
sS'meta'
p498
(lp499
(dp500
S'objective'
p501
I754
sS'query_time'
p502
F0.11673188209533691
sS'comp_time'
p503
F0.0017502307891845703
sS'exec_cq'
p504
I47
sS'total_cq'
p505
I47
sa(dp506
g501
I819
sg502
F0.00029397010803222656
sg503
F0.005510807037353516
sg504
I40
sg505
I40
sa(dp507
g501
I19
sg502
F0.00012493133544921875
sg503
F0.0010788440704345703
sg504
I3
sg505
I3
sa(dp508
g501
I10
sg502
F2.2172927856445312e-05
sg503
F0.00014901161193847656
sg504
I2
sg505
I2
sasS'total_cqs'
p509
I47
ssI45
(dp510
S'iters'
p511
I0
sS'meta'
p512
(lp513
sS'total_cqs'
p514
I1
ssI46
(dp515
S'iters'
p516
I2
sS'meta'
p517
(lp518
(dp519
S'objective'
p520
I9
sS'query_time'
p521
F0.018268823623657227
sS'comp_time'
p522
F0.0004000663757324219
sS'exec_cq'
p523
I6
sS'total_cq'
p524
I6
sa(dp525
g520
I7
sg521
F5.507469177246094e-05
sg522
F0.0003452301025390625
sg523
I5
sg524
I5
sasS'total_cqs'
p526
I6
ssI47
(dp527
S'iters'
p528
I1
sS'meta'
p529
(lp530
(dp531
S'objective'
p532
I1
sS'query_time'
p533
F0.010052919387817383
sS'comp_time'
p534
F0.0004730224609375
sS'exec_cq'
p535
I2
sS'total_cq'
p536
I2
sasS'total_cqs'
p537
I2
ssI48
(dp538
S'iters'
p539
I0
sS'meta'
p540
(lp541
sS'total_cqs'
p542
I1
ssI49
(dp543
S'iters'
p544
I0
sS'meta'
p545
(lp546
sS'total_cqs'
p547
I1
ssI50
(dp548
S'iters'
p549
I2
sS'meta'
p550
(lp551
(dp552
S'objective'
p553
I5
sS'query_time'
p554
F0.009425878524780273
sS'comp_time'
p555
F0.00018405914306640625
sS'exec_cq'
p556
I5
sS'total_cq'
p557
I5
sa(dp558
g553
I2
sg554
F3.0994415283203125e-05
sg555
F0.0001430511474609375
sg556
I4
sg557
I4
sasS'total_cqs'
p559
I5
ssI51
(dp560
S'iters'
p561
I1
sS'meta'
p562
(lp563
(dp564
S'objective'
p565
I1
sS'query_time'
p566
F0.006022930145263672
sS'comp_time'
p567
F0.0003058910369873047
sS'exec_cq'
p568
I2
sS'total_cq'
p569
I2
sasS'total_cqs'
p570
I2
ssI52
(dp571
S'iters'
p572
I1
sS'meta'
p573
(lp574
(dp575
S'objective'
p576
I1
sS'query_time'
p577
F0.007866859436035156
sS'comp_time'
p578
F0.00045800209045410156
sS'exec_cq'
p579
I2
sS'total_cq'
p580
I2
sasS'total_cqs'
p581
I2
ssI53
(dp582
S'iters'
p583
I2
sS'meta'
p584
(lp585
(dp586
S'objective'
p587
I2
sS'query_time'
p588
F0.01879715919494629
sS'comp_time'
p589
F0.0008897781372070312
sS'exec_cq'
p590
I4
sS'total_cq'
p591
I4
sa(dp592
g587
I2
sg588
F8.606910705566406e-05
sg589
F0.0007669925689697266
sg590
I2
sg591
I2
sasS'total_cqs'
p593
I4
ssI54
(dp594
S'iters'
p595
I1
sS'meta'
p596
(lp597
(dp598
S'objective'
p599
I0
sS'query_time'
p600
F0.009330987930297852
sS'comp_time'
p601
F0.0004649162292480469
sS'exec_cq'
p602
I3
sS'total_cq'
p603
I3
sasS'total_cqs'
p604
I3
ssI55
(dp605
S'iters'
p606
I9
sS'meta'
p607
(lp608
(dp609
S'objective'
p610
I4561
sS'query_time'
p611
F2.220388889312744
sS'comp_time'
p612
F0.0508120059967041
sS'exec_cq'
p613
I109
sS'total_cq'
p614
I109
sa(dp615
g610
I4776
sg611
F0.0007500648498535156
sg612
F0.0023660659790039062
sg613
I97
sg614
I97
sa(dp616
g610
I4725
sg611
F0.00030422210693359375
sg612
F0.0011749267578125
sg613
I91
sg614
I91
sa(dp617
g610
I4628
sg611
F0.0007278919219970703
sg612
F0.0012187957763671875
sg613
I89
sg614
I89
sa(dp618
g610
I4526
sg611
F0.00026702880859375
sg612
F0.0010001659393310547
sg613
I85
sg614
I85
sa(dp619
g610
I4437
sg611
F0.00025010108947753906
sg612
F0.0007908344268798828
sg613
I83
sg614
I83
sa(dp620
g610
I4352
sg611
F0.0002410411834716797
sg612
F0.0006849765777587891
sg613
I81
sg614
I81
sa(dp621
g610
I4321
sg611
F0.00024008750915527344
sg612
F0.0007839202880859375
sg613
I80
sg614
I80
sa(dp622
g610
I4271
sg611
F0.00023412704467773438
sg612
F0.0006189346313476562
sg613
I79
sg614
I79
sasS'total_cqs'
p623
I109
ssI56
(dp624
S'iters'
p625
I5
sS'meta'
p626
(lp627
(dp628
S'objective'
p629
I1712
sS'query_time'
p630
F3.2467939853668213
sS'comp_time'
p631
F0.21731209754943848
sS'exec_cq'
p632
I76
sS'total_cq'
p633
I76
sa(dp634
g629
I21
sg630
F0.004908084869384766
sg631
F0.015603065490722656
sg632
I16
sg633
I16
sa(dp635
g629
I2
sg630
F0.0032188892364501953
sg631
F0.012735843658447266
sg632
I9
sg633
I9
sa(dp636
g629
I10
sg630
F0.0003268718719482422
sg631
F0.0027267932891845703
sg632
I5
sg633
I5
sa(dp637
g629
I6
sg630
F0.0001609325408935547
sg631
F0.0017828941345214844
sg632
I3
sg633
I3
sasS'total_cqs'
p638
I76
ssI57
(dp639
S'iters'
p640
I6
sS'meta'
p641
(lp642
(dp643
S'objective'
p644
I148
sS'query_time'
p645
F69.60734701156616
sS'comp_time'
p646
F6.020607233047485
sS'exec_cq'
p647
I51
sS'total_cq'
p648
I51
sa(dp649
g644
I17
sg645
F0.018455982208251953
sg646
F0.04648995399475098
sg647
I31
sg648
I31
sa(dp650
g644
I7
sg645
F0.015563011169433594
sg646
F0.04404878616333008
sg647
I16
sg648
I16
sa(dp651
g644
I3
sg645
F0.009389162063598633
sg646
F0.03734183311462402
sg647
I10
sg648
I10
sa(dp652
g644
I4
sg645
F0.003010988235473633
sg646
F0.018227338790893555
sg647
I4
sg648
I4
sa(dp653
g644
I5
sg645
F0.001753091812133789
sg646
F0.01565408706665039
sg647
I3
sg648
I3
sasS'total_cqs'
p654
I51
ssI58
(dp655
S'iters'
p656
I6
sS'meta'
p657
(lp658
(dp659
S'objective'
p660
I81887
sS'query_time'
p661
F523.8707399368286
sS'comp_time'
p662
F42.066641092300415
sS'exec_cq'
p663
I486
sS'total_cq'
p664
I486
sa(dp665
g660
I88512
sg661
F11.234535932540894
sg662
F42.15911507606506
sg663
I414
sg664
I414
sa(dp666
g660
I39
sg661
F0.0065860748291015625
sg662
F0.027877092361450195
sg663
I24
sg664
I24
sa(dp667
g660
I21
sg661
F0.004881143569946289
sg662
F0.026513099670410156
sg663
I13
sg664
I13
sa(dp668
g660
I2
sg661
F0.0027208328247070312
sg662
F0.01738715171813965
sg663
I6
sg664
I6
sa(dp669
g660
I226
sg661
F0.0022428035736083984
sg662
F0.01349496841430664
sg663
I3
sg664
I3
sasS'total_cqs'
p670
I486
ssI59
(dp671
S'iters'
p672
I2
sS'meta'
p673
(lp674
(dp675
S'objective'
p676
I10
sS'query_time'
p677
F0.03786897659301758
sS'comp_time'
p678
F0.0015130043029785156
sS'exec_cq'
p679
I7
sS'total_cq'
p680
I7
sa(dp681
g676
I1
sg677
F0.00015497207641601562
sg678
F0.00463414192199707
sg679
I2
sg680
I2
sasS'total_cqs'
p682
I7
ssI60
(dp683
S'iters'
p684
I2
sS'meta'
p685
(lp686
(dp687
S'objective'
p688
I5
sS'query_time'
p689
F0.012243986129760742
sS'comp_time'
p690
F0.0005319118499755859
sS'exec_cq'
p691
I5
sS'total_cq'
p692
I5
sa(dp693
g688
I2
sg689
F6.198883056640625e-05
sg690
F0.00051116943359375
sg691
I4
sg692
I4
sasS'total_cqs'
p694
I5
ssI61
(dp695
S'iters'
p696
I0
sS'meta'
p697
(lp698
sS'total_cqs'
p699
I1
ssI62
(dp700
S'iters'
p701
I2
sS'meta'
p702
(lp703
(dp704
S'objective'
p705
I30
sS'query_time'
p706
F0.05945706367492676
sS'comp_time'
p707
F0.00030517578125
sS'exec_cq'
p708
I12
sS'total_cq'
p709
I12
sa(dp710
g705
I40
sg706
F5.412101745605469e-05
sg707
F0.0001239776611328125
sg708
I9
sg709
I9
sasS'total_cqs'
p711
I12
ssI63
(dp712
S'iters'
p713
I0
sS'meta'
p714
(lp715
sS'total_cqs'
p716
I1
ssI64
(dp717
S'iters'
p718
I3
sS'meta'
p719
(lp720
(dp721
S'objective'
p722
I22
sS'query_time'
p723
F0.15025687217712402
sS'comp_time'
p724
F0.00836491584777832
sS'exec_cq'
p725
I12
sS'total_cq'
p726
I12
sa(dp727
g722
I4
sg723
F0.000186920166015625
sg724
F0.001455068588256836
sg725
I4
sg726
I4
sa(dp728
g722
I2
sg723
F4.1961669921875e-05
sg724
F0.0002791881561279297
sg725
I2
sg726
I2
sasS'total_cqs'
p729
I12
ssI65
(dp730
S'iters'
p731
I4
sS'meta'
p732
(lp733
(dp734
S'objective'
p735
I134
sS'query_time'
p736
F0.8470869064331055
sS'comp_time'
p737
F0.07142901420593262
sS'exec_cq'
p738
I27
sS'total_cq'
p739
I27
sa(dp740
g735
I6
sg736
F0.0015549659729003906
sg737
F0.009652137756347656
sg738
I7
sg739
I7
sa(dp741
g735
I8
sg736
F0.0005021095275878906
sg737
F0.0046427249908447266
sg738
I4
sg739
I4
sa(dp742
g735
I5
sg736
F0.00028395652770996094
sg737
F0.003180980682373047
sg738
I2
sg739
I2
sasS'total_cqs'
p743
I27
ssI66
(dp744
S'iters'
p745
I0
sS'meta'
p746
(lp747
sS'total_cqs'
p748
I1
ssI67
(dp749
S'iters'
p750
I2
sS'meta'
p751
(lp752
(dp753
S'objective'
p754
I546
sS'query_time'
p755
F1.3863639831542969
sS'comp_time'
p756
F0.012817859649658203
sS'exec_cq'
p757
I35
sS'total_cq'
p758
I35
sa(dp759
g754
I4
sg755
F0.0021169185638427734
sg756
F0.010998964309692383
sg757
I2
sg758
I2
sasS'total_cqs'
p760
I35
ssI68
(dp761
S'iters'
p762
I0
sS'meta'
p763
(lp764
sS'total_cqs'
p765
I1
ssI69
(dp766
S'iters'
p767
I1
sS'meta'
p768
(lp769
(dp770
S'objective'
p771
I1272
sS'query_time'
p772
F0.1403980255126953
sS'comp_time'
p773
F0.0002651214599609375
sS'exec_cq'
p774
I51
sS'total_cq'
p775
I51
sasS'total_cqs'
p776
I51
ssI70
(dp777
S'iters'
p778
I3
sS'meta'
p779
(lp780
(dp781
S'objective'
p782
I9
sS'query_time'
p783
F0.014020919799804688
sS'comp_time'
p784
F0.0003299713134765625
sS'exec_cq'
p785
I6
sS'total_cq'
p786
I6
sa(dp787
g782
I5
sg783
F4.100799560546875e-05
sg784
F0.0002532005310058594
sg785
I5
sg786
I5
sa(dp788
g782
I2
sg783
F3.3855438232421875e-05
sg784
F0.00023365020751953125
sg785
I4
sg786
I4
sasS'total_cqs'
p789
I6
ssI71
(dp790
S'iters'
p791
I6
sS'meta'
p792
(lp793
(dp794
S'objective'
p795
I3321
sS'query_time'
p796
F0.2921590805053711
sS'comp_time'
p797
F0.0010941028594970703
sS'exec_cq'
p798
I85
sS'total_cq'
p799
I85
sa(dp800
g795
I3168
sg796
F0.00040602684020996094
sg797
F0.0011510848999023438
sg798
I81
sg799
I81
sa(dp801
g795
I3038
sg796
F0.00030994415283203125
sg797
F0.0007548332214355469
sg798
I77
sg799
I77
sa(dp802
g795
I2903
sg796
F0.00026607513427734375
sg797
F0.0006029605865478516
sg798
I74
sg799
I74
sa(dp803
g795
I14
sg796
F3.600120544433594e-05
sg797
F0.00025916099548339844
sg798
I3
sg799
I3
sa(dp804
g795
I11
sg796
F3.314018249511719e-05
sg797
F0.0002598762512207031
sg798
I2
sg799
I2
sasS'total_cqs'
p805
I85
ssI72
(dp806
S'iters'
p807
I3
sS'meta'
p808
(lp809
(dp810
S'objective'
p811
I12
sS'query_time'
p812
F0.41680002212524414
sS'comp_time'
p813
F0.004184722900390625
sS'exec_cq'
p814
I8
sS'total_cq'
p815
I8
sa(dp816
g811
I4
sg812
F0.0003979206085205078
sg813
F0.004174947738647461
sg814
I6
sg815
I6
sa(dp817
g811
I4
sg812
F7.510185241699219e-05
sg813
F0.00045013427734375
sg814
I3
sg815
I3
sasS'total_cqs'
p818
I8
ssI73
(dp819
S'iters'
p820
I0
sS'meta'
p821
(lp822
sS'total_cqs'
p823
I1
ssI74
(dp824
S'iters'
p825
I0
sS'meta'
p826
(lp827
sS'total_cqs'
p828
I1
ssI75
(dp829
S'iters'
p830
I2
sS'meta'
p831
(lp832
(dp833
S'objective'
p834
I5
sS'query_time'
p835
F0.006062030792236328
sS'comp_time'
p836
F0.00013518333435058594
sS'exec_cq'
p837
I5
sS'total_cq'
p838
I5
sa(dp839
g834
I2
sg835
F2.002716064453125e-05
sg836
F0.0004680156707763672
sg837
I4
sg838
I4
sasS'total_cqs'
p840
I5
ssI76
(dp841
S'iters'
p842
I1
sS'meta'
p843
(lp844
(dp845
S'objective'
p846
I1
sS'query_time'
p847
F0.01203608512878418
sS'comp_time'
p848
F0.004052162170410156
sS'exec_cq'
p849
I2
sS'total_cq'
p850
I2
sasS'total_cqs'
p851
I2
ssI77
(dp852
S'iters'
p853
I0
sS'meta'
p854
(lp855
sS'total_cqs'
p856
I1
ssI78
(dp857
S'iters'
p858
I0
sS'meta'
p859
(lp860
sS'total_cqs'
p861
I1
ssI103
(dp862
S'iters'
p863
I2
sS'meta'
p864
(lp865
(dp866
S'objective'
p867
I58
sS'query_time'
p868
F0.06867218017578125
sS'comp_time'
p869
F0.00024700164794921875
sS'exec_cq'
p870
I12
sS'total_cq'
p871
I12
sa(dp872
g867
I54
sg868
F6.4849853515625e-05
sg869
F0.00015687942504882812
sg870
I11
sg871
I11
sasS'total_cqs'
p873
I12
ssI104
(dp874
S'iters'
p875
I2
sS'meta'
p876
(lp877
(dp878
S'objective'
p879
I2
sS'query_time'
p880
F1.54874587059021
sS'comp_time'
p881
F0.14875006675720215
sS'exec_cq'
p882
I4
sS'total_cq'
p883
I4
sa(dp884
g879
I0
sg880
F0.03793215751647949
sg881
F0.10906195640563965
sg882
I3
sg883
I3
sasS'total_cqs'
p885
I4
ssI105
(dp886
S'iters'
p887
I0
sS'meta'
p888
(lp889
sS'total_cqs'
p890
I1
ssI106
(dp891
S'iters'
p892
I1
sS'meta'
p893
(lp894
(dp895
S'objective'
p896
I4
sS'query_time'
p897
F0.019160985946655273
sS'comp_time'
p898
F0.0001270771026611328
sS'exec_cq'
p899
I4
sS'total_cq'
p900
I4
sasS'total_cqs'
p901
I4
ssI107
(dp902
S'iters'
p903
I2
sS'meta'
p904
(lp905
(dp906
S'objective'
p907
I78
sS'query_time'
p908
F0.07758188247680664
sS'comp_time'
p909
F0.0002608299255371094
sS'exec_cq'
p910
I16
sS'total_cq'
p911
I16
sa(dp912
g907
I11
sg908
F3.0994415283203125e-05
sg909
F0.000164031982421875
sg910
I3
sg911
I3
sasS'total_cqs'
p913
I16
ssI108
(dp914
S'iters'
p915
I0
sS'meta'
p916
(lp917
sS'total_cqs'
p918
I1
ss.