(dp0
I1
(dp1
S'iters'
p2
I1
sS'meta'
p3
(lp4
(dp5
S'objective'
p6
I58
sS'query_time'
p7
F0.017355918884277344
sS'comp_time'
p8
F7.200241088867188e-05
sS'exec_cq'
p9
I3
sS'total_cq'
p10
I12
sasS'total_cqs'
p11
I12
ssI2
(dp12
S'iters'
p13
I4
sS'meta'
p14
(lp15
(dp16
S'objective'
p17
I286
sS'query_time'
p18
F0.026459932327270508
sS'comp_time'
p19
F7.414817810058594e-05
sS'exec_cq'
p20
I1
sS'total_cq'
p21
I27
sa(dp22
g17
I254
sg18
F0.020242929458618164
sg19
F5.3882598876953125e-05
sg20
I1
sg21
I25
sa(dp23
g17
I243
sg18
F0.016093969345092773
sg19
F5.888938903808594e-05
sg20
I1
sg21
I22
sa(dp24
g17
I224
sg18
F0.0250089168548584
sg19
F9.512901306152344e-05
sg20
I3
sg21
I21
sasS'total_cqs'
p25
I27
ssI3
(dp26
S'iters'
p27
I4
sS'meta'
p28
(lp29
(dp30
S'objective'
p31
I460
sS'query_time'
p32
F33.36889290809631
sS'comp_time'
p33
F8.296966552734375e-05
sS'exec_cq'
p34
I2
sS'total_cq'
p35
I43
sa(dp36
g31
I403
sg32
F7.440536975860596
sg33
F0.0005152225494384766
sg34
I2
sg35
I34
sa(dp37
g31
I287
sg32
F4.65117883682251
sg33
F0.0001480579376220703
sg34
I2
sg35
I29
sa(dp38
g31
I352
sg32
F7.583015203475952
sg33
F9.107589721679688e-05
sg34
I4
sg35
I23
sasS'total_cqs'
p39
I43
ssI4
(dp40
S'iters'
p41
I1
sS'meta'
p42
(lp43
(dp44
S'objective'
p45
I46
sS'query_time'
p46
F3.6758601665496826
sS'comp_time'
p47
F0.00020694732666015625
sS'exec_cq'
p48
I2
sS'total_cq'
p49
I11
sasS'total_cqs'
p50
I11
ssI5
(dp51
S'iters'
p52
I2
sS'meta'
p53
(lp54
(dp55
S'objective'
p56
I8
sS'query_time'
p57
F6.674484968185425
sS'comp_time'
p58
F0.0004410743713378906
sS'exec_cq'
p59
I1
sS'total_cq'
p60
I8
sa(dp61
g56
I8
sg57
F0.289290189743042
sg58
F5.7220458984375e-05
sg59
I1
sg60
I5
sasS'total_cqs'
p62
I8
ssI6
(dp63
S'iters'
p64
I2
sS'meta'
p65
(lp66
(dp67
S'objective'
p68
I115
sS'query_time'
p69
F0.08920693397521973
sS'comp_time'
p70
F0.0001430511474609375
sS'exec_cq'
p71
I3
sS'total_cq'
p72
I18
sa(dp73
g68
I113
sg69
F0.6375730037689209
sg70
F9.894371032714844e-05
sg71
I3
sg72
I16
sasS'total_cqs'
p74
I18
ssI7
(dp75
S'iters'
p76
I3
sS'meta'
p77
(lp78
(dp79
S'objective'
p80
I27
sS'query_time'
p81
F0.18282485008239746
sS'comp_time'
p82
F7.581710815429688e-05
sS'exec_cq'
p83
I1
sS'total_cq'
p84
I9
sa(dp85
g80
I4
sg81
F0.2227611541748047
sg82
F6.508827209472656e-05
sg83
I1
sg84
I8
sa(dp86
g80
I0
sg81
F0.005652904510498047
sg82
F2.8133392333984375e-05
sg83
I1
sg84
I3
sasS'total_cqs'
p87
I9
ssI8
(dp88
S'iters'
p89
I5
sS'meta'
p90
(lp91
(dp92
S'objective'
p93
I326
sS'query_time'
p94
F0.03627896308898926
sS'comp_time'
p95
F7.605552673339844e-05
sS'exec_cq'
p96
I2
sS'total_cq'
p97
I27
sa(dp98
g93
I276
sg94
F0.01908707618713379
sg95
F6.008148193359375e-05
sg96
I3
sg97
I26
sa(dp99
g93
I264
sg94
F0.013331890106201172
sg95
F6.008148193359375e-05
sg96
I3
sg97
I23
sa(dp100
g93
I217
sg94
F0.023777008056640625
sg95
F6.508827209472656e-05
sg96
I3
sg97
I21
sa(dp101
g93
I8
sg94
F0.012718915939331055
sg95
F5.3882598876953125e-05
sg96
I2
sg97
I2
sasS'total_cqs'
p102
I27
ssI9
(dp103
S'iters'
p104
I2
sS'meta'
p105
(lp106
(dp107
S'objective'
p108
I10
sS'query_time'
p109
F0.017482995986938477
sS'comp_time'
p110
F5.0067901611328125e-05
sS'exec_cq'
p111
I1
sS'total_cq'
p112
I7
sa(dp113
g108
I5
sg109
F0.02362799644470215
sg110
F5.0067901611328125e-05
sg111
I2
sg112
I5
sasS'total_cqs'
p114
I7
ssI10
(dp115
S'iters'
p116
I8
sS'meta'
p117
(lp118
(dp119
S'objective'
p120
I1168
sS'query_time'
p121
F0.09867715835571289
sS'comp_time'
p122
F7.915496826171875e-05
sS'exec_cq'
p123
I2
sS'total_cq'
p124
I51
sa(dp125
g120
I1049
sg121
F0.05373096466064453
sg122
F8.487701416015625e-05
sg123
I2
sg124
I49
sa(dp126
g120
I962
sg121
F0.09005880355834961
sg122
F8.916854858398438e-05
sg123
I3
sg124
I45
sa(dp127
g120
I711
sg121
F0.027815818786621094
sg122
F4.601478576660156e-05
sg123
I3
sg124
I40
sa(dp128
g120
I313
sg121
F0.0458979606628418
sg122
F5.4836273193359375e-05
sg123
I3
sg124
I33
sa(dp129
g120
I512
sg121
F0.017942190170288086
sg122
F5.3882598876953125e-05
sg123
I3
sg124
I23
sa(dp130
g120
I413
sg121
F0.016941070556640625
sg122
F5.0067901611328125e-05
sg123
I3
sg124
I22
sa(dp131
g120
I9
sg121
F0.0032460689544677734
sg122
F4.601478576660156e-05
sg123
I2
sg124
I2
sasS'total_cqs'
p132
I51
ssI11
(dp133
S'iters'
p134
I9
sS'meta'
p135
(lp136
(dp137
S'objective'
p138
I1890
sS'query_time'
p139
F0.27564096450805664
sS'comp_time'
p140
F0.00011205673217773438
sS'exec_cq'
p141
I1
sS'total_cq'
p142
I63
sa(dp143
g138
I1509
sg139
F0.09215784072875977
sg140
F9.894371032714844e-05
sg141
I1
sg142
I62
sa(dp144
g138
I1611
sg139
F0.10310006141662598
sg140
F7.486343383789062e-05
sg141
I2
sg142
I57
sa(dp145
g138
I877
sg139
F0.08392906188964844
sg140
F7.581710815429688e-05
sg141
I4
sg142
I56
sa(dp146
g138
I1166
sg139
F0.051577091217041016
sg140
F6.198883056640625e-05
sg141
I5
sg142
I42
sa(dp147
g138
I1064
sg139
F0.05128002166748047
sg140
F6.604194641113281e-05
sg141
I6
sg142
I40
sa(dp148
g138
I880
sg139
F0.048789024353027344
sg140
F5.2928924560546875e-05
sg141
I6
sg142
I38
sa(dp149
g138
I27
sg139
F0.01777195930480957
sg140
F5.0067901611328125e-05
sg141
I2
sg142
I5
sa(dp150
g138
I46
sg139
F0.001895904541015625
sg140
F4.601478576660156e-05
sg141
I2
sg142
I2
sasS'total_cqs'
p151
I63
ssI12
(dp152
S'iters'
p153
I7
sS'meta'
p154
(lp155
(dp156
S'objective'
p157
I355
sS'query_time'
p158
F0.05347609519958496
sS'comp_time'
p159
F6.008148193359375e-05
sS'exec_cq'
p160
I1
sS'total_cq'
p161
I50
sa(dp162
g157
I719
sg158
F0.11292600631713867
sg159
F8.392333984375e-05
sg160
I1
sg161
I33
sa(dp163
g157
I565
sg158
F0.019170045852661133
sg159
F6.103515625e-05
sg160
I1
sg161
I32
sa(dp164
g157
I426
sg158
F0.04931998252868652
sg159
F7.200241088867188e-05
sg160
I1
sg161
I29
sa(dp165
g157
I426
sg158
F0.03892803192138672
sg159
F4.100799560546875e-05
sg160
I2
sg161
I25
sa(dp166
g157
I320
sg158
F0.05045509338378906
sg159
F5.0067901611328125e-05
sg160
I3
sg161
I23
sa(dp167
g157
I5
sg158
F0.010142087936401367
sg159
F4.100799560546875e-05
sg160
I2
sg161
I3
sasS'total_cqs'
p168
I50
ssI13
(dp169
S'iters'
p170
I3
sS'meta'
p171
(lp172
(dp173
S'objective'
p174
I2
sS'query_time'
p175
F0.04297614097595215
sS'comp_time'
p176
F5.4836273193359375e-05
sS'exec_cq'
p177
I1
sS'total_cq'
p178
I20
sa(dp179
g174
I42
sg175
F0.011111021041870117
sg176
F4.38690185546875e-05
sg177
I3
sg178
I9
sa(dp180
g174
I1
sg175
F0.006136178970336914
sg176
F6.389617919921875e-05
sg177
I2
sg178
I2
sasS'total_cqs'
p181
I20
ssI14
(dp182
S'iters'
p183
I2
sS'meta'
p184
(lp185
(dp186
S'objective'
p187
I3
sS'query_time'
p188
F0.4737088680267334
sS'comp_time'
p189
F7.605552673339844e-05
sS'exec_cq'
p190
I1
sS'total_cq'
p191
I9
sa(dp192
g187
I8
sg188
F0.03984189033508301
sg189
F3.600120544433594e-05
sg190
I1
sg191
I3
sasS'total_cqs'
p193
I9
ssI15
(dp194
S'iters'
p195
I1
sS'meta'
p196
(lp197
(dp198
S'objective'
p199
I46
sS'query_time'
p200
F0.0484318733215332
sS'comp_time'
p201
F6.890296936035156e-05
sS'exec_cq'
p202
I2
sS'total_cq'
p203
I11
sasS'total_cqs'
p204
I11
ssI16
(dp205
S'iters'
p206
I1
sS'meta'
p207
(lp208
(dp209
S'objective'
p210
I22
sS'query_time'
p211
F0.009942054748535156
sS'comp_time'
p212
F4.696846008300781e-05
sS'exec_cq'
p213
I2
sS'total_cq'
p214
I8
sasS'total_cqs'
p215
I8
ssI17
(dp216
S'iters'
p217
I2
sS'meta'
p218
(lp219
(dp220
S'objective'
p221
I44
sS'query_time'
p222
F0.01670098304748535
sS'comp_time'
p223
F5.1975250244140625e-05
sS'exec_cq'
p224
I1
sS'total_cq'
p225
I11
sa(dp226
g221
I35
sg222
F0.02344202995300293
sg223
F6.699562072753906e-05
sg224
I1
sg225
I10
sasS'total_cqs'
p227
I11
ssI18
(dp228
S'iters'
p229
I2
sS'meta'
p230
(lp231
(dp232
S'objective'
p233
I32
sS'query_time'
p234
F0.02669811248779297
sS'comp_time'
p235
F7.510185241699219e-05
sS'exec_cq'
p236
I1
sS'total_cq'
p237
I11
sa(dp238
g233
I29
sg234
F0.012119054794311523
sg235
F6.008148193359375e-05
sg236
I1
sg237
I9
sasS'total_cqs'
p239
I11
ssI19
(dp240
S'iters'
p241
I0
sS'meta'
p242
(lp243
sS'total_cqs'
p244
I1
ssI20
(dp245
S'iters'
p246
I0
sS'meta'
p247
(lp248
sS'total_cqs'
p249
I1
ssI21
(dp250
S'iters'
p251
I0
sS'meta'
p252
(lp253
sS'total_cqs'
p254
I1
ssI22
(dp255
S'iters'
p256
I1
sS'meta'
p257
(lp258
(dp259
S'objective'
p260
I141
sS'query_time'
p261
F0.02995610237121582
sS'comp_time'
p262
F6.890296936035156e-05
sS'exec_cq'
p263
I4
sS'total_cq'
p264
I18
sasS'total_cqs'
p265
I18
ssI23
(dp266
S'iters'
p267
I2
sS'meta'
p268
(lp269
(dp270
S'objective'
p271
I88
sS'query_time'
p272
F0.013731002807617188
sS'comp_time'
p273
F5.316734313964844e-05
sS'exec_cq'
p274
I1
sS'total_cq'
p275
I16
sa(dp276
g271
I86
sg272
F0.012245893478393555
sg273
F4.291534423828125e-05
sg274
I3
sg275
I14
sasS'total_cqs'
p277
I16
ssI24
(dp278
S'iters'
p279
I0
sS'meta'
p280
(lp281
sS'total_cqs'
p282
I1
ssI25
(dp283
S'iters'
p284
I0
sS'meta'
p285
(lp286
sS'total_cqs'
p287
I1
ssI26
(dp288
S'iters'
p289
I1
sS'meta'
p290
(lp291
(dp292
S'objective'
p293
I837
sS'query_time'
p294
F0.054466962814331055
sS'comp_time'
p295
F7.891654968261719e-05
sS'exec_cq'
p296
I10
sS'total_cq'
p297
I42
sasS'total_cqs'
p298
I42
ssI27
(dp299
S'iters'
p300
I2
sS'meta'
p301
(lp302
(dp303
S'objective'
p304
I379
sS'query_time'
p305
F1.1351039409637451
sS'comp_time'
p306
F8.296966552734375e-05
sS'exec_cq'
p307
I1
sS'total_cq'
p308
I30
sa(dp309
g304
I374
sg305
F3.0410399436950684
sg306
F9.894371032714844e-05
sg307
I6
sg308
I27
sasS'total_cqs'
p310
I30
ssI28
(dp311
S'iters'
p312
I0
sS'meta'
p313
(lp314
sS'total_cqs'
p315
I1
ssI29
(dp316
S'iters'
p317
I12
sS'meta'
p318
(lp319
(dp320
S'objective'
p321
I959
sS'query_time'
p322
F1.008389949798584
sS'comp_time'
p323
F9.608268737792969e-05
sS'exec_cq'
p324
I1
sS'total_cq'
p325
I49
sa(dp326
g321
I998
sg322
F0.8091630935668945
sg323
F9.012222290039062e-05
sg324
I1
sg325
I45
sa(dp327
g321
I851
sg322
F2.186333179473877
sg323
F0.0001010894775390625
sg324
I1
sg325
I44
sa(dp328
g321
I814
sg322
F0.49077296257019043
sg323
F0.0001049041748046875
sg324
I1
sg325
I41
sa(dp329
g321
I793
sg322
F29.24818205833435
sg323
F0.0005280971527099609
sg324
I1
sg325
I38
sa(dp330
g321
I699
sg322
F0.1969470977783203
sg323
F6.389617919921875e-05
sg324
I1
sg325
I37
sa(dp331
g321
I604
sg322
F0.6269340515136719
sg323
F8.392333984375e-05
sg324
I1
sg325
I35
sa(dp332
g321
I580
sg322
F0.3663630485534668
sg323
F9.083747863769531e-05
sg324
I1
sg325
I31
sa(dp333
g321
I553
sg322
F29.56931710243225
sg323
F0.0001418590545654297
sg324
I1
sg325
I29
sa(dp334
g321
I515
sg322
F1.546553134918213
sg323
F0.00011992454528808594
sg324
I1
sg325
I28
sa(dp335
g321
I446
sg322
F0.22440600395202637
sg323
F7.295608520507812e-05
sg324
I1
sg325
I27
sa(dp336
g321
I22
sg322
F0.024806976318359375
sg323
F3.886222839355469e-05
sg324
I1
sg325
I2
sasS'total_cqs'
p337
I49
ssI30
(dp338
S'iters'
p339
I1
sS'meta'
p340
(lp341
(dp342
S'objective'
p343
I1
sS'query_time'
p344
F0.6850459575653076
sS'comp_time'
p345
F6.794929504394531e-05
sS'exec_cq'
p346
I1
sS'total_cq'
p347
I2
sasS'total_cqs'
p348
I2
ssI31
(dp349
S'iters'
p350
I0
sS'meta'
p351
(lp352
sS'total_cqs'
p353
I1
ssI32
(dp354
S'iters'
p355
I1
sS'meta'
p356
(lp357
(dp358
S'objective'
p359
I1
sS'query_time'
p360
F0.008620023727416992
sS'comp_time'
p361
F6.008148193359375e-05
sS'exec_cq'
p362
I1
sS'total_cq'
p363
I2
sasS'total_cqs'
p364
I2
ssI33
(dp365
S'iters'
p366
I10
sS'meta'
p367
(lp368
(dp369
S'objective'
p370
I5150
sS'query_time'
p371
F2.0047919750213623
sS'comp_time'
p372
F0.00010800361633300781
sS'exec_cq'
p373
I1
sS'total_cq'
p374
I103
sa(dp375
g370
I4781
sg371
F0.9250431060791016
sg372
F9.989738464355469e-05
sg373
I3
sg374
I102
sa(dp376
g370
I4823
sg371
F0.6753671169281006
sg372
F0.00014591217041015625
sg373
I5
sg374
I99
sa(dp377
g370
I4728
sg371
F1.1741909980773926
sg372
F0.0001380443572998047
sg373
I5
sg374
I98
sa(dp378
g370
I4620
sg371
F0.7556219100952148
sg372
F0.00012803077697753906
sg373
I6
sg374
I97
sa(dp379
g370
I4422
sg371
F3.3076438903808594
sg372
F0.00015091896057128906
sg373
I6
sg374
I95
sa(dp380
g370
I4318
sg371
F0.6066339015960693
sg372
F0.00013399124145507812
sg373
I12
sg374
I93
sa(dp381
g370
I4275
sg371
F0.42034292221069336
sg372
F7.581710815429688e-05
sg373
I12
sg374
I91
sa(dp382
g370
I4016
sg371
F0.597877025604248
sg372
F0.000125885009765625
sg373
I17
sg374
I90
sa(dp383
g370
I14
sg371
F0.035491228103637695
sg372
F5.817413330078125e-05
sg373
I1
sg374
I3
sasS'total_cqs'
p384
I103
ssI34
(dp385
S'iters'
p386
I1
sS'meta'
p387
(lp388
(dp389
S'objective'
p390
I1
sS'query_time'
p391
F0.013676166534423828
sS'comp_time'
p392
F5.5789947509765625e-05
sS'exec_cq'
p393
I1
sS'total_cq'
p394
I2
sasS'total_cqs'
p395
I2
ssI35
(dp396
S'iters'
p397
I6
sS'meta'
p398
(lp399
(dp400
S'objective'
p401
I2351
sS'query_time'
p402
F20.074326038360596
sS'comp_time'
p403
F0.0001049041748046875
sS'exec_cq'
p404
I4
sS'total_cq'
p405
I70
sa(dp406
g401
I1698
sg402
F0.4669668674468994
sg403
F0.00011992454528808594
sg404
I4
sg405
I69
sa(dp407
g401
I1856
sg402
F20.07643699645996
sg403
F0.00016307830810546875
sg404
I4
sg405
I60
sa(dp408
g401
I1639
sg402
F0.8090610504150391
sg403
F0.00021696090698242188
sg404
I4
sg405
I58
sa(dp409
g401
I31
sg402
F0.011831045150756836
sg403
F3.504753112792969e-05
sg404
I1
sg405
I4
sa(dp410
g401
I13
sg402
F0.04956698417663574
sg403
F5.602836608886719e-05
sg404
I1
sg405
I3
sasS'total_cqs'
p411
I70
ssI36
(dp412
S'iters'
p413
I2
sS'meta'
p414
(lp415
(dp416
S'objective'
p417
I499
sS'query_time'
p418
F0.30115199089050293
sS'comp_time'
p419
F7.295608520507812e-05
sS'exec_cq'
p420
I3
sS'total_cq'
p421
I33
sa(dp422
g417
I478
sg418
F0.06235504150390625
sg419
F0.0001277923583984375
sg420
I7
sg421
I32
sasS'total_cqs'
p423
I33
ssI37
(dp424
S'iters'
p425
I1
sS'meta'
p426
(lp427
(dp428
S'objective'
p429
I1
sS'query_time'
p430
F0.009344100952148438
sS'comp_time'
p431
F4.601478576660156e-05
sS'exec_cq'
p432
I1
sS'total_cq'
p433
I2
sasS'total_cqs'
p434
I2
ssI38
(dp435
S'iters'
p436
I1
sS'meta'
p437
(lp438
(dp439
S'objective'
p440
I2
sS'query_time'
p441
F0.013910055160522461
sS'comp_time'
p442
F6.008148193359375e-05
sS'exec_cq'
p443
I1
sS'total_cq'
p444
I4
sasS'total_cqs'
p445
I4
ssI39
(dp446
S'iters'
p447
I2
sS'meta'
p448
(lp449
(dp450
S'objective'
p451
I576
sS'query_time'
p452
F0.05463981628417969
sS'comp_time'
p453
F8.511543273925781e-05
sS'exec_cq'
p454
I3
sS'total_cq'
p455
I44
sa(dp456
g451
I139
sg452
F0.04270601272583008
sg453
F7.390975952148438e-05
sg454
I2
sg455
I8
sasS'total_cqs'
p457
I44
ssI40
(dp458
S'iters'
p459
I1
sS'meta'
p460
(lp461
(dp462
S'objective'
p463
I14
sS'query_time'
p464
F0.014549970626831055
sS'comp_time'
p465
F5.0067901611328125e-05
sS'exec_cq'
p466
I1
sS'total_cq'
p467
I7
sasS'total_cqs'
p468
I7
ssI41
(dp469
S'iters'
p470
I2
sS'meta'
p471
(lp472
(dp473
S'objective'
p474
I56
sS'query_time'
p475
F0.02737712860107422
sS'comp_time'
p476
F5.984306335449219e-05
sS'exec_cq'
p477
I2
sS'total_cq'
p478
I12
sa(dp479
g474
I47
sg475
F0.022212982177734375
sg476
F7.104873657226562e-05
sg477
I2
sg478
I11
sasS'total_cqs'
p480
I12
ssI42
(dp481
S'iters'
p482
I1
sS'meta'
p483
(lp484
(dp485
S'objective'
p486
I797
sS'query_time'
p487
F0.03777003288269043
sS'comp_time'
p488
F8.487701416015625e-05
sS'exec_cq'
p489
I10
sS'total_cq'
p490
I41
sasS'total_cqs'
p491
I41
ssI43
(dp492
S'iters'
p493
I1
sS'meta'
p494
(lp495
(dp496
S'objective'
p497
I14
sS'query_time'
p498
F0.012130022048950195
sS'comp_time'
p499
F4.7206878662109375e-05
sS'exec_cq'
p500
I1
sS'total_cq'
p501
I7
sasS'total_cqs'
p502
I7
ssI44
(dp503
S'iters'
p504
I3
sS'meta'
p505
(lp506
(dp507
S'objective'
p508
I784
sS'query_time'
p509
F0.05054497718811035
sS'comp_time'
p510
F7.605552673339844e-05
sS'exec_cq'
p511
I9
sS'total_cq'
p512
I47
sa(dp513
g508
I866
sg509
F0.031191110610961914
sg510
F7.796287536621094e-05
sg511
I10
sg512
I40
sa(dp514
g508
I29
sg509
F0.030673980712890625
sg510
F5.1975250244140625e-05
sg511
I2
sg512
I2
sasS'total_cqs'
p515
I47
ssI45
(dp516
S'iters'
p517
I0
sS'meta'
p518
(lp519
sS'total_cqs'
p520
I1
ssI46
(dp521
S'iters'
p522
I1
sS'meta'
p523
(lp524
(dp525
S'objective'
p526
I9
sS'query_time'
p527
F0.00701904296875
sS'comp_time'
p528
F6.604194641113281e-05
sS'exec_cq'
p529
I1
sS'total_cq'
p530
I6
sasS'total_cqs'
p531
I6
ssI47
(dp532
S'iters'
p533
I1
sS'meta'
p534
(lp535
(dp536
S'objective'
p537
I1
sS'query_time'
p538
F0.006592988967895508
sS'comp_time'
p539
F6.103515625e-05
sS'exec_cq'
p540
I1
sS'total_cq'
p541
I2
sasS'total_cqs'
p542
I2
ssI48
(dp543
S'iters'
p544
I0
sS'meta'
p545
(lp546
sS'total_cqs'
p547
I1
ssI49
(dp548
S'iters'
p549
I0
sS'meta'
p550
(lp551
sS'total_cqs'
p552
I1
ssI50
(dp553
S'iters'
p554
I1
sS'meta'
p555
(lp556
(dp557
S'objective'
p558
I5
sS'query_time'
p559
F0.0073239803314208984
sS'comp_time'
p560
F5.793571472167969e-05
sS'exec_cq'
p561
I1
sS'total_cq'
p562
I5
sasS'total_cqs'
p563
I5
ssI51
(dp564
S'iters'
p565
I1
sS'meta'
p566
(lp567
(dp568
S'objective'
p569
I1
sS'query_time'
p570
F0.0059010982513427734
sS'comp_time'
p571
F4.982948303222656e-05
sS'exec_cq'
p572
I1
sS'total_cq'
p573
I2
sasS'total_cqs'
p574
I2
ssI52
(dp575
S'iters'
p576
I1
sS'meta'
p577
(lp578
(dp579
S'objective'
p580
I1
sS'query_time'
p581
F0.0048520565032958984
sS'comp_time'
p582
F3.719329833984375e-05
sS'exec_cq'
p583
I1
sS'total_cq'
p584
I2
sasS'total_cqs'
p585
I2
ssI53
(dp586
S'iters'
p587
I2
sS'meta'
p588
(lp589
(dp590
S'objective'
p591
I2
sS'query_time'
p592
F0.01163482666015625
sS'comp_time'
p593
F6.198883056640625e-05
sS'exec_cq'
p594
I1
sS'total_cq'
p595
I4
sa(dp596
g591
I2
sg592
F0.002888917922973633
sg593
F5.0067901611328125e-05
sg594
I1
sg595
I2
sasS'total_cqs'
p597
I4
ssI54
(dp598
S'iters'
p599
I2
sS'meta'
p600
(lp601
(dp602
S'objective'
p603
I4
sS'query_time'
p604
F0.004363059997558594
sS'comp_time'
p605
F4.410743713378906e-05
sS'exec_cq'
p606
I1
sS'total_cq'
p607
I3
sa(dp608
g603
I1
sg604
F0.002986907958984375
sg605
F3.0994415283203125e-05
sg606
I1
sg607
I2
sasS'total_cqs'
p609
I3
ssI55
(dp610
S'iters'
p611
I11
sS'meta'
p612
(lp613
(dp614
S'objective'
p615
I5569
sS'query_time'
p616
F0.21536707878112793
sS'comp_time'
p617
F0.0001399517059326172
sS'exec_cq'
p618
I1
sS'total_cq'
p619
I109
sa(dp620
g615
I5554
sg616
F0.6495118141174316
sg617
F0.0001270771026611328
sg618
I8
sg619
I107
sa(dp621
g615
I5316
sg616
F0.2501509189605713
sg617
F0.00011897087097167969
sg618
I9
sg619
I105
sa(dp622
g615
I5298
sg616
F0.14456701278686523
sg617
F7.605552673339844e-05
sg618
I9
sg619
I103
sa(dp623
g615
I5023
sg616
F0.20167279243469238
sg617
F0.00014400482177734375
sg618
I13
sg619
I102
sa(dp624
g615
I5005
sg616
F0.1255638599395752
sg617
F8.893013000488281e-05
sg618
I13
sg619
I98
sa(dp625
g615
I4795
sg616
F0.15623712539672852
sg617
F7.081031799316406e-05
sg618
I15
sg619
I96
sa(dp626
g615
I4581
sg616
F0.15474700927734375
sg617
F9.799003601074219e-05
sg618
I19
sg619
I94
sa(dp627
g615
I167
sg616
F0.0076580047607421875
sg617
F3.3855438232421875e-05
sg618
I1
sg619
I4
sa(dp628
g615
I150
sg616
F0.008839130401611328
sg617
F3.1948089599609375e-05
sg618
I1
sg619
I3
sa(dp629
g615
I3
sg616
F0.0688478946685791
sg617
F6.008148193359375e-05
sg618
I2
sg619
I2
sasS'total_cqs'
p630
I109
ssI56
(dp631
S'iters'
p632
I6
sS'meta'
p633
(lp634
(dp635
S'objective'
p636
I2356
sS'query_time'
p637
F0.45329809188842773
sS'comp_time'
p638
F0.00010204315185546875
sS'exec_cq'
p639
I2
sS'total_cq'
p640
I76
sa(dp641
g636
I2145
sg637
F0.23670005798339844
sg638
F9.298324584960938e-05
sg639
I6
sg640
I69
sa(dp642
g636
I2257
sg637
F0.1899418830871582
sg638
F0.00013184547424316406
sg639
I7
sg640
I64
sa(dp643
g636
I2153
sg637
F0.34623003005981445
sg638
F0.00010895729064941406
sg639
I11
sg640
I63
sa(dp644
g636
I2117
sg637
F0.16148591041564941
sg638
F8.416175842285156e-05
sg639
I12
sg640
I61
sa(dp645
g636
I55
sg637
F0.010514974594116211
sg638
F3.409385681152344e-05
sg639
I1
sg640
I2
sasS'total_cqs'
p646
I76
ssI57
(dp647
S'iters'
p648
I6
sS'meta'
p649
(lp650
(dp651
S'objective'
p652
I1222
sS'query_time'
p653
F3.130345106124878
sS'comp_time'
p654
F0.00010204315185546875
sS'exec_cq'
p655
I1
sS'total_cq'
p656
I51
sa(dp657
g652
I1062
sg653
F0.48296093940734863
sg654
F8.606910705566406e-05
sg655
I1
sg656
I49
sa(dp658
g652
I646
sg653
F2.309378147125244
sg654
F9.703636169433594e-05
sg655
I1
sg656
I46
sa(dp659
g652
I659
sg653
F0.4320838451385498
sg654
F0.0001430511474609375
sg655
I1
sg656
I38
sa(dp660
g652
I52
sg653
F0.05366206169128418
sg654
F3.409385681152344e-05
sg655
I1
sg656
I4
sa(dp661
g652
I8
sg653
F0.01947307586669922
sg654
F4.601478576660156e-05
sg655
I1
sg656
I2
sasS'total_cqs'
p662
I51
ssI58
(dp663
S'iters'
p664
I11
sS'meta'
p665
(lp666
(dp667
S'objective'
p668
I117387
sS'query_time'
p669
F8.869423866271973
sS'comp_time'
p670
F0.00033402442932128906
sS'exec_cq'
p671
I10
sS'total_cq'
p672
I486
sa(dp673
g668
I114144
sg669
F4.472107887268066
sg670
F0.0007960796356201172
sg671
I10
sg672
I485
sa(dp674
g668
I112480
sg669
F1.2651610374450684
sg670
F0.00025010108947753906
sg671
I10
sg672
I479
sa(dp675
g668
I112222
sg669
F2.218073844909668
sg670
F0.0005040168762207031
sg671
I11
sg672
I474
sa(dp676
g668
I106358
sg669
F11.702078819274902
sg670
F0.0002601146697998047
sg671
I12
sg672
I471
sa(dp677
g668
I93683
sg669
F2.00007700920105
sg670
F0.0002548694610595703
sg671
I12
sg672
I459
sa(dp678
g668
I7118
sg669
F0.4362211227416992
sg670
F4.506111145019531e-05
sg671
I1
sg672
I36
sa(dp679
g668
I4115
sg669
F0.36734914779663086
sg670
F8.106231689453125e-05
sg671
I1
sg672
I35
sa(dp680
g668
I3377
sg669
F0.8506879806518555
sg670
F0.00014519691467285156
sg671
I1
sg672
I27
sa(dp681
g668
I363
sg669
F0.0642249584197998
sg670
F6.198883056640625e-05
sg671
I1
sg672
I4
sa(dp682
g668
I68
sg669
F0.09090304374694824
sg670
F6.29425048828125e-05
sg671
I1
sg672
I3
sasS'total_cqs'
p683
I486
ssI59
(dp684
S'iters'
p685
I2
sS'meta'
p686
(lp687
(dp688
S'objective'
p689
I8
sS'query_time'
p690
F0.020205974578857422
sS'comp_time'
p691
F6.508827209472656e-05
sS'exec_cq'
p692
I1
sS'total_cq'
p693
I7
sa(dp694
g689
I4
sg690
F0.03703904151916504
sg691
F6.699562072753906e-05
sg692
I2
sg693
I2
sasS'total_cqs'
p695
I7
ssI60
(dp696
S'iters'
p697
I1
sS'meta'
p698
(lp699
(dp700
S'objective'
p701
I5
sS'query_time'
p702
F0.005975961685180664
sS'comp_time'
p703
F4.792213439941406e-05
sS'exec_cq'
p704
I1
sS'total_cq'
p705
I5
sasS'total_cqs'
p706
I5
ssI61
(dp707
S'iters'
p708
I0
sS'meta'
p709
(lp710
sS'total_cqs'
p711
I1
ssI62
(dp712
S'iters'
p713
I2
sS'meta'
p714
(lp715
(dp716
S'objective'
p717
I20
sS'query_time'
p718
F0.012671947479248047
sS'comp_time'
p719
F4.291534423828125e-05
sS'exec_cq'
p720
I1
sS'total_cq'
p721
I12
sa(dp722
g717
I29
sg718
F0.007722139358520508
sg719
F4.1961669921875e-05
sg720
I2
sg721
I9
sasS'total_cqs'
p723
I12
ssI63
(dp724
S'iters'
p725
I0
sS'meta'
p726
(lp727
sS'total_cqs'
p728
I1
ssI64
(dp729
S'iters'
p730
I4
sS'meta'
p731
(lp732
(dp733
S'objective'
p734
I54
sS'query_time'
p735
F0.04599404335021973
sS'comp_time'
p736
F5.2928924560546875e-05
sS'exec_cq'
p737
I1
sS'total_cq'
p738
I12
sa(dp739
g734
I44
sg735
F0.09444093704223633
sg736
F7.796287536621094e-05
sg737
I1
sg738
I11
sa(dp740
g734
I19
sg735
F0.02849102020263672
sg736
F4.8160552978515625e-05
sg737
I1
sg738
I10
sa(dp741
g734
I2
sg735
F0.005172014236450195
sg736
F3.0040740966796875e-05
sg737
I1
sg738
I2
sasS'total_cqs'
p742
I12
ssI65
(dp743
S'iters'
p744
I4
sS'meta'
p745
(lp746
(dp747
S'objective'
p748
I324
sS'query_time'
p749
F0.031365156173706055
sS'comp_time'
p750
F8.20159912109375e-05
sS'exec_cq'
p751
I1
sS'total_cq'
p752
I27
sa(dp753
g748
I305
sg749
F0.06705498695373535
sg750
F8.58306884765625e-05
sg751
I4
sg752
I26
sa(dp754
g748
I254
sg749
F0.023679018020629883
sg750
F5.4836273193359375e-05
sg751
I4
sg752
I25
sa(dp755
g748
I7
sg749
F0.0011751651763916016
sg750
F2.8133392333984375e-05
sg751
I1
sg752
I2
sasS'total_cqs'
p756
I27
ssI66
(dp757
S'iters'
p758
I0
sS'meta'
p759
(lp760
sS'total_cqs'
p761
I1
ssI67
(dp762
S'iters'
p763
I1
sS'meta'
p764
(lp765
(dp766
S'objective'
p767
I574
sS'query_time'
p768
F0.7750921249389648
sS'comp_time'
p769
F0.00010204315185546875
sS'exec_cq'
p770
I8
sS'total_cq'
p771
I35
sasS'total_cqs'
p772
I35
ssI68
(dp773
S'iters'
p774
I0
sS'meta'
p775
(lp776
sS'total_cqs'
p777
I1
ssI69
(dp778
S'iters'
p779
I1
sS'meta'
p780
(lp781
(dp782
S'objective'
p783
I1246
sS'query_time'
p784
F0.09697794914245605
sS'comp_time'
p785
F0.00010204315185546875
sS'exec_cq'
p786
I12
sS'total_cq'
p787
I51
sasS'total_cqs'
p788
I51
ssI70
(dp789
S'iters'
p790
I1
sS'meta'
p791
(lp792
(dp793
S'objective'
p794
I9
sS'query_time'
p795
F0.009664058685302734
sS'comp_time'
p796
F5.698204040527344e-05
sS'exec_cq'
p797
I1
sS'total_cq'
p798
I6
sasS'total_cqs'
p799
I6
ssI71
(dp800
S'iters'
p801
I7
sS'meta'
p802
(lp803
(dp804
S'objective'
p805
I3487
sS'query_time'
p806
F0.08182191848754883
sS'comp_time'
p807
F0.003942012786865234
sS'exec_cq'
p808
I2
sS'total_cq'
p809
I85
sa(dp810
g805
I3407
sg806
F0.07980489730834961
sg807
F0.00011181831359863281
sg808
I3
sg809
I84
sa(dp811
g805
I3187
sg806
F0.09671711921691895
sg807
F0.00011610984802246094
sg808
I8
sg809
I83
sa(dp812
g805
I3190
sg806
F0.08954405784606934
sg807
F7.486343383789062e-05
sg808
I9
sg809
I80
sa(dp813
g805
I2942
sg806
F0.06871819496154785
sg807
F7.796287536621094e-05
sg808
I12
sg809
I79
sa(dp814
g805
I2873
sg806
F0.061094045639038086
sg807
F5.793571472167969e-05
sg808
I14
sg809
I75
sa(dp815
g805
I2858
sg806
F0.04573798179626465
sg807
F5.984306335449219e-05
sg808
I15
sg809
I72
sasS'total_cqs'
p816
I85
ssI72
(dp817
S'iters'
p818
I2
sS'meta'
p819
(lp820
(dp821
S'objective'
p822
I20
sS'query_time'
p823
F0.21084308624267578
sS'comp_time'
p824
F8.58306884765625e-05
sS'exec_cq'
p825
I1
sS'total_cq'
p826
I8
sa(dp827
g822
I14
sg823
F0.006852865219116211
sg824
F4.8160552978515625e-05
sg825
I1
sg826
I7
sasS'total_cqs'
p828
I8
ssI73
(dp829
S'iters'
p830
I0
sS'meta'
p831
(lp832
sS'total_cqs'
p833
I1
ssI74
(dp834
S'iters'
p835
I0
sS'meta'
p836
(lp837
sS'total_cqs'
p838
I1
ssI75
(dp839
S'iters'
p840
I1
sS'meta'
p841
(lp842
(dp843
S'objective'
p844
I5
sS'query_time'
p845
F0.004828929901123047
sS'comp_time'
p846
F4.1961669921875e-05
sS'exec_cq'
p847
I1
sS'total_cq'
p848
I5
sasS'total_cqs'
p849
I5
ssI76
(dp850
S'iters'
p851
I1
sS'meta'
p852
(lp853
(dp854
S'objective'
p855
I1
sS'query_time'
p856
F0.009552001953125
sS'comp_time'
p857
F5.412101745605469e-05
sS'exec_cq'
p858
I1
sS'total_cq'
p859
I2
sasS'total_cqs'
p860
I2
ssI77
(dp861
S'iters'
p862
I0
sS'meta'
p863
(lp864
sS'total_cqs'
p865
I1
ssI78
(dp866
S'iters'
p867
I0
sS'meta'
p868
(lp869
sS'total_cqs'
p870
I1
ssI103
(dp871
S'iters'
p872
I1
sS'meta'
p873
(lp874
(dp875
S'objective'
p876
I58
sS'query_time'
p877
F0.04584813117980957
sS'comp_time'
p878
F7.700920104980469e-05
sS'exec_cq'
p879
I3
sS'total_cq'
p880
I12
sasS'total_cqs'
p881
I12
ssI104
(dp882
S'iters'
p883
I1
sS'meta'
p884
(lp885
(dp886
S'objective'
p887
I2
sS'query_time'
p888
F1.3060131072998047
sS'comp_time'
p889
F7.295608520507812e-05
sS'exec_cq'
p890
I1
sS'total_cq'
p891
I4
sasS'total_cqs'
p892
I4
ssI105
(dp893
S'iters'
p894
I0
sS'meta'
p895
(lp896
sS'total_cqs'
p897
I1
ssI106
(dp898
S'iters'
p899
I1
sS'meta'
p900
(lp901
(dp902
S'objective'
p903
I2
sS'query_time'
p904
F0.013020038604736328
sS'comp_time'
p905
F4.601478576660156e-05
sS'exec_cq'
p906
I1
sS'total_cq'
p907
I4
sasS'total_cqs'
p908
I4
ssI107
(dp909
S'iters'
p910
I2
sS'meta'
p911
(lp912
(dp913
S'objective'
p914
I92
sS'query_time'
p915
F0.0498661994934082
sS'comp_time'
p916
F7.700920104980469e-05
sS'exec_cq'
p917
I4
sS'total_cq'
p918
I16
sa(dp919
g914
I4
sg915
F0.002499103546142578
sg916
F3.409385681152344e-05
sg917
I1
sg918
I3
sasS'total_cqs'
p920
I16
ssI108
(dp921
S'iters'
p922
I0
sS'meta'
p923
(lp924
sS'total_cqs'
p925
I1
ss.