(dp0
I1
(dp1
S'iters'
p2
I3
sS'meta'
p3
(lp4
(dp5
S'objective'
p6
I40
sS'query_time'
p7
F0.03367495536804199
sS'comp_time'
p8
F0.018507957458496094
sS'exec_cq'
p9
I12
sS'total_cq'
p10
I12
sa(dp11
g6
I43
sg7
F5.0067901611328125e-05
sg8
F0.0011620521545410156
sg9
I10
sg10
I10
sa(dp12
g6
I37
sg7
F4.00543212890625e-05
sg8
F0.00011491775512695312
sg9
I9
sg10
I9
sasS'total_cqs'
p13
I12
ssI2
(dp14
S'iters'
p15
I5
sS'meta'
p16
(lp17
(dp18
S'objective'
p19
I238
sS'query_time'
p20
F0.07172894477844238
sS'comp_time'
p21
F0.035694122314453125
sS'exec_cq'
p22
I14
sS'total_cq'
p23
I27
sa(dp24
g19
I186
sg20
F0.05135798454284668
sg21
F0.0006089210510253906
sg22
I13
sg23
I24
sa(dp25
g19
I207
sg20
F5.7220458984375e-05
sg21
F0.0002608299255371094
sg22
I10
sg23
I21
sa(dp26
g19
I177
sg20
F6.389617919921875e-05
sg21
F0.00024390220642089844
sg22
I11
sg23
I19
sa(dp27
g19
I172
sg20
F3.695487976074219e-05
sg21
F0.00014090538024902344
sg22
I8
sg23
I17
sasS'total_cqs'
p28
I27
ssI3
(dp29
S'iters'
p30
I4
sS'meta'
p31
(lp32
(dp33
S'objective'
p34
I226
sS'query_time'
p35
F117.40700697898865
sS'comp_time'
p36
F2.4598400592803955
sS'exec_cq'
p37
I14
sS'total_cq'
p38
I43
sa(dp39
g34
I98
sg35
F65.3211681842804
sg36
F0.47542500495910645
sg37
I16
sg38
I29
sa(dp40
g34
I6
sg35
F41.955995082855225
sg36
F0.6281096935272217
sg37
I9
sg38
I13
sa(dp41
g34
I79
sg35
F11.786172866821289
sg36
F0.002053976058959961
sg37
I6
sg38
I6
sasS'total_cqs'
p42
I43
ssI4
(dp43
S'iters'
p44
I2
sS'meta'
p45
(lp46
(dp47
S'objective'
p48
I30
sS'query_time'
p49
F5.410506010055542
sS'comp_time'
p50
F1.2016370296478271
sS'exec_cq'
p51
I11
sS'total_cq'
p52
I11
sa(dp53
g48
I4
sg49
F0.4593660831451416
sg50
F1.5080063343048096
sg51
I2
sg52
I2
sasS'total_cqs'
p54
I11
ssI5
(dp55
S'iters'
p56
I3
sS'meta'
p57
(lp58
(dp59
S'objective'
p60
I0
sS'query_time'
p61
F31.81975293159485
sS'comp_time'
p62
F3.569429397583008
sS'exec_cq'
p63
I8
sS'total_cq'
p64
I8
sa(dp65
g60
I0
sg61
F0.014210939407348633
sg62
F0.07015013694763184
sg63
I5
sg64
I5
sa(dp66
g60
I1
sg61
F0.005316019058227539
sg62
F0.03270673751831055
sg63
I3
sg64
I3
sasS'total_cqs'
p67
I8
ssI6
(dp68
S'iters'
p69
I4
sS'meta'
p70
(lp71
(dp72
S'objective'
p73
I49
sS'query_time'
p74
F34.21787905693054
sS'comp_time'
p75
F3.5593202114105225
sS'exec_cq'
p76
I18
sS'total_cq'
p77
I18
sa(dp78
g73
I1
sg74
F0.6392910480499268
sg75
F3.934537887573242
sg76
I7
sg77
I7
sa(dp79
g73
I1
sg74
F0.4751749038696289
sg75
F3.788132905960083
sg76
I4
sg77
I4
sa(dp80
g73
I5
sg74
F0.648144006729126
sg75
F3.628397226333618
sg76
I3
sg77
I3
sasS'total_cqs'
p81
I18
ssI7
(dp82
S'iters'
p83
I3
sS'meta'
p84
(lp85
(dp86
S'objective'
p87
I1
sS'query_time'
p88
F12.273106098175049
sS'comp_time'
p89
F2.0666720867156982
sS'exec_cq'
p90
I9
sS'total_cq'
p91
I9
sa(dp92
g87
I0
sg88
F0.012866973876953125
sg89
F0.25617384910583496
sg90
I5
sg91
I5
sa(dp93
g87
I1
sg88
F0.011240959167480469
sg89
F0.1812431812286377
sg90
I2
sg91
I2
sasS'total_cqs'
p94
I9
ssI8
(dp95
S'iters'
p96
I4
sS'meta'
p97
(lp98
(dp99
S'objective'
p100
I276
sS'query_time'
p101
F0.0824730396270752
sS'comp_time'
p102
F0.0301358699798584
sS'exec_cq'
p103
I13
sS'total_cq'
p104
I27
sa(dp105
g100
I165
sg101
F0.09576821327209473
sg102
F0.0007462501525878906
sg103
I14
sg104
I24
sa(dp106
g100
I196
sg101
F4.8160552978515625e-05
sg102
F0.00021409988403320312
sg103
I10
sg104
I19
sa(dp107
g100
I191
sg101
F0.0001418590545654297
sg102
F0.0001049041748046875
sg103
I9
sg104
I18
sasS'total_cqs'
p108
I27
ssI9
(dp109
S'iters'
p110
I2
sS'meta'
p111
(lp112
(dp113
S'objective'
p114
I4
sS'query_time'
p115
F0.05019807815551758
sS'comp_time'
p116
F0.005246162414550781
sS'exec_cq'
p117
I7
sS'total_cq'
p118
I7
sa(dp119
g114
I2
sg115
F1.9073486328125e-05
sg116
F0.00040411949157714844
sg117
I2
sg118
I2
sasS'total_cqs'
p120
I7
ssI10
(dp121
S'iters'
p122
I6
sS'meta'
p123
(lp124
(dp125
S'objective'
p126
I620
sS'query_time'
p127
F0.17493414878845215
sS'comp_time'
p128
F0.10490918159484863
sS'exec_cq'
p129
I28
sS'total_cq'
p130
I51
sa(dp131
g126
I265
sg127
F0.14229893684387207
sg128
F0.0015690326690673828
sg129
I23
sg130
I37
sa(dp132
g126
I0
sg127
F0.0018279552459716797
sg128
F0.0011849403381347656
sg129
I12
sg130
I12
sa(dp133
g126
I7
sg127
F4.00543212890625e-05
sg128
F0.0002570152282714844
sg129
I5
sg130
I5
sa(dp134
g126
I1
sg127
F2.3126602172851562e-05
sg128
F0.00011229515075683594
sg129
I3
sg130
I3
sa(dp135
g126
I11
sg127
F1.5974044799804688e-05
sg128
F7.486343383789062e-05
sg129
I2
sg130
I2
sasS'total_cqs'
p136
I51
ssI11
(dp137
S'iters'
p138
I6
sS'meta'
p139
(lp140
(dp141
S'objective'
p142
I1060
sS'query_time'
p143
F0.5855209827423096
sS'comp_time'
p144
F0.17321014404296875
sS'exec_cq'
p145
I63
sS'total_cq'
p146
I63
sa(dp147
g142
I832
sg143
F0.0012500286102294922
sg144
F0.006846904754638672
sg145
I47
sg146
I47
sa(dp148
g142
I13
sg143
F0.002031087875366211
sg144
F0.002742290496826172
sg145
I9
sg146
I9
sa(dp149
g142
I21
sg143
F0.00015592575073242188
sg144
F0.0010349750518798828
sg145
I5
sg146
I5
sa(dp150
g142
I34
sg143
F2.7179718017578125e-05
sg144
F0.00013899803161621094
sg145
I3
sg146
I3
sa(dp151
g142
I2
sg143
F1.5974044799804688e-05
sg144
F8.0108642578125e-05
sg145
I2
sg146
I2
sasS'total_cqs'
p152
I63
ssI12
(dp153
S'iters'
p154
I5
sS'meta'
p155
(lp156
(dp157
S'objective'
p158
I421
sS'query_time'
p159
F0.17146015167236328
sS'comp_time'
p160
F0.08011603355407715
sS'exec_cq'
p161
I28
sS'total_cq'
p162
I50
sa(dp163
g158
I368
sg159
F0.21130704879760742
sg160
F0.0028929710388183594
sg161
I22
sg162
I33
sa(dp164
g158
I6
sg159
F0.0015110969543457031
sg160
F0.001901865005493164
sg161
I8
sg162
I8
sa(dp165
g158
I17
sg159
F2.6226043701171875e-05
sg160
F0.00019240379333496094
sg161
I3
sg162
I3
sa(dp166
g158
I15
sg159
F3.0040740966796875e-05
sg160
F0.0001266002655029297
sg161
I2
sg162
I2
sasS'total_cqs'
p167
I50
ssI13
(dp168
S'iters'
p169
I3
sS'meta'
p170
(lp171
(dp172
S'objective'
p173
I46
sS'query_time'
p174
F0.16868805885314941
sS'comp_time'
p175
F0.025300264358520508
sS'exec_cq'
p176
I20
sS'total_cq'
p177
I20
sa(dp178
g173
I24
sg174
F4.291534423828125e-05
sg175
F0.0004105567932128906
sg176
I9
sg177
I9
sa(dp179
g173
I7
sg174
F0.0011851787567138672
sg175
F0.0001628398895263672
sg176
I2
sg177
I2
sasS'total_cqs'
p180
I20
ssI14
(dp181
S'iters'
p182
I3
sS'meta'
p183
(lp184
(dp185
S'objective'
p186
I1
sS'query_time'
p187
F30.937900066375732
sS'comp_time'
p188
F1.8298850059509277
sS'exec_cq'
p189
I9
sS'total_cq'
p190
I9
sa(dp191
g186
I4
sg187
F0.3167569637298584
sg188
F1.0805506706237793
sg189
I3
sg190
I3
sa(dp192
g186
I1
sg187
F0.19598007202148438
sg188
F0.7727103233337402
sg189
I2
sg190
I2
sasS'total_cqs'
p193
I9
ssI15
(dp194
S'iters'
p195
I3
sS'meta'
p196
(lp197
(dp198
S'objective'
p199
I4
sS'query_time'
p200
F3.9850611686706543
sS'comp_time'
p201
F0.3072640895843506
sS'exec_cq'
p202
I11
sS'total_cq'
p203
I11
sa(dp204
g199
I1
sg200
F0.043492794036865234
sg201
F0.29108285903930664
sg202
I6
sg203
I6
sa(dp205
g199
I3
sg200
F0.0006349086761474609
sg201
F0.0034689903259277344
sg202
I2
sg203
I2
sasS'total_cqs'
p206
I11
ssI16
(dp207
S'iters'
p208
I1
sS'meta'
p209
(lp210
(dp211
S'objective'
p212
I26
sS'query_time'
p213
F0.03269004821777344
sS'comp_time'
p214
F0.0045108795166015625
sS'exec_cq'
p215
I8
sS'total_cq'
p216
I8
sasS'total_cqs'
p217
I8
ssI17
(dp218
S'iters'
p219
I3
sS'meta'
p220
(lp221
(dp222
S'objective'
p223
I0
sS'query_time'
p224
F0.893125057220459
sS'comp_time'
p225
F0.05368995666503906
sS'exec_cq'
p226
I11
sS'total_cq'
p227
I11
sa(dp228
g223
I1
sg224
F0.008209943771362305
sg225
F0.029604196548461914
sg226
I5
sg227
I5
sa(dp229
g223
I3
sg224
F0.00020813941955566406
sg225
F0.0013217926025390625
sg226
I2
sg227
I2
sasS'total_cqs'
p230
I11
ssI18
(dp231
S'iters'
p232
I1
sS'meta'
p233
(lp234
(dp235
S'objective'
p236
I52
sS'query_time'
p237
F0.20207500457763672
sS'comp_time'
p238
F0.02276754379272461
sS'exec_cq'
p239
I10
sS'total_cq'
p240
I11
sasS'total_cqs'
p241
I11
ssI22
(dp242
S'iters'
p243
I1
sS'meta'
p244
(lp245
(dp246
S'objective'
p247
I151
sS'query_time'
p248
F0.07410407066345215
sS'comp_time'
p249
F0.029733896255493164
sS'exec_cq'
p250
I18
sS'total_cq'
p251
I18
sasS'total_cqs'
p252
I18
ssI23
(dp253
S'iters'
p254
I3
sS'meta'
p255
(lp256
(dp257
S'objective'
p258
I86
sS'query_time'
p259
F0.027101993560791016
sS'comp_time'
p260
F0.02778482437133789
sS'exec_cq'
p261
I8
sS'total_cq'
p262
I16
sa(dp263
g258
I81
sg259
F0.028145790100097656
sg260
F0.0004260540008544922
sg261
I14
sg262
I14
sa(dp264
g258
I78
sg259
F5.91278076171875e-05
sg260
F0.00010919570922851562
sg261
I13
sg262
I13
sasS'total_cqs'
p265
I16
ssI26
(dp266
S'iters'
p267
I1
sS'meta'
p268
(lp269
(dp270
S'objective'
p271
I859
sS'query_time'
p272
F0.1178739070892334
sS'comp_time'
p273
F0.10653448104858398
sS'exec_cq'
p274
I42
sS'total_cq'
p275
I42
sasS'total_cqs'
p276
I42
ssI27
(dp277
S'iters'
p278
I4
sS'meta'
p279
(lp280
(dp281
S'objective'
p282
I219
sS'query_time'
p283
F20.5179181098938
sS'comp_time'
p284
F3.8895211219787598
sS'exec_cq'
p285
I30
sS'total_cq'
p286
I30
sa(dp287
g282
I5
sg283
F0.4432079792022705
sg284
F3.516036033630371
sg285
I5
sg286
I5
sa(dp288
g282
I12
sg283
F0.07934403419494629
sg284
F1.0572798252105713
sg285
I3
sg286
I3
sa(dp289
g282
I6
sg283
F0.1977851390838623
sg284
F0.7448649406433105
sg285
I2
sg286
I2
sasS'total_cqs'
p290
I30
ssI29
(dp291
S'iters'
p292
I5
sS'meta'
p293
(lp294
(dp295
S'objective'
p296
I311
sS'query_time'
p297
F25.02982783317566
sS'comp_time'
p298
F0.7513320446014404
sS'exec_cq'
p299
I35
sS'total_cq'
p300
I49
sa(dp301
g296
I13
sg297
F0.022615909576416016
sg298
F0.2131361961364746
sg299
I17
sg300
I17
sa(dp302
g296
I36
sg297
F0.005939006805419922
sg298
F0.017374038696289062
sg299
I11
sg300
I11
sa(dp303
g296
I1
sg297
F0.0029239654541015625
sg298
F0.013335466384887695
sg299
I5
sg300
I5
sa(dp304
g296
I6
sg297
F0.0025060176849365234
sg298
F0.013255834579467773
sg299
I3
sg300
I3
sasS'total_cqs'
p305
I49
ssI30
(dp306
S'iters'
p307
I1
sS'meta'
p308
(lp309
(dp310
S'objective'
p311
I1
sS'query_time'
p312
F0.7788140773773193
sS'comp_time'
p313
F0.044476985931396484
sS'exec_cq'
p314
I2
sS'total_cq'
p315
I2
sasS'total_cqs'
p316
I2
ssI32
(dp317
S'iters'
p318
I1
sS'meta'
p319
(lp320
(dp321
S'objective'
p322
I1
sS'query_time'
p323
F0.014184951782226562
sS'comp_time'
p324
F0.001934051513671875
sS'exec_cq'
p325
I2
sS'total_cq'
p326
I2
sasS'total_cqs'
p327
I2
ssI33
(dp328
S'iters'
p329
I5
sS'meta'
p330
(lp331
(dp332
S'objective'
p333
I3884
sS'query_time'
p334
F15.449509859085083
sS'comp_time'
p335
F0.8794307708740234
sS'exec_cq'
p336
I103
sS'total_cq'
p337
I103
sa(dp338
g333
I54
sg334
F0.008948087692260742
sg335
F0.028311967849731445
sg336
I16
sg337
I16
sa(dp339
g333
I11
sg334
F0.12008810043334961
sg335
F0.019820451736450195
sg336
I10
sg337
I10
sa(dp340
g333
I13
sg334
F0.0010089874267578125
sg335
F0.0038042068481445312
sg336
I6
sg337
I6
sa(dp341
g333
I2
sg334
F0.0002770423889160156
sg335
F0.002223968505859375
sg336
I2
sg337
I2
sasS'total_cqs'
p342
I103
ssI34
(dp343
S'iters'
p344
I1
sS'meta'
p345
(lp346
(dp347
S'objective'
p348
I1
sS'query_time'
p349
F0.03130388259887695
sS'comp_time'
p350
F0.007041215896606445
sS'exec_cq'
p351
I2
sS'total_cq'
p352
I2
sasS'total_cqs'
p353
I2
ssI35
(dp354
S'iters'
p355
I6
sS'meta'
p356
(lp357
(dp358
S'objective'
p359
I1293
sS'query_time'
p360
F21.684067964553833
sS'comp_time'
p361
F0.21045851707458496
sS'exec_cq'
p362
I50
sS'total_cq'
p363
I70
sa(dp364
g359
I12
sg360
F0.015761137008666992
sg361
F0.22979378700256348
sg362
I16
sg363
I16
sa(dp365
g359
I40
sg360
F0.0042040348052978516
sg361
F0.012241125106811523
sg362
I10
sg363
I10
sa(dp366
g359
I62
sg360
F0.0009319782257080078
sg361
F0.003148317337036133
sg362
I6
sg363
I6
sa(dp367
g359
I13
sg360
F0.0006070137023925781
sg361
F0.0027322769165039062
sg362
I5
sg363
I5
sa(dp368
g359
I20
sg360
F0.00033092498779296875
sg361
F0.0026559829711914062
sg362
I3
sg363
I3
sasS'total_cqs'
p369
I70
ssI36
(dp370
S'iters'
p371
I2
sS'meta'
p372
(lp373
(dp374
S'objective'
p375
I439
sS'query_time'
p376
F0.8554041385650635
sS'comp_time'
p377
F0.10303115844726562
sS'exec_cq'
p378
I33
sS'total_cq'
p379
I33
sa(dp380
g375
I464
sg376
F0.004746913909912109
sg377
F0.01750040054321289
sg378
I28
sg379
I29
sasS'total_cqs'
p381
I33
ssI37
(dp382
S'iters'
p383
I1
sS'meta'
p384
(lp385
(dp386
S'objective'
p387
I1
sS'query_time'
p388
F0.018440961837768555
sS'comp_time'
p389
F0.002935171127319336
sS'exec_cq'
p390
I2
sS'total_cq'
p391
I2
sasS'total_cqs'
p392
I2
ssI38
(dp393
S'iters'
p394
I2
sS'meta'
p395
(lp396
(dp397
S'objective'
p398
I0
sS'query_time'
p399
F0.0482480525970459
sS'comp_time'
p400
F0.0037670135498046875
sS'exec_cq'
p401
I4
sS'total_cq'
p402
I4
sa(dp403
g398
I1
sg399
F9.107589721679688e-05
sg400
F0.0006330013275146484
sg401
I2
sg402
I2
sasS'total_cqs'
p404
I4
ssI39
(dp405
S'iters'
p406
I2
sS'meta'
p407
(lp408
(dp409
S'objective'
p410
I594
sS'query_time'
p411
F0.19392895698547363
sS'comp_time'
p412
F0.08582496643066406
sS'exec_cq'
p413
I44
sS'total_cq'
p414
I44
sa(dp415
g410
I746
sg411
F0.0004439353942871094
sg412
F0.002210855484008789
sg413
I37
sg414
I37
sasS'total_cqs'
p416
I44
ssI40
(dp417
S'iters'
p418
I1
sS'meta'
p419
(lp420
(dp421
S'objective'
p422
I18
sS'query_time'
p423
F0.04254889488220215
sS'comp_time'
p424
F0.009949445724487305
sS'exec_cq'
p425
I7
sS'total_cq'
p426
I7
sasS'total_cqs'
p427
I7
ssI41
(dp428
S'iters'
p429
I1
sS'meta'
p430
(lp431
(dp432
S'objective'
p433
I64
sS'query_time'
p434
F0.11020779609680176
sS'comp_time'
p435
F0.016603708267211914
sS'exec_cq'
p436
I12
sS'total_cq'
p437
I12
sasS'total_cqs'
p438
I12
ssI42
(dp439
S'iters'
p440
I4
sS'meta'
p441
(lp442
(dp443
S'objective'
p444
I789
sS'query_time'
p445
F0.04932093620300293
sS'comp_time'
p446
F0.08186006546020508
sS'exec_cq'
p447
I20
sS'total_cq'
p448
I41
sa(dp449
g444
I779
sg445
F0.03171896934509277
sg446
F0.0002701282501220703
sg447
I21
sg448
I40
sa(dp450
g444
I746
sg445
F0.00010919570922851562
sg446
F0.00016689300537109375
sg447
I29
sg448
I39
sa(dp451
g444
I730
sg445
F8.702278137207031e-05
sg446
F0.00012826919555664062
sg447
I28
sg448
I38
sasS'total_cqs'
p452
I41
ssI43
(dp453
S'iters'
p454
I1
sS'meta'
p455
(lp456
(dp457
S'objective'
p458
I18
sS'query_time'
p459
F0.030132055282592773
sS'comp_time'
p460
F0.006592273712158203
sS'exec_cq'
p461
I7
sS'total_cq'
p462
I7
sasS'total_cqs'
p463
I7
ssI44
(dp464
S'iters'
p465
I4
sS'meta'
p466
(lp467
(dp468
S'objective'
p469
I770
sS'query_time'
p470
F0.3457670211791992
sS'comp_time'
p471
F0.17255473136901855
sS'exec_cq'
p472
I47
sS'total_cq'
p473
I47
sa(dp474
g469
I835
sg470
F0.0003440380096435547
sg471
F0.0017740726470947266
sg472
I40
sg473
I40
sa(dp475
g469
I1
sg470
F0.0024690628051757812
sg471
F0.0023202896118164062
sg472
I3
sg473
I3
sa(dp476
g469
I21
sg470
F3.3855438232421875e-05
sg471
F0.00017690658569335938
sg472
I2
sg473
I2
sasS'total_cqs'
p477
I47
ssI46
(dp478
S'iters'
p479
I1
sS'meta'
p480
(lp481
(dp482
S'objective'
p483
I13
sS'query_time'
p484
F0.0257108211517334
sS'comp_time'
p485
F0.002859830856323242
sS'exec_cq'
p486
I4
sS'total_cq'
p487
I6
sasS'total_cqs'
p488
I6
ssI47
(dp489
S'iters'
p490
I1
sS'meta'
p491
(lp492
(dp493
S'objective'
p494
I1
sS'query_time'
p495
F0.012173891067504883
sS'comp_time'
p496
F0.0012369155883789062
sS'exec_cq'
p497
I2
sS'total_cq'
p498
I2
sasS'total_cqs'
p499
I2
ssI50
(dp500
S'iters'
p501
I2
sS'meta'
p502
(lp503
(dp504
S'objective'
p505
I5
sS'query_time'
p506
F0.01564311981201172
sS'comp_time'
p507
F0.0028183460235595703
sS'exec_cq'
p508
I5
sS'total_cq'
p509
I5
sa(dp510
g505
I2
sg506
F3.0040740966796875e-05
sg507
F0.00016069412231445312
sg508
I4
sg509
I4
sasS'total_cqs'
p511
I5
ssI51
(dp512
S'iters'
p513
I1
sS'meta'
p514
(lp515
(dp516
S'objective'
p517
I1
sS'query_time'
p518
F0.009010076522827148
sS'comp_time'
p519
F0.0011103153228759766
sS'exec_cq'
p520
I2
sS'total_cq'
p521
I2
sasS'total_cqs'
p522
I2
ssI52
(dp523
S'iters'
p524
I1
sS'meta'
p525
(lp526
(dp527
S'objective'
p528
I1
sS'query_time'
p529
F0.010391950607299805
sS'comp_time'
p530
F0.0022749900817871094
sS'exec_cq'
p531
I2
sS'total_cq'
p532
I2
sasS'total_cqs'
p533
I2
ssI53
(dp534
S'iters'
p535
I2
sS'meta'
p536
(lp537
(dp538
S'objective'
p539
I0
sS'query_time'
p540
F0.03399991989135742
sS'comp_time'
p541
F0.0034019947052001953
sS'exec_cq'
p542
I4
sS'total_cq'
p543
I4
sa(dp544
g539
I1
sg540
F0.00011491775512695312
sg541
F0.0007407665252685547
sg542
I2
sg543
I2
sasS'total_cqs'
p545
I4
ssI54
(dp546
S'iters'
p547
I1
sS'meta'
p548
(lp549
(dp550
S'objective'
p551
I0
sS'query_time'
p552
F0.017338037490844727
sS'comp_time'
p553
F0.0016338825225830078
sS'exec_cq'
p554
I3
sS'total_cq'
p555
I3
sasS'total_cqs'
p556
I3
ssI55
(dp557
S'iters'
p558
I7
sS'meta'
p559
(lp560
(dp561
S'objective'
p562
I4751
sS'query_time'
p563
F1.961319923400879
sS'comp_time'
p564
F0.7145462036132812
sS'exec_cq'
p565
I109
sS'total_cq'
p566
I109
sa(dp567
g562
I4843
sg563
F0.0006959438323974609
sg564
F0.003251314163208008
sg565
I97
sg566
I97
sa(dp568
g562
I4684
sg563
F0.0005249977111816406
sg564
F0.0020313262939453125
sg565
I93
sg566
I93
sa(dp569
g562
I4618
sg563
F0.00028395652770996094
sg564
F0.0014739036560058594
sg565
I87
sg566
I87
sa(dp570
g562
I4513
sg563
F0.0002720355987548828
sg564
F0.0009624958038330078
sg565
I85
sg566
I85
sa(dp571
g562
I4433
sg563
F0.00024318695068359375
sg564
F0.0007753372192382812
sg565
I83
sg566
I83
sa(dp572
g562
I4422
sg563
F0.00023603439331054688
sg564
F0.0006878376007080078
sg565
I81
sg566
I81
sasS'total_cqs'
p573
I109
ssI56
(dp574
S'iters'
p575
I5
sS'meta'
p576
(lp577
(dp578
S'objective'
p579
I1546
sS'query_time'
p580
F1.6004250049591064
sS'comp_time'
p581
F0.3386349678039551
sS'exec_cq'
p582
I67
sS'total_cq'
p583
I76
sa(dp584
g579
I0
sg580
F0.005300045013427734
sg581
F0.01384282112121582
sg582
I16
sg583
I16
sa(dp585
g579
I21
sg580
F0.002643108367919922
sg581
F0.008480310440063477
sg582
I8
sg583
I8
sa(dp586
g579
I14
sg580
F0.0003058910369873047
sg581
F0.00152587890625
sg582
I4
sg583
I4
sa(dp587
g579
I10
sg580
F0.00010204315185546875
sg581
F0.0007603168487548828
sg582
I2
sg583
I2
sasS'total_cqs'
p588
I76
ssI57
(dp589
S'iters'
p590
I6
sS'meta'
p591
(lp592
(dp593
S'objective'
p594
I178
sS'query_time'
p595
F23.763350009918213
sS'comp_time'
p596
F0.31234216690063477
sS'exec_cq'
p597
I45
sS'total_cq'
p598
I51
sa(dp599
g594
I4
sg595
F0.015307903289794922
sg596
F0.03300189971923828
sg597
I27
sg598
I27
sa(dp600
g594
I12
sg595
F0.002420186996459961
sg596
F0.007046937942504883
sg597
I13
sg598
I13
sa(dp601
g594
I19
sg595
F0.0014851093292236328
sg596
F0.005355119705200195
sg597
I5
sg598
I5
sa(dp602
g594
I26
sg595
F0.0010061264038085938
sg596
F0.004354953765869141
sg597
I3
sg598
I3
sa(dp603
g594
I9
sg595
F0.0007028579711914062
sg596
F0.003752470016479492
sg597
I2
sg598
I2
sasS'total_cqs'
p604
I51
ssI58
(dp605
S'iters'
p606
I7
sS'meta'
p607
(lp608
(dp609
S'objective'
p610
I83833
sS'query_time'
p611
F112.85303497314453
sS'comp_time'
p612
F16.329658031463623
sS'exec_cq'
p613
I348
sS'total_cq'
p614
I486
sa(dp615
g610
I86819
sg611
F0.03975701332092285
sg612
F1.2881548404693604
sg613
I276
sg614
I414
sa(dp616
g610
I178
sg611
F0.01564502716064453
sg612
F0.08517694473266602
sg613
I28
sg614
I28
sa(dp617
g610
I0
sg611
F0.013112068176269531
sg612
F0.025187969207763672
sg613
I13
sg614
I13
sa(dp618
g610
I13
sg611
F0.005597114562988281
sg612
F0.022413015365600586
sg613
I6
sg614
I6
sa(dp619
g610
I110
sg611
F0.0007560253143310547
sg612
F0.0021820068359375
sg613
I3
sg614
I3
sa(dp620
g610
I5
sg611
F0.0003731250762939453
sg612
F0.002477407455444336
sg613
I2
sg614
I2
sasS'total_cqs'
p621
I486
ssI59
(dp622
S'iters'
p623
I2
sS'meta'
p624
(lp625
(dp626
S'objective'
p627
I14
sS'query_time'
p628
F0.04815316200256348
sS'comp_time'
p629
F0.22633790969848633
sS'exec_cq'
p630
I7
sS'total_cq'
p631
I7
sa(dp632
g627
I3
sg628
F0.0001900196075439453
sg629
F0.0012519359588623047
sg630
I2
sg631
I2
sasS'total_cqs'
p633
I7
ssI60
(dp634
S'iters'
p635
I1
sS'meta'
p636
(lp637
(dp638
S'objective'
p639
I7
sS'query_time'
p640
F0.0163118839263916
sS'comp_time'
p641
F0.003183126449584961
sS'exec_cq'
p642
I3
sS'total_cq'
p643
I5
sasS'total_cqs'
p644
I5
ssI62
(dp645
S'iters'
p646
I3
sS'meta'
p647
(lp648
(dp649
S'objective'
p650
I54
sS'query_time'
p651
F0.034703969955444336
sS'comp_time'
p652
F0.017608165740966797
sS'exec_cq'
p653
I12
sS'total_cq'
p654
I12
sa(dp655
g650
I48
sg651
F4.100799560546875e-05
sg652
F0.00016570091247558594
sg653
I9
sg654
I9
sa(dp656
g650
I43
sg651
F4.291534423828125e-05
sg652
F8.58306884765625e-05
sg653
I8
sg654
I8
sasS'total_cqs'
p657
I12
ssI64
(dp658
S'iters'
p659
I3
sS'meta'
p660
(lp661
(dp662
S'objective'
p663
I28
sS'query_time'
p664
F0.12141704559326172
sS'comp_time'
p665
F0.030362844467163086
sS'exec_cq'
p666
I12
sS'total_cq'
p667
I12
sa(dp668
g663
I3
sg664
F0.0001480579376220703
sg665
F0.0008382797241210938
sg666
I4
sg667
I4
sa(dp669
g663
I3
sg664
F3.886222839355469e-05
sg665
F0.00023484230041503906
sg666
I2
sg667
I2
sasS'total_cqs'
p670
I12
ssI65
(dp671
S'iters'
p672
I4
sS'meta'
p673
(lp674
(dp675
S'objective'
p676
I134
sS'query_time'
p677
F0.8061738014221191
sS'comp_time'
p678
F0.1767737865447998
sS'exec_cq'
p679
I27
sS'total_cq'
p680
I27
sa(dp681
g676
I2
sg677
F0.0018639564514160156
sg678
F0.00792694091796875
sg679
I7
sg680
I7
sa(dp682
g676
I8
sg677
F0.0005099773406982422
sg678
F0.0036118030548095703
sg679
I4
sg680
I4
sa(dp683
g676
I4
sg677
F0.0004119873046875
sg678
F0.002939939498901367
sg679
I3
sg680
I3
sasS'total_cqs'
p684
I27
ssI67
(dp685
S'iters'
p686
I2
sS'meta'
p687
(lp688
(dp689
S'objective'
p690
I536
sS'query_time'
p691
F0.8932721614837646
sS'comp_time'
p692
F0.15494918823242188
sS'exec_cq'
p693
I35
sS'total_cq'
p694
I35
sa(dp695
g690
I9
sg691
F0.2705979347229004
sg692
F0.008925199508666992
sg693
I2
sg694
I2
sasS'total_cqs'
p696
I35
ssI69
(dp697
S'iters'
p698
I1
sS'meta'
p699
(lp700
(dp701
S'objective'
p702
I1272
sS'query_time'
p703
F0.17476701736450195
sS'comp_time'
p704
F0.1616230010986328
sS'exec_cq'
p705
I51
sS'total_cq'
p706
I51
sasS'total_cqs'
p707
I51
ssI70
(dp708
S'iters'
p709
I2
sS'meta'
p710
(lp711
(dp712
S'objective'
p713
I9
sS'query_time'
p714
F0.018007993698120117
sS'comp_time'
p715
F0.0025968551635742188
sS'exec_cq'
p716
I6
sS'total_cq'
p717
I6
sa(dp718
g713
I7
sg714
F5.1021575927734375e-05
sg715
F0.00025200843811035156
sg716
I5
sg717
I5
sasS'total_cqs'
p719
I6
ssI71
(dp720
S'iters'
p721
I6
sS'meta'
p722
(lp723
(dp724
S'objective'
p725
I3345
sS'query_time'
p726
F0.27180004119873047
sS'comp_time'
p727
F0.3942222595214844
sS'exec_cq'
p728
I73
sS'total_cq'
p729
I85
sa(dp730
g725
I3224
sg726
F0.0005090236663818359
sg727
F0.001813650131225586
sg728
I70
sg729
I82
sa(dp731
g725
I3098
sg726
F0.0002319812774658203
sg727
F0.0011827945709228516
sg728
I66
sg729
I78
sa(dp732
g725
I2980
sg726
F0.00021791458129882812
sg727
F0.0007596015930175781
sg728
I63
sg729
I75
sa(dp733
g725
I19
sg726
F0.0020720958709716797
sg727
F0.003177642822265625
sg728
I3
sg729
I3
sa(dp734
g725
I35
sg726
F0.0031671524047851562
sg727
F0.0002155303955078125
sg728
I2
sg729
I2
sasS'total_cqs'
p735
I85
ssI72
(dp736
S'iters'
p737
I3
sS'meta'
p738
(lp739
(dp740
S'objective'
p741
I10
sS'query_time'
p742
F0.03207898139953613
sS'comp_time'
p743
F0.0031321048736572266
sS'exec_cq'
p744
I4
sS'total_cq'
p745
I8
sa(dp746
g741
I1
sg742
F0.3362770080566406
sg743
F0.002254009246826172
sg744
I4
sg745
I6
sa(dp747
g741
I2
sg742
F0.00011420249938964844
sg743
F0.0002608299255371094
sg744
I2
sg745
I3
sasS'total_cqs'
p748
I8
ssI75
(dp749
S'iters'
p750
I2
sS'meta'
p751
(lp752
(dp753
S'objective'
p754
I5
sS'query_time'
p755
F0.01477813720703125
sS'comp_time'
p756
F0.0017192363739013672
sS'exec_cq'
p757
I5
sS'total_cq'
p758
I5
sa(dp759
g754
I2
sg755
F2.8848648071289062e-05
sg756
F0.00011491775512695312
sg757
I4
sg758
I4
sasS'total_cqs'
p760
I5
ssI76
(dp761
S'iters'
p762
I1
sS'meta'
p763
(lp764
(dp765
S'objective'
p766
I1
sS'query_time'
p767
F0.013897895812988281
sS'comp_time'
p768
F0.0018079280853271484
sS'exec_cq'
p769
I2
sS'total_cq'
p770
I2
sasS'total_cqs'
p771
I2
ssI103
(dp772
S'iters'
p773
I2
sS'meta'
p774
(lp775
(dp776
S'objective'
p777
I62
sS'query_time'
p778
F0.05452895164489746
sS'comp_time'
p779
F0.025444984436035156
sS'exec_cq'
p780
I12
sS'total_cq'
p781
I12
sa(dp782
g777
I56
sg778
F6.794929504394531e-05
sg779
F0.00024819374084472656
sg780
I11
sg781
I11
sasS'total_cqs'
p783
I12
ssI104
(dp784
S'iters'
p785
I2
sS'meta'
p786
(lp787
(dp788
S'objective'
p789
I0
sS'query_time'
p790
F1.2421300411224365
sS'comp_time'
p791
F0.19592928886413574
sS'exec_cq'
p792
I4
sS'total_cq'
p793
I4
sa(dp794
g789
I1
sg790
F0.012842893600463867
sg791
F0.15720772743225098
sg792
I2
sg793
I2
sasS'total_cqs'
p795
I4
ssI106
(dp796
S'iters'
p797
I1
sS'meta'
p798
(lp799
(dp800
S'objective'
p801
I4
sS'query_time'
p802
F0.01714777946472168
sS'comp_time'
p803
F0.0020990371704101562
sS'exec_cq'
p804
I4
sS'total_cq'
p805
I4
sasS'total_cqs'
p806
I4
ssI107
(dp807
S'iters'
p808
I2
sS'meta'
p809
(lp810
(dp811
S'objective'
p812
I58
sS'query_time'
p813
F0.08224201202392578
sS'comp_time'
p814
F0.019755840301513672
sS'exec_cq'
p815
I16
sS'total_cq'
p816
I16
sa(dp817
g812
I21
sg813
F0.00683903694152832
sg814
F0.0005319118499755859
sg815
I3
sg816
I3
sasS'total_cqs'
p818
I16
ss.