(dp0
I1
(dp1
S'iters'
p2
I3
sS'meta'
p3
(lp4
(dp5
S'objective'
p6
I8
sS'query_time'
p7
F0.03228306770324707
sS'total_cq'
p8
I12
sS'comp_time'
p9
F0.0003249645233154297
sa(dp10
g6
I8
sg7
F0.0014700889587402344
sg8
I10
sg9
F0.00014781951904296875
sa(dp11
g6
I7
sg7
F0.0014600753784179688
sg8
I9
sg9
F0.00012373924255371094
sasS'total_cqs'
p12
I12
ssI2
(dp13
g2
I7
sg3
(lp14
(dp15
g6
I19
sg7
F0.06442403793334961
sg8
I27
sg9
F0.0011641979217529297
sa(dp16
g6
I17
sg7
F0.03237104415893555
sg8
I23
sg9
F0.0008730888366699219
sa(dp17
g6
I16
sg7
F0.0014178752899169922
sg8
I20
sg9
F0.0010077953338623047
sa(dp18
g6
I16
sg7
F0.0013070106506347656
sg8
I18
sg9
F0.0003991127014160156
sa(dp19
g6
I15
sg7
F0.0012781620025634766
sg8
I17
sg9
F0.0001518726348876953
sa(dp20
g6
I12
sg7
F0.0012888908386230469
sg8
I16
sg9
F0.00030803680419921875
sa(dp21
g6
I12
sg7
F0.0012619495391845703
sg8
I14
sg9
F0.00011301040649414062
sasg12
I27
ssI3
(dp22
g2
I4
sg3
(lp23
(dp24
g6
I27
sg7
F202.7789261341095
sg8
I43
sg9
F0.03273892402648926
sa(dp25
g6
I21
sg7
F227.53842306137085
sg8
I35
sg9
F3.265099048614502
sa(dp26
g6
I12
sg7
F121.62324786186218
sg8
I28
sg9
F1.0172758102416992
sa(dp27
g6
I18
sg7
F11.322380065917969
sg8
I20
sg9
F0.00019407272338867188
sasg12
I43
ssI4
(dp28
g2
I2
sg3
(lp29
(dp30
g6
I7
sg7
F3.0794379711151123
sg8
I11
sg9
F1.0015430450439453
sa(dp31
g6
I0
sg7
F0.18335294723510742
sg8
I2
sg9
F1.0108637809753418
sasg12
I11
ssI5
(dp32
g2
I3
sg3
(lp33
(dp34
g6
I0
sg7
F25.474143981933594
sg8
I8
sg9
F4.697788715362549
sa(dp35
g6
I0
sg7
F0.017040014266967773
sg8
I4
sg9
F0.3478116989135742
sa(dp36
g6
I0
sg7
F0.007682085037231445
sg8
I2
sg9
F0.1459941864013672
sasg12
I8
ssI6
(dp37
g2
I4
sg3
(lp38
(dp39
g6
I4
sg7
F27.43205189704895
sg8
I18
sg9
F4.507882118225098
sa(dp40
g6
I1
sg7
F0.9115328788757324
sg8
I7
sg9
F4.5828258991241455
sa(dp41
g6
I0
sg7
F0.03226113319396973
sg8
I4
sg9
F0.42746996879577637
sa(dp42
g6
I0
sg7
F0.016058921813964844
sg8
I2
sg9
F0.22046995162963867
sasg12
I18
ssI7
(dp43
g2
I3
sg3
(lp44
(dp45
g6
I1
sg7
F8.39023494720459
sg8
I9
sg9
F2.03462290763855
sa(dp46
g6
I1
sg7
F0.016742944717407227
sg8
I5
sg9
F0.07710814476013184
sa(dp47
g6
I1
sg7
F0.007758140563964844
sg8
I3
sg9
F0.06675910949707031
sasg12
I9
ssI8
(dp48
g2
I4
sg3
(lp49
(dp50
g6
I21
sg7
F0.06435894966125488
sg8
I27
sg9
F0.0007092952728271484
sa(dp51
g6
I14
sg7
F0.033064842224121094
sg8
I24
sg9
F0.0010979175567626953
sa(dp52
g6
I17
sg7
F0.001252889633178711
sg8
I19
sg9
F0.0002269744873046875
sa(dp53
g6
I16
sg7
F0.0015289783477783203
sg8
I18
sg9
F0.0001888275146484375
sasg12
I27
ssI9
(dp54
g2
I3
sg3
(lp55
(dp56
g6
I1
sg7
F0.06417202949523926
sg8
I7
sg9
F0.0005161762237548828
sa(dp57
g6
I0
sg7
F0.0011589527130126953
sg8
I4
sg9
F0.0002620220184326172
sa(dp58
g6
I0
sg7
F0.0015070438385009766
sg8
I2
sg9
F0.0002911090850830078
sasg12
I7
ssI10
(dp59
g2
I6
sg3
(lp60
(dp61
g6
I23
sg7
F0.11446094512939453
sg8
I51
sg9
F0.004179954528808594
sa(dp62
g6
I13
sg7
F0.11483192443847656
sg8
I37
sg9
F0.0016856193542480469
sa(dp63
g6
I17
sg7
F0.0017788410186767578
sg8
I25
sg9
F0.0013298988342285156
sa(dp64
g6
I15
sg7
F0.001299142837524414
sg8
I21
sg9
F0.00034928321838378906
sa(dp65
g6
I1
sg7
F0.001249074935913086
sg8
I3
sg9
F0.00020194053649902344
sa(dp66
g6
I0
sg7
F0.001486063003540039
sg8
I2
sg9
F0.00017118453979492188
sasg12
I51
ssI11
(dp67
g2
I5
sg3
(lp68
(dp69
g6
I31
sg7
F0.36608219146728516
sg8
I63
sg9
F0.02306222915649414
sa(dp70
g6
I29
sg7
F0.0013289451599121094
sg8
I47
sg9
F0.00571894645690918
sa(dp71
g6
I1
sg7
F0.0013620853424072266
sg8
I9
sg9
F0.0017189979553222656
sa(dp72
g6
I0
sg7
F0.0012278556823730469
sg8
I4
sg9
F0.0002238750457763672
sa(dp73
g6
I0
sg7
F0.001280069351196289
sg8
I2
sg9
F0.00014495849609375
sasg12
I63
ssI12
(dp74
g2
I5
sg3
(lp75
(dp76
g6
I16
sg7
F0.11430001258850098
sg8
I50
sg9
F0.0015158653259277344
sa(dp77
g6
I17
sg7
F0.11464500427246094
sg8
I33
sg9
F0.0037958621978759766
sa(dp78
g6
I0
sg7
F0.0012710094451904297
sg8
I8
sg9
F0.0016710758209228516
sa(dp79
g6
I0
sg7
F0.0012738704681396484
sg8
I4
sg9
F0.0014438629150390625
sa(dp80
g6
I0
sg7
F0.0014200210571289062
sg8
I2
sg9
F0.00029206275939941406
sasg12
I50
ssI13
(dp81
g2
I3
sg3
(lp82
(dp83
g6
I2
sg7
F0.11449885368347168
sg8
I20
sg9
F0.0005929470062255859
sa(dp84
g6
I5
sg7
F0.0014941692352294922
sg8
I9
sg9
F0.00013208389282226562
sa(dp85
g6
I0
sg7
F0.0012309551239013672
sg8
I2
sg9
F0.0001232624053955078
sasg12
I20
ssI14
(dp86
g2
I3
sg3
(lp87
(dp88
g6
I1
sg7
F23.312485933303833
sg8
I9
sg9
F2.08288836479187
sa(dp89
g6
I1
sg7
F0.017908811569213867
sg8
I5
sg9
F0.06860494613647461
sa(dp90
g6
I0
sg7
F0.007970809936523438
sg8
I2
sg9
F0.20366406440734863
sasg12
I9
ssI15
(dp91
g2
I3
sg3
(lp92
(dp93
g6
I1
sg7
F2.4237210750579834
sg8
I11
sg9
F0.2695891857147217
sa(dp94
g6
I2
sg7
F0.001416921615600586
sg8
I6
sg9
F0.004537105560302734
sa(dp95
g6
I0
sg7
F0.0012810230255126953
sg8
I2
sg9
F0.003988742828369141
sasg12
I11
ssI16
(dp96
g2
I1
sg3
(lp97
(dp98
g6
I6
sg7
F0.015631914138793945
sg8
I8
sg9
F0.00016379356384277344
sasg12
I8
ssI17
(dp99
g2
I3
sg3
(lp100
(dp101
g6
I1
sg7
F0.6189930438995361
sg8
I11
sg9
F0.1291980743408203
sa(dp102
g6
I2
sg7
F0.0011990070343017578
sg8
I6
sg9
F0.0022139549255371094
sa(dp103
g6
I0
sg7
F0.0012750625610351562
sg8
I2
sg9
F0.0034079551696777344
sasg12
I11
ssI18
(dp104
g2
I2
sg3
(lp105
(dp106
g6
I9
sg7
F0.11439394950866699
sg8
I11
sg9
F0.0014262199401855469
sa(dp107
g6
I8
sg7
F0.07186722755432129
sg8
I10
sg9
F0.002290010452270508
sasg12
I11
ssI19
(dp108
g2
I0
sg3
(lp109
sg12
I1
ssI20
(dp110
g2
I0
sg3
(lp111
sg12
I1
ssI21
(dp112
g2
I0
sg3
(lp113
sg12
I1
ssI22
(dp114
g2
I1
sg3
(lp115
(dp116
g6
I16
sg7
F0.03209209442138672
sg8
I18
sg9
F0.0003409385681152344
sasg12
I18
ssI23
(dp117
g2
I2
sg3
(lp118
(dp119
g6
I14
sg7
F0.03228282928466797
sg8
I16
sg9
F0.0007257461547851562
sa(dp120
g6
I13
sg7
F0.001374959945678711
sg8
I15
sg9
F0.00013685226440429688
sasg12
I16
ssI24
(dp121
g2
I0
sg3
(lp122
sg12
I1
ssI25
(dp123
g2
I0
sg3
(lp124
sg12
I1
ssI26
(dp125
g2
I1
sg3
(lp126
(dp127
g6
I40
sg7
F0.06435799598693848
sg8
I42
sg9
F0.00015211105346679688
sasg12
I42
ssI27
(dp128
g2
I3
sg3
(lp129
(dp130
g6
I20
sg7
F14.460094928741455
sg8
I30
sg9
F4.563317060470581
sa(dp131
g6
I1
sg7
F0.6434528827667236
sg8
I5
sg9
F4.067730188369751
sa(dp132
g6
I0
sg7
F0.06513500213623047
sg8
I2
sg9
F1.2119650840759277
sasg12
I30
ssI28
(dp133
g2
I0
sg3
(lp134
sg12
I1
ssI29
(dp135
g2
I6
sg3
(lp136
(dp137
g6
I15
sg7
F17.789944887161255
sg8
I49
sg9
F0.5412087440490723
sa(dp138
g6
I1
sg7
F0.16074800491333008
sg8
I17
sg9
F0.4998917579650879
sa(dp139
g6
I1
sg7
F0.07063698768615723
sg8
I9
sg9
F0.49509501457214355
sa(dp140
g6
I1
sg7
F0.007670879364013672
sg8
I5
sg9
F0.15398502349853516
sa(dp141
g6
I1
sg7
F0.00780797004699707
sg8
I3
sg9
F0.03757476806640625
sa(dp142
g6
I0
sg7
F0.003795146942138672
sg8
I2
sg9
F0.016801118850708008
sasg12
I49
ssI30
(dp143
g2
I1
sg3
(lp144
(dp145
g6
I0
sg7
F0.4156820774078369
sg8
I2
sg9
F0.1310288906097412
sasg12
I2
ssI31
(dp146
g2
I0
sg3
(lp147
sg12
I1
ssI32
(dp148
g2
I1
sg3
(lp149
(dp150
g6
I0
sg7
F0.015836000442504883
sg8
I2
sg9
F0.00046372413635253906
sasg12
I2
ssI33
(dp151
g2
I5
sg3
(lp152
(dp153
g6
I71
sg7
F10.265460014343262
sg8
I103
sg9
F0.2751157283782959
sa(dp154
g6
I0
sg7
F0.014189004898071289
sg8
I16
sg9
F0.14829182624816895
sa(dp155
g6
I0
sg7
F0.003453969955444336
sg8
I8
sg9
F0.018680572509765625
sa(dp156
g6
I0
sg7
F0.0014290809631347656
sg8
I4
sg9
F0.004827260971069336
sa(dp157
g6
I0
sg7
F0.0012710094451904297
sg8
I2
sg9
F0.003432035446166992
sasg12
I103
ssI34
(dp158
g2
I1
sg3
(lp159
(dp160
g6
I0
sg7
F0.015998125076293945
sg8
I2
sg9
F0.0009698867797851562
sasg12
I2
ssI35
(dp161
g2
I4
sg3
(lp162
(dp163
g6
I38
sg7
F13.726903915405273
sg8
I70
sg9
F0.03285527229309082
sa(dp164
g6
I2
sg7
F0.004781961441040039
sg8
I16
sg9
F0.019927024841308594
sa(dp165
g6
I1
sg7
F0.003125905990600586
sg8
I7
sg9
F0.10079693794250488
sa(dp166
g6
I1
sg7
F0.0014770030975341797
sg8
I3
sg9
F0.005610942840576172
sasg12
I70
ssI36
(dp167
g2
I2
sg3
(lp168
(dp169
g6
I25
sg7
F0.5301399230957031
sg8
I33
sg9
F0.0186920166015625
sa(dp170
g6
I27
sg7
F0.00909113883972168
sg8
I29
sg9
F0.00526118278503418
sasg12
I33
ssI37
(dp171
g2
I1
sg3
(lp172
(dp173
g6
I0
sg7
F0.007773876190185547
sg8
I2
sg9
F0.0004820823669433594
sasg12
I2
ssI38
(dp174
g2
I2
sg3
(lp175
(dp176
g6
I0
sg7
F0.03228497505187988
sg8
I4
sg9
F0.0013937950134277344
sa(dp177
g6
I0
sg7
F0.0013968944549560547
sg8
I2
sg9
F0.0010941028594970703
sasg12
I4
ssI39
(dp178
g2
I2
sg3
(lp179
(dp180
g6
I30
sg7
F0.11463689804077148
sg8
I44
sg9
F0.004250764846801758
sa(dp181
g6
I35
sg7
F0.00150299072265625
sg8
I37
sg9
F0.002980947494506836
sasg12
I44
ssI40
(dp182
g2
I1
sg3
(lp183
(dp184
g6
I5
sg7
F0.03233695030212402
sg8
I7
sg9
F0.0002841949462890625
sasg12
I7
ssI41
(dp185
g2
I1
sg3
(lp186
(dp187
g6
I10
sg7
F0.06434512138366699
sg8
I12
sg9
F0.0002810955047607422
sasg12
I12
ssI42
(dp188
g2
I2
sg3
(lp189
(dp190
g6
I39
sg7
F0.03223609924316406
sg8
I41
sg9
F0.00022101402282714844
sa(dp191
g6
I38
sg7
F0.0014111995697021484
sg8
I40
sg9
F0.00017571449279785156
sasg12
I41
ssI43
(dp192
g2
I1
sg3
(lp193
(dp194
g6
I5
sg7
F0.015883922576904297
sg8
I7
sg9
F0.00023889541625976562
sasg12
I7
ssI44
(dp195
g2
I4
sg3
(lp196
(dp197
g6
I33
sg7
F0.11460494995117188
sg8
I47
sg9
F0.002229928970336914
sa(dp198
g6
I34
sg7
F0.0011970996856689453
sg8
I40
sg9
F0.0020449161529541016
sa(dp199
g6
I1
sg7
F0.001257181167602539
sg8
I3
sg9
F0.0015120506286621094
sa(dp200
g6
I0
sg7
F0.0012600421905517578
sg8
I2
sg9
F0.0002377033233642578
sasg12
I47
ssI45
(dp201
g2
I0
sg3
(lp202
sg12
I1
ssI46
(dp203
g2
I2
sg3
(lp204
(dp205
g6
I4
sg7
F0.015887022018432617
sg8
I6
sg9
F0.0005490779876708984
sa(dp206
g6
I3
sg7
F0.004698038101196289
sg8
I5
sg9
F0.00017189979553222656
sasg12
I6
ssI47
(dp207
g2
I1
sg3
(lp208
(dp209
g6
I0
sg7
F0.007925033569335938
sg8
I2
sg9
F0.0005831718444824219
sasg12
I2
ssI48
(dp210
g2
I0
sg3
(lp211
sg12
I1
ssI49
(dp212
g2
I0
sg3
(lp213
sg12
I1
ssI50
(dp214
g2
I3
sg3
(lp215
(dp216
g6
I3
sg7
F0.007506132125854492
sg8
I5
sg9
F0.00023818016052246094
sa(dp217
g6
I2
sg7
F0.0013458728790283203
sg8
I4
sg9
F0.00019097328186035156
sa(dp218
g6
I1
sg7
F0.0013880729675292969
sg8
I3
sg9
F0.000202178955078125
sasg12
I5
ssI51
(dp219
g2
I1
sg3
(lp220
(dp221
g6
I0
sg7
F0.007989883422851562
sg8
I2
sg9
F0.0004138946533203125
sasg12
I2
ssI52
(dp222
g2
I1
sg3
(lp223
(dp224
g6
I0
sg7
F0.007658958435058594
sg8
I2
sg9
F0.00040721893310546875
sasg12
I2
ssI53
(dp225
g2
I2
sg3
(lp226
(dp227
g6
I0
sg7
F0.03252291679382324
sg8
I4
sg9
F0.0013127326965332031
sa(dp228
g6
I0
sg7
F0.0005080699920654297
sg8
I2
sg9
F0.0014340877532958984
sasg12
I4
ssI54
(dp229
g2
I1
sg3
(lp230
(dp231
g6
I1
sg7
F0.007766008377075195
sg8
I3
sg9
F0.0005459785461425781
sasg12
I3
ssI55
(dp232
g2
I7
sg3
(lp233
(dp234
g6
I85
sg7
F1.5702240467071533
sg8
I109
sg9
F0.16519403457641602
sa(dp235
g6
I85
sg7
F0.0011470317840576172
sg8
I97
sg9
F0.002691984176635742
sa(dp236
g6
I83
sg7
F0.0012371540069580078
sg8
I91
sg9
F0.0014050006866455078
sa(dp237
g6
I83
sg7
F0.0014081001281738281
sg8
I87
sg9
F0.0013990402221679688
sa(dp238
g6
I81
sg7
F0.0014939308166503906
sg8
I85
sg9
F0.001348733901977539
sa(dp239
g6
I79
sg7
F0.0012929439544677734
sg8
I83
sg9
F0.0011878013610839844
sa(dp240
g6
I79
sg7
F0.0012960433959960938
sg8
I81
sg9
F0.0011250972747802734
sasg12
I109
ssI56
(dp241
g2
I5
sg3
(lp242
(dp243
g6
I44
sg7
F1.0688788890838623
sg8
I76
sg9
F0.025987863540649414
sa(dp244
g6
I0
sg7
F0.005814075469970703
sg8
I16
sg9
F0.11327195167541504
sa(dp245
g6
I0
sg7
F0.003534078598022461
sg8
I8
sg9
F0.01638197898864746
sa(dp246
g6
I0
sg7
F0.0013818740844726562
sg8
I4
sg9
F0.0027649402618408203
sa(dp247
g6
I0
sg7
F0.0010709762573242188
sg8
I2
sg9
F0.0039768218994140625
sasg12
I76
ssI57
(dp248
g2
I6
sg3
(lp249
(dp250
g6
I3
sg7
F18.341495990753174
sg8
I51
sg9
F0.06039571762084961
sa(dp251
g6
I1
sg7
F0.10787415504455566
sg8
I27
sg9
F0.05077505111694336
sa(dp252
g6
I1
sg7
F0.0037260055541992188
sg8
I13
sg9
F0.012948989868164062
sa(dp253
g6
I0
sg7
F0.004153013229370117
sg8
I6
sg9
F0.009181976318359375
sa(dp254
g6
I1
sg7
F0.0014870166778564453
sg8
I3
sg9
F0.0030868053436279297
sa(dp255
g6
I0
sg7
F0.0012471675872802734
sg8
I2
sg9
F0.003286123275756836
sasg12
I51
ssI58
(dp256
g2
I7
sg3
(lp257
(dp258
g6
I342
sg7
F101.82810497283936
sg8
I486
sg9
F0.4738130569458008
sa(dp259
g6
I358
sg7
F0.047857046127319336
sg8
I414
sg9
F0.19256210327148438
sa(dp260
g6
I0
sg7
F0.018912076950073242
sg8
I28
sg9
F0.05202603340148926
sa(dp261
g6
I0
sg7
F0.00805807113647461
sg8
I14
sg9
F0.027274131774902344
sa(dp262
g6
I1
sg7
F0.005373954772949219
sg8
I7
sg9
F0.025128841400146484
sa(dp263
g6
I0
sg7
F0.0012640953063964844
sg8
I4
sg9
F0.004652976989746094
sa(dp264
g6
I0
sg7
F0.0012278556823730469
sg8
I2
sg9
F0.0027408599853515625
sasg12
I486
ssI59
(dp265
g2
I2
sg3
(lp266
(dp267
g6
I3
sg7
F0.06438612937927246
sg8
I7
sg9
F0.001428842544555664
sa(dp268
g6
I0
sg7
F0.001230001449584961
sg8
I2
sg9
F0.0016531944274902344
sasg12
I7
ssI60
(dp269
g2
I4
sg3
(lp270
(dp271
g6
I3
sg7
F0.01610589027404785
sg8
I5
sg9
F0.00037407875061035156
sa(dp272
g6
I2
sg7
F0.0074558258056640625
sg8
I4
sg9
F0.00026607513427734375
sa(dp273
g6
I1
sg7
F0.002471923828125
sg8
I3
sg9
F0.0008978843688964844
sa(dp274
g6
I0
sg7
F0.0014050006866455078
sg8
I2
sg9
F0.00021696090698242188
sasg12
I5
ssI61
(dp275
g2
I0
sg3
(lp276
sg12
I1
ssI62
(dp277
g2
I2
sg3
(lp278
(dp279
g6
I6
sg7
F0.015942096710205078
sg8
I12
sg9
F0.000331878662109375
sa(dp280
g6
I7
sg7
F0.0012009143829345703
sg8
I9
sg9
F0.0002002716064453125
sasg12
I12
ssI63
(dp281
g2
I0
sg3
(lp282
sg12
I1
ssI64
(dp283
g2
I3
sg3
(lp284
(dp285
g6
I4
sg7
F0.11470198631286621
sg8
I12
sg9
F0.0070858001708984375
sa(dp286
g6
I0
sg7
F0.0013279914855957031
sg8
I4
sg9
F0.0014858245849609375
sa(dp287
g6
I0
sg7
F0.0013508796691894531
sg8
I2
sg9
F0.0003662109375
sasg12
I12
ssI65
(dp288
g2
I4
sg3
(lp289
(dp290
g6
I13
sg7
F0.567234992980957
sg8
I27
sg9
F0.1941370964050293
sa(dp291
g6
I1
sg7
F0.0036869049072265625
sg8
I7
sg9
F0.008971214294433594
sa(dp292
g6
I0
sg7
F0.0012099742889404297
sg8
I4
sg9
F0.004565238952636719
sa(dp293
g6
I0
sg7
F0.0013580322265625
sg8
I2
sg9
F0.001009225845336914
sasg12
I27
ssI66
(dp294
g2
I0
sg3
(lp295
sg12
I1
ssI67
(dp296
g2
I2
sg3
(lp297
(dp298
g6
I31
sg7
F0.6665129661560059
sg8
I35
sg9
F0.01269984245300293
sa(dp299
g6
I0
sg7
F0.0034198760986328125
sg8
I2
sg9
F0.012583732604980469
sasg12
I35
ssI68
(dp300
g2
I0
sg3
(lp301
sg12
I1
ssI69
(dp302
g2
I1
sg3
(lp303
(dp304
g6
I49
sg7
F0.1144411563873291
sg8
I51
sg9
F0.00035190582275390625
sasg12
I51
ssI70
(dp305
g2
I2
sg3
(lp306
(dp307
g6
I4
sg7
F0.01598191261291504
sg8
I6
sg9
F0.0005998611450195312
sa(dp308
g6
I3
sg7
F0.0013208389282226562
sg8
I5
sg9
F0.000530242919921875
sasg12
I6
ssI71
(dp309
g2
I6
sg3
(lp310
(dp311
g6
I77
sg7
F0.16469907760620117
sg8
I85
sg9
F0.0016200542449951172
sa(dp312
g6
I73
sg7
F0.001165151596069336
sg8
I81
sg9
F0.0012688636779785156
sa(dp313
g6
I71
sg7
F0.0013489723205566406
sg8
I77
sg9
F0.0008041858673095703
sa(dp314
g6
I68
sg7
F0.0013689994812011719
sg8
I74
sg9
F0.0006787776947021484
sa(dp315
g6
I65
sg7
F0.001416921615600586
sg8
I71
sg9
F0.0005307197570800781
sa(dp316
g6
I1
sg7
F0.001155853271484375
sg8
I3
sg9
F0.0002951622009277344
sasg12
I85
ssI72
(dp317
g2
I3
sg3
(lp318
(dp319
g6
I4
sg7
F0.03207898139953613
sg8
I8
sg9
F0.00047206878662109375
sa(dp320
g6
I0
sg7
F0.21476101875305176
sg8
I6
sg9
F0.003835916519165039
sa(dp321
g6
I1
sg7
F0.0013740062713623047
sg8
I3
sg9
F9.298324584960938e-05
sasg12
I8
ssI73
(dp322
g2
I0
sg3
(lp323
sg12
I1
ssI74
(dp324
g2
I0
sg3
(lp325
sg12
I1
ssI75
(dp326
g2
I3
sg3
(lp327
(dp328
g6
I3
sg7
F0.007792949676513672
sg8
I5
sg9
F0.0001590251922607422
sa(dp329
g6
I2
sg7
F0.001310110092163086
sg8
I4
sg9
F0.00013780593872070312
sa(dp330
g6
I1
sg7
F0.0014569759368896484
sg8
I3
sg9
F0.00012063980102539062
sasg12
I5
ssI76
(dp331
g2
I1
sg3
(lp332
(dp333
g6
I0
sg7
F0.015902996063232422
sg8
I2
sg9
F0.0008740425109863281
sasg12
I2
ssI77
(dp334
g2
I0
sg3
(lp335
sg12
I1
ssI78
(dp336
g2
I0
sg3
(lp337
sg12
I1
ssI103
(dp338
g2
I1
sg3
(lp339
(dp340
g6
I10
sg7
F0.06431007385253906
sg8
I12
sg9
F0.00032782554626464844
sasg12
I12
ssI104
(dp341
g2
I2
sg3
(lp342
(dp343
g6
I0
sg7
F1.1183388233184814
sg8
I4
sg9
F0.1964399814605713
sa(dp344
g6
I0
sg7
F0.10128211975097656
sg8
I2
sg9
F0.20256924629211426
sasg12
I4
ssI105
(dp345
g2
I0
sg3
(lp346
sg12
I1
ssI106
(dp347
g2
I1
sg3
(lp348
(dp349
g6
I2
sg7
F0.015742063522338867
sg8
I4
sg9
F0.00018525123596191406
sasg12
I4
ssI107
(dp350
g2
I2
sg3
(lp351
(dp352
g6
I10
sg7
F0.06423377990722656
sg8
I16
sg9
F0.0003459453582763672
sa(dp353
g6
I1
sg7
F0.001310110092163086
sg8
I3
sg9
F0.0002491474151611328
sasg12
I16
ssI108
(dp354
g2
I0
sg3
(lp355
sg12
I1
ss.