(dp0
I1
(dp1
S'iters'
p2
I3
sS'meta'
p3
(lp4
(dp5
S'objective'
p6
I8
sS'query_time'
p7
F0.032067060470581055
sS'total_cq'
p8
I12
sS'comp_time'
p9
F0.0004229545593261719
sa(dp10
g6
I8
sg7
F0.001277923583984375
sg8
I10
sg9
F0.00019598007202148438
sa(dp11
g6
I7
sg7
F0.0012888908386230469
sg8
I9
sg9
F0.00017595291137695312
sasS'total_cqs'
p12
I12
ssI2
(dp13
g2
I8
sg3
(lp14
(dp15
g6
I19
sg7
F0.06431198120117188
sg8
I27
sg9
F0.002377033233642578
sa(dp16
g6
I17
sg7
F0.0013420581817626953
sg8
I23
sg9
F0.0013148784637451172
sa(dp17
g6
I16
sg7
F0.0011470317840576172
sg8
I20
sg9
F0.0006549358367919922
sa(dp18
g6
I14
sg7
F0.0013170242309570312
sg8
I18
sg9
F0.0003829002380371094
sa(dp19
g6
I14
sg7
F0.0013909339904785156
sg8
I16
sg9
F0.0003509521484375
sa(dp20
g6
I13
sg7
F0.0011451244354248047
sg8
I15
sg9
F0.00022983551025390625
sa(dp21
g6
I12
sg7
F0.0023970603942871094
sg8
I14
sg9
F0.00015282630920410156
sa(dp22
g6
I11
sg7
F0.0011610984802246094
sg8
I13
sg9
F0.00010204315185546875
sasg12
I27
ssI3
(dp23
g2
I4
sg3
(lp24
(dp25
g6
I27
sg7
F562.3576278686523
sg8
I43
sg9
F4.106079816818237
sa(dp26
g6
I21
sg7
F0.6421411037445068
sg8
I35
sg9
F4.416686058044434
sa(dp27
g6
I12
sg7
F0.07371091842651367
sg8
I28
sg9
F0.7844679355621338
sa(dp28
g6
I18
sg7
F0.0013468265533447266
sg8
I20
sg9
F0.00011992454528808594
sasg12
I43
ssI4
(dp29
g2
I2
sg3
(lp30
(dp31
g6
I7
sg7
F3.0268609523773193
sg8
I11
sg9
F0.6087820529937744
sa(dp32
g6
I0
sg7
F0.13706493377685547
sg8
I2
sg9
F0.6232748031616211
sasg12
I11
ssI5
(dp33
g2
I3
sg3
(lp34
(dp35
g6
I0
sg7
F24.599881887435913
sg8
I8
sg9
F3.590362071990967
sa(dp36
g6
I0
sg7
F0.016377925872802734
sg8
I4
sg9
F0.29857897758483887
sa(dp37
g6
I0
sg7
F0.008034944534301758
sg8
I2
sg9
F0.0837259292602539
sasg12
I8
ssI6
(dp38
g2
I4
sg3
(lp39
(dp40
g6
I4
sg7
F26.993485927581787
sg8
I18
sg9
F3.0762181282043457
sa(dp41
g6
I1
sg7
F0.7205109596252441
sg8
I7
sg9
F3.0680429935455322
sa(dp42
g6
I0
sg7
F0.03306722640991211
sg8
I4
sg9
F0.32776474952697754
sa(dp43
g6
I0
sg7
F0.016059160232543945
sg8
I2
sg9
F0.15223193168640137
sasg12
I18
ssI7
(dp44
g2
I3
sg3
(lp45
(dp46
g6
I1
sg7
F8.573832988739014
sg8
I9
sg9
F1.3555612564086914
sa(dp47
g6
I1
sg7
F0.01584601402282715
sg8
I5
sg9
F0.17377996444702148
sa(dp48
g6
I1
sg7
F0.016065120697021484
sg8
I3
sg9
F0.09452295303344727
sasg12
I9
ssI8
(dp49
g2
I5
sg3
(lp50
(dp51
g6
I17
sg7
F0.06446290016174316
sg8
I27
sg9
F0.0009379386901855469
sa(dp52
g6
I16
sg7
F0.001268148422241211
sg8
I22
sg9
F0.0005838871002197266
sa(dp53
g6
I17
sg7
F0.0013990402221679688
sg8
I19
sg9
F0.0001780986785888672
sa(dp54
g6
I16
sg7
F0.0012371540069580078
sg8
I18
sg9
F0.00015020370483398438
sa(dp55
g6
I15
sg7
F0.0012369155883789062
sg8
I17
sg9
F0.000125885009765625
sasg12
I27
ssI9
(dp56
g2
I3
sg3
(lp57
(dp58
g6
I1
sg7
F0.0644071102142334
sg8
I7
sg9
F0.00036907196044921875
sa(dp59
g6
I0
sg7
F0.001219034194946289
sg8
I4
sg9
F0.0001468658447265625
sa(dp60
g6
I0
sg7
F0.001238107681274414
sg8
I2
sg9
F0.00014495849609375
sasg12
I7
ssI10
(dp61
g2
I6
sg3
(lp62
(dp63
g6
I23
sg7
F0.2148730754852295
sg8
I51
sg9
F0.0048372745513916016
sa(dp64
g6
I13
sg7
F0.0015368461608886719
sg8
I37
sg9
F0.0014960765838623047
sa(dp65
g6
I0
sg7
F0.0012099742889404297
sg8
I12
sg9
F0.0008051395416259766
sa(dp66
g6
I2
sg7
F0.0014958381652832031
sg8
I6
sg9
F0.00020384788513183594
sa(dp67
g6
I0
sg7
F0.0013928413391113281
sg8
I4
sg9
F0.00017714500427246094
sa(dp68
g6
I0
sg7
F0.001216888427734375
sg8
I2
sg9
F0.00012993812561035156
sasg12
I51
ssI11
(dp69
g2
I5
sg3
(lp70
(dp71
g6
I31
sg7
F0.36544299125671387
sg8
I63
sg9
F0.0219879150390625
sa(dp72
g6
I29
sg7
F0.0013360977172851562
sg8
I47
sg9
F0.006367921829223633
sa(dp73
g6
I1
sg7
F0.0014638900756835938
sg8
I9
sg9
F0.0013761520385742188
sa(dp74
g6
I0
sg7
F0.0013649463653564453
sg8
I4
sg9
F0.00020694732666015625
sa(dp75
g6
I0
sg7
F0.0013599395751953125
sg8
I2
sg9
F0.00012302398681640625
sasg12
I63
ssI12
(dp76
g2
I5
sg3
(lp77
(dp78
g6
I16
sg7
F0.21492600440979004
sg8
I50
sg9
F0.005346059799194336
sa(dp79
g6
I17
sg7
F0.0011789798736572266
sg8
I33
sg9
F0.003880023956298828
sa(dp80
g6
I0
sg7
F0.0013759136199951172
sg8
I8
sg9
F0.0013880729675292969
sa(dp81
g6
I0
sg7
F0.0013599395751953125
sg8
I4
sg9
F0.0012748241424560547
sa(dp82
g6
I0
sg7
F0.001444101333618164
sg8
I2
sg9
F0.0002079010009765625
sasg12
I50
ssI13
(dp83
g2
I3
sg3
(lp84
(dp85
g6
I2
sg7
F0.11467099189758301
sg8
I20
sg9
F0.0006229877471923828
sa(dp86
g6
I5
sg7
F0.0012600421905517578
sg8
I9
sg9
F0.00015091896057128906
sa(dp87
g6
I0
sg7
F0.0012249946594238281
sg8
I2
sg9
F0.00014400482177734375
sasg12
I20
ssI14
(dp88
g2
I3
sg3
(lp89
(dp90
g6
I1
sg7
F23.376283884048462
sg8
I9
sg9
F1.4354760646820068
sa(dp91
g6
I1
sg7
F0.01731085777282715
sg8
I5
sg9
F0.17075300216674805
sa(dp92
g6
I0
sg7
F0.008296966552734375
sg8
I2
sg9
F0.08901214599609375
sasg12
I9
ssI15
(dp93
g2
I3
sg3
(lp94
(dp95
g6
I1
sg7
F2.380561113357544
sg8
I11
sg9
F0.20462727546691895
sa(dp96
g6
I2
sg7
F0.0011830329895019531
sg8
I6
sg9
F0.0042150020599365234
sa(dp97
g6
I0
sg7
F0.0014247894287109375
sg8
I2
sg9
F0.0034809112548828125
sasg12
I11
ssI16
(dp98
g2
I1
sg3
(lp99
(dp100
g6
I6
sg7
F0.016048192977905273
sg8
I8
sg9
F0.00015807151794433594
sasg12
I8
ssI17
(dp101
g2
I3
sg3
(lp102
(dp103
g6
I1
sg7
F0.61673903465271
sg8
I11
sg9
F0.06736183166503906
sa(dp104
g6
I2
sg7
F0.001138925552368164
sg8
I6
sg9
F0.0016560554504394531
sa(dp105
g6
I0
sg7
F0.0011990070343017578
sg8
I2
sg9
F0.0016617774963378906
sasg12
I11
ssI18
(dp106
g2
I4
sg3
(lp107
(dp108
g6
I5
sg7
F0.16448712348937988
sg8
I11
sg9
F0.009032011032104492
sa(dp109
g6
I6
sg7
F0.0011968612670898438
sg8
I8
sg9
F0.0018029212951660156
sa(dp110
g6
I5
sg7
F0.0014848709106445312
sg8
I7
sg9
F0.0004978179931640625
sa(dp111
g6
I4
sg7
F0.0013689994812011719
sg8
I6
sg9
F0.00017189979553222656
sasg12
I11
ssI19
(dp112
g2
I0
sg3
(lp113
sg12
I1
ssI20
(dp114
g2
I0
sg3
(lp115
sg12
I1
ssI21
(dp116
g2
I0
sg3
(lp117
sg12
I1
ssI22
(dp118
g2
I1
sg3
(lp119
(dp120
g6
I16
sg7
F0.03233504295349121
sg8
I18
sg9
F0.00024008750915527344
sasg12
I18
ssI23
(dp121
g2
I3
sg3
(lp122
(dp123
g6
I12
sg7
F0.032318115234375
sg8
I16
sg9
F0.0005927085876464844
sa(dp124
g6
I12
sg7
F0.0012891292572021484
sg8
I14
sg9
F0.0011746883392333984
sa(dp125
g6
I11
sg7
F0.0011868476867675781
sg8
I13
sg9
F0.00016498565673828125
sasg12
I16
ssI24
(dp126
g2
I0
sg3
(lp127
sg12
I1
ssI25
(dp128
g2
I0
sg3
(lp129
sg12
I1
ssI26
(dp130
g2
I1
sg3
(lp131
(dp132
g6
I40
sg7
F0.06435990333557129
sg8
I42
sg9
F0.00016379356384277344
sasg12
I42
ssI27
(dp133
g2
I3
sg3
(lp134
(dp135
g6
I20
sg7
F13.981168985366821
sg8
I30
sg9
F2.8889849185943604
sa(dp136
g6
I1
sg7
F0.5178279876708984
sg8
I5
sg9
F2.9837749004364014
sa(dp137
g6
I0
sg7
F0.06573915481567383
sg8
I2
sg9
F0.8094139099121094
sasg12
I30
ssI28
(dp138
g2
I0
sg3
(lp139
sg12
I1
ssI29
(dp140
g2
I5
sg3
(lp141
(dp142
g6
I15
sg7
F139.56915187835693
sg8
I49
sg9
F21.816785097122192
sa(dp143
g6
I1
sg7
F0.0225679874420166
sg8
I17
sg9
F0.08072495460510254
sa(dp144
g6
I1
sg7
F0.02668285369873047
sg8
I9
sg9
F0.0774698257446289
sa(dp145
g6
I1
sg7
F0.00434422492980957
sg8
I5
sg9
F0.021357297897338867
sa(dp146
g6
I1
sg7
F0.003535032272338867
sg8
I3
sg9
F0.008682727813720703
sasg12
I49
ssI30
(dp147
g2
I1
sg3
(lp148
(dp149
g6
I0
sg7
F0.46597790718078613
sg8
I2
sg9
F0.03878426551818848
sasg12
I2
ssI31
(dp150
g2
I0
sg3
(lp151
sg12
I1
ssI32
(dp152
g2
I1
sg3
(lp153
(dp154
g6
I0
sg7
F0.015949010848999023
sg8
I2
sg9
F0.000644683837890625
sasg12
I2
ssI33
(dp155
g2
I5
sg3
(lp156
(dp157
g6
I71
sg7
F10.466209888458252
sg8
I103
sg9
F0.13462305068969727
sa(dp158
g6
I0
sg7
F0.016129016876220703
sg8
I16
sg9
F0.03451418876647949
sa(dp159
g6
I0
sg7
F0.003361940383911133
sg8
I8
sg9
F0.016611099243164062
sa(dp160
g6
I0
sg7
F0.0014641284942626953
sg8
I4
sg9
F0.00990915298461914
sa(dp161
g6
I0
sg7
F0.0017800331115722656
sg8
I2
sg9
F0.003923892974853516
sasg12
I103
ssI34
(dp162
g2
I1
sg3
(lp163
(dp164
g6
I0
sg7
F0.016839981079101562
sg8
I2
sg9
F0.0011632442474365234
sasg12
I2
ssI35
(dp165
g2
I4
sg3
(lp166
(dp167
g6
I38
sg7
F263.0622158050537
sg8
I70
sg9
F30.032678842544556
sa(dp168
g6
I2
sg7
F0.00946497917175293
sg8
I16
sg9
F0.021338939666748047
sa(dp169
g6
I1
sg7
F0.0021820068359375
sg8
I7
sg9
F0.009654760360717773
sa(dp170
g6
I1
sg7
F0.0012679100036621094
sg8
I3
sg9
F0.005097866058349609
sasg12
I70
ssI36
(dp171
g2
I4
sg3
(lp172
(dp173
g6
I25
sg7
F0.5666768550872803
sg8
I33
sg9
F0.038450002670288086
sa(dp174
g6
I21
sg7
F0.008275985717773438
sg8
I29
sg9
F0.032820940017700195
sa(dp175
g6
I23
sg7
F0.003353118896484375
sg8
I25
sg9
F0.011671066284179688
sa(dp176
g6
I22
sg7
F0.0013508796691894531
sg8
I24
sg9
F0.004558086395263672
sasg12
I33
ssI37
(dp177
g2
I1
sg3
(lp178
(dp179
g6
I0
sg7
F0.007660865783691406
sg8
I2
sg9
F0.00036406517028808594
sasg12
I2
ssI38
(dp180
g2
I2
sg3
(lp181
(dp182
g6
I0
sg7
F0.032898902893066406
sg8
I4
sg9
F0.0011658668518066406
sa(dp183
g6
I0
sg7
F0.0014431476593017578
sg8
I2
sg9
F0.0009930133819580078
sasg12
I4
ssI39
(dp184
g2
I2
sg3
(lp185
(dp186
g6
I30
sg7
F0.06440496444702148
sg8
I44
sg9
F0.0034041404724121094
sa(dp187
g6
I35
sg7
F0.0014081001281738281
sg8
I37
sg9
F0.0017538070678710938
sasg12
I44
ssI40
(dp188
g2
I1
sg3
(lp189
(dp190
g6
I5
sg7
F0.03218197822570801
sg8
I7
sg9
F0.0001761913299560547
sasg12
I7
ssI41
(dp191
g2
I1
sg3
(lp192
(dp193
g6
I10
sg7
F0.06422901153564453
sg8
I12
sg9
F0.0002338886260986328
sasg12
I12
ssI42
(dp194
g2
I3
sg3
(lp195
(dp196
g6
I39
sg7
F0.06438493728637695
sg8
I41
sg9
F0.0002467632293701172
sa(dp197
g6
I38
sg7
F0.0013229846954345703
sg8
I40
sg9
F0.0002071857452392578
sa(dp198
g6
I37
sg7
F0.0013871192932128906
sg8
I39
sg9
F0.0001709461212158203
sasg12
I41
ssI43
(dp199
g2
I1
sg3
(lp200
(dp201
g6
I5
sg7
F0.015757083892822266
sg8
I7
sg9
F0.00020694732666015625
sasg12
I7
ssI44
(dp202
g2
I4
sg3
(lp203
(dp204
g6
I33
sg7
F0.06578922271728516
sg8
I47
sg9
F0.00226593017578125
sa(dp205
g6
I34
sg7
F0.0011930465698242188
sg8
I40
sg9
F0.0021257400512695312
sa(dp206
g6
I1
sg7
F0.001260995864868164
sg8
I3
sg9
F0.0008649826049804688
sa(dp207
g6
I0
sg7
F0.0013709068298339844
sg8
I2
sg9
F0.0001590251922607422
sasg12
I47
ssI45
(dp208
g2
I0
sg3
(lp209
sg12
I1
ssI46
(dp210
g2
I2
sg3
(lp211
(dp212
g6
I4
sg7
F0.016168832778930664
sg8
I6
sg9
F0.0005681514739990234
sa(dp213
g6
I3
sg7
F0.0015759468078613281
sg8
I5
sg9
F0.0001461505889892578
sasg12
I6
ssI47
(dp214
g2
I1
sg3
(lp215
(dp216
g6
I0
sg7
F0.007889032363891602
sg8
I2
sg9
F0.0003838539123535156
sasg12
I2
ssI48
(dp217
g2
I0
sg3
(lp218
sg12
I1
ssI49
(dp219
g2
I0
sg3
(lp220
sg12
I1
ssI50
(dp221
g2
I3
sg3
(lp222
(dp223
g6
I3
sg7
F0.007657051086425781
sg8
I5
sg9
F0.0002129077911376953
sa(dp224
g6
I2
sg7
F0.0011301040649414062
sg8
I4
sg9
F0.0001888275146484375
sa(dp225
g6
I1
sg7
F0.0012359619140625
sg8
I3
sg9
F0.00017523765563964844
sasg12
I5
ssI51
(dp226
g2
I1
sg3
(lp227
(dp228
g6
I0
sg7
F0.00755000114440918
sg8
I2
sg9
F0.0002968311309814453
sasg12
I2
ssI52
(dp229
g2
I1
sg3
(lp230
(dp231
g6
I0
sg7
F0.0035490989685058594
sg8
I2
sg9
F0.0002808570861816406
sasg12
I2
ssI53
(dp232
g2
I2
sg3
(lp233
(dp234
g6
I0
sg7
F0.02189803123474121
sg8
I4
sg9
F0.0011959075927734375
sa(dp235
g6
I0
sg7
F0.001500844955444336
sg8
I2
sg9
F0.0011119842529296875
sasg12
I4
ssI54
(dp236
g2
I1
sg3
(lp237
(dp238
g6
I1
sg7
F0.009459972381591797
sg8
I3
sg9
F0.0005199909210205078
sasg12
I3
ssI55
(dp239
g2
I7
sg3
(lp240
(dp241
g6
I85
sg7
F1.6707961559295654
sg8
I109
sg9
F0.044924259185791016
sa(dp242
g6
I85
sg7
F0.0013849735260009766
sg8
I97
sg9
F0.0024771690368652344
sa(dp243
g6
I83
sg7
F0.0014688968658447266
sg8
I91
sg9
F0.001280069351196289
sa(dp244
g6
I83
sg7
F0.0012331008911132812
sg8
I87
sg9
F0.0016171932220458984
sa(dp245
g6
I81
sg7
F0.0014579296112060547
sg8
I85
sg9
F0.0009870529174804688
sa(dp246
g6
I79
sg7
F0.001230001449584961
sg8
I83
sg9
F0.000865936279296875
sa(dp247
g6
I79
sg7
F0.0012831687927246094
sg8
I81
sg9
F0.0009579658508300781
sasg12
I109
ssI56
(dp248
g2
I5
sg3
(lp249
(dp250
g6
I44
sg7
F2.423771858215332
sg8
I76
sg9
F0.1562178134918213
sa(dp251
g6
I0
sg7
F0.011214017868041992
sg8
I16
sg9
F0.017299890518188477
sa(dp252
g6
I0
sg7
F0.0035409927368164062
sg8
I8
sg9
F0.012464284896850586
sa(dp253
g6
I0
sg7
F0.0013959407806396484
sg8
I4
sg9
F0.0026540756225585938
sa(dp254
g6
I0
sg7
F0.0013871192932128906
sg8
I2
sg9
F0.002004861831665039
sasg12
I76
ssI57
(dp255
g2
I6
sg3
(lp256
(dp257
g6
I3
sg7
F63.12084603309631
sg8
I51
sg9
F7.141135215759277
sa(dp258
g6
I1
sg7
F0.021306991577148438
sg8
I27
sg9
F0.04637503623962402
sa(dp259
g6
I1
sg7
F0.0036230087280273438
sg8
I13
sg9
F0.011766910552978516
sa(dp260
g6
I0
sg7
F0.003515005111694336
sg8
I6
sg9
F0.010671854019165039
sa(dp261
g6
I1
sg7
F0.0013728141784667969
sg8
I3
sg9
F0.0022280216217041016
sa(dp262
g6
I0
sg7
F0.0015261173248291016
sg8
I2
sg9
F0.0021719932556152344
sasg12
I51
ssI58
(dp263
g2
I7
sg3
(lp264
(dp265
g6
I342
sg7
F506.07929706573486
sg8
I486
sg9
F42.72659397125244
sa(dp266
g6
I358
sg7
F16.401497840881348
sg8
I414
sg9
F46.51857304573059
sa(dp267
g6
I0
sg7
F0.017393112182617188
sg8
I28
sg9
F0.04569292068481445
sa(dp268
g6
I0
sg7
F0.010947942733764648
sg8
I14
sg9
F0.028044939041137695
sa(dp269
g6
I1
sg7
F0.00793600082397461
sg8
I7
sg9
F0.024027109146118164
sa(dp270
g6
I0
sg7
F0.0019159317016601562
sg8
I4
sg9
F0.004938840866088867
sa(dp271
g6
I0
sg7
F0.001435995101928711
sg8
I2
sg9
F0.0025167465209960938
sasg12
I486
ssI59
(dp272
g2
I2
sg3
(lp273
(dp274
g6
I3
sg7
F0.06445479393005371
sg8
I7
sg9
F0.00244903564453125
sa(dp275
g6
I0
sg7
F0.0016999244689941406
sg8
I2
sg9
F0.00202178955078125
sasg12
I7
ssI60
(dp276
g2
I3
sg3
(lp277
(dp278
g6
I3
sg7
F0.01589488983154297
sg8
I5
sg9
F0.0007069110870361328
sa(dp279
g6
I2
sg7
F0.0013370513916015625
sg8
I4
sg9
F0.0006120204925537109
sa(dp280
g6
I1
sg7
F0.0012450218200683594
sg8
I3
sg9
F0.00015282630920410156
sasg12
I5
ssI61
(dp281
g2
I0
sg3
(lp282
sg12
I1
ssI62
(dp283
g2
I2
sg3
(lp284
(dp285
g6
I6
sg7
F0.015825986862182617
sg8
I12
sg9
F0.0002841949462890625
sa(dp286
g6
I7
sg7
F0.0012559890747070312
sg8
I9
sg9
F0.00014901161193847656
sasg12
I12
ssI63
(dp287
g2
I0
sg3
(lp288
sg12
I1
ssI64
(dp289
g2
I3
sg3
(lp290
(dp291
g6
I4
sg7
F0.1202390193939209
sg8
I12
sg9
F0.005940914154052734
sa(dp292
g6
I0
sg7
F0.0011928081512451172
sg8
I4
sg9
F0.0012316703796386719
sa(dp293
g6
I0
sg7
F0.0012438297271728516
sg8
I2
sg9
F0.0011069774627685547
sasg12
I12
ssI65
(dp294
g2
I4
sg3
(lp295
(dp296
g6
I13
sg7
F0.6165938377380371
sg8
I27
sg9
F0.05806589126586914
sa(dp297
g6
I1
sg7
F0.0035829544067382812
sg8
I7
sg9
F0.00842595100402832
sa(dp298
g6
I0
sg7
F0.0012068748474121094
sg8
I4
sg9
F0.004421710968017578
sa(dp299
g6
I0
sg7
F0.0014941692352294922
sg8
I2
sg9
F0.0009112358093261719
sasg12
I27
ssI66
(dp300
g2
I0
sg3
(lp301
sg12
I1
ssI67
(dp302
g2
I2
sg3
(lp303
(dp304
g6
I31
sg7
F0.7167677879333496
sg8
I35
sg9
F0.010212182998657227
sa(dp305
g6
I0
sg7
F0.0013599395751953125
sg8
I2
sg9
F0.010271072387695312
sasg12
I35
ssI68
(dp306
g2
I0
sg3
(lp307
sg12
I1
ssI69
(dp308
g2
I1
sg3
(lp309
(dp310
g6
I49
sg7
F0.11429691314697266
sg8
I51
sg9
F0.0002880096435546875
sasg12
I51
ssI70
(dp311
g2
I2
sg3
(lp312
(dp313
g6
I4
sg7
F0.007737874984741211
sg8
I6
sg9
F0.0002598762512207031
sa(dp314
g6
I3
sg7
F0.0012629032135009766
sg8
I5
sg9
F0.0003380775451660156
sasg12
I6
ssI71
(dp315
g2
I6
sg3
(lp316
(dp317
g6
I77
sg7
F0.2147359848022461
sg8
I85
sg9
F0.0017478466033935547
sa(dp318
g6
I73
sg7
F0.001806020736694336
sg8
I81
sg9
F0.0011708736419677734
sa(dp319
g6
I71
sg7
F0.002263784408569336
sg8
I77
sg9
F0.0010139942169189453
sa(dp320
g6
I68
sg7
F0.0012450218200683594
sg8
I74
sg9
F0.0006310939788818359
sa(dp321
g6
I65
sg7
F0.0013179779052734375
sg8
I71
sg9
F0.0005168914794921875
sa(dp322
g6
I1
sg7
F0.0012671947479248047
sg8
I3
sg9
F0.000286102294921875
sasg12
I85
ssI72
(dp323
g2
I3
sg3
(lp324
(dp325
g6
I2
sg7
F0.21463298797607422
sg8
I8
sg9
F0.0049152374267578125
sa(dp326
g6
I1
sg7
F0.0011858940124511719
sg8
I5
sg9
F0.0005080699920654297
sa(dp327
g6
I1
sg7
F0.0014128684997558594
sg8
I3
sg9
F0.0002570152282714844
sasg12
I8
ssI73
(dp328
g2
I0
sg3
(lp329
sg12
I1
ssI74
(dp330
g2
I0
sg3
(lp331
sg12
I1
ssI75
(dp332
g2
I3
sg3
(lp333
(dp334
g6
I3
sg7
F0.007901191711425781
sg8
I5
sg9
F0.0001621246337890625
sa(dp335
g6
I2
sg7
F0.0014181137084960938
sg8
I4
sg9
F0.0001742839813232422
sa(dp336
g6
I1
sg7
F0.0012521743774414062
sg8
I3
sg9
F0.00016188621520996094
sasg12
I5
ssI76
(dp337
g2
I1
sg3
(lp338
(dp339
g6
I0
sg7
F0.015941143035888672
sg8
I2
sg9
F0.0008440017700195312
sasg12
I2
ssI77
(dp340
g2
I0
sg3
(lp341
sg12
I1
ssI78
(dp342
g2
I0
sg3
(lp343
sg12
I1
ssI103
(dp344
g2
I1
sg3
(lp345
(dp346
g6
I10
sg7
F0.06457996368408203
sg8
I12
sg9
F0.0003859996795654297
sasg12
I12
ssI104
(dp347
g2
I2
sg3
(lp348
(dp349
g6
I0
sg7
F1.168576955795288
sg8
I4
sg9
F0.10665392875671387
sa(dp350
g6
I0
sg7
F0.016088008880615234
sg8
I2
sg9
F0.10806798934936523
sasg12
I4
ssI105
(dp351
g2
I0
sg3
(lp352
sg12
I1
ssI106
(dp353
g2
I1
sg3
(lp354
(dp355
g6
I2
sg7
F0.03211617469787598
sg8
I4
sg9
F0.00022912025451660156
sasg12
I4
ssI107
(dp356
g2
I2
sg3
(lp357
(dp358
g6
I10
sg7
F0.06425905227661133
sg8
I16
sg9
F0.0003380775451660156
sa(dp359
g6
I1
sg7
F0.0012171268463134766
sg8
I3
sg9
F0.0002751350402832031
sasg12
I16
ssI108
(dp360
g2
I0
sg3
(lp361
sg12
I1
ss.