(dp0
I1
(dp1
S'iters'
p2
I3
sS'meta'
p3
(lp4
(dp5
S'objective'
p6
I38
sS'query_time'
p7
F0.038969993591308594
sS'comp_time'
p8
F0.02058720588684082
sS'exec_cq'
p9
I12
sS'total_cq'
p10
I12
sa(dp11
g6
I34
sg7
F7.319450378417969e-05
sg8
F0.00019502639770507812
sg9
I10
sg10
I10
sa(dp12
g6
I32
sg7
F5.1975250244140625e-05
sg8
F0.00012111663818359375
sg9
I9
sg10
I9
sasS'total_cqs'
p13
I12
ssI2
(dp14
S'iters'
p15
I6
sS'meta'
p16
(lp17
(dp18
S'objective'
p19
I262
sS'query_time'
p20
F0.2079012393951416
sS'comp_time'
p21
F0.032727718353271484
sS'exec_cq'
p22
I27
sS'total_cq'
p23
I27
sa(dp24
g19
I230
sg20
F0.0002162456512451172
sg21
F0.0008389949798583984
sg22
I24
sg23
I24
sa(dp25
g19
I185
sg20
F0.00015091896057128906
sg21
F0.0007090568542480469
sg22
I22
sg23
I22
sa(dp26
g19
I186
sg20
F0.0001327991485595703
sg21
F0.0004570484161376953
sg22
I19
sg23
I19
sa(dp27
g19
I176
sg20
F0.0001678466796875
sg21
F0.00042891502380371094
sg22
I18
sg23
I18
sa(dp28
g19
I162
sg20
F0.00011491775512695312
sg21
F0.0003108978271484375
sg22
I16
sg23
I16
sasS'total_cqs'
p29
I27
ssI3
(dp30
S'iters'
p31
I4
sS'meta'
p32
(lp33
(dp34
S'objective'
p35
I470
sS'query_time'
p36
F184.28202891349792
sS'comp_time'
p37
F0.9312407970428467
sS'exec_cq'
p38
I30
sS'total_cq'
p39
I43
sa(dp40
g35
I436
sg36
F43.803160667419434
sg37
F2.049856185913086
sg38
I31
sg39
I35
sa(dp41
g35
I504
sg36
F12.281856060028076
sg37
F0.4577450752258301
sg38
I28
sg39
I28
sa(dp42
g35
I492
sg36
F0.010486602783203125
sg37
F0.00036907196044921875
sg38
I25
sg39
I25
sasS'total_cqs'
p43
I43
ssI4
(dp44
S'iters'
p45
I2
sS'meta'
p46
(lp47
(dp48
S'objective'
p49
I46
sS'query_time'
p50
F4.921195030212402
sS'comp_time'
p51
F0.41152000427246094
sS'exec_cq'
p52
I11
sS'total_cq'
p53
I11
sa(dp54
g49
I4
sg50
F0.19098305702209473
sg51
F0.2624361515045166
sg52
I2
sg53
I2
sasS'total_cqs'
p55
I11
ssI5
(dp56
S'iters'
p57
I3
sS'meta'
p58
(lp59
(dp60
S'objective'
p61
I0
sS'query_time'
p62
F32.414637088775635
sS'comp_time'
p63
F3.2090580463409424
sS'exec_cq'
p64
I8
sS'total_cq'
p65
I8
sa(dp66
g61
I0
sg62
F0.10358500480651855
sg63
F0.5268218517303467
sg64
I5
sg65
I5
sa(dp67
g61
I1
sg62
F0.007609844207763672
sg63
F0.12650609016418457
sg64
I2
sg65
I2
sasS'total_cqs'
p68
I8
ssI6
(dp69
S'iters'
p70
I4
sS'meta'
p71
(lp72
(dp73
S'objective'
p74
I47
sS'query_time'
p75
F34.11251497268677
sS'comp_time'
p76
F1.5599925518035889
sS'exec_cq'
p77
I18
sS'total_cq'
p78
I18
sa(dp79
g74
I0
sg75
F0.672590970993042
sg76
F15.409471273422241
sg77
I7
sg78
I7
sa(dp80
g74
I5
sg75
F0.45327305793762207
sg76
F1.3186547756195068
sg77
I3
sg78
I3
sa(dp81
g74
I7
sg75
F0.4764668941497803
sg76
F0.6883227825164795
sg77
I2
sg78
I2
sasS'total_cqs'
p82
I18
ssI7
(dp83
S'iters'
p84
I3
sS'meta'
p85
(lp86
(dp87
S'objective'
p88
I1
sS'query_time'
p89
F12.643171072006226
sS'comp_time'
p90
F1.4444561004638672
sS'exec_cq'
p91
I9
sS'total_cq'
p92
I9
sa(dp93
g88
I0
sg89
F0.13034415245056152
sg90
F0.5578329563140869
sg91
I5
sg92
I5
sa(dp94
g88
I1
sg89
F0.0040340423583984375
sg90
F0.007573127746582031
sg91
I2
sg92
I2
sasS'total_cqs'
p95
I9
ssI8
(dp96
S'iters'
p97
I3
sS'meta'
p98
(lp99
(dp100
S'objective'
p101
I244
sS'query_time'
p102
F0.20010590553283691
sS'comp_time'
p103
F0.032866716384887695
sS'exec_cq'
p104
I27
sS'total_cq'
p105
I27
sa(dp106
g101
I195
sg102
F0.00018286705017089844
sg103
F0.0007374286651611328
sg104
I24
sg105
I24
sa(dp107
g101
I223
sg102
F8.392333984375e-05
sg103
F0.00023317337036132812
sg104
I19
sg105
I19
sasS'total_cqs'
p108
I27
ssI9
(dp109
S'iters'
p110
I3
sS'meta'
p111
(lp112
(dp113
S'objective'
p114
I4
sS'query_time'
p115
F0.051564931869506836
sS'comp_time'
p116
F0.00504755973815918
sS'exec_cq'
p117
I7
sS'total_cq'
p118
I7
sa(dp119
g114
I0
sg115
F3.790855407714844e-05
sg116
F0.00021791458129882812
sg117
I4
sg118
I4
sa(dp120
g114
I2
sg115
F1.7881393432617188e-05
sg116
F8.082389831542969e-05
sg117
I2
sg118
I2
sasS'total_cqs'
p121
I7
ssI10
(dp122
S'iters'
p123
I5
sS'meta'
p124
(lp125
(dp126
S'objective'
p127
I652
sS'query_time'
p128
F0.3794558048248291
sS'comp_time'
p129
F0.10479545593261719
sS'exec_cq'
p130
I51
sS'total_cq'
p131
I51
sa(dp132
g127
I19
sg128
F0.0030629634857177734
sg129
F0.006532907485961914
sg130
I12
sg131
I12
sa(dp133
g127
I24
sg128
F0.00010395050048828125
sg129
F0.0010573863983154297
sg130
I6
sg131
I6
sa(dp134
g127
I3
sg128
F5.602836608886719e-05
sg129
F0.000244140625
sg130
I3
sg131
I3
sa(dp135
g127
I2
sg128
F4.482269287109375e-05
sg129
F0.00019025802612304688
sg130
I2
sg131
I2
sasS'total_cqs'
p136
I51
ssI11
(dp137
S'iters'
p138
I5
sS'meta'
p139
(lp140
(dp141
S'objective'
p142
I1016
sS'query_time'
p143
F0.5494720935821533
sS'comp_time'
p144
F0.15064430236816406
sS'exec_cq'
p145
I63
sS'total_cq'
p146
I63
sa(dp147
g142
I818
sg143
F0.0011990070343017578
sg144
F0.004566669464111328
sg145
I47
sg146
I47
sa(dp148
g142
I13
sg143
F0.0018990039825439453
sg144
F0.003016233444213867
sg145
I9
sg146
I9
sa(dp149
g142
I7
sg143
F4.100799560546875e-05
sg144
F0.0002682209014892578
sg145
I5
sg146
I5
sa(dp150
g142
I28
sg143
F1.6927719116210938e-05
sg144
F0.00011181831359863281
sg145
I2
sg146
I2
sasS'total_cqs'
p151
I63
ssI12
(dp152
S'iters'
p153
I5
sS'meta'
p154
(lp155
(dp156
S'objective'
p157
I481
sS'query_time'
p158
F0.34507203102111816
sS'comp_time'
p159
F0.0977621078491211
sS'exec_cq'
p160
I50
sS'total_cq'
p161
I50
sa(dp162
g157
I406
sg158
F0.0009260177612304688
sg159
F0.004167079925537109
sg160
I33
sg161
I33
sa(dp163
g157
I30
sg158
F0.002711057662963867
sg159
F0.0020079612731933594
sg160
I8
sg161
I8
sa(dp164
g157
I7
sg158
F4.506111145019531e-05
sg159
F0.0002799034118652344
sg160
I3
sg161
I3
sa(dp165
g157
I3
sg158
F2.9087066650390625e-05
sg159
F0.00013899803161621094
sg160
I2
sg161
I2
sasS'total_cqs'
p166
I50
ssI13
(dp167
S'iters'
p168
I3
sS'meta'
p169
(lp170
(dp171
S'objective'
p172
I6
sS'query_time'
p173
F0.16901111602783203
sS'comp_time'
p174
F0.03010416030883789
sS'exec_cq'
p175
I20
sS'total_cq'
p176
I20
sa(dp177
g172
I42
sg173
F4.792213439941406e-05
sg174
F0.0004851818084716797
sg175
I9
sg176
I9
sa(dp178
g172
I8
sg173
F0.0018968582153320312
sg174
F0.0001800060272216797
sg175
I2
sg176
I2
sasS'total_cqs'
p179
I20
ssI14
(dp180
S'iters'
p181
I3
sS'meta'
p182
(lp183
(dp184
S'objective'
p185
I1
sS'query_time'
p186
F30.05440402030945
sS'comp_time'
p187
F0.7379190921783447
sS'exec_cq'
p188
I9
sS'total_cq'
p189
I9
sa(dp190
g185
I0
sg186
F0.27765393257141113
sg187
F0.5162320137023926
sg188
I5
sg189
I5
sa(dp191
g185
I1
sg186
F0.06547713279724121
sg187
F0.255218505859375
sg188
I2
sg189
I2
sasS'total_cqs'
p192
I9
ssI15
(dp193
S'iters'
p194
I4
sS'meta'
p195
(lp196
(dp197
S'objective'
p198
I2
sS'query_time'
p199
F3.9274110794067383
sS'comp_time'
p200
F0.12122297286987305
sS'exec_cq'
p201
I11
sS'total_cq'
p202
I11
sa(dp203
g198
I14
sg199
F0.01342010498046875
sg200
F0.022383928298950195
sg201
I6
sg202
I6
sa(dp204
g198
I4
sg199
F0.1228029727935791
sg200
F0.032388925552368164
sg201
I5
sg202
I5
sa(dp205
g198
I4
sg199
F0.012782096862792969
sg200
F0.02475881576538086
sg201
I2
sg202
I2
sasS'total_cqs'
p206
I11
ssI16
(dp207
S'iters'
p208
I1
sS'meta'
p209
(lp210
(dp211
S'objective'
p212
I26
sS'query_time'
p213
F0.023272037506103516
sS'comp_time'
p214
F0.003738880157470703
sS'exec_cq'
p215
I8
sS'total_cq'
p216
I8
sasS'total_cqs'
p217
I8
ssI17
(dp218
S'iters'
p219
I4
sS'meta'
p220
(lp221
(dp222
S'objective'
p223
I0
sS'query_time'
p224
F0.9391939640045166
sS'comp_time'
p225
F0.03429007530212402
sS'exec_cq'
p226
I11
sS'total_cq'
p227
I11
sa(dp228
g223
I13
sg224
F0.003492116928100586
sg225
F0.0048596858978271484
sg226
I6
sg227
I6
sa(dp229
g223
I5
sg224
F0.0026671886444091797
sg225
F0.007157087326049805
sg226
I5
sg227
I5
sa(dp230
g223
I5
sg224
F0.0025599002838134766
sg225
F0.004914283752441406
sg226
I2
sg227
I2
sasS'total_cqs'
p231
I11
ssI18
(dp232
S'iters'
p233
I2
sS'meta'
p234
(lp235
(dp236
S'objective'
p237
I18
sS'query_time'
p238
F0.2692391872406006
sS'comp_time'
p239
F0.026995420455932617
sS'exec_cq'
p240
I11
sS'total_cq'
p241
I11
sa(dp242
g237
I28
sg238
F0.000431060791015625
sg239
F0.0005445480346679688
sg240
I7
sg241
I8
sasS'total_cqs'
p243
I11
ssI22
(dp244
S'iters'
p245
I1
sS'meta'
p246
(lp247
(dp248
S'objective'
p249
I151
sS'query_time'
p250
F0.09315681457519531
sS'comp_time'
p251
F0.03519606590270996
sS'exec_cq'
p252
I18
sS'total_cq'
p253
I18
sasS'total_cqs'
p254
I18
ssI23
(dp255
S'iters'
p256
I2
sS'meta'
p257
(lp258
(dp259
S'objective'
p260
I108
sS'query_time'
p261
F0.1258258819580078
sS'comp_time'
p262
F0.02368640899658203
sS'exec_cq'
p263
I16
sS'total_cq'
p264
I16
sa(dp265
g260
I104
sg261
F7.510185241699219e-05
sg262
F0.0001270771026611328
sg263
I15
sg264
I15
sasS'total_cqs'
p266
I16
ssI26
(dp267
S'iters'
p268
I1
sS'meta'
p269
(lp270
(dp271
S'objective'
p272
I859
sS'query_time'
p273
F0.1496880054473877
sS'comp_time'
p274
F0.10751819610595703
sS'exec_cq'
p275
I42
sS'total_cq'
p276
I42
sasS'total_cqs'
p277
I42
ssI27
(dp278
S'iters'
p279
I4
sS'meta'
p280
(lp281
(dp282
S'objective'
p283
I311
sS'query_time'
p284
F21.674152135849
sS'comp_time'
p285
F1.392632246017456
sS'exec_cq'
p286
I30
sS'total_cq'
p287
I30
sa(dp288
g283
I300
sg284
F0.30292606353759766
sg285
F0.9659998416900635
sg286
I27
sg287
I27
sa(dp289
g283
I4
sg284
F0.4344518184661865
sg285
F1.085282802581787
sg286
I4
sg287
I4
sa(dp290
g283
I8
sg284
F0.4081149101257324
sg285
F1.2115490436553955
sg286
I2
sg287
I2
sasS'total_cqs'
p291
I30
ssI29
(dp292
S'iters'
p293
I5
sS'meta'
p294
(lp295
(dp296
S'objective'
p297
I287
sS'query_time'
p298
F26.521870136260986
sS'comp_time'
p299
F0.35064220428466797
sS'exec_cq'
p300
I35
sS'total_cq'
p301
I49
sa(dp302
g297
I21
sg298
F0.07160305976867676
sg299
F1.258117437362671
sg300
I16
sg301
I16
sa(dp303
g297
I3
sg298
F0.11301779747009277
sg299
F0.09040260314941406
sg300
I8
sg301
I8
sa(dp304
g297
I16
sg298
F0.09163713455200195
sg299
F0.050475358963012695
sg300
I4
sg301
I4
sa(dp305
g297
I2
sg298
F0.001516103744506836
sg299
F0.0018334388732910156
sg300
I2
sg301
I2
sasS'total_cqs'
p306
I49
ssI30
(dp307
S'iters'
p308
I1
sS'meta'
p309
(lp310
(dp311
S'objective'
p312
I1
sS'query_time'
p313
F0.7495441436767578
sS'comp_time'
p314
F0.01326131820678711
sS'exec_cq'
p315
I2
sS'total_cq'
p316
I2
sasS'total_cqs'
p317
I2
ssI32
(dp318
S'iters'
p319
I1
sS'meta'
p320
(lp321
(dp322
S'objective'
p323
I1
sS'query_time'
p324
F0.021121978759765625
sS'comp_time'
p325
F0.0027043819427490234
sS'exec_cq'
p326
I2
sS'total_cq'
p327
I2
sasS'total_cqs'
p328
I2
ssI33
(dp329
S'iters'
p330
I5
sS'meta'
p331
(lp332
(dp333
S'objective'
p334
I3952
sS'query_time'
p335
F16.810138940811157
sS'comp_time'
p336
F1.3367793560028076
sS'exec_cq'
p337
I103
sS'total_cq'
p338
I103
sa(dp339
g334
I16
sg335
F0.012243032455444336
sg336
F0.07196736335754395
sg337
I16
sg338
I16
sa(dp340
g334
I11
sg335
F0.0051920413970947266
sg336
F0.0209653377532959
sg337
I9
sg338
I9
sa(dp341
g334
I9
sg335
F0.00045490264892578125
sg336
F0.0012850761413574219
sg337
I4
sg338
I4
sa(dp342
g334
I22
sg335
F0.00010991096496582031
sg336
F0.00036025047302246094
sg337
I2
sg338
I2
sasS'total_cqs'
p343
I103
ssI34
(dp344
S'iters'
p345
I1
sS'meta'
p346
(lp347
(dp348
S'objective'
p349
I1
sS'query_time'
p350
F0.01646590232849121
sS'comp_time'
p351
F0.0018298625946044922
sS'exec_cq'
p352
I2
sS'total_cq'
p353
I2
sasS'total_cqs'
p354
I2
ssI35
(dp355
S'iters'
p356
I5
sS'meta'
p357
(lp358
(dp359
S'objective'
p360
I1341
sS'query_time'
p361
F69.57904100418091
sS'comp_time'
p362
F2.3631649017333984
sS'exec_cq'
p363
I70
sS'total_cq'
p364
I70
sa(dp365
g360
I16
sg361
F0.004781961441040039
sg362
F0.01272130012512207
sg363
I16
sg364
I16
sa(dp366
g360
I8
sg361
F0.0022509098052978516
sg362
F0.0047991275787353516
sg363
I9
sg364
I9
sa(dp367
g360
I19
sg361
F0.0010759830474853516
sg362
F0.001996755599975586
sg363
I4
sg364
I4
sa(dp368
g360
I13
sg361
F0.0006780624389648438
sg362
F0.0010721683502197266
sg363
I2
sg364
I2
sasS'total_cqs'
p369
I70
ssI36
(dp370
S'iters'
p371
I5
sS'meta'
p372
(lp373
(dp374
S'objective'
p375
I419
sS'query_time'
p376
F0.8130111694335938
sS'comp_time'
p377
F0.11520147323608398
sS'exec_cq'
p378
I33
sS'total_cq'
p379
I33
sa(dp380
g375
I394
sg376
F0.008232831954956055
sg377
F0.016315221786499023
sg378
I29
sg379
I29
sa(dp381
g375
I382
sg376
F0.0026197433471679688
sg377
F0.004033565521240234
sg378
I25
sg379
I25
sa(dp382
g375
I358
sg376
F0.0006220340728759766
sg377
F0.0005011558532714844
sg378
I24
sg379
I24
sa(dp383
g375
I349
sg376
F0.00011682510375976562
sg377
F0.0002460479736328125
sg378
I23
sg379
I23
sasS'total_cqs'
p384
I33
ssI37
(dp385
S'iters'
p386
I1
sS'meta'
p387
(lp388
(dp389
S'objective'
p390
I1
sS'query_time'
p391
F0.015832901000976562
sS'comp_time'
p392
F0.001811981201171875
sS'exec_cq'
p393
I2
sS'total_cq'
p394
I2
sasS'total_cqs'
p395
I2
ssI38
(dp396
S'iters'
p397
I2
sS'meta'
p398
(lp399
(dp400
S'objective'
p401
I0
sS'query_time'
p402
F0.032691001892089844
sS'comp_time'
p403
F0.005491018295288086
sS'exec_cq'
p404
I4
sS'total_cq'
p405
I4
sa(dp406
g401
I1
sg402
F9.894371032714844e-05
sg403
F0.00025010108947753906
sg404
I2
sg405
I2
sasS'total_cqs'
p407
I4
ssI39
(dp408
S'iters'
p409
I2
sS'meta'
p410
(lp411
(dp412
S'objective'
p413
I652
sS'query_time'
p414
F0.22286200523376465
sS'comp_time'
p415
F0.08629083633422852
sS'exec_cq'
p416
I44
sS'total_cq'
p417
I44
sa(dp418
g413
I775
sg414
F0.0003190040588378906
sg415
F0.0010058879852294922
sg416
I37
sg417
I37
sasS'total_cqs'
p419
I44
ssI40
(dp420
S'iters'
p421
I1
sS'meta'
p422
(lp423
(dp424
S'objective'
p425
I18
sS'query_time'
p426
F0.03855109214782715
sS'comp_time'
p427
F0.005713939666748047
sS'exec_cq'
p428
I7
sS'total_cq'
p429
I7
sasS'total_cqs'
p430
I7
ssI41
(dp431
S'iters'
p432
I1
sS'meta'
p433
(lp434
(dp435
S'objective'
p436
I64
sS'query_time'
p437
F0.09168100357055664
sS'comp_time'
p438
F0.01651906967163086
sS'exec_cq'
p439
I12
sS'total_cq'
p440
I12
sasS'total_cqs'
p441
I12
ssI42
(dp442
S'iters'
p443
I3
sS'meta'
p444
(lp445
(dp446
S'objective'
p447
I785
sS'query_time'
p448
F0.12058115005493164
sS'comp_time'
p449
F0.06965112686157227
sS'exec_cq'
p450
I41
sS'total_cq'
p451
I41
sa(dp452
g447
I751
sg448
F0.0002048015594482422
sg449
F0.0002713203430175781
sg450
I40
sg451
I40
sa(dp453
g447
I743
sg448
F0.0001690387725830078
sg449
F0.00017380714416503906
sg450
I39
sg451
I39
sasS'total_cqs'
p454
I41
ssI43
(dp455
S'iters'
p456
I1
sS'meta'
p457
(lp458
(dp459
S'objective'
p460
I18
sS'query_time'
p461
F0.08463501930236816
sS'comp_time'
p462
F0.0055921077728271484
sS'exec_cq'
p463
I7
sS'total_cq'
p464
I7
sasS'total_cqs'
p465
I7
ssI44
(dp466
S'iters'
p467
I4
sS'meta'
p468
(lp469
(dp470
S'objective'
p471
I680
sS'query_time'
p472
F0.15002918243408203
sS'comp_time'
p473
F0.21430659294128418
sS'exec_cq'
p474
I47
sS'total_cq'
p475
I47
sa(dp476
g471
I778
sg472
F0.0013918876647949219
sg473
F0.0014293193817138672
sg474
I40
sg475
I40
sa(dp477
g471
I11
sg472
F0.0015010833740234375
sg473
F0.0016279220581054688
sg474
I3
sg475
I3
sa(dp478
g471
I24
sg472
F0.00010704994201660156
sg473
F0.0002200603485107422
sg474
I2
sg475
I2
sasS'total_cqs'
p479
I47
ssI46
(dp480
S'iters'
p481
I3
sS'meta'
p482
(lp483
(dp484
S'objective'
p485
I9
sS'query_time'
p486
F0.027467966079711914
sS'comp_time'
p487
F0.003828763961791992
sS'exec_cq'
p488
I4
sS'total_cq'
p489
I6
sa(dp490
g485
I5
sg486
F2.5987625122070312e-05
sg487
F0.00010037422180175781
sg488
I3
sg489
I5
sa(dp491
g485
I2
sg486
F1.5020370483398438e-05
sg487
F5.7220458984375e-05
sg488
I2
sg489
I4
sasS'total_cqs'
p492
I6
ssI47
(dp493
S'iters'
p494
I1
sS'meta'
p495
(lp496
(dp497
S'objective'
p498
I1
sS'query_time'
p499
F0.008187055587768555
sS'comp_time'
p500
F0.0008230209350585938
sS'exec_cq'
p501
I2
sS'total_cq'
p502
I2
sasS'total_cqs'
p503
I2
ssI50
(dp504
S'iters'
p505
I2
sS'meta'
p506
(lp507
(dp508
S'objective'
p509
I5
sS'query_time'
p510
F0.015500783920288086
sS'comp_time'
p511
F0.002184152603149414
sS'exec_cq'
p512
I5
sS'total_cq'
p513
I5
sa(dp514
g509
I2
sg510
F3.600120544433594e-05
sg511
F0.0001480579376220703
sg512
I4
sg513
I4
sasS'total_cqs'
p515
I5
ssI51
(dp516
S'iters'
p517
I1
sS'meta'
p518
(lp519
(dp520
S'objective'
p521
I1
sS'query_time'
p522
F0.007910013198852539
sS'comp_time'
p523
F0.0011320114135742188
sS'exec_cq'
p524
I2
sS'total_cq'
p525
I2
sasS'total_cqs'
p526
I2
ssI52
(dp527
S'iters'
p528
I1
sS'meta'
p529
(lp530
(dp531
S'objective'
p532
I1
sS'query_time'
p533
F0.0116729736328125
sS'comp_time'
p534
F0.0010249614715576172
sS'exec_cq'
p535
I2
sS'total_cq'
p536
I2
sasS'total_cqs'
p537
I2
ssI53
(dp538
S'iters'
p539
I2
sS'meta'
p540
(lp541
(dp542
S'objective'
p543
I2
sS'query_time'
p544
F0.05795097351074219
sS'comp_time'
p545
F0.0044252872467041016
sS'exec_cq'
p546
I4
sS'total_cq'
p547
I4
sa(dp548
g543
I0
sg544
F8.511543273925781e-05
sg545
F0.0002357959747314453
sg546
I3
sg547
I3
sasS'total_cqs'
p549
I4
ssI54
(dp550
S'iters'
p551
I1
sS'meta'
p552
(lp553
(dp554
S'objective'
p555
I0
sS'query_time'
p556
F0.014509916305541992
sS'comp_time'
p557
F0.001863241195678711
sS'exec_cq'
p558
I3
sS'total_cq'
p559
I3
sasS'total_cqs'
p560
I3
ssI55
(dp561
S'iters'
p562
I7
sS'meta'
p563
(lp564
(dp565
S'objective'
p566
I4629
sS'query_time'
p567
F2.1781349182128906
sS'comp_time'
p568
F0.6501998901367188
sS'exec_cq'
p569
I109
sS'total_cq'
p570
I109
sa(dp571
g566
I4668
sg567
F0.0010099411010742188
sg568
F0.007491111755371094
sg569
I97
sg570
I97
sa(dp572
g566
I4614
sg567
F0.00041794776916503906
sg568
F0.0021610260009765625
sg569
I91
sg570
I91
sa(dp573
g566
I4466
sg567
F0.00042700767517089844
sg568
F0.002226114273071289
sg569
I87
sg570
I87
sa(dp574
g566
I4388
sg567
F0.00035119056701660156
sg568
F0.0009288787841796875
sg569
I85
sg570
I85
sa(dp575
g566
I4335
sg567
F0.00033402442932128906
sg568
F0.0007398128509521484
sg569
I83
sg570
I83
sa(dp576
g566
I4311
sg567
F0.0003287792205810547
sg568
F0.0006060600280761719
sg569
I81
sg570
I81
sasS'total_cqs'
p577
I109
ssI56
(dp578
S'iters'
p579
I5
sS'meta'
p580
(lp581
(dp582
S'objective'
p583
I1586
sS'query_time'
p584
F1.4913439750671387
sS'comp_time'
p585
F0.501410961151123
sS'exec_cq'
p586
I67
sS'total_cq'
p587
I76
sa(dp588
g583
I2
sg584
F0.0072021484375
sg585
F0.06960511207580566
sg586
I16
sg587
I16
sa(dp589
g583
I12
sg584
F0.00074005126953125
sg585
F0.003086090087890625
sg586
I7
sg587
I7
sa(dp590
g583
I32
sg584
F0.00026607513427734375
sg585
F0.0005731582641601562
sg586
I3
sg587
I3
sa(dp591
g583
I19
sg584
F0.00015997886657714844
sg585
F0.0003762245178222656
sg586
I2
sg587
I2
sasS'total_cqs'
p592
I76
ssI57
(dp593
S'iters'
p594
I6
sS'meta'
p595
(lp596
(dp597
S'objective'
p598
I282
sS'query_time'
p599
F22.49206805229187
sS'comp_time'
p600
F0.3837413787841797
sS'exec_cq'
p601
I45
sS'total_cq'
p602
I51
sa(dp603
g598
I184
sg599
F0.0031290054321289062
sg600
F0.007050037384033203
sg601
I27
sg602
I33
sa(dp604
g598
I4
sg599
F0.0028409957885742188
sg600
F0.0603785514831543
sg601
I13
sg602
I13
sa(dp605
g598
I5
sg599
F0.0015599727630615234
sg600
F0.002246379852294922
sg601
I5
sg602
I5
sa(dp606
g598
I5
sg599
F0.0010230541229248047
sg600
F0.0011639595031738281
sg601
I3
sg602
I3
sa(dp607
g598
I11
sg599
F0.0004620552062988281
sg600
F0.0006833076477050781
sg601
I2
sg602
I2
sasS'total_cqs'
p608
I51
ssI58
(dp609
S'iters'
p610
I7
sS'meta'
p611
(lp612
(dp613
S'objective'
p614
I81563
sS'query_time'
p615
F323.31919527053833
sS'comp_time'
p616
F24.82347583770752
sS'exec_cq'
p617
I486
sS'total_cq'
p618
I486
sa(dp619
g614
I86144
sg615
F5.542561054229736
sg616
F9.36357593536377
sg617
I414
sg618
I414
sa(dp620
g614
I70
sg615
F0.016911029815673828
sg616
F0.237548828125
sg617
I28
sg618
I28
sa(dp621
g614
I7
sg615
F0.0075359344482421875
sg616
F0.32152700424194336
sg617
I16
sg618
I16
sa(dp622
g614
I45
sg615
F0.0015420913696289062
sg616
F0.015091896057128906
sg617
I9
sg618
I9
sa(dp623
g614
I21
sg615
F0.0008718967437744141
sg616
F0.0018308162689208984
sg617
I5
sg618
I5
sa(dp624
g614
I73
sg615
F0.0006368160247802734
sg616
F0.0011167526245117188
sg617
I3
sg618
I3
sasS'total_cqs'
p625
I486
ssI59
(dp626
S'iters'
p627
I2
sS'meta'
p628
(lp629
(dp630
S'objective'
p631
I4
sS'query_time'
p632
F0.049468994140625
sS'comp_time'
p633
F0.006788969039916992
sS'exec_cq'
p634
I7
sS'total_cq'
p635
I7
sa(dp636
g631
I2
sg632
F0.00013899803161621094
sg633
F0.0003120899200439453
sg634
I2
sg635
I2
sasS'total_cqs'
p637
I7
ssI60
(dp638
S'iters'
p639
I2
sS'meta'
p640
(lp641
(dp642
S'objective'
p643
I5
sS'query_time'
p644
F0.02134394645690918
sS'comp_time'
p645
F0.0033032894134521484
sS'exec_cq'
p646
I4
sS'total_cq'
p647
I5
sa(dp648
g643
I2
sg644
F6.794929504394531e-05
sg645
F0.00018596649169921875
sg646
I3
sg647
I4
sasS'total_cqs'
p649
I5
ssI62
(dp650
S'iters'
p651
I3
sS'meta'
p652
(lp653
(dp654
S'objective'
p655
I54
sS'query_time'
p656
F0.040814876556396484
sS'comp_time'
p657
F0.020129680633544922
sS'exec_cq'
p658
I12
sS'total_cq'
p659
I12
sa(dp660
g655
I46
sg656
F7.987022399902344e-05
sg657
F0.00021791458129882812
sg658
I11
sg659
I11
sa(dp661
g655
I42
sg656
F3.504753112792969e-05
sg657
F0.00011467933654785156
sg658
I8
sg659
I8
sasS'total_cqs'
p662
I12
ssI64
(dp663
S'iters'
p664
I3
sS'meta'
p665
(lp666
(dp667
S'objective'
p668
I30
sS'query_time'
p669
F0.12723898887634277
sS'comp_time'
p670
F0.15347623825073242
sS'exec_cq'
p671
I12
sS'total_cq'
p672
I12
sa(dp673
g668
I2
sg669
F0.00019621849060058594
sg670
F0.0009698867797851562
sg671
I4
sg672
I4
sa(dp674
g668
I1
sg669
F6.29425048828125e-05
sg670
F0.00016617774963378906
sg671
I2
sg672
I2
sasS'total_cqs'
p675
I12
ssI65
(dp676
S'iters'
p677
I4
sS'meta'
p678
(lp679
(dp680
S'objective'
p681
I236
sS'query_time'
p682
F0.9489529132843018
sS'comp_time'
p683
F0.06238746643066406
sS'exec_cq'
p684
I27
sS'total_cq'
p685
I27
sa(dp686
g681
I1
sg682
F0.0018260478973388672
sg683
F0.0030689239501953125
sg684
I7
sg685
I7
sa(dp687
g681
I1
sg682
F0.000518798828125
sg683
F0.0013489723205566406
sg684
I4
sg685
I4
sa(dp688
g681
I12
sg682
F0.00013399124145507812
sg683
F0.0002999305725097656
sg684
I2
sg685
I2
sasS'total_cqs'
p689
I27
ssI67
(dp690
S'iters'
p691
I2
sS'meta'
p692
(lp693
(dp694
S'objective'
p695
I544
sS'query_time'
p696
F0.8910038471221924
sS'comp_time'
p697
F0.07775187492370605
sS'exec_cq'
p698
I35
sS'total_cq'
p699
I35
sa(dp700
g695
I5
sg696
F0.001068115234375
sg697
F0.0025179386138916016
sg698
I2
sg699
I2
sasS'total_cqs'
p701
I35
ssI69
(dp702
S'iters'
p703
I1
sS'meta'
p704
(lp705
(dp706
S'objective'
p707
I1272
sS'query_time'
p708
F0.16344690322875977
sS'comp_time'
p709
F0.09706258773803711
sS'exec_cq'
p710
I51
sS'total_cq'
p711
I51
sasS'total_cqs'
p712
I51
ssI70
(dp713
S'iters'
p714
I1
sS'meta'
p715
(lp716
(dp717
S'objective'
p718
I13
sS'query_time'
p719
F0.023498058319091797
sS'comp_time'
p720
F0.002482891082763672
sS'exec_cq'
p721
I6
sS'total_cq'
p722
I6
sasS'total_cqs'
p723
I6
ssI71
(dp724
S'iters'
p725
I3
sS'meta'
p726
(lp727
(dp728
S'objective'
p729
I3317
sS'query_time'
p730
F0.32485365867614746
sS'comp_time'
p731
F0.37495923042297363
sS'exec_cq'
p732
I85
sS'total_cq'
p733
I85
sa(dp734
g729
I13
sg730
F0.0019540786743164062
sg731
F0.004607439041137695
sg732
I3
sg733
I3
sa(dp735
g729
I3
sg730
F0.0036258697509765625
sg731
F0.00012826919555664062
sg732
I2
sg733
I2
sasS'total_cqs'
p736
I85
ssI72
(dp737
S'iters'
p738
I3
sS'meta'
p739
(lp740
(dp741
S'objective'
p742
I12
sS'query_time'
p743
F0.27786707878112793
sS'comp_time'
p744
F0.0039825439453125
sS'exec_cq'
p745
I8
sS'total_cq'
p746
I8
sa(dp747
g742
I4
sg743
F6.890296936035156e-05
sg744
F0.00013208389282226562
sg745
I4
sg746
I5
sa(dp748
g742
I4
sg743
F1.3113021850585938e-05
sg744
F2.5987625122070312e-05
sg745
I2
sg746
I3
sasS'total_cqs'
p749
I8
ssI75
(dp750
S'iters'
p751
I2
sS'meta'
p752
(lp753
(dp754
S'objective'
p755
I5
sS'query_time'
p756
F0.010706901550292969
sS'comp_time'
p757
F0.0016231536865234375
sS'exec_cq'
p758
I5
sS'total_cq'
p759
I5
sa(dp760
g755
I2
sg756
F3.1948089599609375e-05
sg757
F0.0001480579376220703
sg758
I4
sg759
I4
sasS'total_cqs'
p761
I5
ssI76
(dp762
S'iters'
p763
I1
sS'meta'
p764
(lp765
(dp766
S'objective'
p767
I1
sS'query_time'
p768
F0.011828899383544922
sS'comp_time'
p769
F0.0011296272277832031
sS'exec_cq'
p770
I2
sS'total_cq'
p771
I2
sasS'total_cqs'
p772
I2
ssI103
(dp773
S'iters'
p774
I2
sS'meta'
p775
(lp776
(dp777
S'objective'
p778
I58
sS'query_time'
p779
F0.06659889221191406
sS'comp_time'
p780
F0.01717376708984375
sS'exec_cq'
p781
I12
sS'total_cq'
p782
I12
sa(dp783
g778
I54
sg779
F4.100799560546875e-05
sg780
F0.00012993812561035156
sg781
I11
sg782
I11
sasS'total_cqs'
p784
I12
ssI104
(dp785
S'iters'
p786
I2
sS'meta'
p787
(lp788
(dp789
S'objective'
p790
I0
sS'query_time'
p791
F1.345156192779541
sS'comp_time'
p792
F0.12665009498596191
sS'exec_cq'
p793
I4
sS'total_cq'
p794
I4
sa(dp795
g790
I1
sg791
F0.011059999465942383
sg792
F0.020056962966918945
sg793
I2
sg794
I2
sasS'total_cqs'
p796
I4
ssI106
(dp797
S'iters'
p798
I1
sS'meta'
p799
(lp800
(dp801
S'objective'
p802
I4
sS'query_time'
p803
F0.018337011337280273
sS'comp_time'
p804
F0.0021202564239501953
sS'exec_cq'
p805
I4
sS'total_cq'
p806
I4
sasS'total_cqs'
p807
I4
ssI107
(dp808
S'iters'
p809
I2
sS'meta'
p810
(lp811
(dp812
S'objective'
p813
I60
sS'query_time'
p814
F0.08192205429077148
sS'comp_time'
p815
F0.09740114212036133
sS'exec_cq'
p816
I16
sS'total_cq'
p817
I16
sa(dp818
g813
I20
sg814
F0.006412029266357422
sg815
F0.0005459785461425781
sg816
I3
sg817
I3
sasS'total_cqs'
p819
I16
ss.