(dp0
I1
(dp1
S'iters'
p2
I4
sS'meta'
p3
(lp4
(dp5
S'objective'
p6
I8
sS'query_time'
p7
F0.03127908706665039
sS'comp_time'
p8
F0.01711106300354004
sS'exec_cq'
p9
I12
sS'total_cq'
p10
I12
sa(dp11
g6
I8
sg7
F6.794929504394531e-05
sg8
F0.00019788742065429688
sg9
I10
sg10
I10
sa(dp12
g6
I7
sg7
F4.696846008300781e-05
sg8
F0.00012683868408203125
sg9
I9
sg10
I9
sa(dp13
g6
I6
sg7
F3.3855438232421875e-05
sg8
F7.796287536621094e-05
sg9
I8
sg10
I8
sasS'total_cqs'
p14
I12
ssI2
(dp15
S'iters'
p16
I6
sS'meta'
p17
(lp18
(dp19
S'objective'
p20
I19
sS'query_time'
p21
F0.20118093490600586
sS'comp_time'
p22
F0.03470802307128906
sS'exec_cq'
p23
I27
sS'total_cq'
p24
I27
sa(dp25
g20
I17
sg21
F0.00019884109497070312
sg22
F0.0007994174957275391
sg23
I23
sg24
I23
sa(dp26
g20
I16
sg21
F0.00013184547424316406
sg22
F0.0004029273986816406
sg23
I20
sg24
I20
sa(dp27
g20
I14
sg21
F0.00010704994201660156
sg22
F0.0003921985626220703
sg23
I18
sg24
I18
sa(dp28
g20
I14
sg21
F9.012222290039062e-05
sg22
F0.00021409988403320312
sg23
I16
sg24
I16
sa(dp29
g20
I13
sg21
F8.20159912109375e-05
sg22
F0.00017523765563964844
sg23
I15
sg24
I15
sasS'total_cqs'
p30
I27
ssI3
(dp31
S'iters'
p32
I4
sS'meta'
p33
(lp34
(dp35
S'objective'
p36
I27
sS'query_time'
p37
F227.50701212882996
sS'comp_time'
p38
F1.9515430927276611
sS'exec_cq'
p39
I39
sS'total_cq'
p40
I43
sa(dp41
g36
I21
sg37
F0.5653500556945801
sg38
F2.2110207080841064
sg39
I31
sg40
I35
sa(dp42
g36
I22
sg37
F12.640255212783813
sg38
F0.457669734954834
sg39
I28
sg40
I28
sa(dp43
g36
I23
sg37
F0.022350788116455078
sg38
F0.0001990795135498047
sg39
I25
sg40
I25
sasS'total_cqs'
p44
I43
ssI4
(dp45
S'iters'
p46
I2
sS'meta'
p47
(lp48
(dp49
S'objective'
p50
I7
sS'query_time'
p51
F4.954823017120361
sS'comp_time'
p52
F0.3522024154663086
sS'exec_cq'
p53
I11
sS'total_cq'
p54
I11
sa(dp55
g50
I0
sg51
F0.26970601081848145
sg52
F0.37319207191467285
sg53
I2
sg54
I2
sasS'total_cqs'
p56
I11
ssI5
(dp57
S'iters'
p58
I3
sS'meta'
p59
(lp60
(dp61
S'objective'
p62
I0
sS'query_time'
p63
F32.46627688407898
sS'comp_time'
p64
F1.4121384620666504
sS'exec_cq'
p65
I8
sS'total_cq'
p66
I8
sa(dp67
g62
I0
sg63
F0.4163498878479004
sg64
F1.187774896621704
sg65
I4
sg66
I4
sa(dp68
g62
I0
sg63
F0.003854036331176758
sg64
F0.00573420524597168
sg65
I2
sg66
I2
sasS'total_cqs'
p69
I8
ssI6
(dp70
S'iters'
p71
I4
sS'meta'
p72
(lp73
(dp74
S'objective'
p75
I4
sS'query_time'
p76
F34.45185899734497
sS'comp_time'
p77
F1.9990301132202148
sS'exec_cq'
p78
I18
sS'total_cq'
p79
I18
sa(dp80
g75
I1
sg76
F1.2570180892944336
sg77
F2.4481568336486816
sg78
I7
sg79
I7
sa(dp81
g75
I0
sg76
F0.3203110694885254
sg77
F1.2725088596343994
sg78
I4
sg79
I4
sa(dp82
g75
I0
sg76
F0.1155099868774414
sg77
F0.01757192611694336
sg78
I2
sg79
I2
sasS'total_cqs'
p83
I18
ssI7
(dp84
S'iters'
p85
I4
sS'meta'
p86
(lp87
(dp88
S'objective'
p89
I1
sS'query_time'
p90
F12.518784046173096
sS'comp_time'
p91
F1.0143640041351318
sS'exec_cq'
p92
I9
sS'total_cq'
p93
I9
sa(dp94
g89
I1
sg90
F0.3356950283050537
sg91
F1.0171217918395996
sg92
I5
sg93
I5
sa(dp95
g89
I1
sg90
F0.2265310287475586
sg91
F0.3457489013671875
sg92
I3
sg93
I3
sa(dp96
g89
I0
sg90
F0.20739316940307617
sg91
F0.30567383766174316
sg92
I2
sg93
I2
sasS'total_cqs'
p97
I9
ssI8
(dp98
S'iters'
p99
I3
sS'meta'
p100
(lp101
(dp102
S'objective'
p103
I17
sS'query_time'
p104
F0.16437697410583496
sS'comp_time'
p105
F0.04074883460998535
sS'exec_cq'
p106
I27
sS'total_cq'
p107
I27
sa(dp108
g103
I16
sg104
F0.00019598007202148438
sg105
F0.000675201416015625
sg106
I22
sg107
I22
sa(dp109
g103
I17
sg104
F0.00010204315185546875
sg105
F0.00025081634521484375
sg106
I19
sg107
I19
sasS'total_cqs'
p110
I27
ssI9
(dp111
S'iters'
p112
I3
sS'meta'
p113
(lp114
(dp115
S'objective'
p116
I1
sS'query_time'
p117
F0.05181717872619629
sS'comp_time'
p118
F0.004940986633300781
sS'exec_cq'
p119
I7
sS'total_cq'
p120
I7
sa(dp121
g116
I0
sg117
F3.910064697265625e-05
sg118
F0.00022912025451660156
sg119
I4
sg120
I4
sa(dp122
g116
I0
sg117
F1.7881393432617188e-05
sg118
F7.390975952148438e-05
sg119
I2
sg120
I2
sasS'total_cqs'
p123
I7
ssI10
(dp124
S'iters'
p125
I6
sS'meta'
p126
(lp127
(dp128
S'objective'
p129
I23
sS'query_time'
p130
F0.3312950134277344
sS'comp_time'
p131
F0.08730411529541016
sS'exec_cq'
p132
I51
sS'total_cq'
p133
I51
sa(dp134
g129
I13
sg130
F0.0005230903625488281
sg131
F0.0030450820922851562
sg132
I37
sg133
I37
sa(dp135
g129
I0
sg130
F0.001600027084350586
sg131
F0.0036139488220214844
sg132
I12
sg133
I12
sa(dp136
g129
I0
sg130
F4.696846008300781e-05
sg131
F0.00032019615173339844
sg132
I6
sg133
I6
sa(dp137
g129
I1
sg130
F2.5987625122070312e-05
sg131
F0.00013899803161621094
sg132
I3
sg133
I3
sa(dp138
g129
I0
sg130
F1.5974044799804688e-05
sg131
F7.176399230957031e-05
sg132
I2
sg133
I2
sasS'total_cqs'
p139
I51
ssI11
(dp140
S'iters'
p141
I5
sS'meta'
p142
(lp143
(dp144
S'objective'
p145
I31
sS'query_time'
p146
F0.5159621238708496
sS'comp_time'
p147
F0.1634972095489502
sS'exec_cq'
p148
I63
sS'total_cq'
p149
I63
sa(dp150
g145
I29
sg146
F0.0012249946594238281
sg147
F0.007255077362060547
sg148
I47
sg149
I47
sa(dp151
g145
I1
sg146
F0.0017409324645996094
sg147
F0.0022118091583251953
sg148
I9
sg149
I9
sa(dp152
g145
I0
sg146
F3.3855438232421875e-05
sg147
F0.00023603439331054688
sg148
I4
sg149
I4
sa(dp153
g145
I0
sg146
F1.8835067749023438e-05
sg147
F8.893013000488281e-05
sg148
I2
sg149
I2
sasS'total_cqs'
p154
I63
ssI12
(dp155
S'iters'
p156
I5
sS'meta'
p157
(lp158
(dp159
S'objective'
p160
I16
sS'query_time'
p161
F0.3188169002532959
sS'comp_time'
p162
F0.12715387344360352
sS'exec_cq'
p163
I50
sS'total_cq'
p164
I50
sa(dp165
g160
I17
sg161
F0.0005471706390380859
sg162
F0.002851724624633789
sg163
I33
sg164
I33
sa(dp166
g160
I0
sg161
F0.0019910335540771484
sg162
F0.0012841224670410156
sg163
I8
sg164
I8
sa(dp167
g160
I0
sg161
F0.0001862049102783203
sg162
F0.000843048095703125
sg163
I4
sg164
I4
sa(dp168
g160
I0
sg161
F2.5987625122070312e-05
sg162
F0.00011205673217773438
sg163
I2
sg164
I2
sasS'total_cqs'
p169
I50
ssI13
(dp170
S'iters'
p171
I3
sS'meta'
p172
(lp173
(dp174
S'objective'
p175
I2
sS'query_time'
p176
F0.15810394287109375
sS'comp_time'
p177
F0.02826523780822754
sS'exec_cq'
p178
I20
sS'total_cq'
p179
I20
sa(dp180
g175
I5
sg176
F5.602836608886719e-05
sg177
F0.0004172325134277344
sg178
I9
sg179
I9
sa(dp181
g175
I0
sg176
F0.005858898162841797
sg177
F0.00018477439880371094
sg178
I2
sg179
I2
sasS'total_cqs'
p182
I20
ssI14
(dp183
S'iters'
p184
I3
sS'meta'
p185
(lp186
(dp187
S'objective'
p188
I1
sS'query_time'
p189
F31.38218092918396
sS'comp_time'
p190
F1.2170798778533936
sS'exec_cq'
p191
I9
sS'total_cq'
p192
I9
sa(dp193
g188
I0
sg189
F0.13799715042114258
sg190
F0.8904650211334229
sg191
I4
sg192
I4
sa(dp194
g188
I0
sg189
F0.008952856063842773
sg190
F0.01219797134399414
sg191
I2
sg192
I2
sasS'total_cqs'
p195
I9
ssI15
(dp196
S'iters'
p197
I3
sS'meta'
p198
(lp199
(dp200
S'objective'
p201
I1
sS'query_time'
p202
F3.885478973388672
sS'comp_time'
p203
F0.09442687034606934
sS'exec_cq'
p204
I11
sS'total_cq'
p205
I11
sa(dp206
g201
I1
sg202
F0.03171706199645996
sg203
F0.034790754318237305
sg204
I5
sg205
I5
sa(dp207
g201
I0
sg202
F0.0012390613555908203
sg203
F0.0014770030975341797
sg204
I2
sg205
I2
sasS'total_cqs'
p208
I11
ssI16
(dp209
S'iters'
p210
I1
sS'meta'
p211
(lp212
(dp213
S'objective'
p214
I6
sS'query_time'
p215
F0.022635936737060547
sS'comp_time'
p216
F0.003818035125732422
sS'exec_cq'
p217
I8
sS'total_cq'
p218
I8
sasS'total_cqs'
p219
I8
ssI17
(dp220
S'iters'
p221
I4
sS'meta'
p222
(lp223
(dp224
S'objective'
p225
I1
sS'query_time'
p226
F0.9677588939666748
sS'comp_time'
p227
F0.040802955627441406
sS'exec_cq'
p228
I11
sS'total_cq'
p229
I11
sa(dp230
g225
I3
sg226
F0.0001990795135498047
sg227
F0.0004968643188476562
sg228
I5
sg229
I5
sa(dp231
g225
I2
sg226
F0.00013589859008789062
sg227
F0.00028061866760253906
sg228
I4
sg229
I4
sa(dp232
g225
I1
sg226
F0.00013709068298339844
sg227
F0.0002830028533935547
sg228
I3
sg229
I3
sasS'total_cqs'
p233
I11
ssI18
(dp234
S'iters'
p235
I2
sS'meta'
p236
(lp237
(dp238
S'objective'
p239
I5
sS'query_time'
p240
F0.18763422966003418
sS'comp_time'
p241
F0.022625207901000977
sS'exec_cq'
p242
I11
sS'total_cq'
p243
I11
sa(dp244
g239
I6
sg240
F0.0003409385681152344
sg241
F0.0006911754608154297
sg242
I8
sg243
I8
sasS'total_cqs'
p245
I11
ssI22
(dp246
S'iters'
p247
I1
sS'meta'
p248
(lp249
(dp250
S'objective'
p251
I16
sS'query_time'
p252
F0.06186795234680176
sS'comp_time'
p253
F0.03033900260925293
sS'exec_cq'
p254
I18
sS'total_cq'
p255
I18
sasS'total_cqs'
p256
I18
ssI23
(dp257
S'iters'
p258
I3
sS'meta'
p259
(lp260
(dp261
S'objective'
p262
I12
sS'query_time'
p263
F0.07287192344665527
sS'comp_time'
p264
F0.02287006378173828
sS'exec_cq'
p265
I16
sS'total_cq'
p266
I16
sa(dp267
g262
I12
sg263
F0.00010323524475097656
sg264
F0.0002009868621826172
sg265
I14
sg266
I14
sa(dp268
g262
I11
sg263
F5.0067901611328125e-05
sg264
F7.82012939453125e-05
sg265
I13
sg266
I13
sasS'total_cqs'
p269
I16
ssI26
(dp270
S'iters'
p271
I1
sS'meta'
p272
(lp273
(dp274
S'objective'
p275
I40
sS'query_time'
p276
F0.15848398208618164
sS'comp_time'
p277
F0.11480212211608887
sS'exec_cq'
p278
I42
sS'total_cq'
p279
I42
sasS'total_cqs'
p280
I42
ssI27
(dp281
S'iters'
p282
I3
sS'meta'
p283
(lp284
(dp285
S'objective'
p286
I20
sS'query_time'
p287
F21.774537086486816
sS'comp_time'
p288
F1.6785359382629395
sS'exec_cq'
p289
I30
sS'total_cq'
p290
I30
sa(dp291
g286
I1
sg287
F0.4030461311340332
sg288
F1.5087406635284424
sg289
I5
sg290
I5
sa(dp292
g286
I1
sg287
F0.3887641429901123
sg288
F1.2204015254974365
sg289
I3
sg290
I3
sasS'total_cqs'
p293
I30
ssI29
(dp294
S'iters'
p295
I6
sS'meta'
p296
(lp297
(dp298
S'objective'
p299
I15
sS'query_time'
p300
F26.552206993103027
sS'comp_time'
p301
F0.36092567443847656
sS'exec_cq'
p302
I35
sS'total_cq'
p303
I49
sa(dp304
g299
I1
sg300
F0.05173206329345703
sg301
F0.26706385612487793
sg302
I17
sg303
I17
sa(dp305
g299
I1
sg300
F0.0018100738525390625
sg301
F0.002607107162475586
sg302
I9
sg303
I9
sa(dp306
g299
I1
sg300
F0.0007278919219970703
sg301
F0.0018296241760253906
sg302
I5
sg303
I5
sa(dp307
g299
I1
sg300
F0.0006167888641357422
sg301
F0.0010030269622802734
sg302
I3
sg303
I3
sa(dp308
g299
I0
sg300
F0.0005860328674316406
sg301
F0.0009357929229736328
sg302
I2
sg303
I2
sasS'total_cqs'
p309
I49
ssI30
(dp310
S'iters'
p311
I1
sS'meta'
p312
(lp313
(dp314
S'objective'
p315
I0
sS'query_time'
p316
F0.6846518516540527
sS'comp_time'
p317
F0.015285015106201172
sS'exec_cq'
p318
I2
sS'total_cq'
p319
I2
sasS'total_cqs'
p320
I2
ssI32
(dp321
S'iters'
p322
I1
sS'meta'
p323
(lp324
(dp325
S'objective'
p326
I0
sS'query_time'
p327
F0.012284040451049805
sS'comp_time'
p328
F0.001600027084350586
sS'exec_cq'
p329
I2
sS'total_cq'
p330
I2
sasS'total_cqs'
p331
I2
ssI33
(dp332
S'iters'
p333
I5
sS'meta'
p334
(lp335
(dp336
S'objective'
p337
I71
sS'query_time'
p338
F16.107157945632935
sS'comp_time'
p339
F0.8969507217407227
sS'exec_cq'
p340
I103
sS'total_cq'
p341
I103
sa(dp342
g337
I0
sg338
F0.009035825729370117
sg339
F0.04373812675476074
sg340
I16
sg341
I16
sa(dp343
g337
I0
sg338
F0.0049359798431396484
sg339
F0.007847309112548828
sg340
I8
sg341
I8
sa(dp344
g337
I0
sg338
F0.0008308887481689453
sg339
F0.0015437602996826172
sg340
I4
sg341
I4
sa(dp345
g337
I0
sg338
F0.0003941059112548828
sg339
F0.0007684230804443359
sg340
I2
sg341
I2
sasS'total_cqs'
p346
I103
ssI34
(dp347
S'iters'
p348
I1
sS'meta'
p349
(lp350
(dp351
S'objective'
p352
I0
sS'query_time'
p353
F0.01777195930480957
sS'comp_time'
p354
F0.001993417739868164
sS'exec_cq'
p355
I2
sS'total_cq'
p356
I2
sasS'total_cqs'
p357
I2
ssI35
(dp358
S'iters'
p359
I6
sS'meta'
p360
(lp361
(dp362
S'objective'
p363
I38
sS'query_time'
p364
F70.75437092781067
sS'comp_time'
p365
F2.3713269233703613
sS'exec_cq'
p366
I70
sS'total_cq'
p367
I70
sa(dp368
g363
I4
sg364
F0.004855155944824219
sg365
F0.011633872985839844
sg366
I16
sg367
I16
sa(dp369
g363
I0
sg364
F0.002596139907836914
sg365
F0.007073163986206055
sg366
I10
sg367
I10
sa(dp370
g363
I1
sg364
F0.0009570121765136719
sg365
F0.002226114273071289
sg366
I5
sg367
I5
sa(dp371
g363
I1
sg364
F0.00022292137145996094
sg365
F0.0005681514739990234
sg366
I3
sg367
I3
sa(dp372
g363
I0
sg364
F8.296966552734375e-05
sg365
F0.00020432472229003906
sg366
I2
sg367
I2
sasS'total_cqs'
p373
I70
ssI36
(dp374
S'iters'
p375
I3
sS'meta'
p376
(lp377
(dp378
S'objective'
p379
I25
sS'query_time'
p380
F0.7682900428771973
sS'comp_time'
p381
F0.11619973182678223
sS'exec_cq'
p382
I33
sS'total_cq'
p383
I33
sa(dp384
g379
I21
sg380
F0.0071218013763427734
sg381
F0.01640009880065918
sg382
I29
sg383
I29
sa(dp385
g379
I23
sg380
F0.0026941299438476562
sg381
F0.003952741622924805
sg382
I25
sg383
I25
sasS'total_cqs'
p386
I33
ssI37
(dp387
S'iters'
p388
I1
sS'meta'
p389
(lp390
(dp391
S'objective'
p392
I0
sS'query_time'
p393
F0.010630130767822266
sS'comp_time'
p394
F0.0017659664154052734
sS'exec_cq'
p395
I2
sS'total_cq'
p396
I2
sasS'total_cqs'
p397
I2
ssI38
(dp398
S'iters'
p399
I2
sS'meta'
p400
(lp401
(dp402
S'objective'
p403
I0
sS'query_time'
p404
F0.029374122619628906
sS'comp_time'
p405
F0.002911090850830078
sS'exec_cq'
p406
I4
sS'total_cq'
p407
I4
sa(dp408
g403
I0
sg404
F6.890296936035156e-05
sg405
F0.00023889541625976562
sg406
I2
sg407
I2
sasS'total_cqs'
p409
I4
ssI39
(dp410
S'iters'
p411
I2
sS'meta'
p412
(lp413
(dp414
S'objective'
p415
I30
sS'query_time'
p416
F0.4011650085449219
sS'comp_time'
p417
F0.07923293113708496
sS'exec_cq'
p418
I44
sS'total_cq'
p419
I44
sa(dp420
g415
I35
sg416
F0.0002868175506591797
sg417
F0.0008037090301513672
sg418
I37
sg419
I37
sasS'total_cqs'
p421
I44
ssI40
(dp422
S'iters'
p423
I1
sS'meta'
p424
(lp425
(dp426
S'objective'
p427
I5
sS'query_time'
p428
F0.027540922164916992
sS'comp_time'
p429
F0.0044553279876708984
sS'exec_cq'
p430
I7
sS'total_cq'
p431
I7
sasS'total_cqs'
p432
I7
ssI41
(dp433
S'iters'
p434
I1
sS'meta'
p435
(lp436
(dp437
S'objective'
p438
I10
sS'query_time'
p439
F0.07164502143859863
sS'comp_time'
p440
F0.019659757614135742
sS'exec_cq'
p441
I12
sS'total_cq'
p442
I12
sasS'total_cqs'
p443
I12
ssI42
(dp444
S'iters'
p445
I1
sS'meta'
p446
(lp447
(dp448
S'objective'
p449
I39
sS'query_time'
p450
F0.10575103759765625
sS'comp_time'
p451
F0.15904736518859863
sS'exec_cq'
p452
I41
sS'total_cq'
p453
I41
sasS'total_cqs'
p454
I41
ssI43
(dp455
S'iters'
p456
I1
sS'meta'
p457
(lp458
(dp459
S'objective'
p460
I5
sS'query_time'
p461
F0.04231715202331543
sS'comp_time'
p462
F0.0059740543365478516
sS'exec_cq'
p463
I7
sS'total_cq'
p464
I7
sasS'total_cqs'
p465
I7
ssI44
(dp466
S'iters'
p467
I4
sS'meta'
p468
(lp469
(dp470
S'objective'
p471
I33
sS'query_time'
p472
F0.2784600257873535
sS'comp_time'
p473
F0.18747401237487793
sS'exec_cq'
p474
I47
sS'total_cq'
p475
I47
sa(dp476
g471
I34
sg472
F0.0002799034118652344
sg473
F0.0009558200836181641
sg474
I40
sg475
I40
sa(dp477
g471
I1
sg472
F0.0017321109771728516
sg473
F0.001341104507446289
sg474
I3
sg475
I3
sa(dp478
g471
I0
sg472
F2.3126602172851562e-05
sg473
F8.606910705566406e-05
sg474
I2
sg475
I2
sasS'total_cqs'
p479
I47
ssI46
(dp480
S'iters'
p481
I2
sS'meta'
p482
(lp483
(dp484
S'objective'
p485
I4
sS'query_time'
p486
F0.019383907318115234
sS'comp_time'
p487
F0.002674102783203125
sS'exec_cq'
p488
I6
sS'total_cq'
p489
I6
sa(dp490
g485
I3
sg486
F6.198883056640625e-05
sg487
F0.00013184547424316406
sg488
I5
sg489
I5
sasS'total_cqs'
p491
I6
ssI47
(dp492
S'iters'
p493
I1
sS'meta'
p494
(lp495
(dp496
S'objective'
p497
I0
sS'query_time'
p498
F0.04293489456176758
sS'comp_time'
p499
F0.004804849624633789
sS'exec_cq'
p500
I2
sS'total_cq'
p501
I2
sasS'total_cqs'
p502
I2
ssI50
(dp503
S'iters'
p504
I1
sS'meta'
p505
(lp506
(dp507
S'objective'
p508
I3
sS'query_time'
p509
F0.01826310157775879
sS'comp_time'
p510
F0.00208282470703125
sS'exec_cq'
p511
I5
sS'total_cq'
p512
I5
sasS'total_cqs'
p513
I5
ssI51
(dp514
S'iters'
p515
I1
sS'meta'
p516
(lp517
(dp518
S'objective'
p519
I0
sS'query_time'
p520
F0.05802202224731445
sS'comp_time'
p521
F0.0009739398956298828
sS'exec_cq'
p522
I2
sS'total_cq'
p523
I2
sasS'total_cqs'
p524
I2
ssI52
(dp525
S'iters'
p526
I1
sS'meta'
p527
(lp528
(dp529
S'objective'
p530
I0
sS'query_time'
p531
F0.008576154708862305
sS'comp_time'
p532
F0.0011167526245117188
sS'exec_cq'
p533
I2
sS'total_cq'
p534
I2
sasS'total_cqs'
p535
I2
ssI53
(dp536
S'iters'
p537
I2
sS'meta'
p538
(lp539
(dp540
S'objective'
p541
I0
sS'query_time'
p542
F0.01930403709411621
sS'comp_time'
p543
F0.0024487972259521484
sS'exec_cq'
p544
I4
sS'total_cq'
p545
I4
sa(dp546
g541
I0
sg542
F0.00010585784912109375
sg543
F0.0002276897430419922
sg544
I2
sg545
I2
sasS'total_cqs'
p547
I4
ssI54
(dp548
S'iters'
p549
I2
sS'meta'
p550
(lp551
(dp552
S'objective'
p553
I1
sS'query_time'
p554
F0.011898994445800781
sS'comp_time'
p555
F0.0014429092407226562
sS'exec_cq'
p556
I3
sS'total_cq'
p557
I3
sa(dp558
g553
I0
sg554
F5.0067901611328125e-05
sg555
F0.00014901161193847656
sg556
I2
sg557
I2
sasS'total_cqs'
p559
I3
ssI55
(dp560
S'iters'
p561
I9
sS'meta'
p562
(lp563
(dp564
S'objective'
p565
I85
sS'query_time'
p566
F2.320380926132202
sS'comp_time'
p567
F0.7078258991241455
sS'exec_cq'
p568
I109
sS'total_cq'
p569
I109
sa(dp570
g565
I85
sg566
F0.0007889270782470703
sg567
F0.003503084182739258
sg568
I97
sg569
I97
sa(dp571
g565
I83
sg566
F0.00031685829162597656
sg567
F0.0013113021850585938
sg568
I91
sg569
I91
sa(dp572
g565
I83
sg566
F0.00030612945556640625
sg567
F0.0010406970977783203
sg568
I87
sg569
I87
sa(dp573
g565
I81
sg566
F0.0002799034118652344
sg567
F0.0007181167602539062
sg568
I85
sg569
I85
sa(dp574
g565
I79
sg566
F0.00026798248291015625
sg567
F0.0006518363952636719
sg568
I83
sg569
I83
sa(dp575
g565
I79
sg566
F0.00024509429931640625
sg567
F0.0004458427429199219
sg568
I81
sg569
I81
sa(dp576
g565
I78
sg566
F0.00023698806762695312
sg567
F0.0002970695495605469
sg568
I80
sg569
I80
sa(dp577
g565
I77
sg566
F0.00023293495178222656
sg567
F0.0002899169921875
sg568
I79
sg569
I79
sasS'total_cqs'
p578
I109
ssI56
(dp579
S'iters'
p580
I5
sS'meta'
p581
(lp582
(dp583
S'objective'
p584
I44
sS'query_time'
p585
F2.0207250118255615
sS'comp_time'
p586
F0.24032044410705566
sS'exec_cq'
p587
I67
sS'total_cq'
p588
I76
sa(dp589
g584
I0
sg585
F0.007935047149658203
sg586
F0.051914215087890625
sg587
I16
sg588
I16
sa(dp590
g584
I0
sg585
F0.003108978271484375
sg586
F0.005602359771728516
sg587
I8
sg588
I8
sa(dp591
g584
I0
sg585
F0.0004711151123046875
sg586
F0.0010879039764404297
sg587
I4
sg588
I4
sa(dp592
g584
I0
sg585
F0.00019502639770507812
sg586
F0.0005168914794921875
sg587
I2
sg588
I2
sasS'total_cqs'
p593
I76
ssI57
(dp594
S'iters'
p595
I5
sS'meta'
p596
(lp597
(dp598
S'objective'
p599
I11
sS'query_time'
p600
F24.12524700164795
sS'comp_time'
p601
F0.1792912483215332
sS'exec_cq'
p602
I45
sS'total_cq'
p603
I51
sa(dp604
g599
I5
sg600
F0.021019935607910156
sg601
F0.05266857147216797
sg602
I31
sg603
I31
sa(dp605
g599
I1
sg600
F0.0027341842651367188
sg601
F0.004091978073120117
sg602
I13
sg603
I13
sa(dp606
g599
I0
sg600
F0.0014710426330566406
sg601
F0.002542257308959961
sg602
I6
sg603
I6
sa(dp607
g599
I1
sg600
F0.0009989738464355469
sg601
F0.001062631607055664
sg602
I3
sg603
I3
sasS'total_cqs'
p608
I51
ssI58
(dp609
S'iters'
p610
I6
sS'meta'
p611
(lp612
(dp613
S'objective'
p614
I342
sS'query_time'
p615
F326.26414489746094
sS'comp_time'
p616
F27.588350534439087
sS'exec_cq'
p617
I486
sS'total_cq'
p618
I486
sa(dp619
g614
I358
sg615
F5.527998924255371
sg616
F9.49917483329773
sg617
I414
sg618
I414
sa(dp620
g614
I0
sg615
F0.017139911651611328
sg616
F0.12042093276977539
sg617
I28
sg618
I28
sa(dp621
g614
I0
sg615
F0.006885051727294922
sg616
F0.040146827697753906
sg617
I14
sg618
I14
sa(dp622
g614
I1
sg615
F0.004539012908935547
sg616
F0.007066011428833008
sg617
I7
sg618
I7
sa(dp623
g614
I1
sg615
F0.0017590522766113281
sg616
F0.0029878616333007812
sg617
I3
sg618
I3
sasS'total_cqs'
p624
I486
ssI59
(dp625
S'iters'
p626
I2
sS'meta'
p627
(lp628
(dp629
S'objective'
p630
I3
sS'query_time'
p631
F0.048245906829833984
sS'comp_time'
p632
F0.005985260009765625
sS'exec_cq'
p633
I7
sS'total_cq'
p634
I7
sa(dp635
g630
I0
sg631
F0.00015807151794433594
sg632
F0.0003566741943359375
sg633
I2
sg634
I2
sasS'total_cqs'
p636
I7
ssI60
(dp637
S'iters'
p638
I3
sS'meta'
p639
(lp640
(dp641
S'objective'
p642
I3
sS'query_time'
p643
F0.018014907836914062
sS'comp_time'
p644
F0.003536701202392578
sS'exec_cq'
p645
I4
sS'total_cq'
p646
I5
sa(dp647
g642
I2
sg643
F5.698204040527344e-05
sg644
F0.00016808509826660156
sg645
I3
sg646
I4
sa(dp648
g642
I1
sg643
F0.0030128955841064453
sg644
F0.00010204315185546875
sg645
I3
sg646
I3
sasS'total_cqs'
p649
I5
ssI62
(dp650
S'iters'
p651
I3
sS'meta'
p652
(lp653
(dp654
S'objective'
p655
I6
sS'query_time'
p656
F0.030015945434570312
sS'comp_time'
p657
F0.014644145965576172
sS'exec_cq'
p658
I12
sS'total_cq'
p659
I12
sa(dp660
g655
I7
sg656
F4.8160552978515625e-05
sg657
F0.00014829635620117188
sg658
I9
sg659
I9
sa(dp661
g655
I6
sg656
F3.1948089599609375e-05
sg657
F7.176399230957031e-05
sg658
I8
sg659
I8
sasS'total_cqs'
p662
I12
ssI64
(dp663
S'iters'
p664
I3
sS'meta'
p665
(lp666
(dp667
S'objective'
p668
I4
sS'query_time'
p669
F0.11931490898132324
sS'comp_time'
p670
F0.01899099349975586
sS'exec_cq'
p671
I12
sS'total_cq'
p672
I12
sa(dp673
g668
I0
sg669
F0.00014400482177734375
sg670
F0.0005469322204589844
sg671
I4
sg672
I4
sa(dp674
g668
I0
sg669
F2.6226043701171875e-05
sg670
F0.00010800361633300781
sg671
I2
sg672
I2
sasS'total_cqs'
p675
I12
ssI65
(dp676
S'iters'
p677
I4
sS'meta'
p678
(lp679
(dp680
S'objective'
p681
I13
sS'query_time'
p682
F0.9649882316589355
sS'comp_time'
p683
F0.06431293487548828
sS'exec_cq'
p684
I27
sS'total_cq'
p685
I27
sa(dp686
g681
I1
sg682
F0.0012989044189453125
sg683
F0.004004240036010742
sg684
I7
sg685
I7
sa(dp687
g681
I0
sg682
F0.0005230903625488281
sg683
F0.0012941360473632812
sg684
I4
sg685
I4
sa(dp688
g681
I0
sg682
F0.00013208389282226562
sg683
F0.00030732154846191406
sg684
I2
sg685
I2
sasS'total_cqs'
p689
I27
ssI67
(dp690
S'iters'
p691
I2
sS'meta'
p692
(lp693
(dp694
S'objective'
p695
I31
sS'query_time'
p696
F0.9403998851776123
sS'comp_time'
p697
F0.24837493896484375
sS'exec_cq'
p698
I35
sS'total_cq'
p699
I35
sa(dp700
g695
I0
sg696
F0.001600027084350586
sg697
F0.002357959747314453
sg698
I2
sg699
I2
sasS'total_cqs'
p701
I35
ssI69
(dp702
S'iters'
p703
I1
sS'meta'
p704
(lp705
(dp706
S'objective'
p707
I49
sS'query_time'
p708
F0.16916108131408691
sS'comp_time'
p709
F0.09899687767028809
sS'exec_cq'
p710
I51
sS'total_cq'
p711
I51
sasS'total_cqs'
p712
I51
ssI70
(dp713
S'iters'
p714
I1
sS'meta'
p715
(lp716
(dp717
S'objective'
p718
I4
sS'query_time'
p719
F0.01807117462158203
sS'comp_time'
p720
F0.0024509429931640625
sS'exec_cq'
p721
I6
sS'total_cq'
p722
I6
sasS'total_cqs'
p723
I6
ssI71
(dp724
S'iters'
p725
I6
sS'meta'
p726
(lp727
(dp728
S'objective'
p729
I77
sS'query_time'
p730
F0.3291897773742676
sS'comp_time'
p731
F0.19034743309020996
sS'exec_cq'
p732
I85
sS'total_cq'
p733
I85
sa(dp734
g729
I73
sg730
F0.0003719329833984375
sg731
F0.0012710094451904297
sg732
I81
sg733
I81
sa(dp735
g729
I71
sg730
F0.0003311634063720703
sg731
F0.0011751651763916016
sg732
I77
sg733
I77
sa(dp736
g729
I68
sg730
F0.0003070831298828125
sg731
F0.001013040542602539
sg732
I74
sg733
I74
sa(dp737
g729
I65
sg730
F0.00028705596923828125
sg731
F0.0007848739624023438
sg732
I71
sg733
I71
sa(dp738
g729
I1
sg730
F0.002125978469848633
sg731
F0.002070188522338867
sg732
I3
sg733
I3
sasS'total_cqs'
p739
I85
ssI72
(dp740
S'iters'
p741
I3
sS'meta'
p742
(lp743
(dp744
S'objective'
p745
I2
sS'query_time'
p746
F0.27704381942749023
sS'comp_time'
p747
F0.003901958465576172
sS'exec_cq'
p748
I8
sS'total_cq'
p749
I8
sa(dp750
g745
I1
sg746
F8.0108642578125e-05
sg747
F0.00013399124145507812
sg748
I4
sg749
I5
sa(dp751
g745
I1
sg746
F1.2874603271484375e-05
sg747
F2.8848648071289062e-05
sg748
I2
sg749
I3
sasS'total_cqs'
p752
I8
ssI75
(dp753
S'iters'
p754
I4
sS'meta'
p755
(lp756
(dp757
S'objective'
p758
I3
sS'query_time'
p759
F0.010954141616821289
sS'comp_time'
p760
F0.0015628337860107422
sS'exec_cq'
p761
I5
sS'total_cq'
p762
I5
sa(dp763
g758
I2
sg759
F1.9073486328125e-05
sg760
F9.560585021972656e-05
sg761
I4
sg762
I4
sa(dp764
g758
I1
sg759
F1.5020370483398438e-05
sg760
F7.271766662597656e-05
sg761
I3
sg762
I3
sa(dp765
g758
I0
sg759
F1.0967254638671875e-05
sg760
F5.078315734863281e-05
sg761
I2
sg762
I2
sasS'total_cqs'
p766
I5
ssI76
(dp767
S'iters'
p768
I1
sS'meta'
p769
(lp770
(dp771
S'objective'
p772
I0
sS'query_time'
p773
F0.013991117477416992
sS'comp_time'
p774
F0.0008828639984130859
sS'exec_cq'
p775
I2
sS'total_cq'
p776
I2
sasS'total_cqs'
p777
I2
ssI103
(dp778
S'iters'
p779
I2
sS'meta'
p780
(lp781
(dp782
S'objective'
p783
I10
sS'query_time'
p784
F0.06144905090332031
sS'comp_time'
p785
F0.015397071838378906
sS'exec_cq'
p786
I12
sS'total_cq'
p787
I12
sa(dp788
g783
I9
sg784
F6.914138793945312e-05
sg785
F0.0001418590545654297
sg786
I11
sg787
I11
sasS'total_cqs'
p789
I12
ssI104
(dp790
S'iters'
p791
I2
sS'meta'
p792
(lp793
(dp794
S'objective'
p795
I0
sS'query_time'
p796
F1.3743350505828857
sS'comp_time'
p797
F0.026803016662597656
sS'exec_cq'
p798
I4
sS'total_cq'
p799
I4
sa(dp800
g795
I0
sg796
F0.012712955474853516
sg797
F0.023065567016601562
sg798
I2
sg799
I2
sasS'total_cqs'
p801
I4
ssI106
(dp802
S'iters'
p803
I1
sS'meta'
p804
(lp805
(dp806
S'objective'
p807
I2
sS'query_time'
p808
F0.020426034927368164
sS'comp_time'
p809
F0.0022068023681640625
sS'exec_cq'
p810
I4
sS'total_cq'
p811
I4
sasS'total_cqs'
p812
I4
ssI107
(dp813
S'iters'
p814
I2
sS'meta'
p815
(lp816
(dp817
S'objective'
p818
I10
sS'query_time'
p819
F0.0800020694732666
sS'comp_time'
p820
F0.0193178653717041
sS'exec_cq'
p821
I16
sS'total_cq'
p822
I16
sa(dp823
g818
I1
sg819
F0.005001068115234375
sg820
F0.00028204917907714844
sg821
I3
sg822
I3
sasS'total_cqs'
p824
I16
ss.