(dp0
I1
(dp1
S'iters'
p2
I1
sS'meta'
p3
(lp4
(dp5
S'objective'
p6
I58
sS'query_time'
p7
F0.020800113677978516
sS'comp_time'
p8
F6.699562072753906e-05
sS'exec_cq'
p9
I3
sS'total_cq'
p10
I12
sasS'total_cqs'
p11
I12
ssI2
(dp12
S'iters'
p13
I5
sS'meta'
p14
(lp15
(dp16
S'objective'
p17
I260
sS'query_time'
p18
F0.03369593620300293
sS'comp_time'
p19
F6.198883056640625e-05
sS'exec_cq'
p20
I1
sS'total_cq'
p21
I27
sa(dp22
g17
I267
sg18
F0.03449892997741699
sg19
F7.891654968261719e-05
sg20
I1
sg21
I23
sa(dp23
g17
I225
sg18
F0.0224759578704834
sg19
F6.508827209472656e-05
sg20
I1
sg21
I22
sa(dp24
g17
I213
sg18
F0.0182650089263916
sg19
F5.2928924560546875e-05
sg20
I2
sg21
I20
sa(dp25
g17
I192
sg18
F0.014052867889404297
sg19
F5.2928924560546875e-05
sg20
I2
sg21
I19
sasS'total_cqs'
p26
I27
ssI3
(dp27
S'iters'
p28
I4
sS'meta'
p29
(lp30
(dp31
S'objective'
p32
I384
sS'query_time'
p33
F15.187434911727905
sS'comp_time'
p34
F0.0005528926849365234
sS'exec_cq'
p35
I2
sS'total_cq'
p36
I43
sa(dp37
g32
I391
sg33
F8.336499214172363
sg34
F0.0002319812774658203
sg35
I2
sg36
I31
sa(dp38
g32
I272
sg33
F5.94068717956543
sg34
F7.200241088867188e-05
sg35
I2
sg36
I25
sa(dp39
g32
I332
sg33
F0.005429983139038086
sg34
F8.106231689453125e-05
sg35
I2
sg36
I19
sasS'total_cqs'
p40
I43
ssI4
(dp41
S'iters'
p42
I1
sS'meta'
p43
(lp44
(dp45
S'objective'
p46
I46
sS'query_time'
p47
F3.530755043029785
sS'comp_time'
p48
F0.0002942085266113281
sS'exec_cq'
p49
I2
sS'total_cq'
p50
I11
sasS'total_cqs'
p51
I11
ssI5
(dp52
S'iters'
p53
I2
sS'meta'
p54
(lp55
(dp56
S'objective'
p57
I20
sS'query_time'
p58
F12.54197907447815
sS'comp_time'
p59
F0.0004649162292480469
sS'exec_cq'
p60
I1
sS'total_cq'
p61
I8
sa(dp62
g57
I14
sg58
F0.2897369861602783
sg59
F5.793571472167969e-05
sg60
I1
sg61
I7
sasS'total_cqs'
p63
I8
ssI6
(dp64
S'iters'
p65
I4
sS'meta'
p66
(lp67
(dp68
S'objective'
p69
I135
sS'query_time'
p70
F0.0897519588470459
sS'comp_time'
p71
F6.508827209472656e-05
sS'exec_cq'
p72
I1
sS'total_cq'
p73
I18
sa(dp74
g69
I85
sg70
F0.15096783638000488
sg71
F6.4849853515625e-05
sg72
I2
sg73
I17
sa(dp75
g69
I67
sg70
F0.5719559192657471
sg71
F8.296966552734375e-05
sg72
I2
sg73
I13
sa(dp76
g69
I4
sg70
F0.008601903915405273
sg71
F3.790855407714844e-05
sg72
I1
sg73
I2
sasS'total_cqs'
p77
I18
ssI7
(dp78
S'iters'
p79
I2
sS'meta'
p80
(lp81
(dp82
S'objective'
p83
I23
sS'query_time'
p84
F2.9285550117492676
sS'comp_time'
p85
F0.0014119148254394531
sS'exec_cq'
p86
I1
sS'total_cq'
p87
I9
sa(dp88
g83
I18
sg84
F0.18158507347106934
sg85
F4.00543212890625e-05
sg86
I1
sg87
I7
sasS'total_cqs'
p89
I9
ssI8
(dp90
S'iters'
p91
I4
sS'meta'
p92
(lp93
(dp94
S'objective'
p95
I302
sS'query_time'
p96
F0.028287887573242188
sS'comp_time'
p97
F6.008148193359375e-05
sS'exec_cq'
p98
I2
sS'total_cq'
p99
I27
sa(dp100
g95
I292
sg96
F0.05345797538757324
sg97
F6.794929504394531e-05
sg98
I3
sg99
I24
sa(dp101
g95
I242
sg96
F0.0449521541595459
sg97
F6.818771362304688e-05
sg98
I3
sg99
I23
sa(dp102
g95
I235
sg96
F0.01782393455505371
sg97
F4.410743713378906e-05
sg98
I3
sg99
I21
sasS'total_cqs'
p103
I27
ssI9
(dp104
S'iters'
p105
I2
sS'meta'
p106
(lp107
(dp108
S'objective'
p109
I12
sS'query_time'
p110
F0.016026020050048828
sS'comp_time'
p111
F5.3882598876953125e-05
sS'exec_cq'
p112
I1
sS'total_cq'
p113
I7
sa(dp114
g109
I6
sg110
F0.014707088470458984
sg111
F4.410743713378906e-05
sg112
I2
sg113
I5
sasS'total_cqs'
p115
I7
ssI10
(dp116
S'iters'
p117
I11
sS'meta'
p118
(lp119
(dp120
S'objective'
p121
I1224
sS'query_time'
p122
F0.16092801094055176
sS'comp_time'
p123
F9.512901306152344e-05
sS'exec_cq'
p124
I1
sS'total_cq'
p125
I51
sa(dp126
g121
I1105
sg122
F0.08820581436157227
sg123
F9.012222290039062e-05
sg124
I1
sg125
I50
sa(dp127
g121
I960
sg122
F0.07460808753967285
sg123
F6.29425048828125e-05
sg124
I1
sg125
I48
sa(dp128
g121
I981
sg122
F0.033273935317993164
sg123
F0.00010585784912109375
sg124
I2
sg125
I43
sa(dp129
g121
I382
sg122
F0.0629420280456543
sg123
F5.0067901611328125e-05
sg124
I2
sg125
I42
sa(dp130
g121
I545
sg122
F0.028707027435302734
sg123
F5.698204040527344e-05
sg124
I3
sg125
I30
sa(dp131
g121
I543
sg122
F0.02617502212524414
sg123
F5.507469177246094e-05
sg124
I4
sg125
I28
sa(dp132
g121
I202
sg122
F0.018468856811523438
sg123
F5.2928924560546875e-05
sg124
I4
sg125
I27
sa(dp133
g121
I65
sg122
F0.022468090057373047
sg123
F5.1021575927734375e-05
sg124
I2
sg125
I7
sa(dp134
g121
I20
sg122
F0.010389089584350586
sg123
F5.1021575927734375e-05
sg124
I2
sg125
I5
sa(dp135
g121
I26
sg122
F0.0015320777893066406
sg123
F3.504753112792969e-05
sg124
I2
sg125
I2
sasS'total_cqs'
p136
I51
ssI11
(dp137
S'iters'
p138
I8
sS'meta'
p139
(lp140
(dp141
S'objective'
p142
I772
sS'query_time'
p143
F0.19511198997497559
sS'comp_time'
p144
F7.295608520507812e-05
sS'exec_cq'
p145
I1
sS'total_cq'
p146
I63
sa(dp147
g142
I1062
sg143
F0.1214449405670166
sg144
F5.698204040527344e-05
sg145
I1
sg146
I47
sa(dp148
g142
I1108
sg143
F0.04050898551940918
sg144
F8.487701416015625e-05
sg145
I1
sg146
I41
sa(dp149
g142
I1030
sg143
F0.0483551025390625
sg144
F4.9114227294921875e-05
sg145
I1
sg146
I40
sa(dp150
g142
I995
sg143
F0.050627946853637695
sg144
F5.0067901611328125e-05
sg145
I3
sg146
I38
sa(dp151
g142
I729
sg143
F0.057054996490478516
sg144
F5.316734313964844e-05
sg145
I4
sg146
I36
sa(dp152
g142
I17
sg143
F0.008799076080322266
sg144
F3.695487976074219e-05
sg145
I2
sg146
I4
sa(dp153
g142
I10
sg143
F0.0028510093688964844
sg144
F3.695487976074219e-05
sg145
I2
sg146
I2
sasS'total_cqs'
p154
I63
ssI12
(dp155
S'iters'
p156
I9
sS'meta'
p157
(lp158
(dp159
S'objective'
p160
I967
sS'query_time'
p161
F0.052169084548950195
sS'comp_time'
p162
F6.699562072753906e-05
sS'exec_cq'
p163
I1
sS'total_cq'
p164
I50
sa(dp165
g160
I919
sg161
F0.09037899971008301
sg162
F7.605552673339844e-05
sg163
I3
sg164
I46
sa(dp166
g160
I928
sg161
F0.05681300163269043
sg162
F7.104873657226562e-05
sg163
I3
sg164
I42
sa(dp167
g160
I792
sg161
F0.04739880561828613
sg162
F7.605552673339844e-05
sg163
I4
sg164
I41
sa(dp168
g160
I745
sg161
F0.029511213302612305
sg162
F5.793571472167969e-05
sg163
I5
sg164
I37
sa(dp169
g160
I638
sg161
F0.07103705406188965
sg162
F6.508827209472656e-05
sg163
I6
sg164
I33
sa(dp170
g160
I28
sg161
F0.0462191104888916
sg162
F7.605552673339844e-05
sg163
I2
sg164
I4
sa(dp171
g160
I36
sg161
F0.0520319938659668
sg162
F4.792213439941406e-05
sg163
I2
sg164
I3
sa(dp172
g160
I31
sg161
F0.0053980350494384766
sg162
F4.100799560546875e-05
sg163
I2
sg164
I2
sasS'total_cqs'
p173
I50
ssI13
(dp174
S'iters'
p175
I5
sS'meta'
p176
(lp177
(dp178
S'objective'
p179
I126
sS'query_time'
p180
F0.06080794334411621
sS'comp_time'
p181
F5.91278076171875e-05
sS'exec_cq'
p182
I4
sS'total_cq'
p183
I20
sa(dp184
g179
I26
sg180
F0.018337011337280273
sg181
F4.38690185546875e-05
sg182
I4
sg183
I15
sa(dp185
g179
I43
sg180
F0.03616595268249512
sg181
F6.103515625e-05
sg182
I2
sg183
I6
sa(dp186
g179
I31
sg180
F0.012978076934814453
sg181
F6.079673767089844e-05
sg182
I2
sg183
I5
sa(dp187
g179
I12
sg180
F0.004589080810546875
sg181
F4.482269287109375e-05
sg182
I2
sg183
I4
sasS'total_cqs'
p188
I20
ssI14
(dp189
S'iters'
p190
I3
sS'meta'
p191
(lp192
(dp193
S'objective'
p194
I1
sS'query_time'
p195
F1.0141980648040771
sS'comp_time'
p196
F6.508827209472656e-05
sS'exec_cq'
p197
I1
sS'total_cq'
p198
I9
sa(dp199
g194
I2
sg195
F0.3144209384918213
sg196
F7.200241088867188e-05
sg197
I1
sg198
I4
sa(dp200
g194
I4
sg195
F0.005711078643798828
sg196
F2.5033950805664062e-05
sg197
I1
sg198
I2
sasS'total_cqs'
p201
I9
ssI15
(dp202
S'iters'
p203
I2
sS'meta'
p204
(lp205
(dp206
S'objective'
p207
I2
sS'query_time'
p208
F0.12523293495178223
sS'comp_time'
p209
F7.104873657226562e-05
sS'exec_cq'
p210
I1
sS'total_cq'
p211
I11
sa(dp212
g207
I14
sg208
F0.05345797538757324
sg209
F6.794929504394531e-05
sg210
I1
sg211
I6
sasS'total_cqs'
p213
I11
ssI16
(dp214
S'iters'
p215
I1
sS'meta'
p216
(lp217
(dp218
S'objective'
p219
I22
sS'query_time'
p220
F0.01305699348449707
sS'comp_time'
p221
F5.698204040527344e-05
sS'exec_cq'
p222
I2
sS'total_cq'
p223
I8
sasS'total_cqs'
p224
I8
ssI17
(dp225
S'iters'
p226
I3
sS'meta'
p227
(lp228
(dp229
S'objective'
p230
I36
sS'query_time'
p231
F0.26727795600891113
sS'comp_time'
p232
F8.106231689453125e-05
sS'exec_cq'
p233
I1
sS'total_cq'
p234
I11
sa(dp235
g230
I21
sg231
F0.020730018615722656
sg232
F5.507469177246094e-05
sg233
I1
sg234
I8
sa(dp236
g230
I5
sg231
F0.012370109558105469
sg232
F3.1948089599609375e-05
sg233
I1
sg234
I2
sasS'total_cqs'
p237
I11
ssI18
(dp238
S'iters'
p239
I1
sS'meta'
p240
(lp241
(dp242
S'objective'
p243
I46
sS'query_time'
p244
F0.03202414512634277
sS'comp_time'
p245
F7.390975952148438e-05
sS'exec_cq'
p246
I2
sS'total_cq'
p247
I11
sasS'total_cqs'
p248
I11
ssI19
(dp249
S'iters'
p250
I0
sS'meta'
p251
(lp252
sS'total_cqs'
p253
I1
ssI20
(dp254
S'iters'
p255
I0
sS'meta'
p256
(lp257
sS'total_cqs'
p258
I1
ssI21
(dp259
S'iters'
p260
I0
sS'meta'
p261
(lp262
sS'total_cqs'
p263
I1
ssI22
(dp264
S'iters'
p265
I1
sS'meta'
p266
(lp267
(dp268
S'objective'
p269
I141
sS'query_time'
p270
F0.0212709903717041
sS'comp_time'
p271
F5.817413330078125e-05
sS'exec_cq'
p272
I4
sS'total_cq'
p273
I18
sasS'total_cqs'
p274
I18
ssI23
(dp275
S'iters'
p276
I2
sS'meta'
p277
(lp278
(dp279
S'objective'
p280
I80
sS'query_time'
p281
F0.018439054489135742
sS'comp_time'
p282
F6.508827209472656e-05
sS'exec_cq'
p283
I1
sS'total_cq'
p284
I16
sa(dp285
g280
I82
sg281
F0.02619004249572754
sg282
F7.319450378417969e-05
sg283
I3
sg284
I14
sasS'total_cqs'
p286
I16
ssI24
(dp287
S'iters'
p288
I0
sS'meta'
p289
(lp290
sS'total_cqs'
p291
I1
ssI25
(dp292
S'iters'
p293
I0
sS'meta'
p294
(lp295
sS'total_cqs'
p296
I1
ssI26
(dp297
S'iters'
p298
I1
sS'meta'
p299
(lp300
(dp301
S'objective'
p302
I837
sS'query_time'
p303
F0.053652048110961914
sS'comp_time'
p304
F7.700920104980469e-05
sS'exec_cq'
p305
I10
sS'total_cq'
p306
I42
sasS'total_cqs'
p307
I42
ssI27
(dp308
S'iters'
p309
I4
sS'meta'
p310
(lp311
(dp312
S'objective'
p313
I361
sS'query_time'
p314
F1.4849610328674316
sS'comp_time'
p315
F0.00019884109497070312
sS'exec_cq'
p316
I2
sS'total_cq'
p317
I30
sa(dp318
g313
I311
sg314
F0.6825339794158936
sg315
F8.797645568847656e-05
sg316
I2
sg317
I27
sa(dp319
g313
I278
sg314
F2.8541760444641113
sg315
F8.606910705566406e-05
sg316
I5
sg317
I25
sa(dp320
g313
I6
sg314
F1293.7916090488434
sg315
F0.0001480579376220703
sg316
I2
sg317
I2
sasS'total_cqs'
p321
I30
ssI28
(dp322
S'iters'
p323
I0
sS'meta'
p324
(lp325
sS'total_cqs'
p326
I1
ssI29
(dp327
S'iters'
p328
I3
sS'meta'
p329
(lp330
(dp331
S'objective'
p332
I499
sS'query_time'
p333
F0.7595040798187256
sS'comp_time'
p334
F0.00010204315185546875
sS'exec_cq'
p335
I1
sS'total_cq'
p336
I49
sa(dp337
g332
I187
sg333
F0.20184707641601562
sg334
F3.886222839355469e-05
sg335
I1
sg336
I16
sa(dp338
g332
I199
sg333
F0.26947903633117676
sg334
F7.200241088867188e-05
sg335
I1
sg336
I12
sasS'total_cqs'
p339
I49
ssI30
(dp340
S'iters'
p341
I1
sS'meta'
p342
(lp343
(dp344
S'objective'
p345
I1
sS'query_time'
p346
F0.7037210464477539
sS'comp_time'
p347
F6.604194641113281e-05
sS'exec_cq'
p348
I1
sS'total_cq'
p349
I2
sasS'total_cqs'
p350
I2
ssI31
(dp351
S'iters'
p352
I0
sS'meta'
p353
(lp354
sS'total_cqs'
p355
I1
ssI32
(dp356
S'iters'
p357
I1
sS'meta'
p358
(lp359
(dp360
S'objective'
p361
I1
sS'query_time'
p362
F0.00813913345336914
sS'comp_time'
p363
F5.1021575927734375e-05
sS'exec_cq'
p364
I1
sS'total_cq'
p365
I2
sasS'total_cqs'
p366
I2
ssI33
(dp367
S'iters'
p368
I3
sS'meta'
p369
(lp370
(dp371
S'objective'
p372
I4780
sS'query_time'
p373
F1.3287510871887207
sS'comp_time'
p374
F0.00011205673217773438
sS'exec_cq'
p375
I1
sS'total_cq'
p376
I103
sa(dp377
g372
I82
sg373
F0.044055938720703125
sg374
F3.600120544433594e-05
sg375
I1
sg376
I4
sa(dp378
g372
I55
sg373
F0.042028188705444336
sg374
F6.198883056640625e-05
sg375
I1
sg376
I2
sasS'total_cqs'
p379
I103
ssI34
(dp380
S'iters'
p381
I1
sS'meta'
p382
(lp383
(dp384
S'objective'
p385
I1
sS'query_time'
p386
F0.014638900756835938
sS'comp_time'
p387
F5.793571472167969e-05
sS'exec_cq'
p388
I1
sS'total_cq'
p389
I2
sasS'total_cqs'
p390
I2
ssI35
(dp391
S'iters'
p392
I12
sS'meta'
p393
(lp394
(dp395
S'objective'
p396
I1957
sS'query_time'
p397
F2.036261796951294
sS'comp_time'
p398
F0.0001239776611328125
sS'exec_cq'
p399
I1
sS'total_cq'
p400
I70
sa(dp401
g396
I2031
sg397
F24.754994869232178
sg398
F0.00030112266540527344
sg399
I1
sg400
I64
sa(dp402
g396
I1990
sg397
F0.2856581211090088
sg398
F0.00010585784912109375
sg399
I1
sg400
I62
sa(dp403
g396
I1926
sg397
F24.677688121795654
sg398
F0.0001239776611328125
sg399
I2
sg400
I61
sa(dp404
g396
I1790
sg397
F2.515017032623291
sg398
F0.00017881393432617188
sg399
I2
sg400
I60
sa(dp405
g396
I1745
sg397
F4.509964942932129
sg398
F0.00014495849609375
sg399
I2
sg400
I57
sa(dp406
g396
I1694
sg397
F0.2183380126953125
sg398
F8.20159912109375e-05
sg399
I3
sg400
I55
sa(dp407
g396
I1428
sg397
F0.2590010166168213
sg398
F0.00011491775512695312
sg399
I3
sg400
I54
sa(dp408
g396
I1476
sg397
F0.050704002380371094
sg398
F0.00011086463928222656
sg399
I4
sg400
I50
sa(dp409
g396
I1334
sg397
F1.144423007965088
sg398
F7.510185241699219e-05
sg399
I5
sg400
I49
sa(dp410
g396
I1324
sg397
F1.328963041305542
sg398
F8.678436279296875e-05
sg399
I5
sg400
I47
sa(dp411
g396
I1271
sg397
F0.1097879409790039
sg398
F8.082389831542969e-05
sg399
I5
sg400
I46
sasS'total_cqs'
p412
I70
ssI36
(dp413
S'iters'
p414
I4
sS'meta'
p415
(lp416
(dp417
S'objective'
p418
I495
sS'query_time'
p419
F0.07847905158996582
sS'comp_time'
p420
F9.107589721679688e-05
sS'exec_cq'
p421
I1
sS'total_cq'
p422
I33
sa(dp423
g418
I468
sg419
F0.10318708419799805
sg420
F9.298324584960938e-05
sg421
I3
sg422
I32
sa(dp424
g418
I440
sg419
F0.02787613868713379
sg420
F4.792213439941406e-05
sg421
I3
sg422
I31
sa(dp425
g418
I417
sg419
F0.1004340648651123
sg420
F9.083747863769531e-05
sg421
I5
sg422
I30
sasS'total_cqs'
p426
I33
ssI37
(dp427
S'iters'
p428
I1
sS'meta'
p429
(lp430
(dp431
S'objective'
p432
I1
sS'query_time'
p433
F0.007723808288574219
sS'comp_time'
p434
F0.00037288665771484375
sS'exec_cq'
p435
I1
sS'total_cq'
p436
I2
sasS'total_cqs'
p437
I2
ssI38
(dp438
S'iters'
p439
I2
sS'meta'
p440
(lp441
(dp442
S'objective'
p443
I8
sS'query_time'
p444
F0.0140228271484375
sS'comp_time'
p445
F5.1975250244140625e-05
sS'exec_cq'
p446
I1
sS'total_cq'
p447
I4
sa(dp448
g443
I1
sg444
F0.0037689208984375
sg445
F3.0994415283203125e-05
sg446
I1
sg447
I3
sasS'total_cqs'
p449
I4
ssI39
(dp450
S'iters'
p451
I2
sS'meta'
p452
(lp453
(dp454
S'objective'
p455
I594
sS'query_time'
p456
F0.07756209373474121
sS'comp_time'
p457
F9.608268737792969e-05
sS'exec_cq'
p458
I8
sS'total_cq'
p459
I44
sa(dp460
g455
I130
sg456
F0.04902482032775879
sg457
F6.508827209472656e-05
sg458
I2
sg459
I8
sasS'total_cqs'
p461
I44
ssI40
(dp462
S'iters'
p463
I1
sS'meta'
p464
(lp465
(dp466
S'objective'
p467
I14
sS'query_time'
p468
F0.0259249210357666
sS'comp_time'
p469
F6.699562072753906e-05
sS'exec_cq'
p470
I1
sS'total_cq'
p471
I7
sasS'total_cqs'
p472
I7
ssI41
(dp473
S'iters'
p474
I1
sS'meta'
p475
(lp476
(dp477
S'objective'
p478
I58
sS'query_time'
p479
F0.02624201774597168
sS'comp_time'
p480
F7.104873657226562e-05
sS'exec_cq'
p481
I3
sS'total_cq'
p482
I12
sasS'total_cqs'
p483
I12
ssI42
(dp484
S'iters'
p485
I2
sS'meta'
p486
(lp487
(dp488
S'objective'
p489
I793
sS'query_time'
p490
F0.03161501884460449
sS'comp_time'
p491
F0.00010991096496582031
sS'exec_cq'
p492
I8
sS'total_cq'
p493
I41
sa(dp494
g489
I763
sg490
F0.020833969116210938
sg491
F5.91278076171875e-05
sg492
I9
sg493
I40
sasS'total_cqs'
p495
I41
ssI43
(dp496
S'iters'
p497
I1
sS'meta'
p498
(lp499
(dp500
S'objective'
p501
I14
sS'query_time'
p502
F0.014860153198242188
sS'comp_time'
p503
F4.696846008300781e-05
sS'exec_cq'
p504
I1
sS'total_cq'
p505
I7
sasS'total_cqs'
p506
I7
ssI44
(dp507
S'iters'
p508
I2
sS'meta'
p509
(lp510
(dp511
S'objective'
p512
I992
sS'query_time'
p513
F0.04967689514160156
sS'comp_time'
p514
F8.20159912109375e-05
sS'exec_cq'
p515
I11
sS'total_cq'
p516
I47
sa(dp517
g512
I6
sg513
F0.02868509292602539
sg514
F5.888938903808594e-05
sg515
I2
sg516
I2
sasS'total_cqs'
p518
I47
ssI45
(dp519
S'iters'
p520
I0
sS'meta'
p521
(lp522
sS'total_cqs'
p523
I1
ssI46
(dp524
S'iters'
p525
I1
sS'meta'
p526
(lp527
(dp528
S'objective'
p529
I9
sS'query_time'
p530
F0.006771087646484375
sS'comp_time'
p531
F9.608268737792969e-05
sS'exec_cq'
p532
I1
sS'total_cq'
p533
I6
sasS'total_cqs'
p534
I6
ssI47
(dp535
S'iters'
p536
I1
sS'meta'
p537
(lp538
(dp539
S'objective'
p540
I1
sS'query_time'
p541
F0.006025075912475586
sS'comp_time'
p542
F4.696846008300781e-05
sS'exec_cq'
p543
I1
sS'total_cq'
p544
I2
sasS'total_cqs'
p545
I2
ssI48
(dp546
S'iters'
p547
I0
sS'meta'
p548
(lp549
sS'total_cqs'
p550
I1
ssI49
(dp551
S'iters'
p552
I0
sS'meta'
p553
(lp554
sS'total_cqs'
p555
I1
ssI50
(dp556
S'iters'
p557
I1
sS'meta'
p558
(lp559
(dp560
S'objective'
p561
I5
sS'query_time'
p562
F0.004817962646484375
sS'comp_time'
p563
F4.57763671875e-05
sS'exec_cq'
p564
I1
sS'total_cq'
p565
I5
sasS'total_cqs'
p566
I5
ssI51
(dp567
S'iters'
p568
I1
sS'meta'
p569
(lp570
(dp571
S'objective'
p572
I1
sS'query_time'
p573
F0.007018089294433594
sS'comp_time'
p574
F4.1961669921875e-05
sS'exec_cq'
p575
I1
sS'total_cq'
p576
I2
sasS'total_cqs'
p577
I2
ssI52
(dp578
S'iters'
p579
I1
sS'meta'
p580
(lp581
(dp582
S'objective'
p583
I1
sS'query_time'
p584
F0.005856037139892578
sS'comp_time'
p585
F4.601478576660156e-05
sS'exec_cq'
p586
I1
sS'total_cq'
p587
I2
sasS'total_cqs'
p588
I2
ssI53
(dp589
S'iters'
p590
I1
sS'meta'
p591
(lp592
(dp593
S'objective'
p594
I2
sS'query_time'
p595
F0.011210918426513672
sS'comp_time'
p596
F0.00033402442932128906
sS'exec_cq'
p597
I1
sS'total_cq'
p598
I4
sasS'total_cqs'
p599
I4
ssI54
(dp600
S'iters'
p601
I2
sS'meta'
p602
(lp603
(dp604
S'objective'
p605
I0
sS'query_time'
p606
F0.004373073577880859
sS'comp_time'
p607
F4.291534423828125e-05
sS'exec_cq'
p608
I1
sS'total_cq'
p609
I3
sa(dp610
g605
I1
sg606
F0.005202054977416992
sg607
F4.506111145019531e-05
sg608
I1
sg609
I2
sasS'total_cqs'
p611
I3
ssI55
(dp612
S'iters'
p613
I8
sS'meta'
p614
(lp615
(dp616
S'objective'
p617
I5657
sS'query_time'
p618
F0.3296809196472168
sS'comp_time'
p619
F9.417533874511719e-05
sS'exec_cq'
p620
I2
sS'total_cq'
p621
I109
sa(dp622
g617
I5470
sg618
F0.35843491554260254
sg619
F0.0001537799835205078
sg620
I4
sg621
I105
sa(dp623
g617
I5026
sg618
F0.2459549903869629
sg619
F0.00015687942504882812
sg620
I4
sg621
I103
sa(dp624
g617
I5077
sg618
F0.16737103462219238
sg619
F7.581710815429688e-05
sg620
I4
sg621
I99
sa(dp625
g617
I4687
sg618
F0.29567790031433105
sg619
F0.00010585784912109375
sg620
I7
sg621
I97
sa(dp626
g617
I4759
sg618
F0.39067912101745605
sg619
F0.00013208389282226562
sg620
I11
sg621
I91
sa(dp627
g617
I4685
sg618
F0.23902392387390137
sg619
F0.00011920928955078125
sg620
I19
sg621
I90
sa(dp628
g617
I4603
sg618
F0.12218809127807617
sg619
F8.702278137207031e-05
sg620
I19
sg621
I89
sasS'total_cqs'
p629
I109
ssI56
(dp630
S'iters'
p631
I8
sS'meta'
p632
(lp633
(dp634
S'objective'
p635
I2774
sS'query_time'
p636
F0.3863179683685303
sS'comp_time'
p637
F0.00011205673217773438
sS'exec_cq'
p638
I1
sS'total_cq'
p639
I76
sa(dp640
g635
I2604
sg636
F0.3203849792480469
sg637
F0.00012493133544921875
sg638
I3
sg639
I75
sa(dp641
g635
I2453
sg636
F0.26589488983154297
sg637
F9.918212890625e-05
sg638
I3
sg639
I73
sa(dp642
g635
I2180
sg636
F0.21828293800354004
sg637
F0.00010418891906738281
sg638
I7
sg639
I71
sa(dp643
g635
I2239
sg636
F0.06789302825927734
sg637
F5.793571472167969e-05
sg638
I7
sg639
I65
sa(dp644
g635
I2188
sg636
F0.17805695533752441
sg637
F6.794929504394531e-05
sg638
I8
sg639
I63
sa(dp645
g635
I2058
sg636
F0.22861313819885254
sg637
F0.00010704994201660156
sg638
I9
sg639
I62
sa(dp646
g635
I2038
sg636
F0.09197306632995605
sg637
F6.794929504394531e-05
sg638
I10
sg639
I60
sasS'total_cqs'
p647
I76
ssI57
(dp648
S'iters'
p649
I8
sS'meta'
p650
(lp651
(dp652
S'objective'
p653
I788
sS'query_time'
p654
F1.3814029693603516
sS'comp_time'
p655
F8.606910705566406e-05
sS'exec_cq'
p656
I1
sS'total_cq'
p657
I51
sa(dp658
g653
I957
sg654
F0.3500998020172119
sg655
F7.915496826171875e-05
sg656
I1
sg657
I42
sa(dp659
g653
I231
sg654
F0.41443800926208496
sg655
F9.703636169433594e-05
sg656
I1
sg657
I41
sa(dp660
g653
I149
sg654
F0.2682619094848633
sg655
F4.00543212890625e-05
sg656
I1
sg657
I21
sa(dp661
g653
I56
sg654
F0.3527700901031494
sg655
F9.083747863769531e-05
sg656
I1
sg657
I13
sa(dp662
g653
I46
sg654
F0.09911584854125977
sg655
F3.0994415283203125e-05
sg656
I1
sg657
I6
sa(dp663
g653
I97
sg654
F1.9573638439178467
sg655
F7.390975952148438e-05
sg656
I1
sg657
I4
sa(dp664
g653
I35
sg654
F0.03491091728210449
sg655
F2.47955322265625e-05
sg656
I1
sg657
I3
sasS'total_cqs'
p665
I51
ssI58
(dp666
S'iters'
p667
I39
sS'meta'
p668
(lp669
(dp670
S'objective'
p671
I116567
sS'query_time'
p672
F3.384373903274536
sS'comp_time'
p673
F0.0005311965942382812
sS'exec_cq'
p674
I2
sS'total_cq'
p675
I486
sa(dp676
g671
I110720
sg672
F12.311664819717407
sg673
F0.0004639625549316406
sg674
I2
sg675
I482
sa(dp677
g671
I110655
sg672
F5.132411003112793
sg673
F0.00454401969909668
sg674
I3
sg675
I470
sa(dp678
g671
I111411
sg672
F4.865007162094116
sg673
F0.00045800209045410156
sg674
I4
sg675
I464
sa(dp679
g671
I110043
sg672
F1.2911670207977295
sg673
F0.0002510547637939453
sg674
I6
sg675
I463
sa(dp680
g671
I104343
sg672
F2.82515811920166
sg673
F0.00028204917907714844
sg674
I8
sg675
I461
sa(dp681
g671
I105469
sg672
F3.0734658241271973
sg673
F0.00024819374084472656
sg674
I12
sg675
I449
sa(dp682
g671
I105632
sg672
F11.327363967895508
sg673
F0.0006930828094482422
sg674
I15
sg675
I445
sa(dp683
g671
I103837
sg672
F1.5926668643951416
sg673
F0.0004360675811767578
sg674
I15
sg675
I444
sa(dp684
g671
I103751
sg672
F17.424356937408447
sg673
F0.00027108192443847656
sg674
I15
sg675
I439
sa(dp685
g671
I103413
sg672
F11.188509941101074
sg673
F0.0002319812774658203
sg674
I15
sg675
I437
sa(dp686
g671
I102054
sg672
F4.4341630935668945
sg673
F0.00024890899658203125
sg674
I15
sg675
I435
sa(dp687
g671
I101724
sg672
F4.183666944503784
sg673
F0.00023508071899414062
sg674
I20
sg675
I429
sa(dp688
g671
I100635
sg672
F3.091259002685547
sg673
F0.00024700164794921875
sg674
I21
sg675
I427
sa(dp689
g671
I100589
sg672
F5.494771957397461
sg673
F0.0002582073211669922
sg674
I22
sg675
I425
sa(dp690
g671
I100142
sg672
F4.311577081680298
sg673
F0.00025081634521484375
sg674
I23
sg675
I424
sa(dp691
g671
I96349
sg672
F1.8225018978118896
sg673
F0.0003159046173095703
sg674
I23
sg675
I423
sa(dp692
g671
I94644
sg672
F2.740441083908081
sg673
F0.0014770030975341797
sg674
I24
sg675
I414
sa(dp693
g671
I95669
sg672
F1.2991690635681152
sg673
F0.00026416778564453125
sg674
I24
sg675
I405
sa(dp694
g671
I93367
sg672
F4.463609218597412
sg673
F0.00021386146545410156
sg674
I24
sg675
I404
sa(dp695
g671
I92918
sg672
F3.4337079524993896
sg673
F0.0002219676971435547
sg674
I26
sg675
I400
sa(dp696
g671
I91907
sg672
F7.108871221542358
sg673
F0.00021600723266601562
sg674
I27
sg675
I397
sa(dp697
g671
I90982
sg672
F1.3613739013671875
sg673
F0.00024819374084472656
sg674
I28
sg675
I394
sa(dp698
g671
I91055
sg672
F3.0451810359954834
sg673
F0.00032806396484375
sg674
I28
sg675
I391
sa(dp699
g671
I82858
sg672
F1.228261947631836
sg673
F0.00026702880859375
sg674
I28
sg675
I390
sa(dp700
g671
I86328
sg672
F1.0977587699890137
sg673
F0.0003859996795654297
sg674
I35
sg675
I369
sa(dp701
g671
I82509
sg672
F3.294624090194702
sg673
F0.00021505355834960938
sg674
I35
sg675
I368
sa(dp702
g671
I82932
sg672
F1.6462159156799316
sg673
F0.00020694732666015625
sg674
I45
sg675
I359
sa(dp703
g671
I82969
sg672
F4.95202898979187
sg673
F0.0002231597900390625
sg674
I47
sg675
I355
sa(dp704
g671
I81825
sg672
F1.8479490280151367
sg673
F0.00021314620971679688
sg674
I49
sg675
I354
sa(dp705
g671
I77712
sg672
F1.061985969543457
sg673
F0.00020599365234375
sg674
I49
sg675
I350
sa(dp706
g671
I78950
sg672
F20.37909197807312
sg673
F0.00037097930908203125
sg674
I55
sg675
I341
sa(dp707
g671
I77965
sg672
F1.1025640964508057
sg673
F0.00019502639770507812
sg674
I55
sg675
I339
sa(dp708
g671
I77999
sg672
F3.1025550365448
sg673
F0.00023293495178222656
sg674
I59
sg675
I336
sa(dp709
g671
I75721
sg672
F0.32630109786987305
sg673
F0.00021219253540039062
sg674
I59
sg675
I335
sa(dp710
g671
I75962
sg672
F0.33635497093200684
sg673
F0.00032901763916015625
sg674
I64
sg675
I330
sa(dp711
g671
I70736
sg672
F0.9423520565032959
sg673
F0.00019311904907226562
sg674
I65
sg675
I328
sa(dp712
g671
I72059
sg672
F0.7918570041656494
sg673
F0.0002570152282714844
sg674
I65
sg675
I313
sa(dp713
g671
I49
sg672
F0.009514808654785156
sg673
F4.100799560546875e-05
sg674
I1
sg675
I4
sasS'total_cqs'
p714
I486
ssI59
(dp715
S'iters'
p716
I2
sS'meta'
p717
(lp718
(dp719
S'objective'
p720
I12
sS'query_time'
p721
F0.02428889274597168
sS'comp_time'
p722
F4.792213439941406e-05
sS'exec_cq'
p723
I1
sS'total_cq'
p724
I7
sa(dp725
g720
I6
sg721
F0.03935384750366211
sg722
F6.818771362304688e-05
sg723
I2
sg724
I2
sasS'total_cqs'
p726
I7
ssI60
(dp727
S'iters'
p728
I1
sS'meta'
p729
(lp730
(dp731
S'objective'
p732
I5
sS'query_time'
p733
F0.0053958892822265625
sS'comp_time'
p734
F4.601478576660156e-05
sS'exec_cq'
p735
I1
sS'total_cq'
p736
I5
sasS'total_cqs'
p737
I5
ssI61
(dp738
S'iters'
p739
I0
sS'meta'
p740
(lp741
sS'total_cqs'
p742
I1
ssI62
(dp743
S'iters'
p744
I2
sS'meta'
p745
(lp746
(dp747
S'objective'
p748
I38
sS'query_time'
p749
F0.017785072326660156
sS'comp_time'
p750
F5.1021575927734375e-05
sS'exec_cq'
p751
I1
sS'total_cq'
p752
I12
sa(dp753
g748
I38
sg749
F0.008769035339355469
sg750
F4.315376281738281e-05
sg751
I2
sg752
I9
sasS'total_cqs'
p754
I12
ssI63
(dp755
S'iters'
p756
I0
sS'meta'
p757
(lp758
sS'total_cqs'
p759
I1
ssI64
(dp760
S'iters'
p761
I4
sS'meta'
p762
(lp763
(dp764
S'objective'
p765
I54
sS'query_time'
p766
F0.04507899284362793
sS'comp_time'
p767
F7.104873657226562e-05
sS'exec_cq'
p768
I1
sS'total_cq'
p769
I12
sa(dp770
g765
I36
sg766
F0.03086090087890625
sg767
F5.1975250244140625e-05
sg768
I2
sg769
I11
sa(dp771
g765
I9
sg766
F0.00645899772644043
sg767
F3.1948089599609375e-05
sg768
I1
sg769
I3
sa(dp772
g765
I8
sg766
F0.006822109222412109
sg767
F4.1961669921875e-05
sg768
I2
sg769
I2
sasS'total_cqs'
p773
I12
ssI65
(dp774
S'iters'
p775
I4
sS'meta'
p776
(lp777
(dp778
S'objective'
p779
I284
sS'query_time'
p780
F0.04026317596435547
sS'comp_time'
p781
F6.198883056640625e-05
sS'exec_cq'
p782
I2
sS'total_cq'
p783
I27
sa(dp784
g779
I281
sg780
F0.03571510314941406
sg781
F6.29425048828125e-05
sg782
I2
sg783
I24
sa(dp785
g779
I258
sg780
F0.022927045822143555
sg781
F5.698204040527344e-05
sg782
I2
sg783
I23
sa(dp786
g779
I238
sg780
F0.024357080459594727
sg781
F8.702278137207031e-05
sg782
I3
sg783
I22
sasS'total_cqs'
p787
I27
ssI66
(dp788
S'iters'
p789
I0
sS'meta'
p790
(lp791
sS'total_cqs'
p792
I1
ssI67
(dp793
S'iters'
p794
I1
sS'meta'
p795
(lp796
(dp797
S'objective'
p798
I574
sS'query_time'
p799
F0.905689001083374
sS'comp_time'
p800
F8.893013000488281e-05
sS'exec_cq'
p801
I8
sS'total_cq'
p802
I35
sasS'total_cqs'
p803
I35
ssI68
(dp804
S'iters'
p805
I0
sS'meta'
p806
(lp807
sS'total_cqs'
p808
I1
ssI69
(dp809
S'iters'
p810
I1
sS'meta'
p811
(lp812
(dp813
S'objective'
p814
I1246
sS'query_time'
p815
F0.10142922401428223
sS'comp_time'
p816
F9.918212890625e-05
sS'exec_cq'
p817
I12
sS'total_cq'
p818
I51
sasS'total_cqs'
p819
I51
ssI70
(dp820
S'iters'
p821
I1
sS'meta'
p822
(lp823
(dp824
S'objective'
p825
I9
sS'query_time'
p826
F0.010122060775756836
sS'comp_time'
p827
F4.8160552978515625e-05
sS'exec_cq'
p828
I1
sS'total_cq'
p829
I6
sasS'total_cqs'
p830
I6
ssI71
(dp831
S'iters'
p832
I5
sS'meta'
p833
(lp834
(dp835
S'objective'
p836
I3493
sS'query_time'
p837
F0.12011599540710449
sS'comp_time'
p838
F0.00011897087097167969
sS'exec_cq'
p839
I5
sS'total_cq'
p840
I85
sa(dp841
g836
I3300
sg837
F0.10408186912536621
sg838
F0.00012993812561035156
sg839
I10
sg840
I84
sa(dp842
g836
I3291
sg837
F0.06835699081420898
sg838
F9.894371032714844e-05
sg839
I11
sg840
I82
sa(dp843
g836
I3088
sg837
F0.07779693603515625
sg838
F7.796287536621094e-05
sg839
I11
sg840
I81
sa(dp844
g836
I3096
sg837
F0.0842900276184082
sg838
F0.00010585784912109375
sg839
I16
sg840
I79
sasS'total_cqs'
p845
I85
ssI72
(dp846
S'iters'
p847
I2
sS'meta'
p848
(lp849
(dp850
S'objective'
p851
I14
sS'query_time'
p852
F0.07144808769226074
sS'comp_time'
p853
F6.4849853515625e-05
sS'exec_cq'
p854
I1
sS'total_cq'
p855
I8
sa(dp856
g851
I11
sg852
F0.008170843124389648
sg853
F5.888938903808594e-05
sg854
I1
sg855
I6
sasS'total_cqs'
p857
I8
ssI73
(dp858
S'iters'
p859
I0
sS'meta'
p860
(lp861
sS'total_cqs'
p862
I1
ssI74
(dp863
S'iters'
p864
I0
sS'meta'
p865
(lp866
sS'total_cqs'
p867
I1
ssI75
(dp868
S'iters'
p869
I1
sS'meta'
p870
(lp871
(dp872
S'objective'
p873
I5
sS'query_time'
p874
F0.00896310806274414
sS'comp_time'
p875
F6.198883056640625e-05
sS'exec_cq'
p876
I1
sS'total_cq'
p877
I5
sasS'total_cqs'
p878
I5
ssI76
(dp879
S'iters'
p880
I1
sS'meta'
p881
(lp882
(dp883
S'objective'
p884
I1
sS'query_time'
p885
F0.008862972259521484
sS'comp_time'
p886
F7.009506225585938e-05
sS'exec_cq'
p887
I1
sS'total_cq'
p888
I2
sasS'total_cqs'
p889
I2
ssI77
(dp890
S'iters'
p891
I0
sS'meta'
p892
(lp893
sS'total_cqs'
p894
I1
ssI78
(dp895
S'iters'
p896
I0
sS'meta'
p897
(lp898
sS'total_cqs'
p899
I1
ssI103
(dp900
S'iters'
p901
I1
sS'meta'
p902
(lp903
(dp904
S'objective'
p905
I58
sS'query_time'
p906
F0.034999847412109375
sS'comp_time'
p907
F6.604194641113281e-05
sS'exec_cq'
p908
I3
sS'total_cq'
p909
I12
sasS'total_cqs'
p910
I12
ssI104
(dp911
S'iters'
p912
I1
sS'meta'
p913
(lp914
(dp915
S'objective'
p916
I2
sS'query_time'
p917
F1.3220880031585693
sS'comp_time'
p918
F7.104873657226562e-05
sS'exec_cq'
p919
I1
sS'total_cq'
p920
I4
sasS'total_cqs'
p921
I4
ssI105
(dp922
S'iters'
p923
I0
sS'meta'
p924
(lp925
sS'total_cqs'
p926
I1
ssI106
(dp927
S'iters'
p928
I1
sS'meta'
p929
(lp930
(dp931
S'objective'
p932
I2
sS'query_time'
p933
F0.01803112030029297
sS'comp_time'
p934
F4.696846008300781e-05
sS'exec_cq'
p935
I1
sS'total_cq'
p936
I4
sasS'total_cqs'
p937
I4
ssI107
(dp938
S'iters'
p939
I2
sS'meta'
p940
(lp941
(dp942
S'objective'
p943
I104
sS'query_time'
p944
F0.08243417739868164
sS'comp_time'
p945
F5.2928924560546875e-05
sS'exec_cq'
p946
I1
sS'total_cq'
p947
I16
sa(dp948
g943
I94
sg944
F0.060832977294921875
sg945
F6.818771362304688e-05
sg946
I3
sg947
I15
sasS'total_cqs'
p949
I16
ssI108
(dp950
S'iters'
p951
I0
sS'meta'
p952
(lp953
sS'total_cqs'
p954
I1
ss.