(dp0
I1
(dp1
S'iters'
p2
I6
sS'meta'
p3
(lp4
(dp5
S'error_cq'
p6
I0
sS'query_time'
p7
F0.006527900695800781
sS'dist'
p8
F1.8333333333333333
sS'exec_cq'
p9
I4
sS'comp_time'
p10
F4.9114227294921875e-05
sS'parse_time'
p11
F0.0028429031372070312
sS'total_cq'
p12
I12
sS'timeout_cq'
p13
I0
sS'valid_cq'
p14
I1
sa(dp15
g6
I0
sg7
F0.003244161605834961
sg8
F1.8333333333333333
sg9
I3
sg10
F6.318092346191406e-05
sg11
F0.0018379688262939453
sg12
I12
sg13
I0
sg14
I1
sa(dp16
g6
I0
sg7
F0.008433818817138672
sg8
F1.8333333333333333
sg9
I8
sg10
F5.602836608886719e-05
sg11
F0.0020809173583984375
sg12
I12
sg13
I0
sg14
I1
sa(dp17
g6
I0
sg7
F0.002357006072998047
sg8
F1.8333333333333333
sg9
I2
sg10
F5.602836608886719e-05
sg11
F0.002040863037109375
sg12
I12
sg13
I0
sg14
I1
sa(dp18
g6
I0
sg7
F0.0013048648834228516
sg8
F1.8333333333333333
sg9
I1
sg10
F5.793571472167969e-05
sg11
F0.0017478466033935547
sg12
I12
sg13
I0
sg14
I1
sa(dp19
g6
I0
sg7
F0.0030710697174072266
sg8
F1.8333333333333333
sg9
I3
sg10
F5.316734313964844e-05
sg11
F0.001968860626220703
sg12
I12
sg13
I0
sg14
I1
sassI2
(dp20
g2
I1
sg3
(lp21
(dp22
g6
I0
sg7
F0.0012989044189453125
sg8
F3.7142857142857144
sg9
I1
sg10
F6.103515625e-05
sg11
F0.002355813980102539
sg12
I28
sg13
I0
sg14
I1
sass.