(dp0
I1
(dp1
S'iters'
p2
I4
sS'meta'
p3
(lp4
(dp5
S'objective'
p6
I48
sS'query_time'
p7
F0.014954805374145508
sS'comp_time'
p8
F0.0004119873046875
sS'exec_cq'
p9
I12
sS'total_cq'
p10
I12
sa(dp11
g6
I39
sg7
F6.008148193359375e-05
sg8
F0.00012969970703125
sg9
I10
sg10
I10
sa(dp12
g6
I31
sg7
F3.600120544433594e-05
sg8
F0.000102996826171875
sg9
I9
sg10
I9
sa(dp13
g6
I27
sg7
F3.0994415283203125e-05
sg8
F8.296966552734375e-05
sg9
I8
sg10
I8
sasS'total_cqs'
p14
I12
ssI2
(dp15
S'iters'
p16
I4
sS'meta'
p17
(lp18
(dp19
S'objective'
p20
I212
sS'query_time'
p21
F0.0959470272064209
sS'comp_time'
p22
F0.0009009838104248047
sS'exec_cq'
p23
I13
sS'total_cq'
p24
I27
sa(dp25
g20
I207
sg21
F0.10341501235961914
sg22
F0.0007531642913818359
sg23
I14
sg24
I23
sa(dp26
g20
I191
sg21
F8.487701416015625e-05
sg22
F0.00031375885009765625
sg23
I11
sg24
I20
sa(dp27
g20
I191
sg21
F5.698204040527344e-05
sg22
F0.0002627372741699219
sg23
I9
sg24
I18
sasS'total_cqs'
p28
I27
ssI3
(dp29
S'iters'
p30
I4
sS'meta'
p31
(lp32
(dp33
S'objective'
p34
I498
sS'query_time'
p35
F207.14401292800903
sS'comp_time'
p36
F0.026177406311035156
sS'exec_cq'
p37
I16
sS'total_cq'
p38
I43
sa(dp39
g34
I418
sg35
F225.69162392616272
sg36
F3.2812857627868652
sg37
I14
sg38
I35
sa(dp40
g34
I252
sg35
F121.5825400352478
sg36
F1.0990681648254395
sg37
I9
sg38
I28
sa(dp41
g34
I365
sg35
F11.083999156951904
sg36
F0.00018477439880371094
sg37
I20
sg38
I20
sasS'total_cqs'
p42
I43
ssI4
(dp43
S'iters'
p44
I2
sS'meta'
p45
(lp46
(dp47
S'objective'
p48
I40
sS'query_time'
p49
F5.063354969024658
sS'comp_time'
p50
F1.7106420993804932
sS'exec_cq'
p51
I11
sS'total_cq'
p52
I11
sa(dp53
g48
I1
sg49
F0.31397199630737305
sg50
F1.6357250213623047
sg51
I2
sg52
I2
sasS'total_cqs'
p54
I11
ssI5
(dp55
S'iters'
p56
I3
sS'meta'
p57
(lp58
(dp59
S'objective'
p60
I0
sS'query_time'
p61
F35.40212106704712
sS'comp_time'
p62
F5.675377130508423
sS'exec_cq'
p63
I8
sS'total_cq'
p64
I8
sa(dp65
g60
I0
sg61
F0.8976900577545166
sg62
F4.6064581871032715
sg63
I4
sg64
I4
sa(dp66
g60
I1
sg61
F0.003509998321533203
sg62
F0.29955387115478516
sg63
I2
sg64
I2
sasS'total_cqs'
p67
I8
ssI6
(dp68
S'iters'
p69
I4
sS'meta'
p70
(lp71
(dp72
S'objective'
p73
I31
sS'query_time'
p74
F37.51652908325195
sS'comp_time'
p75
F4.645230770111084
sS'exec_cq'
p76
I18
sS'total_cq'
p77
I18
sa(dp78
g73
I0
sg74
F0.8066678047180176
sg75
F5.43597412109375
sg76
I7
sg77
I7
sa(dp79
g73
I3
sg74
F0.4573650360107422
sg75
F3.0404701232910156
sg76
I4
sg77
I4
sa(dp80
g73
I1
sg74
F0.5162510871887207
sg75
F2.784126043319702
sg76
I2
sg77
I2
sasS'total_cqs'
p81
I18
ssI7
(dp82
S'iters'
p83
I3
sS'meta'
p84
(lp85
(dp86
S'objective'
p87
I1
sS'query_time'
p88
F12.822597026824951
sS'comp_time'
p89
F2.9119210243225098
sS'exec_cq'
p90
I9
sS'total_cq'
p91
I9
sa(dp92
g87
I5
sg88
F0.08117079734802246
sg89
F1.1924312114715576
sg90
I3
sg91
I3
sa(dp93
g87
I2
sg88
F0.023785114288330078
sg89
F0.48685312271118164
sg90
I2
sg91
I2
sasS'total_cqs'
p94
I9
ssI8
(dp95
S'iters'
p96
I3
sS'meta'
p97
(lp98
(dp99
S'objective'
p100
I152
sS'query_time'
p101
F0.04900193214416504
sS'comp_time'
p102
F0.0011320114135742188
sS'exec_cq'
p103
I14
sS'total_cq'
p104
I27
sa(dp105
g100
I183
sg101
F0.035273075103759766
sg102
F0.0005292892456054688
sg103
I13
sg104
I22
sa(dp106
g100
I194
sg101
F4.410743713378906e-05
sg102
F9.107589721679688e-05
sg103
I10
sg104
I19
sasS'total_cqs'
p107
I27
ssI9
(dp108
S'iters'
p109
I3
sS'meta'
p110
(lp111
(dp112
S'objective'
p113
I0
sS'query_time'
p114
F0.054895877838134766
sS'comp_time'
p115
F0.0007350444793701172
sS'exec_cq'
p116
I7
sS'total_cq'
p117
I7
sa(dp118
g113
I2
sg114
F5.3882598876953125e-05
sg115
F0.0001761913299560547
sg116
I4
sg117
I4
sa(dp119
g113
I4
sg114
F2.09808349609375e-05
sg115
F0.0001399517059326172
sg116
I2
sg117
I2
sasS'total_cqs'
p120
I7
ssI10
(dp121
S'iters'
p122
I5
sS'meta'
p123
(lp124
(dp125
S'objective'
p126
I562
sS'query_time'
p127
F0.18111395835876465
sS'comp_time'
p128
F0.0035467147827148438
sS'exec_cq'
p129
I28
sS'total_cq'
p130
I51
sa(dp131
g126
I302
sg127
F0.12958407402038574
sg128
F0.0014579296112060547
sg129
I23
sg130
I37
sa(dp132
g126
I413
sg127
F0.00020694732666015625
sg128
F0.0011339187622070312
sg129
I14
sg130
I25
sa(dp133
g126
I394
sg127
F7.700920104980469e-05
sg128
F0.00028395652770996094
sg129
I11
sg130
I21
sa(dp134
g126
I8
sg127
F3.1948089599609375e-05
sg128
F0.00019693374633789062
sg129
I3
sg130
I3
sasS'total_cqs'
p135
I51
ssI11
(dp136
S'iters'
p137
I5
sS'meta'
p138
(lp139
(dp140
S'objective'
p141
I922
sS'query_time'
p142
F0.4219379425048828
sS'comp_time'
p143
F0.02670001983642578
sS'exec_cq'
p144
I63
sS'total_cq'
p145
I63
sa(dp146
g141
I833
sg142
F0.0017011165618896484
sg143
F0.008750200271606445
sg144
I47
sg145
I47
sa(dp147
g141
I2
sg142
F0.00026488304138183594
sg143
F0.0020699501037597656
sg144
I9
sg145
I9
sa(dp148
g141
I8
sg142
F3.600120544433594e-05
sg143
F0.00015497207641601562
sg144
I4
sg145
I4
sa(dp149
g141
I10
sg142
F1.621246337890625e-05
sg143
F0.00010585784912109375
sg144
I2
sg145
I2
sasS'total_cqs'
p150
I63
ssI12
(dp151
S'iters'
p152
I5
sS'meta'
p153
(lp154
(dp155
S'objective'
p156
I475
sS'query_time'
p157
F0.11742496490478516
sS'comp_time'
p158
F0.0015649795532226562
sS'exec_cq'
p159
I28
sS'total_cq'
p160
I50
sa(dp161
g156
I415
sg157
F0.11708688735961914
sg158
F0.003253936767578125
sg159
I22
sg160
I33
sa(dp162
g156
I22
sg157
F0.00023984909057617188
sg158
F0.0019419193267822266
sg159
I8
sg160
I8
sa(dp163
g156
I10
sg157
F2.9802322387695312e-05
sg158
F0.0001971721649169922
sg159
I3
sg160
I3
sa(dp164
g156
I5
sg157
F2.193450927734375e-05
sg158
F0.00017499923706054688
sg159
I2
sg160
I2
sasS'total_cqs'
p165
I50
ssI13
(dp166
S'iters'
p167
I3
sS'meta'
p168
(lp169
(dp170
S'objective'
p171
I24
sS'query_time'
p172
F0.09037899971008301
sS'comp_time'
p173
F0.0005190372467041016
sS'exec_cq'
p174
I20
sS'total_cq'
p175
I20
sa(dp176
g171
I45
sg172
F5.817413330078125e-05
sg173
F0.00011706352233886719
sg174
I9
sg175
I9
sa(dp177
g171
I2
sg172
F1.4066696166992188e-05
sg173
F0.00012111663818359375
sg174
I2
sg175
I2
sasS'total_cqs'
p178
I20
ssI14
(dp179
S'iters'
p180
I3
sS'meta'
p181
(lp182
(dp183
S'objective'
p184
I1
sS'query_time'
p185
F33.061755895614624
sS'comp_time'
p186
F3.3263700008392334
sS'exec_cq'
p187
I9
sS'total_cq'
p188
I9
sa(dp189
g184
I0
sg185
F0.00909876823425293
sg186
F0.07522988319396973
sg187
I4
sg188
I4
sa(dp190
g184
I1
sg185
F0.008239030838012695
sg186
F0.21225237846374512
sg187
I2
sg188
I2
sasS'total_cqs'
p191
I9
ssI15
(dp192
S'iters'
p193
I4
sS'meta'
p194
(lp195
(dp196
S'objective'
p197
I0
sS'query_time'
p198
F3.758676052093506
sS'comp_time'
p199
F0.3655121326446533
sS'exec_cq'
p200
I11
sS'total_cq'
p201
I11
sa(dp202
g197
I1
sg198
F0.043695926666259766
sg199
F0.7548701763153076
sg200
I6
sg201
I6
sa(dp203
g197
I1
sg198
F0.027969837188720703
sg199
F0.44917988777160645
sg200
I4
sg201
I4
sa(dp204
g197
I5
sg198
F0.01263880729675293
sg199
F0.2200157642364502
sg200
I2
sg201
I2
sasS'total_cqs'
p205
I11
ssI16
(dp206
S'iters'
p207
I1
sS'meta'
p208
(lp209
(dp210
S'objective'
p211
I26
sS'query_time'
p212
F0.038182973861694336
sS'comp_time'
p213
F0.0017719268798828125
sS'exec_cq'
p214
I8
sS'total_cq'
p215
I8
sasS'total_cqs'
p216
I8
ssI17
(dp217
S'iters'
p218
I3
sS'meta'
p219
(lp220
(dp221
S'objective'
p222
I0
sS'query_time'
p223
F1.0558171272277832
sS'comp_time'
p224
F0.04780697822570801
sS'exec_cq'
p225
I11
sS'total_cq'
p226
I11
sa(dp227
g222
I7
sg223
F0.002907991409301758
sg224
F0.028330326080322266
sg225
I7
sg226
I7
sa(dp228
g222
I1
sg223
F0.132889986038208
sg224
F0.027732133865356445
sg225
I3
sg226
I3
sasS'total_cqs'
p229
I11
ssI18
(dp230
S'iters'
p231
I2
sS'meta'
p232
(lp233
(dp234
S'objective'
p235
I20
sS'query_time'
p236
F0.1135098934173584
sS'comp_time'
p237
F0.00950932502746582
sS'exec_cq'
p238
I6
sS'total_cq'
p239
I11
sa(dp240
g235
I29
sg236
F0.09054994583129883
sg237
F0.00045013427734375
sg238
I7
sg239
I8
sasS'total_cqs'
p241
I11
ssI19
(dp242
S'iters'
p243
I0
sS'meta'
p244
(lp245
sS'total_cqs'
p246
I1
ssI20
(dp247
S'iters'
p248
I0
sS'meta'
p249
(lp250
sS'total_cqs'
p251
I1
ssI21
(dp252
S'iters'
p253
I0
sS'meta'
p254
(lp255
sS'total_cqs'
p256
I1
ssI22
(dp257
S'iters'
p258
I1
sS'meta'
p259
(lp260
(dp261
S'objective'
p262
I151
sS'query_time'
p263
F0.038153886795043945
sS'comp_time'
p264
F0.000457763671875
sS'exec_cq'
p265
I18
sS'total_cq'
p266
I18
sasS'total_cqs'
p267
I18
ssI23
(dp268
S'iters'
p269
I1
sS'meta'
p270
(lp271
(dp272
S'objective'
p273
I118
sS'query_time'
p274
F0.029330015182495117
sS'comp_time'
p275
F0.0007216930389404297
sS'exec_cq'
p276
I8
sS'total_cq'
p277
I16
sasS'total_cqs'
p278
I16
ssI24
(dp279
S'iters'
p280
I0
sS'meta'
p281
(lp282
sS'total_cqs'
p283
I1
ssI25
(dp284
S'iters'
p285
I0
sS'meta'
p286
(lp287
sS'total_cqs'
p288
I1
ssI26
(dp289
S'iters'
p290
I1
sS'meta'
p291
(lp292
(dp293
S'objective'
p294
I859
sS'query_time'
p295
F0.05092501640319824
sS'comp_time'
p296
F0.0001838207244873047
sS'exec_cq'
p297
I42
sS'total_cq'
p298
I42
sasS'total_cqs'
p299
I42
ssI27
(dp300
S'iters'
p301
I4
sS'meta'
p302
(lp303
(dp304
S'objective'
p305
I369
sS'query_time'
p306
F22.84555196762085
sS'comp_time'
p307
F5.944035768508911
sS'exec_cq'
p308
I30
sS'total_cq'
p309
I30
sa(dp310
g305
I345
sg306
F0.655911922454834
sg307
F3.7792811393737793
sg308
I27
sg309
I27
sa(dp311
g305
I2
sg306
F0.44495606422424316
sg307
F3.911156177520752
sg308
I4
sg309
I4
sa(dp312
g305
I15
sg306
F0.4677550792694092
sg307
F3.0594911575317383
sg308
I2
sg309
I2
sasS'total_cqs'
p313
I30
ssI28
(dp314
S'iters'
p315
I0
sS'meta'
p316
(lp317
sS'total_cqs'
p318
I1
ssI29
(dp319
S'iters'
p320
I5
sS'meta'
p321
(lp322
(dp323
S'objective'
p324
I449
sS'query_time'
p325
F27.329242944717407
sS'comp_time'
p326
F0.6321418285369873
sS'exec_cq'
p327
I35
sS'total_cq'
p328
I49
sa(dp329
g324
I32
sg325
F0.0030329227447509766
sg326
F0.0160830020904541
sg327
I16
sg328
I16
sa(dp330
g324
I4
sg325
F0.001672983169555664
sg326
F0.012254953384399414
sg327
I9
sg328
I9
sa(dp331
g324
I9
sg325
F0.0009388923645019531
sg326
F0.008838891983032227
sg327
I3
sg328
I3
sa(dp332
g324
I4
sg325
F0.0008449554443359375
sg326
F0.008575916290283203
sg327
I2
sg328
I2
sasS'total_cqs'
p333
I49
ssI30
(dp334
S'iters'
p335
I1
sS'meta'
p336
(lp337
(dp338
S'objective'
p339
I1
sS'query_time'
p340
F0.6768829822540283
sS'comp_time'
p341
F0.06311178207397461
sS'exec_cq'
p342
I2
sS'total_cq'
p343
I2
sasS'total_cqs'
p344
I2
ssI31
(dp345
S'iters'
p346
I0
sS'meta'
p347
(lp348
sS'total_cqs'
p349
I1
ssI32
(dp350
S'iters'
p351
I1
sS'meta'
p352
(lp353
(dp354
S'objective'
p355
I1
sS'query_time'
p356
F0.009278059005737305
sS'comp_time'
p357
F0.0004999637603759766
sS'exec_cq'
p358
I2
sS'total_cq'
p359
I2
sasS'total_cqs'
p360
I2
ssI33
(dp361
S'iters'
p362
I5
sS'meta'
p363
(lp364
(dp365
S'objective'
p366
I3656
sS'query_time'
p367
F15.626085996627808
sS'comp_time'
p368
F0.4615156650543213
sS'exec_cq'
p369
I103
sS'total_cq'
p370
I103
sa(dp371
g366
I8
sg367
F0.00976109504699707
sg368
F0.03356480598449707
sg369
I16
sg370
I16
sa(dp372
g366
I11
sg367
F0.004396915435791016
sg368
F0.023328065872192383
sg369
I8
sg370
I8
sa(dp373
g366
I15
sg367
F0.0005459785461425781
sg368
F0.003709077835083008
sg369
I3
sg370
I3
sa(dp374
g366
I6
sg367
F0.00029397010803222656
sg368
F0.00409388542175293
sg369
I2
sg370
I2
sasS'total_cqs'
p375
I103
ssI34
(dp376
S'iters'
p377
I1
sS'meta'
p378
(lp379
(dp380
S'objective'
p381
I1
sS'query_time'
p382
F0.012217998504638672
sS'comp_time'
p383
F0.0009109973907470703
sS'exec_cq'
p384
I2
sS'total_cq'
p385
I2
sasS'total_cqs'
p386
I2
ssI35
(dp387
S'iters'
p388
I5
sS'meta'
p389
(lp390
(dp391
S'objective'
p392
I1339
sS'query_time'
p393
F21.18460488319397
sS'comp_time'
p394
F0.14816904067993164
sS'exec_cq'
p395
I50
sS'total_cq'
p396
I70
sa(dp397
g392
I21
sg393
F0.005109071731567383
sg394
F0.022025108337402344
sg395
I16
sg396
I16
sa(dp398
g392
I12
sg393
F0.0026390552520751953
sg394
F0.010081052780151367
sg395
I7
sg396
I7
sa(dp399
g392
I34
sg393
F0.000823974609375
sg394
F0.00801992416381836
sg395
I3
sg396
I3
sa(dp400
g392
I11
sg393
F0.0007557868957519531
sg394
F0.00844120979309082
sg395
I2
sg396
I2
sasS'total_cqs'
p401
I70
ssI36
(dp402
S'iters'
p403
I1
sS'meta'
p404
(lp405
(dp406
S'objective'
p407
I525
sS'query_time'
p408
F0.5669291019439697
sS'comp_time'
p409
F0.005706310272216797
sS'exec_cq'
p410
I28
sS'total_cq'
p411
I33
sasS'total_cqs'
p412
I33
ssI37
(dp413
S'iters'
p414
I1
sS'meta'
p415
(lp416
(dp417
S'objective'
p418
I1
sS'query_time'
p419
F0.007647991180419922
sS'comp_time'
p420
F0.00045490264892578125
sS'exec_cq'
p421
I2
sS'total_cq'
p422
I2
sasS'total_cqs'
p423
I2
ssI38
(dp424
S'iters'
p425
I2
sS'meta'
p426
(lp427
(dp428
S'objective'
p429
I0
sS'query_time'
p430
F0.016592979431152344
sS'comp_time'
p431
F0.0008308887481689453
sS'exec_cq'
p432
I4
sS'total_cq'
p433
I4
sa(dp434
g429
I1
sg430
F9.083747863769531e-05
sg431
F0.0007121562957763672
sg432
I2
sg433
I2
sasS'total_cqs'
p435
I4
ssI39
(dp436
S'iters'
p437
I2
sS'meta'
p438
(lp439
(dp440
S'objective'
p441
I728
sS'query_time'
p442
F0.07122588157653809
sS'comp_time'
p443
F0.002852201461791992
sS'exec_cq'
p444
I44
sS'total_cq'
p445
I44
sa(dp446
g441
I813
sg442
F0.0003750324249267578
sg443
F0.002424001693725586
sg444
I37
sg445
I37
sasS'total_cqs'
p447
I44
ssI40
(dp448
S'iters'
p449
I1
sS'meta'
p450
(lp451
(dp452
S'objective'
p453
I18
sS'query_time'
p454
F0.023340940475463867
sS'comp_time'
p455
F0.0001480579376220703
sS'exec_cq'
p456
I7
sS'total_cq'
p457
I7
sasS'total_cqs'
p458
I7
ssI41
(dp459
S'iters'
p460
I1
sS'meta'
p461
(lp462
(dp463
S'objective'
p464
I64
sS'query_time'
p465
F0.054841041564941406
sS'comp_time'
p466
F0.0012166500091552734
sS'exec_cq'
p467
I12
sS'total_cq'
p468
I12
sasS'total_cqs'
p469
I12
ssI42
(dp470
S'iters'
p471
I1
sS'meta'
p472
(lp473
(dp474
S'objective'
p475
I817
sS'query_time'
p476
F0.02419900894165039
sS'comp_time'
p477
F0.00024509429931640625
sS'exec_cq'
p478
I21
sS'total_cq'
p479
I41
sasS'total_cqs'
p480
I41
ssI43
(dp481
S'iters'
p482
I1
sS'meta'
p483
(lp484
(dp485
S'objective'
p486
I18
sS'query_time'
p487
F0.10692119598388672
sS'comp_time'
p488
F0.0001990795135498047
sS'exec_cq'
p489
I7
sS'total_cq'
p490
I7
sasS'total_cqs'
p491
I7
ssI44
(dp492
S'iters'
p493
I4
sS'meta'
p494
(lp495
(dp496
S'objective'
p497
I794
sS'query_time'
p498
F0.4170191287994385
sS'comp_time'
p499
F0.002129793167114258
sS'exec_cq'
p500
I47
sS'total_cq'
p501
I47
sa(dp502
g497
I809
sg498
F0.0003199577331542969
sg499
F0.001889944076538086
sg500
I40
sg501
I40
sa(dp503
g497
I6
sg498
F0.00011801719665527344
sg499
F0.001132965087890625
sg500
I3
sg501
I3
sa(dp504
g497
I9
sg498
F3.0040740966796875e-05
sg499
F0.00018405914306640625
sg500
I2
sg501
I2
sasS'total_cqs'
p505
I47
ssI45
(dp506
S'iters'
p507
I0
sS'meta'
p508
(lp509
sS'total_cqs'
p510
I1
ssI46
(dp511
S'iters'
p512
I2
sS'meta'
p513
(lp514
(dp515
S'objective'
p516
I11
sS'query_time'
p517
F0.009569168090820312
sS'comp_time'
p518
F0.0007419586181640625
sS'exec_cq'
p519
I4
sS'total_cq'
p520
I6
sa(dp521
g516
I8
sg517
F4.696846008300781e-05
sg518
F0.00043487548828125
sg519
I3
sg520
I5
sasS'total_cqs'
p522
I6
ssI47
(dp523
S'iters'
p524
I1
sS'meta'
p525
(lp526
(dp527
S'objective'
p528
I1
sS'query_time'
p529
F0.006361961364746094
sS'comp_time'
p530
F0.00043773651123046875
sS'exec_cq'
p531
I2
sS'total_cq'
p532
I2
sasS'total_cqs'
p533
I2
ssI48
(dp534
S'iters'
p535
I0
sS'meta'
p536
(lp537
sS'total_cqs'
p538
I1
ssI49
(dp539
S'iters'
p540
I0
sS'meta'
p541
(lp542
sS'total_cqs'
p543
I1
ssI50
(dp544
S'iters'
p545
I2
sS'meta'
p546
(lp547
(dp548
S'objective'
p549
I5
sS'query_time'
p550
F0.06635403633117676
sS'comp_time'
p551
F0.00025391578674316406
sS'exec_cq'
p552
I5
sS'total_cq'
p553
I5
sa(dp554
g549
I2
sg550
F2.9087066650390625e-05
sg551
F0.00013494491577148438
sg552
I4
sg553
I4
sasS'total_cqs'
p555
I5
ssI51
(dp556
S'iters'
p557
I1
sS'meta'
p558
(lp559
(dp560
S'objective'
p561
I1
sS'query_time'
p562
F0.006076812744140625
sS'comp_time'
p563
F0.0003268718719482422
sS'exec_cq'
p564
I2
sS'total_cq'
p565
I2
sasS'total_cqs'
p566
I2
ssI52
(dp567
S'iters'
p568
I1
sS'meta'
p569
(lp570
(dp571
S'objective'
p572
I1
sS'query_time'
p573
F0.0059468746185302734
sS'comp_time'
p574
F0.00047326087951660156
sS'exec_cq'
p575
I2
sS'total_cq'
p576
I2
sasS'total_cqs'
p577
I2
ssI53
(dp578
S'iters'
p579
I2
sS'meta'
p580
(lp581
(dp582
S'objective'
p583
I2
sS'query_time'
p584
F0.02243804931640625
sS'comp_time'
p585
F0.0011930465698242188
sS'exec_cq'
p586
I4
sS'total_cq'
p587
I4
sa(dp588
g583
I0
sg584
F8.797645568847656e-05
sg585
F0.0008039474487304688
sg586
I3
sg587
I3
sasS'total_cqs'
p589
I4
ssI54
(dp590
S'iters'
p591
I1
sS'meta'
p592
(lp593
(dp594
S'objective'
p595
I0
sS'query_time'
p596
F0.00830698013305664
sS'comp_time'
p597
F0.00047016143798828125
sS'exec_cq'
p598
I3
sS'total_cq'
p599
I3
sasS'total_cqs'
p600
I3
ssI55
(dp601
S'iters'
p602
I9
sS'meta'
p603
(lp604
(dp605
S'objective'
p606
I4777
sS'query_time'
p607
F2.2287209033966064
sS'comp_time'
p608
F0.07768607139587402
sS'exec_cq'
p609
I109
sS'total_cq'
p610
I109
sa(dp611
g606
I4830
sg607
F0.007704973220825195
sg608
F0.03975200653076172
sg609
I101
sg610
I101
sa(dp612
g606
I4630
sg607
F0.0005650520324707031
sg608
F0.0018770694732666016
sg609
I93
sg610
I93
sa(dp613
g606
I4595
sg607
F0.00037407875061035156
sg608
F0.0016922950744628906
sg609
I89
sg610
I89
sa(dp614
g606
I4498
sg607
F0.0004029273986816406
sg608
F0.0016090869903564453
sg609
I87
sg610
I87
sa(dp615
g606
I4411
sg607
F0.000347137451171875
sg608
F0.0014836788177490234
sg609
I85
sg610
I85
sa(dp616
g606
I4335
sg607
F0.0003509521484375
sg608
F0.0012099742889404297
sg609
I83
sg610
I83
sa(dp617
g606
I4252
sg607
F0.00030612945556640625
sg608
F0.0010218620300292969
sg609
I82
sg610
I82
sa(dp618
g606
I4226
sg607
F0.00034809112548828125
sg608
F0.0011188983917236328
sg609
I81
sg610
I81
sasS'total_cqs'
p619
I109
ssI56
(dp620
S'iters'
p621
I5
sS'meta'
p622
(lp623
(dp624
S'objective'
p625
I2022
sS'query_time'
p626
F1.4603650569915771
sS'comp_time'
p627
F0.03205585479736328
sS'exec_cq'
p628
I67
sS'total_cq'
p629
I76
sa(dp630
g625
I2
sg626
F0.008632898330688477
sg627
F0.13870000839233398
sg628
I16
sg629
I16
sa(dp631
g625
I3
sg626
F0.0030241012573242188
sg627
F0.019714832305908203
sg628
I8
sg629
I8
sa(dp632
g625
I14
sg626
F0.00043392181396484375
sg627
F0.003591775894165039
sg628
I4
sg629
I4
sa(dp633
g625
I29
sg626
F0.00023508071899414062
sg627
F0.0022079944610595703
sg628
I2
sg629
I2
sasS'total_cqs'
p634
I76
ssI57
(dp635
S'iters'
p636
I6
sS'meta'
p637
(lp638
(dp639
S'objective'
p640
I94
sS'query_time'
p641
F22.728441953659058
sS'comp_time'
p642
F0.05818510055541992
sS'exec_cq'
p643
I45
sS'total_cq'
p644
I51
sa(dp645
g640
I20
sg641
F0.018815994262695312
sg642
F0.05125284194946289
sg643
I27
sg644
I27
sa(dp646
g640
I35
sg641
F0.0024781227111816406
sg642
F0.011096954345703125
sg643
I13
sg644
I13
sa(dp647
g640
I7
sg641
F0.0017468929290771484
sg642
F0.01069784164428711
sg643
I5
sg644
I5
sa(dp648
g640
I19
sg641
F0.0009381771087646484
sg642
F0.005280017852783203
sg643
I3
sg644
I3
sa(dp649
g640
I24
sg641
F0.0004990100860595703
sg642
F0.004551887512207031
sg643
I2
sg644
I2
sasS'total_cqs'
p650
I51
ssI58
(dp651
S'iters'
p652
I7
sS'meta'
p653
(lp654
(dp655
S'objective'
p656
I81423
sS'query_time'
p657
F112.8775749206543
sS'comp_time'
p658
F2.169130802154541
sS'exec_cq'
p659
I348
sS'total_cq'
p660
I486
sa(dp661
g656
I86454
sg657
F0.03864598274230957
sg658
F0.19243907928466797
sg659
I276
sg660
I414
sa(dp662
g656
I12
sg657
F0.016363859176635742
sg658
F0.05518770217895508
sg659
I28
sg660
I28
sa(dp663
g656
I29
sg657
F0.012156009674072266
sg658
F0.037923336029052734
sg659
I15
sg660
I15
sa(dp664
g656
I58
sg657
F0.006911039352416992
sg658
F0.0278170108795166
sg659
I9
sg660
I9
sa(dp665
g656
I25
sg657
F0.0004367828369140625
sg658
F0.0033261775970458984
sg659
I3
sg660
I3
sa(dp666
g656
I62
sg657
F0.00021314620971679688
sg658
F0.0019903182983398438
sg659
I2
sg660
I2
sasS'total_cqs'
p667
I486
ssI59
(dp668
S'iters'
p669
I2
sS'meta'
p670
(lp671
(dp672
S'objective'
p673
I6
sS'query_time'
p674
F0.07682991027832031
sS'comp_time'
p675
F0.012308120727539062
sS'exec_cq'
p676
I7
sS'total_cq'
p677
I7
sa(dp678
g673
I1
sg674
F0.00021910667419433594
sg675
F0.002104043960571289
sg676
I2
sg677
I2
sasS'total_cqs'
p679
I7
ssI60
(dp680
S'iters'
p681
I2
sS'meta'
p682
(lp683
(dp684
S'objective'
p685
I9
sS'query_time'
p686
F0.009106159210205078
sS'comp_time'
p687
F0.0002269744873046875
sS'exec_cq'
p688
I2
sS'total_cq'
p689
I5
sa(dp690
g685
I4
sg686
F0.0026280879974365234
sg687
F0.00020194053649902344
sg688
I3
sg689
I4
sasS'total_cqs'
p691
I5
ssI61
(dp692
S'iters'
p693
I0
sS'meta'
p694
(lp695
sS'total_cqs'
p696
I1
ssI62
(dp697
S'iters'
p698
I2
sS'meta'
p699
(lp700
(dp701
S'objective'
p702
I42
sS'query_time'
p703
F0.03938412666320801
sS'comp_time'
p704
F0.0002989768981933594
sS'exec_cq'
p705
I12
sS'total_cq'
p706
I12
sa(dp707
g702
I46
sg703
F5.1021575927734375e-05
sg704
F0.00011682510375976562
sg705
I9
sg706
I9
sasS'total_cqs'
p708
I12
ssI63
(dp709
S'iters'
p710
I0
sS'meta'
p711
(lp712
sS'total_cqs'
p713
I1
ssI64
(dp714
S'iters'
p715
I3
sS'meta'
p716
(lp717
(dp718
S'objective'
p719
I48
sS'query_time'
p720
F0.09491705894470215
sS'comp_time'
p721
F0.0064792633056640625
sS'exec_cq'
p722
I12
sS'total_cq'
p723
I12
sa(dp724
g719
I1
sg720
F9.799003601074219e-05
sg721
F0.0006842613220214844
sg722
I4
sg723
I4
sa(dp725
g719
I6
sg720
F4.601478576660156e-05
sg721
F0.0003771781921386719
sg722
I2
sg723
I2
sasS'total_cqs'
p726
I12
ssI65
(dp727
S'iters'
p728
I4
sS'meta'
p729
(lp730
(dp731
S'objective'
p732
I148
sS'query_time'
p733
F1.0794150829315186
sS'comp_time'
p734
F0.16655397415161133
sS'exec_cq'
p735
I27
sS'total_cq'
p736
I27
sa(dp737
g732
I1
sg733
F0.0014119148254394531
sg734
F0.00850367546081543
sg735
I7
sg736
I7
sa(dp738
g732
I7
sg733
F0.00025582313537597656
sg734
F0.0034613609313964844
sg735
I3
sg736
I3
sa(dp739
g732
I2
sg733
F8.58306884765625e-05
sg734
F0.0009741783142089844
sg735
I2
sg736
I2
sasS'total_cqs'
p740
I27
ssI66
(dp741
S'iters'
p742
I0
sS'meta'
p743
(lp744
sS'total_cqs'
p745
I1
ssI67
(dp746
S'iters'
p747
I2
sS'meta'
p748
(lp749
(dp750
S'objective'
p751
I564
sS'query_time'
p752
F1.0549979209899902
sS'comp_time'
p753
F0.01545405387878418
sS'exec_cq'
p754
I35
sS'total_cq'
p755
I35
sa(dp756
g751
I5
sg752
F0.0015609264373779297
sg753
F0.01639723777770996
sg754
I2
sg755
I2
sasS'total_cqs'
p757
I35
ssI68
(dp758
S'iters'
p759
I0
sS'meta'
p760
(lp761
sS'total_cqs'
p762
I1
ssI69
(dp763
S'iters'
p764
I1
sS'meta'
p765
(lp766
(dp767
S'objective'
p768
I1272
sS'query_time'
p769
F0.09836792945861816
sS'comp_time'
p770
F0.0003428459167480469
sS'exec_cq'
p771
I51
sS'total_cq'
p772
I51
sasS'total_cqs'
p773
I51
ssI70
(dp774
S'iters'
p775
I2
sS'meta'
p776
(lp777
(dp778
S'objective'
p779
I11
sS'query_time'
p780
F0.009738922119140625
sS'comp_time'
p781
F0.00039839744567871094
sS'exec_cq'
p782
I6
sS'total_cq'
p783
I6
sa(dp784
g779
I8
sg780
F4.9114227294921875e-05
sg781
F0.0003330707550048828
sg782
I5
sg783
I5
sasS'total_cqs'
p785
I6
ssI71
(dp786
S'iters'
p787
I8
sS'meta'
p788
(lp789
(dp790
S'objective'
p791
I3275
sS'query_time'
p792
F0.1511690616607666
sS'comp_time'
p793
F0.0011467933654785156
sS'exec_cq'
p794
I73
sS'total_cq'
p795
I85
sa(dp796
g791
I3117
sg792
F0.0003190040588378906
sg793
F0.0008602142333984375
sg794
I70
sg795
I82
sa(dp797
g791
I3019
sg792
F0.00028705596923828125
sg793
F0.00092315673828125
sg794
I66
sg795
I78
sa(dp798
g791
I2911
sg792
F0.00025200843811035156
sg793
F0.0007660388946533203
sg794
I62
sg795
I74
sa(dp799
g791
I2839
sg792
F0.00023508071899414062
sg793
F0.0005946159362792969
sg794
I59
sg795
I71
sa(dp800
g791
I2766
sg792
F0.0002200603485107422
sg793
F0.00047397613525390625
sg794
I57
sg795
I69
sa(dp801
g791
I2683
sg792
F0.0002110004425048828
sg793
F0.00048089027404785156
sg794
I56
sg795
I68
sa(dp802
g791
I4
sg792
F3.600120544433594e-05
sg793
F0.0002231597900390625
sg794
I3
sg795
I3
sasS'total_cqs'
p803
I85
ssI72
(dp804
S'iters'
p805
I3
sS'meta'
p806
(lp807
(dp808
S'objective'
p809
I4
sS'query_time'
p810
F0.3176579475402832
sS'comp_time'
p811
F0.005156040191650391
sS'exec_cq'
p812
I4
sS'total_cq'
p813
I8
sa(dp814
g809
I0
sg810
F0.0264129638671875
sg811
F0.0005729198455810547
sg812
I4
sg813
I5
sa(dp815
g809
I0
sg810
F2.193450927734375e-05
sg811
F0.00010800361633300781
sg812
I2
sg813
I3
sasS'total_cqs'
p816
I8
ssI73
(dp817
S'iters'
p818
I0
sS'meta'
p819
(lp820
sS'total_cqs'
p821
I1
ssI74
(dp822
S'iters'
p823
I0
sS'meta'
p824
(lp825
sS'total_cqs'
p826
I1
ssI75
(dp827
S'iters'
p828
I2
sS'meta'
p829
(lp830
(dp831
S'objective'
p832
I5
sS'query_time'
p833
F0.006273984909057617
sS'comp_time'
p834
F0.00018596649169921875
sS'exec_cq'
p835
I5
sS'total_cq'
p836
I5
sa(dp837
g832
I2
sg833
F2.5033950805664062e-05
sg834
F0.00012183189392089844
sg835
I4
sg836
I4
sasS'total_cqs'
p838
I5
ssI76
(dp839
S'iters'
p840
I1
sS'meta'
p841
(lp842
(dp843
S'objective'
p844
I1
sS'query_time'
p845
F0.012248992919921875
sS'comp_time'
p846
F0.0007390975952148438
sS'exec_cq'
p847
I2
sS'total_cq'
p848
I2
sasS'total_cqs'
p849
I2
ssI77
(dp850
S'iters'
p851
I0
sS'meta'
p852
(lp853
sS'total_cqs'
p854
I1
ssI78
(dp855
S'iters'
p856
I0
sS'meta'
p857
(lp858
sS'total_cqs'
p859
I1
ssI103
(dp860
S'iters'
p861
I2
sS'meta'
p862
(lp863
(dp864
S'objective'
p865
I62
sS'query_time'
p866
F0.03917098045349121
sS'comp_time'
p867
F0.00024437904357910156
sS'exec_cq'
p868
I12
sS'total_cq'
p869
I12
sa(dp870
g865
I56
sg866
F9.012222290039062e-05
sg867
F0.0002980232238769531
sg868
I11
sg869
I11
sasS'total_cqs'
p871
I12
ssI104
(dp872
S'iters'
p873
I2
sS'meta'
p874
(lp875
(dp876
S'objective'
p877
I2
sS'query_time'
p878
F1.287384033203125
sS'comp_time'
p879
F0.27637791633605957
sS'exec_cq'
p880
I4
sS'total_cq'
p881
I4
sa(dp882
g877
I0
sg878
F0.01092386245727539
sg879
F0.1903669834136963
sg880
I3
sg881
I3
sasS'total_cqs'
p883
I4
ssI105
(dp884
S'iters'
p885
I0
sS'meta'
p886
(lp887
sS'total_cqs'
p888
I1
ssI106
(dp889
S'iters'
p890
I1
sS'meta'
p891
(lp892
(dp893
S'objective'
p894
I4
sS'query_time'
p895
F0.010831117630004883
sS'comp_time'
p896
F0.0001437664031982422
sS'exec_cq'
p897
I4
sS'total_cq'
p898
I4
sasS'total_cqs'
p899
I4
ssI107
(dp900
S'iters'
p901
I2
sS'meta'
p902
(lp903
(dp904
S'objective'
p905
I88
sS'query_time'
p906
F0.04689288139343262
sS'comp_time'
p907
F0.0002810955047607422
sS'exec_cq'
p908
I16
sS'total_cq'
p909
I16
sa(dp910
g905
I6
sg906
F3.3855438232421875e-05
sg907
F0.00016307830810546875
sg908
I3
sg909
I3
sasS'total_cqs'
p911
I16
ssI108
(dp912
S'iters'
p913
I0
sS'meta'
p914
(lp915
sS'total_cqs'
p916
I1
ss.