(dp0
I1
(dp1
S'iters'
p2
I1
sS'meta'
p3
(lp4
(dp5
S'objective'
p6
I58
sS'query_time'
p7
F0.05352592468261719
sS'comp_time'
p8
F0.022408723831176758
sS'exec_cq'
p9
I12
sS'total_cq'
p10
I12
sasS'total_cqs'
p11
I12
ssI2
(dp12
S'iters'
p13
I5
sS'meta'
p14
(lp15
(dp16
S'objective'
p17
I230
sS'query_time'
p18
F0.10211300849914551
sS'comp_time'
p19
F0.03216385841369629
sS'exec_cq'
p20
I27
sS'total_cq'
p21
I27
sa(dp22
g17
I166
sg18
F0.00024008750915527344
sg19
F0.0009303092956542969
sg20
I24
sg21
I24
sa(dp23
g17
I165
sg18
F0.00017213821411132812
sg19
F0.0004973411560058594
sg20
I21
sg21
I21
sa(dp24
g17
I152
sg18
F0.00015497207641601562
sg19
F0.0005321502685546875
sg20
I19
sg21
I19
sa(dp25
g17
I132
sg18
F0.00010585784912109375
sg19
F0.0003237724304199219
sg20
I17
sg21
I17
sasS'total_cqs'
p26
I27
ssI3
(dp27
S'iters'
p28
I4
sS'meta'
p29
(lp30
(dp31
S'objective'
p32
I510
sS'query_time'
p33
F233.7460880279541
sS'comp_time'
p34
F2.4716529846191406
sS'exec_cq'
p35
I39
sS'total_cq'
p36
I43
sa(dp37
g32
I390
sg33
F0.21358203887939453
sg34
F0.24149322509765625
sg35
I25
sg36
I36
sa(dp38
g32
I419
sg33
F0.07053780555725098
sg34
F0.42580294609069824
sg35
I24
sg36
I28
sa(dp39
g32
I421
sg33
F12.52389407157898
sg34
F0.00015211105346679688
sg35
I25
sg36
I25
sasS'total_cqs'
p40
I43
ssI4
(dp41
S'iters'
p42
I2
sS'meta'
p43
(lp44
(dp45
S'objective'
p46
I38
sS'query_time'
p47
F4.83375096321106
sS'comp_time'
p48
F0.4176337718963623
sS'exec_cq'
p49
I11
sS'total_cq'
p50
I11
sa(dp51
g46
I6
sg47
F0.18842005729675293
sg48
F0.2933838367462158
sg49
I2
sg50
I2
sasS'total_cqs'
p52
I11
ssI5
(dp53
S'iters'
p54
I3
sS'meta'
p55
(lp56
(dp57
S'objective'
p58
I0
sS'query_time'
p59
F34.729177951812744
sS'comp_time'
p60
F1.4695460796356201
sS'exec_cq'
p61
I8
sS'total_cq'
p62
I8
sa(dp63
g58
I0
sg59
F0.545295000076294
sg60
F1.38139009475708
sg61
I4
sg62
I4
sa(dp64
g58
I5
sg59
F0.00902700424194336
sg60
F0.014957904815673828
sg61
I2
sg62
I2
sasS'total_cqs'
p65
I8
ssI6
(dp66
S'iters'
p67
I3
sS'meta'
p68
(lp69
(dp70
S'objective'
p71
I11
sS'query_time'
p72
F37.902063846588135
sS'comp_time'
p73
F1.5328717231750488
sS'exec_cq'
p74
I18
sS'total_cq'
p75
I18
sa(dp76
g71
I0
sg72
F0.6587128639221191
sg73
F1.3359286785125732
sg74
I7
sg75
I7
sa(dp77
g71
I10
sg72
F0.35015296936035156
sg73
F0.5830895900726318
sg74
I3
sg75
I3
sasS'total_cqs'
p78
I18
ssI7
(dp79
S'iters'
p80
I3
sS'meta'
p81
(lp82
(dp83
S'objective'
p84
I1
sS'query_time'
p85
F12.521116971969604
sS'comp_time'
p86
F5.197260141372681
sS'exec_cq'
p87
I9
sS'total_cq'
p88
I9
sa(dp89
g84
I1
sg85
F0.09802508354187012
sg86
F0.26903581619262695
sg87
I4
sg88
I4
sa(dp90
g84
I4
sg85
F0.1575779914855957
sg86
F0.2366657257080078
sg87
I2
sg88
I2
sasS'total_cqs'
p91
I9
ssI8
(dp92
S'iters'
p93
I3
sS'meta'
p94
(lp95
(dp96
S'objective'
p97
I226
sS'query_time'
p98
F0.12490415573120117
sS'comp_time'
p99
F0.04480767250061035
sS'exec_cq'
p100
I27
sS'total_cq'
p101
I27
sa(dp102
g97
I196
sg98
F0.00022220611572265625
sg99
F0.0007531642913818359
sg100
I22
sg101
I22
sa(dp103
g97
I205
sg98
F0.00011587142944335938
sg99
F0.00026297569274902344
sg100
I19
sg101
I19
sasS'total_cqs'
p104
I27
ssI9
(dp105
S'iters'
p106
I3
sS'meta'
p107
(lp108
(dp109
S'objective'
p110
I2
sS'query_time'
p111
F0.05103802680969238
sS'comp_time'
p112
F0.0063745975494384766
sS'exec_cq'
p113
I7
sS'total_cq'
p114
I7
sa(dp115
g110
I3
sg111
F4.100799560546875e-05
sg112
F0.0002238750457763672
sg113
I4
sg114
I4
sa(dp116
g110
I6
sg111
F0.0018579959869384766
sg112
F0.00012230873107910156
sg113
I2
sg114
I2
sasS'total_cqs'
p117
I7
ssI10
(dp118
S'iters'
p119
I6
sS'meta'
p120
(lp121
(dp122
S'objective'
p123
I492
sS'query_time'
p124
F0.4213449954986572
sS'comp_time'
p125
F0.08447742462158203
sS'exec_cq'
p126
I51
sS'total_cq'
p127
I51
sa(dp128
g123
I151
sg124
F0.0005719661712646484
sg125
F0.003854036331176758
sg126
I23
sg127
I37
sa(dp129
g123
I388
sg124
F0.00032782554626464844
sg125
F0.0017287731170654297
sg126
I25
sg127
I25
sa(dp130
g123
I337
sg124
F0.00013327598571777344
sg125
F0.0005440711975097656
sg126
I21
sg127
I21
sa(dp131
g123
I280
sg124
F0.00011873245239257812
sg125
F0.0003097057342529297
sg126
I19
sg127
I19
sa(dp132
g123
I21
sg124
F0.0013499259948730469
sg125
F0.00036907196044921875
sg126
I3
sg127
I3
sasS'total_cqs'
p133
I51
ssI11
(dp134
S'iters'
p135
I5
sS'meta'
p136
(lp137
(dp138
S'objective'
p139
I1140
sS'query_time'
p140
F0.5401821136474609
sS'comp_time'
p141
F0.17888307571411133
sS'exec_cq'
p142
I63
sS'total_cq'
p143
I63
sa(dp144
g139
I966
sg140
F0.00131988525390625
sg141
F0.004837751388549805
sg142
I47
sg143
I47
sa(dp145
g139
I2
sg140
F0.001789093017578125
sg141
F0.003021240234375
sg142
I9
sg143
I9
sa(dp146
g139
I26
sg140
F3.790855407714844e-05
sg141
F0.0002617835998535156
sg142
I5
sg143
I5
sa(dp147
g139
I9
sg140
F1.71661376953125e-05
sg141
F0.00019121170043945312
sg142
I2
sg143
I2
sasS'total_cqs'
p148
I63
ssI12
(dp149
S'iters'
p150
I6
sS'meta'
p151
(lp152
(dp153
S'objective'
p154
I409
sS'query_time'
p155
F0.3499791622161865
sS'comp_time'
p156
F0.07837438583374023
sS'exec_cq'
p157
I50
sS'total_cq'
p158
I50
sa(dp159
g154
I444
sg155
F0.000720977783203125
sg156
F0.0038254261016845703
sg157
I33
sg158
I33
sa(dp160
g154
I391
sg155
F0.000247955322265625
sg156
F0.0010914802551269531
sg157
I27
sg158
I27
sa(dp161
g154
I269
sg155
F0.00016307830810546875
sg156
F0.0007710456848144531
sg157
I24
sg158
I24
sa(dp162
g154
I0
sg155
F0.0021109580993652344
sg156
F0.0007319450378417969
sg157
I6
sg158
I6
sa(dp163
g154
I16
sg155
F4.410743713378906e-05
sg156
F0.0002751350402832031
sg157
I3
sg158
I3
sasS'total_cqs'
p164
I50
ssI13
(dp165
S'iters'
p166
I3
sS'meta'
p167
(lp168
(dp169
S'objective'
p170
I58
sS'query_time'
p171
F0.15906691551208496
sS'comp_time'
p172
F0.0406646728515625
sS'exec_cq'
p173
I20
sS'total_cq'
p174
I20
sa(dp175
g170
I18
sg171
F6.604194641113281e-05
sg172
F0.00047206878662109375
sg173
I9
sg174
I9
sa(dp176
g170
I3
sg171
F0.01590585708618164
sg172
F0.00027298927307128906
sg173
I2
sg174
I2
sasS'total_cqs'
p177
I20
ssI14
(dp178
S'iters'
p179
I3
sS'meta'
p180
(lp181
(dp182
S'objective'
p183
I1
sS'query_time'
p184
F33.824448108673096
sS'comp_time'
p185
F1.203129768371582
sS'exec_cq'
p186
I9
sS'total_cq'
p187
I9
sa(dp188
g183
I3
sg184
F0.35720396041870117
sg185
F0.6714472770690918
sg186
I4
sg187
I4
sa(dp189
g183
I6
sg184
F0.07872891426086426
sg185
F0.5491559505462646
sg186
I2
sg187
I2
sasS'total_cqs'
p190
I9
ssI15
(dp191
S'iters'
p192
I3
sS'meta'
p193
(lp194
(dp195
S'objective'
p196
I2
sS'query_time'
p197
F3.5891149044036865
sS'comp_time'
p198
F0.2950255870819092
sS'exec_cq'
p199
I11
sS'total_cq'
p200
I11
sa(dp201
g196
I12
sg197
F0.0007441043853759766
sg198
F0.0017559528350830078
sg199
I6
sg200
I6
sa(dp202
g196
I9
sg197
F0.00042510032653808594
sg198
F0.0008008480072021484
sg199
I2
sg200
I2
sasS'total_cqs'
p203
I11
ssI16
(dp204
S'iters'
p205
I1
sS'meta'
p206
(lp207
(dp208
S'objective'
p209
I22
sS'query_time'
p210
F0.0196990966796875
sS'comp_time'
p211
F0.0039331912994384766
sS'exec_cq'
p212
I8
sS'total_cq'
p213
I8
sasS'total_cqs'
p214
I8
ssI17
(dp215
S'iters'
p216
I3
sS'meta'
p217
(lp218
(dp219
S'objective'
p220
I0
sS'query_time'
p221
F0.8889191150665283
sS'comp_time'
p222
F0.02792811393737793
sS'exec_cq'
p223
I11
sS'total_cq'
p224
I11
sa(dp225
g220
I5
sg221
F0.00267791748046875
sg222
F0.0035409927368164062
sg223
I4
sg224
I4
sa(dp226
g220
I1
sg221
F0.0001571178436279297
sg222
F0.00032210350036621094
sg223
I2
sg224
I2
sasS'total_cqs'
p227
I11
ssI18
(dp228
S'iters'
p229
I2
sS'meta'
p230
(lp231
(dp232
S'objective'
p233
I44
sS'query_time'
p234
F0.19234085083007812
sS'comp_time'
p235
F0.023468732833862305
sS'exec_cq'
p236
I11
sS'total_cq'
p237
I11
sa(dp238
g233
I35
sg234
F0.0008690357208251953
sg235
F0.00215911865234375
sg236
I10
sg237
I10
sasS'total_cqs'
p239
I11
ssI19
(dp240
S'iters'
p241
I0
sS'meta'
p242
(lp243
sS'total_cqs'
p244
I1
ssI20
(dp245
S'iters'
p246
I0
sS'meta'
p247
(lp248
sS'total_cqs'
p249
I1
ssI21
(dp250
S'iters'
p251
I0
sS'meta'
p252
(lp253
sS'total_cqs'
p254
I1
ssI22
(dp255
S'iters'
p256
I1
sS'meta'
p257
(lp258
(dp259
S'objective'
p260
I141
sS'query_time'
p261
F0.048458099365234375
sS'comp_time'
p262
F0.03124713897705078
sS'exec_cq'
p263
I18
sS'total_cq'
p264
I18
sasS'total_cqs'
p265
I18
ssI23
(dp266
S'iters'
p267
I2
sS'meta'
p268
(lp269
(dp270
S'objective'
p271
I86
sS'query_time'
p272
F0.06608724594116211
sS'comp_time'
p273
F0.02913522720336914
sS'exec_cq'
p274
I16
sS'total_cq'
p275
I16
sa(dp276
g271
I85
sg272
F0.000102996826171875
sg273
F0.00020122528076171875
sg274
I14
sg275
I14
sasS'total_cqs'
p277
I16
ssI24
(dp278
S'iters'
p279
I0
sS'meta'
p280
(lp281
sS'total_cqs'
p282
I1
ssI25
(dp283
S'iters'
p284
I0
sS'meta'
p285
(lp286
sS'total_cqs'
p287
I1
ssI26
(dp288
S'iters'
p289
I1
sS'meta'
p290
(lp291
(dp292
S'objective'
p293
I837
sS'query_time'
p294
F0.16760015487670898
sS'comp_time'
p295
F0.15384483337402344
sS'exec_cq'
p296
I42
sS'total_cq'
p297
I42
sasS'total_cqs'
p298
I42
ssI27
(dp299
S'iters'
p300
I3
sS'meta'
p301
(lp302
(dp303
S'objective'
p304
I355
sS'query_time'
p305
F22.834917068481445
sS'comp_time'
p306
F1.5576200485229492
sS'exec_cq'
p307
I30
sS'total_cq'
p308
I30
sa(dp309
g304
I320
sg305
F0.3547370433807373
sg306
F1.0898802280426025
sg307
I27
sg308
I27
sa(dp310
g304
I3
sg305
F0.503032922744751
sg306
F1.5329632759094238
sg307
I4
sg308
I4
sasS'total_cqs'
p311
I30
ssI28
(dp312
S'iters'
p313
I0
sS'meta'
p314
(lp315
sS'total_cqs'
p316
I1
ssI29
(dp317
S'iters'
p318
I5
sS'meta'
p319
(lp320
(dp321
S'objective'
p322
I429
sS'query_time'
p323
F146.67771220207214
sS'comp_time'
p324
F8.439983606338501
sS'exec_cq'
p325
I49
sS'total_cq'
p326
I49
sa(dp327
g322
I42
sg323
F0.021518945693969727
sg324
F0.04203319549560547
sg325
I17
sg326
I17
sa(dp328
g322
I4
sg323
F0.006732940673828125
sg324
F0.011276006698608398
sg325
I7
sg326
I7
sa(dp329
g322
I11
sg323
F0.0007708072662353516
sg324
F0.0013625621795654297
sg325
I4
sg326
I4
sa(dp330
g322
I25
sg323
F0.0005669593811035156
sg324
F0.0008995532989501953
sg325
I2
sg326
I2
sasS'total_cqs'
p331
I49
ssI30
(dp332
S'iters'
p333
I1
sS'meta'
p334
(lp335
(dp336
S'objective'
p337
I1
sS'query_time'
p338
F0.719836950302124
sS'comp_time'
p339
F0.012704849243164062
sS'exec_cq'
p340
I2
sS'total_cq'
p341
I2
sasS'total_cqs'
p342
I2
ssI31
(dp343
S'iters'
p344
I0
sS'meta'
p345
(lp346
sS'total_cqs'
p347
I1
ssI32
(dp348
S'iters'
p349
I1
sS'meta'
p350
(lp351
(dp352
S'objective'
p353
I1
sS'query_time'
p354
F0.024819135665893555
sS'comp_time'
p355
F0.01289510726928711
sS'exec_cq'
p356
I2
sS'total_cq'
p357
I2
sasS'total_cqs'
p358
I2
ssI33
(dp359
S'iters'
p360
I5
sS'meta'
p361
(lp362
(dp363
S'objective'
p364
I3730
sS'query_time'
p365
F16.69719099998474
sS'comp_time'
p366
F0.9158918857574463
sS'exec_cq'
p367
I103
sS'total_cq'
p368
I103
sa(dp369
g364
I1
sg365
F0.009630918502807617
sg366
F0.03535199165344238
sg367
I16
sg368
I16
sa(dp370
g364
I29
sg365
F0.0035729408264160156
sg366
F0.01137399673461914
sg367
I7
sg368
I7
sa(dp371
g364
I38
sg365
F0.0005540847778320312
sg366
F0.0007729530334472656
sg367
I3
sg368
I3
sa(dp372
g364
I30
sg365
F0.0001361370086669922
sg366
F0.00032591819763183594
sg367
I2
sg368
I2
sasS'total_cqs'
p373
I103
ssI34
(dp374
S'iters'
p375
I1
sS'meta'
p376
(lp377
(dp378
S'objective'
p379
I1
sS'query_time'
p380
F0.014019012451171875
sS'comp_time'
p381
F0.0011398792266845703
sS'exec_cq'
p382
I2
sS'total_cq'
p383
I2
sasS'total_cqs'
p384
I2
ssI35
(dp385
S'iters'
p386
I5
sS'meta'
p387
(lp388
(dp389
S'objective'
p390
I1273
sS'query_time'
p391
F69.92808413505554
sS'comp_time'
p392
F2.406959295272827
sS'exec_cq'
p393
I70
sS'total_cq'
p394
I70
sa(dp395
g390
I102
sg391
F0.004756927490234375
sg392
F0.015252351760864258
sg393
I16
sg394
I16
sa(dp396
g390
I10
sg391
F0.001600027084350586
sg392
F0.002912282943725586
sg393
I11
sg394
I11
sa(dp397
g390
I26
sg391
F0.0001399517059326172
sg392
F0.0006220340728759766
sg393
I4
sg394
I4
sa(dp398
g390
I9
sg391
F0.0002040863037109375
sg392
F0.0002503395080566406
sg393
I2
sg394
I2
sasS'total_cqs'
p399
I70
ssI36
(dp400
S'iters'
p401
I3
sS'meta'
p402
(lp403
(dp404
S'objective'
p405
I425
sS'query_time'
p406
F0.7339541912078857
sS'comp_time'
p407
F0.1687164306640625
sS'exec_cq'
p408
I33
sS'total_cq'
p409
I33
sa(dp410
g405
I381
sg406
F0.0032651424407958984
sg407
F0.0058171749114990234
sg408
I29
sg409
I29
sa(dp411
g405
I385
sg406
F0.002285003662109375
sg407
F0.0037648677825927734
sg408
I25
sg409
I25
sasS'total_cqs'
p412
I33
ssI37
(dp413
S'iters'
p414
I1
sS'meta'
p415
(lp416
(dp417
S'objective'
p418
I1
sS'query_time'
p419
F0.009446144104003906
sS'comp_time'
p420
F0.005042076110839844
sS'exec_cq'
p421
I2
sS'total_cq'
p422
I2
sasS'total_cqs'
p423
I2
ssI38
(dp424
S'iters'
p425
I2
sS'meta'
p426
(lp427
(dp428
S'objective'
p429
I0
sS'query_time'
p430
F0.034188032150268555
sS'comp_time'
p431
F0.0041751861572265625
sS'exec_cq'
p432
I4
sS'total_cq'
p433
I4
sa(dp434
g429
I3
sg430
F0.0001499652862548828
sg431
F0.000186920166015625
sg432
I2
sg433
I2
sasS'total_cqs'
p435
I4
ssI39
(dp436
S'iters'
p437
I2
sS'meta'
p438
(lp439
(dp440
S'objective'
p441
I730
sS'query_time'
p442
F0.14432001113891602
sS'comp_time'
p443
F0.14693307876586914
sS'exec_cq'
p444
I44
sS'total_cq'
p445
I44
sa(dp446
g441
I792
sg442
F0.0003979206085205078
sg443
F0.0009260177612304688
sg444
I37
sg445
I37
sasS'total_cqs'
p447
I44
ssI40
(dp448
S'iters'
p449
I1
sS'meta'
p450
(lp451
(dp452
S'objective'
p453
I14
sS'query_time'
p454
F0.02982807159423828
sS'comp_time'
p455
F0.005826473236083984
sS'exec_cq'
p456
I7
sS'total_cq'
p457
I7
sasS'total_cqs'
p458
I7
ssI41
(dp459
S'iters'
p460
I1
sS'meta'
p461
(lp462
(dp463
S'objective'
p464
I58
sS'query_time'
p465
F0.09138703346252441
sS'comp_time'
p466
F0.016641616821289062
sS'exec_cq'
p467
I12
sS'total_cq'
p468
I12
sasS'total_cqs'
p469
I12
ssI42
(dp470
S'iters'
p471
I2
sS'meta'
p472
(lp473
(dp474
S'objective'
p475
I779
sS'query_time'
p476
F0.1009666919708252
sS'comp_time'
p477
F0.06997394561767578
sS'exec_cq'
p478
I41
sS'total_cq'
p479
I41
sa(dp480
g475
I756
sg476
F0.00020694732666015625
sg477
F0.00026679039001464844
sg478
I40
sg479
I40
sasS'total_cqs'
p481
I41
ssI43
(dp482
S'iters'
p483
I1
sS'meta'
p484
(lp485
(dp486
S'objective'
p487
I14
sS'query_time'
p488
F0.03458213806152344
sS'comp_time'
p489
F0.0057909488677978516
sS'exec_cq'
p490
I7
sS'total_cq'
p491
I7
sasS'total_cqs'
p492
I7
ssI44
(dp493
S'iters'
p494
I4
sS'meta'
p495
(lp496
(dp497
S'objective'
p498
I754
sS'query_time'
p499
F0.14299798011779785
sS'comp_time'
p500
F0.16434788703918457
sS'exec_cq'
p501
I47
sS'total_cq'
p502
I47
sa(dp503
g498
I807
sg499
F0.0002651214599609375
sg500
F0.0009329319000244141
sg501
I40
sg502
I40
sa(dp504
g498
I13
sg499
F0.0013461112976074219
sg500
F0.0013988018035888672
sg501
I3
sg502
I3
sa(dp505
g498
I34
sg499
F2.3126602172851562e-05
sg500
F9.322166442871094e-05
sg501
I2
sg502
I2
sasS'total_cqs'
p506
I47
ssI45
(dp507
S'iters'
p508
I0
sS'meta'
p509
(lp510
sS'total_cqs'
p511
I1
ssI46
(dp512
S'iters'
p513
I1
sS'meta'
p514
(lp515
(dp516
S'objective'
p517
I9
sS'query_time'
p518
F0.018632173538208008
sS'comp_time'
p519
F0.002618074417114258
sS'exec_cq'
p520
I6
sS'total_cq'
p521
I6
sasS'total_cqs'
p522
I6
ssI47
(dp523
S'iters'
p524
I1
sS'meta'
p525
(lp526
(dp527
S'objective'
p528
I1
sS'query_time'
p529
F0.009458065032958984
sS'comp_time'
p530
F0.0010037422180175781
sS'exec_cq'
p531
I2
sS'total_cq'
p532
I2
sasS'total_cqs'
p533
I2
ssI48
(dp534
S'iters'
p535
I0
sS'meta'
p536
(lp537
sS'total_cqs'
p538
I1
ssI49
(dp539
S'iters'
p540
I0
sS'meta'
p541
(lp542
sS'total_cqs'
p543
I1
ssI50
(dp544
S'iters'
p545
I1
sS'meta'
p546
(lp547
(dp548
S'objective'
p549
I5
sS'query_time'
p550
F0.013550043106079102
sS'comp_time'
p551
F0.0023283958435058594
sS'exec_cq'
p552
I5
sS'total_cq'
p553
I5
sasS'total_cqs'
p554
I5
ssI51
(dp555
S'iters'
p556
I1
sS'meta'
p557
(lp558
(dp559
S'objective'
p560
I1
sS'query_time'
p561
F0.01368403434753418
sS'comp_time'
p562
F0.0014798641204833984
sS'exec_cq'
p563
I2
sS'total_cq'
p564
I2
sasS'total_cqs'
p565
I2
ssI52
(dp566
S'iters'
p567
I1
sS'meta'
p568
(lp569
(dp570
S'objective'
p571
I1
sS'query_time'
p572
F0.012351036071777344
sS'comp_time'
p573
F0.0011532306671142578
sS'exec_cq'
p574
I2
sS'total_cq'
p575
I2
sasS'total_cqs'
p576
I2
ssI53
(dp577
S'iters'
p578
I1
sS'meta'
p579
(lp580
(dp581
S'objective'
p582
I2
sS'query_time'
p583
F0.03284883499145508
sS'comp_time'
p584
F0.002597808837890625
sS'exec_cq'
p585
I4
sS'total_cq'
p586
I4
sasS'total_cqs'
p587
I4
ssI54
(dp588
S'iters'
p589
I2
sS'meta'
p590
(lp591
(dp592
S'objective'
p593
I0
sS'query_time'
p594
F0.011391162872314453
sS'comp_time'
p595
F0.001474142074584961
sS'exec_cq'
p596
I3
sS'total_cq'
p597
I3
sa(dp598
g593
I1
sg594
F3.886222839355469e-05
sg595
F0.00012803077697753906
sg596
I2
sg597
I2
sasS'total_cqs'
p599
I3
ssI55
(dp600
S'iters'
p601
I4
sS'meta'
p602
(lp603
(dp604
S'objective'
p605
I4975
sS'query_time'
p606
F2.5329670906066895
sS'comp_time'
p607
F0.6901953220367432
sS'exec_cq'
p608
I109
sS'total_cq'
p609
I109
sa(dp610
g605
I4
sg606
F0.010951042175292969
sg607
F0.15236854553222656
sg608
I10
sg609
I10
sa(dp611
g605
I3
sg606
F0.004465818405151367
sg607
F0.00747990608215332
sg608
I5
sg609
I5
sa(dp612
g605
I38
sg606
F0.0010349750518798828
sg607
F0.0020580291748046875
sg608
I3
sg609
I3
sasS'total_cqs'
p613
I109
ssI56
(dp614
S'iters'
p615
I5
sS'meta'
p616
(lp617
(dp618
S'objective'
p619
I1628
sS'query_time'
p620
F1.7165071964263916
sS'comp_time'
p621
F0.26326608657836914
sS'exec_cq'
p622
I67
sS'total_cq'
p623
I76
sa(dp624
g619
I1
sg620
F0.006864070892333984
sg621
F0.0639495849609375
sg622
I16
sg623
I16
sa(dp625
g619
I11
sg620
F0.0036640167236328125
sg621
F0.010533809661865234
sg622
I9
sg623
I9
sa(dp626
g619
I5
sg620
F0.0004482269287109375
sg621
F0.001190185546875
sg622
I4
sg623
I4
sa(dp627
g619
I35
sg620
F0.0001919269561767578
sg621
F0.0004494190216064453
sg622
I2
sg623
I2
sasS'total_cqs'
p628
I76
ssI57
(dp629
S'iters'
p630
I5
sS'meta'
p631
(lp632
(dp633
S'objective'
p634
I40
sS'query_time'
p635
F25.508919954299927
sS'comp_time'
p636
F0.15763115882873535
sS'exec_cq'
p637
I45
sS'total_cq'
p638
I51
sa(dp639
g634
I23
sg635
F0.016571998596191406
sg636
F0.043636322021484375
sg637
I27
sg638
I27
sa(dp640
g634
I11
sg635
F0.0025920867919921875
sg636
F0.00411224365234375
sg637
I13
sg638
I13
sa(dp641
g634
I2
sg635
F0.0014908313751220703
sg636
F0.003008604049682617
sg637
I6
sg638
I6
sa(dp642
g634
I7
sg635
F0.00021600723266601562
sg636
F0.00047969818115234375
sg637
I3
sg638
I3
sasS'total_cqs'
p643
I51
ssI58
(dp644
S'iters'
p645
I6
sS'meta'
p646
(lp647
(dp648
S'objective'
p649
I83977
sS'query_time'
p650
F323.4995481967926
sS'comp_time'
p651
F24.139198780059814
sS'exec_cq'
p652
I486
sS'total_cq'
p653
I486
sa(dp654
g649
I86061
sg650
F5.5467369556427
sg651
F9.390101909637451
sg652
I414
sg653
I414
sa(dp655
g649
I91
sg650
F0.01587510108947754
sg651
F0.18614435195922852
sg652
I28
sg653
I28
sa(dp656
g649
I9
sg650
F0.012306928634643555
sg651
F1.254960536956787
sg652
I15
sg653
I15
sa(dp657
g649
I7
sg650
F0.007341861724853516
sg651
F0.009610652923583984
sg652
I7
sg653
I7
sa(dp658
g649
I206
sg650
F0.0025730133056640625
sg651
F0.004129886627197266
sg652
I3
sg653
I3
sasS'total_cqs'
p659
I486
ssI59
(dp660
S'iters'
p661
I2
sS'meta'
p662
(lp663
(dp664
S'objective'
p665
I6
sS'query_time'
p666
F0.04689502716064453
sS'comp_time'
p667
F0.006069660186767578
sS'exec_cq'
p668
I7
sS'total_cq'
p669
I7
sa(dp670
g665
I3
sg666
F0.0001609325408935547
sg667
F0.00035834312438964844
sg668
I2
sg669
I2
sasS'total_cqs'
p671
I7
ssI60
(dp672
S'iters'
p673
I1
sS'meta'
p674
(lp675
(dp676
S'objective'
p677
I5
sS'query_time'
p678
F0.018790006637573242
sS'comp_time'
p679
F0.0035543441772460938
sS'exec_cq'
p680
I4
sS'total_cq'
p681
I5
sasS'total_cqs'
p682
I5
ssI61
(dp683
S'iters'
p684
I0
sS'meta'
p685
(lp686
sS'total_cqs'
p687
I1
ssI62
(dp688
S'iters'
p689
I2
sS'meta'
p690
(lp691
(dp692
S'objective'
p693
I30
sS'query_time'
p694
F0.031977176666259766
sS'comp_time'
p695
F0.0171051025390625
sS'exec_cq'
p696
I12
sS'total_cq'
p697
I12
sa(dp698
g693
I34
sg694
F4.9114227294921875e-05
sg695
F0.0001590251922607422
sg696
I9
sg697
I9
sasS'total_cqs'
p699
I12
ssI63
(dp700
S'iters'
p701
I0
sS'meta'
p702
(lp703
sS'total_cqs'
p704
I1
ssI64
(dp705
S'iters'
p706
I3
sS'meta'
p707
(lp708
(dp709
S'objective'
p710
I30
sS'query_time'
p711
F0.11705303192138672
sS'comp_time'
p712
F0.01852107048034668
sS'exec_cq'
p713
I12
sS'total_cq'
p714
I12
sa(dp715
g710
I0
sg711
F0.0002009868621826172
sg712
F0.000982046127319336
sg713
I4
sg714
I4
sa(dp716
g710
I8
sg711
F6.198883056640625e-05
sg712
F0.00016641616821289062
sg713
I2
sg714
I2
sasS'total_cqs'
p717
I12
ssI65
(dp718
S'iters'
p719
I4
sS'meta'
p720
(lp721
(dp722
S'objective'
p723
I186
sS'query_time'
p724
F0.783419132232666
sS'comp_time'
p725
F0.286344051361084
sS'exec_cq'
p726
I27
sS'total_cq'
p727
I27
sa(dp728
g723
I4
sg724
F0.0013289451599121094
sg725
F0.002990245819091797
sg726
I7
sg727
I7
sa(dp729
g723
I2
sg724
F0.0005598068237304688
sg725
F0.0010840892791748047
sg726
I4
sg727
I4
sa(dp730
g723
I18
sg724
F0.00013685226440429688
sg725
F0.0002810955047607422
sg726
I2
sg727
I2
sasS'total_cqs'
p731
I27
ssI66
(dp732
S'iters'
p733
I0
sS'meta'
p734
(lp735
sS'total_cqs'
p736
I1
ssI67
(dp737
S'iters'
p738
I2
sS'meta'
p739
(lp740
(dp741
S'objective'
p742
I570
sS'query_time'
p743
F1.2069602012634277
sS'comp_time'
p744
F0.14953303337097168
sS'exec_cq'
p745
I35
sS'total_cq'
p746
I35
sa(dp747
g742
I26
sg743
F0.00109100341796875
sg744
F0.0025207996368408203
sg745
I2
sg746
I2
sasS'total_cqs'
p748
I35
ssI68
(dp749
S'iters'
p750
I0
sS'meta'
p751
(lp752
sS'total_cqs'
p753
I1
ssI69
(dp754
S'iters'
p755
I1
sS'meta'
p756
(lp757
(dp758
S'objective'
p759
I1246
sS'query_time'
p760
F0.18714499473571777
sS'comp_time'
p761
F0.19944238662719727
sS'exec_cq'
p762
I51
sS'total_cq'
p763
I51
sasS'total_cqs'
p764
I51
ssI70
(dp765
S'iters'
p766
I1
sS'meta'
p767
(lp768
(dp769
S'objective'
p770
I9
sS'query_time'
p771
F0.02016901969909668
sS'comp_time'
p772
F0.0032618045806884766
sS'exec_cq'
p773
I6
sS'total_cq'
p774
I6
sasS'total_cqs'
p775
I6
ssI71
(dp776
S'iters'
p777
I3
sS'meta'
p778
(lp779
(dp780
S'objective'
p781
I3377
sS'query_time'
p782
F0.3061330318450928
sS'comp_time'
p783
F0.33467984199523926
sS'exec_cq'
p784
I85
sS'total_cq'
p785
I85
sa(dp786
g781
I3268
sg782
F0.00041604042053222656
sg783
F0.0014443397521972656
sg784
I81
sg785
I81
sa(dp787
g781
I6
sg782
F0.0020101070404052734
sg783
F0.004055976867675781
sg784
I3
sg785
I3
sasS'total_cqs'
p788
I85
ssI72
(dp789
S'iters'
p790
I3
sS'meta'
p791
(lp792
(dp793
S'objective'
p794
I8
sS'query_time'
p795
F0.36165308952331543
sS'comp_time'
p796
F0.0773162841796875
sS'exec_cq'
p797
I8
sS'total_cq'
p798
I8
sa(dp799
g794
I6
sg795
F8.0108642578125e-05
sg796
F0.00016307830810546875
sg797
I4
sg798
I5
sa(dp800
g794
I0
sg795
F6.604194641113281e-05
sg796
F5.602836608886719e-05
sg797
I2
sg798
I3
sasS'total_cqs'
p801
I8
ssI73
(dp802
S'iters'
p803
I0
sS'meta'
p804
(lp805
sS'total_cqs'
p806
I1
ssI74
(dp807
S'iters'
p808
I0
sS'meta'
p809
(lp810
sS'total_cqs'
p811
I1
ssI75
(dp812
S'iters'
p813
I1
sS'meta'
p814
(lp815
(dp816
S'objective'
p817
I5
sS'query_time'
p818
F0.013312101364135742
sS'comp_time'
p819
F0.0020110607147216797
sS'exec_cq'
p820
I5
sS'total_cq'
p821
I5
sasS'total_cqs'
p822
I5
ssI76
(dp823
S'iters'
p824
I1
sS'meta'
p825
(lp826
(dp827
S'objective'
p828
I1
sS'query_time'
p829
F0.022579193115234375
sS'comp_time'
p830
F0.0015516281127929688
sS'exec_cq'
p831
I2
sS'total_cq'
p832
I2
sasS'total_cqs'
p833
I2
ssI77
(dp834
S'iters'
p835
I0
sS'meta'
p836
(lp837
sS'total_cqs'
p838
I1
ssI78
(dp839
S'iters'
p840
I0
sS'meta'
p841
(lp842
sS'total_cqs'
p843
I1
ssI103
(dp844
S'iters'
p845
I1
sS'meta'
p846
(lp847
(dp848
S'objective'
p849
I58
sS'query_time'
p850
F0.06522297859191895
sS'comp_time'
p851
F0.015330791473388672
sS'exec_cq'
p852
I12
sS'total_cq'
p853
I12
sasS'total_cqs'
p854
I12
ssI104
(dp855
S'iters'
p856
I2
sS'meta'
p857
(lp858
(dp859
S'objective'
p860
I2
sS'query_time'
p861
F1.5301179885864258
sS'comp_time'
p862
F0.10288572311401367
sS'exec_cq'
p863
I4
sS'total_cq'
p864
I4
sa(dp865
g860
I2
sg861
F0.02280902862548828
sg862
F0.14019465446472168
sg863
I2
sg864
I2
sasS'total_cqs'
p866
I4
ssI105
(dp867
S'iters'
p868
I0
sS'meta'
p869
(lp870
sS'total_cqs'
p871
I1
ssI106
(dp872
S'iters'
p873
I1
sS'meta'
p874
(lp875
(dp876
S'objective'
p877
I2
sS'query_time'
p878
F0.0165860652923584
sS'comp_time'
p879
F0.0017790794372558594
sS'exec_cq'
p880
I4
sS'total_cq'
p881
I4
sasS'total_cqs'
p882
I4
ssI107
(dp883
S'iters'
p884
I2
sS'meta'
p885
(lp886
(dp887
S'objective'
p888
I80
sS'query_time'
p889
F0.07328009605407715
sS'comp_time'
p890
F0.01953721046447754
sS'exec_cq'
p891
I16
sS'total_cq'
p892
I16
sa(dp893
g888
I2
sg889
F0.004992961883544922
sg890
F0.0004029273986816406
sg891
I3
sg892
I3
sasS'total_cqs'
p894
I16
ssI108
(dp895
S'iters'
p896
I0
sS'meta'
p897
(lp898
sS'total_cqs'
p899
I1
ss.