(dp0
I1
(dp1
S'iters'
p2
I1
sS'meta'
p3
(lp4
(dp5
S'objective'
p6
I54
sS'query_time'
p7
F0.016098976135253906
sS'comp_time'
p8
F7.367134094238281e-05
sS'exec_cq'
p9
I1
sS'total_cq'
p10
I12
sasS'total_cqs'
p11
I12
ssI2
(dp12
S'iters'
p13
I1
sS'meta'
p14
(lp15
(dp16
S'objective'
p17
I324
sS'query_time'
p18
F0.02228689193725586
sS'comp_time'
p19
F9.298324584960938e-05
sS'exec_cq'
p20
I1
sS'total_cq'
p21
I27
sasS'total_cqs'
p22
I27
ssI3
(dp23
S'iters'
p24
I1
sS'meta'
p25
(lp26
(dp27
S'objective'
p28
I860
sS'query_time'
p29
F0.013770103454589844
sS'comp_time'
p30
F0.00011277198791503906
sS'exec_cq'
p31
I1
sS'total_cq'
p32
I43
sasS'total_cqs'
p33
I43
ssI4
(dp34
S'iters'
p35
I1
sS'meta'
p36
(lp37
(dp38
S'objective'
p39
I44
sS'query_time'
p40
F2.962209939956665
sS'comp_time'
p41
F0.00021386146545410156
sS'exec_cq'
p42
I1
sS'total_cq'
p43
I11
sasS'total_cqs'
p44
I11
ssI5
(dp45
S'iters'
p46
I1
sS'meta'
p47
(lp48
(dp49
S'objective'
p50
I20
sS'query_time'
p51
F0.34820103645324707
sS'comp_time'
p52
F6.723403930664062e-05
sS'exec_cq'
p53
I1
sS'total_cq'
p54
I8
sasS'total_cqs'
p55
I8
ssI6
(dp56
S'iters'
p57
I1
sS'meta'
p58
(lp59
(dp60
S'objective'
p61
I135
sS'query_time'
p62
F0.5130279064178467
sS'comp_time'
p63
F9.989738464355469e-05
sS'exec_cq'
p64
I1
sS'total_cq'
p65
I18
sasS'total_cqs'
p66
I18
ssI7
(dp67
S'iters'
p68
I1
sS'meta'
p69
(lp70
(dp71
S'objective'
p72
I27
sS'query_time'
p73
F0.2383718490600586
sS'comp_time'
p74
F7.987022399902344e-05
sS'exec_cq'
p75
I1
sS'total_cq'
p76
I9
sasS'total_cqs'
p77
I9
ssI8
(dp78
S'iters'
p79
I2
sS'meta'
p80
(lp81
(dp82
S'objective'
p83
I296
sS'query_time'
p84
F0.02660083770751953
sS'comp_time'
p85
F0.0001049041748046875
sS'exec_cq'
p86
I1
sS'total_cq'
p87
I27
sa(dp88
g83
I13
sg84
F0.012320995330810547
sg85
F8.20159912109375e-05
sg86
I2
sg87
I2
sasS'total_cqs'
p89
I27
ssI9
(dp90
S'iters'
p91
I3
sS'meta'
p92
(lp93
(dp94
S'objective'
p95
I16
sS'query_time'
p96
F0.014514923095703125
sS'comp_time'
p97
F6.985664367675781e-05
sS'exec_cq'
p98
I1
sS'total_cq'
p99
I7
sa(dp100
g95
I6
sg96
F0.021332979202270508
sg97
F6.389617919921875e-05
sg98
I2
sg99
I5
sa(dp101
g95
I6
sg96
F0.002043008804321289
sg97
F5.125999450683594e-05
sg98
I2
sg99
I2
sasS'total_cqs'
p102
I7
ssI10
(dp103
S'iters'
p104
I2
sS'meta'
p105
(lp106
(dp107
S'objective'
p108
I642
sS'query_time'
p109
F0.04686403274536133
sS'comp_time'
p110
F0.00013184547424316406
sS'exec_cq'
p111
I1
sS'total_cq'
p112
I51
sa(dp113
g108
I240
sg109
F0.04345703125
sg110
F0.000102996826171875
sg111
I2
sg112
I12
sasS'total_cqs'
p114
I51
ssI11
(dp115
S'iters'
p116
I4
sS'meta'
p117
(lp118
(dp119
S'objective'
p120
I1478
sS'query_time'
p121
F0.12275886535644531
sS'comp_time'
p122
F0.0001499652862548828
sS'exec_cq'
p123
I1
sS'total_cq'
p124
I63
sa(dp125
g120
I7
sg121
F0.033843994140625
sg122
F9.489059448242188e-05
sg123
I2
sg124
I9
sa(dp126
g120
I48
sg121
F0.011686086654663086
sg122
F7.486343383789062e-05
sg123
I2
sg124
I6
sa(dp127
g120
I33
sg121
F0.007603883743286133
sg122
F7.915496826171875e-05
sg123
I2
sg124
I4
sasS'total_cqs'
p128
I63
ssI12
(dp129
S'iters'
p130
I3
sS'meta'
p131
(lp132
(dp133
S'objective'
p134
I901
sS'query_time'
p135
F0.0686640739440918
sS'comp_time'
p136
F0.00011610984802246094
sS'exec_cq'
p137
I1
sS'total_cq'
p138
I50
sa(dp139
g134
I49
sg135
F0.03994894027709961
sg136
F7.82012939453125e-05
sg137
I2
sg138
I8
sa(dp140
g134
I18
sg135
F0.0058820247650146484
sg136
F5.698204040527344e-05
sg137
I2
sg138
I4
sasS'total_cqs'
p141
I50
ssI13
(dp142
S'iters'
p143
I4
sS'meta'
p144
(lp145
(dp146
S'objective'
p147
I36
sS'query_time'
p148
F0.030395030975341797
sS'comp_time'
p149
F9.298324584960938e-05
sS'exec_cq'
p150
I1
sS'total_cq'
p151
I20
sa(dp152
g147
I7
sg148
F0.05559706687927246
sg149
F8.58306884765625e-05
sg150
I2
sg151
I11
sa(dp153
g147
I28
sg148
F0.015557050704956055
sg149
F8.392333984375e-05
sg150
I2
sg151
I6
sa(dp154
g147
I3
sg148
F0.006276845932006836
sg149
F7.390975952148438e-05
sg150
I2
sg151
I5
sasS'total_cqs'
p155
I20
ssI14
(dp156
S'iters'
p157
I2
sS'meta'
p158
(lp159
(dp160
S'objective'
p161
I15
sS'query_time'
p162
F0.3464031219482422
sS'comp_time'
p163
F6.771087646484375e-05
sS'exec_cq'
p164
I1
sS'total_cq'
p165
I9
sa(dp166
g161
I3
sg162
F0.00664210319519043
sg163
F5.793571472167969e-05
sg164
I1
sg165
I3
sasS'total_cqs'
p167
I9
ssI15
(dp168
S'iters'
p169
I2
sS'meta'
p170
(lp171
(dp172
S'objective'
p173
I24
sS'query_time'
p174
F0.04897785186767578
sS'comp_time'
p175
F8.0108642578125e-05
sS'exec_cq'
p176
I1
sS'total_cq'
p177
I11
sa(dp178
g173
I1
sg174
F0.001394033432006836
sg175
F4.7206878662109375e-05
sg176
I1
sg177
I2
sasS'total_cqs'
p179
I11
ssI16
(dp180
S'iters'
p181
I1
sS'meta'
p182
(lp183
(dp184
S'objective'
p185
I20
sS'query_time'
p186
F0.010339975357055664
sS'comp_time'
p187
F9.083747863769531e-05
sS'exec_cq'
p188
I1
sS'total_cq'
p189
I8
sasS'total_cqs'
p190
I8
ssI17
(dp191
S'iters'
p192
I3
sS'meta'
p193
(lp194
(dp195
S'objective'
p196
I10
sS'query_time'
p197
F0.027476072311401367
sS'comp_time'
p198
F7.581710815429688e-05
sS'exec_cq'
p199
I1
sS'total_cq'
p200
I11
sa(dp201
g196
I18
sg197
F0.004030942916870117
sg198
F5.7697296142578125e-05
sg199
I1
sg200
I4
sa(dp202
g196
I1
sg197
F0.0021839141845703125
sg198
F5.5789947509765625e-05
sg199
I1
sg200
I3
sasS'total_cqs'
p203
I11
ssI18
(dp204
S'iters'
p205
I1
sS'meta'
p206
(lp207
(dp208
S'objective'
p209
I44
sS'query_time'
p210
F0.016991138458251953
sS'comp_time'
p211
F8.7738037109375e-05
sS'exec_cq'
p212
I1
sS'total_cq'
p213
I11
sasS'total_cqs'
p214
I11
ssI19
(dp215
S'iters'
p216
I0
sS'meta'
p217
(lp218
sS'total_cqs'
p219
I1
ssI20
(dp220
S'iters'
p221
I0
sS'meta'
p222
(lp223
sS'total_cqs'
p224
I1
ssI21
(dp225
S'iters'
p226
I0
sS'meta'
p227
(lp228
sS'total_cqs'
p229
I1
ssI22
(dp230
S'iters'
p231
I1
sS'meta'
p232
(lp233
(dp234
S'objective'
p235
I135
sS'query_time'
p236
F0.020678997039794922
sS'comp_time'
p237
F8.893013000488281e-05
sS'exec_cq'
p238
I1
sS'total_cq'
p239
I18
sasS'total_cqs'
p240
I18
ssI23
(dp241
S'iters'
p242
I1
sS'meta'
p243
(lp244
(dp245
S'objective'
p246
I104
sS'query_time'
p247
F0.013700008392333984
sS'comp_time'
p248
F7.987022399902344e-05
sS'exec_cq'
p249
I1
sS'total_cq'
p250
I16
sasS'total_cqs'
p251
I16
ssI24
(dp252
S'iters'
p253
I0
sS'meta'
p254
(lp255
sS'total_cqs'
p256
I1
ssI25
(dp257
S'iters'
p258
I0
sS'meta'
p259
(lp260
sS'total_cqs'
p261
I1
ssI26
(dp262
S'iters'
p263
I1
sS'meta'
p264
(lp265
(dp266
S'objective'
p267
I819
sS'query_time'
p268
F0.0464169979095459
sS'comp_time'
p269
F0.00010800361633300781
sS'exec_cq'
p270
I1
sS'total_cq'
p271
I42
sasS'total_cqs'
p272
I42
ssI27
(dp273
S'iters'
p274
I2
sS'meta'
p275
(lp276
(dp277
S'objective'
p278
I359
sS'query_time'
p279
F2.613403081893921
sS'comp_time'
p280
F0.00011706352233886719
sS'exec_cq'
p281
I1
sS'total_cq'
p282
I30
sa(dp283
g278
I7
sg279
F1215.5517799854279
sg280
F0.0003948211669921875
sg281
I2
sg282
I2
sasS'total_cqs'
p284
I30
ssI28
(dp285
S'iters'
p286
I0
sS'meta'
p287
(lp288
sS'total_cqs'
p289
I1
ssI29
(dp290
S'iters'
p291
I1
sS'meta'
p292
(lp293
(dp294
S'objective'
p295
I1127
sS'query_time'
p296
F0.3746769428253174
sS'comp_time'
p297
F0.00010919570922851562
sS'exec_cq'
p298
I1
sS'total_cq'
p299
I49
sasS'total_cqs'
p300
I49
ssI30
(dp301
S'iters'
p302
I1
sS'meta'
p303
(lp304
(dp305
S'objective'
p306
I1
sS'query_time'
p307
F0.5752298831939697
sS'comp_time'
p308
F7.414817810058594e-05
sS'exec_cq'
p309
I1
sS'total_cq'
p310
I2
sasS'total_cqs'
p311
I2
ssI31
(dp312
S'iters'
p313
I0
sS'meta'
p314
(lp315
sS'total_cqs'
p316
I1
ssI32
(dp317
S'iters'
p318
I1
sS'meta'
p319
(lp320
(dp321
S'objective'
p322
I1
sS'query_time'
p323
F0.007740974426269531
sS'comp_time'
p324
F7.486343383789062e-05
sS'exec_cq'
p325
I1
sS'total_cq'
p326
I2
sasS'total_cqs'
p327
I2
ssI33
(dp328
S'iters'
p329
I2
sS'meta'
p330
(lp331
(dp332
S'objective'
p333
I4968
sS'query_time'
p334
F0.6334030628204346
sS'comp_time'
p335
F0.0001900196075439453
sS'exec_cq'
p336
I1
sS'total_cq'
p337
I103
sa(dp338
g333
I12
sg334
F0.02054286003112793
sg335
F0.00013899803161621094
sg336
I1
sg337
I2
sasS'total_cqs'
p339
I103
ssI34
(dp340
S'iters'
p341
I1
sS'meta'
p342
(lp343
(dp344
S'objective'
p345
I1
sS'query_time'
p346
F0.011863946914672852
sS'comp_time'
p347
F6.175041198730469e-05
sS'exec_cq'
p348
I1
sS'total_cq'
p349
I2
sasS'total_cqs'
p350
I2
ssI35
(dp351
S'iters'
p352
I2
sS'meta'
p353
(lp354
(dp355
S'objective'
p356
I2263
sS'query_time'
p357
F0.4133009910583496
sS'comp_time'
p358
F0.00015211105346679688
sS'exec_cq'
p359
I1
sS'total_cq'
p360
I70
sa(dp361
g356
I29
sg357
F0.0074269771575927734
sg358
F5.7697296142578125e-05
sg359
I1
sg360
I3
sasS'total_cqs'
p362
I70
ssI36
(dp363
S'iters'
p364
I1
sS'meta'
p365
(lp366
(dp367
S'objective'
p368
I495
sS'query_time'
p369
F0.14696192741394043
sS'comp_time'
p370
F8.678436279296875e-05
sS'exec_cq'
p371
I1
sS'total_cq'
p372
I33
sasS'total_cqs'
p373
I33
ssI37
(dp374
S'iters'
p375
I1
sS'meta'
p376
(lp377
(dp378
S'objective'
p379
I1
sS'query_time'
p380
F0.007276058197021484
sS'comp_time'
p381
F6.604194641113281e-05
sS'exec_cq'
p382
I1
sS'total_cq'
p383
I2
sasS'total_cqs'
p384
I2
ssI38
(dp385
S'iters'
p386
I1
sS'meta'
p387
(lp388
(dp389
S'objective'
p390
I2
sS'query_time'
p391
F0.013152837753295898
sS'comp_time'
p392
F6.508827209472656e-05
sS'exec_cq'
p393
I1
sS'total_cq'
p394
I4
sasS'total_cqs'
p395
I4
ssI39
(dp396
S'iters'
p397
I1
sS'meta'
p398
(lp399
(dp400
S'objective'
p401
I902
sS'query_time'
p402
F0.07581210136413574
sS'comp_time'
p403
F0.00011610984802246094
sS'exec_cq'
p404
I1
sS'total_cq'
p405
I44
sasS'total_cqs'
p406
I44
ssI40
(dp407
S'iters'
p408
I1
sS'meta'
p409
(lp410
(dp411
S'objective'
p412
I14
sS'query_time'
p413
F0.01355290412902832
sS'comp_time'
p414
F6.985664367675781e-05
sS'exec_cq'
p415
I1
sS'total_cq'
p416
I7
sasS'total_cqs'
p417
I7
ssI41
(dp418
S'iters'
p419
I1
sS'meta'
p420
(lp421
(dp422
S'objective'
p423
I54
sS'query_time'
p424
F0.01858997344970703
sS'comp_time'
p425
F8.0108642578125e-05
sS'exec_cq'
p426
I1
sS'total_cq'
p427
I12
sasS'total_cqs'
p428
I12
ssI42
(dp429
S'iters'
p430
I1
sS'meta'
p431
(lp432
(dp433
S'objective'
p434
I779
sS'query_time'
p435
F0.02776312828063965
sS'comp_time'
p436
F0.00011610984802246094
sS'exec_cq'
p437
I1
sS'total_cq'
p438
I41
sasS'total_cqs'
p439
I41
ssI43
(dp440
S'iters'
p441
I1
sS'meta'
p442
(lp443
(dp444
S'objective'
p445
I14
sS'query_time'
p446
F0.012617111206054688
sS'comp_time'
p447
F7.390975952148438e-05
sS'exec_cq'
p448
I1
sS'total_cq'
p449
I7
sasS'total_cqs'
p450
I7
ssI44
(dp451
S'iters'
p452
I2
sS'meta'
p453
(lp454
(dp455
S'objective'
p456
I948
sS'query_time'
p457
F0.05670499801635742
sS'comp_time'
p458
F0.00010824203491210938
sS'exec_cq'
p459
I1
sS'total_cq'
p460
I47
sa(dp461
g456
I4
sg457
F0.02398085594177246
sg458
F7.486343383789062e-05
sg459
I2
sg460
I2
sasS'total_cqs'
p462
I47
ssI45
(dp463
S'iters'
p464
I0
sS'meta'
p465
(lp466
sS'total_cqs'
p467
I1
ssI46
(dp468
S'iters'
p469
I1
sS'meta'
p470
(lp471
(dp472
S'objective'
p473
I9
sS'query_time'
p474
F0.006104946136474609
sS'comp_time'
p475
F9.298324584960938e-05
sS'exec_cq'
p476
I1
sS'total_cq'
p477
I6
sasS'total_cqs'
p478
I6
ssI47
(dp479
S'iters'
p480
I1
sS'meta'
p481
(lp482
(dp483
S'objective'
p484
I1
sS'query_time'
p485
F0.006635904312133789
sS'comp_time'
p486
F6.604194641113281e-05
sS'exec_cq'
p487
I1
sS'total_cq'
p488
I2
sasS'total_cqs'
p489
I2
ssI48
(dp490
S'iters'
p491
I0
sS'meta'
p492
(lp493
sS'total_cqs'
p494
I1
ssI49
(dp495
S'iters'
p496
I0
sS'meta'
p497
(lp498
sS'total_cqs'
p499
I1
ssI50
(dp500
S'iters'
p501
I1
sS'meta'
p502
(lp503
(dp504
S'objective'
p505
I5
sS'query_time'
p506
F0.005229949951171875
sS'comp_time'
p507
F5.412101745605469e-05
sS'exec_cq'
p508
I1
sS'total_cq'
p509
I5
sasS'total_cqs'
p510
I5
ssI51
(dp511
S'iters'
p512
I1
sS'meta'
p513
(lp514
(dp515
S'objective'
p516
I1
sS'query_time'
p517
F0.0058019161224365234
sS'comp_time'
p518
F6.079673767089844e-05
sS'exec_cq'
p519
I1
sS'total_cq'
p520
I2
sasS'total_cqs'
p521
I2
ssI52
(dp522
S'iters'
p523
I1
sS'meta'
p524
(lp525
(dp526
S'objective'
p527
I1
sS'query_time'
p528
F0.0057981014251708984
sS'comp_time'
p529
F6.103515625e-05
sS'exec_cq'
p530
I1
sS'total_cq'
p531
I2
sasS'total_cqs'
p532
I2
ssI53
(dp533
S'iters'
p534
I1
sS'meta'
p535
(lp536
(dp537
S'objective'
p538
I2
sS'query_time'
p539
F0.012955904006958008
sS'comp_time'
p540
F6.794929504394531e-05
sS'exec_cq'
p541
I1
sS'total_cq'
p542
I4
sasS'total_cqs'
p543
I4
ssI54
(dp544
S'iters'
p545
I1
sS'meta'
p546
(lp547
(dp548
S'objective'
p549
I0
sS'query_time'
p550
F0.0071909427642822266
sS'comp_time'
p551
F6.103515625e-05
sS'exec_cq'
p552
I1
sS'total_cq'
p553
I3
sasS'total_cqs'
p554
I3
ssI55
(dp555
S'iters'
p556
I1
sS'meta'
p557
(lp558
(dp559
S'objective'
p560
I5777
sS'query_time'
p561
F0.16208100318908691
sS'comp_time'
p562
F0.00016188621520996094
sS'exec_cq'
p563
I1
sS'total_cq'
p564
I109
sasS'total_cqs'
p565
I109
ssI56
(dp566
S'iters'
p567
I1
sS'meta'
p568
(lp569
(dp570
S'objective'
p571
I2774
sS'query_time'
p572
F0.1669609546661377
sS'comp_time'
p573
F0.0001289844512939453
sS'exec_cq'
p574
I1
sS'total_cq'
p575
I76
sasS'total_cqs'
p576
I76
ssI57
(dp577
S'iters'
p578
I1
sS'meta'
p579
(lp580
(dp581
S'objective'
p582
I1224
sS'query_time'
p583
F0.3515291213989258
sS'comp_time'
p584
F0.00011920928955078125
sS'exec_cq'
p585
I1
sS'total_cq'
p586
I51
sasS'total_cqs'
p587
I51
ssI58
(dp588
S'iters'
p589
I3
sS'meta'
p590
(lp591
(dp592
S'objective'
p593
I113321
sS'query_time'
p594
F1.8586399555206299
sS'comp_time'
p595
F0.0003809928894042969
sS'exec_cq'
p596
I1
sS'total_cq'
p597
I486
sa(dp598
g593
I980
sg594
F0.08572602272033691
sg595
F7.62939453125e-05
sg596
I1
sg597
I8
sa(dp599
g593
I207
sg594
F0.07558202743530273
sg595
F7.510185241699219e-05
sg596
I1
sg597
I3
sasS'total_cqs'
p600
I486
ssI59
(dp601
S'iters'
p602
I2
sS'meta'
p603
(lp604
(dp605
S'objective'
p606
I6
sS'query_time'
p607
F0.020797014236450195
sS'comp_time'
p608
F7.796287536621094e-05
sS'exec_cq'
p609
I1
sS'total_cq'
p610
I7
sa(dp611
g606
I3
sg607
F0.043905019760131836
sg608
F8.58306884765625e-05
sg609
I2
sg610
I2
sasS'total_cqs'
p612
I7
ssI60
(dp613
S'iters'
p614
I1
sS'meta'
p615
(lp616
(dp617
S'objective'
p618
I5
sS'query_time'
p619
F0.005608081817626953
sS'comp_time'
p620
F7.486343383789062e-05
sS'exec_cq'
p621
I1
sS'total_cq'
p622
I5
sasS'total_cqs'
p623
I5
ssI61
(dp624
S'iters'
p625
I0
sS'meta'
p626
(lp627
sS'total_cqs'
p628
I1
ssI62
(dp629
S'iters'
p630
I1
sS'meta'
p631
(lp632
(dp633
S'objective'
p634
I54
sS'query_time'
p635
F0.011205911636352539
sS'comp_time'
p636
F7.104873657226562e-05
sS'exec_cq'
p637
I1
sS'total_cq'
p638
I12
sasS'total_cqs'
p639
I12
ssI63
(dp640
S'iters'
p641
I0
sS'meta'
p642
(lp643
sS'total_cqs'
p644
I1
ssI64
(dp645
S'iters'
p646
I3
sS'meta'
p647
(lp648
(dp649
S'objective'
p650
I30
sS'query_time'
p651
F0.03963518142700195
sS'comp_time'
p652
F9.298324584960938e-05
sS'exec_cq'
p653
I1
sS'total_cq'
p654
I12
sa(dp655
g650
I2
sg651
F0.0027718544006347656
sg652
F5.412101745605469e-05
sg653
I1
sg654
I3
sa(dp656
g650
I11
sg651
F0.009042024612426758
sg652
F6.29425048828125e-05
sg653
I1
sg654
I2
sasS'total_cqs'
p657
I12
ssI65
(dp658
S'iters'
p659
I1
sS'meta'
p660
(lp661
(dp662
S'objective'
p663
I324
sS'query_time'
p664
F0.027155160903930664
sS'comp_time'
p665
F9.417533874511719e-05
sS'exec_cq'
p666
I1
sS'total_cq'
p667
I27
sasS'total_cqs'
p668
I27
ssI66
(dp669
S'iters'
p670
I0
sS'meta'
p671
(lp672
sS'total_cqs'
p673
I1
ssI67
(dp674
S'iters'
p675
I1
sS'meta'
p676
(lp677
(dp678
S'objective'
p679
I560
sS'query_time'
p680
F0.5126290321350098
sS'comp_time'
p681
F0.00011491775512695312
sS'exec_cq'
p682
I1
sS'total_cq'
p683
I35
sasS'total_cqs'
p684
I35
ssI68
(dp685
S'iters'
p686
I0
sS'meta'
p687
(lp688
sS'total_cqs'
p689
I1
ssI69
(dp690
S'iters'
p691
I1
sS'meta'
p692
(lp693
(dp694
S'objective'
p695
I1224
sS'query_time'
p696
F0.08896803855895996
sS'comp_time'
p697
F0.0001239776611328125
sS'exec_cq'
p698
I1
sS'total_cq'
p699
I51
sasS'total_cqs'
p700
I51
ssI70
(dp701
S'iters'
p702
I1
sS'meta'
p703
(lp704
(dp705
S'objective'
p706
I9
sS'query_time'
p707
F0.00906515121459961
sS'comp_time'
p708
F6.794929504394531e-05
sS'exec_cq'
p709
I1
sS'total_cq'
p710
I6
sasS'total_cqs'
p711
I6
ssI71
(dp712
S'iters'
p713
I1
sS'meta'
p714
(lp715
(dp716
S'objective'
p717
I3485
sS'query_time'
p718
F0.07492589950561523
sS'comp_time'
p719
F0.00014710426330566406
sS'exec_cq'
p720
I1
sS'total_cq'
p721
I85
sasS'total_cqs'
p722
I85
ssI72
(dp723
S'iters'
p724
I1
sS'meta'
p725
(lp726
(dp727
S'objective'
p728
I20
sS'query_time'
p729
F0.02086019515991211
sS'comp_time'
p730
F6.818771362304688e-05
sS'exec_cq'
p731
I1
sS'total_cq'
p732
I8
sasS'total_cqs'
p733
I8
ssI73
(dp734
S'iters'
p735
I0
sS'meta'
p736
(lp737
sS'total_cqs'
p738
I1
ssI74
(dp739
S'iters'
p740
I0
sS'meta'
p741
(lp742
sS'total_cqs'
p743
I1
ssI75
(dp744
S'iters'
p745
I1
sS'meta'
p746
(lp747
(dp748
S'objective'
p749
I5
sS'query_time'
p750
F0.004790067672729492
sS'comp_time'
p751
F6.103515625e-05
sS'exec_cq'
p752
I1
sS'total_cq'
p753
I5
sasS'total_cqs'
p754
I5
ssI76
(dp755
S'iters'
p756
I1
sS'meta'
p757
(lp758
(dp759
S'objective'
p760
I1
sS'query_time'
p761
F0.008830070495605469
sS'comp_time'
p762
F6.079673767089844e-05
sS'exec_cq'
p763
I1
sS'total_cq'
p764
I2
sasS'total_cqs'
p765
I2
ssI77
(dp766
S'iters'
p767
I0
sS'meta'
p768
(lp769
sS'total_cqs'
p770
I1
ssI78
(dp771
S'iters'
p772
I0
sS'meta'
p773
(lp774
sS'total_cqs'
p775
I1
ssI103
(dp776
S'iters'
p777
I1
sS'meta'
p778
(lp779
(dp780
S'objective'
p781
I54
sS'query_time'
p782
F0.02827620506286621
sS'comp_time'
p783
F9.799003601074219e-05
sS'exec_cq'
p784
I1
sS'total_cq'
p785
I12
sasS'total_cqs'
p786
I12
ssI104
(dp787
S'iters'
p788
I1
sS'meta'
p789
(lp790
(dp791
S'objective'
p792
I2
sS'query_time'
p793
F1.1193368434906006
sS'comp_time'
p794
F9.179115295410156e-05
sS'exec_cq'
p795
I1
sS'total_cq'
p796
I4
sasS'total_cqs'
p797
I4
ssI105
(dp798
S'iters'
p799
I0
sS'meta'
p800
(lp801
sS'total_cqs'
p802
I1
ssI106
(dp803
S'iters'
p804
I1
sS'meta'
p805
(lp806
(dp807
S'objective'
p808
I2
sS'query_time'
p809
F0.01133108139038086
sS'comp_time'
p810
F6.794929504394531e-05
sS'exec_cq'
p811
I1
sS'total_cq'
p812
I4
sasS'total_cqs'
p813
I4
ssI107
(dp814
S'iters'
p815
I1
sS'meta'
p816
(lp817
(dp818
S'objective'
p819
I104
sS'query_time'
p820
F0.04462599754333496
sS'comp_time'
p821
F8.988380432128906e-05
sS'exec_cq'
p822
I1
sS'total_cq'
p823
I16
sasS'total_cqs'
p824
I16
ssI108
(dp825
S'iters'
p826
I0
sS'meta'
p827
(lp828
sS'total_cqs'
p829
I1
ss.