(dp0
I1
(dp1
S'iters'
p2
I2
sS'meta'
p3
(lp4
(dp5
S'objective'
p6
I46
sS'query_time'
p7
F0.24642086029052734
sS'comp_time'
p8
F0.0002677440643310547
sS'exec_cq'
p9
I12
sS'total_cq'
p10
I12
sa(dp11
g6
I38
sg7
F5.412101745605469e-05
sg8
F8.20159912109375e-05
sg9
I10
sg10
I10
sasS'total_cqs'
p12
I12
ssI2
(dp13
S'iters'
p14
I4
sS'meta'
p15
(lp16
(dp17
S'objective'
p18
I264
sS'query_time'
p19
F0.7056000232696533
sS'comp_time'
p20
F0.001363992691040039
sS'exec_cq'
p21
I27
sS'total_cq'
p22
I27
sa(dp23
g18
I221
sg19
F0.0001990795135498047
sg20
F0.0006070137023925781
sg21
I24
sg22
I24
sa(dp24
g18
I187
sg19
F0.00010514259338378906
sg20
F0.000308990478515625
sg21
I21
sg22
I21
sa(dp25
g18
I175
sg19
F0.00010609626770019531
sg20
F0.0002810955047607422
sg21
I19
sg22
I19
sasS'total_cqs'
p26
I27
ssI3
(dp27
S'iters'
p28
I3
sS'meta'
p29
(lp30
(dp31
S'objective'
p32
I162
sS'query_time'
p33
F181.77140188217163
sS'comp_time'
p34
F1.5388686656951904
sS'exec_cq'
p35
I43
sS'total_cq'
p36
I43
sa(dp37
g32
I58
sg33
F0.3346431255340576
sg34
F1.3049588203430176
sg35
I27
sg36
I27
sa(dp38
g32
I220
sg33
F0.04747605323791504
sg34
F0.34911108016967773
sg35
I13
sg36
I13
sasS'total_cqs'
p39
I43
ssI4
(dp40
S'iters'
p41
I2
sS'meta'
p42
(lp43
(dp44
S'objective'
p45
I34
sS'query_time'
p46
F5.106716871261597
sS'comp_time'
p47
F0.36186718940734863
sS'exec_cq'
p48
I11
sS'total_cq'
p49
I11
sa(dp50
g45
I6
sg46
F0.10176682472229004
sg47
F0.3646719455718994
sg48
I2
sg49
I2
sasS'total_cqs'
p51
I11
ssI5
(dp52
S'iters'
p53
I1
sS'meta'
p54
(lp55
(dp56
S'objective'
p57
I20
sS'query_time'
p58
F21.115008115768433
sS'comp_time'
p59
F0.04379701614379883
sS'exec_cq'
p60
I8
sS'total_cq'
p61
I8
sasS'total_cqs'
p62
I8
ssI6
(dp63
S'iters'
p64
I3
sS'meta'
p65
(lp66
(dp67
S'objective'
p68
I91
sS'query_time'
p69
F21.40754508972168
sS'comp_time'
p70
F0.053930044174194336
sS'exec_cq'
p71
I18
sS'total_cq'
p72
I18
sa(dp73
g68
I10
sg69
F0.005166053771972656
sg70
F0.05351996421813965
sg71
I3
sg72
I3
sa(dp74
g68
I11
sg69
F0.006114959716796875
sg70
F0.03253483772277832
sg71
I2
sg72
I2
sasS'total_cqs'
p75
I18
ssI7
(dp76
S'iters'
p77
I3
sS'meta'
p78
(lp79
(dp80
S'objective'
p81
I1
sS'query_time'
p82
F29.058717966079712
sS'comp_time'
p83
F0.8938109874725342
sS'exec_cq'
p84
I9
sS'total_cq'
p85
I9
sa(dp86
g81
I1
sg82
F0.018944978713989258
sg83
F0.15154504776000977
sg84
I5
sg85
I5
sa(dp87
g81
I6
sg82
F0.002908945083618164
sg83
F0.014114856719970703
sg84
I3
sg85
I3
sasS'total_cqs'
p88
I9
ssI8
(dp89
S'iters'
p90
I3
sS'meta'
p91
(lp92
(dp93
S'objective'
p94
I216
sS'query_time'
p95
F0.705272912979126
sS'comp_time'
p96
F0.0013201236724853516
sS'exec_cq'
p97
I27
sS'total_cq'
p98
I27
sa(dp99
g94
I197
sg95
F0.0001308917999267578
sg96
F0.0003349781036376953
sg97
I22
sg98
I22
sa(dp100
g94
I4
sg95
F0.006324052810668945
sg96
F0.0002048015594482422
sg97
I2
sg98
I2
sasS'total_cqs'
p101
I27
ssI9
(dp102
S'iters'
p103
I3
sS'meta'
p104
(lp105
(dp106
S'objective'
p107
I2
sS'query_time'
p108
F0.6036498546600342
sS'comp_time'
p109
F0.00030994415283203125
sS'exec_cq'
p110
I7
sS'total_cq'
p111
I7
sa(dp112
g107
I3
sg108
F3.3855438232421875e-05
sg109
F5.5789947509765625e-05
sg110
I4
sg111
I4
sa(dp113
g107
I5
sg108
F1.5020370483398438e-05
sg109
F7.796287536621094e-05
sg110
I2
sg111
I2
sasS'total_cqs'
p114
I7
ssI10
(dp115
S'iters'
p116
I5
sS'meta'
p117
(lp118
(dp119
S'objective'
p120
I436
sS'query_time'
p121
F1.5408909320831299
sS'comp_time'
p122
F0.009652853012084961
sS'exec_cq'
p123
I51
sS'total_cq'
p124
I51
sa(dp125
g120
I185
sg121
F0.0006618499755859375
sg122
F0.0021278858184814453
sg123
I37
sg124
I37
sa(dp126
g120
I6
sg121
F0.010044097900390625
sg122
F0.0005788803100585938
sg123
I12
sg124
I12
sa(dp127
g120
I1
sg121
F7.009506225585938e-05
sg122
F0.0002789497375488281
sg123
I6
sg124
I6
sa(dp128
g120
I13
sg121
F3.0040740966796875e-05
sg122
F0.00011086463928222656
sg123
I3
sg124
I3
sasS'total_cqs'
p129
I51
ssI11
(dp130
S'iters'
p131
I4
sS'meta'
p132
(lp133
(dp134
S'objective'
p135
I842
sS'query_time'
p136
F1.6077730655670166
sS'comp_time'
p137
F0.017271041870117188
sS'exec_cq'
p138
I63
sS'total_cq'
p139
I63
sa(dp140
g135
I707
sg136
F0.0012760162353515625
sg137
F0.005070924758911133
sg138
I47
sg139
I47
sa(dp141
g135
I3
sg136
F0.0025320053100585938
sg137
F0.0014531612396240234
sg138
I9
sg139
I9
sa(dp142
g135
I53
sg136
F3.790855407714844e-05
sg137
F0.00015115737915039062
sg138
I4
sg139
I4
sasS'total_cqs'
p143
I63
ssI12
(dp144
S'iters'
p145
I4
sS'meta'
p146
(lp147
(dp148
S'objective'
p149
I289
sS'query_time'
p150
F1.460909128189087
sS'comp_time'
p151
F0.008322000503540039
sS'exec_cq'
p152
I50
sS'total_cq'
p153
I50
sa(dp154
g149
I268
sg150
F0.0006270408630371094
sg151
F0.0024018287658691406
sg152
I33
sg153
I33
sa(dp155
g149
I15
sg150
F0.0021669864654541016
sg151
F0.0014879703521728516
sg152
I8
sg153
I8
sa(dp156
g149
I36
sg150
F4.100799560546875e-05
sg151
F0.00010323524475097656
sg152
I4
sg153
I4
sasS'total_cqs'
p157
I50
ssI13
(dp158
S'iters'
p159
I3
sS'meta'
p160
(lp161
(dp162
S'objective'
p163
I30
sS'query_time'
p164
F1.289017915725708
sS'comp_time'
p165
F0.0005593299865722656
sS'exec_cq'
p166
I20
sS'total_cq'
p167
I20
sa(dp168
g163
I24
sg164
F5.984306335449219e-05
sg165
F8.797645568847656e-05
sg166
I9
sg167
I9
sa(dp169
g163
I7
sg164
F0.009075164794921875
sg165
F0.0001461505889892578
sg166
I2
sg167
I2
sasS'total_cqs'
p170
I20
ssI14
(dp171
S'iters'
p172
I3
sS'meta'
p173
(lp174
(dp175
S'objective'
p176
I15
sS'query_time'
p177
F21.125406980514526
sS'comp_time'
p178
F0.05109095573425293
sS'exec_cq'
p179
I9
sS'total_cq'
p180
I9
sa(dp181
g176
I18
sg177
F0.0039031505584716797
sg178
F0.030342817306518555
sg179
I5
sg180
I5
sa(dp182
g176
I6
sg177
F0.017933130264282227
sg178
F0.029170989990234375
sg179
I4
sg180
I4
sasS'total_cqs'
p183
I9
ssI15
(dp184
S'iters'
p185
I3
sS'meta'
p186
(lp187
(dp188
S'objective'
p189
I2
sS'query_time'
p190
F10.784751892089844
sS'comp_time'
p191
F0.13387298583984375
sS'exec_cq'
p192
I11
sS'total_cq'
p193
I11
sa(dp194
g189
I0
sg190
F0.02888798713684082
sg191
F0.12312197685241699
sg192
I6
sg193
I6
sa(dp195
g189
I5
sg190
F0.00038909912109375
sg191
F0.00183868408203125
sg192
I2
sg193
I2
sasS'total_cqs'
p196
I11
ssI16
(dp197
S'iters'
p198
I1
sS'meta'
p199
(lp200
(dp201
S'objective'
p202
I20
sS'query_time'
p203
F0.13245606422424316
sS'comp_time'
p204
F0.00019097328186035156
sS'exec_cq'
p205
I8
sS'total_cq'
p206
I8
sasS'total_cqs'
p207
I8
ssI17
(dp208
S'iters'
p209
I3
sS'meta'
p210
(lp211
(dp212
S'objective'
p213
I0
sS'query_time'
p214
F3.3225347995758057
sS'comp_time'
p215
F0.018065929412841797
sS'exec_cq'
p216
I11
sS'total_cq'
p217
I11
sa(dp218
g213
I1
sg214
F0.0070629119873046875
sg215
F0.024271249771118164
sg216
I6
sg217
I6
sa(dp219
g213
I6
sg214
F0.000225067138671875
sg215
F0.0008192062377929688
sg216
I2
sg217
I2
sasS'total_cqs'
p220
I11
ssI18
(dp221
S'iters'
p222
I2
sS'meta'
p223
(lp224
(dp225
S'objective'
p226
I34
sS'query_time'
p227
F2.0183379650115967
sS'comp_time'
p228
F0.005998134613037109
sS'exec_cq'
p229
I11
sS'total_cq'
p230
I11
sa(dp231
g226
I28
sg227
F0.00026798248291015625
sg228
F0.0010976791381835938
sg229
I8
sg230
I8
sasS'total_cqs'
p232
I11
ssI19
(dp233
S'iters'
p234
I0
sS'meta'
p235
(lp236
sS'total_cqs'
p237
I1
ssI20
(dp238
S'iters'
p239
I0
sS'meta'
p240
(lp241
sS'total_cqs'
p242
I1
ssI21
(dp243
S'iters'
p244
I0
sS'meta'
p245
(lp246
sS'total_cqs'
p247
I1
ssI22
(dp248
S'iters'
p249
I1
sS'meta'
p250
(lp251
(dp252
S'objective'
p253
I135
sS'query_time'
p254
F0.23843097686767578
sS'comp_time'
p255
F0.0002231597900390625
sS'exec_cq'
p256
I18
sS'total_cq'
p257
I18
sasS'total_cqs'
p258
I18
ssI23
(dp259
S'iters'
p260
I1
sS'meta'
p261
(lp262
(dp263
S'objective'
p264
I104
sS'query_time'
p265
F0.3122520446777344
sS'comp_time'
p266
F0.0007610321044921875
sS'exec_cq'
p267
I16
sS'total_cq'
p268
I16
sasS'total_cqs'
p269
I16
ssI24
(dp270
S'iters'
p271
I0
sS'meta'
p272
(lp273
sS'total_cqs'
p274
I1
ssI25
(dp275
S'iters'
p276
I0
sS'meta'
p277
(lp278
sS'total_cqs'
p279
I1
ssI26
(dp280
S'iters'
p281
I1
sS'meta'
p282
(lp283
(dp284
S'objective'
p285
I819
sS'query_time'
p286
F0.5745279788970947
sS'comp_time'
p287
F0.0001850128173828125
sS'exec_cq'
p288
I42
sS'total_cq'
p289
I42
sasS'total_cqs'
p290
I42
ssI27
(dp291
S'iters'
p292
I5
sS'meta'
p293
(lp294
(dp295
S'objective'
p296
I395
sS'query_time'
p297
F21.949285984039307
sS'comp_time'
p298
F0.9847490787506104
sS'exec_cq'
p299
I30
sS'total_cq'
p300
I30
sa(dp301
g296
I400
sg297
F0.0016529560089111328
sg298
F0.7193560600280762
sg299
I28
sg300
I28
sa(dp302
g296
I389
sg297
F0.0008909702301025391
sg298
F0.5832822322845459
sg299
I27
sg300
I27
sa(dp303
g296
I336
sg297
F0.1963961124420166
sg298
F0.006009340286254883
sg299
I26
sg300
I26
sa(dp304
g296
I27
sg297
F0.6276991367340088
sg298
F0.2750072479248047
sg299
I2
sg300
I2
sasS'total_cqs'
p305
I30
ssI28
(dp306
S'iters'
p307
I0
sS'meta'
p308
(lp309
sS'total_cqs'
p310
I1
ssI29
(dp311
S'iters'
p312
I5
sS'meta'
p313
(lp314
(dp315
S'objective'
p316
I333
sS'query_time'
p317
F151.28502011299133
sS'comp_time'
p318
F14.77855110168457
sS'exec_cq'
p319
I49
sS'total_cq'
p320
I49
sa(dp321
g316
I18
sg317
F0.0204160213470459
sg318
F0.04550814628601074
sg319
I17
sg320
I17
sa(dp322
g316
I28
sg317
F0.0013859272003173828
sg318
F0.004937171936035156
sg319
I9
sg320
I9
sa(dp323
g316
I17
sg317
F0.0007369518280029297
sg318
F0.0038051605224609375
sg319
I5
sg320
I5
sa(dp324
g316
I29
sg317
F0.0005810260772705078
sg318
F0.002933025360107422
sg319
I3
sg320
I3
sasS'total_cqs'
p325
I49
ssI30
(dp326
S'iters'
p327
I1
sS'meta'
p328
(lp329
(dp330
S'objective'
p331
I1
sS'query_time'
p332
F2.124845027923584
sS'comp_time'
p333
F0.0238339900970459
sS'exec_cq'
p334
I2
sS'total_cq'
p335
I2
sasS'total_cqs'
p336
I2
ssI31
(dp337
S'iters'
p338
I0
sS'meta'
p339
(lp340
sS'total_cqs'
p341
I1
ssI32
(dp342
S'iters'
p343
I1
sS'meta'
p344
(lp345
(dp346
S'objective'
p347
I1
sS'query_time'
p348
F0.014021873474121094
sS'comp_time'
p349
F0.000286102294921875
sS'exec_cq'
p350
I2
sS'total_cq'
p351
I2
sasS'total_cqs'
p352
I2
ssI33
(dp353
S'iters'
p354
I1
sS'meta'
p355
(lp356
(dp357
S'objective'
p358
I5150
sS'query_time'
p359
F21.790820121765137
sS'comp_time'
p360
F1.4530510902404785
sS'exec_cq'
p361
I103
sS'total_cq'
p362
I103
sasS'total_cqs'
p363
I103
ssI34
(dp364
S'iters'
p365
I1
sS'meta'
p366
(lp367
(dp368
S'objective'
p369
I1
sS'query_time'
p370
F0.14565801620483398
sS'comp_time'
p371
F0.0006458759307861328
sS'exec_cq'
p372
I2
sS'total_cq'
p373
I2
sasS'total_cqs'
p374
I2
ssI35
(dp375
S'iters'
p376
I4
sS'meta'
p377
(lp378
(dp379
S'objective'
p380
I2357
sS'query_time'
p381
F20.45501708984375
sS'comp_time'
p382
F0.15514898300170898
sS'exec_cq'
p383
I70
sS'total_cq'
p384
I70
sa(dp385
g380
I2315
sg381
F0.00041794776916503906
sg382
F0.05759692192077637
sg383
I69
sg384
I69
sa(dp386
g380
I2128
sg381
F0.3866450786590576
sg382
F0.3051431179046631
sg383
I68
sg384
I68
sa(dp387
g380
I20
sg381
F0.016325712203979492
sg382
F0.010458946228027344
sg383
I2
sg384
I2
sasS'total_cqs'
p388
I70
ssI36
(dp389
S'iters'
p390
I3
sS'meta'
p391
(lp392
(dp393
S'objective'
p394
I383
sS'query_time'
p395
F3.1993370056152344
sS'comp_time'
p396
F0.02508401870727539
sS'exec_cq'
p397
I33
sS'total_cq'
p398
I33
sa(dp399
g394
I352
sg395
F0.0033462047576904297
sg396
F0.01656198501586914
sg397
I29
sg398
I29
sa(dp400
g394
I346
sg395
F0.0011758804321289062
sg396
F0.0060579776763916016
sg397
I25
sg398
I25
sasS'total_cqs'
p401
I33
ssI37
(dp402
S'iters'
p403
I1
sS'meta'
p404
(lp405
(dp406
S'objective'
p407
I1
sS'query_time'
p408
F0.050109148025512695
sS'comp_time'
p409
F0.00033092498779296875
sS'exec_cq'
p410
I2
sS'total_cq'
p411
I2
sasS'total_cqs'
p412
I2
ssI38
(dp413
S'iters'
p414
I2
sS'meta'
p415
(lp416
(dp417
S'objective'
p418
I0
sS'query_time'
p419
F0.13405704498291016
sS'comp_time'
p420
F0.0005180835723876953
sS'exec_cq'
p421
I4
sS'total_cq'
p422
I4
sa(dp423
g418
I3
sg419
F7.796287536621094e-05
sg420
F0.0002789497375488281
sg421
I2
sg422
I2
sasS'total_cqs'
p424
I4
ssI39
(dp425
S'iters'
p426
I2
sS'meta'
p427
(lp428
(dp429
S'objective'
p430
I724
sS'query_time'
p431
F0.8701140880584717
sS'comp_time'
p432
F0.0014789104461669922
sS'exec_cq'
p433
I44
sS'total_cq'
p434
I44
sa(dp435
g430
I769
sg431
F0.00027298927307128906
sg432
F0.0010981559753417969
sg433
I37
sg434
I37
sasS'total_cqs'
p436
I44
ssI40
(dp437
S'iters'
p438
I1
sS'meta'
p439
(lp440
(dp441
S'objective'
p442
I14
sS'query_time'
p443
F0.4775078296661377
sS'comp_time'
p444
F0.0001327991485595703
sS'exec_cq'
p445
I7
sS'total_cq'
p446
I7
sasS'total_cqs'
p447
I7
ssI41
(dp448
S'iters'
p449
I1
sS'meta'
p450
(lp451
(dp452
S'objective'
p453
I54
sS'query_time'
p454
F0.26621294021606445
sS'comp_time'
p455
F0.0001659393310546875
sS'exec_cq'
p456
I12
sS'total_cq'
p457
I12
sasS'total_cqs'
p458
I12
ssI42
(dp459
S'iters'
p460
I1
sS'meta'
p461
(lp462
(dp463
S'objective'
p464
I779
sS'query_time'
p465
F0.4481828212738037
sS'comp_time'
p466
F0.00029587745666503906
sS'exec_cq'
p467
I41
sS'total_cq'
p468
I41
sasS'total_cqs'
p469
I41
ssI43
(dp470
S'iters'
p471
I1
sS'meta'
p472
(lp473
(dp474
S'objective'
p475
I14
sS'query_time'
p476
F0.18286490440368652
sS'comp_time'
p477
F0.0001289844512939453
sS'exec_cq'
p478
I7
sS'total_cq'
p479
I7
sasS'total_cqs'
p480
I7
ssI44
(dp481
S'iters'
p482
I4
sS'meta'
p483
(lp484
(dp485
S'objective'
p486
I780
sS'query_time'
p487
F0.689141035079956
sS'comp_time'
p488
F0.0012428760528564453
sS'exec_cq'
p489
I47
sS'total_cq'
p490
I47
sa(dp491
g486
I758
sg487
F0.0002701282501220703
sg488
F0.0008821487426757812
sg489
I40
sg490
I40
sa(dp492
g486
I8
sg487
F0.0015799999237060547
sg488
F0.0006461143493652344
sg489
I3
sg490
I3
sa(dp493
g486
I41
sg487
F3.314018249511719e-05
sg488
F0.00012063980102539062
sg489
I2
sg490
I2
sasS'total_cqs'
p494
I47
ssI45
(dp495
S'iters'
p496
I0
sS'meta'
p497
(lp498
sS'total_cqs'
p499
I1
ssI46
(dp500
S'iters'
p501
I1
sS'meta'
p502
(lp503
(dp504
S'objective'
p505
I9
sS'query_time'
p506
F0.09417104721069336
sS'comp_time'
p507
F0.0003552436828613281
sS'exec_cq'
p508
I6
sS'total_cq'
p509
I6
sasS'total_cqs'
p510
I6
ssI47
(dp511
S'iters'
p512
I1
sS'meta'
p513
(lp514
(dp515
S'objective'
p516
I1
sS'query_time'
p517
F0.05486893653869629
sS'comp_time'
p518
F0.0005600452423095703
sS'exec_cq'
p519
I2
sS'total_cq'
p520
I2
sasS'total_cqs'
p521
I2
ssI48
(dp522
S'iters'
p523
I0
sS'meta'
p524
(lp525
sS'total_cqs'
p526
I1
ssI49
(dp527
S'iters'
p528
I0
sS'meta'
p529
(lp530
sS'total_cqs'
p531
I1
ssI50
(dp532
S'iters'
p533
I1
sS'meta'
p534
(lp535
(dp536
S'objective'
p537
I5
sS'query_time'
p538
F0.10724687576293945
sS'comp_time'
p539
F0.00014495849609375
sS'exec_cq'
p540
I5
sS'total_cq'
p541
I5
sasS'total_cqs'
p542
I5
ssI51
(dp543
S'iters'
p544
I1
sS'meta'
p545
(lp546
(dp547
S'objective'
p548
I1
sS'query_time'
p549
F0.055834054946899414
sS'comp_time'
p550
F0.000209808349609375
sS'exec_cq'
p551
I2
sS'total_cq'
p552
I2
sasS'total_cqs'
p553
I2
ssI52
(dp554
S'iters'
p555
I1
sS'meta'
p556
(lp557
(dp558
S'objective'
p559
I1
sS'query_time'
p560
F0.03338193893432617
sS'comp_time'
p561
F0.00021386146545410156
sS'exec_cq'
p562
I2
sS'total_cq'
p563
I2
sasS'total_cqs'
p564
I2
ssI53
(dp565
S'iters'
p566
I1
sS'meta'
p567
(lp568
(dp569
S'objective'
p570
I2
sS'query_time'
p571
F0.10642194747924805
sS'comp_time'
p572
F0.0011820793151855469
sS'exec_cq'
p573
I4
sS'total_cq'
p574
I4
sasS'total_cqs'
p575
I4
ssI54
(dp576
S'iters'
p577
I1
sS'meta'
p578
(lp579
(dp580
S'objective'
p581
I0
sS'query_time'
p582
F0.09864497184753418
sS'comp_time'
p583
F0.00026679039001464844
sS'exec_cq'
p584
I3
sS'total_cq'
p585
I3
sasS'total_cqs'
p586
I3
ssI55
(dp587
S'iters'
p588
I4
sS'meta'
p589
(lp590
(dp591
S'objective'
p592
I4425
sS'query_time'
p593
F14.755935907363892
sS'comp_time'
p594
F0.04884600639343262
sS'exec_cq'
p595
I109
sS'total_cq'
p596
I109
sa(dp597
g592
I4652
sg593
F0.0012760162353515625
sg594
F0.0021750926971435547
sg595
I97
sg596
I97
sa(dp598
g592
I4479
sg593
F0.00030112266540527344
sg594
F0.0008039474487304688
sg595
I91
sg596
I91
sa(dp599
g592
I4487
sg593
F0.00028395652770996094
sg594
F0.0007460117340087891
sg595
I87
sg596
I87
sasS'total_cqs'
p600
I109
ssI56
(dp601
S'iters'
p602
I4
sS'meta'
p603
(lp604
(dp605
S'objective'
p606
I1698
sS'query_time'
p607
F18.871864080429077
sS'comp_time'
p608
F0.15778899192810059
sS'exec_cq'
p609
I76
sS'total_cq'
p610
I76
sa(dp611
g606
I4
sg607
F0.005568981170654297
sg608
F0.009865999221801758
sg609
I16
sg610
I16
sa(dp612
g606
I15
sg607
F0.0004820823669433594
sg608
F0.002064228057861328
sg609
I7
sg610
I7
sa(dp613
g606
I7
sg607
F0.00019311904907226562
sg608
F0.0009529590606689453
sg609
I3
sg610
I3
sasS'total_cqs'
p614
I76
ssI57
(dp615
S'iters'
p616
I5
sS'meta'
p617
(lp618
(dp619
S'objective'
p620
I66
sS'query_time'
p621
F86.60408401489258
sS'comp_time'
p622
F3.9221386909484863
sS'exec_cq'
p623
I51
sS'total_cq'
p624
I51
sa(dp625
g620
I70
sg621
F0.013295173645019531
sg622
F0.02747821807861328
sg623
I27
sg624
I27
sa(dp626
g620
I5
sg621
F0.0020780563354492188
sg622
F0.005591869354248047
sg623
I13
sg624
I13
sa(dp627
g620
I2
sg621
F0.0014040470123291016
sg622
F0.004068136215209961
sg623
I6
sg624
I6
sa(dp628
g620
I26
sg621
F0.0009150505065917969
sg622
F0.002727985382080078
sg623
I4
sg624
I4
sasS'total_cqs'
p629
I51
ssI58
(dp630
S'iters'
p631
I6
sS'meta'
p632
(lp633
(dp634
S'objective'
p635
I116663
sS'query_time'
p636
F21.763663053512573
sS'comp_time'
p637
F0.5315742492675781
sS'exec_cq'
p638
I486
sS'total_cq'
p639
I486
sa(dp640
g635
I116696
sg636
F0.0021588802337646484
sg637
F0.4326949119567871
sg638
I484
sg639
I484
sa(dp641
g635
I116509
sg636
F0.0021839141845703125
sg637
F1.837501049041748
sg638
I483
sg639
I483
sa(dp642
g635
I116262
sg636
F0.0027740001678466797
sg637
F0.5654399394989014
sg638
I482
sg639
I482
sa(dp643
g635
I110559
sg636
F2.3599729537963867
sg637
F2.0842278003692627
sg638
I480
sg639
I480
sa(dp644
g635
I2015
sg636
F0.13345909118652344
sg637
F0.11149334907531738
sg638
I12
sg639
I12
sasS'total_cqs'
p645
I486
ssI59
(dp646
S'iters'
p647
I2
sS'meta'
p648
(lp649
(dp650
S'objective'
p651
I2
sS'query_time'
p652
F0.2423100471496582
sS'comp_time'
p653
F0.0008189678192138672
sS'exec_cq'
p654
I7
sS'total_cq'
p655
I7
sa(dp656
g651
I1
sg652
F0.0001919269561767578
sg653
F0.0046999454498291016
sg654
I2
sg655
I2
sasS'total_cqs'
p657
I7
ssI60
(dp658
S'iters'
p659
I1
sS'meta'
p660
(lp661
(dp662
S'objective'
p663
I5
sS'query_time'
p664
F0.0850679874420166
sS'comp_time'
p665
F0.00042510032653808594
sS'exec_cq'
p666
I5
sS'total_cq'
p667
I5
sasS'total_cqs'
p668
I5
ssI61
(dp669
S'iters'
p670
I0
sS'meta'
p671
(lp672
sS'total_cqs'
p673
I1
ssI62
(dp674
S'iters'
p675
I2
sS'meta'
p676
(lp677
(dp678
S'objective'
p679
I36
sS'query_time'
p680
F0.15271592140197754
sS'comp_time'
p681
F0.00020503997802734375
sS'exec_cq'
p682
I12
sS'total_cq'
p683
I12
sa(dp684
g679
I33
sg680
F4.38690185546875e-05
sg681
F6.29425048828125e-05
sg682
I9
sg683
I9
sasS'total_cqs'
p685
I12
ssI63
(dp686
S'iters'
p687
I0
sS'meta'
p688
(lp689
sS'total_cqs'
p690
I1
ssI64
(dp691
S'iters'
p692
I3
sS'meta'
p693
(lp694
(dp695
S'objective'
p696
I16
sS'query_time'
p697
F0.7456378936767578
sS'comp_time'
p698
F0.0038299560546875
sS'exec_cq'
p699
I12
sS'total_cq'
p700
I12
sa(dp701
g696
I1
sg697
F0.00022602081298828125
sg698
F0.0010650157928466797
sg699
I4
sg700
I4
sa(dp702
g696
I9
sg697
F5.1975250244140625e-05
sg698
F0.00020813941955566406
sg699
I2
sg700
I2
sasS'total_cqs'
p703
I12
ssI65
(dp704
S'iters'
p705
I3
sS'meta'
p706
(lp707
(dp708
S'objective'
p709
I182
sS'query_time'
p710
F2.9998159408569336
sS'comp_time'
p711
F0.04142308235168457
sS'exec_cq'
p712
I27
sS'total_cq'
p713
I27
sa(dp714
g709
I2
sg710
F0.0015718936920166016
sg711
F0.00468897819519043
sg712
I7
sg713
I7
sa(dp715
g709
I4
sg710
F0.00019097328186035156
sg711
F0.0007970333099365234
sg712
I3
sg713
I3
sasS'total_cqs'
p716
I27
ssI66
(dp717
S'iters'
p718
I0
sS'meta'
p719
(lp720
sS'total_cqs'
p721
I1
ssI67
(dp722
S'iters'
p723
I2
sS'meta'
p724
(lp725
(dp726
S'objective'
p727
I524
sS'query_time'
p728
F5.808120012283325
sS'comp_time'
p729
F0.009680032730102539
sS'exec_cq'
p730
I35
sS'total_cq'
p731
I35
sa(dp732
g727
I17
sg728
F0.001531839370727539
sg729
F0.005321979522705078
sg730
I2
sg731
I2
sasS'total_cqs'
p733
I35
ssI68
(dp734
S'iters'
p735
I0
sS'meta'
p736
(lp737
sS'total_cqs'
p738
I1
ssI69
(dp739
S'iters'
p740
I1
sS'meta'
p741
(lp742
(dp743
S'objective'
p744
I1224
sS'query_time'
p745
F1.0346508026123047
sS'comp_time'
p746
F0.0003590583801269531
sS'exec_cq'
p747
I51
sS'total_cq'
p748
I51
sasS'total_cqs'
p749
I51
ssI70
(dp750
S'iters'
p751
I1
sS'meta'
p752
(lp753
(dp754
S'objective'
p755
I9
sS'query_time'
p756
F0.12401914596557617
sS'comp_time'
p757
F0.0002319812774658203
sS'exec_cq'
p758
I6
sS'total_cq'
p759
I6
sasS'total_cqs'
p760
I6
ssI71
(dp761
S'iters'
p762
I5
sS'meta'
p763
(lp764
(dp765
S'objective'
p766
I3335
sS'query_time'
p767
F0.916496992111206
sS'comp_time'
p768
F0.0010170936584472656
sS'exec_cq'
p769
I85
sS'total_cq'
p770
I85
sa(dp771
g766
I3209
sg767
F0.0003800392150878906
sg768
F0.001024007797241211
sg769
I81
sg770
I81
sa(dp772
g766
I3066
sg767
F0.0003209114074707031
sg768
F0.0007016658782958984
sg769
I77
sg770
I77
sa(dp773
g766
I2939
sg767
F0.0003180503845214844
sg768
F0.0005321502685546875
sg769
I74
sg770
I74
sa(dp774
g766
I35
sg767
F0.028115034103393555
sg768
F0.00031280517578125
sg769
I3
sg770
I3
sasS'total_cqs'
p775
I85
ssI72
(dp776
S'iters'
p777
I3
sS'meta'
p778
(lp779
(dp780
S'objective'
p781
I14
sS'query_time'
p782
F1.4707579612731934
sS'comp_time'
p783
F0.007840871810913086
sS'exec_cq'
p784
I8
sS'total_cq'
p785
I8
sa(dp786
g781
I5
sg782
F0.00013208389282226562
sg783
F0.000370025634765625
sg784
I5
sg785
I5
sa(dp787
g781
I1
sg782
F4.410743713378906e-05
sg783
F0.00018787384033203125
sg784
I3
sg785
I3
sasS'total_cqs'
p788
I8
ssI73
(dp789
S'iters'
p790
I0
sS'meta'
p791
(lp792
sS'total_cqs'
p793
I1
ssI74
(dp794
S'iters'
p795
I0
sS'meta'
p796
(lp797
sS'total_cqs'
p798
I1
ssI75
(dp799
S'iters'
p800
I1
sS'meta'
p801
(lp802
(dp803
S'objective'
p804
I5
sS'query_time'
p805
F0.0321657657623291
sS'comp_time'
p806
F0.00016307830810546875
sS'exec_cq'
p807
I5
sS'total_cq'
p808
I5
sasS'total_cqs'
p809
I5
ssI76
(dp810
S'iters'
p811
I1
sS'meta'
p812
(lp813
(dp814
S'objective'
p815
I1
sS'query_time'
p816
F0.1127779483795166
sS'comp_time'
p817
F0.0003948211669921875
sS'exec_cq'
p818
I2
sS'total_cq'
p819
I2
sasS'total_cqs'
p820
I2
ssI77
(dp821
S'iters'
p822
I0
sS'meta'
p823
(lp824
sS'total_cqs'
p825
I1
ssI78
(dp826
S'iters'
p827
I0
sS'meta'
p828
(lp829
sS'total_cqs'
p830
I1
ssI103
(dp831
S'iters'
p832
I1
sS'meta'
p833
(lp834
(dp835
S'objective'
p836
I54
sS'query_time'
p837
F0.6900310516357422
sS'comp_time'
p838
F0.0001888275146484375
sS'exec_cq'
p839
I12
sS'total_cq'
p840
I12
sasS'total_cqs'
p841
I12
ssI104
(dp842
S'iters'
p843
I1
sS'meta'
p844
(lp845
(dp846
S'objective'
p847
I2
sS'query_time'
p848
F5.755528926849365
sS'comp_time'
p849
F0.08044219017028809
sS'exec_cq'
p850
I4
sS'total_cq'
p851
I4
sasS'total_cqs'
p852
I4
ssI105
(dp853
S'iters'
p854
I0
sS'meta'
p855
(lp856
sS'total_cqs'
p857
I1
ssI106
(dp858
S'iters'
p859
I1
sS'meta'
p860
(lp861
(dp862
S'objective'
p863
I2
sS'query_time'
p864
F0.10868382453918457
sS'comp_time'
p865
F0.00014519691467285156
sS'exec_cq'
p866
I4
sS'total_cq'
p867
I4
sasS'total_cqs'
p868
I4
ssI107
(dp869
S'iters'
p870
I2
sS'meta'
p871
(lp872
(dp873
S'objective'
p874
I76
sS'query_time'
p875
F0.5182919502258301
sS'comp_time'
p876
F0.00015807151794433594
sS'exec_cq'
p877
I16
sS'total_cq'
p878
I16
sa(dp879
g874
I2
sg875
F0.012995004653930664
sg876
F0.0001437664031982422
sg877
I3
sg878
I3
sasS'total_cqs'
p880
I16
ssI108
(dp881
S'iters'
p882
I0
sS'meta'
p883
(lp884
sS'total_cqs'
p885
I1
ss.