(dp0
I1
(dp1
S'iters'
p2
I1
sS'meta'
p3
(lp4
(dp5
S'objective'
p6
I58
sS'query_time'
p7
F0.05307793617248535
sS'comp_time'
p8
F0.02046823501586914
sS'exec_cq'
p9
I12
sS'total_cq'
p10
I12
sasS'total_cqs'
p11
I12
ssI2
(dp12
S'iters'
p13
I3
sS'meta'
p14
(lp15
(dp16
S'objective'
p17
I274
sS'query_time'
p18
F0.12033891677856445
sS'comp_time'
p19
F0.035994768142700195
sS'exec_cq'
p20
I13
sS'total_cq'
p21
I27
sa(dp22
g17
I226
sg18
F0.055481910705566406
sg19
F0.0009410381317138672
sg20
I14
sg21
I23
sa(dp23
g17
I232
sg18
F6.699562072753906e-05
sg19
F0.00029778480529785156
sg20
I9
sg21
I20
sasS'total_cqs'
p24
I27
ssI3
(dp25
S'iters'
p26
I4
sS'meta'
p27
(lp28
(dp29
S'objective'
p30
I202
sS'query_time'
p31
F75.72081804275513
sS'comp_time'
p32
F0.5624830722808838
sS'exec_cq'
p33
I16
sS'total_cq'
p34
I43
sa(dp35
g30
I210
sg31
F43.498658895492554
sg32
F0.6379530429840088
sg33
I9
sg34
I27
sa(dp36
g30
I76
sg31
F106.8007800579071
sg32
F2.2554709911346436
sg33
I14
sg34
I20
sa(dp37
g30
I90
sg31
F11.05583119392395
sg32
F0.0014908313751220703
sg33
I6
sg34
I6
sasS'total_cqs'
p38
I43
ssI4
(dp39
S'iters'
p40
I2
sS'meta'
p41
(lp42
(dp43
S'objective'
p44
I32
sS'query_time'
p45
F5.0880608558654785
sS'comp_time'
p46
F0.865563154220581
sS'exec_cq'
p47
I11
sS'total_cq'
p48
I11
sa(dp49
g44
I3
sg45
F0.21108198165893555
sg46
F0.876924991607666
sg47
I2
sg48
I2
sasS'total_cqs'
p50
I11
ssI5
(dp51
S'iters'
p52
I3
sS'meta'
p53
(lp54
(dp55
S'objective'
p56
I0
sS'query_time'
p57
F32.11716294288635
sS'comp_time'
p58
F3.6072778701782227
sS'exec_cq'
p59
I8
sS'total_cq'
p60
I8
sa(dp61
g56
I0
sg57
F0.010145902633666992
sg58
F0.055425167083740234
sg59
I4
sg60
I4
sa(dp62
g56
I5
sg57
F0.004842996597290039
sg58
F0.03293776512145996
sg59
I2
sg60
I2
sasS'total_cqs'
p63
I8
ssI6
(dp64
S'iters'
p65
I3
sS'meta'
p66
(lp67
(dp68
S'objective'
p69
I63
sS'query_time'
p70
F34.8621609210968
sS'comp_time'
p71
F5.0249128341674805
sS'exec_cq'
p72
I18
sS'total_cq'
p73
I18
sa(dp74
g69
I0
sg70
F0.6395969390869141
sg71
F4.0828492641448975
sg72
I7
sg73
I7
sa(dp75
g69
I3
sg70
F0.016724824905395508
sg71
F0.08095574378967285
sg72
I3
sg73
I3
sasS'total_cqs'
p76
I18
ssI7
(dp77
S'iters'
p78
I3
sS'meta'
p79
(lp80
(dp81
S'objective'
p82
I1
sS'query_time'
p83
F12.497107028961182
sS'comp_time'
p84
F1.8880300521850586
sS'exec_cq'
p85
I9
sS'total_cq'
p86
I9
sa(dp87
g82
I3
sg83
F0.2542150020599365
sg84
F0.8595535755157471
sg85
I4
sg86
I4
sa(dp88
g82
I3
sg83
F0.002833843231201172
sg84
F0.01741313934326172
sg85
I2
sg86
I2
sasS'total_cqs'
p89
I9
ssI8
(dp90
S'iters'
p91
I4
sS'meta'
p92
(lp93
(dp94
S'objective'
p95
I212
sS'query_time'
p96
F0.08432888984680176
sS'comp_time'
p97
F0.03497505187988281
sS'exec_cq'
p98
I14
sS'total_cq'
p99
I27
sa(dp100
g95
I243
sg96
F4.601478576660156e-05
sg97
F0.0002498626708984375
sg98
I9
sg99
I22
sa(dp101
g95
I207
sg96
F0.06185293197631836
sg97
F0.00046372413635253906
sg98
I21
sg99
I21
sa(dp102
g95
I13
sg96
F0.0010559558868408203
sg97
F0.0004591941833496094
sg98
I2
sg99
I2
sasS'total_cqs'
p103
I27
ssI9
(dp104
S'iters'
p105
I2
sS'meta'
p106
(lp107
(dp108
S'objective'
p109
I4
sS'query_time'
p110
F0.047560930252075195
sS'comp_time'
p111
F0.0044062137603759766
sS'exec_cq'
p112
I7
sS'total_cq'
p113
I7
sa(dp114
g109
I2
sg110
F2.09808349609375e-05
sg111
F0.00023937225341796875
sg112
I2
sg113
I2
sasS'total_cqs'
p115
I7
ssI10
(dp116
S'iters'
p117
I5
sS'meta'
p118
(lp119
(dp120
S'objective'
p121
I690
sS'query_time'
p122
F0.1647930145263672
sS'comp_time'
p123
F0.08220100402832031
sS'exec_cq'
p124
I28
sS'total_cq'
p125
I51
sa(dp126
g121
I328
sg122
F0.15788888931274414
sg123
F0.0017032623291015625
sg124
I23
sg125
I37
sa(dp127
g121
I6
sg122
F0.0013360977172851562
sg123
F0.0011441707611083984
sg124
I12
sg125
I12
sa(dp128
g121
I51
sg122
F5.4836273193359375e-05
sg123
F0.0003066062927246094
sg124
I6
sg125
I6
sa(dp129
g121
I19
sg122
F1.7881393432617188e-05
sg123
F0.00012803077697753906
sg124
I2
sg125
I2
sasS'total_cqs'
p130
I51
ssI11
(dp131
S'iters'
p132
I5
sS'meta'
p133
(lp134
(dp135
S'objective'
p136
I884
sS'query_time'
p137
F0.5239090919494629
sS'comp_time'
p138
F0.18194794654846191
sS'exec_cq'
p139
I63
sS'total_cq'
p140
I63
sa(dp141
g136
I930
sg137
F0.0012450218200683594
sg138
F0.00666356086730957
sg139
I47
sg140
I47
sa(dp142
g136
I0
sg137
F0.0017681121826171875
sg138
F0.002694845199584961
sg139
I9
sg140
I9
sa(dp143
g136
I12
sg137
F0.00015687942504882812
sg138
F0.001033782958984375
sg139
I5
sg140
I5
sa(dp144
g136
I27
sg137
F1.5020370483398438e-05
sg138
F8.96453857421875e-05
sg139
I2
sg140
I2
sasS'total_cqs'
p145
I63
ssI12
(dp146
S'iters'
p147
I5
sS'meta'
p148
(lp149
(dp150
S'objective'
p151
I581
sS'query_time'
p152
F0.22931694984436035
sS'comp_time'
p153
F0.11213159561157227
sS'exec_cq'
p154
I28
sS'total_cq'
p155
I50
sa(dp156
g151
I474
sg152
F0.19857311248779297
sg153
F0.0031843185424804688
sg154
I22
sg155
I33
sa(dp157
g151
I15
sg152
F0.0013968944549560547
sg153
F0.002147674560546875
sg154
I8
sg155
I8
sa(dp158
g151
I2
sg152
F0.00015807151794433594
sg153
F0.001071929931640625
sg154
I4
sg155
I4
sa(dp159
g151
I26
sg152
F2.3126602172851562e-05
sg153
F0.00013899803161621094
sg154
I2
sg155
I2
sasS'total_cqs'
p160
I50
ssI13
(dp161
S'iters'
p162
I3
sS'meta'
p163
(lp164
(dp165
S'objective'
p166
I18
sS'query_time'
p167
F0.12587285041809082
sS'comp_time'
p168
F0.026353836059570312
sS'exec_cq'
p169
I20
sS'total_cq'
p170
I20
sa(dp171
g166
I72
sg167
F4.601478576660156e-05
sg168
F0.0004353523254394531
sg169
I9
sg170
I9
sa(dp172
g166
I11
sg167
F0.010555028915405273
sg168
F0.00020503997802734375
sg169
I2
sg170
I2
sasS'total_cqs'
p173
I20
ssI14
(dp174
S'iters'
p175
I2
sS'meta'
p176
(lp177
(dp178
S'objective'
p179
I1
sS'query_time'
p180
F29.684356927871704
sS'comp_time'
p181
F1.6158161163330078
sS'exec_cq'
p182
I9
sS'total_cq'
p183
I9
sa(dp184
g179
I6
sg180
F0.0053730010986328125
sg181
F0.17371273040771484
sg182
I4
sg183
I4
sasS'total_cqs'
p185
I9
ssI15
(dp186
S'iters'
p187
I3
sS'meta'
p188
(lp189
(dp190
S'objective'
p191
I2
sS'query_time'
p192
F3.7926740646362305
sS'comp_time'
p193
F0.29560327529907227
sS'exec_cq'
p194
I11
sS'total_cq'
p195
I11
sa(dp196
g191
I0
sg192
F0.04213309288024902
sg193
F0.2659430503845215
sg194
I5
sg195
I5
sa(dp197
g191
I4
sg192
F0.01238703727722168
sg193
F0.2614021301269531
sg194
I3
sg195
I3
sasS'total_cqs'
p198
I11
ssI16
(dp199
S'iters'
p200
I1
sS'meta'
p201
(lp202
(dp203
S'objective'
p204
I22
sS'query_time'
p205
F0.037081003189086914
sS'comp_time'
p206
F0.0047893524169921875
sS'exec_cq'
p207
I8
sS'total_cq'
p208
I8
sasS'total_cqs'
p209
I8
ssI17
(dp210
S'iters'
p211
I3
sS'meta'
p212
(lp213
(dp214
S'objective'
p215
I2
sS'query_time'
p216
F0.9536430835723877
sS'comp_time'
p217
F0.04673600196838379
sS'exec_cq'
p218
I11
sS'total_cq'
p219
I11
sa(dp220
g215
I6
sg216
F0.0027909278869628906
sg217
F0.017359018325805664
sg218
I6
sg219
I6
sa(dp221
g215
I6
sg216
F0.002299070358276367
sg217
F0.016321420669555664
sg218
I2
sg219
I2
sasS'total_cqs'
p222
I11
ssI18
(dp223
S'iters'
p224
I2
sS'meta'
p225
(lp226
(dp227
S'objective'
p228
I26
sS'query_time'
p229
F0.12897586822509766
sS'comp_time'
p230
F0.055474281311035156
sS'exec_cq'
p231
I6
sS'total_cq'
p232
I11
sa(dp233
g228
I26
sg229
F0.09076905250549316
sg230
F0.0005156993865966797
sg231
I8
sg232
I9
sasS'total_cqs'
p234
I11
ssI22
(dp235
S'iters'
p236
I1
sS'meta'
p237
(lp238
(dp239
S'objective'
p240
I141
sS'query_time'
p241
F0.06839394569396973
sS'comp_time'
p242
F0.029522180557250977
sS'exec_cq'
p243
I18
sS'total_cq'
p244
I18
sasS'total_cqs'
p245
I18
ssI23
(dp246
S'iters'
p247
I3
sS'meta'
p248
(lp249
(dp250
S'objective'
p251
I106
sS'query_time'
p252
F0.03682088851928711
sS'comp_time'
p253
F0.02357196807861328
sS'exec_cq'
p254
I8
sS'total_cq'
p255
I16
sa(dp256
g251
I87
sg252
F0.027950048446655273
sg253
F0.00022292137145996094
sg254
I8
sg255
I15
sa(dp257
g251
I78
sg252
F4.291534423828125e-05
sg253
F0.00014019012451171875
sg254
I7
sg255
I13
sasS'total_cqs'
p258
I16
ssI26
(dp259
S'iters'
p260
I1
sS'meta'
p261
(lp262
(dp263
S'objective'
p264
I837
sS'query_time'
p265
F0.14620590209960938
sS'comp_time'
p266
F0.10733342170715332
sS'exec_cq'
p267
I42
sS'total_cq'
p268
I42
sasS'total_cqs'
p269
I42
ssI27
(dp270
S'iters'
p271
I3
sS'meta'
p272
(lp273
(dp274
S'objective'
p275
I325
sS'query_time'
p276
F22.071847915649414
sS'comp_time'
p277
F3.397059917449951
sS'exec_cq'
p278
I30
sS'total_cq'
p279
I30
sa(dp280
g275
I0
sg276
F0.4538249969482422
sg277
F3.2035911083221436
sg278
I5
sg279
I5
sa(dp281
g275
I13
sg276
F0.3452491760253906
sg277
F1.9817862510681152
sg278
I3
sg279
I3
sasS'total_cqs'
p282
I30
ssI29
(dp283
S'iters'
p284
I5
sS'meta'
p285
(lp286
(dp287
S'objective'
p288
I303
sS'query_time'
p289
F26.46118187904358
sS'comp_time'
p290
F0.7583692073822021
sS'exec_cq'
p291
I35
sS'total_cq'
p292
I49
sa(dp293
g288
I23
sg289
F0.0481719970703125
sg290
F0.4726598262786865
sg291
I17
sg292
I17
sa(dp294
g288
I0
sg289
F0.044603824615478516
sg290
F0.4710981845855713
sg291
I9
sg292
I9
sa(dp295
g288
I35
sg289
F0.0034940242767333984
sg290
F0.01477670669555664
sg291
I4
sg292
I4
sa(dp296
g288
I2
sg289
F0.0011610984802246094
sg290
F0.0078089237213134766
sg291
I2
sg292
I2
sasS'total_cqs'
p297
I49
ssI30
(dp298
S'iters'
p299
I1
sS'meta'
p300
(lp301
(dp302
S'objective'
p303
I1
sS'query_time'
p304
F0.7361710071563721
sS'comp_time'
p305
F0.04124903678894043
sS'exec_cq'
p306
I2
sS'total_cq'
p307
I2
sasS'total_cqs'
p308
I2
ssI32
(dp309
S'iters'
p310
I1
sS'meta'
p311
(lp312
(dp313
S'objective'
p314
I1
sS'query_time'
p315
F0.028059005737304688
sS'comp_time'
p316
F0.002026081085205078
sS'exec_cq'
p317
I2
sS'total_cq'
p318
I2
sasS'total_cqs'
p319
I2
ssI33
(dp320
S'iters'
p321
I5
sS'meta'
p322
(lp323
(dp324
S'objective'
p325
I3336
sS'query_time'
p326
F16.978182077407837
sS'comp_time'
p327
F0.9933531284332275
sS'exec_cq'
p328
I103
sS'total_cq'
p329
I103
sa(dp330
g325
I4
sg326
F0.008581876754760742
sg327
F0.028525829315185547
sg328
I16
sg329
I16
sa(dp331
g325
I21
sg326
F0.13302206993103027
sg327
F0.012095451354980469
sg328
I8
sg329
I8
sa(dp332
g325
I43
sg326
F0.001299142837524414
sg327
F0.007066249847412109
sg328
I4
sg329
I4
sa(dp333
g325
I16
sg326
F0.0007710456848144531
sg327
F0.004586935043334961
sg328
I3
sg329
I3
sasS'total_cqs'
p334
I103
ssI34
(dp335
S'iters'
p336
I1
sS'meta'
p337
(lp338
(dp339
S'objective'
p340
I1
sS'query_time'
p341
F0.02848505973815918
sS'comp_time'
p342
F0.030831098556518555
sS'exec_cq'
p343
I2
sS'total_cq'
p344
I2
sasS'total_cqs'
p345
I2
ssI35
(dp346
S'iters'
p347
I5
sS'meta'
p348
(lp349
(dp350
S'objective'
p351
I1159
sS'query_time'
p352
F23.94118309020996
sS'comp_time'
p353
F0.21706867218017578
sS'exec_cq'
p354
I50
sS'total_cq'
p355
I70
sa(dp356
g351
I13
sg352
F0.004235029220581055
sg353
F0.19478082656860352
sg354
I16
sg355
I16
sa(dp357
g351
I19
sg352
F0.0019779205322265625
sg353
F0.006422996520996094
sg354
I7
sg355
I7
sa(dp358
g351
I25
sg352
F0.0015218257904052734
sg353
F0.006960153579711914
sg354
I4
sg355
I4
sa(dp359
g351
I44
sg352
F0.00041103363037109375
sg353
F0.0028955936431884766
sg354
I2
sg355
I2
sasS'total_cqs'
p360
I70
ssI36
(dp361
S'iters'
p362
I1
sS'meta'
p363
(lp364
(dp365
S'objective'
p366
I509
sS'query_time'
p367
F0.8006701469421387
sS'comp_time'
p368
F0.09150981903076172
sS'exec_cq'
p369
I28
sS'total_cq'
p370
I33
sasS'total_cqs'
p371
I33
ssI37
(dp372
S'iters'
p373
I1
sS'meta'
p374
(lp375
(dp376
S'objective'
p377
I1
sS'query_time'
p378
F0.013895034790039062
sS'comp_time'
p379
F0.0024559497833251953
sS'exec_cq'
p380
I2
sS'total_cq'
p381
I2
sasS'total_cqs'
p382
I2
ssI38
(dp383
S'iters'
p384
I2
sS'meta'
p385
(lp386
(dp387
S'objective'
p388
I0
sS'query_time'
p389
F0.02705693244934082
sS'comp_time'
p390
F0.0035855770111083984
sS'exec_cq'
p391
I4
sS'total_cq'
p392
I4
sa(dp393
g388
I3
sg389
F0.0001010894775390625
sg390
F0.0005033016204833984
sg391
I2
sg392
I2
sasS'total_cqs'
p394
I4
ssI39
(dp395
S'iters'
p396
I2
sS'meta'
p397
(lp398
(dp399
S'objective'
p400
I724
sS'query_time'
p401
F0.16216516494750977
sS'comp_time'
p402
F0.08338117599487305
sS'exec_cq'
p403
I44
sS'total_cq'
p404
I44
sa(dp405
g400
I789
sg401
F0.00035500526428222656
sg402
F0.0021109580993652344
sg403
I37
sg404
I37
sasS'total_cqs'
p406
I44
ssI40
(dp407
S'iters'
p408
I1
sS'meta'
p409
(lp410
(dp411
S'objective'
p412
I14
sS'query_time'
p413
F0.034974098205566406
sS'comp_time'
p414
F0.006871938705444336
sS'exec_cq'
p415
I7
sS'total_cq'
p416
I7
sasS'total_cqs'
p417
I7
ssI41
(dp418
S'iters'
p419
I1
sS'meta'
p420
(lp421
(dp422
S'objective'
p423
I58
sS'query_time'
p424
F0.07106685638427734
sS'comp_time'
p425
F0.016144752502441406
sS'exec_cq'
p426
I12
sS'total_cq'
p427
I12
sasS'total_cqs'
p428
I12
ssI42
(dp429
S'iters'
p430
I1
sS'meta'
p431
(lp432
(dp433
S'objective'
p434
I797
sS'query_time'
p435
F0.0705409049987793
sS'comp_time'
p436
F0.1507711410522461
sS'exec_cq'
p437
I21
sS'total_cq'
p438
I41
sasS'total_cqs'
p439
I41
ssI43
(dp440
S'iters'
p441
I1
sS'meta'
p442
(lp443
(dp444
S'objective'
p445
I14
sS'query_time'
p446
F0.0528559684753418
sS'comp_time'
p447
F0.0072858333587646484
sS'exec_cq'
p448
I7
sS'total_cq'
p449
I7
sasS'total_cqs'
p450
I7
ssI44
(dp451
S'iters'
p452
I4
sS'meta'
p453
(lp454
(dp455
S'objective'
p456
I906
sS'query_time'
p457
F0.19375205039978027
sS'comp_time'
p458
F0.09415721893310547
sS'exec_cq'
p459
I47
sS'total_cq'
p460
I47
sa(dp461
g456
I825
sg457
F0.0003008842468261719
sg458
F0.0016510486602783203
sg459
I40
sg460
I40
sa(dp462
g456
I20
sg457
F0.0013630390167236328
sg458
F0.0017940998077392578
sg459
I3
sg460
I3
sa(dp463
g456
I16
sg457
F2.09808349609375e-05
sg458
F0.00013327598571777344
sg459
I2
sg460
I2
sasS'total_cqs'
p464
I47
ssI46
(dp465
S'iters'
p466
I1
sS'meta'
p467
(lp468
(dp469
S'objective'
p470
I9
sS'query_time'
p471
F0.029492855072021484
sS'comp_time'
p472
F0.0047321319580078125
sS'exec_cq'
p473
I4
sS'total_cq'
p474
I6
sasS'total_cqs'
p475
I6
ssI47
(dp476
S'iters'
p477
I1
sS'meta'
p478
(lp479
(dp480
S'objective'
p481
I1
sS'query_time'
p482
F0.009013891220092773
sS'comp_time'
p483
F0.0012290477752685547
sS'exec_cq'
p484
I2
sS'total_cq'
p485
I2
sasS'total_cqs'
p486
I2
ssI50
(dp487
S'iters'
p488
I1
sS'meta'
p489
(lp490
(dp491
S'objective'
p492
I5
sS'query_time'
p493
F0.018185853958129883
sS'comp_time'
p494
F0.0021631717681884766
sS'exec_cq'
p495
I5
sS'total_cq'
p496
I5
sasS'total_cqs'
p497
I5
ssI51
(dp498
S'iters'
p499
I1
sS'meta'
p500
(lp501
(dp502
S'objective'
p503
I1
sS'query_time'
p504
F0.03394198417663574
sS'comp_time'
p505
F0.0013201236724853516
sS'exec_cq'
p506
I2
sS'total_cq'
p507
I2
sasS'total_cqs'
p508
I2
ssI52
(dp509
S'iters'
p510
I1
sS'meta'
p511
(lp512
(dp513
S'objective'
p514
I1
sS'query_time'
p515
F0.0089569091796875
sS'comp_time'
p516
F0.0011458396911621094
sS'exec_cq'
p517
I2
sS'total_cq'
p518
I2
sasS'total_cqs'
p519
I2
ssI53
(dp520
S'iters'
p521
I2
sS'meta'
p522
(lp523
(dp524
S'objective'
p525
I0
sS'query_time'
p526
F0.02270197868347168
sS'comp_time'
p527
F0.003098011016845703
sS'exec_cq'
p528
I4
sS'total_cq'
p529
I4
sa(dp530
g525
I3
sg526
F0.0001010894775390625
sg527
F0.0006899833679199219
sg528
I2
sg529
I2
sasS'total_cqs'
p531
I4
ssI54
(dp532
S'iters'
p533
I2
sS'meta'
p534
(lp535
(dp536
S'objective'
p537
I0
sS'query_time'
p538
F0.011773824691772461
sS'comp_time'
p539
F0.0016748905181884766
sS'exec_cq'
p540
I3
sS'total_cq'
p541
I3
sa(dp542
g537
I1
sg538
F4.1961669921875e-05
sg539
F0.0002639293670654297
sg540
I2
sg541
I2
sasS'total_cqs'
p543
I3
ssI55
(dp544
S'iters'
p545
I7
sS'meta'
p546
(lp547
(dp548
S'objective'
p549
I4685
sS'query_time'
p550
F2.230989933013916
sS'comp_time'
p551
F0.6885862350463867
sS'exec_cq'
p552
I109
sS'total_cq'
p553
I109
sa(dp554
g549
I4730
sg550
F0.0007569789886474609
sg551
F0.0033822059631347656
sg552
I97
sg553
I97
sa(dp555
g549
I4583
sg550
F0.00034308433532714844
sg551
F0.0016241073608398438
sg552
I91
sg553
I91
sa(dp556
g549
I4465
sg550
F0.00029087066650390625
sg551
F0.001257181167602539
sg552
I87
sg553
I87
sa(dp557
g549
I4365
sg550
F0.0002739429473876953
sg551
F0.0009739398956298828
sg552
I85
sg553
I85
sa(dp558
g549
I4313
sg550
F0.0002551078796386719
sg551
F0.0009312629699707031
sg552
I83
sg553
I83
sa(dp559
g549
I4241
sg550
F0.00022983551025390625
sg551
F0.0007038116455078125
sg552
I81
sg553
I81
sasS'total_cqs'
p560
I109
ssI56
(dp561
S'iters'
p562
I5
sS'meta'
p563
(lp564
(dp565
S'objective'
p566
I1584
sS'query_time'
p567
F1.4512410163879395
sS'comp_time'
p568
F0.4664149284362793
sS'exec_cq'
p569
I67
sS'total_cq'
p570
I76
sa(dp571
g566
I23
sg567
F0.005555868148803711
sg568
F0.013932943344116211
sg569
I16
sg570
I16
sa(dp572
g566
I17
sg567
F0.0004229545593261719
sg568
F0.002505779266357422
sg569
I7
sg570
I7
sa(dp573
g566
I41
sg567
F0.0001881122589111328
sg568
F0.0012657642364501953
sg569
I3
sg570
I3
sa(dp574
g566
I13
sg567
F0.00014209747314453125
sg568
F0.0011208057403564453
sg569
I2
sg570
I2
sasS'total_cqs'
p575
I76
ssI57
(dp576
S'iters'
p577
I5
sS'meta'
p578
(lp579
(dp580
S'objective'
p581
I56
sS'query_time'
p582
F24.334095001220703
sS'comp_time'
p583
F0.23286819458007812
sS'exec_cq'
p584
I45
sS'total_cq'
p585
I51
sa(dp586
g581
I31
sg582
F0.016204118728637695
sg583
F0.033808231353759766
sg584
I27
sg585
I27
sa(dp587
g581
I4
sg582
F0.01186990737915039
sg583
F0.137434720993042
sg584
I11
sg585
I11
sa(dp588
g581
I1
sg582
F0.0023958683013916016
sg583
F0.013215303421020508
sg584
I5
sg585
I5
sa(dp589
g581
I3
sg582
F0.0008480548858642578
sg583
F0.0047969818115234375
sg584
I3
sg585
I3
sasS'total_cqs'
p590
I51
ssI58
(dp591
S'iters'
p592
I7
sS'meta'
p593
(lp594
(dp595
S'objective'
p596
I81931
sS'query_time'
p597
F116.3187780380249
sS'comp_time'
p598
F15.352133512496948
sS'exec_cq'
p599
I348
sS'total_cq'
p600
I486
sa(dp601
g596
I84784
sg597
F0.039541006088256836
sg598
F1.0830979347229004
sg599
I276
sg600
I414
sa(dp602
g596
I26
sg597
F0.015430212020874023
sg598
F0.08348822593688965
sg599
I28
sg600
I28
sa(dp603
g596
I3
sg597
F0.010978937149047852
sg598
F0.025104522705078125
sg599
I13
sg600
I13
sa(dp604
g596
I15
sg597
F0.0018010139465332031
sg598
F0.005974531173706055
sg599
I7
sg600
I7
sa(dp605
g596
I29
sg597
F0.0006480216979980469
sg598
F0.0022177696228027344
sg599
I4
sg600
I4
sa(dp606
g596
I261
sg597
F0.0003421306610107422
sg598
F0.001967906951904297
sg599
I2
sg600
I2
sasS'total_cqs'
p607
I486
ssI59
(dp608
S'iters'
p609
I2
sS'meta'
p610
(lp611
(dp612
S'objective'
p613
I4
sS'query_time'
p614
F0.04754781723022461
sS'comp_time'
p615
F0.015235662460327148
sS'exec_cq'
p616
I7
sS'total_cq'
p617
I7
sa(dp618
g613
I2
sg614
F0.00015401840209960938
sg615
F0.0010421276092529297
sg616
I2
sg617
I2
sasS'total_cqs'
p619
I7
ssI60
(dp620
S'iters'
p621
I1
sS'meta'
p622
(lp623
(dp624
S'objective'
p625
I5
sS'query_time'
p626
F0.013783931732177734
sS'comp_time'
p627
F0.003226041793823242
sS'exec_cq'
p628
I3
sS'total_cq'
p629
I5
sasS'total_cqs'
p630
I5
ssI62
(dp631
S'iters'
p632
I2
sS'meta'
p633
(lp634
(dp635
S'objective'
p636
I26
sS'query_time'
p637
F0.07998490333557129
sS'comp_time'
p638
F0.09925508499145508
sS'exec_cq'
p639
I12
sS'total_cq'
p640
I12
sa(dp641
g636
I32
sg637
F4.00543212890625e-05
sg638
F0.00017905235290527344
sg639
I9
sg640
I9
sasS'total_cqs'
p642
I12
ssI64
(dp643
S'iters'
p644
I3
sS'meta'
p645
(lp646
(dp647
S'objective'
p648
I6
sS'query_time'
p649
F0.1186060905456543
sS'comp_time'
p650
F0.010274887084960938
sS'exec_cq'
p651
I12
sS'total_cq'
p652
I12
sa(dp653
g648
I0
sg649
F7.390975952148438e-05
sg650
F0.00047016143798828125
sg651
I4
sg652
I4
sa(dp654
g648
I2
sg649
F3.1948089599609375e-05
sg650
F0.00016927719116210938
sg651
I2
sg652
I2
sasS'total_cqs'
p655
I12
ssI65
(dp656
S'iters'
p657
I4
sS'meta'
p658
(lp659
(dp660
S'objective'
p661
I124
sS'query_time'
p662
F0.7564258575439453
sS'comp_time'
p663
F0.2781200408935547
sS'exec_cq'
p664
I27
sS'total_cq'
p665
I27
sa(dp666
g661
I3
sg662
F0.001775979995727539
sg663
F0.007666110992431641
sg664
I7
sg665
I7
sa(dp667
g661
I0
sg662
F0.0005929470062255859
sg663
F0.0034589767456054688
sg664
I4
sg665
I4
sa(dp668
g661
I13
sg662
F0.0001220703125
sg663
F0.0008478164672851562
sg664
I2
sg665
I2
sasS'total_cqs'
p669
I27
ssI67
(dp670
S'iters'
p671
I2
sS'meta'
p672
(lp673
(dp674
S'objective'
p675
I546
sS'query_time'
p676
F1.0026659965515137
sS'comp_time'
p677
F0.06638383865356445
sS'exec_cq'
p678
I35
sS'total_cq'
p679
I35
sa(dp680
g675
I14
sg676
F0.0012731552124023438
sg677
F0.013462066650390625
sg678
I2
sg679
I2
sasS'total_cqs'
p681
I35
ssI69
(dp682
S'iters'
p683
I1
sS'meta'
p684
(lp685
(dp686
S'objective'
p687
I1246
sS'query_time'
p688
F0.16878414154052734
sS'comp_time'
p689
F0.20089960098266602
sS'exec_cq'
p690
I51
sS'total_cq'
p691
I51
sasS'total_cqs'
p692
I51
ssI70
(dp693
S'iters'
p694
I1
sS'meta'
p695
(lp696
(dp697
S'objective'
p698
I9
sS'query_time'
p699
F0.018046140670776367
sS'comp_time'
p700
F0.002543210983276367
sS'exec_cq'
p701
I6
sS'total_cq'
p702
I6
sasS'total_cqs'
p703
I6
ssI71
(dp704
S'iters'
p705
I5
sS'meta'
p706
(lp707
(dp708
S'objective'
p709
I3195
sS'query_time'
p710
F0.24457001686096191
sS'comp_time'
p711
F0.18349885940551758
sS'exec_cq'
p712
I73
sS'total_cq'
p713
I85
sa(dp714
g709
I3009
sg710
F0.0003190040588378906
sg711
F0.0012149810791015625
sg712
I69
sg713
I81
sa(dp715
g709
I2833
sg710
F0.00026106834411621094
sg711
F0.0009112358093261719
sg712
I66
sg713
I78
sa(dp716
g709
I2745
sg710
F0.00022792816162109375
sg711
F0.0009050369262695312
sg712
I62
sg713
I74
sa(dp717
g709
I10
sg710
F0.0019378662109375
sg711
F0.002779245376586914
sg712
I3
sg713
I3
sasS'total_cqs'
p718
I85
ssI72
(dp719
S'iters'
p720
I3
sS'meta'
p721
(lp722
(dp723
S'objective'
p724
I16
sS'query_time'
p725
F0.02886795997619629
sS'comp_time'
p726
F0.004086971282958984
sS'exec_cq'
p727
I4
sS'total_cq'
p728
I8
sa(dp729
g724
I6
sg725
F0.24946904182434082
sg726
F0.0024514198303222656
sg727
I4
sg728
I6
sa(dp730
g724
I2
sg725
F6.389617919921875e-05
sg726
F0.00022101402282714844
sg727
I2
sg728
I3
sasS'total_cqs'
p731
I8
ssI75
(dp732
S'iters'
p733
I1
sS'meta'
p734
(lp735
(dp736
S'objective'
p737
I5
sS'query_time'
p738
F0.016449928283691406
sS'comp_time'
p739
F0.0022230148315429688
sS'exec_cq'
p740
I5
sS'total_cq'
p741
I5
sasS'total_cqs'
p742
I5
ssI76
(dp743
S'iters'
p744
I1
sS'meta'
p745
(lp746
(dp747
S'objective'
p748
I1
sS'query_time'
p749
F0.013393163681030273
sS'comp_time'
p750
F0.0013248920440673828
sS'exec_cq'
p751
I2
sS'total_cq'
p752
I2
sasS'total_cqs'
p753
I2
ssI103
(dp754
S'iters'
p755
I1
sS'meta'
p756
(lp757
(dp758
S'objective'
p759
I58
sS'query_time'
p760
F0.07121896743774414
sS'comp_time'
p761
F0.016097068786621094
sS'exec_cq'
p762
I12
sS'total_cq'
p763
I12
sasS'total_cqs'
p764
I12
ssI104
(dp765
S'iters'
p766
I2
sS'meta'
p767
(lp768
(dp769
S'objective'
p770
I0
sS'query_time'
p771
F1.3046231269836426
sS'comp_time'
p772
F0.16154885292053223
sS'exec_cq'
p773
I4
sS'total_cq'
p774
I4
sa(dp775
g770
I3
sg771
F0.010154008865356445
sg772
F0.14969515800476074
sg773
I2
sg774
I2
sasS'total_cqs'
p776
I4
ssI106
(dp777
S'iters'
p778
I1
sS'meta'
p779
(lp780
(dp781
S'objective'
p782
I2
sS'query_time'
p783
F0.020756006240844727
sS'comp_time'
p784
F0.0019800662994384766
sS'exec_cq'
p785
I4
sS'total_cq'
p786
I4
sasS'total_cqs'
p787
I4
ssI107
(dp788
S'iters'
p789
I2
sS'meta'
p790
(lp791
(dp792
S'objective'
p793
I88
sS'query_time'
p794
F0.07464408874511719
sS'comp_time'
p795
F0.02050614356994629
sS'exec_cq'
p796
I16
sS'total_cq'
p797
I16
sa(dp798
g793
I2
sg794
F0.005441904067993164
sg795
F0.00041604042053222656
sg796
I3
sg797
I3
sasS'total_cqs'
p799
I16
ss.