(dp0
I1
(dp1
S'iters'
p2
I3
sS'meta'
p3
(lp4
(dp5
S'objective'
p6
I60
sS'query_time'
p7
F0.06618905067443848
sS'comp_time'
p8
F0.0005559921264648438
sS'exec_cq'
p9
I12
sS'total_cq'
p10
I12
sa(dp11
g6
I53
sg7
F7.200241088867188e-05
sg8
F0.00017976760864257812
sg9
I10
sg10
I10
sa(dp12
g6
I53
sg7
F5.1975250244140625e-05
sg8
F0.00012183189392089844
sg9
I9
sg10
I9
sasS'total_cqs'
p13
I12
ssI2
(dp14
S'iters'
p15
I6
sS'meta'
p16
(lp17
(dp18
S'objective'
p19
I276
sS'query_time'
p20
F0.04011702537536621
sS'comp_time'
p21
F0.0008268356323242188
sS'exec_cq'
p22
I14
sS'total_cq'
p23
I27
sa(dp24
g19
I217
sg20
F0.02650284767150879
sg21
F0.0006840229034423828
sg22
I13
sg23
I24
sa(dp25
g19
I222
sg20
F0.0001239776611328125
sg21
F0.0006108283996582031
sg22
I11
sg23
I21
sa(dp26
g19
I181
sg20
F5.1021575927734375e-05
sg21
F0.00020766258239746094
sg22
I10
sg23
I19
sa(dp27
g19
I164
sg20
F4.601478576660156e-05
sg21
F0.0002410411834716797
sg22
I9
sg23
I17
sa(dp28
g19
I173
sg20
F4.100799560546875e-05
sg21
F0.0001850128173828125
sg22
I8
sg23
I15
sasS'total_cqs'
p29
I27
ssI3
(dp30
S'iters'
p31
I4
sS'meta'
p32
(lp33
(dp34
S'objective'
p35
I614
sS'query_time'
p36
F207.8767750263214
sS'comp_time'
p37
F0.03947901725769043
sS'exec_cq'
p38
I16
sS'total_cq'
p39
I43
sa(dp40
g35
I472
sg36
F225.5002579689026
sg37
F3.1933753490448
sg38
I14
sg39
I35
sa(dp41
g35
I242
sg36
F121.63144993782043
sg37
F1.2204468250274658
sg38
I9
sg39
I28
sa(dp42
g35
I410
sg36
F11.176427364349365
sg37
F0.00023794174194335938
sg38
I20
sg39
I20
sasS'total_cqs'
p43
I43
ssI4
(dp44
S'iters'
p45
I2
sS'meta'
p46
(lp47
(dp48
S'objective'
p49
I56
sS'query_time'
p50
F4.8698859214782715
sS'comp_time'
p51
F1.2149269580841064
sS'exec_cq'
p52
I11
sS'total_cq'
p53
I11
sa(dp54
g49
I3
sg50
F0.21686196327209473
sg51
F1.2637767791748047
sg52
I2
sg53
I2
sasS'total_cqs'
p55
I11
ssI5
(dp56
S'iters'
p57
I3
sS'meta'
p58
(lp59
(dp60
S'objective'
p61
I0
sS'query_time'
p62
F34.07126498222351
sS'comp_time'
p63
F5.523188829421997
sS'exec_cq'
p64
I8
sS'total_cq'
p65
I8
sa(dp66
g61
I2
sg62
F0.44826793670654297
sg63
F2.1072888374328613
sg64
I4
sg65
I4
sa(dp67
g61
I2
sg62
F0.3007528781890869
sg63
F1.8097188472747803
sg64
I2
sg65
I2
sasS'total_cqs'
p68
I8
ssI6
(dp69
S'iters'
p70
I4
sS'meta'
p71
(lp72
(dp73
S'objective'
p74
I51
sS'query_time'
p75
F36.915738105773926
sS'comp_time'
p76
F4.649048328399658
sS'exec_cq'
p77
I18
sS'total_cq'
p78
I18
sa(dp79
g74
I0
sg75
F0.8146870136260986
sg76
F4.551346302032471
sg77
I7
sg78
I7
sa(dp80
g74
I0
sg75
F0.6774868965148926
sg76
F3.8076910972595215
sg77
I4
sg78
I4
sa(dp81
g74
I3
sg75
F0.41177797317504883
sg76
F2.7962400913238525
sg77
I2
sg78
I2
sasS'total_cqs'
p82
I18
ssI7
(dp83
S'iters'
p84
I3
sS'meta'
p85
(lp86
(dp87
S'objective'
p88
I1
sS'query_time'
p89
F12.230095148086548
sS'comp_time'
p90
F2.5409398078918457
sS'exec_cq'
p91
I9
sS'total_cq'
p92
I9
sa(dp93
g88
I0
sg89
F0.05704998970031738
sg90
F0.6942851543426514
sg91
I6
sg92
I6
sa(dp94
g88
I3
sg89
F0.020790815353393555
sg90
F0.3219931125640869
sg91
I2
sg92
I2
sasS'total_cqs'
p95
I9
ssI8
(dp96
S'iters'
p97
I5
sS'meta'
p98
(lp99
(dp100
S'objective'
p101
I230
sS'query_time'
p102
F0.06525087356567383
sS'comp_time'
p103
F0.0013298988342285156
sS'exec_cq'
p104
I14
sS'total_cq'
p105
I27
sa(dp106
g101
I238
sg102
F0.07906317710876465
sg103
F0.0006809234619140625
sg104
I13
sg105
I22
sa(dp107
g101
I263
sg102
F7.390975952148438e-05
sg103
F0.0001418590545654297
sg104
I9
sg105
I19
sa(dp108
g101
I241
sg102
F0.00019311904907226562
sg103
F0.00015115737915039062
sg104
I18
sg105
I18
sa(dp109
g101
I238
sg102
F7.390975952148438e-05
sg103
F0.00011324882507324219
sg104
I17
sg105
I17
sasS'total_cqs'
p110
I27
ssI9
(dp111
S'iters'
p112
I3
sS'meta'
p113
(lp114
(dp115
S'objective'
p116
I2
sS'query_time'
p117
F0.042593955993652344
sS'comp_time'
p118
F0.0005371570587158203
sS'exec_cq'
p119
I7
sS'total_cq'
p120
I7
sa(dp121
g116
I5
sg117
F5.698204040527344e-05
sg118
F0.00019121170043945312
sg119
I5
sg120
I5
sa(dp122
g116
I1
sg117
F1.4066696166992188e-05
sg118
F0.00011396408081054688
sg119
I2
sg120
I2
sasS'total_cqs'
p123
I7
ssI10
(dp124
S'iters'
p125
I5
sS'meta'
p126
(lp127
(dp128
S'objective'
p129
I520
sS'query_time'
p130
F0.1262810230255127
sS'comp_time'
p131
F0.003281116485595703
sS'exec_cq'
p132
I28
sS'total_cq'
p133
I51
sa(dp134
g129
I375
sg130
F0.1097259521484375
sg131
F0.0012440681457519531
sg132
I23
sg133
I37
sa(dp135
g129
I4
sg130
F0.0003268718719482422
sg131
F0.0009796619415283203
sg132
I12
sg133
I12
sa(dp136
g129
I9
sg130
F4.100799560546875e-05
sg131
F0.00017595291137695312
sg132
I5
sg133
I5
sa(dp137
g129
I37
sg130
F1.5974044799804688e-05
sg131
F0.00010180473327636719
sg132
I2
sg133
I2
sasS'total_cqs'
p138
I51
ssI11
(dp139
S'iters'
p140
I8
sS'meta'
p141
(lp142
(dp143
S'objective'
p144
I986
sS'query_time'
p145
F0.44464802742004395
sS'comp_time'
p146
F0.02682328224182129
sS'exec_cq'
p147
I63
sS'total_cq'
p148
I63
sa(dp149
g144
I947
sg145
F0.0017850399017333984
sg146
F0.010409116744995117
sg147
I47
sg148
I47
sa(dp150
g144
I732
sg145
F0.0009620189666748047
sg146
F0.006942272186279297
sg147
I40
sg148
I40
sa(dp151
g144
I762
sg145
F0.0006031990051269531
sg146
F0.004509925842285156
sg147
I35
sg148
I35
sa(dp152
g144
I702
sg145
F0.00045990943908691406
sg146
F0.003925800323486328
sg147
I33
sg148
I33
sa(dp153
g144
I12
sg145
F6.699562072753906e-05
sg146
F0.00030732154846191406
sg147
I6
sg148
I6
sa(dp154
g144
I8
sg145
F3.3855438232421875e-05
sg146
F0.000148773193359375
sg147
I4
sg148
I4
sa(dp155
g144
I6
sg145
F2.7179718017578125e-05
sg146
F0.0001418590545654297
sg147
I3
sg148
I3
sasS'total_cqs'
p156
I63
ssI12
(dp157
S'iters'
p158
I6
sS'meta'
p159
(lp160
(dp161
S'objective'
p162
I381
sS'query_time'
p163
F0.19307804107666016
sS'comp_time'
p164
F0.0015997886657714844
sS'exec_cq'
p165
I28
sS'total_cq'
p166
I50
sa(dp167
g162
I394
sg163
F0.10999202728271484
sg164
F0.003261089324951172
sg165
I22
sg166
I33
sa(dp168
g162
I27
sg163
F0.00023984909057617188
sg164
F0.002070188522338867
sg165
I8
sg166
I8
sa(dp169
g162
I50
sg163
F5.602836608886719e-05
sg164
F0.00030112266540527344
sg165
I5
sg166
I5
sa(dp170
g162
I2
sg163
F3.1948089599609375e-05
sg164
F0.00021767616271972656
sg165
I3
sg166
I3
sa(dp171
g162
I9
sg163
F2.002716064453125e-05
sg164
F0.00015807151794433594
sg165
I2
sg166
I2
sasS'total_cqs'
p172
I50
ssI13
(dp173
S'iters'
p174
I4
sS'meta'
p175
(lp176
(dp177
S'objective'
p178
I8
sS'query_time'
p179
F0.10991692543029785
sS'comp_time'
p180
F0.0006930828094482422
sS'exec_cq'
p181
I20
sS'total_cq'
p182
I20
sa(dp183
g178
I11
sg179
F0.00015997886657714844
sg180
F0.0004968643188476562
sg181
I11
sg182
I11
sa(dp184
g178
I21
sg179
F3.886222839355469e-05
sg180
F0.00015783309936523438
sg181
I5
sg182
I5
sa(dp185
g178
I2
sg179
F2.5033950805664062e-05
sg180
F0.00012803077697753906
sg181
I3
sg182
I3
sasS'total_cqs'
p186
I20
ssI14
(dp187
S'iters'
p188
I4
sS'meta'
p189
(lp190
(dp191
S'objective'
p192
I1
sS'query_time'
p193
F33.23564910888672
sS'comp_time'
p194
F2.265263080596924
sS'exec_cq'
p195
I9
sS'total_cq'
p196
I9
sa(dp197
g192
I1
sg193
F0.013669967651367188
sg194
F0.07750391960144043
sg195
I6
sg196
I6
sa(dp198
g192
I1
sg193
F0.00997304916381836
sg194
F0.2121880054473877
sg195
I3
sg196
I3
sa(dp199
g192
I2
sg193
F0.0056781768798828125
sg194
F0.15530109405517578
sg195
I2
sg196
I2
sasS'total_cqs'
p200
I9
ssI15
(dp201
S'iters'
p202
I4
sS'meta'
p203
(lp204
(dp205
S'objective'
p206
I0
sS'query_time'
p207
F3.973351001739502
sS'comp_time'
p208
F0.38189005851745605
sS'exec_cq'
p209
I11
sS'total_cq'
p210
I11
sa(dp211
g206
I1
sg207
F0.04662299156188965
sg208
F0.4849429130554199
sg209
I5
sg210
I5
sa(dp212
g206
I4
sg207
F0.017930030822753906
sg208
F0.2402651309967041
sg209
I3
sg210
I3
sa(dp213
g206
I2
sg207
F0.012344121932983398
sg208
F0.2221362590789795
sg209
I2
sg210
I2
sasS'total_cqs'
p214
I11
ssI16
(dp215
S'iters'
p216
I1
sS'meta'
p217
(lp218
(dp219
S'objective'
p220
I30
sS'query_time'
p221
F0.016772985458374023
sS'comp_time'
p222
F0.00035119056701660156
sS'exec_cq'
p223
I8
sS'total_cq'
p224
I8
sasS'total_cqs'
p225
I8
ssI17
(dp226
S'iters'
p227
I5
sS'meta'
p228
(lp229
(dp230
S'objective'
p231
I0
sS'query_time'
p232
F0.8671550750732422
sS'comp_time'
p233
F0.04558205604553223
sS'exec_cq'
p234
I11
sS'total_cq'
p235
I11
sa(dp236
g231
I13
sg232
F0.00024890899658203125
sg233
F0.0024118423461914062
sg234
I6
sg235
I6
sa(dp237
g231
I5
sg232
F0.0002200603485107422
sg233
F0.002516031265258789
sg234
I5
sg235
I5
sa(dp238
g231
I0
sg232
F0.00019693374633789062
sg233
F0.002374887466430664
sg234
I4
sg235
I4
sa(dp239
g231
I1
sg232
F0.00020384788513183594
sg233
F0.002450704574584961
sg234
I2
sg235
I2
sasS'total_cqs'
p240
I11
ssI18
(dp241
S'iters'
p242
I2
sS'meta'
p243
(lp244
(dp245
S'objective'
p246
I44
sS'query_time'
p247
F0.1794571876525879
sS'comp_time'
p248
F0.0016293525695800781
sS'exec_cq'
p249
I11
sS'total_cq'
p250
I11
sa(dp251
g246
I47
sg247
F0.0008797645568847656
sg248
F0.0010371208190917969
sg249
I10
sg250
I10
sasS'total_cqs'
p252
I11
ssI19
(dp253
S'iters'
p254
I0
sS'meta'
p255
(lp256
sS'total_cqs'
p257
I1
ssI20
(dp258
S'iters'
p259
I0
sS'meta'
p260
(lp261
sS'total_cqs'
p262
I1
ssI21
(dp263
S'iters'
p264
I0
sS'meta'
p265
(lp266
sS'total_cqs'
p267
I1
ssI22
(dp268
S'iters'
p269
I1
sS'meta'
p270
(lp271
(dp272
S'objective'
p273
I159
sS'query_time'
p274
F0.04564499855041504
sS'comp_time'
p275
F0.00024509429931640625
sS'exec_cq'
p276
I18
sS'total_cq'
p277
I18
sasS'total_cqs'
p278
I18
ssI23
(dp279
S'iters'
p280
I2
sS'meta'
p281
(lp282
(dp283
S'objective'
p284
I114
sS'query_time'
p285
F0.026694059371948242
sS'comp_time'
p286
F0.0008149147033691406
sS'exec_cq'
p287
I8
sS'total_cq'
p288
I16
sa(dp289
g284
I115
sg285
F5.2928924560546875e-05
sg286
F0.00011587142944335938
sg287
I7
sg288
I15
sasS'total_cqs'
p290
I16
ssI24
(dp291
S'iters'
p292
I0
sS'meta'
p293
(lp294
sS'total_cqs'
p295
I1
ssI25
(dp296
S'iters'
p297
I0
sS'meta'
p298
(lp299
sS'total_cqs'
p300
I1
ssI26
(dp301
S'iters'
p302
I1
sS'meta'
p303
(lp304
(dp305
S'objective'
p306
I879
sS'query_time'
p307
F0.06151390075683594
sS'comp_time'
p308
F0.0003459453582763672
sS'exec_cq'
p309
I42
sS'total_cq'
p310
I42
sasS'total_cqs'
p311
I42
ssI27
(dp312
S'iters'
p313
I3
sS'meta'
p314
(lp315
(dp316
S'objective'
p317
I323
sS'query_time'
p318
F22.65553617477417
sS'comp_time'
p319
F5.409724235534668
sS'exec_cq'
p320
I30
sS'total_cq'
p321
I30
sa(dp322
g317
I5
sg318
F0.9406859874725342
sg319
F6.3679609298706055
sg320
I5
sg321
I5
sa(dp323
g317
I20
sg318
F0.5364248752593994
sg319
F4.350174427032471
sg320
I2
sg321
I2
sasS'total_cqs'
p324
I30
ssI28
(dp325
S'iters'
p326
I0
sS'meta'
p327
(lp328
sS'total_cqs'
p329
I1
ssI29
(dp330
S'iters'
p331
I6
sS'meta'
p332
(lp333
(dp334
S'objective'
p335
I365
sS'query_time'
p336
F28.69132900238037
sS'comp_time'
p337
F0.6046380996704102
sS'exec_cq'
p338
I35
sS'total_cq'
p339
I49
sa(dp340
g335
I2
sg336
F0.024133920669555664
sg337
F0.22657203674316406
sg338
I17
sg339
I17
sa(dp341
g335
I6
sg336
F0.022943973541259766
sg337
F0.1012427806854248
sg338
I9
sg339
I9
sa(dp342
g335
I9
sg336
F0.010457038879394531
sg337
F0.06409168243408203
sg338
I5
sg339
I5
sa(dp343
g335
I12
sg336
F0.0015211105346679688
sg337
F0.010811090469360352
sg338
I3
sg339
I3
sa(dp344
g335
I8
sg336
F0.0010728836059570312
sg337
F0.009392023086547852
sg338
I2
sg339
I2
sasS'total_cqs'
p345
I49
ssI30
(dp346
S'iters'
p347
I1
sS'meta'
p348
(lp349
(dp350
S'objective'
p351
I1
sS'query_time'
p352
F0.640833854675293
sS'comp_time'
p353
F0.06453394889831543
sS'exec_cq'
p354
I2
sS'total_cq'
p355
I2
sasS'total_cqs'
p356
I2
ssI31
(dp357
S'iters'
p358
I0
sS'meta'
p359
(lp360
sS'total_cqs'
p361
I1
ssI32
(dp362
S'iters'
p363
I1
sS'meta'
p364
(lp365
(dp366
S'objective'
p367
I1
sS'query_time'
p368
F0.016473054885864258
sS'comp_time'
p369
F0.0015950202941894531
sS'exec_cq'
p370
I2
sS'total_cq'
p371
I2
sasS'total_cqs'
p372
I2
ssI33
(dp373
S'iters'
p374
I5
sS'meta'
p375
(lp376
(dp377
S'objective'
p378
I3750
sS'query_time'
p379
F15.676565885543823
sS'comp_time'
p380
F0.3567690849304199
sS'exec_cq'
p381
I103
sS'total_cq'
p382
I103
sa(dp383
g378
I1
sg379
F0.008879899978637695
sg380
F0.03404593467712402
sg381
I16
sg382
I16
sa(dp384
g378
I25
sg379
F0.0044689178466796875
sg380
F0.02358531951904297
sg381
I8
sg382
I8
sa(dp385
g378
I10
sg379
F0.001650094985961914
sg380
F0.014277935028076172
sg381
I4
sg382
I4
sa(dp386
g378
I45
sg379
F0.00016188621520996094
sg380
F0.0014946460723876953
sg381
I2
sg382
I2
sasS'total_cqs'
p387
I103
ssI34
(dp388
S'iters'
p389
I1
sS'meta'
p390
(lp391
(dp392
S'objective'
p393
I1
sS'query_time'
p394
F0.034631967544555664
sS'comp_time'
p395
F0.0010268688201904297
sS'exec_cq'
p396
I2
sS'total_cq'
p397
I2
sasS'total_cqs'
p398
I2
ssI35
(dp399
S'iters'
p400
I5
sS'meta'
p401
(lp402
(dp403
S'objective'
p404
I1519
sS'query_time'
p405
F22.161484003067017
sS'comp_time'
p406
F0.16739702224731445
sS'exec_cq'
p407
I50
sS'total_cq'
p408
I70
sa(dp409
g404
I51
sg405
F0.004939079284667969
sg406
F0.02090907096862793
sg407
I16
sg408
I16
sa(dp410
g404
I2
sg405
F0.0020799636840820312
sg406
F0.010400056838989258
sg407
I7
sg408
I7
sa(dp411
g404
I3
sg405
F0.0014209747314453125
sg406
F0.009088993072509766
sg407
I3
sg408
I3
sa(dp412
g404
I18
sg405
F0.0004279613494873047
sg406
F0.0054700374603271484
sg407
I2
sg408
I2
sasS'total_cqs'
p413
I70
ssI36
(dp414
S'iters'
p415
I2
sS'meta'
p416
(lp417
(dp418
S'objective'
p419
I423
sS'query_time'
p420
F0.6964919567108154
sS'comp_time'
p421
F0.018519163131713867
sS'exec_cq'
p422
I33
sS'total_cq'
p423
I33
sa(dp424
g419
I472
sg420
F0.006009101867675781
sg421
F0.005610227584838867
sg422
I28
sg423
I29
sasS'total_cqs'
p425
I33
ssI37
(dp426
S'iters'
p427
I1
sS'meta'
p428
(lp429
(dp430
S'objective'
p431
I1
sS'query_time'
p432
F0.006020069122314453
sS'comp_time'
p433
F0.0004029273986816406
sS'exec_cq'
p434
I2
sS'total_cq'
p435
I2
sasS'total_cqs'
p436
I2
ssI38
(dp437
S'iters'
p438
I2
sS'meta'
p439
(lp440
(dp441
S'objective'
p442
I0
sS'query_time'
p443
F0.024379968643188477
sS'comp_time'
p444
F0.0008907318115234375
sS'exec_cq'
p445
I4
sS'total_cq'
p446
I4
sa(dp447
g442
I1
sg443
F0.00010418891906738281
sg444
F0.0006947517395019531
sg445
I2
sg446
I2
sasS'total_cqs'
p448
I4
ssI39
(dp449
S'iters'
p450
I2
sS'meta'
p451
(lp452
(dp453
S'objective'
p454
I612
sS'query_time'
p455
F0.07346606254577637
sS'comp_time'
p456
F0.0027799606323242188
sS'exec_cq'
p457
I44
sS'total_cq'
p458
I44
sa(dp459
g454
I777
sg455
F0.0003631114959716797
sg456
F0.00292205810546875
sg457
I37
sg458
I37
sasS'total_cqs'
p460
I44
ssI40
(dp461
S'iters'
p462
I1
sS'meta'
p463
(lp464
(dp465
S'objective'
p466
I22
sS'query_time'
p467
F0.025882959365844727
sS'comp_time'
p468
F0.000370025634765625
sS'exec_cq'
p469
I7
sS'total_cq'
p470
I7
sasS'total_cqs'
p471
I7
ssI41
(dp472
S'iters'
p473
I1
sS'meta'
p474
(lp475
(dp476
S'objective'
p477
I70
sS'query_time'
p478
F0.057591915130615234
sS'comp_time'
p479
F0.0002129077911376953
sS'exec_cq'
p480
I12
sS'total_cq'
p481
I12
sasS'total_cqs'
p482
I12
ssI42
(dp483
S'iters'
p484
I3
sS'meta'
p485
(lp486
(dp487
S'objective'
p488
I827
sS'query_time'
p489
F0.029054880142211914
sS'comp_time'
p490
F0.0001678466796875
sS'exec_cq'
p491
I20
sS'total_cq'
p492
I41
sa(dp493
g488
I764
sg489
F0.018831968307495117
sg490
F0.00018858909606933594
sg491
I30
sg492
I40
sa(dp494
g488
I780
sg489
F0.00013589859008789062
sg490
F0.00012564659118652344
sg491
I29
sg492
I39
sasS'total_cqs'
p495
I41
ssI43
(dp496
S'iters'
p497
I1
sS'meta'
p498
(lp499
(dp500
S'objective'
p501
I22
sS'query_time'
p502
F0.021976947784423828
sS'comp_time'
p503
F0.00019311904907226562
sS'exec_cq'
p504
I7
sS'total_cq'
p505
I7
sasS'total_cqs'
p506
I7
ssI44
(dp507
S'iters'
p508
I5
sS'meta'
p509
(lp510
(dp511
S'objective'
p512
I778
sS'query_time'
p513
F0.11128807067871094
sS'comp_time'
p514
F0.0021810531616210938
sS'exec_cq'
p515
I47
sS'total_cq'
p516
I47
sa(dp517
g512
I859
sg513
F0.0003211498260498047
sg514
F0.0016100406646728516
sg515
I40
sg516
I40
sa(dp518
g512
I844
sg513
F0.0002200603485107422
sg514
F0.0011799335479736328
sg515
I39
sg516
I39
sa(dp519
g512
I3
sg513
F0.0001289844512939453
sg514
F0.0011491775512695312
sg515
I3
sg516
I3
sa(dp520
g512
I9
sg513
F0.00012612342834472656
sg514
F0.0010800361633300781
sg515
I2
sg516
I2
sasS'total_cqs'
p521
I47
ssI45
(dp522
S'iters'
p523
I0
sS'meta'
p524
(lp525
sS'total_cqs'
p526
I1
ssI46
(dp527
S'iters'
p528
I3
sS'meta'
p529
(lp530
(dp531
S'objective'
p532
I9
sS'query_time'
p533
F0.009516000747680664
sS'comp_time'
p534
F0.00086212158203125
sS'exec_cq'
p535
I4
sS'total_cq'
p536
I6
sa(dp537
g532
I5
sg533
F2.1219253540039062e-05
sg534
F0.00012302398681640625
sg535
I3
sg536
I5
sa(dp538
g532
I4
sg533
F0.004213094711303711
sg534
F0.00014925003051757812
sg535
I4
sg536
I4
sasS'total_cqs'
p539
I6
ssI47
(dp540
S'iters'
p541
I1
sS'meta'
p542
(lp543
(dp544
S'objective'
p545
I1
sS'query_time'
p546
F0.007055997848510742
sS'comp_time'
p547
F0.000431060791015625
sS'exec_cq'
p548
I2
sS'total_cq'
p549
I2
sasS'total_cqs'
p550
I2
ssI48
(dp551
S'iters'
p552
I0
sS'meta'
p553
(lp554
sS'total_cqs'
p555
I1
ssI49
(dp556
S'iters'
p557
I0
sS'meta'
p558
(lp559
sS'total_cqs'
p560
I1
ssI50
(dp561
S'iters'
p562
I3
sS'meta'
p563
(lp564
(dp565
S'objective'
p566
I5
sS'query_time'
p567
F0.020538806915283203
sS'comp_time'
p568
F0.0003249645233154297
sS'exec_cq'
p569
I5
sS'total_cq'
p570
I5
sa(dp571
g566
I2
sg567
F3.1948089599609375e-05
sg568
F0.0001690387725830078
sg569
I4
sg570
I4
sa(dp572
g566
I0
sg567
F2.193450927734375e-05
sg568
F0.00015783309936523438
sg569
I3
sg570
I3
sasS'total_cqs'
p573
I5
ssI51
(dp574
S'iters'
p575
I1
sS'meta'
p576
(lp577
(dp578
S'objective'
p579
I1
sS'query_time'
p580
F0.009046077728271484
sS'comp_time'
p581
F0.0014009475708007812
sS'exec_cq'
p582
I2
sS'total_cq'
p583
I2
sasS'total_cqs'
p584
I2
ssI52
(dp585
S'iters'
p586
I1
sS'meta'
p587
(lp588
(dp589
S'objective'
p590
I1
sS'query_time'
p591
F0.02238297462463379
sS'comp_time'
p592
F0.0005390644073486328
sS'exec_cq'
p593
I2
sS'total_cq'
p594
I2
sasS'total_cqs'
p595
I2
ssI53
(dp596
S'iters'
p597
I2
sS'meta'
p598
(lp599
(dp600
S'objective'
p601
I0
sS'query_time'
p602
F0.0247650146484375
sS'comp_time'
p603
F0.0010848045349121094
sS'exec_cq'
p604
I4
sS'total_cq'
p605
I4
sa(dp606
g601
I1
sg602
F8.893013000488281e-05
sg603
F0.0008981227874755859
sg604
I2
sg605
I2
sasS'total_cqs'
p607
I4
ssI54
(dp608
S'iters'
p609
I2
sS'meta'
p610
(lp611
(dp612
S'objective'
p613
I0
sS'query_time'
p614
F0.00780797004699707
sS'comp_time'
p615
F0.0004482269287109375
sS'exec_cq'
p616
I3
sS'total_cq'
p617
I3
sa(dp618
g613
I1
sg614
F4.100799560546875e-05
sg615
F0.0003783702850341797
sg616
I2
sg617
I2
sasS'total_cqs'
p619
I3
ssI55
(dp620
S'iters'
p621
I8
sS'meta'
p622
(lp623
(dp624
S'objective'
p625
I4725
sS'query_time'
p626
F2.3243601322174072
sS'comp_time'
p627
F0.07172107696533203
sS'exec_cq'
p628
I109
sS'total_cq'
p629
I109
sa(dp630
g625
I4838
sg626
F0.0009210109710693359
sg627
F0.003319978713989258
sg628
I97
sg629
I97
sa(dp631
g625
I4745
sg626
F0.00041985511779785156
sg627
F0.001543283462524414
sg628
I91
sg629
I91
sa(dp632
g625
I4638
sg626
F0.0004010200500488281
sg627
F0.001680135726928711
sg628
I87
sg629
I87
sa(dp633
g625
I4502
sg626
F0.0003459453582763672
sg627
F0.0014181137084960938
sg628
I85
sg629
I85
sa(dp634
g625
I4457
sg626
F0.00034809112548828125
sg627
F0.0011870861053466797
sg628
I83
sg629
I83
sa(dp635
g625
I4415
sg626
F0.0003459453582763672
sg627
F0.001085042953491211
sg628
I82
sg629
I82
sa(dp636
g625
I4424
sg626
F0.0002880096435546875
sg627
F0.0009338855743408203
sg628
I80
sg629
I80
sasS'total_cqs'
p637
I109
ssI56
(dp638
S'iters'
p639
I6
sS'meta'
p640
(lp641
(dp642
S'objective'
p643
I1816
sS'query_time'
p644
F1.5258731842041016
sS'comp_time'
p645
F0.031588077545166016
sS'exec_cq'
p646
I67
sS'total_cq'
p647
I76
sa(dp648
g643
I1
sg644
F0.006891012191772461
sg645
F0.026880979537963867
sg646
I16
sg647
I16
sa(dp649
g643
I8
sg644
F0.003365039825439453
sg645
F0.018786907196044922
sg646
I11
sg647
I11
sa(dp650
g643
I7
sg644
F0.0019140243530273438
sg645
F0.0083160400390625
sg646
I8
sg647
I8
sa(dp651
g643
I3
sg644
F0.0009238719940185547
sg645
F0.008867025375366211
sg646
I4
sg647
I4
sa(dp652
g643
I3
sg644
F0.0003809928894042969
sg645
F0.003854036331176758
sg646
I3
sg647
I3
sasS'total_cqs'
p653
I76
ssI57
(dp654
S'iters'
p655
I6
sS'meta'
p656
(lp657
(dp658
S'objective'
p659
I154
sS'query_time'
p660
F23.931575059890747
sS'comp_time'
p661
F0.05392813682556152
sS'exec_cq'
p662
I45
sS'total_cq'
p663
I51
sa(dp664
g659
I14
sg660
F0.01398611068725586
sg661
F0.049806833267211914
sg662
I27
sg663
I27
sa(dp665
g659
I89
sg660
F0.002485990524291992
sg661
F0.010586261749267578
sg662
I13
sg663
I13
sa(dp666
g659
I1
sg660
F0.0014810562133789062
sg661
F0.008821964263916016
sg662
I6
sg663
I6
sa(dp667
g659
I22
sg660
F0.0007350444793701172
sg661
F0.005981922149658203
sg662
I3
sg663
I3
sa(dp668
g659
I5
sg660
F0.0006909370422363281
sg661
F0.005896091461181641
sg662
I2
sg663
I2
sasS'total_cqs'
p669
I51
ssI58
(dp670
S'iters'
p671
I7
sS'meta'
p672
(lp673
(dp674
S'objective'
p675
I84005
sS'query_time'
p676
F114.00850915908813
sS'comp_time'
p677
F1.7028188705444336
sS'exec_cq'
p678
I348
sS'total_cq'
p679
I486
sa(dp680
g675
I86991
sg676
F0.03790903091430664
sg677
F0.18557119369506836
sg678
I276
sg679
I414
sa(dp681
g675
I73
sg676
F0.015470027923583984
sg677
F0.05254077911376953
sg678
I28
sg679
I28
sa(dp682
g675
I130
sg676
F0.0030660629272460938
sg677
F0.010376930236816406
sg678
I16
sg679
I16
sa(dp683
g675
I138
sg676
F0.0014998912811279297
sg677
F0.007424831390380859
sg678
I7
sg679
I7
sa(dp684
g675
I81
sg676
F0.001360177993774414
sg677
F0.005412101745605469
sg678
I3
sg679
I3
sa(dp685
g675
I224
sg676
F0.0003421306610107422
sg677
F0.002905130386352539
sg678
I2
sg679
I2
sasS'total_cqs'
p686
I486
ssI59
(dp687
S'iters'
p688
I2
sS'meta'
p689
(lp690
(dp691
S'objective'
p692
I10
sS'query_time'
p693
F0.03852200508117676
sS'comp_time'
p694
F0.014716863632202148
sS'exec_cq'
p695
I7
sS'total_cq'
p696
I7
sa(dp697
g692
I3
sg693
F0.00016808509826660156
sg694
F0.0018117427825927734
sg695
I2
sg696
I2
sasS'total_cqs'
p698
I7
ssI60
(dp699
S'iters'
p700
I4
sS'meta'
p701
(lp702
(dp703
S'objective'
p704
I7
sS'query_time'
p705
F0.013267040252685547
sS'comp_time'
p706
F0.00023484230041503906
sS'exec_cq'
p707
I3
sS'total_cq'
p708
I5
sa(dp709
g704
I9
sg705
F0.0013890266418457031
sg706
F0.00014400482177734375
sg707
I2
sg708
I4
sa(dp710
g704
I0
sg705
F6.890296936035156e-05
sg706
F0.0005524158477783203
sg707
I2
sg708
I3
sa(dp711
g704
I1
sg705
F9.059906005859375e-06
sg706
F7.700920104980469e-05
sg707
I1
sg708
I2
sasS'total_cqs'
p712
I5
ssI61
(dp713
S'iters'
p714
I0
sS'meta'
p715
(lp716
sS'total_cqs'
p717
I1
ssI62
(dp718
S'iters'
p719
I3
sS'meta'
p720
(lp721
(dp722
S'objective'
p723
I44
sS'query_time'
p724
F0.04578399658203125
sS'comp_time'
p725
F0.0007719993591308594
sS'exec_cq'
p726
I12
sS'total_cq'
p727
I12
sa(dp728
g723
I45
sg724
F0.00010085105895996094
sg725
F0.0002269744873046875
sg726
I9
sg727
I9
sa(dp729
g723
I45
sg724
F6.4849853515625e-05
sg725
F0.00021076202392578125
sg726
I8
sg727
I8
sasS'total_cqs'
p730
I12
ssI63
(dp731
S'iters'
p732
I0
sS'meta'
p733
(lp734
sS'total_cqs'
p735
I1
ssI64
(dp736
S'iters'
p737
I3
sS'meta'
p738
(lp739
(dp740
S'objective'
p741
I44
sS'query_time'
p742
F0.14004802703857422
sS'comp_time'
p743
F0.006283760070800781
sS'exec_cq'
p744
I12
sS'total_cq'
p745
I12
sa(dp746
g741
I1
sg742
F0.00019097328186035156
sg743
F0.0017771720886230469
sg744
I4
sg745
I4
sa(dp747
g741
I0
sg742
F8.893013000488281e-05
sg743
F0.0007350444793701172
sg744
I3
sg745
I3
sasS'total_cqs'
p748
I12
ssI65
(dp749
S'iters'
p750
I4
sS'meta'
p751
(lp752
(dp753
S'objective'
p754
I148
sS'query_time'
p755
F0.7826709747314453
sS'comp_time'
p756
F0.21477580070495605
sS'exec_cq'
p757
I27
sS'total_cq'
p758
I27
sa(dp759
g754
I5
sg755
F0.0021359920501708984
sg756
F0.01302194595336914
sg757
I7
sg758
I7
sa(dp760
g754
I5
sg755
F0.0002830028533935547
sg756
F0.0021848678588867188
sg757
I3
sg758
I3
sa(dp761
g754
I14
sg755
F0.0001399517059326172
sg756
F0.0017309188842773438
sg757
I2
sg758
I2
sasS'total_cqs'
p762
I27
ssI66
(dp763
S'iters'
p764
I0
sS'meta'
p765
(lp766
sS'total_cqs'
p767
I1
ssI67
(dp768
S'iters'
p769
I2
sS'meta'
p770
(lp771
(dp772
S'objective'
p773
I596
sS'query_time'
p774
F1.1327929496765137
sS'comp_time'
p775
F0.011399984359741211
sS'exec_cq'
p776
I35
sS'total_cq'
p777
I35
sa(dp778
g773
I3
sg774
F0.0011150836944580078
sg775
F0.01108407974243164
sg776
I2
sg777
I2
sasS'total_cqs'
p779
I35
ssI68
(dp780
S'iters'
p781
I0
sS'meta'
p782
(lp783
sS'total_cqs'
p784
I1
ssI69
(dp785
S'iters'
p786
I1
sS'meta'
p787
(lp788
(dp789
S'objective'
p790
I1298
sS'query_time'
p791
F0.10153698921203613
sS'comp_time'
p792
F0.00037932395935058594
sS'exec_cq'
p793
I51
sS'total_cq'
p794
I51
sasS'total_cqs'
p795
I51
ssI70
(dp796
S'iters'
p797
I2
sS'meta'
p798
(lp799
(dp800
S'objective'
p801
I13
sS'query_time'
p802
F0.010891914367675781
sS'comp_time'
p803
F0.0003516674041748047
sS'exec_cq'
p804
I6
sS'total_cq'
p805
I6
sa(dp806
g801
I11
sg802
F4.100799560546875e-05
sg803
F0.0003139972686767578
sg804
I5
sg805
I5
sasS'total_cqs'
p807
I6
ssI71
(dp808
S'iters'
p809
I7
sS'meta'
p810
(lp811
(dp812
S'objective'
p813
I3261
sS'query_time'
p814
F0.14488601684570312
sS'comp_time'
p815
F0.0011260509490966797
sS'exec_cq'
p816
I73
sS'total_cq'
p817
I85
sa(dp818
g813
I3104
sg814
F0.00030303001403808594
sg815
F0.0008809566497802734
sg816
I69
sg817
I81
sa(dp819
g813
I2937
sg814
F0.00025010108947753906
sg815
F0.0007710456848144531
sg816
I65
sg817
I77
sa(dp820
g813
I2915
sg814
F0.0002300739288330078
sg815
F0.000640869140625
sg816
I62
sg817
I74
sa(dp821
g813
I2846
sg814
F0.0002429485321044922
sg815
F0.0005419254302978516
sg816
I60
sg817
I72
sa(dp822
g813
I2813
sg814
F0.00019598007202148438
sg815
F0.00041794776916503906
sg816
I57
sg817
I69
sa(dp823
g813
I12
sg814
F4.100799560546875e-05
sg815
F0.0002899169921875
sg816
I3
sg817
I3
sasS'total_cqs'
p824
I85
ssI72
(dp825
S'iters'
p826
I3
sS'meta'
p827
(lp828
(dp829
S'objective'
p830
I2
sS'query_time'
p831
F0.31888699531555176
sS'comp_time'
p832
F0.005340099334716797
sS'exec_cq'
p833
I4
sS'total_cq'
p834
I8
sa(dp835
g830
I3
sg831
F0.024023056030273438
sg832
F0.00051116943359375
sg833
I4
sg834
I5
sa(dp836
g830
I4
sg831
F1.811981201171875e-05
sg832
F9.202957153320312e-05
sg833
I2
sg834
I3
sasS'total_cqs'
p837
I8
ssI73
(dp838
S'iters'
p839
I0
sS'meta'
p840
(lp841
sS'total_cqs'
p842
I1
ssI74
(dp843
S'iters'
p844
I0
sS'meta'
p845
(lp846
sS'total_cqs'
p847
I1
ssI75
(dp848
S'iters'
p849
I3
sS'meta'
p850
(lp851
(dp852
S'objective'
p853
I5
sS'query_time'
p854
F0.0064640045166015625
sS'comp_time'
p855
F0.0003180503845214844
sS'exec_cq'
p856
I5
sS'total_cq'
p857
I5
sa(dp858
g853
I2
sg854
F2.5987625122070312e-05
sg855
F0.0001289844512939453
sg856
I4
sg857
I4
sa(dp859
g853
I0
sg854
F2.09808349609375e-05
sg855
F0.00011801719665527344
sg856
I3
sg857
I3
sasS'total_cqs'
p860
I5
ssI76
(dp861
S'iters'
p862
I1
sS'meta'
p863
(lp864
(dp865
S'objective'
p866
I1
sS'query_time'
p867
F0.008485078811645508
sS'comp_time'
p868
F0.0007581710815429688
sS'exec_cq'
p869
I2
sS'total_cq'
p870
I2
sasS'total_cqs'
p871
I2
ssI77
(dp872
S'iters'
p873
I0
sS'meta'
p874
(lp875
sS'total_cqs'
p876
I1
ssI78
(dp877
S'iters'
p878
I0
sS'meta'
p879
(lp880
sS'total_cqs'
p881
I1
ssI103
(dp882
S'iters'
p883
I1
sS'meta'
p884
(lp885
(dp886
S'objective'
p887
I70
sS'query_time'
p888
F0.048493146896362305
sS'comp_time'
p889
F0.0003039836883544922
sS'exec_cq'
p890
I12
sS'total_cq'
p891
I12
sasS'total_cqs'
p892
I12
ssI104
(dp893
S'iters'
p894
I2
sS'meta'
p895
(lp896
(dp897
S'objective'
p898
I0
sS'query_time'
p899
F1.3083198070526123
sS'comp_time'
p900
F0.2191760540008545
sS'exec_cq'
p901
I4
sS'total_cq'
p902
I4
sa(dp903
g898
I1
sg899
F0.09990596771240234
sg900
F0.10127425193786621
sg901
I2
sg902
I2
sasS'total_cqs'
p904
I4
ssI105
(dp905
S'iters'
p906
I0
sS'meta'
p907
(lp908
sS'total_cqs'
p909
I1
ssI106
(dp910
S'iters'
p911
I1
sS'meta'
p912
(lp913
(dp914
S'objective'
p915
I6
sS'query_time'
p916
F0.025884151458740234
sS'comp_time'
p917
F0.00018095970153808594
sS'exec_cq'
p918
I4
sS'total_cq'
p919
I4
sasS'total_cqs'
p920
I4
ssI107
(dp921
S'iters'
p922
I2
sS'meta'
p923
(lp924
(dp925
S'objective'
p926
I96
sS'query_time'
p927
F0.04976010322570801
sS'comp_time'
p928
F0.0003490447998046875
sS'exec_cq'
p929
I16
sS'total_cq'
p930
I16
sa(dp931
g926
I10
sg927
F4.00543212890625e-05
sg928
F0.00022268295288085938
sg929
I3
sg930
I3
sasS'total_cqs'
p932
I16
ssI108
(dp933
S'iters'
p934
I0
sS'meta'
p935
(lp936
sS'total_cqs'
p937
I1
ss.