(dp0
I1
(dp1
S'iters'
p2
I1
sS'meta'
p3
(lp4
(dp5
S'objective'
p6
I54
sS'query_time'
p7
F0.016225099563598633
sS'comp_time'
p8
F8.296966552734375e-05
sS'exec_cq'
p9
I1
sS'total_cq'
p10
I12
sasS'total_cqs'
p11
I12
ssI2
(dp12
S'iters'
p13
I1
sS'meta'
p14
(lp15
(dp16
S'objective'
p17
I324
sS'query_time'
p18
F0.0230710506439209
sS'comp_time'
p19
F0.00010704994201660156
sS'exec_cq'
p20
I1
sS'total_cq'
p21
I27
sasS'total_cqs'
p22
I27
ssI3
(dp23
S'iters'
p24
I1
sS'meta'
p25
(lp26
(dp27
S'objective'
p28
I860
sS'query_time'
p29
F0.013545036315917969
sS'comp_time'
p30
F0.00010275840759277344
sS'exec_cq'
p31
I1
sS'total_cq'
p32
I43
sasS'total_cqs'
p33
I43
ssI4
(dp34
S'iters'
p35
I1
sS'meta'
p36
(lp37
(dp38
S'objective'
p39
I44
sS'query_time'
p40
F3.0286619663238525
sS'comp_time'
p41
F0.0009009838104248047
sS'exec_cq'
p42
I1
sS'total_cq'
p43
I11
sasS'total_cqs'
p44
I11
ssI5
(dp45
S'iters'
p46
I2
sS'meta'
p47
(lp48
(dp49
S'objective'
p50
I8
sS'query_time'
p51
F0.35127997398376465
sS'comp_time'
p52
F8.20159912109375e-05
sS'exec_cq'
p53
I1
sS'total_cq'
p54
I8
sa(dp55
g50
I2
sg51
F0.005906820297241211
sg52
F6.389617919921875e-05
sg53
I1
sg54
I4
sasS'total_cqs'
p56
I8
ssI6
(dp57
S'iters'
p58
I2
sS'meta'
p59
(lp60
(dp61
S'objective'
p62
I49
sS'query_time'
p63
F0.5474979877471924
sS'comp_time'
p64
F9.202957153320312e-05
sS'exec_cq'
p65
I1
sS'total_cq'
p66
I18
sa(dp67
g62
I25
sg63
F0.008941888809204102
sg64
F5.817413330078125e-05
sg65
I1
sg66
I6
sasS'total_cqs'
p68
I18
ssI7
(dp69
S'iters'
p70
I1
sS'meta'
p71
(lp72
(dp73
S'objective'
p74
I27
sS'query_time'
p75
F0.22819805145263672
sS'comp_time'
p76
F7.319450378417969e-05
sS'exec_cq'
p77
I1
sS'total_cq'
p78
I9
sasS'total_cqs'
p79
I9
ssI8
(dp80
S'iters'
p81
I2
sS'meta'
p82
(lp83
(dp84
S'objective'
p85
I294
sS'query_time'
p86
F0.02948617935180664
sS'comp_time'
p87
F0.0001010894775390625
sS'exec_cq'
p88
I1
sS'total_cq'
p89
I27
sa(dp90
g85
I12
sg86
F0.01349782943725586
sg87
F7.200241088867188e-05
sg88
I2
sg89
I2
sasS'total_cqs'
p91
I27
ssI9
(dp92
S'iters'
p93
I3
sS'meta'
p94
(lp95
(dp96
S'objective'
p97
I18
sS'query_time'
p98
F0.015719890594482422
sS'comp_time'
p99
F8.106231689453125e-05
sS'exec_cq'
p100
I1
sS'total_cq'
p101
I7
sa(dp102
g97
I1
sg98
F0.027332067489624023
sg99
F9.012222290039062e-05
sg100
I2
sg101
I5
sa(dp103
g97
I2
sg98
F0.002226114273071289
sg99
F5.91278076171875e-05
sg100
I2
sg101
I2
sasS'total_cqs'
p104
I7
ssI10
(dp105
S'iters'
p106
I3
sS'meta'
p107
(lp108
(dp109
S'objective'
p110
I656
sS'query_time'
p111
F0.04419898986816406
sS'comp_time'
p112
F0.00012493133544921875
sS'exec_cq'
p113
I1
sS'total_cq'
p114
I51
sa(dp115
g110
I47
sg111
F0.0543360710144043
sg112
F9.512901306152344e-05
sg113
I2
sg114
I12
sa(dp116
g110
I89
sg111
F0.009106159210205078
sg112
F6.985664367675781e-05
sg113
I2
sg114
I7
sasS'total_cqs'
p117
I51
ssI11
(dp118
S'iters'
p119
I4
sS'meta'
p120
(lp121
(dp122
S'objective'
p123
I1232
sS'query_time'
p124
F0.1092679500579834
sS'comp_time'
p125
F0.00013709068298339844
sS'exec_cq'
p126
I1
sS'total_cq'
p127
I63
sa(dp128
g123
I270
sg124
F0.06974077224731445
sg125
F8.106231689453125e-05
sg126
I2
sg127
I9
sa(dp129
g123
I211
sg124
F0.04746890068054199
sg125
F7.581710815429688e-05
sg126
I2
sg127
I8
sa(dp130
g123
I145
sg124
F0.007666826248168945
sg125
F7.009506225585938e-05
sg126
I2
sg127
I7
sasS'total_cqs'
p131
I63
ssI12
(dp132
S'iters'
p133
I4
sS'meta'
p134
(lp135
(dp136
S'objective'
p137
I783
sS'query_time'
p138
F0.0732870101928711
sS'comp_time'
p139
F0.00011587142944335938
sS'exec_cq'
p140
I1
sS'total_cq'
p141
I50
sa(dp142
g137
I36
sg138
F0.03059697151184082
sg139
F9.799003601074219e-05
sg140
I2
sg141
I8
sa(dp143
g137
I3
sg138
F0.004698991775512695
sg139
F4.792213439941406e-05
sg140
I2
sg141
I4
sa(dp144
g137
I46
sg138
F0.0021250247955322266
sg139
F4.410743713378906e-05
sg140
I2
sg141
I2
sasS'total_cqs'
p145
I50
ssI13
(dp146
S'iters'
p147
I2
sS'meta'
p148
(lp149
(dp150
S'objective'
p151
I60
sS'query_time'
p152
F0.0292360782623291
sS'comp_time'
p153
F9.202957153320312e-05
sS'exec_cq'
p154
I1
sS'total_cq'
p155
I20
sa(dp156
g151
I95
sg152
F0.02704000473022461
sg153
F7.700920104980469e-05
sg154
I2
sg155
I11
sasS'total_cqs'
p157
I20
ssI14
(dp158
S'iters'
p159
I2
sS'meta'
p160
(lp161
(dp162
S'objective'
p163
I9
sS'query_time'
p164
F0.378497838973999
sS'comp_time'
p165
F8.678436279296875e-05
sS'exec_cq'
p166
I1
sS'total_cq'
p167
I9
sa(dp168
g163
I0
sg164
F0.009154081344604492
sg165
F6.079673767089844e-05
sg166
I1
sg167
I3
sasS'total_cqs'
p169
I9
ssI15
(dp170
S'iters'
p171
I1
sS'meta'
p172
(lp173
(dp174
S'objective'
p175
I44
sS'query_time'
p176
F0.048719167709350586
sS'comp_time'
p177
F8.0108642578125e-05
sS'exec_cq'
p178
I1
sS'total_cq'
p179
I11
sasS'total_cqs'
p180
I11
ssI16
(dp181
S'iters'
p182
I1
sS'meta'
p183
(lp184
(dp185
S'objective'
p186
I20
sS'query_time'
p187
F0.010303974151611328
sS'comp_time'
p188
F7.319450378417969e-05
sS'exec_cq'
p189
I1
sS'total_cq'
p190
I8
sasS'total_cqs'
p191
I8
ssI17
(dp192
S'iters'
p193
I1
sS'meta'
p194
(lp195
(dp196
S'objective'
p197
I44
sS'query_time'
p198
F0.027942895889282227
sS'comp_time'
p199
F8.797645568847656e-05
sS'exec_cq'
p200
I1
sS'total_cq'
p201
I11
sasS'total_cqs'
p202
I11
ssI18
(dp203
S'iters'
p204
I1
sS'meta'
p205
(lp206
(dp207
S'objective'
p208
I44
sS'query_time'
p209
F0.01742696762084961
sS'comp_time'
p210
F7.915496826171875e-05
sS'exec_cq'
p211
I1
sS'total_cq'
p212
I11
sasS'total_cqs'
p213
I11
ssI19
(dp214
S'iters'
p215
I0
sS'meta'
p216
(lp217
sS'total_cqs'
p218
I1
ssI20
(dp219
S'iters'
p220
I0
sS'meta'
p221
(lp222
sS'total_cqs'
p223
I1
ssI21
(dp224
S'iters'
p225
I0
sS'meta'
p226
(lp227
sS'total_cqs'
p228
I1
ssI22
(dp229
S'iters'
p230
I1
sS'meta'
p231
(lp232
(dp233
S'objective'
p234
I135
sS'query_time'
p235
F0.04387307167053223
sS'comp_time'
p236
F0.00010180473327636719
sS'exec_cq'
p237
I1
sS'total_cq'
p238
I18
sasS'total_cqs'
p239
I18
ssI23
(dp240
S'iters'
p241
I1
sS'meta'
p242
(lp243
(dp244
S'objective'
p245
I104
sS'query_time'
p246
F0.014155864715576172
sS'comp_time'
p247
F8.487701416015625e-05
sS'exec_cq'
p248
I1
sS'total_cq'
p249
I16
sasS'total_cqs'
p250
I16
ssI24
(dp251
S'iters'
p252
I0
sS'meta'
p253
(lp254
sS'total_cqs'
p255
I1
ssI25
(dp256
S'iters'
p257
I0
sS'meta'
p258
(lp259
sS'total_cqs'
p260
I1
ssI26
(dp261
S'iters'
p262
I1
sS'meta'
p263
(lp264
(dp265
S'objective'
p266
I819
sS'query_time'
p267
F0.045819997787475586
sS'comp_time'
p268
F9.679794311523438e-05
sS'exec_cq'
p269
I1
sS'total_cq'
p270
I42
sasS'total_cqs'
p271
I42
ssI27
(dp272
S'iters'
p273
I2
sS'meta'
p274
(lp275
(dp276
S'objective'
p277
I393
sS'query_time'
p278
F2.789597988128662
sS'comp_time'
p279
F0.00012731552124023438
sS'exec_cq'
p280
I1
sS'total_cq'
p281
I30
sa(dp282
g277
I24
sg278
F1214.592563867569
sg279
F0.00010895729064941406
sg280
I2
sg281
I2
sasS'total_cqs'
p283
I30
ssI28
(dp284
S'iters'
p285
I0
sS'meta'
p286
(lp287
sS'total_cqs'
p288
I1
ssI29
(dp289
S'iters'
p290
I4
sS'meta'
p291
(lp292
(dp293
S'objective'
p294
I821
sS'query_time'
p295
F0.4807310104370117
sS'comp_time'
p296
F0.00013685226440429688
sS'exec_cq'
p297
I1
sS'total_cq'
p298
I49
sa(dp299
g294
I24
sg295
F0.05410504341125488
sg296
F0.00010085105895996094
sg297
I1
sg298
I6
sa(dp300
g294
I75
sg295
F0.03885602951049805
sg296
F0.00013399124145507812
sg297
I1
sg298
I3
sa(dp301
g294
I4
sg295
F0.05104398727416992
sg296
F0.00012087821960449219
sg297
I1
sg298
I2
sasS'total_cqs'
p302
I49
ssI30
(dp303
S'iters'
p304
I1
sS'meta'
p305
(lp306
(dp307
S'objective'
p308
I1
sS'query_time'
p309
F0.5651259422302246
sS'comp_time'
p310
F8.487701416015625e-05
sS'exec_cq'
p311
I1
sS'total_cq'
p312
I2
sasS'total_cqs'
p313
I2
ssI31
(dp314
S'iters'
p315
I0
sS'meta'
p316
(lp317
sS'total_cqs'
p318
I1
ssI32
(dp319
S'iters'
p320
I1
sS'meta'
p321
(lp322
(dp323
S'objective'
p324
I1
sS'query_time'
p325
F0.008467912673950195
sS'comp_time'
p326
F7.605552673339844e-05
sS'exec_cq'
p327
I1
sS'total_cq'
p328
I2
sasS'total_cqs'
p329
I2
ssI33
(dp330
S'iters'
p331
I2
sS'meta'
p332
(lp333
(dp334
S'objective'
p335
I4974
sS'query_time'
p336
F0.6253540515899658
sS'comp_time'
p337
F0.0002009868621826172
sS'exec_cq'
p338
I1
sS'total_cq'
p339
I103
sa(dp340
g335
I15
sg336
F0.035943031311035156
sg337
F6.604194641113281e-05
sg338
I1
sg339
I3
sasS'total_cqs'
p341
I103
ssI34
(dp342
S'iters'
p343
I1
sS'meta'
p344
(lp345
(dp346
S'objective'
p347
I1
sS'query_time'
p348
F0.012373208999633789
sS'comp_time'
p349
F6.985664367675781e-05
sS'exec_cq'
p350
I1
sS'total_cq'
p351
I2
sasS'total_cqs'
p352
I2
ssI35
(dp353
S'iters'
p354
I2
sS'meta'
p355
(lp356
(dp357
S'objective'
p358
I2225
sS'query_time'
p359
F0.44246602058410645
sS'comp_time'
p360
F0.0001289844512939453
sS'exec_cq'
p361
I1
sS'total_cq'
p362
I70
sa(dp363
g358
I10
sg359
F0.017054080963134766
sg360
F7.796287536621094e-05
sg361
I1
sg362
I3
sasS'total_cqs'
p364
I70
ssI36
(dp365
S'iters'
p366
I1
sS'meta'
p367
(lp368
(dp369
S'objective'
p370
I495
sS'query_time'
p371
F0.054615020751953125
sS'comp_time'
p372
F9.608268737792969e-05
sS'exec_cq'
p373
I1
sS'total_cq'
p374
I33
sasS'total_cqs'
p375
I33
ssI37
(dp376
S'iters'
p377
I1
sS'meta'
p378
(lp379
(dp380
S'objective'
p381
I1
sS'query_time'
p382
F0.007484912872314453
sS'comp_time'
p383
F7.414817810058594e-05
sS'exec_cq'
p384
I1
sS'total_cq'
p385
I2
sasS'total_cqs'
p386
I2
ssI38
(dp387
S'iters'
p388
I1
sS'meta'
p389
(lp390
(dp391
S'objective'
p392
I2
sS'query_time'
p393
F0.015582084655761719
sS'comp_time'
p394
F6.914138793945312e-05
sS'exec_cq'
p395
I1
sS'total_cq'
p396
I4
sasS'total_cqs'
p397
I4
ssI39
(dp398
S'iters'
p399
I1
sS'meta'
p400
(lp401
(dp402
S'objective'
p403
I902
sS'query_time'
p404
F0.07373690605163574
sS'comp_time'
p405
F0.00011396408081054688
sS'exec_cq'
p406
I1
sS'total_cq'
p407
I44
sasS'total_cqs'
p408
I44
ssI40
(dp409
S'iters'
p410
I1
sS'meta'
p411
(lp412
(dp413
S'objective'
p414
I14
sS'query_time'
p415
F0.014678001403808594
sS'comp_time'
p416
F8.177757263183594e-05
sS'exec_cq'
p417
I1
sS'total_cq'
p418
I7
sasS'total_cqs'
p419
I7
ssI41
(dp420
S'iters'
p421
I1
sS'meta'
p422
(lp423
(dp424
S'objective'
p425
I54
sS'query_time'
p426
F0.019596099853515625
sS'comp_time'
p427
F8.296966552734375e-05
sS'exec_cq'
p428
I1
sS'total_cq'
p429
I12
sasS'total_cqs'
p430
I12
ssI42
(dp431
S'iters'
p432
I1
sS'meta'
p433
(lp434
(dp435
S'objective'
p436
I779
sS'query_time'
p437
F0.036936044692993164
sS'comp_time'
p438
F0.00011014938354492188
sS'exec_cq'
p439
I1
sS'total_cq'
p440
I41
sasS'total_cqs'
p441
I41
ssI43
(dp442
S'iters'
p443
I1
sS'meta'
p444
(lp445
(dp446
S'objective'
p447
I14
sS'query_time'
p448
F0.011633157730102539
sS'comp_time'
p449
F7.486343383789062e-05
sS'exec_cq'
p450
I1
sS'total_cq'
p451
I7
sasS'total_cqs'
p452
I7
ssI44
(dp453
S'iters'
p454
I2
sS'meta'
p455
(lp456
(dp457
S'objective'
p458
I972
sS'query_time'
p459
F0.04477405548095703
sS'comp_time'
p460
F0.00012111663818359375
sS'exec_cq'
p461
I1
sS'total_cq'
p462
I47
sa(dp463
g458
I16
sg459
F0.02717900276184082
sg460
F8.0108642578125e-05
sg461
I2
sg462
I2
sasS'total_cqs'
p464
I47
ssI45
(dp465
S'iters'
p466
I0
sS'meta'
p467
(lp468
sS'total_cqs'
p469
I1
ssI46
(dp470
S'iters'
p471
I1
sS'meta'
p472
(lp473
(dp474
S'objective'
p475
I9
sS'query_time'
p476
F0.006737947463989258
sS'comp_time'
p477
F6.008148193359375e-05
sS'exec_cq'
p478
I1
sS'total_cq'
p479
I6
sasS'total_cqs'
p480
I6
ssI47
(dp481
S'iters'
p482
I1
sS'meta'
p483
(lp484
(dp485
S'objective'
p486
I1
sS'query_time'
p487
F0.005377054214477539
sS'comp_time'
p488
F6.604194641113281e-05
sS'exec_cq'
p489
I1
sS'total_cq'
p490
I2
sasS'total_cqs'
p491
I2
ssI48
(dp492
S'iters'
p493
I0
sS'meta'
p494
(lp495
sS'total_cqs'
p496
I1
ssI49
(dp497
S'iters'
p498
I0
sS'meta'
p499
(lp500
sS'total_cqs'
p501
I1
ssI50
(dp502
S'iters'
p503
I1
sS'meta'
p504
(lp505
(dp506
S'objective'
p507
I5
sS'query_time'
p508
F0.0044629573822021484
sS'comp_time'
p509
F5.793571472167969e-05
sS'exec_cq'
p510
I1
sS'total_cq'
p511
I5
sasS'total_cqs'
p512
I5
ssI51
(dp513
S'iters'
p514
I1
sS'meta'
p515
(lp516
(dp517
S'objective'
p518
I1
sS'query_time'
p519
F0.00531005859375
sS'comp_time'
p520
F6.008148193359375e-05
sS'exec_cq'
p521
I1
sS'total_cq'
p522
I2
sasS'total_cqs'
p523
I2
ssI52
(dp524
S'iters'
p525
I1
sS'meta'
p526
(lp527
(dp528
S'objective'
p529
I1
sS'query_time'
p530
F0.006222963333129883
sS'comp_time'
p531
F6.604194641113281e-05
sS'exec_cq'
p532
I1
sS'total_cq'
p533
I2
sasS'total_cqs'
p534
I2
ssI53
(dp535
S'iters'
p536
I2
sS'meta'
p537
(lp538
(dp539
S'objective'
p540
I0
sS'query_time'
p541
F0.011353015899658203
sS'comp_time'
p542
F0.00013709068298339844
sS'exec_cq'
p543
I1
sS'total_cq'
p544
I4
sa(dp545
g540
I3
sg541
F0.0013790130615234375
sg542
F5.412101745605469e-05
sg543
I1
sg544
I2
sasS'total_cqs'
p546
I4
ssI54
(dp547
S'iters'
p548
I1
sS'meta'
p549
(lp550
(dp551
S'objective'
p552
I0
sS'query_time'
p553
F0.007319927215576172
sS'comp_time'
p554
F7.915496826171875e-05
sS'exec_cq'
p555
I1
sS'total_cq'
p556
I3
sasS'total_cqs'
p557
I3
ssI55
(dp558
S'iters'
p559
I3
sS'meta'
p560
(lp561
(dp562
S'objective'
p563
I5445
sS'query_time'
p564
F0.1715831756591797
sS'comp_time'
p565
F0.00016999244689941406
sS'exec_cq'
p566
I1
sS'total_cq'
p567
I109
sa(dp568
g563
I79
sg564
F0.004631996154785156
sg565
F4.673004150390625e-05
sg566
I1
sg567
I3
sa(dp569
g563
I41
sg564
F0.003419160842895508
sg565
F4.38690185546875e-05
sg566
I1
sg567
I2
sasS'total_cqs'
p570
I109
ssI56
(dp571
S'iters'
p572
I1
sS'meta'
p573
(lp574
(dp575
S'objective'
p576
I2774
sS'query_time'
p577
F0.23773503303527832
sS'comp_time'
p578
F0.0001506805419921875
sS'exec_cq'
p579
I1
sS'total_cq'
p580
I76
sasS'total_cqs'
p581
I76
ssI57
(dp582
S'iters'
p583
I2
sS'meta'
p584
(lp585
(dp586
S'objective'
p587
I882
sS'query_time'
p588
F0.3746371269226074
sS'comp_time'
p589
F0.000141143798828125
sS'exec_cq'
p590
I1
sS'total_cq'
p591
I51
sa(dp592
g587
I120
sg588
F0.11484193801879883
sg589
F9.202957153320312e-05
sg590
I1
sg591
I10
sasS'total_cqs'
p593
I51
ssI58
(dp594
S'iters'
p595
I1
sS'meta'
p596
(lp597
(dp598
S'objective'
p599
I117369
sS'query_time'
p600
F1.9078190326690674
sS'comp_time'
p601
F0.0007250308990478516
sS'exec_cq'
p602
I1
sS'total_cq'
p603
I486
sasS'total_cqs'
p604
I486
ssI59
(dp605
S'iters'
p606
I2
sS'meta'
p607
(lp608
(dp609
S'objective'
p610
I10
sS'query_time'
p611
F0.01954483985900879
sS'comp_time'
p612
F7.62939453125e-05
sS'exec_cq'
p613
I1
sS'total_cq'
p614
I7
sa(dp615
g610
I5
sg611
F0.03496813774108887
sg612
F7.200241088867188e-05
sg613
I2
sg614
I2
sasS'total_cqs'
p616
I7
ssI60
(dp617
S'iters'
p618
I1
sS'meta'
p619
(lp620
(dp621
S'objective'
p622
I5
sS'query_time'
p623
F0.0055201053619384766
sS'comp_time'
p624
F5.602836608886719e-05
sS'exec_cq'
p625
I1
sS'total_cq'
p626
I5
sasS'total_cqs'
p627
I5
ssI61
(dp628
S'iters'
p629
I0
sS'meta'
p630
(lp631
sS'total_cqs'
p632
I1
ssI62
(dp633
S'iters'
p634
I1
sS'meta'
p635
(lp636
(dp637
S'objective'
p638
I54
sS'query_time'
p639
F0.013231039047241211
sS'comp_time'
p640
F7.700920104980469e-05
sS'exec_cq'
p641
I1
sS'total_cq'
p642
I12
sasS'total_cqs'
p643
I12
ssI63
(dp644
S'iters'
p645
I0
sS'meta'
p646
(lp647
sS'total_cqs'
p648
I1
ssI64
(dp649
S'iters'
p650
I4
sS'meta'
p651
(lp652
(dp653
S'objective'
p654
I14
sS'query_time'
p655
F0.02728104591369629
sS'comp_time'
p656
F8.916854858398438e-05
sS'exec_cq'
p657
I1
sS'total_cq'
p658
I12
sa(dp659
g654
I10
sg655
F0.015438079833984375
sg656
F7.390975952148438e-05
sg657
I1
sg658
I5
sa(dp660
g654
I6
sg655
F0.0028009414672851562
sg656
F5.4836273193359375e-05
sg657
I1
sg658
I3
sa(dp661
g654
I7
sg655
F0.0011909008026123047
sg656
F6.508827209472656e-05
sg657
I1
sg658
I2
sasS'total_cqs'
p662
I12
ssI65
(dp663
S'iters'
p664
I2
sS'meta'
p665
(lp666
(dp667
S'objective'
p668
I246
sS'query_time'
p669
F0.035273075103759766
sS'comp_time'
p670
F0.00010180473327636719
sS'exec_cq'
p671
I1
sS'total_cq'
p672
I27
sa(dp673
g668
I12
sg669
F0.004915952682495117
sg670
F5.8650970458984375e-05
sg671
I1
sg672
I3
sasS'total_cqs'
p674
I27
ssI66
(dp675
S'iters'
p676
I0
sS'meta'
p677
(lp678
sS'total_cqs'
p679
I1
ssI67
(dp680
S'iters'
p681
I1
sS'meta'
p682
(lp683
(dp684
S'objective'
p685
I560
sS'query_time'
p686
F0.5844800472259521
sS'comp_time'
p687
F0.00011706352233886719
sS'exec_cq'
p688
I1
sS'total_cq'
p689
I35
sasS'total_cqs'
p690
I35
ssI68
(dp691
S'iters'
p692
I0
sS'meta'
p693
(lp694
sS'total_cqs'
p695
I1
ssI69
(dp696
S'iters'
p697
I1
sS'meta'
p698
(lp699
(dp700
S'objective'
p701
I1224
sS'query_time'
p702
F0.08066105842590332
sS'comp_time'
p703
F0.00010895729064941406
sS'exec_cq'
p704
I1
sS'total_cq'
p705
I51
sasS'total_cqs'
p706
I51
ssI70
(dp707
S'iters'
p708
I1
sS'meta'
p709
(lp710
(dp711
S'objective'
p712
I9
sS'query_time'
p713
F0.008626937866210938
sS'comp_time'
p714
F6.222724914550781e-05
sS'exec_cq'
p715
I1
sS'total_cq'
p716
I6
sasS'total_cqs'
p717
I6
ssI71
(dp718
S'iters'
p719
I1
sS'meta'
p720
(lp721
(dp722
S'objective'
p723
I3485
sS'query_time'
p724
F0.06904101371765137
sS'comp_time'
p725
F0.00014209747314453125
sS'exec_cq'
p726
I1
sS'total_cq'
p727
I85
sasS'total_cqs'
p728
I85
ssI72
(dp729
S'iters'
p730
I1
sS'meta'
p731
(lp732
(dp733
S'objective'
p734
I20
sS'query_time'
p735
F0.008288860321044922
sS'comp_time'
p736
F7.104873657226562e-05
sS'exec_cq'
p737
I1
sS'total_cq'
p738
I8
sasS'total_cqs'
p739
I8
ssI73
(dp740
S'iters'
p741
I0
sS'meta'
p742
(lp743
sS'total_cqs'
p744
I1
ssI74
(dp745
S'iters'
p746
I0
sS'meta'
p747
(lp748
sS'total_cqs'
p749
I1
ssI75
(dp750
S'iters'
p751
I1
sS'meta'
p752
(lp753
(dp754
S'objective'
p755
I5
sS'query_time'
p756
F0.004382133483886719
sS'comp_time'
p757
F6.222724914550781e-05
sS'exec_cq'
p758
I1
sS'total_cq'
p759
I5
sasS'total_cqs'
p760
I5
ssI76
(dp761
S'iters'
p762
I1
sS'meta'
p763
(lp764
(dp765
S'objective'
p766
I1
sS'query_time'
p767
F0.009406805038452148
sS'comp_time'
p768
F7.104873657226562e-05
sS'exec_cq'
p769
I1
sS'total_cq'
p770
I2
sasS'total_cqs'
p771
I2
ssI77
(dp772
S'iters'
p773
I0
sS'meta'
p774
(lp775
sS'total_cqs'
p776
I1
ssI78
(dp777
S'iters'
p778
I0
sS'meta'
p779
(lp780
sS'total_cqs'
p781
I1
ssI103
(dp782
S'iters'
p783
I1
sS'meta'
p784
(lp785
(dp786
S'objective'
p787
I54
sS'query_time'
p788
F0.03030991554260254
sS'comp_time'
p789
F7.390975952148438e-05
sS'exec_cq'
p790
I1
sS'total_cq'
p791
I12
sasS'total_cqs'
p792
I12
ssI104
(dp793
S'iters'
p794
I1
sS'meta'
p795
(lp796
(dp797
S'objective'
p798
I2
sS'query_time'
p799
F1.0970029830932617
sS'comp_time'
p800
F7.200241088867188e-05
sS'exec_cq'
p801
I1
sS'total_cq'
p802
I4
sasS'total_cqs'
p803
I4
ssI105
(dp804
S'iters'
p805
I0
sS'meta'
p806
(lp807
sS'total_cqs'
p808
I1
ssI106
(dp809
S'iters'
p810
I1
sS'meta'
p811
(lp812
(dp813
S'objective'
p814
I2
sS'query_time'
p815
F0.011635065078735352
sS'comp_time'
p816
F5.793571472167969e-05
sS'exec_cq'
p817
I1
sS'total_cq'
p818
I4
sasS'total_cqs'
p819
I4
ssI107
(dp820
S'iters'
p821
I1
sS'meta'
p822
(lp823
(dp824
S'objective'
p825
I104
sS'query_time'
p826
F0.03729104995727539
sS'comp_time'
p827
F9.584426879882812e-05
sS'exec_cq'
p828
I1
sS'total_cq'
p829
I16
sasS'total_cqs'
p830
I16
ssI108
(dp831
S'iters'
p832
I0
sS'meta'
p833
(lp834
sS'total_cqs'
p835
I1
ss.