(dp0
I1
(dp1
S'iters'
p2
I3
sS'meta'
p3
(lp4
(dp5
S'objective'
p6
I48
sS'query_time'
p7
F0.03168296813964844
sS'comp_time'
p8
F0.015978097915649414
sS'exec_cq'
p9
I12
sS'total_cq'
p10
I12
sa(dp11
g6
I43
sg7
F5.888938903808594e-05
sg8
F0.00017523765563964844
sg9
I10
sg10
I10
sa(dp12
g6
I39
sg7
F4.792213439941406e-05
sg8
F0.00013065338134765625
sg9
I9
sg10
I9
sasS'total_cqs'
p13
I12
ssI2
(dp14
S'iters'
p15
I6
sS'meta'
p16
(lp17
(dp18
S'objective'
p19
I252
sS'query_time'
p20
F0.2656259536743164
sS'comp_time'
p21
F0.03233981132507324
sS'exec_cq'
p22
I27
sS'total_cq'
p23
I27
sa(dp24
g19
I239
sg20
F0.00019598007202148438
sg21
F0.0007922649383544922
sg22
I23
sg23
I23
sa(dp25
g19
I217
sg20
F0.00012493133544921875
sg21
F0.0004153251647949219
sg22
I20
sg23
I20
sa(dp26
g19
I201
sg20
F0.00010395050048828125
sg21
F0.000377655029296875
sg22
I18
sg23
I18
sa(dp27
g19
I190
sg20
F0.00010013580322265625
sg21
F0.0002200603485107422
sg22
I16
sg23
I16
sa(dp28
g19
I177
sg20
F7.677078247070312e-05
sg21
F0.00014781951904296875
sg22
I15
sg23
I15
sasS'total_cqs'
p29
I27
ssI3
(dp30
S'iters'
p31
I4
sS'meta'
p32
(lp33
(dp34
S'objective'
p35
I496
sS'query_time'
p36
F184.71552801132202
sS'comp_time'
p37
F1.1205105781555176
sS'exec_cq'
p38
I30
sS'total_cq'
p39
I43
sa(dp40
g35
I369
sg36
F0.11536002159118652
sg37
F0.006947994232177734
sg38
I16
sg39
I36
sa(dp41
g35
I465
sg36
F54.02070999145508
sg37
F0.5714025497436523
sg38
I28
sg39
I28
sa(dp42
g35
I459
sg36
F0.01036381721496582
sg37
F0.00023674964904785156
sg38
I25
sg39
I25
sasS'total_cqs'
p43
I43
ssI4
(dp44
S'iters'
p45
I2
sS'meta'
p46
(lp47
(dp48
S'objective'
p49
I34
sS'query_time'
p50
F4.656698942184448
sS'comp_time'
p51
F0.32073092460632324
sS'exec_cq'
p52
I11
sS'total_cq'
p53
I11
sa(dp54
g49
I2
sg50
F0.16885614395141602
sg51
F0.24953389167785645
sg52
I2
sg53
I2
sasS'total_cqs'
p55
I11
ssI5
(dp56
S'iters'
p57
I3
sS'meta'
p58
(lp59
(dp60
S'objective'
p61
I0
sS'query_time'
p62
F34.39331817626953
sS'comp_time'
p63
F3.7539920806884766
sS'exec_cq'
p64
I8
sS'total_cq'
p65
I8
sa(dp66
g61
I0
sg62
F0.08883404731750488
sg63
F0.5087218284606934
sg64
I5
sg65
I5
sa(dp67
g61
I1
sg62
F0.0040471553802490234
sg63
F0.005827903747558594
sg64
I2
sg65
I2
sasS'total_cqs'
p68
I8
ssI6
(dp69
S'iters'
p70
I4
sS'meta'
p71
(lp72
(dp73
S'objective'
p74
I49
sS'query_time'
p75
F37.46104598045349
sS'comp_time'
p76
F1.5478239059448242
sS'exec_cq'
p77
I18
sS'total_cq'
p78
I18
sa(dp79
g74
I1
sg75
F0.6804330348968506
sg76
F4.974045038223267
sg77
I7
sg78
I7
sa(dp80
g74
I7
sg75
F0.5259308815002441
sg76
F0.5818748474121094
sg77
I4
sg78
I4
sa(dp81
g74
I1
sg75
F0.011281013488769531
sg76
F0.020209074020385742
sg77
I2
sg78
I2
sasS'total_cqs'
p82
I18
ssI7
(dp83
S'iters'
p84
I3
sS'meta'
p85
(lp86
(dp87
S'objective'
p88
I1
sS'query_time'
p89
F12.38236403465271
sS'comp_time'
p90
F1.6035802364349365
sS'exec_cq'
p91
I9
sS'total_cq'
p92
I9
sa(dp93
g88
I0
sg89
F0.03871488571166992
sg90
F0.22980237007141113
sg91
I5
sg92
I5
sa(dp94
g88
I1
sg89
F0.021598100662231445
sg90
F0.0404210090637207
sg91
I2
sg92
I2
sasS'total_cqs'
p95
I9
ssI8
(dp96
S'iters'
p97
I4
sS'meta'
p98
(lp99
(dp100
S'objective'
p101
I254
sS'query_time'
p102
F0.17975401878356934
sS'comp_time'
p103
F0.0300753116607666
sS'exec_cq'
p104
I27
sS'total_cq'
p105
I27
sa(dp106
g101
I220
sg102
F0.00019097328186035156
sg103
F0.0006630420684814453
sg104
I22
sg105
I22
sa(dp107
g101
I214
sg102
F7.581710815429688e-05
sg103
F0.0002231597900390625
sg104
I19
sg105
I19
sa(dp108
g101
I211
sg102
F6.794929504394531e-05
sg103
F0.00011515617370605469
sg104
I18
sg105
I18
sasS'total_cqs'
p109
I27
ssI9
(dp110
S'iters'
p111
I3
sS'meta'
p112
(lp113
(dp114
S'objective'
p115
I4
sS'query_time'
p116
F0.0784151554107666
sS'comp_time'
p117
F0.00521397590637207
sS'exec_cq'
p118
I7
sS'total_cq'
p119
I7
sa(dp120
g115
I2
sg116
F2.9087066650390625e-05
sg117
F0.00020575523376464844
sg118
I4
sg119
I4
sa(dp121
g115
I3
sg116
F1.4066696166992188e-05
sg117
F6.079673767089844e-05
sg118
I2
sg119
I2
sasS'total_cqs'
p122
I7
ssI10
(dp123
S'iters'
p124
I6
sS'meta'
p125
(lp126
(dp127
S'objective'
p128
I542
sS'query_time'
p129
F0.36017417907714844
sS'comp_time'
p130
F0.09017586708068848
sS'exec_cq'
p131
I51
sS'total_cq'
p132
I51
sa(dp133
g128
I222
sg129
F0.0002880096435546875
sg130
F0.002607107162475586
sg131
I23
sg132
I37
sa(dp134
g128
I394
sg129
F0.00021505355834960938
sg130
F0.0012559890747070312
sg131
I25
sg132
I25
sa(dp135
g128
I350
sg129
F0.00010800361633300781
sg130
F0.00042319297790527344
sg131
I21
sg132
I21
sa(dp136
g128
I4
sg129
F0.0011448860168457031
sg130
F0.00032830238342285156
sg131
I3
sg132
I3
sa(dp137
g128
I22
sg129
F1.7881393432617188e-05
sg130
F8.821487426757812e-05
sg131
I2
sg132
I2
sasS'total_cqs'
p138
I51
ssI11
(dp139
S'iters'
p140
I6
sS'meta'
p141
(lp142
(dp143
S'objective'
p144
I930
sS'query_time'
p145
F0.4990959167480469
sS'comp_time'
p146
F0.16501116752624512
sS'exec_cq'
p147
I63
sS'total_cq'
p148
I63
sa(dp149
g144
I711
sg145
F0.0015568733215332031
sg146
F0.004825592041015625
sg147
I47
sg148
I47
sa(dp150
g144
I11
sg145
F0.0017580986022949219
sg146
F0.002653837203979492
sg147
I9
sg148
I9
sa(dp151
g144
I4
sg145
F0.0001552104949951172
sg146
F0.0007531642913818359
sg147
I5
sg148
I5
sa(dp152
g144
I24
sg145
F0.00013113021850585938
sg146
F0.00035881996154785156
sg147
I3
sg148
I3
sa(dp153
g144
I30
sg145
F1.5974044799804688e-05
sg146
F8.606910705566406e-05
sg147
I2
sg148
I2
sasS'total_cqs'
p154
I63
ssI12
(dp155
S'iters'
p156
I5
sS'meta'
p157
(lp158
(dp159
S'objective'
p160
I523
sS'query_time'
p161
F0.48030900955200195
sS'comp_time'
p162
F0.07589888572692871
sS'exec_cq'
p163
I50
sS'total_cq'
p164
I50
sa(dp165
g160
I563
sg161
F0.0005118846893310547
sg162
F0.0027518272399902344
sg163
I33
sg164
I33
sa(dp166
g160
I2
sg161
F0.0017430782318115234
sg162
F0.0012392997741699219
sg163
I8
sg164
I8
sa(dp167
g160
I3
sg161
F0.0001690387725830078
sg162
F0.0006000995635986328
sg163
I4
sg164
I4
sa(dp168
g160
I11
sg161
F0.00014019012451171875
sg162
F0.00033473968505859375
sg163
I2
sg164
I2
sasS'total_cqs'
p169
I50
ssI13
(dp170
S'iters'
p171
I4
sS'meta'
p172
(lp173
(dp174
S'objective'
p175
I48
sS'query_time'
p176
F0.12460899353027344
sS'comp_time'
p177
F0.03008294105529785
sS'exec_cq'
p178
I20
sS'total_cq'
p179
I20
sa(dp180
g175
I1
sg176
F0.0017468929290771484
sg177
F0.0033681392669677734
sg178
I11
sg179
I11
sa(dp181
g175
I8
sg176
F4.291534423828125e-05
sg177
F0.00029397010803222656
sg178
I5
sg179
I5
sa(dp182
g175
I6
sg176
F2.4080276489257812e-05
sg177
F0.00014090538024902344
sg178
I3
sg179
I3
sasS'total_cqs'
p183
I20
ssI14
(dp184
S'iters'
p185
I3
sS'meta'
p186
(lp187
(dp188
S'objective'
p189
I1
sS'query_time'
p190
F33.731431007385254
sS'comp_time'
p191
F1.3164260387420654
sS'exec_cq'
p192
I9
sS'total_cq'
p193
I9
sa(dp194
g189
I1
sg190
F0.2845039367675781
sg191
F0.5082879066467285
sg192
I5
sg193
I5
sa(dp195
g189
I1
sg190
F0.27184295654296875
sg191
F0.5050170421600342
sg192
I3
sg193
I3
sasS'total_cqs'
p196
I9
ssI15
(dp197
S'iters'
p198
I3
sS'meta'
p199
(lp200
(dp201
S'objective'
p202
I0
sS'query_time'
p203
F3.8905110359191895
sS'comp_time'
p204
F0.0929868221282959
sS'exec_cq'
p205
I11
sS'total_cq'
p206
I11
sa(dp207
g202
I7
sg203
F0.0020449161529541016
sg204
F0.0033991336822509766
sg205
I7
sg206
I7
sa(dp208
g202
I1
sg203
F0.0014300346374511719
sg204
F0.0019736289978027344
sg205
I3
sg206
I3
sasS'total_cqs'
p209
I11
ssI16
(dp210
S'iters'
p211
I1
sS'meta'
p212
(lp213
(dp214
S'objective'
p215
I26
sS'query_time'
p216
F0.033885955810546875
sS'comp_time'
p217
F0.003818511962890625
sS'exec_cq'
p218
I8
sS'total_cq'
p219
I8
sasS'total_cqs'
p220
I8
ssI17
(dp221
S'iters'
p222
I4
sS'meta'
p223
(lp224
(dp225
S'objective'
p226
I6
sS'query_time'
p227
F0.9376718997955322
sS'comp_time'
p228
F0.045575857162475586
sS'exec_cq'
p229
I11
sS'total_cq'
p230
I11
sa(dp231
g226
I0
sg227
F0.00944209098815918
sg228
F0.020017623901367188
sg229
I7
sg230
I7
sa(dp232
g226
I0
sg227
F0.008614063262939453
sg228
F0.009130239486694336
sg229
I4
sg230
I4
sa(dp233
g226
I5
sg227
F0.0023140907287597656
sg228
F0.0032930374145507812
sg229
I2
sg230
I2
sasS'total_cqs'
p234
I11
ssI18
(dp235
S'iters'
p236
I2
sS'meta'
p237
(lp238
(dp239
S'objective'
p240
I38
sS'query_time'
p241
F0.3959031105041504
sS'comp_time'
p242
F0.02476954460144043
sS'exec_cq'
p243
I11
sS'total_cq'
p244
I11
sa(dp245
g240
I38
sg241
F0.0007510185241699219
sg242
F0.0014629364013671875
sg243
I9
sg244
I9
sasS'total_cqs'
p246
I11
ssI19
(dp247
S'iters'
p248
I0
sS'meta'
p249
(lp250
sS'total_cqs'
p251
I1
ssI20
(dp252
S'iters'
p253
I0
sS'meta'
p254
(lp255
sS'total_cqs'
p256
I1
ssI21
(dp257
S'iters'
p258
I0
sS'meta'
p259
(lp260
sS'total_cqs'
p261
I1
ssI22
(dp262
S'iters'
p263
I1
sS'meta'
p264
(lp265
(dp266
S'objective'
p267
I151
sS'query_time'
p268
F0.07499194145202637
sS'comp_time'
p269
F0.03386974334716797
sS'exec_cq'
p270
I18
sS'total_cq'
p271
I18
sasS'total_cqs'
p272
I18
ssI23
(dp273
S'iters'
p274
I3
sS'meta'
p275
(lp276
(dp277
S'objective'
p278
I116
sS'query_time'
p279
F0.10763287544250488
sS'comp_time'
p280
F0.02471780776977539
sS'exec_cq'
p281
I16
sS'total_cq'
p282
I16
sa(dp283
g278
I106
sg279
F8.0108642578125e-05
sg280
F0.0001323223114013672
sg281
I15
sg282
I15
sa(dp284
g278
I98
sg279
F4.887580871582031e-05
sg280
F8.821487426757812e-05
sg281
I13
sg282
I13
sasS'total_cqs'
p285
I16
ssI24
(dp286
S'iters'
p287
I0
sS'meta'
p288
(lp289
sS'total_cqs'
p290
I1
ssI25
(dp291
S'iters'
p292
I0
sS'meta'
p293
(lp294
sS'total_cqs'
p295
I1
ssI26
(dp296
S'iters'
p297
I1
sS'meta'
p298
(lp299
(dp300
S'objective'
p301
I859
sS'query_time'
p302
F0.13814616203308105
sS'comp_time'
p303
F0.138411283493042
sS'exec_cq'
p304
I42
sS'total_cq'
p305
I42
sasS'total_cqs'
p306
I42
ssI27
(dp307
S'iters'
p308
I3
sS'meta'
p309
(lp310
(dp311
S'objective'
p312
I311
sS'query_time'
p313
F22.22419810295105
sS'comp_time'
p314
F1.7354953289031982
sS'exec_cq'
p315
I30
sS'total_cq'
p316
I30
sa(dp317
g312
I3
sg313
F0.452739953994751
sg314
F1.5170681476593018
sg315
I5
sg316
I5
sa(dp318
g312
I8
sg313
F0.43346285820007324
sg314
F0.8540620803833008
sg315
I2
sg316
I2
sasS'total_cqs'
p319
I30
ssI28
(dp320
S'iters'
p321
I0
sS'meta'
p322
(lp323
sS'total_cqs'
p324
I1
ssI29
(dp325
S'iters'
p326
I6
sS'meta'
p327
(lp328
(dp329
S'objective'
p330
I289
sS'query_time'
p331
F28.82661199569702
sS'comp_time'
p332
F0.4260399341583252
sS'exec_cq'
p333
I35
sS'total_cq'
p334
I49
sa(dp335
g330
I6
sg331
F0.02662515640258789
sg332
F0.04460000991821289
sg333
I17
sg334
I17
sa(dp336
g330
I15
sg331
F0.0015859603881835938
sg332
F0.0032753944396972656
sg333
I9
sg334
I9
sa(dp337
g330
I23
sg331
F0.0008997917175292969
sg332
F0.002935171127319336
sg333
I5
sg334
I5
sa(dp338
g330
I9
sg331
F0.0006330013275146484
sg332
F0.0010530948638916016
sg333
I3
sg334
I3
sa(dp339
g330
I11
sg331
F0.0005769729614257812
sg332
F0.0009360313415527344
sg333
I2
sg334
I2
sasS'total_cqs'
p340
I49
ssI30
(dp341
S'iters'
p342
I1
sS'meta'
p343
(lp344
(dp345
S'objective'
p346
I1
sS'query_time'
p347
F0.6447198390960693
sS'comp_time'
p348
F0.013216018676757812
sS'exec_cq'
p349
I2
sS'total_cq'
p350
I2
sasS'total_cqs'
p351
I2
ssI31
(dp352
S'iters'
p353
I0
sS'meta'
p354
(lp355
sS'total_cqs'
p356
I1
ssI32
(dp357
S'iters'
p358
I1
sS'meta'
p359
(lp360
(dp361
S'objective'
p362
I1
sS'query_time'
p363
F0.02137303352355957
sS'comp_time'
p364
F0.002173185348510742
sS'exec_cq'
p365
I2
sS'total_cq'
p366
I2
sasS'total_cqs'
p367
I2
ssI33
(dp368
S'iters'
p369
I5
sS'meta'
p370
(lp371
(dp372
S'objective'
p373
I3618
sS'query_time'
p374
F16.42969298362732
sS'comp_time'
p375
F0.9171328544616699
sS'exec_cq'
p376
I103
sS'total_cq'
p377
I103
sa(dp378
g373
I1
sg374
F0.008646011352539062
sg375
F0.03705930709838867
sg376
I16
sg377
I16
sa(dp379
g373
I7
sg374
F0.0029671192169189453
sg375
F0.014773130416870117
sg376
I9
sg377
I9
sa(dp380
g373
I4
sg374
F0.0017170906066894531
sg375
F0.0025954246520996094
sg376
I5
sg377
I5
sa(dp381
g373
I3
sg374
F0.0009579658508300781
sg375
F0.001295328140258789
sg376
I3
sg377
I3
sasS'total_cqs'
p382
I103
ssI34
(dp383
S'iters'
p384
I1
sS'meta'
p385
(lp386
(dp387
S'objective'
p388
I1
sS'query_time'
p389
F0.015719890594482422
sS'comp_time'
p390
F0.0017008781433105469
sS'exec_cq'
p391
I2
sS'total_cq'
p392
I2
sasS'total_cqs'
p393
I2
ssI35
(dp394
S'iters'
p395
I5
sS'meta'
p396
(lp397
(dp398
S'objective'
p399
I1339
sS'query_time'
p400
F69.4067268371582
sS'comp_time'
p401
F2.7876949310302734
sS'exec_cq'
p402
I70
sS'total_cq'
p403
I70
sa(dp404
g399
I19
sg400
F0.004856109619140625
sg401
F0.01793670654296875
sg402
I16
sg403
I16
sa(dp405
g399
I13
sg400
F0.0016322135925292969
sg401
F0.005364656448364258
sg402
I7
sg403
I7
sa(dp406
g399
I4
sg400
F0.0011839866638183594
sg401
F0.0015802383422851562
sg402
I3
sg403
I3
sa(dp407
g399
I4
sg400
F0.00036907196044921875
sg401
F0.0006587505340576172
sg402
I2
sg403
I2
sasS'total_cqs'
p408
I70
ssI36
(dp409
S'iters'
p410
I4
sS'meta'
p411
(lp412
(dp413
S'objective'
p414
I425
sS'query_time'
p415
F0.7538442611694336
sS'comp_time'
p416
F0.1448822021484375
sS'exec_cq'
p417
I33
sS'total_cq'
p418
I33
sa(dp419
g414
I363
sg415
F0.003278970718383789
sg416
F0.005862236022949219
sg417
I29
sg418
I29
sa(dp420
g414
I364
sg415
F0.0022432804107666016
sg416
F0.003888368606567383
sg417
I25
sg418
I25
sa(dp421
g414
I360
sg415
F0.0001380443572998047
sg416
F0.00029015541076660156
sg417
I23
sg418
I24
sasS'total_cqs'
p422
I33
ssI37
(dp423
S'iters'
p424
I1
sS'meta'
p425
(lp426
(dp427
S'objective'
p428
I1
sS'query_time'
p429
F0.010141134262084961
sS'comp_time'
p430
F0.0013320446014404297
sS'exec_cq'
p431
I2
sS'total_cq'
p432
I2
sasS'total_cqs'
p433
I2
ssI38
(dp434
S'iters'
p435
I2
sS'meta'
p436
(lp437
(dp438
S'objective'
p439
I0
sS'query_time'
p440
F0.05735301971435547
sS'comp_time'
p441
F0.003475189208984375
sS'exec_cq'
p442
I4
sS'total_cq'
p443
I4
sa(dp444
g439
I1
sg440
F8.511543273925781e-05
sg441
F0.0001995563507080078
sg442
I2
sg443
I2
sasS'total_cqs'
p445
I4
ssI39
(dp446
S'iters'
p447
I2
sS'meta'
p448
(lp449
(dp450
S'objective'
p451
I648
sS'query_time'
p452
F0.16209101676940918
sS'comp_time'
p453
F0.15403318405151367
sS'exec_cq'
p454
I44
sS'total_cq'
p455
I44
sa(dp456
g451
I773
sg452
F0.0003101825714111328
sg453
F0.0009870529174804688
sg454
I37
sg455
I37
sasS'total_cqs'
p457
I44
ssI40
(dp458
S'iters'
p459
I1
sS'meta'
p460
(lp461
(dp462
S'objective'
p463
I18
sS'query_time'
p464
F0.09668278694152832
sS'comp_time'
p465
F0.014023780822753906
sS'exec_cq'
p466
I7
sS'total_cq'
p467
I7
sasS'total_cqs'
p468
I7
ssI41
(dp469
S'iters'
p470
I2
sS'meta'
p471
(lp472
(dp473
S'objective'
p474
I58
sS'query_time'
p475
F0.07630705833435059
sS'comp_time'
p476
F0.018337249755859375
sS'exec_cq'
p477
I12
sS'total_cq'
p478
I12
sa(dp479
g474
I54
sg475
F6.818771362304688e-05
sg476
F0.0001430511474609375
sg477
I11
sg478
I11
sasS'total_cqs'
p480
I12
ssI42
(dp481
S'iters'
p482
I2
sS'meta'
p483
(lp484
(dp485
S'objective'
p486
I783
sS'query_time'
p487
F0.12071013450622559
sS'comp_time'
p488
F0.1457376480102539
sS'exec_cq'
p489
I41
sS'total_cq'
p490
I41
sa(dp491
g486
I778
sg487
F0.00020694732666015625
sg488
F0.0002734661102294922
sg489
I40
sg490
I40
sasS'total_cqs'
p492
I41
ssI43
(dp493
S'iters'
p494
I1
sS'meta'
p495
(lp496
(dp497
S'objective'
p498
I18
sS'query_time'
p499
F0.026144027709960938
sS'comp_time'
p500
F0.005639076232910156
sS'exec_cq'
p501
I7
sS'total_cq'
p502
I7
sasS'total_cqs'
p503
I7
ssI44
(dp504
S'iters'
p505
I4
sS'meta'
p506
(lp507
(dp508
S'objective'
p509
I884
sS'query_time'
p510
F0.17343902587890625
sS'comp_time'
p511
F0.09972524642944336
sS'exec_cq'
p512
I47
sS'total_cq'
p513
I47
sa(dp514
g509
I870
sg510
F0.0004401206970214844
sg511
F0.0012280941009521484
sg512
I40
sg513
I40
sa(dp515
g509
I12
sg510
F0.001959085464477539
sg511
F0.009690999984741211
sg512
I3
sg513
I3
sa(dp516
g509
I10
sg510
F0.00013113021850585938
sg511
F0.0002760887145996094
sg512
I2
sg513
I2
sasS'total_cqs'
p517
I47
ssI45
(dp518
S'iters'
p519
I0
sS'meta'
p520
(lp521
sS'total_cqs'
p522
I1
ssI46
(dp523
S'iters'
p524
I1
sS'meta'
p525
(lp526
(dp527
S'objective'
p528
I13
sS'query_time'
p529
F0.05421614646911621
sS'comp_time'
p530
F0.007337093353271484
sS'exec_cq'
p531
I6
sS'total_cq'
p532
I6
sasS'total_cqs'
p533
I6
ssI47
(dp534
S'iters'
p535
I1
sS'meta'
p536
(lp537
(dp538
S'objective'
p539
I1
sS'query_time'
p540
F0.010148048400878906
sS'comp_time'
p541
F0.0020329952239990234
sS'exec_cq'
p542
I2
sS'total_cq'
p543
I2
sasS'total_cqs'
p544
I2
ssI48
(dp545
S'iters'
p546
I0
sS'meta'
p547
(lp548
sS'total_cqs'
p549
I1
ssI49
(dp550
S'iters'
p551
I0
sS'meta'
p552
(lp553
sS'total_cqs'
p554
I1
ssI50
(dp555
S'iters'
p556
I2
sS'meta'
p557
(lp558
(dp559
S'objective'
p560
I5
sS'query_time'
p561
F0.015228033065795898
sS'comp_time'
p562
F0.002119302749633789
sS'exec_cq'
p563
I5
sS'total_cq'
p564
I5
sa(dp565
g560
I2
sg561
F2.7894973754882812e-05
sg562
F0.00012803077697753906
sg563
I4
sg564
I4
sasS'total_cqs'
p566
I5
ssI51
(dp567
S'iters'
p568
I1
sS'meta'
p569
(lp570
(dp571
S'objective'
p572
I1
sS'query_time'
p573
F0.007888078689575195
sS'comp_time'
p574
F0.0009331703186035156
sS'exec_cq'
p575
I2
sS'total_cq'
p576
I2
sasS'total_cqs'
p577
I2
ssI52
(dp578
S'iters'
p579
I1
sS'meta'
p580
(lp581
(dp582
S'objective'
p583
I1
sS'query_time'
p584
F0.008816003799438477
sS'comp_time'
p585
F0.001203298568725586
sS'exec_cq'
p586
I2
sS'total_cq'
p587
I2
sasS'total_cqs'
p588
I2
ssI53
(dp589
S'iters'
p590
I2
sS'meta'
p591
(lp592
(dp593
S'objective'
p594
I2
sS'query_time'
p595
F0.020153045654296875
sS'comp_time'
p596
F0.002493143081665039
sS'exec_cq'
p597
I4
sS'total_cq'
p598
I4
sa(dp599
g594
I0
sg595
F0.00011301040649414062
sg596
F0.00046539306640625
sg597
I3
sg598
I3
sasS'total_cqs'
p600
I4
ssI54
(dp601
S'iters'
p602
I1
sS'meta'
p603
(lp604
(dp605
S'objective'
p606
I0
sS'query_time'
p607
F0.011940956115722656
sS'comp_time'
p608
F0.0015857219696044922
sS'exec_cq'
p609
I3
sS'total_cq'
p610
I3
sasS'total_cqs'
p611
I3
ssI55
(dp612
S'iters'
p613
I6
sS'meta'
p614
(lp615
(dp616
S'objective'
p617
I4475
sS'query_time'
p618
F2.6592178344726562
sS'comp_time'
p619
F0.8466317653656006
sS'exec_cq'
p620
I109
sS'total_cq'
p621
I109
sa(dp622
g617
I4611
sg618
F0.0011320114135742188
sg619
F0.00470733642578125
sg620
I97
sg621
I97
sa(dp623
g617
I4571
sg618
F0.0004398822784423828
sg619
F0.0018236637115478516
sg620
I91
sg621
I91
sa(dp624
g617
I4505
sg618
F0.00043392181396484375
sg619
F0.0014328956604003906
sg620
I87
sg621
I87
sa(dp625
g617
I4412
sg618
F0.000370025634765625
sg619
F0.0009949207305908203
sg620
I85
sg621
I85
sa(dp626
g617
I4407
sg618
F0.0004119873046875
sg619
F0.0008487701416015625
sg620
I83
sg621
I83
sasS'total_cqs'
p627
I109
ssI56
(dp628
S'iters'
p629
I5
sS'meta'
p630
(lp631
(dp632
S'objective'
p633
I1576
sS'query_time'
p634
F2.062047004699707
sS'comp_time'
p635
F0.2931818962097168
sS'exec_cq'
p636
I67
sS'total_cq'
p637
I76
sa(dp638
g633
I67
sg634
F0.00801992416381836
sg635
F0.08460688591003418
sg636
I16
sg637
I16
sa(dp639
g633
I11
sg634
F0.0034079551696777344
sg635
F0.009720802307128906
sg636
I8
sg637
I8
sa(dp640
g633
I8
sg634
F0.0017199516296386719
sg635
F0.0030579566955566406
sg636
I4
sg637
I4
sa(dp641
g633
I16
sg634
F0.0003638267517089844
sg635
F0.0007388591766357422
sg636
I2
sg637
I2
sasS'total_cqs'
p642
I76
ssI57
(dp643
S'iters'
p644
I6
sS'meta'
p645
(lp646
(dp647
S'objective'
p648
I288
sS'query_time'
p649
F24.518577098846436
sS'comp_time'
p650
F0.154310941696167
sS'exec_cq'
p651
I45
sS'total_cq'
p652
I51
sa(dp653
g648
I43
sg649
F0.021956205368041992
sg650
F0.03817892074584961
sg651
I31
sg652
I31
sa(dp654
g648
I2
sg649
F0.019412994384765625
sg650
F0.4113280773162842
sg651
I16
sg652
I16
sa(dp655
g648
I0
sg649
F0.0065271854400634766
sg650
F0.028023958206176758
sg651
I10
sg652
I10
sa(dp656
g648
I16
sg649
F0.0020198822021484375
sg650
F0.0028388500213623047
sg651
I6
sg652
I6
sa(dp657
g648
I2
sg649
F0.0005421638488769531
sg650
F0.0006749629974365234
sg651
I2
sg652
I2
sasS'total_cqs'
p658
I51
ssI58
(dp659
S'iters'
p660
I7
sS'meta'
p661
(lp662
(dp663
S'objective'
p664
I85435
sS'query_time'
p665
F322.59470295906067
sS'comp_time'
p666
F27.254729747772217
sS'exec_cq'
p667
I486
sS'total_cq'
p668
I486
sa(dp669
g664
I89808
sg665
F5.55228590965271
sg666
F9.365969181060791
sg667
I414
sg668
I414
sa(dp670
g664
I30
sg665
F0.016094207763671875
sg666
F0.22582626342773438
sg667
I28
sg668
I28
sa(dp671
g664
I53
sg665
F0.00545191764831543
sg666
F0.08367371559143066
sg667
I10
sg668
I10
sa(dp672
g664
I10
sg665
F0.002939939498901367
sg666
F0.004016876220703125
sg667
I5
sg668
I5
sa(dp673
g664
I239
sg665
F0.002053976058959961
sg666
F0.003010988235473633
sg667
I3
sg668
I3
sa(dp674
g664
I20
sg665
F0.0017609596252441406
sg666
F0.002199888229370117
sg667
I2
sg668
I2
sasS'total_cqs'
p675
I486
ssI59
(dp676
S'iters'
p677
I2
sS'meta'
p678
(lp679
(dp680
S'objective'
p681
I10
sS'query_time'
p682
F0.14376187324523926
sS'comp_time'
p683
F0.031958580017089844
sS'exec_cq'
p684
I7
sS'total_cq'
p685
I7
sa(dp686
g681
I1
sg682
F0.00027298927307128906
sg683
F0.00042319297790527344
sg684
I2
sg685
I2
sasS'total_cqs'
p687
I7
ssI60
(dp688
S'iters'
p689
I2
sS'meta'
p690
(lp691
(dp692
S'objective'
p693
I5
sS'query_time'
p694
F0.01713395118713379
sS'comp_time'
p695
F0.0036749839782714844
sS'exec_cq'
p696
I4
sS'total_cq'
p697
I5
sa(dp698
g693
I2
sg694
F2.002716064453125e-05
sg695
F9.703636169433594e-05
sg696
I2
sg697
I4
sasS'total_cqs'
p699
I5
ssI61
(dp700
S'iters'
p701
I0
sS'meta'
p702
(lp703
sS'total_cqs'
p704
I1
ssI62
(dp705
S'iters'
p706
I2
sS'meta'
p707
(lp708
(dp709
S'objective'
p710
I52
sS'query_time'
p711
F0.032521963119506836
sS'comp_time'
p712
F0.0212399959564209
sS'exec_cq'
p713
I12
sS'total_cq'
p714
I12
sa(dp715
g710
I51
sg711
F4.00543212890625e-05
sg712
F0.0001468658447265625
sg713
I9
sg714
I9
sasS'total_cqs'
p716
I12
ssI63
(dp717
S'iters'
p718
I0
sS'meta'
p719
(lp720
sS'total_cqs'
p721
I1
ssI64
(dp722
S'iters'
p723
I3
sS'meta'
p724
(lp725
(dp726
S'objective'
p727
I12
sS'query_time'
p728
F0.19338107109069824
sS'comp_time'
p729
F0.021926164627075195
sS'exec_cq'
p730
I12
sS'total_cq'
p731
I12
sa(dp732
g727
I1
sg728
F0.00018596649169921875
sg729
F0.0006909370422363281
sg730
I4
sg731
I4
sa(dp733
g727
I3
sg728
F0.00011086463928222656
sg729
F0.0002589225769042969
sg730
I2
sg731
I2
sasS'total_cqs'
p734
I12
ssI65
(dp735
S'iters'
p736
I4
sS'meta'
p737
(lp738
(dp739
S'objective'
p740
I208
sS'query_time'
p741
F0.7881700992584229
sS'comp_time'
p742
F0.25975537300109863
sS'exec_cq'
p743
I27
sS'total_cq'
p744
I27
sa(dp745
g740
I1
sg741
F0.0018351078033447266
sg742
F0.0030379295349121094
sg743
I7
sg744
I7
sa(dp746
g740
I2
sg741
F0.0009088516235351562
sg742
F0.001748800277709961
sg743
I5
sg744
I5
sa(dp747
g740
I8
sg741
F0.0003228187561035156
sg742
F0.0006563663482666016
sg743
I2
sg744
I2
sasS'total_cqs'
p748
I27
ssI66
(dp749
S'iters'
p750
I0
sS'meta'
p751
(lp752
sS'total_cqs'
p753
I1
ssI67
(dp754
S'iters'
p755
I2
sS'meta'
p756
(lp757
(dp758
S'objective'
p759
I582
sS'query_time'
p760
F1.0425188541412354
sS'comp_time'
p761
F0.16706275939941406
sS'exec_cq'
p762
I35
sS'total_cq'
p763
I35
sa(dp764
g759
I14
sg760
F0.0017168521881103516
sg761
F0.0033903121948242188
sg762
I2
sg763
I2
sasS'total_cqs'
p765
I35
ssI68
(dp766
S'iters'
p767
I0
sS'meta'
p768
(lp769
sS'total_cqs'
p770
I1
ssI69
(dp771
S'iters'
p772
I1
sS'meta'
p773
(lp774
(dp775
S'objective'
p776
I1272
sS'query_time'
p777
F0.17082810401916504
sS'comp_time'
p778
F0.2411208152770996
sS'exec_cq'
p779
I51
sS'total_cq'
p780
I51
sasS'total_cqs'
p781
I51
ssI70
(dp782
S'iters'
p783
I3
sS'meta'
p784
(lp785
(dp786
S'objective'
p787
I9
sS'query_time'
p788
F0.02334117889404297
sS'comp_time'
p789
F0.0034890174865722656
sS'exec_cq'
p790
I6
sS'total_cq'
p791
I6
sa(dp792
g787
I5
sg788
F4.792213439941406e-05
sg789
F0.00014519691467285156
sg790
I5
sg791
I5
sa(dp793
g787
I2
sg788
F3.910064697265625e-05
sg789
F0.00010991096496582031
sg790
I4
sg791
I4
sasS'total_cqs'
p794
I6
ssI71
(dp795
S'iters'
p796
I7
sS'meta'
p797
(lp798
(dp799
S'objective'
p800
I3225
sS'query_time'
p801
F0.2918713092803955
sS'comp_time'
p802
F0.41472792625427246
sS'exec_cq'
p803
I85
sS'total_cq'
p804
I85
sa(dp805
g800
I3122
sg801
F0.0003561973571777344
sg802
F0.001322031021118164
sg803
I81
sg804
I81
sa(dp806
g800
I3025
sg801
F0.0002949237823486328
sg802
F0.0008745193481445312
sg803
I78
sg804
I78
sa(dp807
g800
I2899
sg801
F0.0002689361572265625
sg802
F0.0008604526519775391
sg803
I74
sg804
I74
sa(dp808
g800
I2814
sg801
F0.0002570152282714844
sg802
F0.0006659030914306641
sg803
I72
sg804
I72
sa(dp809
g800
I4
sg801
F0.002028942108154297
sg802
F0.002451181411743164
sg803
I3
sg804
I3
sa(dp810
g800
I33
sg801
F0.0035409927368164062
sg802
F0.0001227855682373047
sg803
I2
sg804
I2
sasS'total_cqs'
p811
I85
ssI72
(dp812
S'iters'
p813
I3
sS'meta'
p814
(lp815
(dp816
S'objective'
p817
I2
sS'query_time'
p818
F0.29578113555908203
sS'comp_time'
p819
F0.0040242671966552734
sS'exec_cq'
p820
I4
sS'total_cq'
p821
I8
sa(dp822
g817
I3
sg818
F0.024229049682617188
sg819
F0.0001838207244873047
sg820
I4
sg821
I5
sa(dp823
g817
I2
sg818
F5.1021575927734375e-05
sg819
F5.0067901611328125e-05
sg820
I2
sg821
I3
sasS'total_cqs'
p824
I8
ssI73
(dp825
S'iters'
p826
I0
sS'meta'
p827
(lp828
sS'total_cqs'
p829
I1
ssI74
(dp830
S'iters'
p831
I0
sS'meta'
p832
(lp833
sS'total_cqs'
p834
I1
ssI75
(dp835
S'iters'
p836
I2
sS'meta'
p837
(lp838
(dp839
S'objective'
p840
I5
sS'query_time'
p841
F0.0894629955291748
sS'comp_time'
p842
F0.0022139549255371094
sS'exec_cq'
p843
I5
sS'total_cq'
p844
I5
sa(dp845
g840
I2
sg841
F2.7179718017578125e-05
sg842
F0.0001380443572998047
sg843
I4
sg844
I4
sasS'total_cqs'
p846
I5
ssI76
(dp847
S'iters'
p848
I1
sS'meta'
p849
(lp850
(dp851
S'objective'
p852
I1
sS'query_time'
p853
F0.014421939849853516
sS'comp_time'
p854
F0.001110076904296875
sS'exec_cq'
p855
I2
sS'total_cq'
p856
I2
sasS'total_cqs'
p857
I2
ssI77
(dp858
S'iters'
p859
I0
sS'meta'
p860
(lp861
sS'total_cqs'
p862
I1
ssI78
(dp863
S'iters'
p864
I0
sS'meta'
p865
(lp866
sS'total_cqs'
p867
I1
ssI103
(dp868
S'iters'
p869
I1
sS'meta'
p870
(lp871
(dp872
S'objective'
p873
I64
sS'query_time'
p874
F0.06572914123535156
sS'comp_time'
p875
F0.01627206802368164
sS'exec_cq'
p876
I12
sS'total_cq'
p877
I12
sasS'total_cqs'
p878
I12
ssI104
(dp879
S'iters'
p880
I2
sS'meta'
p881
(lp882
(dp883
S'objective'
p884
I0
sS'query_time'
p885
F1.260706901550293
sS'comp_time'
p886
F0.028364896774291992
sS'exec_cq'
p887
I4
sS'total_cq'
p888
I4
sa(dp889
g884
I1
sg885
F0.01386404037475586
sg886
F0.11359786987304688
sg887
I2
sg888
I2
sasS'total_cqs'
p890
I4
ssI105
(dp891
S'iters'
p892
I0
sS'meta'
p893
(lp894
sS'total_cqs'
p895
I1
ssI106
(dp896
S'iters'
p897
I1
sS'meta'
p898
(lp899
(dp900
S'objective'
p901
I4
sS'query_time'
p902
F0.017718076705932617
sS'comp_time'
p903
F0.0019311904907226562
sS'exec_cq'
p904
I4
sS'total_cq'
p905
I4
sasS'total_cqs'
p906
I4
ssI107
(dp907
S'iters'
p908
I2
sS'meta'
p909
(lp910
(dp911
S'objective'
p912
I82
sS'query_time'
p913
F0.06528496742248535
sS'comp_time'
p914
F0.01922917366027832
sS'exec_cq'
p915
I16
sS'total_cq'
p916
I16
sa(dp917
g912
I9
sg913
F0.004837989807128906
sg914
F0.0002906322479248047
sg915
I3
sg916
I3
sasS'total_cqs'
p918
I16
ssI108
(dp919
S'iters'
p920
I0
sS'meta'
p921
(lp922
sS'total_cqs'
p923
I1
ss.