(dp0
I1
(dp1
S'iters'
p2
I3
sS'meta'
p3
(lp4
(dp5
S'objective'
p6
I44
sS'query_time'
p7
F0.1776747703552246
sS'comp_time'
p8
F0.00061798095703125
sS'exec_cq'
p9
I12
sS'total_cq'
p10
I12
sa(dp11
g6
I37
sg7
F6.985664367675781e-05
sg8
F0.00010800361633300781
sg9
I10
sg10
I10
sa(dp12
g6
I29
sg7
F3.719329833984375e-05
sg8
F0.0001251697540283203
sg9
I9
sg10
I9
sasS'total_cqs'
p13
I12
ssI2
(dp14
S'iters'
p15
I5
sS'meta'
p16
(lp17
(dp18
S'objective'
p19
I220
sS'query_time'
p20
F0.9882190227508545
sS'comp_time'
p21
F0.002547740936279297
sS'exec_cq'
p22
I27
sS'total_cq'
p23
I27
sa(dp24
g19
I211
sg20
F0.0002808570861816406
sg21
F0.0013840198516845703
sg22
I23
sg23
I23
sa(dp25
g19
I189
sg20
F0.0001761913299560547
sg21
F0.0007119178771972656
sg22
I21
sg23
I21
sa(dp26
g19
I176
sg20
F9.107589721679688e-05
sg21
F0.0003521442413330078
sg22
I18
sg23
I18
sa(dp27
g19
I155
sg20
F7.700920104980469e-05
sg21
F0.00024008750915527344
sg22
I17
sg23
I17
sasS'total_cqs'
p28
I27
ssI3
(dp29
S'iters'
p30
I4
sS'meta'
p31
(lp32
(dp33
S'objective'
p34
I590
sS'query_time'
p35
F583.6561460494995
sS'comp_time'
p36
F3.1622302532196045
sS'exec_cq'
p37
I43
sS'total_cq'
p38
I43
sa(dp39
g34
I430
sg35
F0.5926837921142578
sg36
F3.715085983276367
sg37
I35
sg38
I35
sa(dp40
g34
I305
sg35
F0.526893138885498
sg36
F2.038409948348999
sg37
I27
sg38
I27
sa(dp41
g34
I384
sg35
F0.00024199485778808594
sg36
F0.00020694732666015625
sg37
I20
sg38
I20
sasS'total_cqs'
p42
I43
ssI4
(dp43
S'iters'
p44
I2
sS'meta'
p45
(lp46
(dp47
S'objective'
p48
I32
sS'query_time'
p49
F6.926537036895752
sS'comp_time'
p50
F0.7020859718322754
sS'exec_cq'
p51
I11
sS'total_cq'
p52
I11
sa(dp53
g48
I3
sg49
F0.1226801872253418
sg50
F0.6274707317352295
sg51
I2
sg52
I2
sasS'total_cqs'
p54
I11
ssI5
(dp55
S'iters'
p56
I3
sS'meta'
p57
(lp58
(dp59
S'objective'
p60
I0
sS'query_time'
p61
F46.616901874542236
sS'comp_time'
p62
F3.269603729248047
sS'exec_cq'
p63
I8
sS'total_cq'
p64
I8
sa(dp65
g60
I2
sg61
F0.009776830673217773
sg62
F0.26657533645629883
sg63
I4
sg64
I4
sa(dp66
g60
I6
sg61
F0.0035631656646728516
sg62
F0.07602286338806152
sg63
I2
sg64
I2
sasS'total_cqs'
p67
I8
ssI6
(dp68
S'iters'
p69
I4
sS'meta'
p70
(lp71
(dp72
S'objective'
p73
I11
sS'query_time'
p74
F47.403038024902344
sS'comp_time'
p75
F2.6709048748016357
sS'exec_cq'
p76
I18
sS'total_cq'
p77
I18
sa(dp78
g73
I0
sg74
F0.5289039611816406
sg75
F3.0809221267700195
sg76
I7
sg77
I7
sa(dp79
g73
I0
sg74
F0.4159560203552246
sg75
F2.024259090423584
sg76
I4
sg77
I4
sa(dp80
g73
I10
sg74
F0.38283705711364746
sg75
F2.0161960124969482
sg76
I2
sg77
I2
sasS'total_cqs'
p81
I18
ssI7
(dp82
S'iters'
p83
I3
sS'meta'
p84
(lp85
(dp86
S'objective'
p87
I1
sS'query_time'
p88
F26.044348001480103
sS'comp_time'
p89
F1.3862919807434082
sS'exec_cq'
p90
I9
sS'total_cq'
p91
I9
sa(dp92
g87
I0
sg88
F0.019752979278564453
sg89
F0.22285199165344238
sg90
I5
sg91
I5
sa(dp93
g87
I5
sg88
F0.01593494415283203
sg89
F0.18906927108764648
sg90
I3
sg91
I3
sasS'total_cqs'
p94
I9
ssI8
(dp95
S'iters'
p96
I3
sS'meta'
p97
(lp98
(dp99
S'objective'
p100
I258
sS'query_time'
p101
F1.2715709209442139
sS'comp_time'
p102
F0.0025920867919921875
sS'exec_cq'
p103
I27
sS'total_cq'
p104
I27
sa(dp105
g100
I212
sg101
F0.00017404556274414062
sg102
F0.0005559921264648438
sg103
I22
sg104
I22
sa(dp106
g100
I221
sg101
F9.799003601074219e-05
sg102
F0.00014829635620117188
sg103
I19
sg104
I19
sasS'total_cqs'
p107
I27
ssI9
(dp108
S'iters'
p109
I2
sS'meta'
p110
(lp111
(dp112
S'objective'
p113
I6
sS'query_time'
p114
F1.0982940196990967
sS'comp_time'
p115
F0.0005640983581542969
sS'exec_cq'
p116
I7
sS'total_cq'
p117
I7
sa(dp118
g113
I3
sg114
F2.9087066650390625e-05
sg115
F9.989738464355469e-05
sg116
I2
sg117
I2
sasS'total_cqs'
p119
I7
ssI10
(dp120
S'iters'
p121
I5
sS'meta'
p122
(lp123
(dp124
S'objective'
p125
I608
sS'query_time'
p126
F2.5415709018707275
sS'comp_time'
p127
F0.009142875671386719
sS'exec_cq'
p128
I51
sS'total_cq'
p129
I51
sa(dp130
g125
I351
sg126
F0.0004391670227050781
sg127
F0.0021300315856933594
sg128
I37
sg129
I37
sa(dp131
g125
I333
sg126
F0.00019693374633789062
sg127
F0.0011668205261230469
sg128
I25
sg129
I25
sa(dp132
g125
I342
sg126
F0.0001010894775390625
sg127
F0.00026297569274902344
sg128
I21
sg129
I21
sa(dp133
g125
I3
sg126
F2.4080276489257812e-05
sg127
F0.00016999244689941406
sg128
I3
sg129
I3
sasS'total_cqs'
p134
I51
ssI11
(dp135
S'iters'
p136
I5
sS'meta'
p137
(lp138
(dp139
S'objective'
p140
I882
sS'query_time'
p141
F2.6037211418151855
sS'comp_time'
p142
F0.02487921714782715
sS'exec_cq'
p143
I63
sS'total_cq'
p144
I63
sa(dp145
g140
I977
sg141
F0.0009298324584960938
sg142
F0.0055620670318603516
sg143
I47
sg144
I47
sa(dp146
g140
I0
sg141
F0.00023221969604492188
sg142
F0.0018579959869384766
sg143
I9
sg144
I9
sa(dp147
g140
I18
sg141
F3.504753112792969e-05
sg142
F0.0001418590545654297
sg143
I4
sg144
I4
sa(dp148
g140
I48
sg141
F1.2874603271484375e-05
sg142
F8.416175842285156e-05
sg143
I2
sg144
I2
sasS'total_cqs'
p149
I63
ssI12
(dp150
S'iters'
p151
I5
sS'meta'
p152
(lp153
(dp154
S'objective'
p155
I433
sS'query_time'
p156
F2.5270049571990967
sS'comp_time'
p157
F0.008623123168945312
sS'exec_cq'
p158
I50
sS'total_cq'
p159
I50
sa(dp160
g155
I440
sg156
F0.0004439353942871094
sg157
F0.0026702880859375
sg158
I33
sg159
I33
sa(dp161
g155
I3
sg156
F0.00020599365234375
sg157
F0.0015022754669189453
sg158
I8
sg159
I8
sa(dp162
g155
I0
sg156
F0.00011801719665527344
sg157
F0.0014951229095458984
sg158
I4
sg159
I4
sa(dp163
g155
I27
sg156
F2.002716064453125e-05
sg157
F0.00014901161193847656
sg158
I2
sg159
I2
sasS'total_cqs'
p164
I50
ssI13
(dp165
S'iters'
p166
I4
sS'meta'
p167
(lp168
(dp169
S'objective'
p170
I16
sS'query_time'
p171
F2.4544761180877686
sS'comp_time'
p172
F0.0006229877471923828
sS'exec_cq'
p173
I20
sS'total_cq'
p174
I20
sa(dp175
g170
I1
sg171
F0.00017189979553222656
sg172
F0.0004889965057373047
sg173
I11
sg174
I11
sa(dp176
g170
I4
sg171
F4.982948303222656e-05
sg172
F0.00040721893310546875
sg173
I6
sg174
I6
sa(dp177
g170
I6
sg171
F1.7881393432617188e-05
sg172
F0.00010609626770019531
sg173
I2
sg174
I2
sasS'total_cqs'
p178
I20
ssI14
(dp179
S'iters'
p180
I3
sS'meta'
p181
(lp182
(dp183
S'objective'
p184
I1
sS'query_time'
p185
F44.95048904418945
sS'comp_time'
p186
F1.3923678398132324
sS'exec_cq'
p187
I9
sS'total_cq'
p188
I9
sa(dp189
g184
I6
sg185
F0.006890058517456055
sg186
F0.1556699275970459
sg187
I4
sg188
I4
sa(dp190
g184
I2
sg185
F0.007491111755371094
sg186
F0.08931708335876465
sg187
I2
sg188
I2
sasS'total_cqs'
p191
I9
ssI15
(dp192
S'iters'
p193
I3
sS'meta'
p194
(lp195
(dp196
S'objective'
p197
I2
sS'query_time'
p198
F9.86843490600586
sS'comp_time'
p199
F0.21343517303466797
sS'exec_cq'
p200
I11
sS'total_cq'
p201
I11
sa(dp202
g197
I0
sg198
F0.01775503158569336
sg199
F0.11982011795043945
sg200
I4
sg201
I4
sa(dp203
g197
I4
sg198
F0.030347108840942383
sg199
F0.07303595542907715
sg200
I2
sg201
I2
sasS'total_cqs'
p204
I11
ssI16
(dp205
S'iters'
p206
I1
sS'meta'
p207
(lp208
(dp209
S'objective'
p210
I22
sS'query_time'
p211
F0.03597307205200195
sS'comp_time'
p212
F0.0002589225769042969
sS'exec_cq'
p213
I8
sS'total_cq'
p214
I8
sasS'total_cqs'
p215
I8
ssI17
(dp216
S'iters'
p217
I3
sS'meta'
p218
(lp219
(dp220
S'objective'
p221
I0
sS'query_time'
p222
F4.8265509605407715
sS'comp_time'
p223
F0.028801918029785156
sS'exec_cq'
p224
I11
sS'total_cq'
p225
I11
sa(dp226
g221
I1
sg222
F0.005362033843994141
sg223
F0.029346227645874023
sg224
I7
sg225
I7
sa(dp227
g221
I4
sg222
F0.00012993812561035156
sg223
F0.0010640621185302734
sg224
I2
sg225
I2
sasS'total_cqs'
p228
I11
ssI18
(dp229
S'iters'
p230
I3
sS'meta'
p231
(lp232
(dp233
S'objective'
p234
I28
sS'query_time'
p235
F4.0040929317474365
sS'comp_time'
p236
F0.00828099250793457
sS'exec_cq'
p237
I11
sS'total_cq'
p238
I11
sa(dp239
g234
I25
sg235
F0.00018715858459472656
sg236
F0.002145051956176758
sg237
I8
sg238
I8
sa(dp240
g234
I16
sg235
F0.00017881393432617188
sg236
F0.0015900135040283203
sg237
I7
sg238
I7
sasS'total_cqs'
p241
I11
ssI19
(dp242
S'iters'
p243
I0
sS'meta'
p244
(lp245
sS'total_cqs'
p246
I1
ssI20
(dp247
S'iters'
p248
I0
sS'meta'
p249
(lp250
sS'total_cqs'
p251
I1
ssI21
(dp252
S'iters'
p253
I0
sS'meta'
p254
(lp255
sS'total_cqs'
p256
I1
ssI22
(dp257
S'iters'
p258
I1
sS'meta'
p259
(lp260
(dp261
S'objective'
p262
I141
sS'query_time'
p263
F0.23680710792541504
sS'comp_time'
p264
F0.00038504600524902344
sS'exec_cq'
p265
I18
sS'total_cq'
p266
I18
sasS'total_cqs'
p267
I18
ssI23
(dp268
S'iters'
p269
I2
sS'meta'
p270
(lp271
(dp272
S'objective'
p273
I86
sS'query_time'
p274
F0.2925679683685303
sS'comp_time'
p275
F0.0009000301361083984
sS'exec_cq'
p276
I16
sS'total_cq'
p277
I16
sa(dp278
g273
I85
sg274
F0.00010800361633300781
sg275
F0.0004887580871582031
sg276
I14
sg277
I14
sasS'total_cqs'
p279
I16
ssI24
(dp280
S'iters'
p281
I0
sS'meta'
p282
(lp283
sS'total_cqs'
p284
I1
ssI25
(dp285
S'iters'
p286
I0
sS'meta'
p287
(lp288
sS'total_cqs'
p289
I1
ssI26
(dp290
S'iters'
p291
I1
sS'meta'
p292
(lp293
(dp294
S'objective'
p295
I837
sS'query_time'
p296
F0.54128098487854
sS'comp_time'
p297
F0.0002741813659667969
sS'exec_cq'
p298
I42
sS'total_cq'
p299
I42
sasS'total_cqs'
p300
I42
ssI27
(dp301
S'iters'
p302
I3
sS'meta'
p303
(lp304
(dp305
S'objective'
p306
I313
sS'query_time'
p307
F32.71045184135437
sS'comp_time'
p308
F0.8472797870635986
sS'exec_cq'
p309
I30
sS'total_cq'
p310
I30
sa(dp311
g306
I10
sg307
F0.14253687858581543
sg308
F1.022634744644165
sg309
I5
sg310
I5
sa(dp312
g306
I5
sg307
F0.009865999221801758
sg308
F0.15781807899475098
sg309
I3
sg310
I3
sasS'total_cqs'
p313
I30
ssI28
(dp314
S'iters'
p315
I0
sS'meta'
p316
(lp317
sS'total_cqs'
p318
I1
ssI29
(dp319
S'iters'
p320
I5
sS'meta'
p321
(lp322
(dp323
S'objective'
p324
I321
sS'query_time'
p325
F156.31812405586243
sS'comp_time'
p326
F22.72887897491455
sS'exec_cq'
p327
I49
sS'total_cq'
p328
I49
sa(dp329
g324
I16
sg325
F0.0023708343505859375
sg326
F0.010381221771240234
sg327
I16
sg328
I16
sa(dp330
g324
I4
sg325
F0.0011601448059082031
sg326
F0.008339881896972656
sg327
I9
sg328
I9
sa(dp331
g324
I9
sg325
F0.000804901123046875
sg326
F0.008352994918823242
sg327
I5
sg328
I5
sa(dp332
g324
I12
sg325
F0.0006229877471923828
sg326
F0.005615949630737305
sg327
I3
sg328
I3
sasS'total_cqs'
p333
I49
ssI30
(dp334
S'iters'
p335
I1
sS'meta'
p336
(lp337
(dp338
S'objective'
p339
I1
sS'query_time'
p340
F4.205399990081787
sS'comp_time'
p341
F0.04300999641418457
sS'exec_cq'
p342
I2
sS'total_cq'
p343
I2
sasS'total_cqs'
p344
I2
ssI31
(dp345
S'iters'
p346
I0
sS'meta'
p347
(lp348
sS'total_cqs'
p349
I1
ssI32
(dp350
S'iters'
p351
I1
sS'meta'
p352
(lp353
(dp354
S'objective'
p355
I1
sS'query_time'
p356
F0.1486649513244629
sS'comp_time'
p357
F0.0004487037658691406
sS'exec_cq'
p358
I2
sS'total_cq'
p359
I2
sasS'total_cqs'
p360
I2
ssI33
(dp361
S'iters'
p362
I5
sS'meta'
p363
(lp364
(dp365
S'objective'
p366
I3612
sS'query_time'
p367
F39.02994084358215
sS'comp_time'
p368
F0.16775012016296387
sS'exec_cq'
p369
I103
sS'total_cq'
p370
I103
sa(dp371
g366
I16
sg367
F0.007030010223388672
sg368
F0.026893138885498047
sg369
I16
sg370
I16
sa(dp372
g366
I6
sg367
F0.00327301025390625
sg368
F0.019685029983520508
sg369
I9
sg370
I9
sa(dp373
g366
I5
sg367
F0.0007109642028808594
sg368
F0.005288839340209961
sg369
I5
sg370
I5
sa(dp374
g366
I50
sg367
F7.796287536621094e-05
sg368
F0.0006699562072753906
sg369
I2
sg370
I2
sasS'total_cqs'
p375
I103
ssI34
(dp376
S'iters'
p377
I1
sS'meta'
p378
(lp379
(dp380
S'objective'
p381
I1
sS'query_time'
p382
F0.22001099586486816
sS'comp_time'
p383
F0.0008637905120849609
sS'exec_cq'
p384
I2
sS'total_cq'
p385
I2
sasS'total_cqs'
p386
I2
ssI35
(dp387
S'iters'
p388
I5
sS'meta'
p389
(lp390
(dp391
S'objective'
p392
I1219
sS'query_time'
p393
F275.44099712371826
sS'comp_time'
p394
F28.411205053329468
sS'exec_cq'
p395
I70
sS'total_cq'
p396
I70
sa(dp397
g392
I19
sg393
F0.009046077728271484
sg394
F0.017921924591064453
sg395
I16
sg396
I16
sa(dp398
g392
I6
sg393
F0.0015869140625
sg394
F0.009664058685302734
sg395
I7
sg396
I7
sa(dp399
g392
I40
sg393
F0.0007200241088867188
sg394
F0.0063130855560302734
sg395
I3
sg396
I3
sa(dp400
g392
I8
sg393
F9.703636169433594e-05
sg394
F0.0009541511535644531
sg395
I2
sg396
I2
sasS'total_cqs'
p401
I70
ssI36
(dp402
S'iters'
p403
I4
sS'meta'
p404
(lp405
(dp406
S'objective'
p407
I443
sS'query_time'
p408
F4.685710906982422
sS'comp_time'
p409
F0.0434880256652832
sS'exec_cq'
p410
I33
sS'total_cq'
p411
I33
sa(dp412
g407
I434
sg408
F0.003504037857055664
sg409
F0.04817700386047363
sg410
I29
sg411
I29
sa(dp413
g407
I404
sg408
F0.001619100570678711
sg409
F0.010545015335083008
sg410
I25
sg411
I25
sa(dp414
g407
I384
sg408
F0.00037789344787597656
sg409
F0.003542184829711914
sg410
I24
sg411
I24
sasS'total_cqs'
p415
I33
ssI37
(dp416
S'iters'
p417
I1
sS'meta'
p418
(lp419
(dp420
S'objective'
p421
I1
sS'query_time'
p422
F0.07285690307617188
sS'comp_time'
p423
F0.0005681514739990234
sS'exec_cq'
p424
I2
sS'total_cq'
p425
I2
sasS'total_cqs'
p426
I2
ssI38
(dp427
S'iters'
p428
I2
sS'meta'
p429
(lp430
(dp431
S'objective'
p432
I0
sS'query_time'
p433
F0.17254900932312012
sS'comp_time'
p434
F0.0008668899536132812
sS'exec_cq'
p435
I4
sS'total_cq'
p436
I4
sa(dp437
g432
I3
sg433
F0.00010013580322265625
sg434
F0.0005898475646972656
sg435
I2
sg436
I2
sasS'total_cqs'
p438
I4
ssI39
(dp439
S'iters'
p440
I2
sS'meta'
p441
(lp442
(dp443
S'objective'
p444
I598
sS'query_time'
p445
F1.3914680480957031
sS'comp_time'
p446
F0.007883787155151367
sS'exec_cq'
p447
I44
sS'total_cq'
p448
I44
sa(dp449
g444
I726
sg445
F0.0004208087921142578
sg446
F0.0021691322326660156
sg447
I37
sg448
I37
sasS'total_cqs'
p450
I44
ssI40
(dp451
S'iters'
p452
I1
sS'meta'
p453
(lp454
(dp455
S'objective'
p456
I14
sS'query_time'
p457
F0.5277078151702881
sS'comp_time'
p458
F0.00017595291137695312
sS'exec_cq'
p459
I7
sS'total_cq'
p460
I7
sasS'total_cqs'
p461
I7
ssI41
(dp462
S'iters'
p463
I1
sS'meta'
p464
(lp465
(dp466
S'objective'
p467
I58
sS'query_time'
p468
F0.1880359649658203
sS'comp_time'
p469
F0.00025391578674316406
sS'exec_cq'
p470
I12
sS'total_cq'
p471
I12
sasS'total_cqs'
p472
I12
ssI42
(dp473
S'iters'
p474
I1
sS'meta'
p475
(lp476
(dp477
S'objective'
p478
I797
sS'query_time'
p479
F0.35919189453125
sS'comp_time'
p480
F0.000286102294921875
sS'exec_cq'
p481
I41
sS'total_cq'
p482
I41
sasS'total_cqs'
p483
I41
ssI43
(dp484
S'iters'
p485
I1
sS'meta'
p486
(lp487
(dp488
S'objective'
p489
I14
sS'query_time'
p490
F0.32403016090393066
sS'comp_time'
p491
F0.00022101402282714844
sS'exec_cq'
p492
I7
sS'total_cq'
p493
I7
sasS'total_cqs'
p494
I7
ssI44
(dp495
S'iters'
p496
I4
sS'meta'
p497
(lp498
(dp499
S'objective'
p500
I768
sS'query_time'
p501
F0.49332308769226074
sS'comp_time'
p502
F0.006566286087036133
sS'exec_cq'
p503
I47
sS'total_cq'
p504
I47
sa(dp505
g500
I766
sg501
F0.00035119056701660156
sg502
F0.004821300506591797
sg503
I40
sg504
I40
sa(dp506
g500
I31
sg501
F0.00011587142944335938
sg502
F0.0011990070343017578
sg503
I3
sg504
I3
sa(dp507
g500
I13
sg501
F0.00010704994201660156
sg502
F0.001033782958984375
sg503
I2
sg504
I2
sasS'total_cqs'
p508
I47
ssI45
(dp509
S'iters'
p510
I0
sS'meta'
p511
(lp512
sS'total_cqs'
p513
I1
ssI46
(dp514
S'iters'
p515
I1
sS'meta'
p516
(lp517
(dp518
S'objective'
p519
I9
sS'query_time'
p520
F0.10184311866760254
sS'comp_time'
p521
F0.00063323974609375
sS'exec_cq'
p522
I6
sS'total_cq'
p523
I6
sasS'total_cqs'
p524
I6
ssI47
(dp525
S'iters'
p526
I1
sS'meta'
p527
(lp528
(dp529
S'objective'
p530
I1
sS'query_time'
p531
F0.024578094482421875
sS'comp_time'
p532
F0.0004601478576660156
sS'exec_cq'
p533
I2
sS'total_cq'
p534
I2
sasS'total_cqs'
p535
I2
ssI48
(dp536
S'iters'
p537
I0
sS'meta'
p538
(lp539
sS'total_cqs'
p540
I1
ssI49
(dp541
S'iters'
p542
I0
sS'meta'
p543
(lp544
sS'total_cqs'
p545
I1
ssI50
(dp546
S'iters'
p547
I1
sS'meta'
p548
(lp549
(dp550
S'objective'
p551
I5
sS'query_time'
p552
F0.08787798881530762
sS'comp_time'
p553
F0.00026988983154296875
sS'exec_cq'
p554
I5
sS'total_cq'
p555
I5
sasS'total_cqs'
p556
I5
ssI51
(dp557
S'iters'
p558
I1
sS'meta'
p559
(lp560
(dp561
S'objective'
p562
I1
sS'query_time'
p563
F0.08680200576782227
sS'comp_time'
p564
F0.0003440380096435547
sS'exec_cq'
p565
I2
sS'total_cq'
p566
I2
sasS'total_cqs'
p567
I2
ssI52
(dp568
S'iters'
p569
I1
sS'meta'
p570
(lp571
(dp572
S'objective'
p573
I1
sS'query_time'
p574
F0.06607389450073242
sS'comp_time'
p575
F0.00044274330139160156
sS'exec_cq'
p576
I2
sS'total_cq'
p577
I2
sasS'total_cqs'
p578
I2
ssI53
(dp579
S'iters'
p580
I2
sS'meta'
p581
(lp582
(dp583
S'objective'
p584
I0
sS'query_time'
p585
F0.18238091468811035
sS'comp_time'
p586
F0.001277923583984375
sS'exec_cq'
p587
I4
sS'total_cq'
p588
I4
sa(dp589
g584
I3
sg585
F0.0001308917999267578
sg586
F0.005641937255859375
sg587
I2
sg588
I2
sasS'total_cqs'
p590
I4
ssI54
(dp591
S'iters'
p592
I2
sS'meta'
p593
(lp594
(dp595
S'objective'
p596
I0
sS'query_time'
p597
F0.16013002395629883
sS'comp_time'
p598
F0.0012271404266357422
sS'exec_cq'
p599
I3
sS'total_cq'
p600
I3
sa(dp601
g596
I1
sg597
F6.29425048828125e-05
sg598
F0.0004949569702148438
sg599
I2
sg600
I2
sasS'total_cqs'
p602
I3
ssI55
(dp603
S'iters'
p604
I6
sS'meta'
p605
(lp606
(dp607
S'objective'
p608
I4911
sS'query_time'
p609
F9.641594886779785
sS'comp_time'
p610
F0.04872417449951172
sS'exec_cq'
p611
I109
sS'total_cq'
p612
I109
sa(dp613
g608
I4707
sg609
F0.0007510185241699219
sg610
F0.002223968505859375
sg611
I97
sg612
I97
sa(dp614
g608
I4664
sg609
F0.00030803680419921875
sg610
F0.0011360645294189453
sg611
I91
sg612
I91
sa(dp615
g608
I4472
sg609
F0.00028204917907714844
sg610
F0.0011148452758789062
sg611
I89
sg612
I89
sa(dp616
g608
I4498
sg609
F0.00028014183044433594
sg610
F0.0010149478912353516
sg611
I85
sg612
I85
sa(dp617
g608
I4419
sg609
F0.00025391578674316406
sg610
F0.0009369850158691406
sg611
I84
sg612
I84
sasS'total_cqs'
p618
I109
ssI56
(dp619
S'iters'
p620
I4
sS'meta'
p621
(lp622
(dp623
S'objective'
p624
I1848
sS'query_time'
p625
F17.534171104431152
sS'comp_time'
p626
F0.22944903373718262
sS'exec_cq'
p627
I76
sS'total_cq'
p628
I76
sa(dp629
g624
I17
sg625
F0.0049860477447509766
sg626
F0.015105009078979492
sg627
I16
sg628
I16
sa(dp630
g624
I38
sg625
F0.0028998851776123047
sg626
F0.011784076690673828
sg627
I9
sg628
I9
sa(dp631
g624
I4
sg625
F0.0007038116455078125
sg626
F0.006044149398803711
sg627
I3
sg628
I3
sasS'total_cqs'
p632
I76
ssI57
(dp633
S'iters'
p634
I5
sS'meta'
p635
(lp636
(dp637
S'objective'
p638
I34
sS'query_time'
p639
F88.1940848827362
sS'comp_time'
p640
F6.3125128746032715
sS'exec_cq'
p641
I51
sS'total_cq'
p642
I51
sa(dp643
g638
I10
sg639
F0.014309883117675781
sg640
F0.045392751693725586
sg641
I27
sg642
I27
sa(dp644
g638
I6
sg639
F0.0021469593048095703
sg640
F0.009466886520385742
sg641
I13
sg642
I13
sa(dp645
g638
I37
sg639
F0.0004570484161376953
sg640
F0.004065990447998047
sg641
I8
sg642
I8
sa(dp646
g638
I15
sg639
F0.00036406517028808594
sg640
F0.00341796875
sg641
I4
sg642
I4
sasS'total_cqs'
p647
I51
ssI58
(dp648
S'iters'
p649
I7
sS'meta'
p650
(lp651
(dp652
S'objective'
p653
I87141
sS'query_time'
p654
F540.9052288532257
sS'comp_time'
p655
F40.63265013694763
sS'exec_cq'
p656
I486
sS'total_cq'
p657
I486
sa(dp658
g653
I87087
sg654
F11.079723119735718
sg655
F40.966734170913696
sg656
I414
sg657
I414
sa(dp659
g653
I45
sg654
F0.014008045196533203
sg655
F0.04585075378417969
sg656
I28
sg657
I28
sa(dp660
g653
I38
sg654
F0.002816915512084961
sg655
F0.009365081787109375
sg656
I16
sg657
I16
sa(dp661
g653
I13
sg654
F0.0014820098876953125
sg655
F0.007035017013549805
sg656
I9
sg657
I9
sa(dp662
g653
I64
sg654
F0.0006690025329589844
sg655
F0.0052988529205322266
sg656
I4
sg657
I4
sa(dp663
g653
I200
sg654
F0.00026702880859375
sg655
F0.002872943878173828
sg656
I2
sg657
I2
sasS'total_cqs'
p664
I486
ssI59
(dp665
S'iters'
p666
I2
sS'meta'
p667
(lp668
(dp669
S'objective'
p670
I12
sS'query_time'
p671
F0.2087559700012207
sS'comp_time'
p672
F0.002084016799926758
sS'exec_cq'
p673
I7
sS'total_cq'
p674
I7
sa(dp675
g670
I6
sg671
F0.00019097328186035156
sg672
F0.002683877944946289
sg673
I2
sg674
I2
sasS'total_cqs'
p676
I7
ssI60
(dp677
S'iters'
p678
I1
sS'meta'
p679
(lp680
(dp681
S'objective'
p682
I5
sS'query_time'
p683
F0.08706998825073242
sS'comp_time'
p684
F0.0005459785461425781
sS'exec_cq'
p685
I5
sS'total_cq'
p686
I5
sasS'total_cqs'
p687
I5
ssI61
(dp688
S'iters'
p689
I0
sS'meta'
p690
(lp691
sS'total_cqs'
p692
I1
ssI62
(dp693
S'iters'
p694
I2
sS'meta'
p695
(lp696
(dp697
S'objective'
p698
I36
sS'query_time'
p699
F0.1251208782196045
sS'comp_time'
p700
F0.00030803680419921875
sS'exec_cq'
p701
I12
sS'total_cq'
p702
I12
sa(dp703
g698
I37
sg699
F8.487701416015625e-05
sg700
F7.987022399902344e-05
sg701
I9
sg702
I9
sasS'total_cqs'
p704
I12
ssI63
(dp705
S'iters'
p706
I0
sS'meta'
p707
(lp708
sS'total_cqs'
p709
I1
ssI64
(dp710
S'iters'
p711
I3
sS'meta'
p712
(lp713
(dp714
S'objective'
p715
I28
sS'query_time'
p716
F2.0032849311828613
sS'comp_time'
p717
F0.007278919219970703
sS'exec_cq'
p718
I12
sS'total_cq'
p719
I12
sa(dp720
g715
I1
sg716
F0.0002410411834716797
sg717
F0.0013589859008789062
sg718
I4
sg719
I4
sa(dp721
g715
I7
sg716
F4.291534423828125e-05
sg717
F0.00033593177795410156
sg718
I2
sg719
I2
sasS'total_cqs'
p722
I12
ssI65
(dp723
S'iters'
p724
I4
sS'meta'
p725
(lp726
(dp727
S'objective'
p728
I180
sS'query_time'
p729
F4.227112054824829
sS'comp_time'
p730
F0.06976008415222168
sS'exec_cq'
p731
I27
sS'total_cq'
p732
I27
sa(dp733
g728
I1
sg729
F0.0012030601501464844
sg730
F0.007383108139038086
sg731
I7
sg732
I7
sa(dp734
g728
I3
sg729
F0.00015997886657714844
sg730
F0.0012912750244140625
sg731
I3
sg732
I3
sa(dp735
g728
I21
sg729
F8.0108642578125e-05
sg730
F0.0009441375732421875
sg731
I2
sg732
I2
sasS'total_cqs'
p736
I27
ssI66
(dp737
S'iters'
p738
I0
sS'meta'
p739
(lp740
sS'total_cqs'
p741
I1
ssI67
(dp742
S'iters'
p743
I2
sS'meta'
p744
(lp745
(dp746
S'objective'
p747
I572
sS'query_time'
p748
F4.989374160766602
sS'comp_time'
p749
F0.016066789627075195
sS'exec_cq'
p750
I35
sS'total_cq'
p751
I35
sa(dp752
g747
I27
sg748
F0.001071929931640625
sg749
F0.009463787078857422
sg750
I2
sg751
I2
sasS'total_cqs'
p753
I35
ssI68
(dp754
S'iters'
p755
I0
sS'meta'
p756
(lp757
sS'total_cqs'
p758
I1
ssI69
(dp759
S'iters'
p760
I1
sS'meta'
p761
(lp762
(dp763
S'objective'
p764
I1246
sS'query_time'
p765
F2.052717924118042
sS'comp_time'
p766
F0.00035691261291503906
sS'exec_cq'
p767
I51
sS'total_cq'
p768
I51
sasS'total_cqs'
p769
I51
ssI70
(dp770
S'iters'
p771
I1
sS'meta'
p772
(lp773
(dp774
S'objective'
p775
I9
sS'query_time'
p776
F0.7179129123687744
sS'comp_time'
p777
F0.0005390644073486328
sS'exec_cq'
p778
I6
sS'total_cq'
p779
I6
sasS'total_cqs'
p780
I6
ssI71
(dp781
S'iters'
p782
I4
sS'meta'
p783
(lp784
(dp785
S'objective'
p786
I3181
sS'query_time'
p787
F1.5423579216003418
sS'comp_time'
p788
F0.0013689994812011719
sS'exec_cq'
p789
I85
sS'total_cq'
p790
I85
sa(dp791
g786
I3028
sg787
F0.0005578994750976562
sg788
F0.0011451244354248047
sg789
I81
sg790
I81
sa(dp792
g786
I47
sg787
F4.601478576660156e-05
sg788
F0.0003407001495361328
sg789
I3
sg790
I3
sa(dp793
g786
I9
sg787
F3.695487976074219e-05
sg788
F0.00030493736267089844
sg789
I2
sg790
I2
sasS'total_cqs'
p794
I85
ssI72
(dp795
S'iters'
p796
I4
sS'meta'
p797
(lp798
(dp799
S'objective'
p800
I14
sS'query_time'
p801
F1.9630529880523682
sS'comp_time'
p802
F0.009559869766235352
sS'exec_cq'
p803
I8
sS'total_cq'
p804
I8
sa(dp805
g800
I7
sg801
F0.00047278404235839844
sg802
F0.004775047302246094
sg803
I6
sg804
I6
sa(dp806
g800
I0
sg801
F0.0003070831298828125
sg802
F0.0032041072845458984
sg803
I4
sg804
I4
sa(dp807
g800
I6
sg801
F3.600120544433594e-05
sg802
F0.0002117156982421875
sg803
I2
sg804
I2
sasS'total_cqs'
p808
I8
ssI73
(dp809
S'iters'
p810
I0
sS'meta'
p811
(lp812
sS'total_cqs'
p813
I1
ssI74
(dp814
S'iters'
p815
I0
sS'meta'
p816
(lp817
sS'total_cqs'
p818
I1
ssI75
(dp819
S'iters'
p820
I1
sS'meta'
p821
(lp822
(dp823
S'objective'
p824
I5
sS'query_time'
p825
F0.19639992713928223
sS'comp_time'
p826
F0.00021195411682128906
sS'exec_cq'
p827
I5
sS'total_cq'
p828
I5
sasS'total_cqs'
p829
I5
ssI76
(dp830
S'iters'
p831
I1
sS'meta'
p832
(lp833
(dp834
S'objective'
p835
I1
sS'query_time'
p836
F0.4958469867706299
sS'comp_time'
p837
F0.0006201267242431641
sS'exec_cq'
p838
I2
sS'total_cq'
p839
I2
sasS'total_cqs'
p840
I2
ssI77
(dp841
S'iters'
p842
I0
sS'meta'
p843
(lp844
sS'total_cqs'
p845
I1
ssI78
(dp846
S'iters'
p847
I0
sS'meta'
p848
(lp849
sS'total_cqs'
p850
I1
ssI103
(dp851
S'iters'
p852
I1
sS'meta'
p853
(lp854
(dp855
S'objective'
p856
I58
sS'query_time'
p857
F1.137631893157959
sS'comp_time'
p858
F0.0003159046173095703
sS'exec_cq'
p859
I12
sS'total_cq'
p860
I12
sasS'total_cqs'
p861
I12
ssI104
(dp862
S'iters'
p863
I2
sS'meta'
p864
(lp865
(dp866
S'objective'
p867
I0
sS'query_time'
p868
F4.748111963272095
sS'comp_time'
p869
F0.13493084907531738
sS'exec_cq'
p870
I4
sS'total_cq'
p871
I4
sa(dp872
g867
I3
sg868
F0.06443595886230469
sg869
F0.08739113807678223
sg870
I2
sg871
I2
sasS'total_cqs'
p873
I4
ssI105
(dp874
S'iters'
p875
I0
sS'meta'
p876
(lp877
sS'total_cqs'
p878
I1
ssI106
(dp879
S'iters'
p880
I1
sS'meta'
p881
(lp882
(dp883
S'objective'
p884
I2
sS'query_time'
p885
F0.1465320587158203
sS'comp_time'
p886
F0.00017905235290527344
sS'exec_cq'
p887
I4
sS'total_cq'
p888
I4
sasS'total_cqs'
p889
I4
ssI107
(dp890
S'iters'
p891
I2
sS'meta'
p892
(lp893
(dp894
S'objective'
p895
I88
sS'query_time'
p896
F0.576862096786499
sS'comp_time'
p897
F0.0003809928894042969
sS'exec_cq'
p898
I16
sS'total_cq'
p899
I16
sa(dp900
g895
I2
sg896
F3.1948089599609375e-05
sg897
F0.00019788742065429688
sg898
I3
sg899
I3
sasS'total_cqs'
p901
I16
ssI108
(dp902
S'iters'
p903
I0
sS'meta'
p904
(lp905
sS'total_cqs'
p906
I1
ss.