(dp0
I1
(dp1
S'iters'
p2
I4
sS'meta'
p3
(lp4
(dp5
S'objective'
p6
I40
sS'query_time'
p7
F0.03443789482116699
sS'comp_time'
p8
F0.017826080322265625
sS'exec_cq'
p9
I12
sS'total_cq'
p10
I12
sa(dp11
g6
I35
sg7
F5.602836608886719e-05
sg8
F0.00017023086547851562
sg9
I10
sg10
I10
sa(dp12
g6
I31
sg7
F4.291534423828125e-05
sg8
F0.00010991096496582031
sg9
I9
sg10
I9
sa(dp13
g6
I25
sg7
F3.0040740966796875e-05
sg8
F7.200241088867188e-05
sg9
I8
sg10
I8
sasS'total_cqs'
p14
I12
ssI2
(dp15
S'iters'
p16
I5
sS'meta'
p17
(lp18
(dp19
S'objective'
p20
I226
sS'query_time'
p21
F0.13770103454589844
sS'comp_time'
p22
F0.03661632537841797
sS'exec_cq'
p23
I27
sS'total_cq'
p24
I27
sa(dp25
g20
I212
sg21
F0.00021195411682128906
sg22
F0.0008423328399658203
sg23
I23
sg24
I23
sa(dp26
g20
I213
sg21
F0.00013399124145507812
sg22
F0.00036716461181640625
sg23
I20
sg24
I20
sa(dp27
g20
I191
sg21
F9.202957153320312e-05
sg22
F0.0002617835998535156
sg23
I19
sg24
I19
sa(dp28
g20
I183
sg21
F8.821487426757812e-05
sg22
F0.0002772808074951172
sg23
I17
sg24
I17
sasS'total_cqs'
p29
I27
ssI3
(dp30
S'iters'
p31
I4
sS'meta'
p32
(lp33
(dp34
S'objective'
p35
I588
sS'query_time'
p36
F187.6770739555359
sS'comp_time'
p37
F1.0289881229400635
sS'exec_cq'
p38
I30
sS'total_cq'
p39
I43
sa(dp40
g35
I435
sg36
F43.423134088516235
sg37
F0.24239277839660645
sg38
I25
sg39
I36
sa(dp41
g35
I517
sg36
F11.605334997177124
sg37
F0.4760575294494629
sg38
I28
sg39
I28
sa(dp42
g35
I513
sg36
F0.009670734405517578
sg37
F0.000148773193359375
sg38
I25
sg39
I25
sasS'total_cqs'
p43
I43
ssI4
(dp44
S'iters'
p45
I2
sS'meta'
p46
(lp47
(dp48
S'objective'
p49
I42
sS'query_time'
p50
F4.9290289878845215
sS'comp_time'
p51
F0.32495617866516113
sS'exec_cq'
p52
I11
sS'total_cq'
p53
I11
sa(dp54
g49
I2
sg50
F0.17376303672790527
sg51
F0.2668952941894531
sg52
I2
sg53
I2
sasS'total_cqs'
p55
I11
ssI5
(dp56
S'iters'
p57
I3
sS'meta'
p58
(lp59
(dp60
S'objective'
p61
I0
sS'query_time'
p62
F34.37206506729126
sS'comp_time'
p63
F10.448696851730347
sS'exec_cq'
p64
I8
sS'total_cq'
p65
I8
sa(dp66
g61
I2
sg62
F0.014816045761108398
sg63
F0.02418804168701172
sg64
I4
sg65
I4
sa(dp67
g61
I0
sg62
F0.011749982833862305
sg63
F0.021995067596435547
sg64
I3
sg65
I3
sasS'total_cqs'
p68
I8
ssI6
(dp69
S'iters'
p70
I4
sS'meta'
p71
(lp72
(dp73
S'objective'
p74
I21
sS'query_time'
p75
F37.59816884994507
sS'comp_time'
p76
F2.2960362434387207
sS'exec_cq'
p77
I18
sS'total_cq'
p78
I18
sa(dp79
g74
I1
sg75
F0.848639965057373
sg76
F2.992861270904541
sg77
I7
sg78
I7
sa(dp80
g74
I4
sg75
F0.3840939998626709
sg76
F1.1177728176116943
sg77
I4
sg78
I4
sa(dp81
g74
I1
sg75
F0.3437309265136719
sg76
F1.695521354675293
sg77
I3
sg78
I3
sasS'total_cqs'
p82
I18
ssI7
(dp83
S'iters'
p84
I3
sS'meta'
p85
(lp86
(dp87
S'objective'
p88
I1
sS'query_time'
p89
F12.474178075790405
sS'comp_time'
p90
F1.9183950424194336
sS'exec_cq'
p91
I9
sS'total_cq'
p92
I9
sa(dp93
g88
I1
sg89
F0.22933411598205566
sg90
F0.4159359931945801
sg91
I6
sg92
I6
sa(dp94
g88
I1
sg89
F0.13835406303405762
sg90
F0.0433962345123291
sg91
I3
sg92
I3
sasS'total_cqs'
p95
I9
ssI8
(dp96
S'iters'
p97
I4
sS'meta'
p98
(lp99
(dp100
S'objective'
p101
I264
sS'query_time'
p102
F0.1295931339263916
sS'comp_time'
p103
F0.03317975997924805
sS'exec_cq'
p104
I27
sS'total_cq'
p105
I27
sa(dp106
g101
I225
sg102
F0.00014400482177734375
sg103
F0.0005581378936767578
sg104
I22
sg105
I22
sa(dp107
g101
I237
sg102
F9.202957153320312e-05
sg103
F0.00022983551025390625
sg104
I19
sg105
I19
sa(dp108
g101
I225
sg102
F8.606910705566406e-05
sg103
F0.00014328956604003906
sg104
I18
sg105
I18
sasS'total_cqs'
p109
I27
ssI9
(dp110
S'iters'
p111
I3
sS'meta'
p112
(lp113
(dp114
S'objective'
p115
I2
sS'query_time'
p116
F0.04518699645996094
sS'comp_time'
p117
F0.005223989486694336
sS'exec_cq'
p118
I7
sS'total_cq'
p119
I7
sa(dp120
g115
I1
sg116
F0.0012450218200683594
sg117
F0.0004420280456542969
sg118
I5
sg119
I5
sa(dp121
g115
I2
sg116
F2.6941299438476562e-05
sg117
F0.00014710426330566406
sg118
I3
sg119
I3
sasS'total_cqs'
p122
I7
ssI10
(dp123
S'iters'
p124
I5
sS'meta'
p125
(lp126
(dp127
S'objective'
p128
I564
sS'query_time'
p129
F0.3881521224975586
sS'comp_time'
p130
F0.08446574211120605
sS'exec_cq'
p131
I51
sS'total_cq'
p132
I51
sa(dp133
g128
I219
sg129
F0.0003788471221923828
sg130
F0.0033888816833496094
sg131
I23
sg132
I37
sa(dp134
g128
I292
sg129
F0.0003142356872558594
sg130
F0.0016849040985107422
sg131
I25
sg132
I25
sa(dp135
g128
I271
sg129
F0.0001399517059326172
sg130
F0.0005266666412353516
sg131
I21
sg132
I21
sa(dp136
g128
I29
sg129
F0.0019381046295166016
sg130
F0.00046706199645996094
sg131
I3
sg132
I3
sasS'total_cqs'
p137
I51
ssI11
(dp138
S'iters'
p139
I5
sS'meta'
p140
(lp141
(dp142
S'objective'
p143
I1106
sS'query_time'
p144
F0.5550611019134521
sS'comp_time'
p145
F0.16704869270324707
sS'exec_cq'
p146
I63
sS'total_cq'
p147
I63
sa(dp148
g143
I951
sg144
F0.0013310909271240234
sg145
F0.0046389102935791016
sg146
I47
sg147
I47
sa(dp149
g143
I19
sg144
F0.0017402172088623047
sg145
F0.003258943557739258
sg146
I9
sg147
I9
sa(dp150
g143
I2
sg144
F3.695487976074219e-05
sg145
F0.00024199485778808594
sg146
I5
sg147
I5
sa(dp151
g143
I16
sg144
F1.5020370483398438e-05
sg145
F0.00015592575073242188
sg146
I2
sg147
I2
sasS'total_cqs'
p152
I63
ssI12
(dp153
S'iters'
p154
I5
sS'meta'
p155
(lp156
(dp157
S'objective'
p158
I289
sS'query_time'
p159
F0.3563377857208252
sS'comp_time'
p160
F0.0932917594909668
sS'exec_cq'
p161
I50
sS'total_cq'
p162
I50
sa(dp163
g158
I344
sg159
F0.0005550384521484375
sg160
F0.0029718875885009766
sg161
I33
sg162
I33
sa(dp164
g158
I11
sg159
F0.0019290447235107422
sg160
F0.0017397403717041016
sg161
I8
sg162
I8
sa(dp165
g158
I2
sg159
F0.00015616416931152344
sg160
F0.0005710124969482422
sg161
I4
sg162
I4
sa(dp166
g158
I1
sg159
F0.0001380443572998047
sg160
F0.0003304481506347656
sg161
I2
sg162
I2
sasS'total_cqs'
p167
I50
ssI13
(dp168
S'iters'
p169
I3
sS'meta'
p170
(lp171
(dp172
S'objective'
p173
I14
sS'query_time'
p174
F0.1530919075012207
sS'comp_time'
p175
F0.02883005142211914
sS'exec_cq'
p176
I20
sS'total_cq'
p177
I20
sa(dp178
g173
I56
sg174
F4.8160552978515625e-05
sg175
F0.0003390312194824219
sg176
I9
sg177
I9
sa(dp179
g173
I6
sg174
F0.001194000244140625
sg175
F0.00017595291137695312
sg176
I2
sg177
I2
sasS'total_cqs'
p180
I20
ssI14
(dp181
S'iters'
p182
I3
sS'meta'
p183
(lp184
(dp185
S'objective'
p186
I1
sS'query_time'
p187
F34.47915697097778
sS'comp_time'
p188
F0.9560892581939697
sS'exec_cq'
p189
I9
sS'total_cq'
p190
I9
sa(dp191
g186
I4
sg187
F0.27317380905151367
sg188
F0.5522904396057129
sg189
I5
sg190
I5
sa(dp192
g186
I1
sg187
F0.07680606842041016
sg188
F0.40950608253479004
sg189
I2
sg190
I2
sasS'total_cqs'
p193
I9
ssI15
(dp194
S'iters'
p195
I4
sS'meta'
p196
(lp197
(dp198
S'objective'
p199
I0
sS'query_time'
p200
F3.680469036102295
sS'comp_time'
p201
F0.09322977066040039
sS'exec_cq'
p202
I11
sS'total_cq'
p203
I11
sa(dp204
g199
I1
sg200
F0.04381203651428223
sg201
F0.16033482551574707
sg202
I5
sg203
I5
sa(dp205
g199
I0
sg200
F0.02889704704284668
sg201
F0.046457767486572266
sg202
I3
sg203
I3
sa(dp206
g199
I6
sg200
F0.012323141098022461
sg201
F0.11719679832458496
sg202
I2
sg203
I2
sasS'total_cqs'
p207
I11
ssI16
(dp208
S'iters'
p209
I1
sS'meta'
p210
(lp211
(dp212
S'objective'
p213
I26
sS'query_time'
p214
F0.023491859436035156
sS'comp_time'
p215
F0.004692554473876953
sS'exec_cq'
p216
I8
sS'total_cq'
p217
I8
sasS'total_cqs'
p218
I8
ssI17
(dp219
S'iters'
p220
I3
sS'meta'
p221
(lp222
(dp223
S'objective'
p224
I2
sS'query_time'
p225
F0.8780579566955566
sS'comp_time'
p226
F0.0383458137512207
sS'exec_cq'
p227
I11
sS'total_cq'
p228
I11
sa(dp229
g224
I0
sg225
F0.008645057678222656
sg226
F0.012228965759277344
sg227
I6
sg228
I6
sa(dp230
g224
I3
sg225
F0.0002009868621826172
sg226
F0.0004851818084716797
sg227
I3
sg228
I3
sasS'total_cqs'
p231
I11
ssI18
(dp232
S'iters'
p233
I3
sS'meta'
p234
(lp235
(dp236
S'objective'
p237
I24
sS'query_time'
p238
F0.17352533340454102
sS'comp_time'
p239
F0.023695945739746094
sS'exec_cq'
p240
I11
sS'total_cq'
p241
I11
sa(dp242
g237
I23
sg238
F0.00034546852111816406
sg239
F0.0007443428039550781
sg240
I8
sg241
I8
sa(dp243
g237
I20
sg238
F3.719329833984375e-05
sg239
F7.605552673339844e-05
sg240
I6
sg241
I7
sasS'total_cqs'
p244
I11
ssI19
(dp245
S'iters'
p246
I0
sS'meta'
p247
(lp248
sS'total_cqs'
p249
I1
ssI20
(dp250
S'iters'
p251
I0
sS'meta'
p252
(lp253
sS'total_cqs'
p254
I1
ssI21
(dp255
S'iters'
p256
I0
sS'meta'
p257
(lp258
sS'total_cqs'
p259
I1
ssI22
(dp260
S'iters'
p261
I1
sS'meta'
p262
(lp263
(dp264
S'objective'
p265
I151
sS'query_time'
p266
F0.05437493324279785
sS'comp_time'
p267
F0.029822826385498047
sS'exec_cq'
p268
I18
sS'total_cq'
p269
I18
sasS'total_cqs'
p270
I18
ssI23
(dp271
S'iters'
p272
I1
sS'meta'
p273
(lp274
(dp275
S'objective'
p276
I118
sS'query_time'
p277
F0.05127310752868652
sS'comp_time'
p278
F0.023903846740722656
sS'exec_cq'
p279
I16
sS'total_cq'
p280
I16
sasS'total_cqs'
p281
I16
ssI24
(dp282
S'iters'
p283
I0
sS'meta'
p284
(lp285
sS'total_cqs'
p286
I1
ssI25
(dp287
S'iters'
p288
I0
sS'meta'
p289
(lp290
sS'total_cqs'
p291
I1
ssI26
(dp292
S'iters'
p293
I1
sS'meta'
p294
(lp295
(dp296
S'objective'
p297
I859
sS'query_time'
p298
F0.1443331241607666
sS'comp_time'
p299
F0.10407805442810059
sS'exec_cq'
p300
I42
sS'total_cq'
p301
I42
sasS'total_cqs'
p302
I42
ssI27
(dp303
S'iters'
p304
I4
sS'meta'
p305
(lp306
(dp307
S'objective'
p308
I241
sS'query_time'
p309
F22.23914408683777
sS'comp_time'
p310
F1.6957931518554688
sS'exec_cq'
p311
I30
sS'total_cq'
p312
I30
sa(dp313
g308
I4
sg309
F0.43836498260498047
sg310
F1.4817347526550293
sg311
I5
sg312
I5
sa(dp314
g308
I12
sg309
F0.19934701919555664
sg310
F0.30135679244995117
sg311
I3
sg312
I3
sa(dp315
g308
I3
sg309
F0.014093875885009766
sg310
F0.1450788974761963
sg311
I2
sg312
I2
sasS'total_cqs'
p316
I30
ssI28
(dp317
S'iters'
p318
I0
sS'meta'
p319
(lp320
sS'total_cqs'
p321
I1
ssI29
(dp322
S'iters'
p323
I5
sS'meta'
p324
(lp325
(dp326
S'objective'
p327
I329
sS'query_time'
p328
F28.4094340801239
sS'comp_time'
p329
F0.37305212020874023
sS'exec_cq'
p330
I35
sS'total_cq'
p331
I49
sa(dp332
g327
I6
sg328
F0.0317840576171875
sg329
F0.0481717586517334
sg330
I17
sg331
I17
sa(dp333
g327
I5
sg328
F0.028028011322021484
sg329
F0.16987991333007812
sg330
I9
sg331
I9
sa(dp334
g327
I1
sg328
F0.0047190189361572266
sg329
F0.009979009628295898
sg330
I5
sg331
I5
sa(dp335
g327
I5
sg328
F0.0025060176849365234
sg329
F0.004236698150634766
sg330
I3
sg331
I3
sasS'total_cqs'
p336
I49
ssI30
(dp337
S'iters'
p338
I1
sS'meta'
p339
(lp340
(dp341
S'objective'
p342
I1
sS'query_time'
p343
F0.6735310554504395
sS'comp_time'
p344
F0.012381792068481445
sS'exec_cq'
p345
I2
sS'total_cq'
p346
I2
sasS'total_cqs'
p347
I2
ssI31
(dp348
S'iters'
p349
I0
sS'meta'
p350
(lp351
sS'total_cqs'
p352
I1
ssI32
(dp353
S'iters'
p354
I1
sS'meta'
p355
(lp356
(dp357
S'objective'
p358
I1
sS'query_time'
p359
F0.029822111129760742
sS'comp_time'
p360
F0.0019800662994384766
sS'exec_cq'
p361
I2
sS'total_cq'
p362
I2
sasS'total_cqs'
p363
I2
ssI33
(dp364
S'iters'
p365
I5
sS'meta'
p366
(lp367
(dp368
S'objective'
p369
I3858
sS'query_time'
p370
F16.59639620780945
sS'comp_time'
p371
F0.9395813941955566
sS'exec_cq'
p372
I103
sS'total_cq'
p373
I103
sa(dp374
g369
I3
sg370
F0.0080718994140625
sg371
F0.057398319244384766
sg372
I16
sg373
I16
sa(dp375
g369
I21
sg370
F0.0012590885162353516
sg371
F0.009334325790405273
sg372
I7
sg373
I7
sa(dp376
g369
I21
sg370
F0.0005769729614257812
sg371
F0.0011680126190185547
sg372
I4
sg373
I4
sa(dp377
g369
I18
sg370
F0.00013899803161621094
sg371
F0.0003802776336669922
sg372
I2
sg373
I2
sasS'total_cqs'
p378
I103
ssI34
(dp379
S'iters'
p380
I1
sS'meta'
p381
(lp382
(dp383
S'objective'
p384
I1
sS'query_time'
p385
F0.0156710147857666
sS'comp_time'
p386
F0.0019571781158447266
sS'exec_cq'
p387
I2
sS'total_cq'
p388
I2
sasS'total_cqs'
p389
I2
ssI35
(dp390
S'iters'
p391
I5
sS'meta'
p392
(lp393
(dp394
S'objective'
p395
I1595
sS'query_time'
p396
F69.22927522659302
sS'comp_time'
p397
F2.3711259365081787
sS'exec_cq'
p398
I70
sS'total_cq'
p399
I70
sa(dp400
g395
I3
sg396
F0.004580020904541016
sg397
F0.009700775146484375
sg398
I16
sg399
I16
sa(dp401
g395
I8
sg396
F0.0016188621520996094
sg397
F0.003734111785888672
sg398
I7
sg399
I7
sa(dp402
g395
I6
sg396
F0.0007290840148925781
sg397
F0.001641988754272461
sg398
I4
sg399
I4
sa(dp403
g395
I11
sg396
F0.0002880096435546875
sg397
F0.0006549358367919922
sg398
I2
sg399
I2
sasS'total_cqs'
p404
I70
ssI36
(dp405
S'iters'
p406
I4
sS'meta'
p407
(lp408
(dp409
S'objective'
p410
I357
sS'query_time'
p411
F0.7648959159851074
sS'comp_time'
p412
F0.1529066562652588
sS'exec_cq'
p413
I33
sS'total_cq'
p414
I33
sa(dp415
g410
I375
sg411
F0.008879899978637695
sg412
F0.02210688591003418
sg413
I29
sg414
I29
sa(dp416
g410
I363
sg411
F0.0030090808868408203
sg412
F0.004993915557861328
sg413
I25
sg414
I25
sa(dp417
g410
I354
sg411
F0.0015940666198730469
sg412
F0.0019001960754394531
sg413
I24
sg414
I24
sasS'total_cqs'
p418
I33
ssI37
(dp419
S'iters'
p420
I1
sS'meta'
p421
(lp422
(dp423
S'objective'
p424
I1
sS'query_time'
p425
F0.009937047958374023
sS'comp_time'
p426
F0.0017273426055908203
sS'exec_cq'
p427
I2
sS'total_cq'
p428
I2
sasS'total_cqs'
p429
I2
ssI38
(dp430
S'iters'
p431
I2
sS'meta'
p432
(lp433
(dp434
S'objective'
p435
I0
sS'query_time'
p436
F0.02301788330078125
sS'comp_time'
p437
F0.0030660629272460938
sS'exec_cq'
p438
I4
sS'total_cq'
p439
I4
sa(dp440
g435
I1
sg436
F8.106231689453125e-05
sg437
F0.0001571178436279297
sg438
I2
sg439
I2
sasS'total_cqs'
p441
I4
ssI39
(dp442
S'iters'
p443
I2
sS'meta'
p444
(lp445
(dp446
S'objective'
p447
I666
sS'query_time'
p448
F0.17336606979370117
sS'comp_time'
p449
F0.19938397407531738
sS'exec_cq'
p450
I44
sS'total_cq'
p451
I44
sa(dp452
g447
I782
sg448
F0.0003490447998046875
sg449
F0.0010151863098144531
sg450
I37
sg451
I37
sasS'total_cqs'
p453
I44
ssI40
(dp454
S'iters'
p455
I1
sS'meta'
p456
(lp457
(dp458
S'objective'
p459
I18
sS'query_time'
p460
F0.03663301467895508
sS'comp_time'
p461
F0.006326913833618164
sS'exec_cq'
p462
I7
sS'total_cq'
p463
I7
sasS'total_cqs'
p464
I7
ssI41
(dp465
S'iters'
p466
I1
sS'meta'
p467
(lp468
(dp469
S'objective'
p470
I64
sS'query_time'
p471
F0.07352614402770996
sS'comp_time'
p472
F0.02012181282043457
sS'exec_cq'
p473
I12
sS'total_cq'
p474
I12
sasS'total_cqs'
p475
I12
ssI42
(dp476
S'iters'
p477
I2
sS'meta'
p478
(lp479
(dp480
S'objective'
p481
I785
sS'query_time'
p482
F0.11042618751525879
sS'comp_time'
p483
F0.07204294204711914
sS'exec_cq'
p484
I41
sS'total_cq'
p485
I41
sa(dp486
g481
I779
sg482
F0.00017499923706054688
sg483
F0.0002300739288330078
sg484
I40
sg485
I40
sasS'total_cqs'
p487
I41
ssI43
(dp488
S'iters'
p489
I1
sS'meta'
p490
(lp491
(dp492
S'objective'
p493
I18
sS'query_time'
p494
F0.11489486694335938
sS'comp_time'
p495
F0.006031990051269531
sS'exec_cq'
p496
I7
sS'total_cq'
p497
I7
sasS'total_cqs'
p498
I7
ssI44
(dp499
S'iters'
p500
I4
sS'meta'
p501
(lp502
(dp503
S'objective'
p504
I830
sS'query_time'
p505
F0.14137005805969238
sS'comp_time'
p506
F0.09135007858276367
sS'exec_cq'
p507
I47
sS'total_cq'
p508
I47
sa(dp509
g504
I901
sg505
F0.0002911090850830078
sg506
F0.0009868144989013672
sg507
I40
sg508
I40
sa(dp510
g504
I19
sg505
F0.001374959945678711
sg506
F0.001379251480102539
sg507
I3
sg508
I3
sa(dp511
g504
I21
sg505
F2.5033950805664062e-05
sg506
F0.00010538101196289062
sg507
I2
sg508
I2
sasS'total_cqs'
p512
I47
ssI45
(dp513
S'iters'
p514
I0
sS'meta'
p515
(lp516
sS'total_cqs'
p517
I1
ssI46
(dp518
S'iters'
p519
I3
sS'meta'
p520
(lp521
(dp522
S'objective'
p523
I9
sS'query_time'
p524
F0.015783071517944336
sS'comp_time'
p525
F0.002735137939453125
sS'exec_cq'
p526
I4
sS'total_cq'
p527
I6
sa(dp528
g523
I5
sg524
F5.698204040527344e-05
sg525
F0.00016570091247558594
sg526
I3
sg527
I5
sa(dp529
g523
I2
sg524
F0.0059778690338134766
sg525
F7.081031799316406e-05
sg526
I4
sg527
I4
sasS'total_cqs'
p530
I6
ssI47
(dp531
S'iters'
p532
I1
sS'meta'
p533
(lp534
(dp535
S'objective'
p536
I1
sS'query_time'
p537
F0.00872492790222168
sS'comp_time'
p538
F0.0030820369720458984
sS'exec_cq'
p539
I2
sS'total_cq'
p540
I2
sasS'total_cqs'
p541
I2
ssI48
(dp542
S'iters'
p543
I0
sS'meta'
p544
(lp545
sS'total_cqs'
p546
I1
ssI49
(dp547
S'iters'
p548
I0
sS'meta'
p549
(lp550
sS'total_cqs'
p551
I1
ssI50
(dp552
S'iters'
p553
I2
sS'meta'
p554
(lp555
(dp556
S'objective'
p557
I5
sS'query_time'
p558
F0.013263940811157227
sS'comp_time'
p559
F0.0020914077758789062
sS'exec_cq'
p560
I5
sS'total_cq'
p561
I5
sa(dp562
g557
I2
sg558
F3.1948089599609375e-05
sg559
F0.0001399517059326172
sg560
I4
sg561
I4
sasS'total_cqs'
p563
I5
ssI51
(dp564
S'iters'
p565
I1
sS'meta'
p566
(lp567
(dp568
S'objective'
p569
I1
sS'query_time'
p570
F0.010731935501098633
sS'comp_time'
p571
F0.0010311603546142578
sS'exec_cq'
p572
I2
sS'total_cq'
p573
I2
sasS'total_cqs'
p574
I2
ssI52
(dp575
S'iters'
p576
I1
sS'meta'
p577
(lp578
(dp579
S'objective'
p580
I1
sS'query_time'
p581
F0.023169994354248047
sS'comp_time'
p582
F0.0010418891906738281
sS'exec_cq'
p583
I2
sS'total_cq'
p584
I2
sasS'total_cqs'
p585
I2
ssI53
(dp586
S'iters'
p587
I2
sS'meta'
p588
(lp589
(dp590
S'objective'
p591
I2
sS'query_time'
p592
F0.028517961502075195
sS'comp_time'
p593
F0.0040743350982666016
sS'exec_cq'
p594
I4
sS'total_cq'
p595
I4
sa(dp596
g591
I2
sg592
F0.00010085105895996094
sg593
F0.00023102760314941406
sg594
I2
sg595
I2
sasS'total_cqs'
p597
I4
ssI54
(dp598
S'iters'
p599
I1
sS'meta'
p600
(lp601
(dp602
S'objective'
p603
I0
sS'query_time'
p604
F0.012786149978637695
sS'comp_time'
p605
F0.001664876937866211
sS'exec_cq'
p606
I3
sS'total_cq'
p607
I3
sasS'total_cqs'
p608
I3
ssI55
(dp609
S'iters'
p610
I5
sS'meta'
p611
(lp612
(dp613
S'objective'
p614
I4485
sS'query_time'
p615
F2.4358389377593994
sS'comp_time'
p616
F1.074552059173584
sS'exec_cq'
p617
I109
sS'total_cq'
p618
I109
sa(dp619
g614
I25
sg615
F0.011006832122802734
sg616
F0.04603910446166992
sg617
I10
sg618
I10
sa(dp620
g614
I14
sg615
F0.0015931129455566406
sg616
F0.002640962600708008
sg617
I6
sg618
I6
sa(dp621
g614
I52
sg615
F0.0002300739288330078
sg616
F0.0005288124084472656
sg617
I3
sg618
I3
sa(dp622
g614
I15
sg615
F0.0001289844512939453
sg616
F0.0002999305725097656
sg617
I2
sg618
I2
sasS'total_cqs'
p623
I109
ssI56
(dp624
S'iters'
p625
I5
sS'meta'
p626
(lp627
(dp628
S'objective'
p629
I1426
sS'query_time'
p630
F1.686523199081421
sS'comp_time'
p631
F0.24880170822143555
sS'exec_cq'
p632
I67
sS'total_cq'
p633
I76
sa(dp634
g629
I30
sg630
F0.007580995559692383
sg631
F0.07467293739318848
sg632
I16
sg633
I16
sa(dp635
g629
I10
sg630
F0.0030460357666015625
sg631
F0.008745431900024414
sg632
I9
sg633
I9
sa(dp636
g629
I7
sg630
F0.0016219615936279297
sg631
F0.0020089149475097656
sg632
I5
sg633
I5
sa(dp637
g629
I11
sg630
F0.00043511390686035156
sg631
F0.0008718967437744141
sg632
I3
sg633
I3
sasS'total_cqs'
p638
I76
ssI57
(dp639
S'iters'
p640
I6
sS'meta'
p641
(lp642
(dp643
S'objective'
p644
I216
sS'query_time'
p645
F25.138217210769653
sS'comp_time'
p646
F0.16567277908325195
sS'exec_cq'
p647
I45
sS'total_cq'
p648
I51
sa(dp649
g644
I95
sg645
F0.02436995506286621
sg646
F0.04520678520202637
sg647
I31
sg648
I31
sa(dp650
g644
I64
sg645
F0.0027909278869628906
sg646
F0.003427267074584961
sg647
I13
sg648
I13
sa(dp651
g644
I1
sg645
F0.0016820430755615234
sg646
F0.0034246444702148438
sg647
I10
sg648
I10
sa(dp652
g644
I2
sg645
F0.0015070438385009766
sg646
F0.003389120101928711
sg647
I5
sg648
I5
sa(dp653
g644
I5
sg645
F0.0004870891571044922
sg646
F0.0011167526245117188
sg647
I3
sg648
I3
sasS'total_cqs'
p654
I51
ssI58
(dp655
S'iters'
p656
I7
sS'meta'
p657
(lp658
(dp659
S'objective'
p660
I83841
sS'query_time'
p661
F323.1744179725647
sS'comp_time'
p662
F26.327609062194824
sS'exec_cq'
p663
I486
sS'total_cq'
p664
I486
sa(dp665
g660
I87641
sg661
F5.5177037715911865
sg662
F9.439914226531982
sg663
I414
sg664
I414
sa(dp666
g660
I65
sg661
F0.015765905380249023
sg662
F0.41927099227905273
sg663
I28
sg664
I28
sa(dp667
g660
I20
sg661
F0.011738061904907227
sg662
F0.4285142421722412
sg663
I13
sg664
I13
sa(dp668
g660
I59
sg661
F0.004618167877197266
sg662
F0.015154361724853516
sg663
I7
sg664
I7
sa(dp669
g660
I105
sg661
F0.0017349720001220703
sg662
F0.002361297607421875
sg663
I3
sg664
I3
sa(dp670
g660
I107
sg661
F0.0009601116180419922
sg662
F0.0014209747314453125
sg663
I2
sg664
I2
sasS'total_cqs'
p671
I486
ssI59
(dp672
S'iters'
p673
I2
sS'meta'
p674
(lp675
(dp676
S'objective'
p677
I4
sS'query_time'
p678
F0.1938939094543457
sS'comp_time'
p679
F0.006311893463134766
sS'exec_cq'
p680
I7
sS'total_cq'
p681
I7
sa(dp682
g677
I2
sg678
F0.0001571178436279297
sg679
F0.00036907196044921875
sg680
I2
sg681
I2
sasS'total_cqs'
p683
I7
ssI60
(dp684
S'iters'
p685
I2
sS'meta'
p686
(lp687
(dp688
S'objective'
p689
I5
sS'query_time'
p690
F0.018771886825561523
sS'comp_time'
p691
F0.0034716129302978516
sS'exec_cq'
p692
I4
sS'total_cq'
p693
I5
sa(dp694
g689
I2
sg690
F2.2172927856445312e-05
sg691
F0.00010728836059570312
sg692
I2
sg693
I4
sasS'total_cqs'
p695
I5
ssI61
(dp696
S'iters'
p697
I0
sS'meta'
p698
(lp699
sS'total_cqs'
p700
I1
ssI62
(dp701
S'iters'
p702
I3
sS'meta'
p703
(lp704
(dp705
S'objective'
p706
I52
sS'query_time'
p707
F0.04141712188720703
sS'comp_time'
p708
F0.023089170455932617
sS'exec_cq'
p709
I12
sS'total_cq'
p710
I12
sa(dp711
g706
I43
sg707
F4.506111145019531e-05
sg708
F0.000164031982421875
sg709
I9
sg710
I9
sa(dp712
g706
I40
sg707
F3.814697265625e-05
sg708
F7.724761962890625e-05
sg709
I8
sg710
I8
sasS'total_cqs'
p713
I12
ssI63
(dp714
S'iters'
p715
I0
sS'meta'
p716
(lp717
sS'total_cqs'
p718
I1
ssI64
(dp719
S'iters'
p720
I3
sS'meta'
p721
(lp722
(dp723
S'objective'
p724
I16
sS'query_time'
p725
F0.13028287887573242
sS'comp_time'
p726
F0.020859956741333008
sS'exec_cq'
p727
I12
sS'total_cq'
p728
I12
sa(dp729
g724
I1
sg725
F0.0002238750457763672
sg726
F0.0011093616485595703
sg727
I4
sg728
I4
sa(dp730
g724
I2
sg725
F6.389617919921875e-05
sg726
F0.00018930435180664062
sg727
I2
sg728
I2
sasS'total_cqs'
p731
I12
ssI65
(dp732
S'iters'
p733
I4
sS'meta'
p734
(lp735
(dp736
S'objective'
p737
I214
sS'query_time'
p738
F0.8232719898223877
sS'comp_time'
p739
F0.1547253131866455
sS'exec_cq'
p740
I27
sS'total_cq'
p741
I27
sa(dp742
g737
I2
sg738
F0.001789093017578125
sg739
F0.00400996208190918
sg740
I7
sg741
I7
sa(dp743
g737
I0
sg738
F0.0008249282836914062
sg739
F0.0013377666473388672
sg740
I5
sg741
I5
sa(dp744
g737
I10
sg738
F0.00010204315185546875
sg739
F0.0002627372741699219
sg740
I2
sg741
I2
sasS'total_cqs'
p745
I27
ssI66
(dp746
S'iters'
p747
I0
sS'meta'
p748
(lp749
sS'total_cqs'
p750
I1
ssI67
(dp751
S'iters'
p752
I2
sS'meta'
p753
(lp754
(dp755
S'objective'
p756
I560
sS'query_time'
p757
F1.0604839324951172
sS'comp_time'
p758
F0.08613896369934082
sS'exec_cq'
p759
I35
sS'total_cq'
p760
I35
sa(dp761
g756
I3
sg757
F0.001107931137084961
sg758
F0.002479076385498047
sg759
I2
sg760
I2
sasS'total_cqs'
p762
I35
ssI68
(dp763
S'iters'
p764
I0
sS'meta'
p765
(lp766
sS'total_cqs'
p767
I1
ssI69
(dp768
S'iters'
p769
I1
sS'meta'
p770
(lp771
(dp772
S'objective'
p773
I1272
sS'query_time'
p774
F0.17320585250854492
sS'comp_time'
p775
F0.1839892864227295
sS'exec_cq'
p776
I51
sS'total_cq'
p777
I51
sasS'total_cqs'
p778
I51
ssI70
(dp779
S'iters'
p780
I2
sS'meta'
p781
(lp782
(dp783
S'objective'
p784
I11
sS'query_time'
p785
F0.01812887191772461
sS'comp_time'
p786
F0.003373861312866211
sS'exec_cq'
p787
I6
sS'total_cq'
p788
I6
sa(dp789
g784
I8
sg785
F4.482269287109375e-05
sg786
F0.000141143798828125
sg787
I5
sg788
I5
sasS'total_cqs'
p790
I6
ssI71
(dp791
S'iters'
p792
I5
sS'meta'
p793
(lp794
(dp795
S'objective'
p796
I3269
sS'query_time'
p797
F0.3601651191711426
sS'comp_time'
p798
F0.43375086784362793
sS'exec_cq'
p799
I85
sS'total_cq'
p800
I85
sa(dp801
g796
I3138
sg797
F0.00040912628173828125
sg798
F0.0014789104461669922
sg799
I81
sg800
I81
sa(dp802
g796
I3054
sg797
F0.0002269744873046875
sg798
F0.0009181499481201172
sg799
I77
sg800
I77
sa(dp803
g796
I31
sg797
F0.002351045608520508
sg798
F0.002337932586669922
sg799
I3
sg800
I3
sa(dp804
g796
I11
sg797
F0.003100872039794922
sg798
F9.989738464355469e-05
sg799
I2
sg800
I2
sasS'total_cqs'
p805
I85
ssI72
(dp806
S'iters'
p807
I3
sS'meta'
p808
(lp809
(dp810
S'objective'
p811
I0
sS'query_time'
p812
F0.28560900688171387
sS'comp_time'
p813
F0.005021810531616211
sS'exec_cq'
p814
I4
sS'total_cq'
p815
I8
sa(dp816
g811
I2
sg812
F0.02836012840270996
sg813
F0.00021147727966308594
sg814
I4
sg815
I5
sa(dp817
g811
I0
sg812
F3.0994415283203125e-05
sg813
F4.649162292480469e-05
sg814
I2
sg815
I3
sasS'total_cqs'
p818
I8
ssI73
(dp819
S'iters'
p820
I0
sS'meta'
p821
(lp822
sS'total_cqs'
p823
I1
ssI74
(dp824
S'iters'
p825
I0
sS'meta'
p826
(lp827
sS'total_cqs'
p828
I1
ssI75
(dp829
S'iters'
p830
I2
sS'meta'
p831
(lp832
(dp833
S'objective'
p834
I5
sS'query_time'
p835
F0.010814905166625977
sS'comp_time'
p836
F0.0018727779388427734
sS'exec_cq'
p837
I5
sS'total_cq'
p838
I5
sa(dp839
g834
I2
sg835
F2.5987625122070312e-05
sg836
F0.0001285076141357422
sg837
I4
sg838
I4
sasS'total_cqs'
p840
I5
ssI76
(dp841
S'iters'
p842
I1
sS'meta'
p843
(lp844
(dp845
S'objective'
p846
I1
sS'query_time'
p847
F0.010261058807373047
sS'comp_time'
p848
F0.0009868144989013672
sS'exec_cq'
p849
I2
sS'total_cq'
p850
I2
sasS'total_cqs'
p851
I2
ssI77
(dp852
S'iters'
p853
I0
sS'meta'
p854
(lp855
sS'total_cqs'
p856
I1
ssI78
(dp857
S'iters'
p858
I0
sS'meta'
p859
(lp860
sS'total_cqs'
p861
I1
ssI103
(dp862
S'iters'
p863
I2
sS'meta'
p864
(lp865
(dp866
S'objective'
p867
I58
sS'query_time'
p868
F0.061396121978759766
sS'comp_time'
p869
F0.015097856521606445
sS'exec_cq'
p870
I12
sS'total_cq'
p871
I12
sa(dp872
g867
I54
sg868
F4.601478576660156e-05
sg869
F9.393692016601562e-05
sg870
I11
sg871
I11
sasS'total_cqs'
p873
I12
ssI104
(dp874
S'iters'
p875
I2
sS'meta'
p876
(lp877
(dp878
S'objective'
p879
I0
sS'query_time'
p880
F1.4299640655517578
sS'comp_time'
p881
F0.05006742477416992
sS'exec_cq'
p882
I4
sS'total_cq'
p883
I4
sa(dp884
g879
I1
sg880
F0.012413978576660156
sg881
F0.1325969696044922
sg882
I2
sg883
I2
sasS'total_cqs'
p885
I4
ssI105
(dp886
S'iters'
p887
I0
sS'meta'
p888
(lp889
sS'total_cqs'
p890
I1
ssI106
(dp891
S'iters'
p892
I1
sS'meta'
p893
(lp894
(dp895
S'objective'
p896
I4
sS'query_time'
p897
F0.020633935928344727
sS'comp_time'
p898
F0.0018391609191894531
sS'exec_cq'
p899
I4
sS'total_cq'
p900
I4
sasS'total_cqs'
p901
I4
ssI107
(dp902
S'iters'
p903
I2
sS'meta'
p904
(lp905
(dp906
S'objective'
p907
I76
sS'query_time'
p908
F0.07853221893310547
sS'comp_time'
p909
F0.019518375396728516
sS'exec_cq'
p910
I16
sS'total_cq'
p911
I16
sa(dp912
g907
I12
sg908
F0.005535125732421875
sg909
F0.00039005279541015625
sg910
I3
sg911
I3
sasS'total_cqs'
p913
I16
ssI108
(dp914
S'iters'
p915
I0
sS'meta'
p916
(lp917
sS'total_cqs'
p918
I1
ss.