(dp0
I1
(dp1
S'iters'
p2
I3
sS'meta'
p3
(lp4
(dp5
S'objective'
p6
I10
sS'query_time'
p7
F0.015677928924560547
sS'comp_time'
p8
F8.273124694824219e-05
sS'exec_cq'
p9
I3
sS'total_cq'
p10
I12
sa(dp11
g6
I9
sg7
F0.01876688003540039
sg8
F7.486343383789062e-05
sg9
I3
sg10
I11
sa(dp12
g6
I8
sg7
F0.008426904678344727
sg8
F7.581710815429688e-05
sg9
I4
sg10
I10
sasS'total_cqs'
p13
I12
ssI2
(dp14
S'iters'
p15
I1
sS'meta'
p16
(lp17
(dp18
S'objective'
p19
I25
sS'query_time'
p20
F0.02817702293395996
sS'comp_time'
p21
F0.000118255615234375
sS'exec_cq'
p22
I2
sS'total_cq'
p23
I27
sasS'total_cqs'
p24
I27
ssI3
(dp25
S'iters'
p26
I4
sS'meta'
p27
(lp28
(dp29
S'objective'
p30
I11
sS'query_time'
p31
F13.451417922973633
sS'comp_time'
p32
F0.000102996826171875
sS'exec_cq'
p33
I1
sS'total_cq'
p34
I43
sa(dp35
g30
I7
sg31
F16.69845700263977
sg32
F0.0003566741943359375
sg33
I1
sg34
I27
sa(dp36
g30
I1
sg31
F29.396883964538574
sg32
F0.00014281272888183594
sg33
I3
sg34
I17
sa(dp37
g30
I7
sg31
F0.001483917236328125
sg32
F5.698204040527344e-05
sg33
I2
sg34
I9
sasS'total_cqs'
p38
I43
ssI4
(dp39
S'iters'
p40
I2
sS'meta'
p41
(lp42
(dp43
S'objective'
p44
I9
sS'query_time'
p45
F0.6345019340515137
sS'comp_time'
p46
F0.00010895729064941406
sS'exec_cq'
p47
I1
sS'total_cq'
p48
I11
sa(dp49
g44
I8
sg45
F3.3360071182250977
sg46
F0.001138925552368164
sg47
I7
sg48
I10
sasS'total_cqs'
p50
I11
ssI5
(dp51
S'iters'
p52
I6
sS'meta'
p53
(lp54
(dp55
S'objective'
p56
I4
sS'query_time'
p57
F6.549531936645508
sS'comp_time'
p58
F8.416175842285156e-05
sS'exec_cq'
p59
I1
sS'total_cq'
p60
I8
sa(dp61
g56
I4
sg57
F5.413702964782715
sg58
F0.00017499923706054688
sg59
I1
sg60
I6
sa(dp62
g56
I3
sg57
F0.037492990493774414
sg58
F7.009506225585938e-05
sg59
I1
sg60
I5
sa(dp63
g56
I2
sg57
F0.6662850379943848
sg58
F0.00010704994201660156
sg59
I1
sg60
I4
sa(dp64
g56
I1
sg57
F0.27575016021728516
sg58
F9.775161743164062e-05
sg59
I1
sg60
I3
sa(dp65
g56
I0
sg57
F0.47713208198547363
sg58
F8.916854858398438e-05
sg59
I1
sg60
I2
sasS'total_cqs'
p66
I8
ssI6
(dp67
S'iters'
p68
I2
sS'meta'
p69
(lp70
(dp71
S'objective'
p72
I4
sS'query_time'
p73
F0.577164888381958
sS'comp_time'
p74
F9.179115295410156e-05
sS'exec_cq'
p75
I1
sS'total_cq'
p76
I18
sa(dp77
g72
I5
sg73
F0.009904146194458008
sg74
F6.198883056640625e-05
sg75
I1
sg76
I7
sasS'total_cqs'
p78
I18
ssI7
(dp79
S'iters'
p80
I2
sS'meta'
p81
(lp82
(dp83
S'objective'
p84
I3
sS'query_time'
p85
F1.4813671112060547
sS'comp_time'
p86
F8.0108642578125e-05
sS'exec_cq'
p87
I1
sS'total_cq'
p88
I9
sa(dp89
g84
I1
sg85
F0.16506505012512207
sg86
F5.2928924560546875e-05
sg87
I1
sg88
I3
sasS'total_cqs'
p90
I9
ssI8
(dp91
S'iters'
p92
I3
sS'meta'
p93
(lp94
(dp95
S'objective'
p96
I23
sS'query_time'
p97
F0.03284788131713867
sS'comp_time'
p98
F9.322166442871094e-05
sS'exec_cq'
p99
I3
sS'total_cq'
p100
I27
sa(dp101
g96
I23
sg97
F0.016218900680541992
sg98
F8.606910705566406e-05
sg99
I1
sg100
I25
sa(dp102
g96
I22
sg97
F0.014580965042114258
sg98
F0.00011396408081054688
sg99
I2
sg100
I24
sasS'total_cqs'
p103
I27
ssI9
(dp104
S'iters'
p105
I2
sS'meta'
p106
(lp107
(dp108
S'objective'
p109
I3
sS'query_time'
p110
F0.025103092193603516
sS'comp_time'
p111
F7.414817810058594e-05
sS'exec_cq'
p112
I1
sS'total_cq'
p113
I7
sa(dp114
g109
I0
sg110
F0.0034830570220947266
sg111
F5.984306335449219e-05
sg112
I1
sg113
I2
sasS'total_cqs'
p115
I7
ssI10
(dp116
S'iters'
p117
I9
sS'meta'
p118
(lp119
(dp120
S'objective'
p121
I47
sS'query_time'
p122
F0.11497783660888672
sS'comp_time'
p123
F0.00011086463928222656
sS'exec_cq'
p124
I2
sS'total_cq'
p125
I51
sa(dp126
g121
I41
sg122
F0.08436799049377441
sg123
F0.00013875961303710938
sg124
I2
sg125
I49
sa(dp127
g121
I31
sg122
F0.05309700965881348
sg123
F0.00012373924255371094
sg124
I1
sg125
I45
sa(dp128
g121
I22
sg122
F0.030658960342407227
sg123
F0.00013208389282226562
sg124
I1
sg125
I38
sa(dp129
g121
I28
sg122
F0.03211688995361328
sg123
F9.107589721679688e-05
sg124
I1
sg125
I30
sa(dp130
g121
I11
sg122
F0.04221701622009277
sg123
F0.00011396408081054688
sg124
I1
sg125
I29
sa(dp131
g121
I14
sg122
F0.014092206954956055
sg123
F0.00015211105346679688
sg124
I2
sg125
I20
sa(dp132
g121
I1
sg122
F0.009013891220092773
sg123
F8.606910705566406e-05
sg124
I1
sg125
I3
sa(dp133
g121
I0
sg122
F0.0008759498596191406
sg123
F4.792213439941406e-05
sg124
I1
sg125
I2
sasS'total_cqs'
p134
I51
ssI11
(dp135
S'iters'
p136
I8
sS'meta'
p137
(lp138
(dp139
S'objective'
p140
I61
sS'query_time'
p141
F0.09843802452087402
sS'comp_time'
p142
F0.0001239776611328125
sS'exec_cq'
p143
I2
sS'total_cq'
p144
I63
sa(dp145
g140
I30
sg141
F0.11058688163757324
sg142
F0.00011491775512695312
sg143
I1
sg144
I62
sa(dp146
g140
I42
sg141
F0.11114501953125
sg142
F0.00012493133544921875
sg143
I1
sg144
I46
sa(dp147
g140
I38
sg141
F0.12290406227111816
sg142
F0.00013899803161621094
sg143
I1
sg144
I44
sa(dp148
g140
I39
sg141
F0.09161686897277832
sg142
F0.00010395050048828125
sg143
I1
sg144
I41
sa(dp149
g140
I32
sg141
F0.07876205444335938
sg142
F0.00010418891906738281
sg143
I1
sg144
I40
sa(dp150
g140
I28
sg141
F0.04948616027832031
sg142
F9.202957153320312e-05
sg143
I1
sg144
I36
sa(dp151
g140
I2
sg141
F0.015466928482055664
sg142
F6.890296936035156e-05
sg143
I2
sg144
I4
sasS'total_cqs'
p152
I63
ssI12
(dp153
S'iters'
p154
I9
sS'meta'
p155
(lp156
(dp157
S'objective'
p158
I44
sS'query_time'
p159
F0.0895540714263916
sS'comp_time'
p160
F0.00011682510375976562
sS'exec_cq'
p161
I1
sS'total_cq'
p162
I50
sa(dp163
g158
I41
sg159
F0.06356096267700195
sg160
F0.00011897087097167969
sg161
I1
sg162
I47
sa(dp164
g158
I34
sg159
F0.060952186584472656
sg160
F0.00010275840759277344
sg161
I2
sg162
I44
sa(dp165
g158
I13
sg159
F0.03046703338623047
sg160
F9.703636169433594e-05
sg161
I1
sg162
I39
sa(dp166
g158
I22
sg159
F0.02964186668395996
sg160
F9.989738464355469e-05
sg161
I3
sg162
I26
sa(dp167
g158
I12
sg159
F0.03629493713378906
sg160
F9.489059448242188e-05
sg161
I5
sg162
I24
sa(dp168
g158
I4
sg159
F0.018687009811401367
sg160
F7.987022399902344e-05
sg161
I2
sg162
I6
sa(dp169
g158
I1
sg159
F0.010556936264038086
sg160
F8.106231689453125e-05
sg161
I2
sg162
I5
sa(dp170
g158
I1
sg159
F0.0036258697509765625
sg160
F6.580352783203125e-05
sg161
I2
sg162
I3
sasS'total_cqs'
p171
I50
ssI13
(dp172
S'iters'
p173
I7
sS'meta'
p174
(lp175
(dp176
S'objective'
p177
I18
sS'query_time'
p178
F0.0894320011138916
sS'comp_time'
p179
F0.00010395050048828125
sS'exec_cq'
p180
I2
sS'total_cq'
p181
I20
sa(dp182
g177
I15
sg178
F0.08017110824584961
sg179
F8.511543273925781e-05
sg180
I2
sg181
I19
sa(dp183
g177
I13
sg178
F0.08248305320739746
sg179
F0.00011420249938964844
sg180
I2
sg181
I17
sa(dp184
g177
I13
sg178
F0.07447409629821777
sg179
F8.797645568847656e-05
sg180
I1
sg181
I15
sa(dp185
g177
I6
sg178
F0.02808403968811035
sg179
F8.678436279296875e-05
sg180
I2
sg181
I14
sa(dp186
g177
I6
sg178
F0.012472152709960938
sg179
F7.772445678710938e-05
sg180
I3
sg181
I10
sa(dp187
g177
I6
sg178
F0.009395122528076172
sg179
F6.699562072753906e-05
sg180
I1
sg181
I8
sasS'total_cqs'
p188
I20
ssI14
(dp189
S'iters'
p190
I3
sS'meta'
p191
(lp192
(dp193
S'objective'
p194
I7
sS'query_time'
p195
F0.015244007110595703
sS'comp_time'
p196
F8.106231689453125e-05
sS'exec_cq'
p197
I1
sS'total_cq'
p198
I9
sa(dp199
g194
I6
sg195
F6.3782639503479
sg196
F0.00010919570922851562
sg197
I1
sg198
I8
sa(dp200
g194
I5
sg195
F0.2965970039367676
sg196
F6.794929504394531e-05
sg197
I1
sg198
I7
sasS'total_cqs'
p201
I9
ssI15
(dp202
S'iters'
p203
I6
sS'meta'
p204
(lp205
(dp206
S'objective'
p207
I7
sS'query_time'
p208
F1.3341529369354248
sS'comp_time'
p209
F7.009506225585938e-05
sS'exec_cq'
p210
I2
sS'total_cq'
p211
I11
sa(dp212
g207
I7
sg208
F0.019894123077392578
sg209
F8.487701416015625e-05
sg210
I1
sg211
I9
sa(dp213
g207
I6
sg208
F0.08653903007507324
sg209
F9.918212890625e-05
sg210
I1
sg211
I8
sa(dp214
g207
I5
sg208
F0.04239392280578613
sg209
F8.821487426757812e-05
sg210
I1
sg211
I7
sa(dp215
g207
I4
sg208
F0.7320449352264404
sg209
F9.679794311523438e-05
sg210
I1
sg211
I6
sa(dp216
g207
I3
sg208
F0.03373599052429199
sg209
F5.2928924560546875e-05
sg210
I1
sg211
I5
sasS'total_cqs'
p217
I11
ssI16
(dp218
S'iters'
p219
I1
sS'meta'
p220
(lp221
(dp222
S'objective'
p223
I6
sS'query_time'
p224
F0.010102987289428711
sS'comp_time'
p225
F7.700920104980469e-05
sS'exec_cq'
p226
I8
sS'total_cq'
p227
I8
sasS'total_cqs'
p228
I8
ssI17
(dp229
S'iters'
p230
I3
sS'meta'
p231
(lp232
(dp233
S'objective'
p234
I3
sS'query_time'
p235
F0.04237198829650879
sS'comp_time'
p236
F7.891654968261719e-05
sS'exec_cq'
p237
I1
sS'total_cq'
p238
I11
sa(dp239
g234
I5
sg235
F0.028365135192871094
sg236
F7.390975952148438e-05
sg237
I1
sg238
I7
sa(dp240
g234
I4
sg235
F0.021726131439208984
sg236
F8.225440979003906e-05
sg237
I1
sg238
I6
sasS'total_cqs'
p241
I11
ssI18
(dp242
S'iters'
p243
I6
sS'meta'
p244
(lp245
(dp246
S'objective'
p247
I9
sS'query_time'
p248
F0.07927894592285156
sS'comp_time'
p249
F8.106231689453125e-05
sS'exec_cq'
p250
I2
sS'total_cq'
p251
I11
sa(dp252
g247
I8
sg248
F0.02500009536743164
sg249
F8.320808410644531e-05
sg250
I1
sg251
I10
sa(dp253
g247
I7
sg248
F0.04021096229553223
sg249
F7.796287536621094e-05
sg250
I1
sg251
I9
sa(dp254
g247
I6
sg248
F0.01859903335571289
sg249
F8.392333984375e-05
sg250
I1
sg251
I8
sa(dp255
g247
I5
sg248
F0.014475822448730469
sg249
F6.508827209472656e-05
sg250
I3
sg251
I7
sa(dp256
g247
I4
sg248
F0.11498785018920898
sg249
F9.799003601074219e-05
sg250
I4
sg251
I6
sasS'total_cqs'
p257
I11
ssI22
(dp258
S'iters'
p259
I1
sS'meta'
p260
(lp261
(dp262
S'objective'
p263
I16
sS'query_time'
p264
F0.03259396553039551
sS'comp_time'
p265
F9.107589721679688e-05
sS'exec_cq'
p266
I1
sS'total_cq'
p267
I18
sasS'total_cqs'
p268
I18
ssI23
(dp269
S'iters'
p270
I1
sS'meta'
p271
(lp272
(dp273
S'objective'
p274
I14
sS'query_time'
p275
F0.019899845123291016
sS'comp_time'
p276
F8.20159912109375e-05
sS'exec_cq'
p277
I6
sS'total_cq'
p278
I16
sasS'total_cqs'
p279
I16
ssI26
(dp280
S'iters'
p281
I1
sS'meta'
p282
(lp283
(dp284
S'objective'
p285
I40
sS'query_time'
p286
F0.06948018074035645
sS'comp_time'
p287
F0.00011587142944335938
sS'exec_cq'
p288
I28
sS'total_cq'
p289
I42
sasS'total_cqs'
p290
I42
ssI27
(dp291
S'iters'
p292
I6
sS'meta'
p293
(lp294
(dp295
S'objective'
p296
I26
sS'query_time'
p297
F1.2084319591522217
sS'comp_time'
p298
F0.00010585784912109375
sS'exec_cq'
p299
I5
sS'total_cq'
p300
I30
sa(dp301
g296
I24
sg297
F1.6078178882598877
sg298
F0.0001552104949951172
sg299
I1
sg300
I28
sa(dp302
g296
I24
sg297
F3.1496238708496094
sg298
F9.799003601074219e-05
sg299
I3
sg300
I26
sa(dp303
g296
I23
sg297
F0.38382983207702637
sg298
F8.392333984375e-05
sg299
I6
sg300
I25
sa(dp304
g296
I22
sg297
F0.411574125289917
sg298
F0.0001461505889892578
sg299
I8
sg300
I24
sa(dp305
g296
I21
sg297
F2.58292293548584
sg298
F0.00013709068298339844
sg299
I16
sg300
I23
sasS'total_cqs'
p306
I30
ssI29
(dp307
S'iters'
p308
I2
sS'meta'
p309
(lp310
(dp311
S'objective'
p312
I37
sS'query_time'
p313
F0.5730290412902832
sS'comp_time'
p314
F0.00013589859008789062
sS'exec_cq'
p315
I1
sS'total_cq'
p316
I49
sa(dp317
g312
I4
sg313
F0.12459993362426758
sg314
F0.00011301040649414062
sg315
I1
sg316
I6
sasS'total_cqs'
p318
I49
ssI30
(dp319
S'iters'
p320
I1
sS'meta'
p321
(lp322
(dp323
S'objective'
p324
I0
sS'query_time'
p325
F0.005756855010986328
sS'comp_time'
p326
F7.200241088867188e-05
sS'exec_cq'
p327
I1
sS'total_cq'
p328
I2
sasS'total_cqs'
p329
I2
ssI32
(dp330
S'iters'
p331
I1
sS'meta'
p332
(lp333
(dp334
S'objective'
p335
I0
sS'query_time'
p336
F0.007003068923950195
sS'comp_time'
p337
F7.295608520507812e-05
sS'exec_cq'
p338
I1
sS'total_cq'
p339
I2
sasS'total_cqs'
p340
I2
ssI33
(dp341
S'iters'
p342
I1
sS'meta'
p343
(lp344
(dp345
S'objective'
p346
I101
sS'query_time'
p347
F0.8134300708770752
sS'comp_time'
p348
F0.00018286705017089844
sS'exec_cq'
p349
I3
sS'total_cq'
p350
I103
sasS'total_cqs'
p351
I103
ssI34
(dp352
S'iters'
p353
I1
sS'meta'
p354
(lp355
(dp356
S'objective'
p357
I0
sS'query_time'
p358
F0.01114511489868164
sS'comp_time'
p359
F8.392333984375e-05
sS'exec_cq'
p360
I1
sS'total_cq'
p361
I2
sasS'total_cqs'
p362
I2
ssI35
(dp363
S'iters'
p364
I15
sS'meta'
p365
(lp366
(dp367
S'objective'
p368
I62
sS'query_time'
p369
F0.6311280727386475
sS'comp_time'
p370
F0.00012969970703125
sS'exec_cq'
p371
I1
sS'total_cq'
p372
I70
sa(dp373
g368
I64
sg369
F0.5803160667419434
sg370
F0.00014328956604003906
sg371
I1
sg372
I66
sa(dp374
g368
I61
sg369
F0.38872504234313965
sg370
F0.00014710426330566406
sg371
I1
sg372
I65
sa(dp375
g368
I57
sg369
F0.5887308120727539
sg370
F0.00016307830810546875
sg371
I1
sg372
I63
sa(dp376
g368
I56
sg369
F13.320849895477295
sg370
F0.00030112266540527344
sg371
I1
sg372
I60
sa(dp377
g368
I54
sg369
F1.4932870864868164
sg370
F0.0001392364501953125
sg371
I2
sg372
I58
sa(dp378
g368
I52
sg369
F1.5037438869476318
sg370
F0.0001430511474609375
sg371
I1
sg372
I56
sa(dp379
g368
I52
sg369
F1.4221458435058594
sg370
F0.0004069805145263672
sg371
I4
sg372
I54
sa(dp380
g368
I39
sg369
F0.21845197677612305
sg370
F0.000186920166015625
sg371
I1
sg372
I53
sa(dp381
g368
I44
sg369
F0.04275393486022949
sg370
F0.00012373924255371094
sg371
I1
sg372
I46
sa(dp382
g368
I43
sg369
F20.500516891479492
sg370
F0.00024080276489257812
sg371
I1
sg372
I45
sa(dp383
g368
I38
sg369
F2.819404125213623
sg370
F0.00014019012451171875
sg371
I1
sg372
I44
sa(dp384
g368
I39
sg369
F0.04613089561462402
sg370
F0.00010919570922851562
sg371
I1
sg372
I41
sa(dp385
g368
I38
sg369
F0.8027439117431641
sg370
F0.0001227855682373047
sg371
I1
sg372
I40
sa(dp386
g368
I37
sg369
F0.19341492652893066
sg370
F0.0001270771026611328
sg371
I1
sg372
I39
sasS'total_cqs'
p387
I70
ssI36
(dp388
S'iters'
p389
I7
sS'meta'
p390
(lp391
(dp392
S'objective'
p393
I29
sS'query_time'
p394
F0.08944296836853027
sS'comp_time'
p395
F0.00010275840759277344
sS'exec_cq'
p396
I5
sS'total_cq'
p397
I33
sa(dp398
g393
I29
sg394
F0.12081217765808105
sg395
F0.00010609626770019531
sg396
I2
sg397
I31
sa(dp399
g393
I28
sg394
F0.15988898277282715
sg395
F0.000125885009765625
sg396
I6
sg397
I30
sa(dp400
g393
I27
sg394
F0.07944703102111816
sg395
F0.00010800361633300781
sg396
I6
sg397
I29
sa(dp401
g393
I24
sg394
F0.03383302688598633
sg395
F0.00011801719665527344
sg396
I5
sg397
I28
sa(dp402
g393
I24
sg394
F0.03564000129699707
sg395
F0.00011682510375976562
sg396
I2
sg397
I26
sa(dp403
g393
I23
sg394
F0.035408973693847656
sg395
F0.00010585784912109375
sg396
I1
sg397
I25
sasS'total_cqs'
p404
I33
ssI37
(dp405
S'iters'
p406
I1
sS'meta'
p407
(lp408
(dp409
S'objective'
p410
I0
sS'query_time'
p411
F0.00516200065612793
sS'comp_time'
p412
F6.914138793945312e-05
sS'exec_cq'
p413
I1
sS'total_cq'
p414
I2
sasS'total_cqs'
p415
I2
ssI38
(dp416
S'iters'
p417
I2
sS'meta'
p418
(lp419
(dp420
S'objective'
p421
I0
sS'query_time'
p422
F0.01225900650024414
sS'comp_time'
p423
F6.318092346191406e-05
sS'exec_cq'
p424
I1
sS'total_cq'
p425
I4
sa(dp426
g421
I0
sg422
F0.010616064071655273
sg423
F5.91278076171875e-05
sg424
I1
sg425
I2
sasS'total_cqs'
p427
I4
ssI39
(dp428
S'iters'
p429
I3
sS'meta'
p430
(lp431
(dp432
S'objective'
p433
I28
sS'query_time'
p434
F0.07524895668029785
sS'comp_time'
p435
F0.00012302398681640625
sS'exec_cq'
p436
I11
sS'total_cq'
p437
I44
sa(dp438
g433
I6
sg434
F0.021495819091796875
sg435
F7.891654968261719e-05
sg436
I2
sg437
I8
sa(dp439
g433
I5
sg434
F0.04761791229248047
sg435
F8.702278137207031e-05
sg436
I1
sg437
I7
sasS'total_cqs'
p440
I44
ssI40
(dp441
S'iters'
p442
I1
sS'meta'
p443
(lp444
(dp445
S'objective'
p446
I5
sS'query_time'
p447
F0.024958133697509766
sS'comp_time'
p448
F8.296966552734375e-05
sS'exec_cq'
p449
I5
sS'total_cq'
p450
I7
sasS'total_cqs'
p451
I7
ssI41
(dp452
S'iters'
p453
I1
sS'meta'
p454
(lp455
(dp456
S'objective'
p457
I10
sS'query_time'
p458
F0.03080606460571289
sS'comp_time'
p459
F7.915496826171875e-05
sS'exec_cq'
p460
I2
sS'total_cq'
p461
I12
sasS'total_cqs'
p462
I12
ssI42
(dp463
S'iters'
p464
I3
sS'meta'
p465
(lp466
(dp467
S'objective'
p468
I39
sS'query_time'
p469
F0.031130075454711914
sS'comp_time'
p470
F0.00010204315185546875
sS'exec_cq'
p471
I6
sS'total_cq'
p472
I41
sa(dp473
g468
I38
sg469
F0.04563403129577637
sg470
F0.00012493133544921875
sg471
I14
sg472
I40
sa(dp474
g468
I37
sg469
F0.05823397636413574
sg470
F0.00013303756713867188
sg471
I5
sg472
I39
sasS'total_cqs'
p475
I41
ssI43
(dp476
S'iters'
p477
I1
sS'meta'
p478
(lp479
(dp480
S'objective'
p481
I5
sS'query_time'
p482
F0.016089916229248047
sS'comp_time'
p483
F7.724761962890625e-05
sS'exec_cq'
p484
I3
sS'total_cq'
p485
I7
sasS'total_cqs'
p486
I7
ssI44
(dp487
S'iters'
p488
I3
sS'meta'
p489
(lp490
(dp491
S'objective'
p492
I33
sS'query_time'
p493
F0.05990791320800781
sS'comp_time'
p494
F0.00011897087097167969
sS'exec_cq'
p495
I2
sS'total_cq'
p496
I47
sa(dp497
g492
I36
sg493
F0.04208207130432129
sg494
F0.00010800361633300781
sg495
I3
sg496
I40
sa(dp498
g492
I0
sg493
F0.029330015182495117
sg494
F8.0108642578125e-05
sg495
I2
sg496
I2
sasS'total_cqs'
p499
I47
ssI46
(dp500
S'iters'
p501
I3
sS'meta'
p502
(lp503
(dp504
S'objective'
p505
I4
sS'query_time'
p506
F0.00817108154296875
sS'comp_time'
p507
F6.4849853515625e-05
sS'exec_cq'
p508
I3
sS'total_cq'
p509
I6
sa(dp510
g505
I3
sg506
F0.006922006607055664
sg507
F6.794929504394531e-05
sg508
I1
sg509
I5
sa(dp511
g505
I2
sg506
F0.0017230510711669922
sg507
F4.506111145019531e-05
sg508
I3
sg509
I4
sasS'total_cqs'
p512
I6
ssI47
(dp513
S'iters'
p514
I1
sS'meta'
p515
(lp516
(dp517
S'objective'
p518
I0
sS'query_time'
p519
F0.005877017974853516
sS'comp_time'
p520
F6.175041198730469e-05
sS'exec_cq'
p521
I1
sS'total_cq'
p522
I2
sasS'total_cqs'
p523
I2
ssI50
(dp524
S'iters'
p525
I2
sS'meta'
p526
(lp527
(dp528
S'objective'
p529
I3
sS'query_time'
p530
F0.004544973373413086
sS'comp_time'
p531
F6.604194641113281e-05
sS'exec_cq'
p532
I1
sS'total_cq'
p533
I5
sa(dp534
g529
I2
sg530
F0.0037598609924316406
sg531
F4.887580871582031e-05
sg532
I1
sg533
I4
sasS'total_cqs'
p535
I5
ssI51
(dp536
S'iters'
p537
I1
sS'meta'
p538
(lp539
(dp540
S'objective'
p541
I0
sS'query_time'
p542
F0.005697965621948242
sS'comp_time'
p543
F6.580352783203125e-05
sS'exec_cq'
p544
I1
sS'total_cq'
p545
I2
sasS'total_cqs'
p546
I2
ssI52
(dp547
S'iters'
p548
I1
sS'meta'
p549
(lp550
(dp551
S'objective'
p552
I0
sS'query_time'
p553
F0.0060269832611083984
sS'comp_time'
p554
F0.00016689300537109375
sS'exec_cq'
p555
I1
sS'total_cq'
p556
I2
sasS'total_cqs'
p557
I2
ssI53
(dp558
S'iters'
p559
I1
sS'meta'
p560
(lp561
(dp562
S'objective'
p563
I2
sS'query_time'
p564
F0.011574983596801758
sS'comp_time'
p565
F6.413459777832031e-05
sS'exec_cq'
p566
I1
sS'total_cq'
p567
I4
sasS'total_cqs'
p568
I4
ssI54
(dp569
S'iters'
p570
I1
sS'meta'
p571
(lp572
(dp573
S'objective'
p574
I1
sS'query_time'
p575
F0.006919145584106445
sS'comp_time'
p576
F6.29425048828125e-05
sS'exec_cq'
p577
I1
sS'total_cq'
p578
I3
sasS'total_cqs'
p579
I3
ssI55
(dp580
S'iters'
p581
I7
sS'meta'
p582
(lp583
(dp584
S'objective'
p585
I107
sS'query_time'
p586
F0.20562410354614258
sS'comp_time'
p587
F0.0001621246337890625
sS'exec_cq'
p588
I1
sS'total_cq'
p589
I109
sa(dp590
g585
I100
sg586
F0.3012809753417969
sg587
F0.00019669532775878906
sg588
I5
sg589
I108
sa(dp591
g585
I102
sg586
F0.1813371181488037
sg587
F0.00018405914306640625
sg588
I1
sg589
I104
sa(dp592
g585
I99
sg586
F0.3770139217376709
sg587
F0.00016927719116210938
sg588
I4
sg589
I103
sa(dp593
g585
I87
sg586
F0.15495991706848145
sg587
F0.00016379356384277344
sg588
I2
sg589
I101
sa(dp594
g585
I1
sg586
F0.011146068572998047
sg587
F7.081031799316406e-05
sg588
I1
sg589
I7
sa(dp595
g585
I2
sg586
F0.007615089416503906
sg587
F5.698204040527344e-05
sg588
I1
sg589
I4
sasS'total_cqs'
p596
I109
ssI56
(dp597
S'iters'
p598
I3
sS'meta'
p599
(lp600
(dp601
S'objective'
p602
I72
sS'query_time'
p603
F0.481503963470459
sS'comp_time'
p604
F0.00013899803161621094
sS'exec_cq'
p605
I1
sS'total_cq'
p606
I76
sa(dp607
g602
I68
sg603
F0.3076491355895996
sg604
F0.00016188621520996094
sg605
I1
sg606
I74
sa(dp608
g602
I69
sg603
F0.2440040111541748
sg604
F0.0001399517059326172
sg605
I2
sg606
I71
sasS'total_cqs'
p609
I76
ssI57
(dp610
S'iters'
p611
I9
sS'meta'
p612
(lp613
(dp614
S'objective'
p615
I43
sS'query_time'
p616
F2.813836097717285
sS'comp_time'
p617
F0.00011610984802246094
sS'exec_cq'
p618
I2
sS'total_cq'
p619
I51
sa(dp620
g615
I45
sg616
F0.882408857345581
sg617
F0.00011205673217773438
sg618
I1
sg619
I47
sa(dp621
g615
I38
sg616
F0.45786499977111816
sg617
F0.00019598007202148438
sg618
I2
sg619
I46
sa(dp622
g615
I38
sg616
F2.692795991897583
sg617
F0.0001590251922607422
sg618
I1
sg619
I42
sa(dp623
g615
I32
sg616
F3.442765951156616
sg617
F0.00043392181396484375
sg618
I2
sg619
I40
sa(dp624
g615
I4
sg616
F0.5953819751739502
sg617
F0.00010895729064941406
sg618
I1
sg619
I36
sa(dp625
g615
I14
sg616
F0.38536810874938965
sg617
F9.703636169433594e-05
sg618
I1
sg619
I20
sa(dp626
g615
I1
sg616
F0.05654788017272949
sg617
F6.818771362304688e-05
sg618
I1
sg619
I3
sa(dp627
g615
I0
sg616
F0.05310821533203125
sg617
F6.723403930664062e-05
sg618
I1
sg619
I2
sasS'total_cqs'
p628
I51
ssI58
(dp629
S'iters'
p630
I1
sS'meta'
p631
(lp632
(dp633
S'objective'
p634
I484
sS'query_time'
p635
F2.231877088546753
sS'comp_time'
p636
F0.0005331039428710938
sS'exec_cq'
p637
I2
sS'total_cq'
p638
I486
sasS'total_cqs'
p639
I486
ssI59
(dp640
S'iters'
p641
I2
sS'meta'
p642
(lp643
(dp644
S'objective'
p645
I3
sS'query_time'
p646
F0.018876075744628906
sS'comp_time'
p647
F7.700920104980469e-05
sS'exec_cq'
p648
I5
sS'total_cq'
p649
I7
sa(dp650
g645
I0
sg646
F0.032727956771850586
sg647
F7.891654968261719e-05
sg648
I2
sg649
I2
sasS'total_cqs'
p651
I7
ssI60
(dp652
S'iters'
p653
I3
sS'meta'
p654
(lp655
(dp656
S'objective'
p657
I3
sS'query_time'
p658
F0.007189035415649414
sS'comp_time'
p659
F8.106231689453125e-05
sS'exec_cq'
p660
I2
sS'total_cq'
p661
I5
sa(dp662
g657
I2
sg658
F0.00872182846069336
sg659
F8.20159912109375e-05
sg660
I1
sg661
I4
sa(dp663
g657
I1
sg658
F0.002562999725341797
sg659
F6.67572021484375e-05
sg660
I1
sg661
I3
sasS'total_cqs'
p664
I5
ssI62
(dp665
S'iters'
p666
I3
sS'meta'
p667
(lp668
(dp669
S'objective'
p670
I10
sS'query_time'
p671
F0.014358043670654297
sS'comp_time'
p672
F8.702278137207031e-05
sS'exec_cq'
p673
I3
sS'total_cq'
p674
I12
sa(dp675
g670
I7
sg671
F0.012541055679321289
sg672
F7.963180541992188e-05
sg673
I3
sg674
I11
sa(dp676
g670
I7
sg671
F0.005219936370849609
sg672
F7.605552673339844e-05
sg673
I6
sg674
I9
sasS'total_cqs'
p677
I12
ssI64
(dp678
S'iters'
p679
I5
sS'meta'
p680
(lp681
(dp682
S'objective'
p683
I8
sS'query_time'
p684
F0.026836156845092773
sS'comp_time'
p685
F0.0001049041748046875
sS'exec_cq'
p686
I1
sS'total_cq'
p687
I12
sa(dp688
g683
I8
sg684
F0.04503011703491211
sg685
F0.000102996826171875
sg686
I2
sg687
I10
sa(dp689
g683
I3
sg684
F0.02041482925415039
sg685
F0.00010013580322265625
sg686
I1
sg687
I9
sa(dp690
g683
I1
sg684
F0.0024220943450927734
sg685
F5.817413330078125e-05
sg686
I1
sg687
I3
sa(dp691
g683
I0
sg684
F0.008266925811767578
sg685
F8.106231689453125e-05
sg686
I1
sg687
I2
sasS'total_cqs'
p692
I12
ssI65
(dp693
S'iters'
p694
I8
sS'meta'
p695
(lp696
(dp697
S'objective'
p698
I25
sS'query_time'
p699
F0.03433704376220703
sS'comp_time'
p700
F0.00011992454528808594
sS'exec_cq'
p701
I1
sS'total_cq'
p702
I27
sa(dp703
g698
I22
sg699
F0.1091318130493164
sg700
F0.00010418891906738281
sg701
I1
sg702
I26
sa(dp704
g698
I22
sg699
F0.028390884399414062
sg700
F0.0001010894775390625
sg701
I1
sg702
I24
sa(dp705
g698
I21
sg699
F0.041316986083984375
sg700
F0.0001342296600341797
sg701
I1
sg702
I23
sa(dp706
g698
I20
sg699
F0.06640911102294922
sg700
F0.00010895729064941406
sg701
I3
sg702
I22
sa(dp707
g698
I19
sg699
F0.07994794845581055
sg700
F0.00010609626770019531
sg701
I3
sg702
I21
sa(dp708
g698
I16
sg699
F0.019654035568237305
sg700
F9.608268737792969e-05
sg701
I2
sg702
I20
sa(dp709
g698
I0
sg699
F0.0052661895751953125
sg700
F6.29425048828125e-05
sg701
I2
sg702
I2
sasS'total_cqs'
p710
I27
ssI67
(dp711
S'iters'
p712
I1
sS'meta'
p713
(lp714
(dp715
S'objective'
p716
I33
sS'query_time'
p717
F1.2179839611053467
sS'comp_time'
p718
F0.000125885009765625
sS'exec_cq'
p719
I27
sS'total_cq'
p720
I35
sasS'total_cqs'
p721
I35
ssI69
(dp722
S'iters'
p723
I1
sS'meta'
p724
(lp725
(dp726
S'objective'
p727
I49
sS'query_time'
p728
F0.14126300811767578
sS'comp_time'
p729
F0.00015091896057128906
sS'exec_cq'
p730
I51
sS'total_cq'
p731
I51
sasS'total_cqs'
p732
I51
ssI70
(dp733
S'iters'
p734
I2
sS'meta'
p735
(lp736
(dp737
S'objective'
p738
I4
sS'query_time'
p739
F0.006187915802001953
sS'comp_time'
p740
F6.914138793945312e-05
sS'exec_cq'
p741
I1
sS'total_cq'
p742
I6
sa(dp743
g738
I3
sg739
F0.008115053176879883
sg740
F6.389617919921875e-05
sg741
I2
sg742
I5
sasS'total_cqs'
p744
I6
ssI71
(dp745
S'iters'
p746
I5
sS'meta'
p747
(lp748
(dp749
S'objective'
p750
I83
sS'query_time'
p751
F0.09531712532043457
sS'comp_time'
p752
F0.00014281272888183594
sS'exec_cq'
p753
I3
sS'total_cq'
p754
I85
sa(dp755
g750
I78
sg751
F0.10678911209106445
sg752
F0.00013017654418945312
sg753
I4
sg754
I84
sa(dp756
g750
I75
sg751
F0.09503507614135742
sg752
F0.00014472007751464844
sg753
I6
sg754
I81
sa(dp757
g750
I74
sg751
F0.07958388328552246
sg752
F0.00015783309936523438
sg753
I1
sg754
I78
sa(dp758
g750
I74
sg751
F0.07818293571472168
sg752
F0.00017595291137695312
sg753
I2
sg754
I76
sasS'total_cqs'
p759
I85
ssI72
(dp760
S'iters'
p761
I3
sS'meta'
p762
(lp763
(dp764
S'objective'
p765
I4
sS'query_time'
p766
F0.050939083099365234
sS'comp_time'
p767
F9.608268737792969e-05
sS'exec_cq'
p768
I1
sS'total_cq'
p769
I8
sa(dp770
g765
I4
sg766
F0.16756606101989746
sg767
F9.036064147949219e-05
sg768
I1
sg769
I6
sa(dp771
g765
I3
sg766
F0.0069730281829833984
sg767
F7.390975952148438e-05
sg768
I1
sg769
I5
sasS'total_cqs'
p772
I8
ssI75
(dp773
S'iters'
p774
I4
sS'meta'
p775
(lp776
(dp777
S'objective'
p778
I3
sS'query_time'
p779
F0.004565000534057617
sS'comp_time'
p780
F5.888938903808594e-05
sS'exec_cq'
p781
I1
sS'total_cq'
p782
I5
sa(dp783
g778
I2
sg779
F0.004017829895019531
sg780
F8.606910705566406e-05
sg781
I1
sg782
I4
sa(dp784
g778
I1
sg779
F0.0029900074005126953
sg780
F7.414817810058594e-05
sg781
I1
sg782
I3
sa(dp785
g778
I0
sg779
F0.0023500919342041016
sg780
F6.318092346191406e-05
sg781
I1
sg782
I2
sasS'total_cqs'
p786
I5
ssI76
(dp787
S'iters'
p788
I1
sS'meta'
p789
(lp790
(dp791
S'objective'
p792
I0
sS'query_time'
p793
F0.010648012161254883
sS'comp_time'
p794
F8.893013000488281e-05
sS'exec_cq'
p795
I1
sS'total_cq'
p796
I2
sasS'total_cqs'
p797
I2
ssI103
(dp798
S'iters'
p799
I2
sS'meta'
p800
(lp801
(dp802
S'objective'
p803
I10
sS'query_time'
p804
F0.029904842376708984
sS'comp_time'
p805
F8.106231689453125e-05
sS'exec_cq'
p806
I2
sS'total_cq'
p807
I12
sa(dp808
g803
I9
sg804
F0.04379701614379883
sg805
F7.486343383789062e-05
sg806
I6
sg807
I11
sasS'total_cqs'
p809
I12
ssI104
(dp810
S'iters'
p811
I2
sS'meta'
p812
(lp813
(dp814
S'objective'
p815
I0
sS'query_time'
p816
F0.03892803192138672
sS'comp_time'
p817
F7.605552673339844e-05
sS'exec_cq'
p818
I1
sS'total_cq'
p819
I4
sa(dp820
g815
I0
sg816
F1.319417953491211
sg817
F7.200241088867188e-05
sg818
I1
sg819
I2
sasS'total_cqs'
p821
I4
ssI106
(dp822
S'iters'
p823
I1
sS'meta'
p824
(lp825
(dp826
S'objective'
p827
I2
sS'query_time'
p828
F0.03202009201049805
sS'comp_time'
p829
F7.915496826171875e-05
sS'exec_cq'
p830
I1
sS'total_cq'
p831
I4
sasS'total_cqs'
p832
I4
ssI107
(dp833
S'iters'
p834
I2
sS'meta'
p835
(lp836
(dp837
S'objective'
p838
I10
sS'query_time'
p839
F0.021592140197753906
sS'comp_time'
p840
F9.703636169433594e-05
sS'exec_cq'
p841
I1
sS'total_cq'
p842
I16
sa(dp843
g838
I1
sg839
F0.030936002731323242
sg840
F7.796287536621094e-05
sg841
I1
sg842
I3
sasS'total_cqs'
p844
I16
ss.