(dp0
I1
(dp1
S'iters'
p2
I1
sS'meta'
p3
(lp4
(dp5
S'objective'
p6
I54
sS'query_time'
p7
F0.07058095932006836
sS'comp_time'
p8
F0.025084733963012695
sS'exec_cq'
p9
I12
sS'total_cq'
p10
I12
sasS'total_cqs'
p11
I12
ssI2
(dp12
S'iters'
p13
I5
sS'meta'
p14
(lp15
(dp16
S'objective'
p17
I282
sS'query_time'
p18
F0.0640408992767334
sS'comp_time'
p19
F0.037761688232421875
sS'exec_cq'
p20
I14
sS'total_cq'
p21
I27
sa(dp22
g17
I236
sg18
F8.916854858398438e-05
sg19
F0.00035643577575683594
sg20
I11
sg21
I24
sa(dp23
g17
I177
sg18
F0.07790803909301758
sg19
F0.0005688667297363281
sg20
I13
sg21
I22
sa(dp24
g17
I178
sg18
F6.794929504394531e-05
sg19
F0.0003371238708496094
sg20
I9
sg21
I18
sa(dp25
g17
I150
sg18
F4.9114227294921875e-05
sg19
F0.00022101402282714844
sg20
I9
sg21
I16
sasS'total_cqs'
p26
I27
ssI3
(dp27
S'iters'
p28
I4
sS'meta'
p29
(lp30
(dp31
S'objective'
p32
I194
sS'query_time'
p33
F76.034921169281
sS'comp_time'
p34
F0.5903921127319336
sS'exec_cq'
p35
I16
sS'total_cq'
p36
I43
sa(dp37
g32
I64
sg33
F108.60423398017883
sg34
F2.2025551795959473
sg35
I14
sg36
I27
sa(dp38
g32
I67
sg33
F42.710938930511475
sg34
F0.6755220890045166
sg35
I9
sg36
I13
sa(dp39
g32
I74
sg33
F11.64411187171936
sg34
F0.002777099609375
sg35
I6
sg36
I6
sasS'total_cqs'
p40
I43
ssI4
(dp41
S'iters'
p42
I2
sS'meta'
p43
(lp44
(dp45
S'objective'
p46
I42
sS'query_time'
p47
F4.7434608936309814
sS'comp_time'
p48
F0.8630154132843018
sS'exec_cq'
p49
I11
sS'total_cq'
p50
I11
sa(dp51
g46
I10
sg47
F0.1996750831604004
sg48
F0.8607177734375
sg49
I2
sg50
I2
sasS'total_cqs'
p52
I11
ssI5
(dp53
S'iters'
p54
I3
sS'meta'
p55
(lp56
(dp57
S'objective'
p58
I0
sS'query_time'
p59
F32.19580888748169
sS'comp_time'
p60
F4.210247755050659
sS'exec_cq'
p61
I8
sS'total_cq'
p62
I8
sa(dp63
g58
I0
sg59
F0.08337593078613281
sg60
F1.3466711044311523
sg61
I4
sg62
I4
sa(dp64
g58
I7
sg59
F0.007074117660522461
sg60
F0.04307913780212402
sg61
I2
sg62
I2
sasS'total_cqs'
p65
I8
ssI6
(dp66
S'iters'
p67
I3
sS'meta'
p68
(lp69
(dp70
S'objective'
p71
I37
sS'query_time'
p72
F34.82822108268738
sS'comp_time'
p73
F4.489481210708618
sS'exec_cq'
p74
I18
sS'total_cq'
p75
I18
sa(dp76
g71
I1
sg72
F0.6752288341522217
sg73
F3.5083539485931396
sg74
I7
sg75
I7
sa(dp77
g71
I3
sg72
F0.4676351547241211
sg73
F2.779679298400879
sg74
I3
sg75
I3
sasS'total_cqs'
p78
I18
ssI7
(dp79
S'iters'
p80
I3
sS'meta'
p81
(lp82
(dp83
S'objective'
p84
I1
sS'query_time'
p85
F12.507202863693237
sS'comp_time'
p86
F2.7935750484466553
sS'exec_cq'
p87
I9
sS'total_cq'
p88
I9
sa(dp89
g84
I2
sg85
F0.015186071395874023
sg86
F0.3369598388671875
sg87
I5
sg88
I5
sa(dp90
g84
I6
sg85
F0.010657072067260742
sg86
F0.1893167495727539
sg87
I2
sg88
I2
sasS'total_cqs'
p91
I9
ssI8
(dp92
S'iters'
p93
I3
sS'meta'
p94
(lp95
(dp96
S'objective'
p97
I262
sS'query_time'
p98
F0.10649490356445312
sS'comp_time'
p99
F0.031113147735595703
sS'exec_cq'
p100
I13
sS'total_cq'
p101
I27
sa(dp102
g97
I216
sg98
F0.10341215133666992
sg99
F0.0010099411010742188
sg100
I14
sg101
I24
sa(dp103
g97
I214
sg98
F6.413459777832031e-05
sg99
F0.00023508071899414062
sg100
I10
sg101
I21
sasS'total_cqs'
p104
I27
ssI9
(dp105
S'iters'
p106
I3
sS'meta'
p107
(lp108
(dp109
S'objective'
p110
I10
sS'query_time'
p111
F0.05118584632873535
sS'comp_time'
p112
F0.006994009017944336
sS'exec_cq'
p113
I7
sS'total_cq'
p114
I7
sa(dp115
g110
I3
sg111
F3.0994415283203125e-05
sg112
F0.0002148151397705078
sg113
I4
sg114
I4
sa(dp116
g110
I6
sg111
F1.5974044799804688e-05
sg112
F8.320808410644531e-05
sg113
I2
sg114
I2
sasS'total_cqs'
p117
I7
ssI10
(dp118
S'iters'
p119
I5
sS'meta'
p120
(lp121
(dp122
S'objective'
p123
I466
sS'query_time'
p124
F0.17465496063232422
sS'comp_time'
p125
F0.09246969223022461
sS'exec_cq'
p126
I28
sS'total_cq'
p127
I51
sa(dp128
g123
I236
sg124
F0.1895618438720703
sg125
F0.0016071796417236328
sg126
I23
sg127
I37
sa(dp129
g123
I8
sg124
F0.0019428730010986328
sg125
F0.0013120174407958984
sg126
I12
sg127
I12
sa(dp130
g123
I7
sg124
F7.677078247070312e-05
sg125
F0.0004119873046875
sg126
I6
sg127
I6
sa(dp131
g123
I14
sg124
F6.318092346191406e-05
sg125
F0.0002739429473876953
sg126
I4
sg127
I4
sasS'total_cqs'
p132
I51
ssI11
(dp133
S'iters'
p134
I5
sS'meta'
p135
(lp136
(dp137
S'objective'
p138
I1170
sS'query_time'
p139
F0.6036281585693359
sS'comp_time'
p140
F0.1715531349182129
sS'exec_cq'
p141
I63
sS'total_cq'
p142
I63
sa(dp143
g138
I797
sg139
F0.0012688636779785156
sg140
F0.0061380863189697266
sg141
I47
sg142
I47
sa(dp144
g138
I24
sg139
F0.0015180110931396484
sg140
F0.0026509761810302734
sg141
I9
sg142
I9
sa(dp145
g138
I45
sg139
F3.0040740966796875e-05
sg140
F0.00016927719116210938
sg141
I4
sg142
I4
sa(dp146
g138
I10
sg139
F1.5020370483398438e-05
sg140
F9.226799011230469e-05
sg141
I2
sg142
I2
sasS'total_cqs'
p147
I63
ssI12
(dp148
S'iters'
p149
I4
sS'meta'
p150
(lp151
(dp152
S'objective'
p153
I617
sS'query_time'
p154
F0.3917207717895508
sS'comp_time'
p155
F0.10052299499511719
sS'exec_cq'
p156
I28
sS'total_cq'
p157
I50
sa(dp158
g153
I504
sg154
F0.18436384201049805
sg155
F0.0029571056365966797
sg156
I22
sg157
I33
sa(dp159
g153
I7
sg154
F0.0012509822845458984
sg155
F0.0017638206481933594
sg156
I8
sg157
I8
sa(dp160
g153
I7
sg154
F0.00026106834411621094
sg155
F0.0011453628540039062
sg156
I4
sg157
I4
sasS'total_cqs'
p161
I50
ssI13
(dp162
S'iters'
p163
I4
sS'meta'
p164
(lp165
(dp166
S'objective'
p167
I2
sS'query_time'
p168
F0.15127301216125488
sS'comp_time'
p169
F0.02437281608581543
sS'exec_cq'
p170
I20
sS'total_cq'
p171
I20
sa(dp172
g167
I10
sg168
F0.0018379688262939453
sg169
F0.0007088184356689453
sg170
I11
sg171
I11
sa(dp173
g167
I0
sg168
F3.504753112792969e-05
sg169
F0.00020575523376464844
sg170
I5
sg171
I5
sa(dp174
g167
I16
sg168
F1.5020370483398438e-05
sg169
F8.893013000488281e-05
sg170
I2
sg171
I2
sasS'total_cqs'
p175
I20
ssI14
(dp176
S'iters'
p177
I3
sS'meta'
p178
(lp179
(dp180
S'objective'
p181
I1
sS'query_time'
p182
F30.72646713256836
sS'comp_time'
p183
F2.405042886734009
sS'exec_cq'
p184
I9
sS'total_cq'
p185
I9
sa(dp186
g181
I2
sg182
F0.3921828269958496
sg183
F1.489793300628662
sg184
I5
sg185
I5
sa(dp187
g181
I6
sg182
F0.3076610565185547
sg183
F1.0081231594085693
sg184
I2
sg185
I2
sasS'total_cqs'
p188
I9
ssI15
(dp189
S'iters'
p190
I3
sS'meta'
p191
(lp192
(dp193
S'objective'
p194
I0
sS'query_time'
p195
F4.004603862762451
sS'comp_time'
p196
F0.2891502380371094
sS'exec_cq'
p197
I11
sS'total_cq'
p198
I11
sa(dp199
g194
I1
sg195
F0.04191088676452637
sg196
F0.2658390998840332
sg197
I5
sg198
I5
sa(dp200
g194
I6
sg195
F0.03284811973571777
sg196
F0.27470898628234863
sg197
I3
sg198
I3
sasS'total_cqs'
p201
I11
ssI16
(dp202
S'iters'
p203
I1
sS'meta'
p204
(lp205
(dp206
S'objective'
p207
I20
sS'query_time'
p208
F0.04912400245666504
sS'comp_time'
p209
F0.009193897247314453
sS'exec_cq'
p210
I8
sS'total_cq'
p211
I8
sasS'total_cqs'
p212
I8
ssI17
(dp213
S'iters'
p214
I3
sS'meta'
p215
(lp216
(dp217
S'objective'
p218
I2
sS'query_time'
p219
F1.0387561321258545
sS'comp_time'
p220
F0.05030512809753418
sS'exec_cq'
p221
I11
sS'total_cq'
p222
I11
sa(dp223
g218
I2
sg219
F0.002254962921142578
sg220
F0.012615203857421875
sg221
I4
sg222
I4
sa(dp224
g218
I7
sg219
F0.00023293495178222656
sg220
F0.001499176025390625
sg221
I2
sg222
I2
sasS'total_cqs'
p225
I11
ssI18
(dp226
S'iters'
p227
I1
sS'meta'
p228
(lp229
(dp230
S'objective'
p231
I44
sS'query_time'
p232
F0.2652702331542969
sS'comp_time'
p233
F0.029371976852416992
sS'exec_cq'
p234
I10
sS'total_cq'
p235
I11
sasS'total_cqs'
p236
I11
ssI22
(dp237
S'iters'
p238
I1
sS'meta'
p239
(lp240
(dp241
S'objective'
p242
I135
sS'query_time'
p243
F0.08217120170593262
sS'comp_time'
p244
F0.03942680358886719
sS'exec_cq'
p245
I18
sS'total_cq'
p246
I18
sasS'total_cqs'
p247
I18
ssI23
(dp248
S'iters'
p249
I1
sS'meta'
p250
(lp251
(dp252
S'objective'
p253
I104
sS'query_time'
p254
F0.05569291114807129
sS'comp_time'
p255
F0.024995803833007812
sS'exec_cq'
p256
I8
sS'total_cq'
p257
I16
sasS'total_cqs'
p258
I16
ssI26
(dp259
S'iters'
p260
I1
sS'meta'
p261
(lp262
(dp263
S'objective'
p264
I819
sS'query_time'
p265
F0.18446588516235352
sS'comp_time'
p266
F0.12180113792419434
sS'exec_cq'
p267
I42
sS'total_cq'
p268
I42
sasS'total_cqs'
p269
I42
ssI27
(dp270
S'iters'
p271
I3
sS'meta'
p272
(lp273
(dp274
S'objective'
p275
I315
sS'query_time'
p276
F21.591129064559937
sS'comp_time'
p277
F3.2086901664733887
sS'exec_cq'
p278
I30
sS'total_cq'
p279
I30
sa(dp280
g275
I5
sg276
F0.4694399833679199
sg277
F3.241609573364258
sg278
I5
sg279
I5
sa(dp281
g275
I25
sg276
F0.4135010242462158
sg277
F3.5621609687805176
sg278
I3
sg279
I3
sasS'total_cqs'
p282
I30
ssI29
(dp283
S'iters'
p284
I4
sS'meta'
p285
(lp286
(dp287
S'objective'
p288
I251
sS'query_time'
p289
F26.16455101966858
sS'comp_time'
p290
F0.5569684505462646
sS'exec_cq'
p291
I35
sS'total_cq'
p292
I49
sa(dp293
g288
I19
sg289
F0.04022717475891113
sg290
F0.389570951461792
sg291
I17
sg292
I17
sa(dp294
g288
I31
sg289
F0.0065538883209228516
sg290
F0.03493189811706543
sg291
I7
sg292
I7
sa(dp295
g288
I13
sg289
F0.002135038375854492
sg290
F0.012263774871826172
sg291
I3
sg292
I3
sasS'total_cqs'
p296
I49
ssI30
(dp297
S'iters'
p298
I1
sS'meta'
p299
(lp300
(dp301
S'objective'
p302
I1
sS'query_time'
p303
F0.6547670364379883
sS'comp_time'
p304
F0.04031991958618164
sS'exec_cq'
p305
I2
sS'total_cq'
p306
I2
sasS'total_cqs'
p307
I2
ssI32
(dp308
S'iters'
p309
I1
sS'meta'
p310
(lp311
(dp312
S'objective'
p313
I1
sS'query_time'
p314
F0.028074026107788086
sS'comp_time'
p315
F0.005215883255004883
sS'exec_cq'
p316
I2
sS'total_cq'
p317
I2
sasS'total_cqs'
p318
I2
ssI33
(dp319
S'iters'
p320
I5
sS'meta'
p321
(lp322
(dp323
S'objective'
p324
I3538
sS'query_time'
p325
F17.718961000442505
sS'comp_time'
p326
F1.080989122390747
sS'exec_cq'
p327
I103
sS'total_cq'
p328
I103
sa(dp329
g324
I7
sg325
F0.01143789291381836
sg326
F0.03638005256652832
sg327
I16
sg328
I16
sa(dp330
g324
I17
sg325
F0.1588301658630371
sg326
F0.016744136810302734
sg327
I8
sg328
I8
sa(dp331
g324
I0
sg325
F0.0013320446014404297
sg326
F0.006555080413818359
sg327
I5
sg328
I5
sa(dp332
g324
I89
sg325
F0.000993967056274414
sg326
F0.006227016448974609
sg327
I3
sg328
I3
sasS'total_cqs'
p333
I103
ssI34
(dp334
S'iters'
p335
I1
sS'meta'
p336
(lp337
(dp338
S'objective'
p339
I1
sS'query_time'
p340
F0.028964996337890625
sS'comp_time'
p341
F0.003972768783569336
sS'exec_cq'
p342
I2
sS'total_cq'
p343
I2
sasS'total_cqs'
p344
I2
ssI35
(dp345
S'iters'
p346
I4
sS'meta'
p347
(lp348
(dp349
S'objective'
p350
I1139
sS'query_time'
p351
F23.362133026123047
sS'comp_time'
p352
F0.19949579238891602
sS'exec_cq'
p353
I50
sS'total_cq'
p354
I70
sa(dp355
g350
I43
sg351
F0.004026889801025391
sg352
F0.10543704032897949
sg353
I16
sg354
I16
sa(dp356
g350
I16
sg351
F0.0018138885498046875
sg352
F0.006521701812744141
sg353
I7
sg354
I7
sa(dp357
g350
I47
sg351
F0.000820159912109375
sg352
F0.005593776702880859
sg353
I3
sg354
I3
sasS'total_cqs'
p358
I70
ssI36
(dp359
S'iters'
p360
I2
sS'meta'
p361
(lp362
(dp363
S'objective'
p364
I389
sS'query_time'
p365
F0.8917310237884521
sS'comp_time'
p366
F0.10485005378723145
sS'exec_cq'
p367
I33
sS'total_cq'
p368
I33
sa(dp369
g364
I409
sg365
F0.0045969486236572266
sg366
F0.005305051803588867
sg367
I28
sg368
I29
sasS'total_cqs'
p370
I33
ssI37
(dp371
S'iters'
p372
I1
sS'meta'
p373
(lp374
(dp375
S'objective'
p376
I1
sS'query_time'
p377
F0.013801097869873047
sS'comp_time'
p378
F0.0019478797912597656
sS'exec_cq'
p379
I2
sS'total_cq'
p380
I2
sasS'total_cqs'
p381
I2
ssI38
(dp382
S'iters'
p383
I2
sS'meta'
p384
(lp385
(dp386
S'objective'
p387
I0
sS'query_time'
p388
F0.040174007415771484
sS'comp_time'
p389
F0.006576061248779297
sS'exec_cq'
p390
I4
sS'total_cq'
p391
I4
sa(dp392
g387
I3
sg388
F7.390975952148438e-05
sg389
F0.00041794776916503906
sg390
I2
sg391
I2
sasS'total_cqs'
p393
I4
ssI39
(dp394
S'iters'
p395
I2
sS'meta'
p396
(lp397
(dp398
S'objective'
p399
I652
sS'query_time'
p400
F0.17484307289123535
sS'comp_time'
p401
F0.08388972282409668
sS'exec_cq'
p402
I44
sS'total_cq'
p403
I44
sa(dp404
g399
I733
sg400
F0.0003070831298828125
sg401
F0.0018923282623291016
sg402
I37
sg403
I37
sasS'total_cqs'
p405
I44
ssI40
(dp406
S'iters'
p407
I1
sS'meta'
p408
(lp409
(dp410
S'objective'
p411
I14
sS'query_time'
p412
F0.033772945404052734
sS'comp_time'
p413
F0.005781650543212891
sS'exec_cq'
p414
I7
sS'total_cq'
p415
I7
sasS'total_cqs'
p416
I7
ssI41
(dp417
S'iters'
p418
I1
sS'meta'
p419
(lp420
(dp421
S'objective'
p422
I54
sS'query_time'
p423
F0.06880688667297363
sS'comp_time'
p424
F0.016648054122924805
sS'exec_cq'
p425
I12
sS'total_cq'
p426
I12
sasS'total_cqs'
p427
I12
ssI42
(dp428
S'iters'
p429
I1
sS'meta'
p430
(lp431
(dp432
S'objective'
p433
I779
sS'query_time'
p434
F0.07443594932556152
sS'comp_time'
p435
F0.07753705978393555
sS'exec_cq'
p436
I21
sS'total_cq'
p437
I41
sasS'total_cqs'
p438
I41
ssI43
(dp439
S'iters'
p440
I1
sS'meta'
p441
(lp442
(dp443
S'objective'
p444
I14
sS'query_time'
p445
F0.025038957595825195
sS'comp_time'
p446
F0.005654096603393555
sS'exec_cq'
p447
I7
sS'total_cq'
p448
I7
sasS'total_cqs'
p449
I7
ssI44
(dp450
S'iters'
p451
I4
sS'meta'
p452
(lp453
(dp454
S'objective'
p455
I770
sS'query_time'
p456
F0.18239808082580566
sS'comp_time'
p457
F0.20882797241210938
sS'exec_cq'
p458
I47
sS'total_cq'
p459
I47
sa(dp460
g455
I727
sg456
F0.00027489662170410156
sg457
F0.0015997886657714844
sg458
I40
sg459
I40
sa(dp461
g455
I35
sg456
F0.0023539066314697266
sg457
F0.0019049644470214844
sg458
I3
sg459
I3
sa(dp462
g455
I21
sg456
F0.00012302398681640625
sg457
F0.0008039474487304688
sg458
I2
sg459
I2
sasS'total_cqs'
p463
I47
ssI46
(dp464
S'iters'
p465
I1
sS'meta'
p466
(lp467
(dp468
S'objective'
p469
I9
sS'query_time'
p470
F0.023767948150634766
sS'comp_time'
p471
F0.002562999725341797
sS'exec_cq'
p472
I4
sS'total_cq'
p473
I6
sasS'total_cqs'
p474
I6
ssI47
(dp475
S'iters'
p476
I1
sS'meta'
p477
(lp478
(dp479
S'objective'
p480
I1
sS'query_time'
p481
F0.00851893424987793
sS'comp_time'
p482
F0.0010945796966552734
sS'exec_cq'
p483
I2
sS'total_cq'
p484
I2
sasS'total_cqs'
p485
I2
ssI50
(dp486
S'iters'
p487
I1
sS'meta'
p488
(lp489
(dp490
S'objective'
p491
I5
sS'query_time'
p492
F0.012181997299194336
sS'comp_time'
p493
F0.0022208690643310547
sS'exec_cq'
p494
I5
sS'total_cq'
p495
I5
sasS'total_cqs'
p496
I5
ssI51
(dp497
S'iters'
p498
I1
sS'meta'
p499
(lp500
(dp501
S'objective'
p502
I1
sS'query_time'
p503
F0.0083770751953125
sS'comp_time'
p504
F0.0010921955108642578
sS'exec_cq'
p505
I2
sS'total_cq'
p506
I2
sasS'total_cqs'
p507
I2
ssI52
(dp508
S'iters'
p509
I1
sS'meta'
p510
(lp511
(dp512
S'objective'
p513
I1
sS'query_time'
p514
F0.014744043350219727
sS'comp_time'
p515
F0.0064983367919921875
sS'exec_cq'
p516
I2
sS'total_cq'
p517
I2
sasS'total_cqs'
p518
I2
ssI53
(dp519
S'iters'
p520
I1
sS'meta'
p521
(lp522
(dp523
S'objective'
p524
I2
sS'query_time'
p525
F0.04738187789916992
sS'comp_time'
p526
F0.0029392242431640625
sS'exec_cq'
p527
I4
sS'total_cq'
p528
I4
sasS'total_cqs'
p529
I4
ssI54
(dp530
S'iters'
p531
I1
sS'meta'
p532
(lp533
(dp534
S'objective'
p535
I0
sS'query_time'
p536
F0.011931896209716797
sS'comp_time'
p537
F0.0016710758209228516
sS'exec_cq'
p538
I3
sS'total_cq'
p539
I3
sasS'total_cqs'
p540
I3
ssI55
(dp541
S'iters'
p542
I4
sS'meta'
p543
(lp544
(dp545
S'objective'
p546
I4807
sS'query_time'
p547
F2.3653979301452637
sS'comp_time'
p548
F0.6166679859161377
sS'exec_cq'
p549
I109
sS'total_cq'
p550
I109
sa(dp551
g546
I38
sg547
F0.008965015411376953
sg548
F0.15966343879699707
sg549
I10
sg550
I10
sa(dp552
g546
I0
sg547
F0.0040209293365478516
sg548
F0.01635003089904785
sg549
I5
sg550
I5
sa(dp553
g546
I60
sg547
F0.003123044967651367
sg548
F0.016123294830322266
sg549
I3
sg550
I3
sasS'total_cqs'
p554
I109
ssI56
(dp555
S'iters'
p556
I4
sS'meta'
p557
(lp558
(dp559
S'objective'
p560
I1710
sS'query_time'
p561
F1.7383041381835938
sS'comp_time'
p562
F0.34157562255859375
sS'exec_cq'
p563
I67
sS'total_cq'
p564
I76
sa(dp565
g560
I22
sg561
F0.007150888442993164
sg562
F0.018668651580810547
sg563
I16
sg564
I16
sa(dp566
g560
I3
sg561
F0.0013148784637451172
sg562
F0.007909297943115234
sg563
I6
sg564
I6
sa(dp567
g560
I7
sg561
F0.00024008750915527344
sg562
F0.0013988018035888672
sg563
I3
sg564
I3
sasS'total_cqs'
p568
I76
ssI57
(dp569
S'iters'
p570
I5
sS'meta'
p571
(lp572
(dp573
S'objective'
p574
I84
sS'query_time'
p575
F24.378793954849243
sS'comp_time'
p576
F0.28033995628356934
sS'exec_cq'
p577
I45
sS'total_cq'
p578
I51
sa(dp579
g574
I3
sg575
F0.017946958541870117
sg576
F0.03924274444580078
sg577
I27
sg578
I27
sa(dp580
g574
I4
sg575
F0.015516042709350586
sg576
F0.03490805625915527
sg577
I12
sg578
I12
sa(dp581
g574
I3
sg575
F0.005650997161865234
sg576
F0.016894102096557617
sg577
I7
sg578
I7
sa(dp582
g574
I16
sg575
F0.0011432170867919922
sg576
F0.004532337188720703
sg577
I3
sg578
I3
sasS'total_cqs'
p583
I51
ssI58
(dp584
S'iters'
p585
I6
sS'meta'
p586
(lp587
(dp588
S'objective'
p589
I82335
sS'query_time'
p590
F112.33189797401428
sS'comp_time'
p591
F16.57840609550476
sS'exec_cq'
p592
I348
sS'total_cq'
p593
I486
sa(dp594
g589
I87274
sg590
F0.0400090217590332
sg591
F1.7386260032653809
sg592
I276
sg593
I414
sa(dp595
g589
I58
sg590
F0.017449140548706055
sg591
F0.1066884994506836
sg592
I28
sg593
I28
sa(dp596
g589
I15
sg590
F0.009271860122680664
sg591
F0.0246279239654541
sg592
I12
sg593
I12
sa(dp597
g589
I75
sg590
F0.0043790340423583984
sg591
F0.0152587890625
sg592
I7
sg593
I7
sa(dp598
g589
I204
sg590
F0.0015981197357177734
sg591
F0.007420778274536133
sg592
I5
sg593
I5
sasS'total_cqs'
p599
I486
ssI59
(dp600
S'iters'
p601
I2
sS'meta'
p602
(lp603
(dp604
S'objective'
p605
I2
sS'query_time'
p606
F0.046421051025390625
sS'comp_time'
p607
F0.01452493667602539
sS'exec_cq'
p608
I7
sS'total_cq'
p609
I7
sa(dp610
g605
I1
sg606
F0.0001480579376220703
sg607
F0.0010077953338623047
sg608
I2
sg609
I2
sasS'total_cqs'
p611
I7
ssI60
(dp612
S'iters'
p613
I1
sS'meta'
p614
(lp615
(dp616
S'objective'
p617
I5
sS'query_time'
p618
F0.014343023300170898
sS'comp_time'
p619
F0.003297090530395508
sS'exec_cq'
p620
I3
sS'total_cq'
p621
I5
sasS'total_cqs'
p622
I5
ssI62
(dp623
S'iters'
p624
I2
sS'meta'
p625
(lp626
(dp627
S'objective'
p628
I26
sS'query_time'
p629
F0.04032301902770996
sS'comp_time'
p630
F0.0168759822845459
sS'exec_cq'
p631
I12
sS'total_cq'
p632
I12
sa(dp633
g628
I28
sg629
F4.38690185546875e-05
sg630
F0.00016570091247558594
sg631
I9
sg632
I9
sasS'total_cqs'
p634
I12
ssI64
(dp635
S'iters'
p636
I3
sS'meta'
p637
(lp638
(dp639
S'objective'
p640
I16
sS'query_time'
p641
F0.17113804817199707
sS'comp_time'
p642
F0.021314144134521484
sS'exec_cq'
p643
I12
sS'total_cq'
p644
I12
sa(dp645
g640
I5
sg641
F0.00010395050048828125
sg642
F0.0006163120269775391
sg643
I4
sg644
I4
sa(dp646
g640
I6
sg641
F2.5987625122070312e-05
sg642
F0.0001518726348876953
sg643
I2
sg644
I2
sasS'total_cqs'
p647
I12
ssI65
(dp648
S'iters'
p649
I3
sS'meta'
p650
(lp651
(dp652
S'objective'
p653
I144
sS'query_time'
p654
F0.8767328262329102
sS'comp_time'
p655
F0.09216499328613281
sS'exec_cq'
p656
I27
sS'total_cq'
p657
I27
sa(dp658
g653
I1
sg654
F0.0017230510711669922
sg655
F0.007276058197021484
sg656
I7
sg657
I7
sa(dp659
g653
I5
sg654
F0.0002129077911376953
sg655
F0.0012137889862060547
sg656
I3
sg657
I3
sasS'total_cqs'
p660
I27
ssI67
(dp661
S'iters'
p662
I2
sS'meta'
p663
(lp664
(dp665
S'objective'
p666
I548
sS'query_time'
p667
F1.1816802024841309
sS'comp_time'
p668
F0.14507293701171875
sS'exec_cq'
p669
I35
sS'total_cq'
p670
I35
sa(dp671
g666
I29
sg667
F0.0014171600341796875
sg668
F0.009140968322753906
sg669
I2
sg670
I2
sasS'total_cqs'
p672
I35
ssI69
(dp673
S'iters'
p674
I1
sS'meta'
p675
(lp676
(dp677
S'objective'
p678
I1224
sS'query_time'
p679
F0.15724611282348633
sS'comp_time'
p680
F0.19331979751586914
sS'exec_cq'
p681
I51
sS'total_cq'
p682
I51
sasS'total_cqs'
p683
I51
ssI70
(dp684
S'iters'
p685
I1
sS'meta'
p686
(lp687
(dp688
S'objective'
p689
I9
sS'query_time'
p690
F0.02153301239013672
sS'comp_time'
p691
F0.003526449203491211
sS'exec_cq'
p692
I6
sS'total_cq'
p693
I6
sasS'total_cqs'
p694
I6
ssI71
(dp695
S'iters'
p696
I2
sS'meta'
p697
(lp698
(dp699
S'objective'
p700
I3309
sS'query_time'
p701
F0.2626018524169922
sS'comp_time'
p702
F0.19755887985229492
sS'exec_cq'
p703
I73
sS'total_cq'
p704
I85
sa(dp705
g700
I3
sg701
F0.0019199848175048828
sg702
F0.003568887710571289
sg703
I3
sg704
I3
sasS'total_cqs'
p706
I85
ssI72
(dp707
S'iters'
p708
I3
sS'meta'
p709
(lp710
(dp711
S'objective'
p712
I6
sS'query_time'
p713
F0.2493748664855957
sS'comp_time'
p714
F0.004963874816894531
sS'exec_cq'
p715
I4
sS'total_cq'
p716
I8
sa(dp717
g712
I7
sg713
F0.028428077697753906
sg714
F0.0003485679626464844
sg715
I4
sg716
I5
sa(dp718
g712
I2
sg713
F5.817413330078125e-05
sg714
F0.0002543926239013672
sg715
I2
sg716
I3
sasS'total_cqs'
p719
I8
ssI75
(dp720
S'iters'
p721
I1
sS'meta'
p722
(lp723
(dp724
S'objective'
p725
I5
sS'query_time'
p726
F0.009697914123535156
sS'comp_time'
p727
F0.00151824951171875
sS'exec_cq'
p728
I5
sS'total_cq'
p729
I5
sasS'total_cqs'
p730
I5
ssI76
(dp731
S'iters'
p732
I1
sS'meta'
p733
(lp734
(dp735
S'objective'
p736
I1
sS'query_time'
p737
F0.011626958847045898
sS'comp_time'
p738
F0.0010881423950195312
sS'exec_cq'
p739
I2
sS'total_cq'
p740
I2
sasS'total_cqs'
p741
I2
ssI103
(dp742
S'iters'
p743
I1
sS'meta'
p744
(lp745
(dp746
S'objective'
p747
I54
sS'query_time'
p748
F0.06230902671813965
sS'comp_time'
p749
F0.07310223579406738
sS'exec_cq'
p750
I12
sS'total_cq'
p751
I12
sasS'total_cqs'
p752
I12
ssI104
(dp753
S'iters'
p754
I2
sS'meta'
p755
(lp756
(dp757
S'objective'
p758
I0
sS'query_time'
p759
F1.3422760963439941
sS'comp_time'
p760
F0.15793180465698242
sS'exec_cq'
p761
I4
sS'total_cq'
p762
I4
sa(dp763
g758
I3
sg759
F0.013087034225463867
sg760
F0.15328574180603027
sg761
I2
sg762
I2
sasS'total_cqs'
p764
I4
ssI106
(dp765
S'iters'
p766
I1
sS'meta'
p767
(lp768
(dp769
S'objective'
p770
I2
sS'query_time'
p771
F0.02109694480895996
sS'comp_time'
p772
F0.0021741390228271484
sS'exec_cq'
p773
I4
sS'total_cq'
p774
I4
sasS'total_cqs'
p775
I4
ssI107
(dp776
S'iters'
p777
I2
sS'meta'
p778
(lp779
(dp780
S'objective'
p781
I76
sS'query_time'
p782
F0.07897686958312988
sS'comp_time'
p783
F0.020708084106445312
sS'exec_cq'
p784
I16
sS'total_cq'
p785
I16
sa(dp786
g781
I2
sg782
F0.004968881607055664
sg783
F0.00034999847412109375
sg784
I3
sg785
I3
sasS'total_cqs'
p787
I16
ss.