(dp0
I1
(dp1
S'iters'
p2
I3
sS'meta'
p3
(lp4
(dp5
S'objective'
p6
I60
sS'query_time'
p7
F0.048269033432006836
sS'comp_time'
p8
F0.02370929718017578
sS'exec_cq'
p9
I12
sS'total_cq'
p10
I12
sa(dp11
g6
I55
sg7
F9.608268737792969e-05
sg8
F0.00027298927307128906
sg9
I11
sg10
I11
sa(dp12
g6
I48
sg7
F6.318092346191406e-05
sg8
F0.00020265579223632812
sg9
I9
sg10
I9
sasS'total_cqs'
p13
I12
ssI2
(dp14
S'iters'
p15
I5
sS'meta'
p16
(lp17
(dp18
S'objective'
p19
I264
sS'query_time'
p20
F0.06611013412475586
sS'comp_time'
p21
F0.03063201904296875
sS'exec_cq'
p22
I14
sS'total_cq'
p23
I27
sa(dp24
g19
I205
sg20
F0.05720996856689453
sg21
F0.0006921291351318359
sg22
I13
sg23
I24
sa(dp25
g19
I207
sg20
F0.00011301040649414062
sg21
F0.0004990100860595703
sg22
I11
sg23
I20
sa(dp26
g19
I197
sg20
F5.0067901611328125e-05
sg21
F0.0002300739288330078
sg22
I9
sg23
I18
sa(dp27
g19
I186
sg20
F4.00543212890625e-05
sg21
F0.00017762184143066406
sg22
I8
sg23
I17
sasS'total_cqs'
p28
I27
ssI3
(dp29
S'iters'
p30
I4
sS'meta'
p31
(lp32
(dp33
S'objective'
p34
I306
sS'query_time'
p35
F121.10800409317017
sS'comp_time'
p36
F2.624250888824463
sS'exec_cq'
p37
I14
sS'total_cq'
p38
I43
sa(dp39
g34
I2
sg35
F65.85796999931335
sg36
F0.5007328987121582
sg37
I16
sg38
I29
sa(dp40
g34
I48
sg35
F41.9693078994751
sg36
F0.7060041427612305
sg37
I9
sg38
I13
sa(dp41
g34
I86
sg35
F11.084131717681885
sg36
F0.002848386764526367
sg37
I6
sg38
I6
sasS'total_cqs'
p42
I43
ssI4
(dp43
S'iters'
p44
I2
sS'meta'
p45
(lp46
(dp47
S'objective'
p48
I30
sS'query_time'
p49
F4.55851411819458
sS'comp_time'
p50
F0.8707139492034912
sS'exec_cq'
p51
I11
sS'total_cq'
p52
I11
sa(dp53
g48
I4
sg49
F0.19774508476257324
sg50
F0.8443300724029541
sg51
I2
sg52
I2
sasS'total_cqs'
p54
I11
ssI5
(dp55
S'iters'
p56
I3
sS'meta'
p57
(lp58
(dp59
S'objective'
p60
I0
sS'query_time'
p61
F35.35761594772339
sS'comp_time'
p62
F3.7722480297088623
sS'exec_cq'
p63
I8
sS'total_cq'
p64
I8
sa(dp65
g60
I0
sg61
F0.17513704299926758
sg62
F1.925069808959961
sg63
I5
sg64
I5
sa(dp66
g60
I1
sg61
F0.0036830902099609375
sg62
F0.020647048950195312
sg63
I2
sg64
I2
sasS'total_cqs'
p67
I8
ssI6
(dp68
S'iters'
p69
I4
sS'meta'
p70
(lp71
(dp72
S'objective'
p73
I55
sS'query_time'
p74
F36.31379199028015
sS'comp_time'
p75
F3.6815428733825684
sS'exec_cq'
p76
I18
sS'total_cq'
p77
I18
sa(dp78
g73
I0
sg74
F0.6154029369354248
sg75
F4.553616046905518
sg76
I7
sg77
I7
sa(dp79
g73
I3
sg74
F0.48393917083740234
sg75
F2.044387102127075
sg76
I4
sg77
I4
sa(dp80
g73
I7
sg74
F0.284168004989624
sg75
F1.2703344821929932
sg76
I3
sg77
I3
sasS'total_cqs'
p81
I18
ssI7
(dp82
S'iters'
p83
I3
sS'meta'
p84
(lp85
(dp86
S'objective'
p87
I1
sS'query_time'
p88
F11.914375066757202
sS'comp_time'
p89
F1.954791784286499
sS'exec_cq'
p90
I9
sS'total_cq'
p91
I9
sa(dp92
g87
I0
sg88
F0.17103195190429688
sg89
F0.2665979862213135
sg90
I5
sg91
I5
sa(dp93
g87
I1
sg88
F0.023136138916015625
sg89
F0.2532660961151123
sg90
I2
sg91
I2
sasS'total_cqs'
p94
I9
ssI8
(dp95
S'iters'
p96
I4
sS'meta'
p97
(lp98
(dp99
S'objective'
p100
I204
sS'query_time'
p101
F0.08659005165100098
sS'comp_time'
p102
F0.037224769592285156
sS'exec_cq'
p103
I14
sS'total_cq'
p104
I27
sa(dp105
g100
I263
sg101
F5.698204040527344e-05
sg102
F0.00021982192993164062
sg103
I9
sg104
I22
sa(dp106
g100
I199
sg101
F0.06561803817749023
sg102
F0.0005154609680175781
sg103
I21
sg104
I21
sa(dp107
g100
I208
sg101
F8.797645568847656e-05
sg102
F0.0002117156982421875
sg103
I18
sg104
I18
sasS'total_cqs'
p108
I27
ssI9
(dp109
S'iters'
p110
I3
sS'meta'
p111
(lp112
(dp113
S'objective'
p114
I4
sS'query_time'
p115
F0.06342887878417969
sS'comp_time'
p116
F0.011558771133422852
sS'exec_cq'
p117
I7
sS'total_cq'
p118
I7
sa(dp119
g114
I0
sg115
F4.100799560546875e-05
sg116
F0.00025343894958496094
sg117
I4
sg118
I4
sa(dp120
g114
I4
sg115
F1.5974044799804688e-05
sg116
F9.322166442871094e-05
sg117
I2
sg118
I2
sasS'total_cqs'
p121
I7
ssI10
(dp122
S'iters'
p123
I6
sS'meta'
p124
(lp125
(dp126
S'objective'
p127
I616
sS'query_time'
p128
F0.17235779762268066
sS'comp_time'
p129
F0.0824582576751709
sS'exec_cq'
p130
I28
sS'total_cq'
p131
I51
sa(dp132
g127
I353
sg128
F0.14608478546142578
sg129
F0.0017137527465820312
sg130
I23
sg131
I37
sa(dp133
g127
I442
sg128
F0.00023317337036132812
sg129
F0.0012493133544921875
sg130
I14
sg131
I25
sa(dp134
g127
I372
sg128
F4.291534423828125e-05
sg129
F0.0002620220184326172
sg130
I10
sg131
I21
sa(dp135
g127
I348
sg128
F6.008148193359375e-05
sg129
F0.0002262592315673828
sg130
I11
sg131
I19
sa(dp136
g127
I3
sg128
F0.0015788078308105469
sg129
F0.0004200935363769531
sg130
I3
sg131
I3
sasS'total_cqs'
p137
I51
ssI11
(dp138
S'iters'
p139
I5
sS'meta'
p140
(lp141
(dp142
S'objective'
p143
I808
sS'query_time'
p144
F0.6778512001037598
sS'comp_time'
p145
F0.2000260353088379
sS'exec_cq'
p146
I63
sS'total_cq'
p147
I63
sa(dp148
g143
I808
sg144
F0.0015091896057128906
sg145
F0.006814241409301758
sg146
I47
sg147
I47
sa(dp149
g143
I28
sg144
F0.0017309188842773438
sg145
F0.0027549266815185547
sg146
I9
sg147
I9
sa(dp150
g143
I3
sg144
F0.00016307830810546875
sg145
F0.00121307373046875
sg146
I5
sg147
I5
sa(dp151
g143
I15
sg144
F1.71661376953125e-05
sg145
F0.00010585784912109375
sg146
I2
sg147
I2
sasS'total_cqs'
p152
I63
ssI12
(dp153
S'iters'
p154
I5
sS'meta'
p155
(lp156
(dp157
S'objective'
p158
I589
sS'query_time'
p159
F0.20151019096374512
sS'comp_time'
p160
F0.09633731842041016
sS'exec_cq'
p161
I28
sS'total_cq'
p162
I50
sa(dp163
g158
I460
sg159
F0.13981008529663086
sg160
F0.0029697418212890625
sg161
I22
sg162
I33
sa(dp164
g158
I48
sg159
F0.001291036605834961
sg160
F0.0017588138580322266
sg161
I8
sg162
I8
sa(dp165
g158
I18
sg159
F3.4809112548828125e-05
sg160
F0.00017213821411132812
sg161
I4
sg162
I4
sa(dp166
g158
I10
sg159
F1.7881393432617188e-05
sg160
F9.369850158691406e-05
sg161
I2
sg162
I2
sasS'total_cqs'
p167
I50
ssI13
(dp168
S'iters'
p169
I4
sS'meta'
p170
(lp171
(dp172
S'objective'
p173
I26
sS'query_time'
p174
F0.1255030632019043
sS'comp_time'
p175
F0.026687145233154297
sS'exec_cq'
p176
I20
sS'total_cq'
p177
I20
sa(dp178
g173
I4
sg174
F0.0014760494232177734
sg175
F0.0006210803985595703
sg176
I11
sg177
I11
sa(dp179
g173
I9
sg174
F3.0994415283203125e-05
sg175
F0.00019049644470214844
sg176
I5
sg177
I5
sa(dp180
g173
I11
sg174
F1.6927719116210938e-05
sg175
F8.678436279296875e-05
sg176
I3
sg177
I3
sasS'total_cqs'
p181
I20
ssI14
(dp182
S'iters'
p183
I3
sS'meta'
p184
(lp185
(dp186
S'objective'
p187
I1
sS'query_time'
p188
F33.512157917022705
sS'comp_time'
p189
F1.6699609756469727
sS'exec_cq'
p190
I9
sS'total_cq'
p191
I9
sa(dp192
g187
I1
sg188
F0.30145978927612305
sg189
F1.1298580169677734
sg190
I6
sg191
I6
sa(dp193
g187
I1
sg188
F0.2867729663848877
sg189
F1.1377980709075928
sg190
I3
sg191
I3
sasS'total_cqs'
p194
I9
ssI15
(dp195
S'iters'
p196
I3
sS'meta'
p197
(lp198
(dp199
S'objective'
p200
I6
sS'query_time'
p201
F3.512673854827881
sS'comp_time'
p202
F0.28814125061035156
sS'exec_cq'
p203
I11
sS'total_cq'
p204
I11
sa(dp205
g200
I0
sg201
F0.0426180362701416
sg202
F0.2653059959411621
sg203
I6
sg204
I6
sa(dp206
g200
I1
sg201
F0.01094818115234375
sg202
F0.16006183624267578
sg203
I3
sg204
I3
sasS'total_cqs'
p207
I11
ssI16
(dp208
S'iters'
p209
I1
sS'meta'
p210
(lp211
(dp212
S'objective'
p213
I26
sS'query_time'
p214
F0.020235061645507812
sS'comp_time'
p215
F0.004148006439208984
sS'exec_cq'
p216
I8
sS'total_cq'
p217
I8
sasS'total_cqs'
p218
I8
ssI17
(dp219
S'iters'
p220
I3
sS'meta'
p221
(lp222
(dp223
S'objective'
p224
I0
sS'query_time'
p225
F0.909883975982666
sS'comp_time'
p226
F0.04613924026489258
sS'exec_cq'
p227
I11
sS'total_cq'
p228
I11
sa(dp229
g224
I3
sg225
F0.005631208419799805
sg226
F0.024294137954711914
sg227
I7
sg228
I7
sa(dp230
g224
I4
sg225
F0.00515294075012207
sg226
F0.1239471435546875
sg227
I3
sg228
I3
sasS'total_cqs'
p231
I11
ssI18
(dp232
S'iters'
p233
I1
sS'meta'
p234
(lp235
(dp236
S'objective'
p237
I52
sS'query_time'
p238
F0.2009108066558838
sS'comp_time'
p239
F0.021487951278686523
sS'exec_cq'
p240
I10
sS'total_cq'
p241
I11
sasS'total_cqs'
p242
I11
ssI19
(dp243
S'iters'
p244
I0
sS'meta'
p245
(lp246
sS'total_cqs'
p247
I1
ssI20
(dp248
S'iters'
p249
I0
sS'meta'
p250
(lp251
sS'total_cqs'
p252
I1
ssI21
(dp253
S'iters'
p254
I0
sS'meta'
p255
(lp256
sS'total_cqs'
p257
I1
ssI22
(dp258
S'iters'
p259
I1
sS'meta'
p260
(lp261
(dp262
S'objective'
p263
I151
sS'query_time'
p264
F0.05330514907836914
sS'comp_time'
p265
F0.02527332305908203
sS'exec_cq'
p266
I18
sS'total_cq'
p267
I18
sasS'total_cqs'
p268
I18
ssI23
(dp269
S'iters'
p270
I3
sS'meta'
p271
(lp272
(dp273
S'objective'
p274
I106
sS'query_time'
p275
F0.09178304672241211
sS'comp_time'
p276
F0.022310256958007812
sS'exec_cq'
p277
I8
sS'total_cq'
p278
I16
sa(dp279
g274
I83
sg275
F0.02835702896118164
sg276
F0.00016999244689941406
sg277
I8
sg278
I15
sa(dp280
g274
I84
sg275
F3.2901763916015625e-05
sg276
F0.00011301040649414062
sg277
I7
sg278
I13
sasS'total_cqs'
p281
I16
ssI24
(dp282
S'iters'
p283
I0
sS'meta'
p284
(lp285
sS'total_cqs'
p286
I1
ssI25
(dp287
S'iters'
p288
I0
sS'meta'
p289
(lp290
sS'total_cqs'
p291
I1
ssI26
(dp292
S'iters'
p293
I1
sS'meta'
p294
(lp295
(dp296
S'objective'
p297
I859
sS'query_time'
p298
F0.11313080787658691
sS'comp_time'
p299
F0.10804915428161621
sS'exec_cq'
p300
I42
sS'total_cq'
p301
I42
sasS'total_cqs'
p302
I42
ssI27
(dp303
S'iters'
p304
I3
sS'meta'
p305
(lp306
(dp307
S'objective'
p308
I325
sS'query_time'
p309
F22.143626928329468
sS'comp_time'
p310
F5.0742878913879395
sS'exec_cq'
p311
I30
sS'total_cq'
p312
I30
sa(dp313
g308
I8
sg309
F0.6116838455200195
sg310
F4.291560173034668
sg311
I5
sg312
I5
sa(dp314
g308
I7
sg309
F0.027312040328979492
sg310
F0.41275882720947266
sg311
I3
sg312
I3
sasS'total_cqs'
p315
I30
ssI28
(dp316
S'iters'
p317
I0
sS'meta'
p318
(lp319
sS'total_cqs'
p320
I1
ssI29
(dp321
S'iters'
p322
I5
sS'meta'
p323
(lp324
(dp325
S'objective'
p326
I353
sS'query_time'
p327
F28.844287872314453
sS'comp_time'
p328
F0.7435376644134521
sS'exec_cq'
p329
I35
sS'total_cq'
p330
I49
sa(dp331
g326
I2
sg327
F0.0027260780334472656
sg328
F0.008641719818115234
sg329
I16
sg330
I16
sa(dp332
g326
I13
sg327
F0.0009050369262695312
sg328
F0.005478858947753906
sg329
I7
sg330
I7
sa(dp333
g326
I6
sg327
F0.0006499290466308594
sg328
F0.006667137145996094
sg329
I3
sg330
I3
sa(dp334
g326
I2
sg327
F0.0006709098815917969
sg328
F0.004157066345214844
sg329
I2
sg330
I2
sasS'total_cqs'
p335
I49
ssI30
(dp336
S'iters'
p337
I1
sS'meta'
p338
(lp339
(dp340
S'objective'
p341
I1
sS'query_time'
p342
F0.6852068901062012
sS'comp_time'
p343
F0.04188108444213867
sS'exec_cq'
p344
I2
sS'total_cq'
p345
I2
sasS'total_cqs'
p346
I2
ssI31
(dp347
S'iters'
p348
I0
sS'meta'
p349
(lp350
sS'total_cqs'
p351
I1
ssI32
(dp352
S'iters'
p353
I1
sS'meta'
p354
(lp355
(dp356
S'objective'
p357
I1
sS'query_time'
p358
F0.010434865951538086
sS'comp_time'
p359
F0.001978158950805664
sS'exec_cq'
p360
I2
sS'total_cq'
p361
I2
sasS'total_cqs'
p362
I2
ssI33
(dp363
S'iters'
p364
I5
sS'meta'
p365
(lp366
(dp367
S'objective'
p368
I3578
sS'query_time'
p369
F16.256951093673706
sS'comp_time'
p370
F0.9360063076019287
sS'exec_cq'
p371
I103
sS'total_cq'
p372
I103
sa(dp373
g368
I1
sg369
F0.00983881950378418
sg370
F0.03577589988708496
sg371
I16
sg372
I16
sa(dp374
g368
I2
sg369
F0.004673004150390625
sg370
F0.021360158920288086
sg371
I9
sg372
I9
sa(dp375
g368
I47
sg369
F0.0009419918060302734
sg370
F0.0045299530029296875
sg371
I4
sg372
I4
sa(dp376
g368
I28
sg369
F0.00023412704467773438
sg370
F0.0015840530395507812
sg371
I2
sg372
I2
sasS'total_cqs'
p377
I103
ssI34
(dp378
S'iters'
p379
I1
sS'meta'
p380
(lp381
(dp382
S'objective'
p383
I1
sS'query_time'
p384
F0.015442132949829102
sS'comp_time'
p385
F0.0021829605102539062
sS'exec_cq'
p386
I2
sS'total_cq'
p387
I2
sasS'total_cqs'
p388
I2
ssI35
(dp389
S'iters'
p390
I6
sS'meta'
p391
(lp392
(dp393
S'objective'
p394
I961
sS'query_time'
p395
F22.114060163497925
sS'comp_time'
p396
F0.28207993507385254
sS'exec_cq'
p397
I50
sS'total_cq'
p398
I70
sa(dp399
g394
I80
sg395
F0.12894201278686523
sg396
F0.015719175338745117
sg397
I16
sg398
I16
sa(dp400
g394
I1
sg395
F0.0025360584259033203
sg396
F0.007838010787963867
sg397
I10
sg398
I10
sa(dp401
g394
I12
sg395
F0.0005600452423095703
sg396
F0.002380847930908203
sg397
I6
sg398
I6
sa(dp402
g394
I1
sg395
F0.0002720355987548828
sg396
F0.0018062591552734375
sg397
I4
sg398
I4
sa(dp403
g394
I22
sg395
F7.581710815429688e-05
sg396
F0.0005381107330322266
sg397
I2
sg398
I2
sasS'total_cqs'
p404
I70
ssI36
(dp405
S'iters'
p406
I2
sS'meta'
p407
(lp408
(dp409
S'objective'
p410
I381
sS'query_time'
p411
F0.7865660190582275
sS'comp_time'
p412
F0.15624332427978516
sS'exec_cq'
p413
I33
sS'total_cq'
p414
I33
sa(dp415
g410
I435
sg411
F0.004327297210693359
sg412
F0.0061168670654296875
sg413
I28
sg414
I29
sasS'total_cqs'
p416
I33
ssI37
(dp417
S'iters'
p418
I1
sS'meta'
p419
(lp420
(dp421
S'objective'
p422
I1
sS'query_time'
p423
F0.012459039688110352
sS'comp_time'
p424
F0.0015041828155517578
sS'exec_cq'
p425
I2
sS'total_cq'
p426
I2
sasS'total_cqs'
p427
I2
ssI38
(dp428
S'iters'
p429
I2
sS'meta'
p430
(lp431
(dp432
S'objective'
p433
I0
sS'query_time'
p434
F0.023221969604492188
sS'comp_time'
p435
F0.00305938720703125
sS'exec_cq'
p436
I4
sS'total_cq'
p437
I4
sa(dp438
g433
I1
sg434
F8.606910705566406e-05
sg435
F0.0004470348358154297
sg436
I2
sg437
I2
sasS'total_cqs'
p439
I4
ssI39
(dp440
S'iters'
p441
I2
sS'meta'
p442
(lp443
(dp444
S'objective'
p445
I670
sS'query_time'
p446
F0.18239283561706543
sS'comp_time'
p447
F0.14585089683532715
sS'exec_cq'
p448
I44
sS'total_cq'
p449
I44
sa(dp450
g445
I784
sg446
F0.0003330707550048828
sg447
F0.001935720443725586
sg448
I37
sg449
I37
sasS'total_cqs'
p451
I44
ssI40
(dp452
S'iters'
p453
I1
sS'meta'
p454
(lp455
(dp456
S'objective'
p457
I18
sS'query_time'
p458
F0.031131982803344727
sS'comp_time'
p459
F0.0057070255279541016
sS'exec_cq'
p460
I7
sS'total_cq'
p461
I7
sasS'total_cqs'
p462
I7
ssI41
(dp463
S'iters'
p464
I1
sS'meta'
p465
(lp466
(dp467
S'objective'
p468
I64
sS'query_time'
p469
F0.12659597396850586
sS'comp_time'
p470
F0.016095876693725586
sS'exec_cq'
p471
I12
sS'total_cq'
p472
I12
sasS'total_cqs'
p473
I12
ssI42
(dp474
S'iters'
p475
I2
sS'meta'
p476
(lp477
(dp478
S'objective'
p479
I811
sS'query_time'
p480
F0.06686186790466309
sS'comp_time'
p481
F0.15340495109558105
sS'exec_cq'
p482
I21
sS'total_cq'
p483
I41
sa(dp484
g479
I792
sg480
F0.00011515617370605469
sg481
F0.0002014636993408203
sg482
I20
sg483
I40
sasS'total_cqs'
p485
I41
ssI43
(dp486
S'iters'
p487
I1
sS'meta'
p488
(lp489
(dp490
S'objective'
p491
I18
sS'query_time'
p492
F0.027587890625
sS'comp_time'
p493
F0.005939006805419922
sS'exec_cq'
p494
I7
sS'total_cq'
p495
I7
sasS'total_cqs'
p496
I7
ssI44
(dp497
S'iters'
p498
I4
sS'meta'
p499
(lp500
(dp501
S'objective'
p502
I848
sS'query_time'
p503
F0.1470329761505127
sS'comp_time'
p504
F0.09135842323303223
sS'exec_cq'
p505
I47
sS'total_cq'
p506
I47
sa(dp507
g502
I806
sg503
F0.0003190040588378906
sg504
F0.0016872882843017578
sg505
I40
sg506
I40
sa(dp508
g502
I3
sg503
F0.001641988754272461
sg504
F0.00177001953125
sg505
I3
sg506
I3
sa(dp509
g502
I3
sg503
F0.00010704994201660156
sg504
F0.0007491111755371094
sg505
I2
sg506
I2
sasS'total_cqs'
p510
I47
ssI45
(dp511
S'iters'
p512
I0
sS'meta'
p513
(lp514
sS'total_cqs'
p515
I1
ssI46
(dp516
S'iters'
p517
I2
sS'meta'
p518
(lp519
(dp520
S'objective'
p521
I11
sS'query_time'
p522
F0.01832294464111328
sS'comp_time'
p523
F0.0029859542846679688
sS'exec_cq'
p524
I4
sS'total_cq'
p525
I6
sa(dp526
g521
I8
sg522
F0.013220071792602539
sg523
F0.0001811981201171875
sg524
I5
sg525
I5
sasS'total_cqs'
p527
I6
ssI47
(dp528
S'iters'
p529
I1
sS'meta'
p530
(lp531
(dp532
S'objective'
p533
I1
sS'query_time'
p534
F0.009145021438598633
sS'comp_time'
p535
F0.0011458396911621094
sS'exec_cq'
p536
I2
sS'total_cq'
p537
I2
sasS'total_cqs'
p538
I2
ssI48
(dp539
S'iters'
p540
I0
sS'meta'
p541
(lp542
sS'total_cqs'
p543
I1
ssI49
(dp544
S'iters'
p545
I0
sS'meta'
p546
(lp547
sS'total_cqs'
p548
I1
ssI50
(dp549
S'iters'
p550
I2
sS'meta'
p551
(lp552
(dp553
S'objective'
p554
I5
sS'query_time'
p555
F0.013180017471313477
sS'comp_time'
p556
F0.002507925033569336
sS'exec_cq'
p557
I5
sS'total_cq'
p558
I5
sa(dp559
g554
I2
sg555
F3.0040740966796875e-05
sg556
F0.00014209747314453125
sg557
I4
sg558
I4
sasS'total_cqs'
p560
I5
ssI51
(dp561
S'iters'
p562
I1
sS'meta'
p563
(lp564
(dp565
S'objective'
p566
I1
sS'query_time'
p567
F0.008905172348022461
sS'comp_time'
p568
F0.0014040470123291016
sS'exec_cq'
p569
I2
sS'total_cq'
p570
I2
sasS'total_cqs'
p571
I2
ssI52
(dp572
S'iters'
p573
I1
sS'meta'
p574
(lp575
(dp576
S'objective'
p577
I1
sS'query_time'
p578
F0.008532047271728516
sS'comp_time'
p579
F0.001241922378540039
sS'exec_cq'
p580
I2
sS'total_cq'
p581
I2
sasS'total_cqs'
p582
I2
ssI53
(dp583
S'iters'
p584
I2
sS'meta'
p585
(lp586
(dp587
S'objective'
p588
I2
sS'query_time'
p589
F0.022981882095336914
sS'comp_time'
p590
F0.002611875534057617
sS'exec_cq'
p591
I4
sS'total_cq'
p592
I4
sa(dp593
g588
I0
sg589
F6.985664367675781e-05
sg590
F0.0005049705505371094
sg591
I3
sg592
I3
sasS'total_cqs'
p594
I4
ssI54
(dp595
S'iters'
p596
I1
sS'meta'
p597
(lp598
(dp599
S'objective'
p600
I0
sS'query_time'
p601
F0.017685890197753906
sS'comp_time'
p602
F0.0018649101257324219
sS'exec_cq'
p603
I3
sS'total_cq'
p604
I3
sasS'total_cqs'
p605
I3
ssI55
(dp606
S'iters'
p607
I7
sS'meta'
p608
(lp609
(dp610
S'objective'
p611
I4865
sS'query_time'
p612
F2.2988178730010986
sS'comp_time'
p613
F0.6733150482177734
sS'exec_cq'
p614
I109
sS'total_cq'
p615
I109
sa(dp616
g611
I4484
sg612
F0.0009310245513916016
sg613
F0.004261970520019531
sg614
I97
sg615
I97
sa(dp617
g611
I4393
sg612
F0.0004150867462158203
sg613
F0.0019860267639160156
sg614
I91
sg615
I91
sa(dp618
g611
I4299
sg612
F0.00043010711669921875
sg613
F0.001705169677734375
sg614
I87
sg615
I87
sa(dp619
g611
I4123
sg612
F0.0004050731658935547
sg613
F0.0012657642364501953
sg614
I85
sg615
I85
sa(dp620
g611
I4059
sg612
F0.00032806396484375
sg613
F0.0010061264038085938
sg614
I83
sg615
I83
sa(dp621
g611
I4070
sg612
F0.00034499168395996094
sg613
F0.0009770393371582031
sg614
I81
sg615
I81
sasS'total_cqs'
p622
I109
ssI56
(dp623
S'iters'
p624
I5
sS'meta'
p625
(lp626
(dp627
S'objective'
p628
I1588
sS'query_time'
p629
F1.6481800079345703
sS'comp_time'
p630
F0.35709404945373535
sS'exec_cq'
p631
I67
sS'total_cq'
p632
I76
sa(dp633
g628
I39
sg629
F0.007003068923950195
sg630
F0.018889665603637695
sg631
I16
sg632
I16
sa(dp634
g628
I8
sg629
F0.003896951675415039
sg630
F0.011665105819702148
sg631
I8
sg632
I8
sa(dp635
g628
I31
sg629
F0.00031685829162597656
sg630
F0.001806020736694336
sg631
I3
sg632
I3
sa(dp636
g628
I28
sg629
F0.00021600723266601562
sg630
F0.0015900135040283203
sg631
I2
sg632
I2
sasS'total_cqs'
p637
I76
ssI57
(dp638
S'iters'
p639
I6
sS'meta'
p640
(lp641
(dp642
S'objective'
p643
I72
sS'query_time'
p644
F22.48475408554077
sS'comp_time'
p645
F0.42965006828308105
sS'exec_cq'
p646
I45
sS'total_cq'
p647
I51
sa(dp648
g643
I61
sg644
F0.0142669677734375
sg645
F0.0328526496887207
sg646
I27
sg647
I27
sa(dp649
g643
I5
sg644
F0.013035058975219727
sg645
F0.03291130065917969
sg646
I12
sg647
I12
sa(dp650
g643
I3
sg644
F0.005020856857299805
sg645
F0.11883401870727539
sg646
I6
sg647
I6
sa(dp651
g643
I6
sg644
F0.002565145492553711
sg645
F0.014792203903198242
sg646
I4
sg647
I4
sa(dp652
g643
I23
sg644
F0.001032114028930664
sg645
F0.00526881217956543
sg646
I3
sg647
I3
sasS'total_cqs'
p653
I51
ssI58
(dp654
S'iters'
p655
I7
sS'meta'
p656
(lp657
(dp658
S'objective'
p659
I86983
sS'query_time'
p660
F112.08765411376953
sS'comp_time'
p661
F16.01830291748047
sS'exec_cq'
p662
I348
sS'total_cq'
p663
I486
sa(dp664
g659
I90812
sg660
F0.03869009017944336
sg661
F1.8670051097869873
sg662
I276
sg663
I414
sa(dp665
g659
I73
sg660
F0.015577077865600586
sg661
F0.08429098129272461
sg662
I28
sg663
I28
sa(dp666
g659
I1
sg660
F0.011094093322753906
sg661
F0.02554798126220703
sg662
I13
sg663
I13
sa(dp667
g659
I66
sg660
F0.0026960372924804688
sg661
F0.008784055709838867
sg662
I7
sg663
I7
sa(dp668
g659
I9
sg660
F0.0016160011291503906
sg661
F0.007014036178588867
sg662
I4
sg663
I4
sa(dp669
g659
I101
sg660
F0.0010089874267578125
sg661
F0.005906105041503906
sg662
I2
sg663
I2
sasS'total_cqs'
p670
I486
ssI59
(dp671
S'iters'
p672
I2
sS'meta'
p673
(lp674
(dp675
S'objective'
p676
I6
sS'query_time'
p677
F0.04682612419128418
sS'comp_time'
p678
F0.015801668167114258
sS'exec_cq'
p679
I7
sS'total_cq'
p680
I7
sa(dp681
g676
I1
sg677
F0.0001819133758544922
sg678
F0.0011382102966308594
sg679
I2
sg680
I2
sasS'total_cqs'
p682
I7
ssI60
(dp683
S'iters'
p684
I2
sS'meta'
p685
(lp686
(dp687
S'objective'
p688
I5
sS'query_time'
p689
F0.020251035690307617
sS'comp_time'
p690
F0.00643467903137207
sS'exec_cq'
p691
I2
sS'total_cq'
p692
I5
sa(dp693
g688
I2
sg689
F0.00586390495300293
sg690
F0.0001804828643798828
sg691
I3
sg692
I4
sasS'total_cqs'
p694
I5
ssI61
(dp695
S'iters'
p696
I0
sS'meta'
p697
(lp698
sS'total_cqs'
p699
I1
ssI62
(dp700
S'iters'
p701
I2
sS'meta'
p702
(lp703
(dp704
S'objective'
p705
I38
sS'query_time'
p706
F0.03165316581726074
sS'comp_time'
p707
F0.017984390258789062
sS'exec_cq'
p708
I12
sS'total_cq'
p709
I12
sa(dp710
g705
I44
sg706
F4.9114227294921875e-05
sg707
F0.00017690658569335938
sg708
I9
sg709
I9
sasS'total_cqs'
p711
I12
ssI63
(dp712
S'iters'
p713
I0
sS'meta'
p714
(lp715
sS'total_cqs'
p716
I1
ssI64
(dp717
S'iters'
p718
I3
sS'meta'
p719
(lp720
(dp721
S'objective'
p722
I10
sS'query_time'
p723
F0.12517094612121582
sS'comp_time'
p724
F0.030243873596191406
sS'exec_cq'
p725
I12
sS'total_cq'
p726
I12
sa(dp727
g722
I0
sg723
F0.00020003318786621094
sg724
F0.0012640953063964844
sg725
I4
sg726
I4
sa(dp728
g722
I3
sg723
F4.220008850097656e-05
sg724
F0.00022459030151367188
sg725
I2
sg726
I2
sasS'total_cqs'
p729
I12
ssI65
(dp730
S'iters'
p731
I4
sS'meta'
p732
(lp733
(dp734
S'objective'
p735
I160
sS'query_time'
p736
F0.8199892044067383
sS'comp_time'
p737
F0.2631375789642334
sS'exec_cq'
p738
I27
sS'total_cq'
p739
I27
sa(dp740
g735
I1
sg736
F0.0013000965118408203
sg737
F0.005366086959838867
sg738
I7
sg739
I7
sa(dp741
g735
I4
sg736
F0.0005939006805419922
sg737
F0.0030918121337890625
sg738
I4
sg739
I4
sa(dp742
g735
I5
sg736
F0.00015878677368164062
sg737
F0.0009121894836425781
sg738
I2
sg739
I2
sasS'total_cqs'
p743
I27
ssI66
(dp744
S'iters'
p745
I0
sS'meta'
p746
(lp747
sS'total_cqs'
p748
I1
ssI67
(dp749
S'iters'
p750
I2
sS'meta'
p751
(lp752
(dp753
S'objective'
p754
I566
sS'query_time'
p755
F1.0350260734558105
sS'comp_time'
p756
F0.08878421783447266
sS'exec_cq'
p757
I35
sS'total_cq'
p758
I35
sa(dp759
g754
I6
sg755
F0.002227783203125
sg756
F0.008989810943603516
sg757
I2
sg758
I2
sasS'total_cqs'
p760
I35
ssI68
(dp761
S'iters'
p762
I0
sS'meta'
p763
(lp764
sS'total_cqs'
p765
I1
ssI69
(dp766
S'iters'
p767
I1
sS'meta'
p768
(lp769
(dp770
S'objective'
p771
I1272
sS'query_time'
p772
F0.18393802642822266
sS'comp_time'
p773
F0.30881571769714355
sS'exec_cq'
p774
I51
sS'total_cq'
p775
I51
sasS'total_cqs'
p776
I51
ssI70
(dp777
S'iters'
p778
I2
sS'meta'
p779
(lp780
(dp781
S'objective'
p782
I11
sS'query_time'
p783
F0.021133899688720703
sS'comp_time'
p784
F0.0037000179290771484
sS'exec_cq'
p785
I6
sS'total_cq'
p786
I6
sa(dp787
g782
I8
sg783
F5.1975250244140625e-05
sg784
F0.00024890899658203125
sg785
I5
sg786
I5
sasS'total_cqs'
p788
I6
ssI71
(dp789
S'iters'
p790
I6
sS'meta'
p791
(lp792
(dp793
S'objective'
p794
I3141
sS'query_time'
p795
F0.26547908782958984
sS'comp_time'
p796
F0.27164697647094727
sS'exec_cq'
p797
I73
sS'total_cq'
p798
I85
sa(dp799
g794
I3026
sg795
F0.0002357959747314453
sg796
F0.0009086132049560547
sg797
I69
sg798
I81
sa(dp800
g794
I2880
sg795
F0.00019407272338867188
sg796
F0.0006799697875976562
sg797
I66
sg798
I78
sa(dp801
g794
I2784
sg795
F0.00018095970153808594
sg796
F0.0005850791931152344
sg797
I63
sg798
I75
sa(dp802
g794
I2675
sg795
F0.0001800060272216797
sg796
F0.0006430149078369141
sg797
I59
sg798
I71
sa(dp803
g794
I32
sg795
F0.0017638206481933594
sg796
F0.0019724369049072266
sg797
I3
sg798
I3
sasS'total_cqs'
p804
I85
ssI72
(dp805
S'iters'
p806
I3
sS'meta'
p807
(lp808
(dp809
S'objective'
p810
I6
sS'query_time'
p811
F0.32393789291381836
sS'comp_time'
p812
F0.008818864822387695
sS'exec_cq'
p813
I4
sS'total_cq'
p814
I8
sa(dp815
g810
I3
sg811
F0.02739095687866211
sg812
F0.0003719329833984375
sg813
I4
sg814
I5
sa(dp816
g810
I1
sg811
F5.888938903808594e-05
sg812
F0.0002689361572265625
sg813
I2
sg814
I3
sasS'total_cqs'
p817
I8
ssI73
(dp818
S'iters'
p819
I0
sS'meta'
p820
(lp821
sS'total_cqs'
p822
I1
ssI74
(dp823
S'iters'
p824
I0
sS'meta'
p825
(lp826
sS'total_cqs'
p827
I1
ssI75
(dp828
S'iters'
p829
I2
sS'meta'
p830
(lp831
(dp832
S'objective'
p833
I5
sS'query_time'
p834
F0.011877059936523438
sS'comp_time'
p835
F0.001961231231689453
sS'exec_cq'
p836
I5
sS'total_cq'
p837
I5
sa(dp838
g833
I2
sg834
F2.288818359375e-05
sg835
F9.489059448242188e-05
sg836
I4
sg837
I4
sasS'total_cqs'
p839
I5
ssI76
(dp840
S'iters'
p841
I1
sS'meta'
p842
(lp843
(dp844
S'objective'
p845
I1
sS'query_time'
p846
F0.013898134231567383
sS'comp_time'
p847
F0.0011761188507080078
sS'exec_cq'
p848
I2
sS'total_cq'
p849
I2
sasS'total_cqs'
p850
I2
ssI77
(dp851
S'iters'
p852
I0
sS'meta'
p853
(lp854
sS'total_cqs'
p855
I1
ssI78
(dp856
S'iters'
p857
I0
sS'meta'
p858
(lp859
sS'total_cqs'
p860
I1
ssI103
(dp861
S'iters'
p862
I1
sS'meta'
p863
(lp864
(dp865
S'objective'
p866
I64
sS'query_time'
p867
F0.055104970932006836
sS'comp_time'
p868
F0.014931678771972656
sS'exec_cq'
p869
I12
sS'total_cq'
p870
I12
sasS'total_cqs'
p871
I12
ssI104
(dp872
S'iters'
p873
I2
sS'meta'
p874
(lp875
(dp876
S'objective'
p877
I0
sS'query_time'
p878
F1.3778409957885742
sS'comp_time'
p879
F0.267683744430542
sS'exec_cq'
p880
I4
sS'total_cq'
p881
I4
sa(dp882
g877
I1
sg878
F0.012106180191040039
sg879
F0.25151586532592773
sg880
I2
sg881
I2
sasS'total_cqs'
p883
I4
ssI105
(dp884
S'iters'
p885
I0
sS'meta'
p886
(lp887
sS'total_cqs'
p888
I1
ssI106
(dp889
S'iters'
p890
I1
sS'meta'
p891
(lp892
(dp893
S'objective'
p894
I4
sS'query_time'
p895
F0.02034306526184082
sS'comp_time'
p896
F0.001829385757446289
sS'exec_cq'
p897
I4
sS'total_cq'
p898
I4
sasS'total_cqs'
p899
I4
ssI107
(dp900
S'iters'
p901
I2
sS'meta'
p902
(lp903
(dp904
S'objective'
p905
I58
sS'query_time'
p906
F0.07835197448730469
sS'comp_time'
p907
F0.17609214782714844
sS'exec_cq'
p908
I16
sS'total_cq'
p909
I16
sa(dp910
g905
I21
sg906
F0.00487208366394043
sg907
F0.0003578662872314453
sg908
I3
sg909
I3
sasS'total_cqs'
p911
I16
ssI108
(dp912
S'iters'
p913
I0
sS'meta'
p914
(lp915
sS'total_cqs'
p916
I1
ss.