(dp0
I1
(dp1
S'iters'
p2
I2
sS'meta'
p3
(lp4
(dp5
S'objective'
p6
I54
sS'query_time'
p7
F0.03354215621948242
sS'comp_time'
p8
F0.00026607513427734375
sS'exec_cq'
p9
I12
sS'total_cq'
p10
I12
sa(dp11
g6
I52
sg7
F7.200241088867188e-05
sg8
F0.00014591217041015625
sg9
I11
sg10
I11
sasS'total_cqs'
p12
I12
ssI2
(dp13
S'iters'
p14
I4
sS'meta'
p15
(lp16
(dp17
S'objective'
p18
I230
sS'query_time'
p19
F0.12084293365478516
sS'comp_time'
p20
F0.0011229515075683594
sS'exec_cq'
p21
I27
sS'total_cq'
p22
I27
sa(dp23
g18
I198
sg19
F0.00015401840209960938
sg20
F0.00048422813415527344
sg21
I24
sg22
I24
sa(dp24
g18
I203
sg19
F9.799003601074219e-05
sg20
F0.0002651214599609375
sg21
I21
sg22
I21
sa(dp25
g18
I197
sg19
F8.893013000488281e-05
sg20
F0.00021600723266601562
sg21
I19
sg22
I19
sasS'total_cqs'
p26
I27
ssI3
(dp27
S'iters'
p28
I4
sS'meta'
p29
(lp30
(dp31
S'objective'
p32
I158
sS'query_time'
p33
F158.62324500083923
sS'comp_time'
p34
F1.723524808883667
sS'exec_cq'
p35
I43
sS'total_cq'
p36
I43
sa(dp37
g32
I126
sg33
F0.3637080192565918
sg34
F1.3733229637145996
sg35
I27
sg36
I27
sa(dp38
g32
I53
sg33
F0.05157303810119629
sg34
F0.3685338497161865
sg35
I13
sg36
I13
sa(dp39
g32
I150
sg33
F6.413459777832031e-05
sg34
F0.0029380321502685547
sg35
I7
sg36
I7
sasS'total_cqs'
p40
I43
ssI4
(dp41
S'iters'
p42
I2
sS'meta'
p43
(lp44
(dp45
S'objective'
p46
I42
sS'query_time'
p47
F4.012676000595093
sS'comp_time'
p48
F0.5333421230316162
sS'exec_cq'
p49
I11
sS'total_cq'
p50
I11
sa(dp51
g46
I2
sg47
F0.11348891258239746
sg48
F0.3635683059692383
sg49
I2
sg50
I2
sasS'total_cqs'
p52
I11
ssI5
(dp53
S'iters'
p54
I3
sS'meta'
p55
(lp56
(dp57
S'objective'
p58
I0
sS'query_time'
p59
F27.57139015197754
sS'comp_time'
p60
F3.1034979820251465
sS'exec_cq'
p61
I8
sS'total_cq'
p62
I8
sa(dp63
g58
I0
sg59
F0.4173438549041748
sg60
F1.3191499710083008
sg61
I5
sg62
I5
sa(dp64
g58
I1
sg59
F0.22347688674926758
sg60
F0.756951093673706
sg61
I2
sg62
I2
sasS'total_cqs'
p65
I8
ssI6
(dp66
S'iters'
p67
I4
sS'meta'
p68
(lp69
(dp70
S'objective'
p71
I37
sS'query_time'
p72
F29.648101091384888
sS'comp_time'
p73
F2.414807081222534
sS'exec_cq'
p74
I18
sS'total_cq'
p75
I18
sa(dp76
g71
I1
sg72
F0.6015870571136475
sg73
F2.0992350578308105
sg74
I7
sg75
I7
sa(dp77
g71
I9
sg72
F0.016015052795410156
sg73
F0.07039308547973633
sg74
I3
sg75
I3
sa(dp78
g71
I1
sg72
F0.009659051895141602
sg73
F0.04286909103393555
sg74
I2
sg75
I2
sasS'total_cqs'
p79
I18
ssI7
(dp80
S'iters'
p81
I3
sS'meta'
p82
(lp83
(dp84
S'objective'
p85
I1
sS'query_time'
p86
F10.075844049453735
sS'comp_time'
p87
F1.1235849857330322
sS'exec_cq'
p88
I9
sS'total_cq'
p89
I9
sa(dp90
g85
I4
sg86
F0.16612720489501953
sg87
F0.39125514030456543
sg88
I4
sg89
I4
sa(dp91
g85
I1
sg86
F0.09647893905639648
sg87
F0.23967790603637695
sg88
I2
sg89
I2
sasS'total_cqs'
p92
I9
ssI8
(dp93
S'iters'
p94
I4
sS'meta'
p95
(lp96
(dp97
S'objective'
p98
I246
sS'query_time'
p99
F0.16766905784606934
sS'comp_time'
p100
F0.0010008811950683594
sS'exec_cq'
p101
I27
sS'total_cq'
p102
I27
sa(dp103
g98
I222
sg99
F0.00015401840209960938
sg100
F0.0003609657287597656
sg101
I22
sg102
I22
sa(dp104
g98
I233
sg99
F7.104873657226562e-05
sg100
F0.00010418891906738281
sg101
I19
sg102
I19
sa(dp105
g98
I220
sg99
F7.891654968261719e-05
sg100
F9.202957153320312e-05
sg101
I18
sg102
I18
sasS'total_cqs'
p106
I27
ssI9
(dp107
S'iters'
p108
I2
sS'meta'
p109
(lp110
(dp111
S'objective'
p112
I4
sS'query_time'
p113
F0.05195307731628418
sS'comp_time'
p114
F0.00023508071899414062
sS'exec_cq'
p115
I7
sS'total_cq'
p116
I7
sa(dp117
g112
I2
sg113
F2.002716064453125e-05
sg114
F5.2928924560546875e-05
sg115
I2
sg116
I2
sasS'total_cqs'
p118
I7
ssI10
(dp119
S'iters'
p120
I5
sS'meta'
p121
(lp122
(dp123
S'objective'
p124
I632
sS'query_time'
p125
F0.4033851623535156
sS'comp_time'
p126
F0.00719904899597168
sS'exec_cq'
p127
I51
sS'total_cq'
p128
I51
sa(dp129
g124
I5
sg125
F0.001363992691040039
sg126
F0.0005831718444824219
sg127
I12
sg128
I12
sa(dp130
g124
I13
sg125
F4.410743713378906e-05
sg126
F0.00015687942504882812
sg127
I6
sg128
I6
sa(dp131
g124
I4
sg125
F3.0040740966796875e-05
sg126
F9.608268737792969e-05
sg127
I4
sg128
I4
sa(dp132
g124
I6
sg125
F1.5974044799804688e-05
sg126
F5.793571472167969e-05
sg127
I2
sg128
I2
sasS'total_cqs'
p133
I51
ssI11
(dp134
S'iters'
p135
I5
sS'meta'
p136
(lp137
(dp138
S'objective'
p139
I972
sS'query_time'
p140
F0.5751869678497314
sS'comp_time'
p141
F0.012730836868286133
sS'exec_cq'
p142
I63
sS'total_cq'
p143
I63
sa(dp144
g139
I876
sg140
F0.0008771419525146484
sg141
F0.003444194793701172
sg142
I47
sg143
I47
sa(dp145
g139
I31
sg140
F0.0014150142669677734
sg141
F0.0008251667022705078
sg142
I9
sg143
I9
sa(dp146
g139
I5
sg140
F3.790855407714844e-05
sg141
F0.00010895729064941406
sg142
I6
sg143
I6
sa(dp147
g139
I1
sg140
F2.5033950805664062e-05
sg141
F8.296966552734375e-05
sg142
I4
sg143
I4
sasS'total_cqs'
p148
I63
ssI12
(dp149
S'iters'
p150
I6
sS'meta'
p151
(lp152
(dp153
S'objective'
p154
I335
sS'query_time'
p155
F0.4297060966491699
sS'comp_time'
p156
F0.006300926208496094
sS'exec_cq'
p157
I50
sS'total_cq'
p158
I50
sa(dp159
g154
I317
sg155
F0.0004169940948486328
sg156
F0.0018210411071777344
sg157
I33
sg158
I33
sa(dp160
g154
I10
sg155
F0.0017008781433105469
sg156
F0.001165151596069336
sg157
I8
sg158
I8
sa(dp161
g154
I13
sg155
F7.319450378417969e-05
sg156
F0.0003409385681152344
sg157
I5
sg158
I5
sa(dp162
g154
I7
sg155
F5.1021575927734375e-05
sg156
F0.00026488304138183594
sg157
I3
sg158
I3
sa(dp163
g154
I16
sg155
F1.6927719116210938e-05
sg156
F5.269050598144531e-05
sg157
I2
sg158
I2
sasS'total_cqs'
p164
I50
ssI13
(dp165
S'iters'
p166
I5
sS'meta'
p167
(lp168
(dp169
S'objective'
p170
I10
sS'query_time'
p171
F0.16014313697814941
sS'comp_time'
p172
F0.0003910064697265625
sS'exec_cq'
p173
I20
sS'total_cq'
p174
I20
sa(dp175
g170
I4
sg171
F0.007075071334838867
sg172
F0.0003190040588378906
sg173
I11
sg174
I11
sa(dp176
g170
I19
sg171
F4.482269287109375e-05
sg172
F0.000102996826171875
sg173
I6
sg174
I6
sa(dp177
g170
I6
sg171
F2.7894973754882812e-05
sg172
F8.893013000488281e-05
sg173
I4
sg174
I4
sa(dp178
g170
I1
sg171
F2.09808349609375e-05
sg172
F6.699562072753906e-05
sg173
I3
sg174
I3
sasS'total_cqs'
p179
I20
ssI14
(dp180
S'iters'
p181
I3
sS'meta'
p182
(lp183
(dp184
S'objective'
p185
I1
sS'query_time'
p186
F27.12097978591919
sS'comp_time'
p187
F1.0383777618408203
sS'exec_cq'
p188
I9
sS'total_cq'
p189
I9
sa(dp190
g185
I4
sg186
F0.17433619499206543
sg187
F0.5554440021514893
sg188
I4
sg189
I4
sa(dp191
g185
I1
sg186
F0.14037799835205078
sg187
F0.6889419555664062
sg188
I2
sg189
I2
sasS'total_cqs'
p192
I9
ssI15
(dp193
S'iters'
p194
I3
sS'meta'
p195
(lp196
(dp197
S'objective'
p198
I0
sS'query_time'
p199
F3.2071850299835205
sS'comp_time'
p200
F0.12649917602539062
sS'exec_cq'
p201
I11
sS'total_cq'
p202
I11
sa(dp203
g198
I1
sg199
F0.029989957809448242
sg200
F0.12908506393432617
sg201
I6
sg202
I6
sa(dp204
g198
I3
sg199
F0.000392913818359375
sg200
F0.0019409656524658203
sg201
I2
sg202
I2
sasS'total_cqs'
p205
I11
ssI16
(dp206
S'iters'
p207
I1
sS'meta'
p208
(lp209
(dp210
S'objective'
p211
I26
sS'query_time'
p212
F0.04340791702270508
sS'comp_time'
p213
F0.00013899803161621094
sS'exec_cq'
p214
I8
sS'total_cq'
p215
I8
sasS'total_cqs'
p216
I8
ssI17
(dp217
S'iters'
p218
I4
sS'meta'
p219
(lp220
(dp221
S'objective'
p222
I0
sS'query_time'
p223
F0.8164739608764648
sS'comp_time'
p224
F0.01710820198059082
sS'exec_cq'
p225
I11
sS'total_cq'
p226
I11
sa(dp227
g222
I13
sg223
F0.00013303756713867188
sg224
F0.0006279945373535156
sg225
I6
sg226
I6
sa(dp228
g222
I7
sg223
F0.00011086463928222656
sg224
F0.0005981922149658203
sg225
I5
sg226
I5
sa(dp229
g222
I6
sg223
F9.894371032714844e-05
sg224
F0.0006990432739257812
sg225
I2
sg226
I2
sasS'total_cqs'
p230
I11
ssI18
(dp231
S'iters'
p232
I2
sS'meta'
p233
(lp234
(dp235
S'objective'
p236
I34
sS'query_time'
p237
F0.22356295585632324
sS'comp_time'
p238
F0.004240989685058594
sS'exec_cq'
p239
I11
sS'total_cq'
p240
I11
sa(dp241
g236
I36
sg237
F0.0005970001220703125
sg238
F0.003129720687866211
sg239
I9
sg240
I9
sasS'total_cqs'
p242
I11
ssI19
(dp243
S'iters'
p244
I0
sS'meta'
p245
(lp246
sS'total_cqs'
p247
I1
ssI20
(dp248
S'iters'
p249
I0
sS'meta'
p250
(lp251
sS'total_cqs'
p252
I1
ssI21
(dp253
S'iters'
p254
I0
sS'meta'
p255
(lp256
sS'total_cqs'
p257
I1
ssI22
(dp258
S'iters'
p259
I1
sS'meta'
p260
(lp261
(dp262
S'objective'
p263
I151
sS'query_time'
p264
F0.08055496215820312
sS'comp_time'
p265
F0.00017499923706054688
sS'exec_cq'
p266
I18
sS'total_cq'
p267
I18
sasS'total_cqs'
p268
I18
ssI23
(dp269
S'iters'
p270
I3
sS'meta'
p271
(lp272
(dp273
S'objective'
p274
I108
sS'query_time'
p275
F0.08452892303466797
sS'comp_time'
p276
F0.0005998611450195312
sS'exec_cq'
p277
I16
sS'total_cq'
p278
I16
sa(dp279
g274
I96
sg275
F8.0108642578125e-05
sg276
F0.00023317337036132812
sg277
I14
sg278
I14
sa(dp280
g274
I91
sg275
F4.601478576660156e-05
sg276
F5.2928924560546875e-05
sg277
I13
sg278
I13
sasS'total_cqs'
p281
I16
ssI24
(dp282
S'iters'
p283
I0
sS'meta'
p284
(lp285
sS'total_cqs'
p286
I1
ssI25
(dp287
S'iters'
p288
I0
sS'meta'
p289
(lp290
sS'total_cqs'
p291
I1
ssI26
(dp292
S'iters'
p293
I1
sS'meta'
p294
(lp295
(dp296
S'objective'
p297
I859
sS'query_time'
p298
F0.2098681926727295
sS'comp_time'
p299
F0.0001480579376220703
sS'exec_cq'
p300
I42
sS'total_cq'
p301
I42
sasS'total_cqs'
p302
I42
ssI27
(dp303
S'iters'
p304
I4
sS'meta'
p305
(lp306
(dp307
S'objective'
p308
I301
sS'query_time'
p309
F17.51849603652954
sS'comp_time'
p310
F1.9779088497161865
sS'exec_cq'
p311
I30
sS'total_cq'
p312
I30
sa(dp313
g308
I0
sg309
F0.3656961917877197
sg310
F1.977881908416748
sg311
I5
sg312
I5
sa(dp314
g308
I7
sg309
F0.3478579521179199
sg310
F1.6915388107299805
sg311
I3
sg312
I3
sa(dp315
g308
I15
sg309
F0.1840379238128662
sg310
F0.5040018558502197
sg311
I2
sg312
I2
sasS'total_cqs'
p316
I30
ssI28
(dp317
S'iters'
p318
I0
sS'meta'
p319
(lp320
sS'total_cqs'
p321
I1
ssI29
(dp322
S'iters'
p323
I5
sS'meta'
p324
(lp325
(dp326
S'objective'
p327
I327
sS'query_time'
p328
F134.6199951171875
sS'comp_time'
p329
F14.173223972320557
sS'exec_cq'
p330
I49
sS'total_cq'
p331
I49
sa(dp332
g327
I11
sg328
F0.022552013397216797
sg329
F0.04576992988586426
sg330
I17
sg331
I17
sa(dp333
g327
I1
sg328
F0.588144063949585
sg329
F0.03756904602050781
sg330
I7
sg331
I7
sa(dp334
g327
I20
sg328
F0.0017189979553222656
sg329
F0.007452964782714844
sg330
I3
sg331
I3
sa(dp335
g327
I13
sg328
F0.0005729198455810547
sg329
F0.00325775146484375
sg330
I2
sg331
I2
sasS'total_cqs'
p336
I49
ssI30
(dp337
S'iters'
p338
I1
sS'meta'
p339
(lp340
(dp341
S'objective'
p342
I1
sS'query_time'
p343
F0.6531579494476318
sS'comp_time'
p344
F0.029552698135375977
sS'exec_cq'
p345
I2
sS'total_cq'
p346
I2
sasS'total_cqs'
p347
I2
ssI31
(dp348
S'iters'
p349
I0
sS'meta'
p350
(lp351
sS'total_cqs'
p352
I1
ssI32
(dp353
S'iters'
p354
I1
sS'meta'
p355
(lp356
(dp357
S'objective'
p358
I1
sS'query_time'
p359
F0.008143901824951172
sS'comp_time'
p360
F0.00026917457580566406
sS'exec_cq'
p361
I2
sS'total_cq'
p362
I2
sasS'total_cqs'
p363
I2
ssI33
(dp364
S'iters'
p365
I5
sS'meta'
p366
(lp367
(dp368
S'objective'
p369
I3964
sS'query_time'
p370
F14.596643924713135
sS'comp_time'
p371
F0.12552499771118164
sS'exec_cq'
p372
I103
sS'total_cq'
p373
I103
sa(dp374
g369
I4
sg370
F0.007417917251586914
sg371
F0.03906512260437012
sg372
I16
sg373
I16
sa(dp375
g369
I8
sg370
F0.003265857696533203
sg371
F0.013215065002441406
sg372
I8
sg373
I8
sa(dp376
g369
I7
sg370
F0.0010149478912353516
sg371
F0.005087137222290039
sg372
I4
sg373
I4
sa(dp377
g369
I20
sg370
F0.00028204917907714844
sg371
F0.0015821456909179688
sg372
I3
sg373
I3
sasS'total_cqs'
p378
I103
ssI34
(dp379
S'iters'
p380
I1
sS'meta'
p381
(lp382
(dp383
S'objective'
p384
I1
sS'query_time'
p385
F0.020437002182006836
sS'comp_time'
p386
F0.0004780292510986328
sS'exec_cq'
p387
I2
sS'total_cq'
p388
I2
sasS'total_cqs'
p389
I2
ssI35
(dp390
S'iters'
p391
I16
sS'meta'
p392
(lp393
(dp394
S'objective'
p395
I2353
sS'query_time'
p396
F47.34618091583252
sS'comp_time'
p397
F3.814595937728882
sS'exec_cq'
p398
I70
sS'total_cq'
p399
I70
sa(dp400
g395
I2289
sg396
F0.83321213722229
sg397
F3.3260231018066406
sg398
I69
sg399
I69
sa(dp401
g395
I2152
sg396
F0.00024700164794921875
sg397
F0.053442955017089844
sg398
I68
sg399
I68
sa(dp402
g395
I2193
sg396
F0.00020313262939453125
sg397
F0.053240060806274414
sg398
I65
sg399
I65
sa(dp403
g395
I2189
sg396
F0.00024390220642089844
sg397
F0.05109882354736328
sg398
I64
sg399
I64
sa(dp404
g395
I2180
sg396
F0.00022602081298828125
sg397
F0.03986215591430664
sg398
I63
sg399
I63
sa(dp405
g395
I1973
sg396
F0.24705886840820312
sg397
F0.23386502265930176
sg398
I62
sg399
I62
sa(dp406
g395
I1715
sg396
F0.050952911376953125
sg397
F0.042732954025268555
sg398
I60
sg399
I60
sa(dp407
g395
I1655
sg396
F0.04662919044494629
sg397
F0.03326702117919922
sg398
I56
sg399
I56
sa(dp408
g395
I1443
sg396
F0.2801508903503418
sg397
F0.22945809364318848
sg398
I54
sg399
I54
sa(dp409
g395
I1490
sg396
F0.2693138122558594
sg397
F0.2156670093536377
sg398
I50
sg399
I50
sa(dp410
g395
I1398
sg396
F0.2428731918334961
sg397
F0.21155810356140137
sg398
I49
sg399
I49
sa(dp411
g395
I1350
sg396
F0.0935051441192627
sg397
F0.031770944595336914
sg398
I47
sg399
I47
sa(dp412
g395
I1228
sg396
F0.4236171245574951
sg397
F0.17868518829345703
sg398
I45
sg399
I45
sa(dp413
g395
I6
sg396
F0.3983941078186035
sg397
F0.027275800704956055
sg398
I3
sg399
I3
sa(dp414
g395
I29
sg396
F0.008083820343017578
sg397
F0.008198022842407227
sg398
I2
sg399
I2
sasS'total_cqs'
p415
I70
ssI36
(dp416
S'iters'
p417
I4
sS'meta'
p418
(lp419
(dp420
S'objective'
p421
I391
sS'query_time'
p422
F0.7657561302185059
sS'comp_time'
p423
F0.026524066925048828
sS'exec_cq'
p424
I33
sS'total_cq'
p425
I33
sa(dp426
g421
I352
sg422
F0.0040950775146484375
sg423
F0.020160913467407227
sg424
I29
sg425
I29
sa(dp427
g421
I352
sg422
F0.0014040470123291016
sg423
F0.007180213928222656
sg424
I25
sg425
I25
sa(dp428
g421
I347
sg422
F0.000965118408203125
sg423
F0.004742860794067383
sg424
I24
sg425
I24
sasS'total_cqs'
p429
I33
ssI37
(dp430
S'iters'
p431
I1
sS'meta'
p432
(lp433
(dp434
S'objective'
p435
I1
sS'query_time'
p436
F0.00872492790222168
sS'comp_time'
p437
F0.00028204917907714844
sS'exec_cq'
p438
I2
sS'total_cq'
p439
I2
sasS'total_cqs'
p440
I2
ssI38
(dp441
S'iters'
p442
I2
sS'meta'
p443
(lp444
(dp445
S'objective'
p446
I0
sS'query_time'
p447
F0.026653051376342773
sS'comp_time'
p448
F0.0005762577056884766
sS'exec_cq'
p449
I4
sS'total_cq'
p450
I4
sa(dp451
g446
I1
sg447
F8.106231689453125e-05
sg448
F0.0003857612609863281
sg449
I2
sg450
I2
sasS'total_cqs'
p452
I4
ssI39
(dp453
S'iters'
p454
I2
sS'meta'
p455
(lp456
(dp457
S'objective'
p458
I746
sS'query_time'
p459
F0.19252896308898926
sS'comp_time'
p460
F0.0013701915740966797
sS'exec_cq'
p461
I44
sS'total_cq'
p462
I44
sa(dp463
g458
I822
sg459
F0.00026988983154296875
sg460
F0.004967927932739258
sg461
I37
sg462
I37
sasS'total_cqs'
p464
I44
ssI40
(dp465
S'iters'
p466
I1
sS'meta'
p467
(lp468
(dp469
S'objective'
p470
I18
sS'query_time'
p471
F0.04251408576965332
sS'comp_time'
p472
F7.987022399902344e-05
sS'exec_cq'
p473
I7
sS'total_cq'
p474
I7
sasS'total_cqs'
p475
I7
ssI41
(dp476
S'iters'
p477
I1
sS'meta'
p478
(lp479
(dp480
S'objective'
p481
I64
sS'query_time'
p482
F0.07225799560546875
sS'comp_time'
p483
F0.00015306472778320312
sS'exec_cq'
p484
I12
sS'total_cq'
p485
I12
sasS'total_cqs'
p486
I12
ssI42
(dp487
S'iters'
p488
I2
sS'meta'
p489
(lp490
(dp491
S'objective'
p492
I797
sS'query_time'
p493
F0.13201904296875
sS'comp_time'
p494
F0.00019216537475585938
sS'exec_cq'
p495
I41
sS'total_cq'
p496
I41
sa(dp497
g492
I785
sg493
F0.0001609325408935547
sg494
F0.00011086463928222656
sg495
I40
sg496
I40
sasS'total_cqs'
p498
I41
ssI43
(dp499
S'iters'
p500
I1
sS'meta'
p501
(lp502
(dp503
S'objective'
p504
I18
sS'query_time'
p505
F0.02990412712097168
sS'comp_time'
p506
F9.989738464355469e-05
sS'exec_cq'
p507
I7
sS'total_cq'
p508
I7
sasS'total_cqs'
p509
I7
ssI44
(dp510
S'iters'
p511
I4
sS'meta'
p512
(lp513
(dp514
S'objective'
p515
I776
sS'query_time'
p516
F0.21031808853149414
sS'comp_time'
p517
F0.0013110637664794922
sS'exec_cq'
p518
I47
sS'total_cq'
p519
I47
sa(dp520
g515
I790
sg516
F0.00029206275939941406
sg517
F0.0009531974792480469
sg518
I40
sg519
I40
sa(dp521
g515
I1
sg516
F0.004003047943115234
sg517
F0.0006661415100097656
sg518
I3
sg519
I3
sa(dp522
g515
I9
sg516
F0.00011205673217773438
sg517
F0.0005769729614257812
sg518
I2
sg519
I2
sasS'total_cqs'
p523
I47
ssI45
(dp524
S'iters'
p525
I0
sS'meta'
p526
(lp527
sS'total_cqs'
p528
I1
ssI46
(dp529
S'iters'
p530
I1
sS'meta'
p531
(lp532
(dp533
S'objective'
p534
I13
sS'query_time'
p535
F0.033616065979003906
sS'comp_time'
p536
F0.0002789497375488281
sS'exec_cq'
p537
I6
sS'total_cq'
p538
I6
sasS'total_cqs'
p539
I6
ssI47
(dp540
S'iters'
p541
I1
sS'meta'
p542
(lp543
(dp544
S'objective'
p545
I1
sS'query_time'
p546
F0.009264945983886719
sS'comp_time'
p547
F0.0006291866302490234
sS'exec_cq'
p548
I2
sS'total_cq'
p549
I2
sasS'total_cqs'
p550
I2
ssI48
(dp551
S'iters'
p552
I0
sS'meta'
p553
(lp554
sS'total_cqs'
p555
I1
ssI49
(dp556
S'iters'
p557
I0
sS'meta'
p558
(lp559
sS'total_cqs'
p560
I1
ssI50
(dp561
S'iters'
p562
I2
sS'meta'
p563
(lp564
(dp565
S'objective'
p566
I5
sS'query_time'
p567
F0.016206979751586914
sS'comp_time'
p568
F0.0001308917999267578
sS'exec_cq'
p569
I5
sS'total_cq'
p570
I5
sa(dp571
g566
I2
sg567
F2.8848648071289062e-05
sg568
F8.487701416015625e-05
sg569
I4
sg570
I4
sasS'total_cqs'
p572
I5
ssI51
(dp573
S'iters'
p574
I1
sS'meta'
p575
(lp576
(dp577
S'objective'
p578
I1
sS'query_time'
p579
F0.013358831405639648
sS'comp_time'
p580
F0.0001480579376220703
sS'exec_cq'
p581
I2
sS'total_cq'
p582
I2
sasS'total_cqs'
p583
I2
ssI52
(dp584
S'iters'
p585
I1
sS'meta'
p586
(lp587
(dp588
S'objective'
p589
I1
sS'query_time'
p590
F0.011083126068115234
sS'comp_time'
p591
F0.00018405914306640625
sS'exec_cq'
p592
I2
sS'total_cq'
p593
I2
sasS'total_cqs'
p594
I2
ssI53
(dp595
S'iters'
p596
I2
sS'meta'
p597
(lp598
(dp599
S'objective'
p600
I2
sS'query_time'
p601
F0.0336308479309082
sS'comp_time'
p602
F0.0005710124969482422
sS'exec_cq'
p603
I4
sS'total_cq'
p604
I4
sa(dp605
g600
I0
sg601
F6.985664367675781e-05
sg602
F0.0003600120544433594
sg603
I3
sg604
I3
sasS'total_cqs'
p606
I4
ssI54
(dp607
S'iters'
p608
I1
sS'meta'
p609
(lp610
(dp611
S'objective'
p612
I0
sS'query_time'
p613
F0.012158870697021484
sS'comp_time'
p614
F0.0002598762512207031
sS'exec_cq'
p615
I3
sS'total_cq'
p616
I3
sasS'total_cqs'
p617
I3
ssI55
(dp618
S'iters'
p619
I8
sS'meta'
p620
(lp621
(dp622
S'objective'
p623
I4513
sS'query_time'
p624
F2.4435198307037354
sS'comp_time'
p625
F0.035887956619262695
sS'exec_cq'
p626
I109
sS'total_cq'
p627
I109
sa(dp628
g623
I4638
sg624
F0.0007340908050537109
sg625
F0.0015180110931396484
sg626
I97
sg627
I97
sa(dp629
g623
I4390
sg624
F0.0002849102020263672
sg625
F0.0007970333099365234
sg626
I91
sg627
I91
sa(dp630
g623
I4332
sg624
F0.00028896331787109375
sg625
F0.0007312297821044922
sg626
I87
sg627
I87
sa(dp631
g623
I4270
sg624
F0.0002601146697998047
sg625
F0.0007452964782714844
sg626
I85
sg627
I85
sa(dp632
g623
I4237
sg624
F0.00024890899658203125
sg625
F0.0005548000335693359
sg626
I83
sg627
I83
sa(dp633
g623
I4183
sg624
F0.00022292137145996094
sg625
F0.00042700767517089844
sg626
I81
sg627
I81
sa(dp634
g623
I4135
sg624
F0.0002129077911376953
sg625
F0.0003838539123535156
sg626
I80
sg627
I80
sasS'total_cqs'
p635
I109
ssI56
(dp636
S'iters'
p637
I5
sS'meta'
p638
(lp639
(dp640
S'objective'
p641
I1626
sS'query_time'
p642
F3.307446002960205
sS'comp_time'
p643
F0.13545489311218262
sS'exec_cq'
p644
I76
sS'total_cq'
p645
I76
sa(dp646
g641
I4
sg642
F0.005612850189208984
sg643
F0.009573936462402344
sg644
I16
sg645
I16
sa(dp647
g641
I7
sg642
F0.0023779869079589844
sg643
F0.006700038909912109
sg644
I8
sg645
I8
sa(dp648
g641
I10
sg642
F0.0011858940124511719
sg643
F0.0040607452392578125
sg644
I5
sg645
I5
sa(dp649
g641
I7
sg642
F0.00014090538024902344
sg643
F0.0007660388946533203
sg644
I2
sg645
I2
sasS'total_cqs'
p650
I76
ssI57
(dp651
S'iters'
p652
I6
sS'meta'
p653
(lp654
(dp655
S'objective'
p656
I178
sS'query_time'
p657
F68.30241990089417
sS'comp_time'
p658
F3.495147705078125
sS'exec_cq'
p659
I51
sS'total_cq'
p660
I51
sa(dp661
g656
I86
sg657
F0.013584136962890625
sg658
F0.0300600528717041
sg659
I27
sg660
I27
sa(dp662
g656
I39
sg657
F0.0020868778228759766
sg658
F0.005809783935546875
sg659
I13
sg660
I13
sa(dp663
g656
I7
sg657
F0.0014081001281738281
sg658
F0.004181861877441406
sg659
I6
sg660
I6
sa(dp664
g656
I14
sg657
F0.0009000301361083984
sg658
F0.0026252269744873047
sg659
I3
sg660
I3
sa(dp665
g656
I26
sg657
F0.00045108795166015625
sg658
F0.0023272037506103516
sg659
I2
sg660
I2
sasS'total_cqs'
p666
I51
ssI58
(dp667
S'iters'
p668
I9
sS'meta'
p669
(lp670
(dp671
S'objective'
p672
I86627
sS'query_time'
p673
F291.0330970287323
sS'comp_time'
p674
F16.671371936798096
sS'exec_cq'
p675
I486
sS'total_cq'
p676
I486
sa(dp677
g672
I11033
sg673
F0.03542590141296387
sg674
F0.19092535972595215
sg675
I64
sg676
I64
sa(dp678
g672
I2919
sg673
F0.027171850204467773
sg674
F0.8895039558410645
sg675
I52
sg676
I52
sa(dp679
g672
I620
sg673
F0.01813197135925293
sg674
F0.09555912017822266
sg675
I32
sg676
I32
sa(dp680
g672
I683
sg673
F0.008785009384155273
sg674
F0.3828718662261963
sg675
I16
sg676
I16
sa(dp681
g672
I38
sg673
F0.005198001861572266
sg674
F0.0314178466796875
sg675
I11
sg676
I11
sa(dp682
g672
I672
sg673
F0.0026159286499023438
sg674
F0.013190031051635742
sg675
I6
sg676
I6
sa(dp683
g672
I143
sg673
F0.0019049644470214844
sg674
F0.020135879516601562
sg675
I4
sg676
I4
sa(dp684
g672
I74
sg673
F0.0017049312591552734
sg674
F0.004617929458618164
sg675
I2
sg676
I2
sasS'total_cqs'
p685
I486
ssI59
(dp686
S'iters'
p687
I2
sS'meta'
p688
(lp689
(dp690
S'objective'
p691
I14
sS'query_time'
p692
F0.07355403900146484
sS'comp_time'
p693
F0.0012137889862060547
sS'exec_cq'
p694
I7
sS'total_cq'
p695
I7
sa(dp696
g691
I3
sg692
F0.0001461505889892578
sg693
F0.0006780624389648438
sg694
I2
sg695
I2
sasS'total_cqs'
p697
I7
ssI60
(dp698
S'iters'
p699
I2
sS'meta'
p700
(lp701
(dp702
S'objective'
p703
I5
sS'query_time'
p704
F0.02067399024963379
sS'comp_time'
p705
F0.00038313865661621094
sS'exec_cq'
p706
I5
sS'total_cq'
p707
I5
sa(dp708
g703
I2
sg704
F3.409385681152344e-05
sg705
F9.202957153320312e-05
sg706
I4
sg707
I4
sasS'total_cqs'
p709
I5
ssI61
(dp710
S'iters'
p711
I0
sS'meta'
p712
(lp713
sS'total_cqs'
p714
I1
ssI62
(dp715
S'iters'
p716
I3
sS'meta'
p717
(lp718
(dp719
S'objective'
p720
I16
sS'query_time'
p721
F0.03827095031738281
sS'comp_time'
p722
F0.0002040863037109375
sS'exec_cq'
p723
I12
sS'total_cq'
p724
I12
sa(dp725
g720
I31
sg721
F5.1021575927734375e-05
sg722
F8.273124694824219e-05
sg723
I9
sg724
I9
sa(dp726
g720
I25
sg721
F3.600120544433594e-05
sg722
F6.103515625e-05
sg723
I8
sg724
I8
sasS'total_cqs'
p727
I12
ssI63
(dp728
S'iters'
p729
I0
sS'meta'
p730
(lp731
sS'total_cqs'
p732
I1
ssI64
(dp733
S'iters'
p734
I3
sS'meta'
p735
(lp736
(dp737
S'objective'
p738
I32
sS'query_time'
p739
F0.12320804595947266
sS'comp_time'
p740
F0.0034499168395996094
sS'exec_cq'
p741
I12
sS'total_cq'
p742
I12
sa(dp743
g738
I1
sg739
F0.00010895729064941406
sg740
F0.0004107952117919922
sg741
I4
sg742
I4
sa(dp744
g738
I3
sg739
F8.416175842285156e-05
sg740
F0.0003731250762939453
sg741
I3
sg742
I3
sasS'total_cqs'
p745
I12
ssI65
(dp746
S'iters'
p747
I4
sS'meta'
p748
(lp749
(dp750
S'objective'
p751
I202
sS'query_time'
p752
F0.7935922145843506
sS'comp_time'
p753
F0.04357194900512695
sS'exec_cq'
p754
I27
sS'total_cq'
p755
I27
sa(dp756
g751
I0
sg752
F0.0015170574188232422
sg753
F0.005054950714111328
sg754
I7
sg755
I7
sa(dp757
g751
I4
sg752
F0.00016808509826660156
sg753
F0.000980377197265625
sg754
I3
sg755
I3
sa(dp758
g751
I10
sg752
F8.392333984375e-05
sg753
F0.000469207763671875
sg754
I2
sg755
I2
sasS'total_cqs'
p759
I27
ssI66
(dp760
S'iters'
p761
I0
sS'meta'
p762
(lp763
sS'total_cqs'
p764
I1
ssI67
(dp765
S'iters'
p766
I2
sS'meta'
p767
(lp768
(dp769
S'objective'
p770
I560
sS'query_time'
p771
F1.3696069717407227
sS'comp_time'
p772
F0.011443138122558594
sS'exec_cq'
p773
I35
sS'total_cq'
p774
I35
sa(dp775
g770
I3
sg771
F0.0010349750518798828
sg772
F0.005196094512939453
sg773
I2
sg774
I2
sasS'total_cqs'
p776
I35
ssI68
(dp777
S'iters'
p778
I0
sS'meta'
p779
(lp780
sS'total_cqs'
p781
I1
ssI69
(dp782
S'iters'
p783
I1
sS'meta'
p784
(lp785
(dp786
S'objective'
p787
I1272
sS'query_time'
p788
F0.20782089233398438
sS'comp_time'
p789
F0.0003299713134765625
sS'exec_cq'
p790
I51
sS'total_cq'
p791
I51
sasS'total_cqs'
p792
I51
ssI70
(dp793
S'iters'
p794
I2
sS'meta'
p795
(lp796
(dp797
S'objective'
p798
I11
sS'query_time'
p799
F0.03892803192138672
sS'comp_time'
p800
F0.0002799034118652344
sS'exec_cq'
p801
I6
sS'total_cq'
p802
I6
sa(dp803
g798
I8
sg799
F5.888938903808594e-05
sg800
F0.0001819133758544922
sg801
I5
sg802
I5
sasS'total_cqs'
p804
I6
ssI71
(dp805
S'iters'
p806
I7
sS'meta'
p807
(lp808
(dp809
S'objective'
p810
I3203
sS'query_time'
p811
F0.4014580249786377
sS'comp_time'
p812
F0.0056879520416259766
sS'exec_cq'
p813
I85
sS'total_cq'
p814
I85
sa(dp815
g810
I3133
sg811
F0.0002651214599609375
sg812
F0.0006868839263916016
sg813
I81
sg814
I81
sa(dp816
g810
I2993
sg811
F0.0002269744873046875
sg812
F0.0004930496215820312
sg813
I79
sg814
I79
sa(dp817
g810
I2865
sg811
F0.00025200843811035156
sg812
F0.00036406517028808594
sg813
I75
sg814
I75
sa(dp818
g810
I2765
sg811
F0.0001900196075439453
sg812
F0.0003170967102050781
sg813
I72
sg814
I72
sa(dp819
g810
I16
sg811
F0.002241849899291992
sg812
F0.000164031982421875
sg813
I3
sg814
I3
sa(dp820
g810
I37
sg811
F0.0045430660247802734
sg812
F0.0002040863037109375
sg813
I2
sg814
I2
sasS'total_cqs'
p821
I85
ssI72
(dp822
S'iters'
p823
I3
sS'meta'
p824
(lp825
(dp826
S'objective'
p827
I0
sS'query_time'
p828
F0.3822360038757324
sS'comp_time'
p829
F0.0027129650115966797
sS'exec_cq'
p830
I8
sS'total_cq'
p831
I8
sa(dp832
g827
I4
sg828
F9.894371032714844e-05
sg829
F0.0002899169921875
sg830
I5
sg831
I5
sa(dp833
g827
I1
sg828
F7.605552673339844e-05
sg829
F0.0002980232238769531
sg830
I3
sg831
I3
sasS'total_cqs'
p834
I8
ssI73
(dp835
S'iters'
p836
I0
sS'meta'
p837
(lp838
sS'total_cqs'
p839
I1
ssI74
(dp840
S'iters'
p841
I0
sS'meta'
p842
(lp843
sS'total_cqs'
p844
I1
ssI75
(dp845
S'iters'
p846
I2
sS'meta'
p847
(lp848
(dp849
S'objective'
p850
I5
sS'query_time'
p851
F0.022275924682617188
sS'comp_time'
p852
F0.00012969970703125
sS'exec_cq'
p853
I5
sS'total_cq'
p854
I5
sa(dp855
g850
I2
sg851
F3.0040740966796875e-05
sg852
F7.104873657226562e-05
sg853
I4
sg854
I4
sasS'total_cqs'
p856
I5
ssI76
(dp857
S'iters'
p858
I1
sS'meta'
p859
(lp860
(dp861
S'objective'
p862
I1
sS'query_time'
p863
F0.013617992401123047
sS'comp_time'
p864
F0.0003311634063720703
sS'exec_cq'
p865
I2
sS'total_cq'
p866
I2
sasS'total_cqs'
p867
I2
ssI77
(dp868
S'iters'
p869
I0
sS'meta'
p870
(lp871
sS'total_cqs'
p872
I1
ssI78
(dp873
S'iters'
p874
I0
sS'meta'
p875
(lp876
sS'total_cqs'
p877
I1
ssI103
(dp878
S'iters'
p879
I2
sS'meta'
p880
(lp881
(dp882
S'objective'
p883
I60
sS'query_time'
p884
F0.08127307891845703
sS'comp_time'
p885
F0.00016880035400390625
sS'exec_cq'
p886
I12
sS'total_cq'
p887
I12
sa(dp888
g883
I55
sg884
F6.103515625e-05
sg885
F0.00010275840759277344
sg886
I11
sg887
I11
sasS'total_cqs'
p889
I12
ssI104
(dp890
S'iters'
p891
I2
sS'meta'
p892
(lp893
(dp894
S'objective'
p895
I0
sS'query_time'
p896
F1.5577998161315918
sS'comp_time'
p897
F0.08749604225158691
sS'exec_cq'
p898
I4
sS'total_cq'
p899
I4
sa(dp900
g895
I1
sg896
F0.013168096542358398
sg897
F0.08574891090393066
sg898
I2
sg899
I2
sasS'total_cqs'
p901
I4
ssI105
(dp902
S'iters'
p903
I0
sS'meta'
p904
(lp905
sS'total_cqs'
p906
I1
ssI106
(dp907
S'iters'
p908
I1
sS'meta'
p909
(lp910
(dp911
S'objective'
p912
I4
sS'query_time'
p913
F0.025552034378051758
sS'comp_time'
p914
F8.988380432128906e-05
sS'exec_cq'
p915
I4
sS'total_cq'
p916
I4
sasS'total_cqs'
p917
I4
ssI107
(dp918
S'iters'
p919
I2
sS'meta'
p920
(lp921
(dp922
S'objective'
p923
I76
sS'query_time'
p924
F0.11632704734802246
sS'comp_time'
p925
F0.0001900196075439453
sS'exec_cq'
p926
I16
sS'total_cq'
p927
I16
sa(dp928
g923
I12
sg924
F0.0069620609283447266
sg925
F0.0001010894775390625
sg926
I3
sg927
I3
sasS'total_cqs'
p929
I16
ssI108
(dp930
S'iters'
p931
I0
sS'meta'
p932
(lp933
sS'total_cqs'
p934
I1
ss.