(dp0
I1
(dp1
S'iters'
p2
I2
sS'meta'
p3
(lp4
(dp5
S'objective'
p6
I42
sS'query_time'
p7
F0.09311604499816895
sS'comp_time'
p8
F0.021726131439208984
sS'exec_cq'
p9
I12
sS'total_cq'
p10
I12
sa(dp11
g6
I46
sg7
F5.602836608886719e-05
sg8
F0.00018858909606933594
sg9
I10
sg10
I10
sasS'total_cqs'
p12
I12
ssI2
(dp13
S'iters'
p14
I8
sS'meta'
p15
(lp16
(dp17
S'objective'
p18
I298
sS'query_time'
p19
F0.06488990783691406
sS'comp_time'
p20
F0.029378175735473633
sS'exec_cq'
p21
I14
sS'total_cq'
p22
I27
sa(dp23
g18
I222
sg19
F0.06310701370239258
sg20
F0.0006334781646728516
sg21
I13
sg22
I24
sa(dp24
g18
I208
sg19
F8.106231689453125e-05
sg20
F0.0003647804260253906
sg21
I11
sg22
I20
sa(dp25
g18
I200
sg19
F5.602836608886719e-05
sg20
F0.0002906322479248047
sg21
I9
sg22
I18
sa(dp26
g18
I188
sg19
F5.1975250244140625e-05
sg20
F0.00021338462829589844
sg21
I9
sg22
I16
sa(dp27
g18
I199
sg19
F3.814697265625e-05
sg20
F0.00017690658569335938
sg21
I7
sg22
I15
sa(dp28
g18
I170
sg19
F3.2901763916015625e-05
sg20
F0.00010633468627929688
sg21
I8
sg22
I14
sa(dp29
g18
I156
sg19
F5.0067901611328125e-05
sg20
F9.179115295410156e-05
sg21
I13
sg22
I13
sasS'total_cqs'
p30
I27
ssI3
(dp31
S'iters'
p32
I4
sS'meta'
p33
(lp34
(dp35
S'objective'
p36
I218
sS'query_time'
p37
F75.28438901901245
sS'comp_time'
p38
F0.5458431243896484
sS'exec_cq'
p39
I16
sS'total_cq'
p40
I43
sa(dp41
g36
I6
sg37
F107.55923104286194
sg38
F2.209369659423828
sg39
I14
sg40
I27
sa(dp42
g36
I6
sg37
F42.18581509590149
sg38
F0.680584192276001
sg39
I9
sg40
I13
sa(dp43
g36
I101
sg37
F11.256768941879272
sg38
F0.0013475418090820312
sg39
I6
sg40
I6
sasS'total_cqs'
p44
I43
ssI4
(dp45
S'iters'
p46
I2
sS'meta'
p47
(lp48
(dp49
S'objective'
p50
I40
sS'query_time'
p51
F5.038980007171631
sS'comp_time'
p52
F1.241689682006836
sS'exec_cq'
p53
I11
sS'total_cq'
p54
I11
sa(dp55
g50
I1
sg51
F0.24324297904968262
sg52
F1.039252758026123
sg53
I2
sg54
I2
sasS'total_cqs'
p56
I11
ssI5
(dp57
S'iters'
p58
I3
sS'meta'
p59
(lp60
(dp61
S'objective'
p62
I0
sS'query_time'
p63
F31.641056060791016
sS'comp_time'
p64
F5.071765899658203
sS'exec_cq'
p65
I8
sS'total_cq'
p66
I8
sa(dp67
g62
I0
sg63
F0.13051700592041016
sg64
F1.5117130279541016
sg65
I5
sg66
I5
sa(dp68
g62
I1
sg63
F0.008615970611572266
sg64
F0.044243812561035156
sg65
I2
sg66
I2
sasS'total_cqs'
p69
I8
ssI6
(dp70
S'iters'
p71
I4
sS'meta'
p72
(lp73
(dp74
S'objective'
p75
I45
sS'query_time'
p76
F34.367494106292725
sS'comp_time'
p77
F3.513181686401367
sS'exec_cq'
p78
I18
sS'total_cq'
p79
I18
sa(dp80
g75
I1
sg76
F0.6113748550415039
sg77
F3.4868924617767334
sg78
I7
sg79
I7
sa(dp81
g75
I7
sg76
F0.023681163787841797
sg77
F0.10678505897521973
sg78
I4
sg79
I4
sa(dp82
g75
I1
sg76
F0.18813109397888184
sg77
F0.05969810485839844
sg78
I2
sg79
I2
sasS'total_cqs'
p83
I18
ssI7
(dp84
S'iters'
p85
I3
sS'meta'
p86
(lp87
(dp88
S'objective'
p89
I1
sS'query_time'
p90
F12.404346942901611
sS'comp_time'
p91
F2.293893814086914
sS'exec_cq'
p92
I9
sS'total_cq'
p93
I9
sa(dp94
g89
I0
sg90
F0.015549898147583008
sg91
F0.3877391815185547
sg92
I5
sg93
I5
sa(dp95
g89
I1
sg90
F0.005028963088989258
sg91
F0.029430866241455078
sg92
I2
sg93
I2
sasS'total_cqs'
p96
I9
ssI8
(dp97
S'iters'
p98
I4
sS'meta'
p99
(lp100
(dp101
S'objective'
p102
I272
sS'query_time'
p103
F0.1368699073791504
sS'comp_time'
p104
F0.033243656158447266
sS'exec_cq'
p105
I14
sS'total_cq'
p106
I27
sa(dp107
g102
I211
sg103
F0.05522584915161133
sg104
F0.0006923675537109375
sg105
I13
sg106
I22
sa(dp108
g102
I246
sg103
F4.887580871582031e-05
sg104
F0.0001900196075439453
sg105
I9
sg106
I19
sa(dp109
g102
I227
sg103
F4.38690185546875e-05
sg104
F0.00011658668518066406
sg105
I10
sg106
I18
sasS'total_cqs'
p110
I27
ssI9
(dp111
S'iters'
p112
I3
sS'meta'
p113
(lp114
(dp115
S'objective'
p116
I4
sS'query_time'
p117
F0.07563495635986328
sS'comp_time'
p118
F0.0037081241607666016
sS'exec_cq'
p119
I7
sS'total_cq'
p120
I7
sa(dp121
g116
I4
sg117
F3.0040740966796875e-05
sg118
F0.0002200603485107422
sg119
I4
sg120
I4
sa(dp122
g116
I4
sg117
F1.5020370483398438e-05
sg118
F8.225440979003906e-05
sg119
I2
sg120
I2
sasS'total_cqs'
p123
I7
ssI10
(dp124
S'iters'
p125
I5
sS'meta'
p126
(lp127
(dp128
S'objective'
p129
I566
sS'query_time'
p130
F0.17655014991760254
sS'comp_time'
p131
F0.08798408508300781
sS'exec_cq'
p132
I23
sS'total_cq'
p133
I51
sa(dp134
g129
I350
sg130
F0.18603897094726562
sg131
F0.002955913543701172
sg132
I28
sg133
I39
sa(dp135
g129
I366
sg130
F0.0001811981201171875
sg131
F0.0012218952178955078
sg132
I14
sg133
I25
sa(dp136
g129
I393
sg130
F6.103515625e-05
sg131
F0.000263214111328125
sg132
I11
sg133
I21
sa(dp137
g129
I3
sg130
F0.0012500286102294922
sg131
F0.00034499168395996094
sg132
I3
sg133
I3
sasS'total_cqs'
p138
I51
ssI11
(dp139
S'iters'
p140
I5
sS'meta'
p141
(lp142
(dp143
S'objective'
p144
I1192
sS'query_time'
p145
F0.6074349880218506
sS'comp_time'
p146
F0.19207310676574707
sS'exec_cq'
p147
I63
sS'total_cq'
p148
I63
sa(dp149
g144
I1022
sg145
F0.0013401508331298828
sg146
F0.006855964660644531
sg147
I47
sg148
I47
sa(dp150
g144
I27
sg145
F0.0019850730895996094
sg146
F0.0026900768280029297
sg147
I9
sg148
I9
sa(dp151
g144
I62
sg145
F3.695487976074219e-05
sg146
F0.00017881393432617188
sg147
I4
sg148
I4
sa(dp152
g144
I31
sg145
F1.5974044799804688e-05
sg146
F8.630752563476562e-05
sg147
I2
sg148
I2
sasS'total_cqs'
p153
I63
ssI12
(dp154
S'iters'
p155
I5
sS'meta'
p156
(lp157
(dp158
S'objective'
p159
I387
sS'query_time'
p160
F0.18722200393676758
sS'comp_time'
p161
F0.07832717895507812
sS'exec_cq'
p162
I28
sS'total_cq'
p163
I50
sa(dp164
g159
I357
sg160
F0.17611098289489746
sg161
F0.0028328895568847656
sg162
I22
sg163
I33
sa(dp165
g159
I3
sg160
F0.0012950897216796875
sg161
F0.0017628669738769531
sg162
I8
sg163
I8
sa(dp166
g159
I56
sg160
F3.2901763916015625e-05
sg161
F0.00016164779663085938
sg162
I4
sg163
I4
sa(dp167
g159
I20
sg160
F1.71661376953125e-05
sg161
F9.012222290039062e-05
sg162
I2
sg163
I2
sasS'total_cqs'
p168
I50
ssI13
(dp169
S'iters'
p170
I4
sS'meta'
p171
(lp172
(dp173
S'objective'
p174
I34
sS'query_time'
p175
F0.15125298500061035
sS'comp_time'
p176
F0.0316472053527832
sS'exec_cq'
p177
I20
sS'total_cq'
p178
I20
sa(dp179
g174
I2
sg175
F0.00146484375
sg176
F0.0006852149963378906
sg177
I11
sg178
I11
sa(dp180
g174
I4
sg175
F3.1948089599609375e-05
sg176
F0.00020122528076171875
sg177
I5
sg178
I5
sa(dp181
g174
I6
sg175
F2.193450927734375e-05
sg176
F9.012222290039062e-05
sg177
I3
sg178
I3
sasS'total_cqs'
p182
I20
ssI14
(dp183
S'iters'
p184
I3
sS'meta'
p185
(lp186
(dp187
S'objective'
p188
I1
sS'query_time'
p189
F30.98958706855774
sS'comp_time'
p190
F2.1284310817718506
sS'exec_cq'
p191
I9
sS'total_cq'
p192
I9
sa(dp193
g188
I1
sg189
F0.593325138092041
sg190
F2.0765082836151123
sg191
I5
sg192
I5
sa(dp194
g188
I1
sg189
F0.2835679054260254
sg190
F1.1998610496520996
sg191
I3
sg192
I3
sasS'total_cqs'
p195
I9
ssI15
(dp196
S'iters'
p197
I3
sS'meta'
p198
(lp199
(dp200
S'objective'
p201
I0
sS'query_time'
p202
F3.7038581371307373
sS'comp_time'
p203
F0.2906777858734131
sS'exec_cq'
p204
I11
sS'total_cq'
p205
I11
sa(dp206
g201
I13
sg202
F0.0011301040649414062
sg203
F0.0059812068939208984
sg204
I6
sg205
I6
sa(dp207
g201
I4
sg202
F0.0007719993591308594
sg203
F0.005110025405883789
sg204
I2
sg205
I2
sasS'total_cqs'
p208
I11
ssI16
(dp209
S'iters'
p210
I1
sS'meta'
p211
(lp212
(dp213
S'objective'
p214
I26
sS'query_time'
p215
F0.019805192947387695
sS'comp_time'
p216
F0.004232883453369141
sS'exec_cq'
p217
I8
sS'total_cq'
p218
I8
sasS'total_cqs'
p219
I8
ssI17
(dp220
S'iters'
p221
I4
sS'meta'
p222
(lp223
(dp224
S'objective'
p225
I0
sS'query_time'
p226
F0.9665279388427734
sS'comp_time'
p227
F0.05066037178039551
sS'exec_cq'
p228
I11
sS'total_cq'
p229
I11
sa(dp230
g225
I13
sg226
F0.00018286705017089844
sg227
F0.0012466907501220703
sg228
I6
sg229
I6
sa(dp231
g225
I5
sg226
F0.0001361370086669922
sg227
F0.000885009765625
sg228
I5
sg229
I5
sa(dp232
g225
I5
sg226
F0.0001380443572998047
sg227
F0.0009741783142089844
sg228
I2
sg229
I2
sasS'total_cqs'
p233
I11
ssI18
(dp234
S'iters'
p235
I2
sS'meta'
p236
(lp237
(dp238
S'objective'
p239
I48
sS'query_time'
p240
F0.22114086151123047
sS'comp_time'
p241
F0.026291847229003906
sS'exec_cq'
p242
I11
sS'total_cq'
p243
I11
sa(dp244
g239
I43
sg240
F0.0014460086822509766
sg241
F0.001264333724975586
sg242
I10
sg243
I10
sasS'total_cqs'
p245
I11
ssI22
(dp246
S'iters'
p247
I1
sS'meta'
p248
(lp249
(dp250
S'objective'
p251
I151
sS'query_time'
p252
F0.09282803535461426
sS'comp_time'
p253
F0.03727912902832031
sS'exec_cq'
p254
I18
sS'total_cq'
p255
I18
sasS'total_cqs'
p256
I18
ssI23
(dp257
S'iters'
p258
I1
sS'meta'
p259
(lp260
(dp261
S'objective'
p262
I118
sS'query_time'
p263
F0.04681682586669922
sS'comp_time'
p264
F0.02984905242919922
sS'exec_cq'
p265
I8
sS'total_cq'
p266
I16
sasS'total_cqs'
p267
I16
ssI26
(dp268
S'iters'
p269
I1
sS'meta'
p270
(lp271
(dp272
S'objective'
p273
I859
sS'query_time'
p274
F0.11302304267883301
sS'comp_time'
p275
F0.11037325859069824
sS'exec_cq'
p276
I42
sS'total_cq'
p277
I42
sasS'total_cqs'
p278
I42
ssI27
(dp279
S'iters'
p280
I4
sS'meta'
p281
(lp282
(dp283
S'objective'
p284
I313
sS'query_time'
p285
F21.011662006378174
sS'comp_time'
p286
F3.429123878479004
sS'exec_cq'
p287
I30
sS'total_cq'
p288
I30
sa(dp289
g284
I305
sg285
F0.3813199996948242
sg286
F2.37141489982605
sg287
I27
sg288
I27
sa(dp290
g284
I4
sg285
F0.6373488903045654
sg286
F2.9843509197235107
sg287
I4
sg288
I4
sa(dp291
g284
I13
sg285
F0.010705947875976562
sg286
F0.33437108993530273
sg287
I2
sg288
I2
sasS'total_cqs'
p292
I30
ssI29
(dp293
S'iters'
p294
I6
sS'meta'
p295
(lp296
(dp297
S'objective'
p298
I325
sS'query_time'
p299
F25.695816040039062
sS'comp_time'
p300
F0.6915414333343506
sS'exec_cq'
p301
I35
sS'total_cq'
p302
I49
sa(dp303
g298
I14
sg299
F0.022611141204833984
sg300
F0.17598676681518555
sg301
I17
sg302
I17
sa(dp304
g298
I0
sg299
F0.0016150474548339844
sg300
F0.006788969039916992
sg301
I9
sg302
I9
sa(dp305
g298
I16
sg299
F0.0007290840148925781
sg300
F0.004108905792236328
sg301
I5
sg302
I5
sa(dp306
g298
I6
sg299
F0.0005578994750976562
sg300
F0.0036170482635498047
sg301
I3
sg302
I3
sa(dp307
g298
I22
sg299
F0.0006210803985595703
sg300
F0.0035097599029541016
sg301
I2
sg302
I2
sasS'total_cqs'
p308
I49
ssI30
(dp309
S'iters'
p310
I1
sS'meta'
p311
(lp312
(dp313
S'objective'
p314
I1
sS'query_time'
p315
F0.7132258415222168
sS'comp_time'
p316
F0.04393577575683594
sS'exec_cq'
p317
I2
sS'total_cq'
p318
I2
sasS'total_cqs'
p319
I2
ssI32
(dp320
S'iters'
p321
I1
sS'meta'
p322
(lp323
(dp324
S'objective'
p325
I1
sS'query_time'
p326
F0.009739875793457031
sS'comp_time'
p327
F0.0016179084777832031
sS'exec_cq'
p328
I2
sS'total_cq'
p329
I2
sasS'total_cqs'
p330
I2
ssI33
(dp331
S'iters'
p332
I5
sS'meta'
p333
(lp334
(dp335
S'objective'
p336
I3470
sS'query_time'
p337
F15.525777816772461
sS'comp_time'
p338
F0.9886689186096191
sS'exec_cq'
p339
I103
sS'total_cq'
p340
I103
sa(dp341
g336
I45
sg337
F0.012163877487182617
sg338
F0.03656959533691406
sg339
I16
sg340
I16
sa(dp342
g336
I7
sg337
F0.0022649765014648438
sg338
F0.13426995277404785
sg339
I7
sg340
I7
sa(dp343
g336
I35
sg337
F0.0007281303405761719
sg338
F0.0035512447357177734
sg339
I3
sg340
I3
sa(dp344
g336
I22
sg337
F0.0004630088806152344
sg338
F0.0028378963470458984
sg339
I2
sg340
I2
sasS'total_cqs'
p345
I103
ssI34
(dp346
S'iters'
p347
I1
sS'meta'
p348
(lp349
(dp350
S'objective'
p351
I1
sS'query_time'
p352
F0.029568910598754883
sS'comp_time'
p353
F0.0023081302642822266
sS'exec_cq'
p354
I2
sS'total_cq'
p355
I2
sasS'total_cqs'
p356
I2
ssI35
(dp357
S'iters'
p358
I5
sS'meta'
p359
(lp360
(dp361
S'objective'
p362
I1473
sS'query_time'
p363
F22.51840591430664
sS'comp_time'
p364
F0.2542397975921631
sS'exec_cq'
p365
I50
sS'total_cq'
p366
I70
sa(dp367
g362
I46
sg363
F0.005875825881958008
sg364
F0.3360416889190674
sg365
I16
sg366
I16
sa(dp368
g362
I32
sg363
F0.0027909278869628906
sg364
F0.009885787963867188
sg365
I10
sg366
I10
sa(dp369
g362
I0
sg363
F0.0016579627990722656
sg364
F0.006329774856567383
sg365
I5
sg366
I5
sa(dp370
g362
I5
sg363
F0.0012140274047851562
sg364
F0.0057561397552490234
sg365
I3
sg366
I3
sasS'total_cqs'
p371
I70
ssI36
(dp372
S'iters'
p373
I2
sS'meta'
p374
(lp375
(dp376
S'objective'
p377
I427
sS'query_time'
p378
F0.830833911895752
sS'comp_time'
p379
F0.08450603485107422
sS'exec_cq'
p380
I33
sS'total_cq'
p381
I33
sa(dp382
g377
I458
sg378
F0.004538059234619141
sg379
F0.00529789924621582
sg380
I28
sg381
I29
sasS'total_cqs'
p383
I33
ssI37
(dp384
S'iters'
p385
I1
sS'meta'
p386
(lp387
(dp388
S'objective'
p389
I1
sS'query_time'
p390
F0.011806011199951172
sS'comp_time'
p391
F0.002470731735229492
sS'exec_cq'
p392
I2
sS'total_cq'
p393
I2
sasS'total_cqs'
p394
I2
ssI38
(dp395
S'iters'
p396
I2
sS'meta'
p397
(lp398
(dp399
S'objective'
p400
I0
sS'query_time'
p401
F0.029783964157104492
sS'comp_time'
p402
F0.003111124038696289
sS'exec_cq'
p403
I4
sS'total_cq'
p404
I4
sa(dp405
g400
I1
sg401
F7.700920104980469e-05
sg402
F0.0004918575286865234
sg403
I2
sg404
I2
sasS'total_cqs'
p406
I4
ssI39
(dp407
S'iters'
p408
I2
sS'meta'
p409
(lp410
(dp411
S'objective'
p412
I652
sS'query_time'
p413
F0.3347129821777344
sS'comp_time'
p414
F0.08052992820739746
sS'exec_cq'
p415
I44
sS'total_cq'
p416
I44
sa(dp417
g412
I775
sg413
F0.0004100799560546875
sg414
F0.0054378509521484375
sg415
I37
sg416
I37
sasS'total_cqs'
p418
I44
ssI40
(dp419
S'iters'
p420
I1
sS'meta'
p421
(lp422
(dp423
S'objective'
p424
I18
sS'query_time'
p425
F0.055045127868652344
sS'comp_time'
p426
F0.0058858394622802734
sS'exec_cq'
p427
I7
sS'total_cq'
p428
I7
sasS'total_cqs'
p429
I7
ssI41
(dp430
S'iters'
p431
I2
sS'meta'
p432
(lp433
(dp434
S'objective'
p435
I58
sS'query_time'
p436
F0.06972885131835938
sS'comp_time'
p437
F0.016245126724243164
sS'exec_cq'
p438
I12
sS'total_cq'
p439
I12
sa(dp440
g435
I54
sg436
F6.508827209472656e-05
sg437
F0.00020194053649902344
sg438
I11
sg439
I11
sasS'total_cqs'
p441
I12
ssI42
(dp442
S'iters'
p443
I2
sS'meta'
p444
(lp445
(dp446
S'objective'
p447
I809
sS'query_time'
p448
F0.06188511848449707
sS'comp_time'
p449
F0.13377118110656738
sS'exec_cq'
p450
I21
sS'total_cq'
p451
I41
sa(dp452
g447
I791
sg448
F7.987022399902344e-05
sg449
F0.0001881122589111328
sg450
I20
sg451
I40
sasS'total_cqs'
p453
I41
ssI43
(dp454
S'iters'
p455
I1
sS'meta'
p456
(lp457
(dp458
S'objective'
p459
I18
sS'query_time'
p460
F0.02579188346862793
sS'comp_time'
p461
F0.0057070255279541016
sS'exec_cq'
p462
I7
sS'total_cq'
p463
I7
sasS'total_cqs'
p464
I7
ssI44
(dp465
S'iters'
p466
I4
sS'meta'
p467
(lp468
(dp469
S'objective'
p470
I772
sS'query_time'
p471
F0.17066097259521484
sS'comp_time'
p472
F0.16125130653381348
sS'exec_cq'
p473
I47
sS'total_cq'
p474
I47
sa(dp475
g470
I814
sg471
F0.0003211498260498047
sg472
F0.0016946792602539062
sg473
I40
sg474
I40
sa(dp476
g470
I16
sg471
F0.0019178390502929688
sg472
F0.0021255016326904297
sg473
I3
sg474
I3
sa(dp477
g470
I24
sg471
F2.4080276489257812e-05
sg472
F0.00013589859008789062
sg473
I2
sg474
I2
sasS'total_cqs'
p478
I47
ssI46
(dp479
S'iters'
p480
I2
sS'meta'
p481
(lp482
(dp483
S'objective'
p484
I9
sS'query_time'
p485
F0.07356381416320801
sS'comp_time'
p486
F0.002777099609375
sS'exec_cq'
p487
I4
sS'total_cq'
p488
I6
sa(dp489
g484
I7
sg485
F2.47955322265625e-05
sg486
F0.00010728836059570312
sg487
I3
sg488
I5
sasS'total_cqs'
p490
I6
ssI47
(dp491
S'iters'
p492
I1
sS'meta'
p493
(lp494
(dp495
S'objective'
p496
I1
sS'query_time'
p497
F0.01219797134399414
sS'comp_time'
p498
F0.001291513442993164
sS'exec_cq'
p499
I2
sS'total_cq'
p500
I2
sasS'total_cqs'
p501
I2
ssI50
(dp502
S'iters'
p503
I2
sS'meta'
p504
(lp505
(dp506
S'objective'
p507
I5
sS'query_time'
p508
F0.01339101791381836
sS'comp_time'
p509
F0.002218008041381836
sS'exec_cq'
p510
I5
sS'total_cq'
p511
I5
sa(dp512
g507
I2
sg508
F3.0040740966796875e-05
sg509
F0.0001327991485595703
sg510
I4
sg511
I4
sasS'total_cqs'
p513
I5
ssI51
(dp514
S'iters'
p515
I1
sS'meta'
p516
(lp517
(dp518
S'objective'
p519
I1
sS'query_time'
p520
F0.011305093765258789
sS'comp_time'
p521
F0.0010943412780761719
sS'exec_cq'
p522
I2
sS'total_cq'
p523
I2
sasS'total_cqs'
p524
I2
ssI52
(dp525
S'iters'
p526
I1
sS'meta'
p527
(lp528
(dp529
S'objective'
p530
I1
sS'query_time'
p531
F0.009096860885620117
sS'comp_time'
p532
F0.0012478828430175781
sS'exec_cq'
p533
I2
sS'total_cq'
p534
I2
sasS'total_cqs'
p535
I2
ssI53
(dp536
S'iters'
p537
I2
sS'meta'
p538
(lp539
(dp540
S'objective'
p541
I2
sS'query_time'
p542
F0.020442962646484375
sS'comp_time'
p543
F0.003973960876464844
sS'exec_cq'
p544
I4
sS'total_cq'
p545
I4
sa(dp546
g541
I0
sg542
F6.890296936035156e-05
sg543
F0.00046515464782714844
sg544
I3
sg545
I3
sasS'total_cqs'
p547
I4
ssI54
(dp548
S'iters'
p549
I1
sS'meta'
p550
(lp551
(dp552
S'objective'
p553
I0
sS'query_time'
p554
F0.022895097732543945
sS'comp_time'
p555
F0.002140045166015625
sS'exec_cq'
p556
I3
sS'total_cq'
p557
I3
sasS'total_cqs'
p558
I3
ssI55
(dp559
S'iters'
p560
I8
sS'meta'
p561
(lp562
(dp563
S'objective'
p564
I4565
sS'query_time'
p565
F2.2168240547180176
sS'comp_time'
p566
F0.7381110191345215
sS'exec_cq'
p567
I109
sS'total_cq'
p568
I109
sa(dp569
g564
I4808
sg565
F0.000701904296875
sg566
F0.003103017807006836
sg567
I97
sg568
I97
sa(dp570
g564
I4632
sg565
F0.0003018379211425781
sg566
F0.0015826225280761719
sg567
I91
sg568
I91
sa(dp571
g564
I4528
sg565
F0.00031495094299316406
sg566
F0.0013208389282226562
sg567
I87
sg568
I87
sa(dp572
g564
I4451
sg565
F0.000270843505859375
sg566
F0.0009531974792480469
sg567
I85
sg568
I85
sa(dp573
g564
I4355
sg565
F0.00024700164794921875
sg566
F0.0007658004760742188
sg567
I83
sg568
I83
sa(dp574
g564
I4285
sg565
F0.0002429485321044922
sg566
F0.000682830810546875
sg567
I81
sg568
I81
sa(dp575
g564
I4261
sg565
F0.0002491474151611328
sg566
F0.0006279945373535156
sg567
I80
sg568
I80
sasS'total_cqs'
p576
I109
ssI56
(dp577
S'iters'
p578
I5
sS'meta'
p579
(lp580
(dp581
S'objective'
p582
I1876
sS'query_time'
p583
F1.8794989585876465
sS'comp_time'
p584
F0.22385406494140625
sS'exec_cq'
p585
I67
sS'total_cq'
p586
I76
sa(dp587
g582
I11
sg583
F0.009190082550048828
sg584
F0.020613670349121094
sg585
I16
sg586
I16
sa(dp588
g582
I4
sg583
F0.004358053207397461
sg584
F0.012730121612548828
sg585
I9
sg586
I9
sa(dp589
g582
I14
sg583
F0.0005979537963867188
sg584
F0.003998756408691406
sg585
I3
sg586
I3
sa(dp590
g582
I19
sg583
F0.00021791458129882812
sg584
F0.0013971328735351562
sg585
I2
sg586
I2
sasS'total_cqs'
p591
I76
ssI57
(dp592
S'iters'
p593
I6
sS'meta'
p594
(lp595
(dp596
S'objective'
p597
I154
sS'query_time'
p598
F23.0990891456604
sS'comp_time'
p599
F0.4627821445465088
sS'exec_cq'
p600
I45
sS'total_cq'
p601
I51
sa(dp602
g597
I10
sg598
F0.016222000122070312
sg599
F0.0361788272857666
sg600
I27
sg601
I27
sa(dp603
g597
I33
sg598
F0.0027129650115966797
sg599
F0.008187294006347656
sg600
I13
sg601
I13
sa(dp604
g597
I11
sg598
F0.0018901824951171875
sg599
F0.005377054214477539
sg600
I6
sg601
I6
sa(dp605
g597
I18
sg598
F0.0005431175231933594
sg599
F0.0031280517578125
sg600
I4
sg601
I4
sa(dp606
g597
I5
sg598
F0.0004630088806152344
sg599
F0.0030107498168945312
sg600
I2
sg601
I2
sasS'total_cqs'
p607
I51
ssI58
(dp608
S'iters'
p609
I7
sS'meta'
p610
(lp611
(dp612
S'objective'
p613
I80749
sS'query_time'
p614
F110.119637966156
sS'comp_time'
p615
F16.955634832382202
sS'exec_cq'
p616
I348
sS'total_cq'
p617
I486
sa(dp618
g613
I84361
sg614
F0.0455629825592041
sg615
F0.20215415954589844
sg616
I276
sg617
I414
sa(dp619
g613
I400
sg614
F0.019987821578979492
sg615
F0.11652493476867676
sg616
I28
sg617
I28
sa(dp620
g613
I8
sg614
F0.01663494110107422
sg615
F0.02915358543395996
sg616
I16
sg617
I16
sa(dp621
g613
I40
sg614
F0.0041790008544921875
sg615
F0.010056018829345703
sg616
I9
sg617
I9
sa(dp622
g613
I31
sg614
F0.0022618770599365234
sg615
F0.007658720016479492
sg616
I5
sg617
I5
sa(dp623
g613
I32
sg614
F0.0005581378936767578
sg615
F0.0031244754791259766
sg616
I3
sg617
I3
sasS'total_cqs'
p624
I486
ssI59
(dp625
S'iters'
p626
I2
sS'meta'
p627
(lp628
(dp629
S'objective'
p630
I16
sS'query_time'
p631
F0.04953193664550781
sS'comp_time'
p632
F0.015949010848999023
sS'exec_cq'
p633
I7
sS'total_cq'
p634
I7
sa(dp635
g630
I4
sg631
F0.000186920166015625
sg632
F0.0012180805206298828
sg633
I2
sg634
I2
sasS'total_cqs'
p636
I7
ssI60
(dp637
S'iters'
p638
I1
sS'meta'
p639
(lp640
(dp641
S'objective'
p642
I7
sS'query_time'
p643
F0.014211893081665039
sS'comp_time'
p644
F0.003524303436279297
sS'exec_cq'
p645
I3
sS'total_cq'
p646
I5
sasS'total_cqs'
p647
I5
ssI62
(dp648
S'iters'
p649
I2
sS'meta'
p650
(lp651
(dp652
S'objective'
p653
I44
sS'query_time'
p654
F0.03594207763671875
sS'comp_time'
p655
F0.08824825286865234
sS'exec_cq'
p656
I12
sS'total_cq'
p657
I12
sa(dp658
g653
I47
sg654
F5.1021575927734375e-05
sg655
F0.0001876354217529297
sg656
I9
sg657
I9
sasS'total_cqs'
p659
I12
ssI64
(dp660
S'iters'
p661
I3
sS'meta'
p662
(lp663
(dp664
S'objective'
p665
I20
sS'query_time'
p666
F0.11677908897399902
sS'comp_time'
p667
F0.025021076202392578
sS'exec_cq'
p668
I12
sS'total_cq'
p669
I12
sa(dp670
g665
I3
sg666
F0.00010085105895996094
sg667
F0.0006122589111328125
sg668
I4
sg669
I4
sa(dp671
g665
I2
sg666
F2.288818359375e-05
sg667
F0.00013685226440429688
sg668
I2
sg669
I2
sasS'total_cqs'
p672
I12
ssI65
(dp673
S'iters'
p674
I4
sS'meta'
p675
(lp676
(dp677
S'objective'
p678
I238
sS'query_time'
p679
F0.8548429012298584
sS'comp_time'
p680
F0.22720599174499512
sS'exec_cq'
p681
I27
sS'total_cq'
p682
I27
sa(dp683
g678
I2
sg679
F0.0014498233795166016
sg680
F0.005631923675537109
sg681
I7
sg682
I7
sa(dp684
g678
I0
sg679
F0.0006458759307861328
sg680
F0.003391742706298828
sg681
I5
sg682
I5
sa(dp685
g678
I13
sg679
F0.00024008750915527344
sg680
F0.0017685890197753906
sg681
I2
sg682
I2
sasS'total_cqs'
p686
I27
ssI67
(dp687
S'iters'
p688
I2
sS'meta'
p689
(lp690
(dp691
S'objective'
p692
I538
sS'query_time'
p693
F0.8750870227813721
sS'comp_time'
p694
F0.1128547191619873
sS'exec_cq'
p695
I35
sS'total_cq'
p696
I35
sa(dp697
g692
I8
sg693
F0.0010929107666015625
sg694
F0.0071561336517333984
sg695
I2
sg696
I2
sasS'total_cqs'
p698
I35
ssI69
(dp699
S'iters'
p700
I1
sS'meta'
p701
(lp702
(dp703
S'objective'
p704
I1272
sS'query_time'
p705
F0.17095303535461426
sS'comp_time'
p706
F0.17043781280517578
sS'exec_cq'
p707
I51
sS'total_cq'
p708
I51
sasS'total_cqs'
p709
I51
ssI70
(dp710
S'iters'
p711
I3
sS'meta'
p712
(lp713
(dp714
S'objective'
p715
I9
sS'query_time'
p716
F0.016448974609375
sS'comp_time'
p717
F0.002649068832397461
sS'exec_cq'
p718
I6
sS'total_cq'
p719
I6
sa(dp720
g715
I5
sg716
F4.1961669921875e-05
sg717
F0.00021576881408691406
sg718
I5
sg719
I5
sa(dp721
g715
I2
sg716
F3.600120544433594e-05
sg717
F0.00018310546875
sg718
I4
sg719
I4
sasS'total_cqs'
p722
I6
ssI71
(dp723
S'iters'
p724
I5
sS'meta'
p725
(lp726
(dp727
S'objective'
p728
I3165
sS'query_time'
p729
F0.29125404357910156
sS'comp_time'
p730
F0.1785130500793457
sS'exec_cq'
p731
I73
sS'total_cq'
p732
I85
sa(dp733
g728
I2940
sg729
F0.00041294097900390625
sg730
F0.0016188621520996094
sg731
I69
sg732
I81
sa(dp734
g728
I2821
sg729
F0.0002918243408203125
sg730
F0.001149892807006836
sg731
I65
sg732
I77
sa(dp735
g728
I17
sg729
F0.0017268657684326172
sg730
F0.0033502578735351562
sg731
I3
sg732
I3
sa(dp736
g728
I9
sg729
F0.0029439926147460938
sg730
F0.00023794174194335938
sg731
I2
sg732
I2
sasS'total_cqs'
p737
I85
ssI72
(dp738
S'iters'
p739
I3
sS'meta'
p740
(lp741
(dp742
S'objective'
p743
I0
sS'query_time'
p744
F0.33359599113464355
sS'comp_time'
p745
F0.00696110725402832
sS'exec_cq'
p746
I4
sS'total_cq'
p747
I8
sa(dp748
g743
I2
sg744
F0.029744863510131836
sg745
F0.0004379749298095703
sg746
I4
sg747
I5
sa(dp749
g743
I2
sg744
F2.5033950805664062e-05
sg745
F0.00011992454528808594
sg746
I2
sg747
I3
sasS'total_cqs'
p750
I8
ssI75
(dp751
S'iters'
p752
I2
sS'meta'
p753
(lp754
(dp755
S'objective'
p756
I5
sS'query_time'
p757
F0.011732101440429688
sS'comp_time'
p758
F0.002234935760498047
sS'exec_cq'
p759
I5
sS'total_cq'
p760
I5
sa(dp761
g756
I2
sg757
F2.3126602172851562e-05
sg758
F8.96453857421875e-05
sg759
I4
sg760
I4
sasS'total_cqs'
p762
I5
ssI76
(dp763
S'iters'
p764
I1
sS'meta'
p765
(lp766
(dp767
S'objective'
p768
I1
sS'query_time'
p769
F0.01211404800415039
sS'comp_time'
p770
F0.0034189224243164062
sS'exec_cq'
p771
I2
sS'total_cq'
p772
I2
sasS'total_cqs'
p773
I2
ssI103
(dp774
S'iters'
p775
I1
sS'meta'
p776
(lp777
(dp778
S'objective'
p779
I64
sS'query_time'
p780
F0.06828093528747559
sS'comp_time'
p781
F0.015375137329101562
sS'exec_cq'
p782
I12
sS'total_cq'
p783
I12
sasS'total_cqs'
p784
I12
ssI104
(dp785
S'iters'
p786
I2
sS'meta'
p787
(lp788
(dp789
S'objective'
p790
I0
sS'query_time'
p791
F1.3396379947662354
sS'comp_time'
p792
F0.1917111873626709
sS'exec_cq'
p793
I4
sS'total_cq'
p794
I4
sa(dp795
g790
I1
sg791
F0.013627052307128906
sg792
F0.1594090461730957
sg793
I2
sg794
I2
sasS'total_cqs'
p796
I4
ssI106
(dp797
S'iters'
p798
I1
sS'meta'
p799
(lp800
(dp801
S'objective'
p802
I4
sS'query_time'
p803
F0.02584695816040039
sS'comp_time'
p804
F0.0022020339965820312
sS'exec_cq'
p805
I4
sS'total_cq'
p806
I4
sasS'total_cqs'
p807
I4
ssI107
(dp808
S'iters'
p809
I2
sS'meta'
p810
(lp811
(dp812
S'objective'
p813
I76
sS'query_time'
p814
F0.07193493843078613
sS'comp_time'
p815
F0.021954774856567383
sS'exec_cq'
p816
I16
sS'total_cq'
p817
I16
sa(dp818
g813
I12
sg814
F0.0058591365814208984
sg815
F0.00045800209045410156
sg816
I3
sg817
I3
sasS'total_cqs'
p819
I16
ss.