(dp0
I1
(dp1
S'iters'
p2
I4
sS'meta'
p3
(lp4
(dp5
S'objective'
p6
I58
sS'query_time'
p7
F0.04323291778564453
sS'comp_time'
p8
F0.020272016525268555
sS'exec_cq'
p9
I12
sS'total_cq'
p10
I12
sa(dp11
g6
I50
sg7
F7.82012939453125e-05
sg8
F0.00026106834411621094
sg9
I11
sg10
I11
sa(dp12
g6
I49
sg7
F3.886222839355469e-05
sg8
F0.0001308917999267578
sg9
I9
sg10
I9
sa(dp13
g6
I46
sg7
F3.0994415283203125e-05
sg8
F8.392333984375e-05
sg9
I8
sg10
I8
sasS'total_cqs'
p14
I12
ssI2
(dp15
S'iters'
p16
I8
sS'meta'
p17
(lp18
(dp19
S'objective'
p20
I274
sS'query_time'
p21
F0.08590412139892578
sS'comp_time'
p22
F0.03149557113647461
sS'exec_cq'
p23
I14
sS'total_cq'
p24
I27
sa(dp25
g20
I240
sg21
F7.295608520507812e-05
sg22
F0.00038886070251464844
sg23
I11
sg24
I24
sa(dp26
g20
I187
sg21
F0.07494711875915527
sg22
F0.0005636215209960938
sg23
I13
sg24
I22
sa(dp27
g20
I175
sg21
F7.510185241699219e-05
sg22
F0.00037384033203125
sg23
I9
sg24
I18
sa(dp28
g20
I151
sg21
F5.0067901611328125e-05
sg22
F0.00022292137145996094
sg23
I9
sg24
I16
sa(dp29
g20
I134
sg21
F4.00543212890625e-05
sg22
F0.00018668174743652344
sg23
I7
sg24
I15
sa(dp30
g20
I132
sg21
F6.794929504394531e-05
sg22
F0.0001697540283203125
sg23
I14
sg24
I14
sa(dp31
g20
I128
sg21
F5.1975250244140625e-05
sg22
F8.988380432128906e-05
sg23
I13
sg24
I13
sasS'total_cqs'
p32
I27
ssI3
(dp33
S'iters'
p34
I4
sS'meta'
p35
(lp36
(dp37
S'objective'
p38
I144
sS'query_time'
p39
F76.9679069519043
sS'comp_time'
p40
F0.6003992557525635
sS'exec_cq'
p41
I16
sS'total_cq'
p42
I43
sa(dp43
g38
I73
sg39
F107.98945593833923
sg40
F2.1917686462402344
sg41
I14
sg42
I27
sa(dp44
g38
I72
sg39
F41.56961703300476
sg40
F0.6643288135528564
sg41
I9
sg42
I13
sa(dp45
g38
I58
sg39
F11.077680826187134
sg40
F0.002719402313232422
sg41
I6
sg42
I6
sasS'total_cqs'
p46
I43
ssI4
(dp47
S'iters'
p48
I2
sS'meta'
p49
(lp50
(dp51
S'objective'
p52
I42
sS'query_time'
p53
F4.934690952301025
sS'comp_time'
p54
F0.8616580963134766
sS'exec_cq'
p55
I11
sS'total_cq'
p56
I11
sa(dp57
g52
I4
sg53
F0.20215201377868652
sg54
F0.8626220226287842
sg55
I2
sg56
I2
sasS'total_cqs'
p58
I11
ssI5
(dp59
S'iters'
p60
I4
sS'meta'
p61
(lp62
(dp63
S'objective'
p64
I0
sS'query_time'
p65
F32.506494998931885
sS'comp_time'
p66
F5.449654817581177
sS'exec_cq'
p67
I8
sS'total_cq'
p68
I8
sa(dp69
g64
I2
sg65
F0.10095405578613281
sg66
F2.2040457725524902
sg67
I4
sg68
I4
sa(dp70
g64
I0
sg65
F0.37711286544799805
sg66
F1.7220180034637451
sg67
I3
sg68
I3
sa(dp71
g64
I1
sg65
F0.36539602279663086
sg66
F1.6888351440429688
sg67
I2
sg68
I2
sasS'total_cqs'
p72
I8
ssI6
(dp73
S'iters'
p74
I5
sS'meta'
p75
(lp76
(dp77
S'objective'
p78
I41
sS'query_time'
p79
F34.700751066207886
sS'comp_time'
p80
F5.625744819641113
sS'exec_cq'
p81
I18
sS'total_cq'
p82
I18
sa(dp83
g78
I1
sg79
F0.8365468978881836
sg80
F3.5626890659332275
sg81
I7
sg82
I7
sa(dp84
g78
I2
sg79
F0.625560998916626
sg80
F3.4355835914611816
sg81
I5
sg82
I5
sa(dp85
g78
I1
sg79
F0.47506117820739746
sg80
F2.8594553470611572
sg81
I3
sg82
I3
sa(dp86
g78
I3
sg79
F0.3411850929260254
sg80
F2.0056710243225098
sg81
I2
sg82
I2
sasS'total_cqs'
p87
I18
ssI7
(dp88
S'iters'
p89
I4
sS'meta'
p90
(lp91
(dp92
S'objective'
p93
I1
sS'query_time'
p94
F12.422513008117676
sS'comp_time'
p95
F2.7815754413604736
sS'exec_cq'
p96
I9
sS'total_cq'
p97
I9
sa(dp98
g93
I0
sg94
F0.013599872589111328
sg95
F0.2342522144317627
sg96
I5
sg97
I5
sa(dp99
g93
I1
sg94
F0.004878997802734375
sg95
F0.025478124618530273
sg96
I3
sg97
I3
sa(dp100
g93
I2
sg94
F0.0038170814514160156
sg95
F0.0215303897857666
sg96
I2
sg97
I2
sasS'total_cqs'
p101
I9
ssI8
(dp102
S'iters'
p103
I5
sS'meta'
p104
(lp105
(dp106
S'objective'
p107
I272
sS'query_time'
p108
F0.14540410041809082
sS'comp_time'
p109
F0.03116917610168457
sS'exec_cq'
p110
I14
sS'total_cq'
p111
I27
sa(dp112
g107
I203
sg108
F0.07518887519836426
sg109
F0.0006053447723388672
sg110
I13
sg111
I22
sa(dp113
g107
I260
sg108
F4.100799560546875e-05
sg109
F0.00016617774963378906
sg110
I9
sg111
I19
sa(dp114
g107
I240
sg108
F7.700920104980469e-05
sg109
F0.0001227855682373047
sg110
I18
sg111
I18
sa(dp115
g107
I235
sg108
F6.794929504394531e-05
sg109
F0.00010085105895996094
sg110
I17
sg111
I17
sasS'total_cqs'
p116
I27
ssI9
(dp117
S'iters'
p118
I3
sS'meta'
p119
(lp120
(dp121
S'objective'
p122
I2
sS'query_time'
p123
F0.058238983154296875
sS'comp_time'
p124
F0.00432896614074707
sS'exec_cq'
p125
I7
sS'total_cq'
p126
I7
sa(dp127
g122
I3
sg123
F3.4809112548828125e-05
sg124
F0.0002429485321044922
sg125
I4
sg126
I4
sa(dp128
g122
I3
sg123
F1.7881393432617188e-05
sg124
F9.107589721679688e-05
sg125
I2
sg126
I2
sasS'total_cqs'
p129
I7
ssI10
(dp130
S'iters'
p131
I6
sS'meta'
p132
(lp133
(dp134
S'objective'
p135
I760
sS'query_time'
p136
F0.18613910675048828
sS'comp_time'
p137
F0.09141993522644043
sS'exec_cq'
p138
I28
sS'total_cq'
p139
I51
sa(dp140
g135
I277
sg136
F0.1630260944366455
sg137
F0.0015940666198730469
sg138
I23
sg139
I37
sa(dp141
g135
I360
sg136
F0.0002090930938720703
sg137
F0.0011920928955078125
sg138
I14
sg139
I25
sa(dp142
g135
I390
sg136
F5.793571472167969e-05
sg137
F0.0002663135528564453
sg138
I11
sg139
I21
sa(dp143
g135
I14
sg136
F0.0014920234680175781
sg137
F0.0003535747528076172
sg138
I3
sg139
I3
sa(dp144
g135
I5
sg136
F1.5020370483398438e-05
sg137
F7.557868957519531e-05
sg138
I2
sg139
I2
sasS'total_cqs'
p145
I51
ssI11
(dp146
S'iters'
p147
I5
sS'meta'
p148
(lp149
(dp150
S'objective'
p151
I984
sS'query_time'
p152
F0.6372880935668945
sS'comp_time'
p153
F0.16930580139160156
sS'exec_cq'
p154
I63
sS'total_cq'
p155
I63
sa(dp156
g151
I936
sg152
F0.001600027084350586
sg153
F0.007367372512817383
sg154
I47
sg155
I47
sa(dp157
g151
I0
sg152
F0.0016050338745117188
sg153
F0.0029337406158447266
sg154
I9
sg155
I9
sa(dp158
g151
I3
sg152
F3.504753112792969e-05
sg153
F0.00022482872009277344
sg154
I4
sg155
I4
sa(dp159
g151
I35
sg152
F1.5974044799804688e-05
sg153
F9.679794311523438e-05
sg154
I2
sg155
I2
sasS'total_cqs'
p160
I63
ssI12
(dp161
S'iters'
p162
I5
sS'meta'
p163
(lp164
(dp165
S'objective'
p166
I503
sS'query_time'
p167
F0.2420029640197754
sS'comp_time'
p168
F0.0792994499206543
sS'exec_cq'
p169
I28
sS'total_cq'
p170
I50
sa(dp171
g166
I523
sg167
F0.19544696807861328
sg168
F0.003039836883544922
sg169
I22
sg170
I33
sa(dp172
g166
I1
sg167
F0.002296924591064453
sg168
F0.002020120620727539
sg169
I8
sg170
I8
sa(dp173
g166
I29
sg167
F3.790855407714844e-05
sg168
F0.00019168853759765625
sg169
I4
sg170
I4
sa(dp174
g166
I3
sg167
F2.002716064453125e-05
sg168
F0.0001537799835205078
sg169
I2
sg170
I2
sasS'total_cqs'
p175
I50
ssI13
(dp176
S'iters'
p177
I4
sS'meta'
p178
(lp179
(dp180
S'objective'
p181
I38
sS'query_time'
p182
F0.16955900192260742
sS'comp_time'
p183
F0.03183579444885254
sS'exec_cq'
p184
I20
sS'total_cq'
p185
I20
sa(dp186
g181
I44
sg182
F0.00015091896057128906
sg183
F0.0004401206970214844
sg184
I14
sg185
I14
sa(dp187
g181
I66
sg182
F4.410743713378906e-05
sg183
F0.0001971721649169922
sg184
I9
sg185
I9
sa(dp188
g181
I3
sg182
F0.0017261505126953125
sg183
F0.00016188621520996094
sg184
I2
sg185
I2
sasS'total_cqs'
p189
I20
ssI14
(dp190
S'iters'
p191
I4
sS'meta'
p192
(lp193
(dp194
S'objective'
p195
I1
sS'query_time'
p196
F31.890980005264282
sS'comp_time'
p197
F1.5491290092468262
sS'exec_cq'
p198
I9
sS'total_cq'
p199
I9
sa(dp200
g195
I6
sg196
F0.23024296760559082
sg197
F0.7857697010040283
sg198
I5
sg199
I5
sa(dp201
g195
I0
sg196
F0.2024059295654297
sg197
F1.2010290622711182
sg198
I4
sg199
I4
sa(dp202
g195
I1
sg196
F0.2267298698425293
sg197
F0.8811037540435791
sg198
I3
sg199
I3
sasS'total_cqs'
p203
I9
ssI15
(dp204
S'iters'
p205
I4
sS'meta'
p206
(lp207
(dp208
S'objective'
p209
I0
sS'query_time'
p210
F3.7063238620758057
sS'comp_time'
p211
F0.28624534606933594
sS'exec_cq'
p212
I11
sS'total_cq'
p213
I11
sa(dp214
g209
I3
sg210
F0.0013120174407958984
sg211
F0.007406711578369141
sg212
I7
sg213
I7
sa(dp215
g209
I5
sg210
F0.0010662078857421875
sg211
F0.006887197494506836
sg212
I3
sg213
I3
sa(dp216
g209
I3
sg210
F0.0003631114959716797
sg211
F0.003111124038696289
sg212
I2
sg213
I2
sasS'total_cqs'
p217
I11
ssI16
(dp218
S'iters'
p219
I1
sS'meta'
p220
(lp221
(dp222
S'objective'
p223
I30
sS'query_time'
p224
F0.031064987182617188
sS'comp_time'
p225
F0.004985809326171875
sS'exec_cq'
p226
I8
sS'total_cq'
p227
I8
sasS'total_cqs'
p228
I8
ssI17
(dp229
S'iters'
p230
I4
sS'meta'
p231
(lp232
(dp233
S'objective'
p234
I2
sS'query_time'
p235
F1.0251410007476807
sS'comp_time'
p236
F0.059069156646728516
sS'exec_cq'
p237
I11
sS'total_cq'
p238
I11
sa(dp239
g234
I0
sg235
F0.00828409194946289
sg236
F0.05263996124267578
sg237
I7
sg238
I7
sa(dp240
g234
I2
sg235
F0.0031499862670898438
sg236
F0.15666627883911133
sg237
I4
sg238
I4
sa(dp241
g234
I1
sg235
F0.00017189979553222656
sg236
F0.0010263919830322266
sg237
I2
sg238
I2
sasS'total_cqs'
p242
I11
ssI18
(dp243
S'iters'
p244
I2
sS'meta'
p245
(lp246
(dp247
S'objective'
p248
I52
sS'query_time'
p249
F0.20374274253845215
sS'comp_time'
p250
F0.02138662338256836
sS'exec_cq'
p251
I11
sS'total_cq'
p252
I11
sa(dp253
g248
I51
sg249
F0.0011169910430908203
sg250
F0.0011343955993652344
sg251
I10
sg252
I10
sasS'total_cqs'
p254
I11
ssI22
(dp255
S'iters'
p256
I1
sS'meta'
p257
(lp258
(dp259
S'objective'
p260
I159
sS'query_time'
p261
F0.06323790550231934
sS'comp_time'
p262
F0.031588077545166016
sS'exec_cq'
p263
I18
sS'total_cq'
p264
I18
sasS'total_cqs'
p265
I18
ssI23
(dp266
S'iters'
p267
I1
sS'meta'
p268
(lp269
(dp270
S'objective'
p271
I126
sS'query_time'
p272
F0.048314809799194336
sS'comp_time'
p273
F0.02537822723388672
sS'exec_cq'
p274
I8
sS'total_cq'
p275
I16
sasS'total_cqs'
p276
I16
ssI26
(dp277
S'iters'
p278
I1
sS'meta'
p279
(lp280
(dp281
S'objective'
p282
I879
sS'query_time'
p283
F0.21297597885131836
sS'comp_time'
p284
F0.10115528106689453
sS'exec_cq'
p285
I42
sS'total_cq'
p286
I42
sasS'total_cqs'
p287
I42
ssI27
(dp288
S'iters'
p289
I4
sS'meta'
p290
(lp291
(dp292
S'objective'
p293
I367
sS'query_time'
p294
F21.292330980300903
sS'comp_time'
p295
F4.077130317687988
sS'exec_cq'
p296
I30
sS'total_cq'
p297
I30
sa(dp298
g293
I3
sg294
F0.43529391288757324
sg295
F3.3103678226470947
sg296
I5
sg297
I5
sa(dp299
g293
I1
sg294
F0.3442668914794922
sg295
F2.292555570602417
sg296
I3
sg297
I3
sa(dp300
g293
I6
sg294
F0.30545997619628906
sg295
F2.6838901042938232
sg296
I2
sg297
I2
sasS'total_cqs'
p301
I30
ssI29
(dp302
S'iters'
p303
I6
sS'meta'
p304
(lp305
(dp306
S'objective'
p307
I395
sS'query_time'
p308
F25.315526008605957
sS'comp_time'
p309
F0.7815515995025635
sS'exec_cq'
p310
I35
sS'total_cq'
p311
I49
sa(dp312
g307
I11
sg308
F0.052661895751953125
sg309
F0.6490449905395508
sg310
I17
sg311
I17
sa(dp313
g307
I5
sg308
F0.051640987396240234
sg309
F0.7309238910675049
sg310
I9
sg311
I9
sa(dp314
g307
I1
sg308
F0.037496089935302734
sg309
F0.4761509895324707
sg310
I6
sg311
I6
sa(dp315
g307
I3
sg308
F0.01985311508178711
sg309
F0.39377379417419434
sg310
I4
sg311
I4
sa(dp316
g307
I1
sg308
F0.00494694709777832
sg309
F0.28369903564453125
sg310
I2
sg311
I2
sasS'total_cqs'
p317
I49
ssI30
(dp318
S'iters'
p319
I1
sS'meta'
p320
(lp321
(dp322
S'objective'
p323
I1
sS'query_time'
p324
F0.6515848636627197
sS'comp_time'
p325
F0.03934288024902344
sS'exec_cq'
p326
I2
sS'total_cq'
p327
I2
sasS'total_cqs'
p328
I2
ssI32
(dp329
S'iters'
p330
I1
sS'meta'
p331
(lp332
(dp333
S'objective'
p334
I1
sS'query_time'
p335
F0.013164043426513672
sS'comp_time'
p336
F0.0019271373748779297
sS'exec_cq'
p337
I2
sS'total_cq'
p338
I2
sasS'total_cqs'
p339
I2
ssI33
(dp340
S'iters'
p341
I5
sS'meta'
p342
(lp343
(dp344
S'objective'
p345
I3168
sS'query_time'
p346
F16.940145015716553
sS'comp_time'
p347
F0.9648237228393555
sS'exec_cq'
p348
I103
sS'total_cq'
p349
I103
sa(dp350
g345
I4
sg346
F0.008281946182250977
sg347
F0.026570796966552734
sg348
I16
sg349
I16
sa(dp351
g345
I9
sg346
F0.11469197273254395
sg347
F0.010850906372070312
sg348
I9
sg349
I9
sa(dp352
g345
I24
sg346
F0.00047087669372558594
sg347
F0.003519773483276367
sg348
I5
sg349
I5
sa(dp353
g345
I68
sg346
F0.0001399517059326172
sg347
F0.0010559558868408203
sg348
I2
sg349
I2
sasS'total_cqs'
p354
I103
ssI34
(dp355
S'iters'
p356
I1
sS'meta'
p357
(lp358
(dp359
S'objective'
p360
I1
sS'query_time'
p361
F0.03145098686218262
sS'comp_time'
p362
F0.0026438236236572266
sS'exec_cq'
p363
I2
sS'total_cq'
p364
I2
sasS'total_cqs'
p365
I2
ssI35
(dp366
S'iters'
p367
I6
sS'meta'
p368
(lp369
(dp370
S'objective'
p371
I1553
sS'query_time'
p372
F23.389562129974365
sS'comp_time'
p373
F0.23743581771850586
sS'exec_cq'
p374
I50
sS'total_cq'
p375
I70
sa(dp376
g371
I4
sg372
F0.00656580924987793
sg373
F0.128889799118042
sg374
I16
sg375
I16
sa(dp377
g371
I7
sg372
F0.004478931427001953
sg373
F0.015836000442504883
sg374
I10
sg375
I10
sa(dp378
g371
I7
sg372
F0.0015511512756347656
sg373
F0.006599903106689453
sg374
I5
sg375
I5
sa(dp379
g371
I7
sg372
F0.0011260509490966797
sg373
F0.004784107208251953
sg374
I3
sg375
I3
sa(dp380
g371
I3
sg372
F0.0005540847778320312
sg373
F0.0038824081420898438
sg374
I2
sg375
I2
sasS'total_cqs'
p381
I70
ssI36
(dp382
S'iters'
p383
I1
sS'meta'
p384
(lp385
(dp386
S'objective'
p387
I541
sS'query_time'
p388
F0.660240888595581
sS'comp_time'
p389
F0.0838918685913086
sS'exec_cq'
p390
I28
sS'total_cq'
p391
I33
sasS'total_cqs'
p392
I33
ssI37
(dp393
S'iters'
p394
I1
sS'meta'
p395
(lp396
(dp397
S'objective'
p398
I1
sS'query_time'
p399
F0.009938955307006836
sS'comp_time'
p400
F0.0017311573028564453
sS'exec_cq'
p401
I2
sS'total_cq'
p402
I2
sasS'total_cqs'
p403
I2
ssI38
(dp404
S'iters'
p405
I2
sS'meta'
p406
(lp407
(dp408
S'objective'
p409
I0
sS'query_time'
p410
F0.04262995719909668
sS'comp_time'
p411
F0.005728960037231445
sS'exec_cq'
p412
I4
sS'total_cq'
p413
I4
sa(dp414
g409
I1
sg410
F9.417533874511719e-05
sg411
F0.0005800724029541016
sg412
I2
sg413
I2
sasS'total_cqs'
p415
I4
ssI39
(dp416
S'iters'
p417
I2
sS'meta'
p418
(lp419
(dp420
S'objective'
p421
I536
sS'query_time'
p422
F0.14582395553588867
sS'comp_time'
p423
F0.0859072208404541
sS'exec_cq'
p424
I44
sS'total_cq'
p425
I44
sa(dp426
g421
I739
sg422
F0.00030493736267089844
sg423
F0.0018689632415771484
sg424
I37
sg425
I37
sasS'total_cqs'
p427
I44
ssI40
(dp428
S'iters'
p429
I1
sS'meta'
p430
(lp431
(dp432
S'objective'
p433
I22
sS'query_time'
p434
F0.04358410835266113
sS'comp_time'
p435
F0.006442070007324219
sS'exec_cq'
p436
I7
sS'total_cq'
p437
I7
sasS'total_cqs'
p438
I7
ssI41
(dp439
S'iters'
p440
I2
sS'meta'
p441
(lp442
(dp443
S'objective'
p444
I58
sS'query_time'
p445
F0.09680795669555664
sS'comp_time'
p446
F0.015861034393310547
sS'exec_cq'
p447
I12
sS'total_cq'
p448
I12
sa(dp449
g444
I60
sg445
F7.390975952148438e-05
sg446
F0.00023555755615234375
sg447
I11
sg448
I11
sasS'total_cqs'
p450
I12
ssI42
(dp451
S'iters'
p452
I2
sS'meta'
p453
(lp454
(dp455
S'objective'
p456
I815
sS'query_time'
p457
F0.05412101745605469
sS'comp_time'
p458
F0.22854995727539062
sS'exec_cq'
p459
I21
sS'total_cq'
p460
I41
sa(dp461
g456
I814
sg457
F8.106231689453125e-05
sg458
F0.0001919269561767578
sg459
I20
sg460
I40
sasS'total_cqs'
p462
I41
ssI43
(dp463
S'iters'
p464
I1
sS'meta'
p465
(lp466
(dp467
S'objective'
p468
I22
sS'query_time'
p469
F0.025548934936523438
sS'comp_time'
p470
F0.005599021911621094
sS'exec_cq'
p471
I7
sS'total_cq'
p472
I7
sasS'total_cqs'
p473
I7
ssI44
(dp474
S'iters'
p475
I4
sS'meta'
p476
(lp477
(dp478
S'objective'
p479
I762
sS'query_time'
p480
F0.1896347999572754
sS'comp_time'
p481
F0.13415193557739258
sS'exec_cq'
p482
I47
sS'total_cq'
p483
I47
sa(dp484
g479
I847
sg480
F0.0003077983856201172
sg481
F0.001683950424194336
sg482
I40
sg483
I40
sa(dp485
g479
I21
sg480
F0.0013890266418457031
sg481
F0.001768350601196289
sg482
I3
sg483
I3
sa(dp486
g479
I12
sg480
F0.00014019012451171875
sg481
F0.0007789134979248047
sg482
I2
sg483
I2
sasS'total_cqs'
p487
I47
ssI46
(dp488
S'iters'
p489
I2
sS'meta'
p490
(lp491
(dp492
S'objective'
p493
I13
sS'query_time'
p494
F0.035176992416381836
sS'comp_time'
p495
F0.002321004867553711
sS'exec_cq'
p496
I4
sS'total_cq'
p497
I6
sa(dp498
g493
I11
sg494
F2.09808349609375e-05
sg495
F0.00010752677917480469
sg496
I3
sg497
I5
sasS'total_cqs'
p499
I6
ssI47
(dp500
S'iters'
p501
I1
sS'meta'
p502
(lp503
(dp504
S'objective'
p505
I1
sS'query_time'
p506
F0.026983022689819336
sS'comp_time'
p507
F0.0019130706787109375
sS'exec_cq'
p508
I2
sS'total_cq'
p509
I2
sasS'total_cqs'
p510
I2
ssI50
(dp511
S'iters'
p512
I3
sS'meta'
p513
(lp514
(dp515
S'objective'
p516
I5
sS'query_time'
p517
F0.014554023742675781
sS'comp_time'
p518
F0.002099275588989258
sS'exec_cq'
p519
I5
sS'total_cq'
p520
I5
sa(dp521
g516
I2
sg517
F2.7179718017578125e-05
sg518
F0.00012373924255371094
sg519
I4
sg520
I4
sa(dp522
g516
I0
sg517
F2.193450927734375e-05
sg518
F0.00010609626770019531
sg519
I3
sg520
I3
sasS'total_cqs'
p523
I5
ssI51
(dp524
S'iters'
p525
I1
sS'meta'
p526
(lp527
(dp528
S'objective'
p529
I1
sS'query_time'
p530
F0.009495019912719727
sS'comp_time'
p531
F0.0010602474212646484
sS'exec_cq'
p532
I2
sS'total_cq'
p533
I2
sasS'total_cqs'
p534
I2
ssI52
(dp535
S'iters'
p536
I1
sS'meta'
p537
(lp538
(dp539
S'objective'
p540
I1
sS'query_time'
p541
F0.00884103775024414
sS'comp_time'
p542
F0.0013070106506347656
sS'exec_cq'
p543
I2
sS'total_cq'
p544
I2
sasS'total_cqs'
p545
I2
ssI53
(dp546
S'iters'
p547
I2
sS'meta'
p548
(lp549
(dp550
S'objective'
p551
I4
sS'query_time'
p552
F0.04703783988952637
sS'comp_time'
p553
F0.0029489994049072266
sS'exec_cq'
p554
I4
sS'total_cq'
p555
I4
sa(dp556
g551
I1
sg552
F0.00010204315185546875
sg553
F0.0006897449493408203
sg554
I2
sg555
I2
sasS'total_cqs'
p557
I4
ssI54
(dp558
S'iters'
p559
I2
sS'meta'
p560
(lp561
(dp562
S'objective'
p563
I0
sS'query_time'
p564
F0.01232290267944336
sS'comp_time'
p565
F0.0016930103302001953
sS'exec_cq'
p566
I3
sS'total_cq'
p567
I3
sa(dp568
g563
I1
sg564
F6.794929504394531e-05
sg565
F0.0002899169921875
sg566
I2
sg567
I2
sasS'total_cqs'
p569
I3
ssI55
(dp570
S'iters'
p571
I9
sS'meta'
p572
(lp573
(dp574
S'objective'
p575
I4757
sS'query_time'
p576
F2.208219051361084
sS'comp_time'
p577
F0.7405908107757568
sS'exec_cq'
p578
I109
sS'total_cq'
p579
I109
sa(dp580
g575
I4666
sg576
F0.000762939453125
sg577
F0.0033600330352783203
sg578
I97
sg579
I97
sa(dp581
g575
I4691
sg576
F0.0003230571746826172
sg577
F0.001528024673461914
sg578
I91
sg579
I91
sa(dp582
g575
I4554
sg576
F0.00031304359436035156
sg577
F0.0011048316955566406
sg578
I89
sg579
I89
sa(dp583
g575
I4403
sg576
F0.0003120899200439453
sg577
F0.0009982585906982422
sg578
I87
sg579
I87
sa(dp584
g575
I4336
sg576
F0.0002639293670654297
sg577
F0.0010576248168945312
sg578
I83
sg579
I83
sa(dp585
g575
I4229
sg576
F0.00023603439331054688
sg577
F0.0007309913635253906
sg578
I81
sg579
I81
sa(dp586
g575
I4185
sg576
F0.00022912025451660156
sg577
F0.0005800724029541016
sg578
I80
sg579
I80
sa(dp587
g575
I4203
sg576
F0.000225067138671875
sg577
F0.0005981922149658203
sg578
I79
sg579
I79
sasS'total_cqs'
p588
I109
ssI56
(dp589
S'iters'
p590
I5
sS'meta'
p591
(lp592
(dp593
S'objective'
p594
I1524
sS'query_time'
p595
F1.600423812866211
sS'comp_time'
p596
F0.2838129997253418
sS'exec_cq'
p597
I67
sS'total_cq'
p598
I76
sa(dp599
g594
I33
sg595
F0.0063169002532958984
sg596
F0.018529176712036133
sg597
I16
sg598
I16
sa(dp600
g594
I7
sg595
F0.003268003463745117
sg596
F0.01133275032043457
sg597
I9
sg598
I9
sa(dp601
g594
I9
sg595
F0.0004239082336425781
sg596
F0.002115964889526367
sg597
I4
sg598
I4
sa(dp602
g594
I49
sg595
F0.00016498565673828125
sg596
F0.001390218734741211
sg597
I2
sg598
I2
sasS'total_cqs'
p603
I76
ssI57
(dp604
S'iters'
p605
I6
sS'meta'
p606
(lp607
(dp608
S'objective'
p609
I266
sS'query_time'
p610
F22.423606872558594
sS'comp_time'
p611
F0.16765308380126953
sS'exec_cq'
p612
I45
sS'total_cq'
p613
I51
sa(dp614
g609
I2
sg610
F0.014600038528442383
sg611
F0.03495311737060547
sg612
I27
sg613
I27
sa(dp615
g609
I1
sg610
F0.002428770065307617
sg611
F0.007280111312866211
sg612
I12
sg613
I12
sa(dp616
g609
I1
sg610
F0.0004899501800537109
sg611
F0.0029757022857666016
sg612
I6
sg613
I6
sa(dp617
g609
I10
sg610
F0.00043702125549316406
sg611
F0.0027701854705810547
sg612
I3
sg613
I3
sa(dp618
g609
I27
sg610
F0.00031495094299316406
sg611
F0.002218961715698242
sg612
I2
sg613
I2
sasS'total_cqs'
p619
I51
ssI58
(dp620
S'iters'
p621
I8
sS'meta'
p622
(lp623
(dp624
S'objective'
p625
I81259
sS'query_time'
p626
F111.21413803100586
sS'comp_time'
p627
F14.260613679885864
sS'exec_cq'
p628
I348
sS'total_cq'
p629
I486
sa(dp630
g625
I86980
sg626
F0.03574180603027344
sg627
F1.1802301406860352
sg628
I276
sg629
I414
sa(dp631
g625
I86
sg626
F0.015233039855957031
sg627
F0.08403158187866211
sg628
I28
sg629
I28
sa(dp632
g625
I2
sg626
F0.005915164947509766
sg627
F0.01930713653564453
sg628
I14
sg629
I14
sa(dp633
g625
I26
sg626
F0.004800081253051758
sg627
F0.017119169235229492
sg628
I8
sg629
I8
sa(dp634
g625
I24
sg626
F0.002073049545288086
sg627
F0.013112068176269531
sg628
I4
sg629
I4
sa(dp635
g625
I39
sg626
F0.0017058849334716797
sg627
F0.010450124740600586
sg628
I3
sg629
I3
sa(dp636
g625
I77
sg626
F0.0014510154724121094
sg627
F0.008885383605957031
sg628
I2
sg629
I2
sasS'total_cqs'
p637
I486
ssI59
(dp638
S'iters'
p639
I2
sS'meta'
p640
(lp641
(dp642
S'objective'
p643
I10
sS'query_time'
p644
F0.0496220588684082
sS'comp_time'
p645
F0.015484333038330078
sS'exec_cq'
p646
I7
sS'total_cq'
p647
I7
sa(dp648
g643
I3
sg644
F0.00015401840209960938
sg645
F0.0009882450103759766
sg646
I2
sg647
I2
sasS'total_cqs'
p649
I7
ssI60
(dp650
S'iters'
p651
I1
sS'meta'
p652
(lp653
(dp654
S'objective'
p655
I9
sS'query_time'
p656
F0.024520158767700195
sS'comp_time'
p657
F0.0032596588134765625
sS'exec_cq'
p658
I3
sS'total_cq'
p659
I5
sasS'total_cqs'
p660
I5
ssI62
(dp661
S'iters'
p662
I2
sS'meta'
p663
(lp664
(dp665
S'objective'
p666
I28
sS'query_time'
p667
F0.03295087814331055
sS'comp_time'
p668
F0.08002924919128418
sS'exec_cq'
p669
I12
sS'total_cq'
p670
I12
sa(dp671
g666
I45
sg667
F5.412101745605469e-05
sg668
F0.00022912025451660156
sg669
I9
sg670
I9
sasS'total_cqs'
p672
I12
ssI64
(dp673
S'iters'
p674
I4
sS'meta'
p675
(lp676
(dp677
S'objective'
p678
I42
sS'query_time'
p679
F0.12751317024230957
sS'comp_time'
p680
F0.02211618423461914
sS'exec_cq'
p681
I12
sS'total_cq'
p682
I12
sa(dp683
g678
I26
sg679
F0.0004100799560546875
sg680
F0.0025358200073242188
sg681
I10
sg682
I10
sa(dp684
g678
I1
sg679
F6.508827209472656e-05
sg680
F0.0003979206085205078
sg681
I4
sg682
I4
sa(dp685
g678
I1
sg679
F5.793571472167969e-05
sg680
F0.00031113624572753906
sg681
I3
sg682
I3
sasS'total_cqs'
p686
I12
ssI65
(dp687
S'iters'
p688
I4
sS'meta'
p689
(lp690
(dp691
S'objective'
p692
I256
sS'query_time'
p693
F0.8183920383453369
sS'comp_time'
p694
F0.08362698554992676
sS'exec_cq'
p695
I27
sS'total_cq'
p696
I27
sa(dp697
g692
I5
sg693
F0.0012650489807128906
sg694
F0.005686044692993164
sg695
I7
sg696
I7
sa(dp698
g692
I6
sg693
F0.00015997886657714844
sg694
F0.000946044921875
sg695
I3
sg696
I3
sa(dp699
g692
I5
sg693
F7.796287536621094e-05
sg694
F0.0005459785461425781
sg695
I2
sg696
I2
sasS'total_cqs'
p700
I27
ssI67
(dp701
S'iters'
p702
I2
sS'meta'
p703
(lp704
(dp705
S'objective'
p706
I560
sS'query_time'
p707
F0.8954858779907227
sS'comp_time'
p708
F0.1799602508544922
sS'exec_cq'
p709
I35
sS'total_cq'
p710
I35
sa(dp711
g706
I15
sg707
F0.0010809898376464844
sg708
F0.007370948791503906
sg709
I2
sg710
I2
sasS'total_cqs'
p712
I35
ssI69
(dp713
S'iters'
p714
I1
sS'meta'
p715
(lp716
(dp717
S'objective'
p718
I1298
sS'query_time'
p719
F0.16477012634277344
sS'comp_time'
p720
F0.17200875282287598
sS'exec_cq'
p721
I51
sS'total_cq'
p722
I51
sasS'total_cqs'
p723
I51
ssI70
(dp724
S'iters'
p725
I3
sS'meta'
p726
(lp727
(dp728
S'objective'
p729
I11
sS'query_time'
p730
F0.023504972457885742
sS'comp_time'
p731
F0.0035436153411865234
sS'exec_cq'
p732
I6
sS'total_cq'
p733
I6
sa(dp734
g729
I8
sg730
F5.0067901611328125e-05
sg731
F0.0002357959747314453
sg732
I5
sg733
I5
sa(dp735
g729
I6
sg730
F4.00543212890625e-05
sg731
F0.00020885467529296875
sg732
I4
sg733
I4
sasS'total_cqs'
p736
I6
ssI71
(dp737
S'iters'
p738
I5
sS'meta'
p739
(lp740
(dp741
S'objective'
p742
I3217
sS'query_time'
p743
F0.26728200912475586
sS'comp_time'
p744
F0.2701117992401123
sS'exec_cq'
p745
I73
sS'total_cq'
p746
I85
sa(dp747
g742
I3026
sg743
F0.0002541542053222656
sg744
F0.0009357929229736328
sg745
I69
sg746
I81
sa(dp748
g742
I2925
sg743
F0.00018715858459472656
sg744
F0.0007688999176025391
sg745
I65
sg746
I77
sa(dp749
g742
I3
sg743
F0.0021681785583496094
sg744
F0.002275228500366211
sg745
I3
sg746
I3
sa(dp750
g742
I29
sg743
F0.0046541690826416016
sg744
F0.00020194053649902344
sg745
I2
sg746
I2
sasS'total_cqs'
p751
I85
ssI72
(dp752
S'iters'
p753
I3
sS'meta'
p754
(lp755
(dp756
S'objective'
p757
I0
sS'query_time'
p758
F0.2557711601257324
sS'comp_time'
p759
F0.0052869319915771484
sS'exec_cq'
p760
I4
sS'total_cq'
p761
I8
sa(dp762
g757
I0
sg758
F0.02885293960571289
sg759
F0.00031065940856933594
sg760
I4
sg761
I5
sa(dp763
g757
I3
sg758
F1.6927719116210938e-05
sg759
F9.107589721679688e-05
sg760
I2
sg761
I3
sasS'total_cqs'
p764
I8
ssI75
(dp765
S'iters'
p766
I3
sS'meta'
p767
(lp768
(dp769
S'objective'
p770
I5
sS'query_time'
p771
F0.013716936111450195
sS'comp_time'
p772
F0.0019505023956298828
sS'exec_cq'
p773
I5
sS'total_cq'
p774
I5
sa(dp775
g770
I2
sg771
F2.7894973754882812e-05
sg772
F0.00011920928955078125
sg773
I4
sg774
I4
sa(dp776
g770
I0
sg771
F2.09808349609375e-05
sg772
F9.107589721679688e-05
sg773
I3
sg774
I3
sasS'total_cqs'
p777
I5
ssI76
(dp778
S'iters'
p779
I1
sS'meta'
p780
(lp781
(dp782
S'objective'
p783
I1
sS'query_time'
p784
F0.013373136520385742
sS'comp_time'
p785
F0.0011448860168457031
sS'exec_cq'
p786
I2
sS'total_cq'
p787
I2
sasS'total_cqs'
p788
I2
ssI103
(dp789
S'iters'
p790
I1
sS'meta'
p791
(lp792
(dp793
S'objective'
p794
I70
sS'query_time'
p795
F0.06342291831970215
sS'comp_time'
p796
F0.0273129940032959
sS'exec_cq'
p797
I12
sS'total_cq'
p798
I12
sasS'total_cqs'
p799
I12
ssI104
(dp800
S'iters'
p801
I2
sS'meta'
p802
(lp803
(dp804
S'objective'
p805
I2
sS'query_time'
p806
F1.331223964691162
sS'comp_time'
p807
F0.16532301902770996
sS'exec_cq'
p808
I4
sS'total_cq'
p809
I4
sa(dp810
g805
I2
sg806
F0.011089086532592773
sg807
F0.1492609977722168
sg808
I2
sg809
I2
sasS'total_cqs'
p811
I4
ssI106
(dp812
S'iters'
p813
I1
sS'meta'
p814
(lp815
(dp816
S'objective'
p817
I6
sS'query_time'
p818
F0.02329397201538086
sS'comp_time'
p819
F0.002071857452392578
sS'exec_cq'
p820
I4
sS'total_cq'
p821
I4
sasS'total_cqs'
p822
I4
ssI107
(dp823
S'iters'
p824
I2
sS'meta'
p825
(lp826
(dp827
S'objective'
p828
I108
sS'query_time'
p829
F0.07192087173461914
sS'comp_time'
p830
F0.01960897445678711
sS'exec_cq'
p831
I16
sS'total_cq'
p832
I16
sa(dp833
g828
I4
sg829
F0.005172014236450195
sg830
F0.00040793418884277344
sg831
I3
sg832
I3
sasS'total_cqs'
p834
I16
ss.