(dp0
I1
(dp1
S'iters'
p2
I1
sS'meta'
p3
(lp4
(dp5
S'objective'
p6
I54
sS'query_time'
p7
F0.01781320571899414
sS'comp_time'
p8
F5.1975250244140625e-05
sS'exec_cq'
p9
I1
sS'total_cq'
p10
I12
sasS'total_cqs'
p11
I12
ssI2
(dp12
S'iters'
p13
I1
sS'meta'
p14
(lp15
(dp16
S'objective'
p17
I324
sS'query_time'
p18
F0.040778160095214844
sS'comp_time'
p19
F5.602836608886719e-05
sS'exec_cq'
p20
I1
sS'total_cq'
p21
I27
sasS'total_cqs'
p22
I27
ssI3
(dp23
S'iters'
p24
I1
sS'meta'
p25
(lp26
(dp27
S'objective'
p28
I860
sS'query_time'
p29
F0.014101982116699219
sS'comp_time'
p30
F6.508827209472656e-05
sS'exec_cq'
p31
I1
sS'total_cq'
p32
I43
sasS'total_cqs'
p33
I43
ssI4
(dp34
S'iters'
p35
I1
sS'meta'
p36
(lp37
(dp38
S'objective'
p39
I44
sS'query_time'
p40
F2.9509689807891846
sS'comp_time'
p41
F0.001062154769897461
sS'exec_cq'
p42
I1
sS'total_cq'
p43
I11
sasS'total_cqs'
p44
I11
ssI5
(dp45
S'iters'
p46
I1
sS'meta'
p47
(lp48
(dp49
S'objective'
p50
I20
sS'query_time'
p51
F0.36252808570861816
sS'comp_time'
p52
F5.91278076171875e-05
sS'exec_cq'
p53
I1
sS'total_cq'
p54
I8
sasS'total_cqs'
p55
I8
ssI6
(dp56
S'iters'
p57
I1
sS'meta'
p58
(lp59
(dp60
S'objective'
p61
I135
sS'query_time'
p62
F0.5110511779785156
sS'comp_time'
p63
F8.20159912109375e-05
sS'exec_cq'
p64
I1
sS'total_cq'
p65
I18
sasS'total_cqs'
p66
I18
ssI7
(dp67
S'iters'
p68
I2
sS'meta'
p69
(lp70
(dp71
S'objective'
p72
I1
sS'query_time'
p73
F0.2564709186553955
sS'comp_time'
p74
F8.106231689453125e-05
sS'exec_cq'
p75
I1
sS'total_cq'
p76
I9
sa(dp77
g72
I5
sg73
F0.004686832427978516
sg74
F3.504753112792969e-05
sg75
I1
sg76
I4
sasS'total_cqs'
p78
I9
ssI8
(dp79
S'iters'
p80
I2
sS'meta'
p81
(lp82
(dp83
S'objective'
p84
I316
sS'query_time'
p85
F0.05004596710205078
sS'comp_time'
p86
F5.2928924560546875e-05
sS'exec_cq'
p87
I1
sS'total_cq'
p88
I27
sa(dp89
g84
I23
sg85
F0.014016866683959961
sg86
F5.1975250244140625e-05
sg87
I2
sg88
I2
sasS'total_cqs'
p90
I27
ssI9
(dp91
S'iters'
p92
I3
sS'meta'
p93
(lp94
(dp95
S'objective'
p96
I18
sS'query_time'
p97
F0.017889976501464844
sS'comp_time'
p98
F4.38690185546875e-05
sS'exec_cq'
p99
I1
sS'total_cq'
p100
I7
sa(dp101
g96
I3
sg97
F0.03408002853393555
sg98
F5.984306335449219e-05
sg99
I2
sg100
I5
sa(dp102
g96
I4
sg97
F0.00416111946105957
sg98
F4.100799560546875e-05
sg99
I2
sg100
I2
sasS'total_cqs'
p103
I7
ssI10
(dp104
S'iters'
p105
I3
sS'meta'
p106
(lp107
(dp108
S'objective'
p109
I700
sS'query_time'
p110
F0.04803800582885742
sS'comp_time'
p111
F8.296966552734375e-05
sS'exec_cq'
p112
I1
sS'total_cq'
p113
I51
sa(dp114
g109
I85
sg110
F0.08165502548217773
sg111
F6.699562072753906e-05
sg112
I2
sg113
I12
sa(dp115
g109
I97
sg110
F0.022497177124023438
sg111
F4.792213439941406e-05
sg112
I2
sg113
I8
sasS'total_cqs'
p116
I51
ssI11
(dp117
S'iters'
p118
I3
sS'meta'
p119
(lp120
(dp121
S'objective'
p122
I1300
sS'query_time'
p123
F0.11852097511291504
sS'comp_time'
p124
F6.198883056640625e-05
sS'exec_cq'
p125
I1
sS'total_cq'
p126
I63
sa(dp127
g122
I54
sg123
F0.04490184783935547
sg124
F6.818771362304688e-05
sg125
I2
sg126
I9
sa(dp128
g122
I80
sg123
F0.011363983154296875
sg124
F3.695487976074219e-05
sg125
I2
sg126
I5
sasS'total_cqs'
p129
I63
ssI12
(dp130
S'iters'
p131
I4
sS'meta'
p132
(lp133
(dp134
S'objective'
p135
I751
sS'query_time'
p136
F0.08841300010681152
sS'comp_time'
p137
F7.390975952148438e-05
sS'exec_cq'
p138
I1
sS'total_cq'
p139
I50
sa(dp140
g135
I0
sg136
F0.029224157333374023
sg137
F5.1021575927734375e-05
sg138
I2
sg139
I8
sa(dp141
g135
I55
sg136
F0.06422805786132812
sg137
F9.012222290039062e-05
sg138
I2
sg139
I4
sa(dp142
g135
I7
sg136
F0.009623050689697266
sg137
F5.1021575927734375e-05
sg138
I2
sg139
I3
sasS'total_cqs'
p143
I50
ssI13
(dp144
S'iters'
p145
I4
sS'meta'
p146
(lp147
(dp148
S'objective'
p149
I26
sS'query_time'
p150
F0.039260149002075195
sS'comp_time'
p151
F8.392333984375e-05
sS'exec_cq'
p152
I1
sS'total_cq'
p153
I20
sa(dp154
g149
I50
sg150
F0.046473026275634766
sg151
F6.079673767089844e-05
sg152
I2
sg153
I11
sa(dp155
g149
I12
sg150
F0.016032934188842773
sg151
F4.291534423828125e-05
sg152
I2
sg153
I5
sa(dp156
g149
I17
sg150
F0.011410951614379883
sg151
F5.412101745605469e-05
sg152
I2
sg153
I3
sasS'total_cqs'
p157
I20
ssI14
(dp158
S'iters'
p159
I1
sS'meta'
p160
(lp161
(dp162
S'objective'
p163
I27
sS'query_time'
p164
F0.4146878719329834
sS'comp_time'
p165
F8.416175842285156e-05
sS'exec_cq'
p166
I1
sS'total_cq'
p167
I9
sasS'total_cqs'
p168
I9
ssI15
(dp169
S'iters'
p170
I1
sS'meta'
p171
(lp172
(dp173
S'objective'
p174
I44
sS'query_time'
p175
F0.05378293991088867
sS'comp_time'
p176
F7.200241088867188e-05
sS'exec_cq'
p177
I1
sS'total_cq'
p178
I11
sasS'total_cqs'
p179
I11
ssI16
(dp180
S'iters'
p181
I1
sS'meta'
p182
(lp183
(dp184
S'objective'
p185
I20
sS'query_time'
p186
F0.009593963623046875
sS'comp_time'
p187
F4.482269287109375e-05
sS'exec_cq'
p188
I1
sS'total_cq'
p189
I8
sasS'total_cqs'
p190
I8
ssI17
(dp191
S'iters'
p192
I1
sS'meta'
p193
(lp194
(dp195
S'objective'
p196
I44
sS'query_time'
p197
F0.04395294189453125
sS'comp_time'
p198
F6.985664367675781e-05
sS'exec_cq'
p199
I1
sS'total_cq'
p200
I11
sasS'total_cqs'
p201
I11
ssI18
(dp202
S'iters'
p203
I1
sS'meta'
p204
(lp205
(dp206
S'objective'
p207
I44
sS'query_time'
p208
F0.0220949649810791
sS'comp_time'
p209
F6.890296936035156e-05
sS'exec_cq'
p210
I1
sS'total_cq'
p211
I11
sasS'total_cqs'
p212
I11
ssI19
(dp213
S'iters'
p214
I0
sS'meta'
p215
(lp216
sS'total_cqs'
p217
I1
ssI20
(dp218
S'iters'
p219
I0
sS'meta'
p220
(lp221
sS'total_cqs'
p222
I1
ssI21
(dp223
S'iters'
p224
I0
sS'meta'
p225
(lp226
sS'total_cqs'
p227
I1
ssI22
(dp228
S'iters'
p229
I1
sS'meta'
p230
(lp231
(dp232
S'objective'
p233
I135
sS'query_time'
p234
F0.05586504936218262
sS'comp_time'
p235
F6.29425048828125e-05
sS'exec_cq'
p236
I1
sS'total_cq'
p237
I18
sasS'total_cqs'
p238
I18
ssI23
(dp239
S'iters'
p240
I1
sS'meta'
p241
(lp242
(dp243
S'objective'
p244
I104
sS'query_time'
p245
F0.01607489585876465
sS'comp_time'
p246
F5.91278076171875e-05
sS'exec_cq'
p247
I1
sS'total_cq'
p248
I16
sasS'total_cqs'
p249
I16
ssI24
(dp250
S'iters'
p251
I0
sS'meta'
p252
(lp253
sS'total_cqs'
p254
I1
ssI25
(dp255
S'iters'
p256
I0
sS'meta'
p257
(lp258
sS'total_cqs'
p259
I1
ssI26
(dp260
S'iters'
p261
I1
sS'meta'
p262
(lp263
(dp264
S'objective'
p265
I819
sS'query_time'
p266
F0.04871201515197754
sS'comp_time'
p267
F5.602836608886719e-05
sS'exec_cq'
p268
I1
sS'total_cq'
p269
I42
sasS'total_cqs'
p270
I42
ssI27
(dp271
S'iters'
p272
I2
sS'meta'
p273
(lp274
(dp275
S'objective'
p276
I383
sS'query_time'
p277
F3.087570905685425
sS'comp_time'
p278
F0.0003139972686767578
sS'exec_cq'
p279
I1
sS'total_cq'
p280
I30
sa(dp281
g276
I19
sg277
F1186.3479509353638
sg278
F7.510185241699219e-05
sg279
I2
sg280
I2
sasS'total_cqs'
p282
I30
ssI28
(dp283
S'iters'
p284
I0
sS'meta'
p285
(lp286
sS'total_cqs'
p287
I1
ssI29
(dp288
S'iters'
p289
I1
sS'meta'
p290
(lp291
(dp292
S'objective'
p293
I1127
sS'query_time'
p294
F0.49793577194213867
sS'comp_time'
p295
F6.890296936035156e-05
sS'exec_cq'
p296
I1
sS'total_cq'
p297
I49
sasS'total_cqs'
p298
I49
ssI30
(dp299
S'iters'
p300
I1
sS'meta'
p301
(lp302
(dp303
S'objective'
p304
I1
sS'query_time'
p305
F0.6146199703216553
sS'comp_time'
p306
F6.413459777832031e-05
sS'exec_cq'
p307
I1
sS'total_cq'
p308
I2
sasS'total_cqs'
p309
I2
ssI31
(dp310
S'iters'
p311
I0
sS'meta'
p312
(lp313
sS'total_cqs'
p314
I1
ssI32
(dp315
S'iters'
p316
I1
sS'meta'
p317
(lp318
(dp319
S'objective'
p320
I1
sS'query_time'
p321
F0.008546829223632812
sS'comp_time'
p322
F4.8160552978515625e-05
sS'exec_cq'
p323
I1
sS'total_cq'
p324
I2
sasS'total_cqs'
p325
I2
ssI33
(dp326
S'iters'
p327
I3
sS'meta'
p328
(lp329
(dp330
S'objective'
p331
I4688
sS'query_time'
p332
F0.6756079196929932
sS'comp_time'
p333
F0.00016689300537109375
sS'exec_cq'
p334
I1
sS'total_cq'
p335
I103
sa(dp336
g331
I14
sg332
F0.04577898979187012
sg333
F4.887580871582031e-05
sg334
I1
sg335
I4
sa(dp337
g331
I32
sg332
F0.018388032913208008
sg333
F5.602836608886719e-05
sg334
I1
sg335
I2
sasS'total_cqs'
p338
I103
ssI34
(dp339
S'iters'
p340
I1
sS'meta'
p341
(lp342
(dp343
S'objective'
p344
I1
sS'query_time'
p345
F0.017171859741210938
sS'comp_time'
p346
F6.699562072753906e-05
sS'exec_cq'
p347
I1
sS'total_cq'
p348
I2
sasS'total_cqs'
p349
I2
ssI35
(dp350
S'iters'
p351
I1
sS'meta'
p352
(lp353
(dp354
S'objective'
p355
I2345
sS'query_time'
p356
F0.4579479694366455
sS'comp_time'
p357
F0.00011396408081054688
sS'exec_cq'
p358
I1
sS'total_cq'
p359
I70
sasS'total_cqs'
p360
I70
ssI36
(dp361
S'iters'
p362
I1
sS'meta'
p363
(lp364
(dp365
S'objective'
p366
I495
sS'query_time'
p367
F0.07465887069702148
sS'comp_time'
p368
F8.797645568847656e-05
sS'exec_cq'
p369
I1
sS'total_cq'
p370
I33
sasS'total_cqs'
p371
I33
ssI37
(dp372
S'iters'
p373
I1
sS'meta'
p374
(lp375
(dp376
S'objective'
p377
I1
sS'query_time'
p378
F0.007447004318237305
sS'comp_time'
p379
F5.888938903808594e-05
sS'exec_cq'
p380
I1
sS'total_cq'
p381
I2
sasS'total_cqs'
p382
I2
ssI38
(dp383
S'iters'
p384
I2
sS'meta'
p385
(lp386
(dp387
S'objective'
p388
I8
sS'query_time'
p389
F0.014739990234375
sS'comp_time'
p390
F0.00033783912658691406
sS'exec_cq'
p391
I1
sS'total_cq'
p392
I4
sa(dp393
g388
I1
sg389
F0.0030498504638671875
sg390
F3.3855438232421875e-05
sg391
I1
sg392
I3
sasS'total_cqs'
p394
I4
ssI39
(dp395
S'iters'
p396
I1
sS'meta'
p397
(lp398
(dp399
S'objective'
p400
I902
sS'query_time'
p401
F0.0765080451965332
sS'comp_time'
p402
F8.106231689453125e-05
sS'exec_cq'
p403
I1
sS'total_cq'
p404
I44
sasS'total_cqs'
p405
I44
ssI40
(dp406
S'iters'
p407
I1
sS'meta'
p408
(lp409
(dp410
S'objective'
p411
I14
sS'query_time'
p412
F0.016117095947265625
sS'comp_time'
p413
F5.793571472167969e-05
sS'exec_cq'
p414
I1
sS'total_cq'
p415
I7
sasS'total_cqs'
p416
I7
ssI41
(dp417
S'iters'
p418
I1
sS'meta'
p419
(lp420
(dp421
S'objective'
p422
I54
sS'query_time'
p423
F0.0191500186920166
sS'comp_time'
p424
F5.984306335449219e-05
sS'exec_cq'
p425
I1
sS'total_cq'
p426
I12
sasS'total_cqs'
p427
I12
ssI42
(dp428
S'iters'
p429
I1
sS'meta'
p430
(lp431
(dp432
S'objective'
p433
I779
sS'query_time'
p434
F0.028329849243164062
sS'comp_time'
p435
F6.008148193359375e-05
sS'exec_cq'
p436
I1
sS'total_cq'
p437
I41
sasS'total_cqs'
p438
I41
ssI43
(dp439
S'iters'
p440
I1
sS'meta'
p441
(lp442
(dp443
S'objective'
p444
I14
sS'query_time'
p445
F0.01553201675415039
sS'comp_time'
p446
F5.1975250244140625e-05
sS'exec_cq'
p447
I1
sS'total_cq'
p448
I7
sasS'total_cqs'
p449
I7
ssI44
(dp450
S'iters'
p451
I2
sS'meta'
p452
(lp453
(dp454
S'objective'
p455
I960
sS'query_time'
p456
F0.05058908462524414
sS'comp_time'
p457
F6.29425048828125e-05
sS'exec_cq'
p458
I1
sS'total_cq'
p459
I47
sa(dp460
g455
I10
sg456
F0.03225898742675781
sg457
F5.507469177246094e-05
sg458
I2
sg459
I2
sasS'total_cqs'
p461
I47
ssI45
(dp462
S'iters'
p463
I0
sS'meta'
p464
(lp465
sS'total_cqs'
p466
I1
ssI46
(dp467
S'iters'
p468
I1
sS'meta'
p469
(lp470
(dp471
S'objective'
p472
I9
sS'query_time'
p473
F0.006636142730712891
sS'comp_time'
p474
F4.601478576660156e-05
sS'exec_cq'
p475
I1
sS'total_cq'
p476
I6
sasS'total_cqs'
p477
I6
ssI47
(dp478
S'iters'
p479
I1
sS'meta'
p480
(lp481
(dp482
S'objective'
p483
I1
sS'query_time'
p484
F0.006876945495605469
sS'comp_time'
p485
F5.888938903808594e-05
sS'exec_cq'
p486
I1
sS'total_cq'
p487
I2
sasS'total_cqs'
p488
I2
ssI48
(dp489
S'iters'
p490
I0
sS'meta'
p491
(lp492
sS'total_cqs'
p493
I1
ssI49
(dp494
S'iters'
p495
I0
sS'meta'
p496
(lp497
sS'total_cqs'
p498
I1
ssI50
(dp499
S'iters'
p500
I1
sS'meta'
p501
(lp502
(dp503
S'objective'
p504
I5
sS'query_time'
p505
F0.005243778228759766
sS'comp_time'
p506
F4.315376281738281e-05
sS'exec_cq'
p507
I1
sS'total_cq'
p508
I5
sasS'total_cqs'
p509
I5
ssI51
(dp510
S'iters'
p511
I1
sS'meta'
p512
(lp513
(dp514
S'objective'
p515
I1
sS'query_time'
p516
F0.005460977554321289
sS'comp_time'
p517
F4.1961669921875e-05
sS'exec_cq'
p518
I1
sS'total_cq'
p519
I2
sasS'total_cqs'
p520
I2
ssI52
(dp521
S'iters'
p522
I1
sS'meta'
p523
(lp524
(dp525
S'objective'
p526
I1
sS'query_time'
p527
F0.007041215896606445
sS'comp_time'
p528
F0.000102996826171875
sS'exec_cq'
p529
I1
sS'total_cq'
p530
I2
sasS'total_cqs'
p531
I2
ssI53
(dp532
S'iters'
p533
I1
sS'meta'
p534
(lp535
(dp536
S'objective'
p537
I2
sS'query_time'
p538
F0.011888980865478516
sS'comp_time'
p539
F5.602836608886719e-05
sS'exec_cq'
p540
I1
sS'total_cq'
p541
I4
sasS'total_cqs'
p542
I4
ssI54
(dp543
S'iters'
p544
I1
sS'meta'
p545
(lp546
(dp547
S'objective'
p548
I0
sS'query_time'
p549
F0.008463144302368164
sS'comp_time'
p550
F5.1975250244140625e-05
sS'exec_cq'
p551
I1
sS'total_cq'
p552
I3
sasS'total_cqs'
p553
I3
ssI55
(dp554
S'iters'
p555
I2
sS'meta'
p556
(lp557
(dp558
S'objective'
p559
I5667
sS'query_time'
p560
F0.18952107429504395
sS'comp_time'
p561
F0.0001277923583984375
sS'exec_cq'
p562
I1
sS'total_cq'
p563
I109
sa(dp564
g559
I54
sg560
F0.006598949432373047
sg561
F3.695487976074219e-05
sg562
I1
sg563
I2
sasS'total_cqs'
p565
I109
ssI56
(dp566
S'iters'
p567
I1
sS'meta'
p568
(lp569
(dp570
S'objective'
p571
I2774
sS'query_time'
p572
F0.16957688331604004
sS'comp_time'
p573
F0.00011801719665527344
sS'exec_cq'
p574
I1
sS'total_cq'
p575
I76
sasS'total_cqs'
p576
I76
ssI57
(dp577
S'iters'
p578
I1
sS'meta'
p579
(lp580
(dp581
S'objective'
p582
I1224
sS'query_time'
p583
F0.4386708736419678
sS'comp_time'
p584
F9.989738464355469e-05
sS'exec_cq'
p585
I1
sS'total_cq'
p586
I51
sasS'total_cqs'
p587
I51
ssI58
(dp588
S'iters'
p589
I3
sS'meta'
p590
(lp591
(dp592
S'objective'
p593
I116151
sS'query_time'
p594
F1.6664750576019287
sS'comp_time'
p595
F0.0005931854248046875
sS'exec_cq'
p596
I1
sS'total_cq'
p597
I486
sa(dp598
g593
I677
sg594
F0.03825712203979492
sg595
F3.504753112792969e-05
sg596
I1
sg597
I4
sa(dp599
g593
I86
sg594
F0.0017750263214111328
sg595
F2.6226043701171875e-05
sg596
I1
sg597
I2
sasS'total_cqs'
p600
I486
ssI59
(dp601
S'iters'
p602
I2
sS'meta'
p603
(lp604
(dp605
S'objective'
p606
I12
sS'query_time'
p607
F0.023458003997802734
sS'comp_time'
p608
F5.793571472167969e-05
sS'exec_cq'
p609
I1
sS'total_cq'
p610
I7
sa(dp611
g606
I6
sg607
F0.042289018630981445
sg608
F6.103515625e-05
sg609
I2
sg610
I2
sasS'total_cqs'
p612
I7
ssI60
(dp613
S'iters'
p614
I1
sS'meta'
p615
(lp616
(dp617
S'objective'
p618
I5
sS'query_time'
p619
F0.00569605827331543
sS'comp_time'
p620
F4.506111145019531e-05
sS'exec_cq'
p621
I1
sS'total_cq'
p622
I5
sasS'total_cqs'
p623
I5
ssI61
(dp624
S'iters'
p625
I0
sS'meta'
p626
(lp627
sS'total_cqs'
p628
I1
ssI62
(dp629
S'iters'
p630
I1
sS'meta'
p631
(lp632
(dp633
S'objective'
p634
I54
sS'query_time'
p635
F0.012310028076171875
sS'comp_time'
p636
F4.601478576660156e-05
sS'exec_cq'
p637
I1
sS'total_cq'
p638
I12
sasS'total_cqs'
p639
I12
ssI63
(dp640
S'iters'
p641
I0
sS'meta'
p642
(lp643
sS'total_cqs'
p644
I1
ssI64
(dp645
S'iters'
p646
I3
sS'meta'
p647
(lp648
(dp649
S'objective'
p650
I42
sS'query_time'
p651
F0.04245901107788086
sS'comp_time'
p652
F5.2928924560546875e-05
sS'exec_cq'
p653
I1
sS'total_cq'
p654
I12
sa(dp655
g650
I16
sg651
F0.0031261444091796875
sg652
F4.100799560546875e-05
sg653
I1
sg654
I3
sa(dp656
g650
I7
sg651
F0.0025899410247802734
sg652
F3.2901763916015625e-05
sg653
I1
sg654
I2
sasS'total_cqs'
p657
I12
ssI65
(dp658
S'iters'
p659
I2
sS'meta'
p660
(lp661
(dp662
S'objective'
p663
I278
sS'query_time'
p664
F0.03083491325378418
sS'comp_time'
p665
F5.984306335449219e-05
sS'exec_cq'
p666
I1
sS'total_cq'
p667
I27
sa(dp668
g663
I4
sg664
F0.003042936325073242
sg665
F3.0994415283203125e-05
sg666
I1
sg667
I2
sasS'total_cqs'
p669
I27
ssI66
(dp670
S'iters'
p671
I0
sS'meta'
p672
(lp673
sS'total_cqs'
p674
I1
ssI67
(dp675
S'iters'
p676
I1
sS'meta'
p677
(lp678
(dp679
S'objective'
p680
I560
sS'query_time'
p681
F0.5831489562988281
sS'comp_time'
p682
F7.200241088867188e-05
sS'exec_cq'
p683
I1
sS'total_cq'
p684
I35
sasS'total_cqs'
p685
I35
ssI68
(dp686
S'iters'
p687
I0
sS'meta'
p688
(lp689
sS'total_cqs'
p690
I1
ssI69
(dp691
S'iters'
p692
I1
sS'meta'
p693
(lp694
(dp695
S'objective'
p696
I1224
sS'query_time'
p697
F0.10697793960571289
sS'comp_time'
p698
F7.891654968261719e-05
sS'exec_cq'
p699
I1
sS'total_cq'
p700
I51
sasS'total_cqs'
p701
I51
ssI70
(dp702
S'iters'
p703
I1
sS'meta'
p704
(lp705
(dp706
S'objective'
p707
I9
sS'query_time'
p708
F0.010351896286010742
sS'comp_time'
p709
F4.887580871582031e-05
sS'exec_cq'
p710
I1
sS'total_cq'
p711
I6
sasS'total_cqs'
p712
I6
ssI71
(dp713
S'iters'
p714
I1
sS'meta'
p715
(lp716
(dp717
S'objective'
p718
I3485
sS'query_time'
p719
F0.07815408706665039
sS'comp_time'
p720
F6.818771362304688e-05
sS'exec_cq'
p721
I1
sS'total_cq'
p722
I85
sasS'total_cqs'
p723
I85
ssI72
(dp724
S'iters'
p725
I1
sS'meta'
p726
(lp727
(dp728
S'objective'
p729
I20
sS'query_time'
p730
F0.00860285758972168
sS'comp_time'
p731
F5.817413330078125e-05
sS'exec_cq'
p732
I1
sS'total_cq'
p733
I8
sasS'total_cqs'
p734
I8
ssI73
(dp735
S'iters'
p736
I0
sS'meta'
p737
(lp738
sS'total_cqs'
p739
I1
ssI74
(dp740
S'iters'
p741
I0
sS'meta'
p742
(lp743
sS'total_cqs'
p744
I1
ssI75
(dp745
S'iters'
p746
I1
sS'meta'
p747
(lp748
(dp749
S'objective'
p750
I5
sS'query_time'
p751
F0.0047380924224853516
sS'comp_time'
p752
F4.8160552978515625e-05
sS'exec_cq'
p753
I1
sS'total_cq'
p754
I5
sasS'total_cqs'
p755
I5
ssI76
(dp756
S'iters'
p757
I1
sS'meta'
p758
(lp759
(dp760
S'objective'
p761
I1
sS'query_time'
p762
F0.012035846710205078
sS'comp_time'
p763
F5.3882598876953125e-05
sS'exec_cq'
p764
I1
sS'total_cq'
p765
I2
sasS'total_cqs'
p766
I2
ssI77
(dp767
S'iters'
p768
I0
sS'meta'
p769
(lp770
sS'total_cqs'
p771
I1
ssI78
(dp772
S'iters'
p773
I0
sS'meta'
p774
(lp775
sS'total_cqs'
p776
I1
ssI103
(dp777
S'iters'
p778
I1
sS'meta'
p779
(lp780
(dp781
S'objective'
p782
I54
sS'query_time'
p783
F0.026695966720581055
sS'comp_time'
p784
F6.198883056640625e-05
sS'exec_cq'
p785
I1
sS'total_cq'
p786
I12
sasS'total_cqs'
p787
I12
ssI104
(dp788
S'iters'
p789
I1
sS'meta'
p790
(lp791
(dp792
S'objective'
p793
I2
sS'query_time'
p794
F1.1468031406402588
sS'comp_time'
p795
F7.390975952148438e-05
sS'exec_cq'
p796
I1
sS'total_cq'
p797
I4
sasS'total_cqs'
p798
I4
ssI105
(dp799
S'iters'
p800
I0
sS'meta'
p801
(lp802
sS'total_cqs'
p803
I1
ssI106
(dp804
S'iters'
p805
I1
sS'meta'
p806
(lp807
(dp808
S'objective'
p809
I2
sS'query_time'
p810
F0.012187004089355469
sS'comp_time'
p811
F4.696846008300781e-05
sS'exec_cq'
p812
I1
sS'total_cq'
p813
I4
sasS'total_cqs'
p814
I4
ssI107
(dp815
S'iters'
p816
I1
sS'meta'
p817
(lp818
(dp819
S'objective'
p820
I104
sS'query_time'
p821
F0.05714297294616699
sS'comp_time'
p822
F6.818771362304688e-05
sS'exec_cq'
p823
I1
sS'total_cq'
p824
I16
sasS'total_cqs'
p825
I16
ssI108
(dp826
S'iters'
p827
I0
sS'meta'
p828
(lp829
sS'total_cqs'
p830
I1
ss.