(dp0
I1
(dp1
S'iters'
p2
I3
sS'meta'
p3
(lp4
(dp5
S'objective'
p6
I48
sS'query_time'
p7
F0.04601883888244629
sS'comp_time'
p8
F0.01786947250366211
sS'exec_cq'
p9
I12
sS'total_cq'
p10
I12
sa(dp11
g6
I39
sg7
F5.507469177246094e-05
sg8
F0.00020003318786621094
sg9
I10
sg10
I10
sa(dp12
g6
I31
sg7
F5.1021575927734375e-05
sg8
F0.0001418590545654297
sg9
I9
sg10
I9
sasS'total_cqs'
p13
I12
ssI2
(dp14
S'iters'
p15
I4
sS'meta'
p16
(lp17
(dp18
S'objective'
p19
I236
sS'query_time'
p20
F0.052973031997680664
sS'comp_time'
p21
F0.054563045501708984
sS'exec_cq'
p22
I14
sS'total_cq'
p23
I27
sa(dp24
g19
I247
sg20
F0.0492100715637207
sg21
F0.0005848407745361328
sg22
I13
sg23
I24
sa(dp25
g19
I201
sg20
F6.914138793945312e-05
sg21
F0.0002982616424560547
sg22
I11
sg23
I20
sa(dp26
g19
I195
sg20
F5.078315734863281e-05
sg21
F0.00022220611572265625
sg22
I9
sg23
I18
sasS'total_cqs'
p27
I27
ssI3
(dp28
S'iters'
p29
I4
sS'meta'
p30
(lp31
(dp32
S'objective'
p33
I208
sS'query_time'
p34
F75.8956389427185
sS'comp_time'
p35
F0.6086609363555908
sS'exec_cq'
p36
I16
sS'total_cq'
p37
I43
sa(dp38
g33
I31
sg34
F108.71840190887451
sg35
F2.2066359519958496
sg36
I14
sg37
I27
sa(dp39
g33
I1
sg34
F42.2560760974884
sg35
F0.6732156276702881
sg36
I9
sg37
I13
sa(dp40
g33
I69
sg34
F11.790318965911865
sg35
F0.0021271705627441406
sg36
I6
sg37
I6
sasS'total_cqs'
p41
I43
ssI4
(dp42
S'iters'
p43
I2
sS'meta'
p44
(lp45
(dp46
S'objective'
p47
I42
sS'query_time'
p48
F4.9706871509552
sS'comp_time'
p49
F1.3102281093597412
sS'exec_cq'
p50
I11
sS'total_cq'
p51
I11
sa(dp52
g47
I8
sg48
F0.3790559768676758
sg49
F1.2901201248168945
sg50
I2
sg51
I2
sasS'total_cqs'
p53
I11
ssI5
(dp54
S'iters'
p55
I3
sS'meta'
p56
(lp57
(dp58
S'objective'
p59
I0
sS'query_time'
p60
F32.08733606338501
sS'comp_time'
p61
F3.652229070663452
sS'exec_cq'
p62
I8
sS'total_cq'
p63
I8
sa(dp64
g59
I2
sg60
F0.005712985992431641
sg61
F0.0330507755279541
sg62
I3
sg63
I3
sa(dp65
g59
I4
sg60
F0.005194902420043945
sg61
F0.03271007537841797
sg62
I2
sg63
I2
sasS'total_cqs'
p66
I8
ssI6
(dp67
S'iters'
p68
I3
sS'meta'
p69
(lp70
(dp71
S'objective'
p72
I63
sS'query_time'
p73
F34.55663990974426
sS'comp_time'
p74
F5.72939395904541
sS'exec_cq'
p75
I18
sS'total_cq'
p76
I18
sa(dp77
g72
I0
sg73
F0.9101040363311768
sg74
F5.880561828613281
sg75
I7
sg76
I7
sa(dp78
g72
I3
sg73
F0.5150370597839355
sg74
F3.1377453804016113
sg75
I3
sg76
I3
sasS'total_cqs'
p79
I18
ssI7
(dp80
S'iters'
p81
I3
sS'meta'
p82
(lp83
(dp84
S'objective'
p85
I1
sS'query_time'
p86
F13.593955993652344
sS'comp_time'
p87
F2.123051881790161
sS'exec_cq'
p88
I9
sS'total_cq'
p89
I9
sa(dp90
g85
I2
sg86
F0.004706859588623047
sg87
F0.023440837860107422
sg88
I4
sg89
I4
sa(dp91
g85
I4
sg86
F0.0034258365631103516
sg87
F0.19015192985534668
sg88
I2
sg89
I2
sasS'total_cqs'
p92
I9
ssI8
(dp93
S'iters'
p94
I3
sS'meta'
p95
(lp96
(dp97
S'objective'
p98
I288
sS'query_time'
p99
F0.06033682823181152
sS'comp_time'
p100
F0.03261923789978027
sS'exec_cq'
p101
I14
sS'total_cq'
p102
I27
sa(dp103
g98
I269
sg99
F0.05467081069946289
sg100
F0.0005900859832763672
sg101
I13
sg102
I22
sa(dp104
g98
I12
sg99
F0.0009200572967529297
sg100
F0.0004851818084716797
sg101
I2
sg102
I2
sasS'total_cqs'
p105
I27
ssI9
(dp106
S'iters'
p107
I3
sS'meta'
p108
(lp109
(dp110
S'objective'
p111
I2
sS'query_time'
p112
F0.05267190933227539
sS'comp_time'
p113
F0.004501819610595703
sS'exec_cq'
p114
I7
sS'total_cq'
p115
I7
sa(dp116
g111
I3
sg112
F2.6941299438476562e-05
sg113
F0.00019884109497070312
sg114
I4
sg115
I4
sa(dp117
g111
I5
sg112
F1.5020370483398438e-05
sg113
F7.486343383789062e-05
sg114
I2
sg115
I2
sasS'total_cqs'
p118
I7
ssI10
(dp119
S'iters'
p120
I4
sS'meta'
p121
(lp122
(dp123
S'objective'
p124
I524
sS'query_time'
p125
F0.2155771255493164
sS'comp_time'
p126
F0.09171676635742188
sS'exec_cq'
p127
I28
sS'total_cq'
p128
I51
sa(dp129
g124
I363
sg125
F0.14398908615112305
sg126
F0.0016531944274902344
sg127
I23
sg128
I37
sa(dp130
g124
I506
sg125
F6.508827209472656e-05
sg126
F0.0005600452423095703
sg127
I11
sg128
I25
sa(dp131
g124
I11
sg125
F0.0009799003601074219
sg126
F0.0004761219024658203
sg127
I3
sg128
I3
sasS'total_cqs'
p132
I51
ssI11
(dp133
S'iters'
p134
I5
sS'meta'
p135
(lp136
(dp137
S'objective'
p138
I882
sS'query_time'
p139
F0.6750569343566895
sS'comp_time'
p140
F0.18355655670166016
sS'exec_cq'
p141
I63
sS'total_cq'
p142
I63
sa(dp143
g138
I1005
sg139
F0.0013308525085449219
sg140
F0.019259214401245117
sg141
I47
sg142
I47
sa(dp144
g138
I20
sg139
F0.002112865447998047
sg140
F0.002863168716430664
sg141
I9
sg142
I9
sa(dp145
g138
I9
sg139
F3.218650817871094e-05
sg140
F0.0001850128173828125
sg141
I4
sg142
I4
sa(dp146
g138
I33
sg139
F1.5020370483398438e-05
sg140
F8.797645568847656e-05
sg141
I2
sg142
I2
sasS'total_cqs'
p147
I63
ssI12
(dp148
S'iters'
p149
I5
sS'meta'
p150
(lp151
(dp152
S'objective'
p153
I485
sS'query_time'
p154
F0.26078104972839355
sS'comp_time'
p155
F0.1199042797088623
sS'exec_cq'
p156
I28
sS'total_cq'
p157
I50
sa(dp158
g153
I400
sg154
F0.17406702041625977
sg155
F0.0027234554290771484
sg156
I22
sg157
I33
sa(dp159
g153
I16
sg154
F0.0012841224670410156
sg155
F0.0015592575073242188
sg156
I8
sg157
I8
sa(dp160
g153
I8
sg154
F3.2901763916015625e-05
sg155
F0.00014925003051757812
sg156
I4
sg157
I4
sa(dp161
g153
I10
sg154
F1.5974044799804688e-05
sg155
F8.702278137207031e-05
sg156
I2
sg157
I2
sasS'total_cqs'
p162
I50
ssI13
(dp163
S'iters'
p164
I3
sS'meta'
p165
(lp166
(dp167
S'objective'
p168
I16
sS'query_time'
p169
F0.17435288429260254
sS'comp_time'
p170
F0.03623461723327637
sS'exec_cq'
p171
I20
sS'total_cq'
p172
I20
sa(dp173
g168
I49
sg169
F6.389617919921875e-05
sg170
F0.0004715919494628906
sg171
I9
sg172
I9
sa(dp174
g168
I8
sg169
F0.0018668174743652344
sg170
F0.0002110004425048828
sg171
I2
sg172
I2
sasS'total_cqs'
p175
I20
ssI14
(dp176
S'iters'
p177
I3
sS'meta'
p178
(lp179
(dp180
S'objective'
p181
I1
sS'query_time'
p182
F32.46328020095825
sS'comp_time'
p183
F1.7986421585083008
sS'exec_cq'
p184
I9
sS'total_cq'
p185
I9
sa(dp186
g181
I0
sg182
F0.009810209274291992
sg183
F0.20709776878356934
sg184
I5
sg185
I5
sa(dp187
g181
I5
sg182
F0.0032618045806884766
sg183
F0.021097898483276367
sg184
I3
sg185
I3
sasS'total_cqs'
p188
I9
ssI15
(dp189
S'iters'
p190
I3
sS'meta'
p191
(lp192
(dp193
S'objective'
p194
I0
sS'query_time'
p195
F3.7806460857391357
sS'comp_time'
p196
F0.29134106636047363
sS'exec_cq'
p197
I11
sS'total_cq'
p198
I11
sa(dp199
g194
I3
sg195
F0.0012340545654296875
sg196
F0.005883932113647461
sg197
I7
sg198
I7
sa(dp200
g194
I2
sg195
F0.0007619857788085938
sg196
F0.004163503646850586
sg197
I2
sg198
I2
sasS'total_cqs'
p201
I11
ssI16
(dp202
S'iters'
p203
I1
sS'meta'
p204
(lp205
(dp206
S'objective'
p207
I22
sS'query_time'
p208
F0.03181004524230957
sS'comp_time'
p209
F0.004347324371337891
sS'exec_cq'
p210
I8
sS'total_cq'
p211
I8
sasS'total_cqs'
p212
I8
ssI17
(dp213
S'iters'
p214
I3
sS'meta'
p215
(lp216
(dp217
S'objective'
p218
I0
sS'query_time'
p219
F0.883167028427124
sS'comp_time'
p220
F0.05035543441772461
sS'exec_cq'
p221
I11
sS'total_cq'
p222
I11
sa(dp223
g218
I9
sg219
F0.0028600692749023438
sg220
F0.01742386817932129
sg221
I6
sg222
I6
sa(dp224
g218
I8
sg219
F0.002401113510131836
sg220
F0.016377687454223633
sg221
I2
sg222
I2
sasS'total_cqs'
p225
I11
ssI18
(dp226
S'iters'
p227
I2
sS'meta'
p228
(lp229
(dp230
S'objective'
p231
I28
sS'query_time'
p232
F0.14992618560791016
sS'comp_time'
p233
F0.051667213439941406
sS'exec_cq'
p234
I6
sS'total_cq'
p235
I11
sa(dp236
g231
I27
sg232
F0.09334707260131836
sg233
F0.0006384849548339844
sg234
I7
sg235
I8
sasS'total_cqs'
p237
I11
ssI22
(dp238
S'iters'
p239
I1
sS'meta'
p240
(lp241
(dp242
S'objective'
p243
I141
sS'query_time'
p244
F0.13360905647277832
sS'comp_time'
p245
F0.02874016761779785
sS'exec_cq'
p246
I18
sS'total_cq'
p247
I18
sasS'total_cqs'
p248
I18
ssI23
(dp249
S'iters'
p250
I2
sS'meta'
p251
(lp252
(dp253
S'objective'
p254
I106
sS'query_time'
p255
F0.04134178161621094
sS'comp_time'
p256
F0.024203062057495117
sS'exec_cq'
p257
I8
sS'total_cq'
p258
I16
sa(dp259
g254
I95
sg255
F3.1948089599609375e-05
sg256
F0.00011181831359863281
sg257
I7
sg258
I15
sasS'total_cqs'
p260
I16
ssI26
(dp261
S'iters'
p262
I1
sS'meta'
p263
(lp264
(dp265
S'objective'
p266
I837
sS'query_time'
p267
F0.11438703536987305
sS'comp_time'
p268
F0.1053612232208252
sS'exec_cq'
p269
I42
sS'total_cq'
p270
I42
sasS'total_cqs'
p271
I42
ssI27
(dp272
S'iters'
p273
I3
sS'meta'
p274
(lp275
(dp276
S'objective'
p277
I239
sS'query_time'
p278
F22.095916986465454
sS'comp_time'
p279
F3.4329042434692383
sS'exec_cq'
p280
I30
sS'total_cq'
p281
I30
sa(dp282
g277
I7
sg278
F0.46414995193481445
sg279
F3.2262282371520996
sg280
I5
sg281
I5
sa(dp283
g277
I12
sg278
F0.024261951446533203
sg279
F0.34331274032592773
sg280
I3
sg281
I3
sasS'total_cqs'
p284
I30
ssI29
(dp285
S'iters'
p286
I5
sS'meta'
p287
(lp288
(dp289
S'objective'
p290
I223
sS'query_time'
p291
F27.407322883605957
sS'comp_time'
p292
F0.7117166519165039
sS'exec_cq'
p293
I35
sS'total_cq'
p294
I49
sa(dp295
g290
I3
sg291
F0.02153491973876953
sg292
F0.17182636260986328
sg293
I17
sg294
I17
sa(dp296
g290
I2
sg291
F0.0015299320220947266
sg292
F0.007051944732666016
sg293
I9
sg294
I9
sa(dp297
g290
I5
sg291
F0.0006749629974365234
sg292
F0.004156589508056641
sg293
I4
sg294
I4
sa(dp298
g290
I10
sg291
F0.0005750656127929688
sg292
F0.003607034683227539
sg293
I2
sg294
I2
sasS'total_cqs'
p299
I49
ssI30
(dp300
S'iters'
p301
I1
sS'meta'
p302
(lp303
(dp304
S'objective'
p305
I1
sS'query_time'
p306
F0.6476688385009766
sS'comp_time'
p307
F0.0378413200378418
sS'exec_cq'
p308
I2
sS'total_cq'
p309
I2
sasS'total_cqs'
p310
I2
ssI32
(dp311
S'iters'
p312
I1
sS'meta'
p313
(lp314
(dp315
S'objective'
p316
I1
sS'query_time'
p317
F0.011570930480957031
sS'comp_time'
p318
F0.0021810531616210938
sS'exec_cq'
p319
I2
sS'total_cq'
p320
I2
sasS'total_cqs'
p321
I2
ssI33
(dp322
S'iters'
p323
I5
sS'meta'
p324
(lp325
(dp326
S'objective'
p327
I3902
sS'query_time'
p328
F16.90689706802368
sS'comp_time'
p329
F1.0440819263458252
sS'exec_cq'
p330
I103
sS'total_cq'
p331
I103
sa(dp332
g327
I27
sg328
F0.012742996215820312
sg329
F0.03911900520324707
sg330
I16
sg331
I16
sa(dp333
g327
I5
sg328
F0.11679792404174805
sg329
F0.012370109558105469
sg330
I8
sg331
I8
sa(dp334
g327
I5
sg328
F0.0011720657348632812
sg329
F0.006284952163696289
sg330
I4
sg331
I4
sa(dp335
g327
I65
sg328
F0.0003249645233154297
sg329
F0.002080678939819336
sg330
I2
sg331
I2
sasS'total_cqs'
p336
I103
ssI34
(dp337
S'iters'
p338
I1
sS'meta'
p339
(lp340
(dp341
S'objective'
p342
I1
sS'query_time'
p343
F0.018866777420043945
sS'comp_time'
p344
F0.0031681060791015625
sS'exec_cq'
p345
I2
sS'total_cq'
p346
I2
sasS'total_cqs'
p347
I2
ssI35
(dp348
S'iters'
p349
I5
sS'meta'
p350
(lp351
(dp352
S'objective'
p353
I1395
sS'query_time'
p354
F23.120859146118164
sS'comp_time'
p355
F0.21013569831848145
sS'exec_cq'
p356
I50
sS'total_cq'
p357
I70
sa(dp358
g353
I79
sg354
F0.0047991275787353516
sg355
F0.19795870780944824
sg356
I16
sg357
I16
sa(dp359
g353
I6
sg354
F0.002516031265258789
sg355
F0.009020090103149414
sg356
I7
sg357
I7
sa(dp360
g353
I9
sg354
F0.00019788742065429688
sg355
F0.0011701583862304688
sg356
I4
sg357
I4
sa(dp361
g353
I36
sg354
F0.00011301040649414062
sg355
F0.0007388591766357422
sg356
I2
sg357
I2
sasS'total_cqs'
p362
I70
ssI36
(dp363
S'iters'
p364
I2
sS'meta'
p365
(lp366
(dp367
S'objective'
p368
I429
sS'query_time'
p369
F0.7975039482116699
sS'comp_time'
p370
F0.07757925987243652
sS'exec_cq'
p371
I33
sS'total_cq'
p372
I33
sa(dp373
g368
I443
sg369
F0.0038840770721435547
sg370
F0.003870248794555664
sg371
I28
sg372
I29
sasS'total_cqs'
p374
I33
ssI37
(dp375
S'iters'
p376
I1
sS'meta'
p377
(lp378
(dp379
S'objective'
p380
I1
sS'query_time'
p381
F0.009872913360595703
sS'comp_time'
p382
F0.0015709400177001953
sS'exec_cq'
p383
I2
sS'total_cq'
p384
I2
sasS'total_cqs'
p385
I2
ssI38
(dp386
S'iters'
p387
I2
sS'meta'
p388
(lp389
(dp390
S'objective'
p391
I0
sS'query_time'
p392
F0.043356895446777344
sS'comp_time'
p393
F0.003283977508544922
sS'exec_cq'
p394
I4
sS'total_cq'
p395
I4
sa(dp396
g391
I3
sg392
F9.107589721679688e-05
sg393
F0.0005600452423095703
sg394
I2
sg395
I2
sasS'total_cqs'
p397
I4
ssI39
(dp398
S'iters'
p399
I2
sS'meta'
p400
(lp401
(dp402
S'objective'
p403
I664
sS'query_time'
p404
F0.283038854598999
sS'comp_time'
p405
F0.08403611183166504
sS'exec_cq'
p406
I44
sS'total_cq'
p407
I44
sa(dp408
g403
I759
sg404
F0.0003829002380371094
sg405
F0.0022439956665039062
sg406
I37
sg407
I37
sasS'total_cqs'
p409
I44
ssI40
(dp410
S'iters'
p411
I1
sS'meta'
p412
(lp413
(dp414
S'objective'
p415
I14
sS'query_time'
p416
F0.031217098236083984
sS'comp_time'
p417
F0.00598597526550293
sS'exec_cq'
p418
I7
sS'total_cq'
p419
I7
sasS'total_cqs'
p420
I7
ssI41
(dp421
S'iters'
p422
I2
sS'meta'
p423
(lp424
(dp425
S'objective'
p426
I56
sS'query_time'
p427
F0.07030010223388672
sS'comp_time'
p428
F0.02211594581604004
sS'exec_cq'
p429
I12
sS'total_cq'
p430
I12
sa(dp431
g426
I47
sg427
F6.818771362304688e-05
sg428
F0.0001842975616455078
sg429
I11
sg430
I11
sasS'total_cqs'
p432
I12
ssI42
(dp433
S'iters'
p434
I1
sS'meta'
p435
(lp436
(dp437
S'objective'
p438
I797
sS'query_time'
p439
F0.09309506416320801
sS'comp_time'
p440
F0.19075727462768555
sS'exec_cq'
p441
I21
sS'total_cq'
p442
I41
sasS'total_cqs'
p443
I41
ssI43
(dp444
S'iters'
p445
I1
sS'meta'
p446
(lp447
(dp448
S'objective'
p449
I14
sS'query_time'
p450
F0.025457143783569336
sS'comp_time'
p451
F0.005650758743286133
sS'exec_cq'
p452
I7
sS'total_cq'
p453
I7
sasS'total_cqs'
p454
I7
ssI44
(dp455
S'iters'
p456
I4
sS'meta'
p457
(lp458
(dp459
S'objective'
p460
I844
sS'query_time'
p461
F0.1475999355316162
sS'comp_time'
p462
F0.1571962833404541
sS'exec_cq'
p463
I47
sS'total_cq'
p464
I47
sa(dp465
g460
I824
sg461
F0.00028395652770996094
sg462
F0.0015270709991455078
sg463
I40
sg464
I40
sa(dp466
g460
I35
sg461
F0.0013098716735839844
sg462
F0.0016138553619384766
sg463
I3
sg464
I3
sa(dp467
g460
I16
sg461
F2.5033950805664062e-05
sg462
F0.00012683868408203125
sg463
I2
sg464
I2
sasS'total_cqs'
p468
I47
ssI46
(dp469
S'iters'
p470
I1
sS'meta'
p471
(lp472
(dp473
S'objective'
p474
I9
sS'query_time'
p475
F0.015259981155395508
sS'comp_time'
p476
F0.002736806869506836
sS'exec_cq'
p477
I4
sS'total_cq'
p478
I6
sasS'total_cqs'
p479
I6
ssI47
(dp480
S'iters'
p481
I1
sS'meta'
p482
(lp483
(dp484
S'objective'
p485
I1
sS'query_time'
p486
F0.012969970703125
sS'comp_time'
p487
F0.0012290477752685547
sS'exec_cq'
p488
I2
sS'total_cq'
p489
I2
sasS'total_cqs'
p490
I2
ssI50
(dp491
S'iters'
p492
I1
sS'meta'
p493
(lp494
(dp495
S'objective'
p496
I5
sS'query_time'
p497
F0.012925863265991211
sS'comp_time'
p498
F0.002317667007446289
sS'exec_cq'
p499
I5
sS'total_cq'
p500
I5
sasS'total_cqs'
p501
I5
ssI51
(dp502
S'iters'
p503
I1
sS'meta'
p504
(lp505
(dp506
S'objective'
p507
I1
sS'query_time'
p508
F0.011839151382446289
sS'comp_time'
p509
F0.0010979175567626953
sS'exec_cq'
p510
I2
sS'total_cq'
p511
I2
sasS'total_cqs'
p512
I2
ssI52
(dp513
S'iters'
p514
I1
sS'meta'
p515
(lp516
(dp517
S'objective'
p518
I1
sS'query_time'
p519
F0.008745193481445312
sS'comp_time'
p520
F0.0009839534759521484
sS'exec_cq'
p521
I2
sS'total_cq'
p522
I2
sasS'total_cqs'
p523
I2
ssI53
(dp524
S'iters'
p525
I2
sS'meta'
p526
(lp527
(dp528
S'objective'
p529
I0
sS'query_time'
p530
F0.01997089385986328
sS'comp_time'
p531
F0.0026917457580566406
sS'exec_cq'
p532
I4
sS'total_cq'
p533
I4
sa(dp534
g529
I3
sg530
F9.989738464355469e-05
sg531
F0.0006449222564697266
sg532
I2
sg533
I2
sasS'total_cqs'
p535
I4
ssI54
(dp536
S'iters'
p537
I2
sS'meta'
p538
(lp539
(dp540
S'objective'
p541
I0
sS'query_time'
p542
F0.011994123458862305
sS'comp_time'
p543
F0.0016651153564453125
sS'exec_cq'
p544
I3
sS'total_cq'
p545
I3
sa(dp546
g541
I1
sg542
F4.506111145019531e-05
sg543
F0.0003032684326171875
sg544
I2
sg545
I2
sasS'total_cqs'
p547
I3
ssI55
(dp548
S'iters'
p549
I7
sS'meta'
p550
(lp551
(dp552
S'objective'
p553
I4649
sS'query_time'
p554
F2.3071060180664062
sS'comp_time'
p555
F0.7809417247772217
sS'exec_cq'
p556
I109
sS'total_cq'
p557
I109
sa(dp558
g553
I4458
sg554
F0.0008029937744140625
sg555
F0.0034580230712890625
sg556
I97
sg557
I97
sa(dp559
g553
I4496
sg554
F0.00035309791564941406
sg555
F0.0017478466033935547
sg556
I91
sg557
I91
sa(dp560
g553
I4363
sg554
F0.0003039836883544922
sg555
F0.0013921260833740234
sg556
I87
sg557
I87
sa(dp561
g553
I4314
sg554
F0.00028705596923828125
sg555
F0.0009958744049072266
sg556
I85
sg557
I85
sa(dp562
g553
I4223
sg554
F0.00025010108947753906
sg555
F0.0008051395416259766
sg556
I83
sg557
I83
sa(dp563
g553
I4156
sg554
F0.0002720355987548828
sg555
F0.0007374286651611328
sg556
I82
sg557
I82
sasS'total_cqs'
p564
I109
ssI56
(dp565
S'iters'
p566
I5
sS'meta'
p567
(lp568
(dp569
S'objective'
p570
I1770
sS'query_time'
p571
F1.845160961151123
sS'comp_time'
p572
F0.35221099853515625
sS'exec_cq'
p573
I67
sS'total_cq'
p574
I76
sa(dp575
g570
I12
sg571
F0.0071370601654052734
sg572
F0.021140098571777344
sg573
I16
sg574
I16
sa(dp576
g570
I5
sg571
F0.005066871643066406
sg572
F0.01438593864440918
sg573
I10
sg574
I10
sa(dp577
g570
I12
sg571
F0.00030303001403808594
sg572
F0.0017819404602050781
sg573
I3
sg574
I3
sa(dp578
g570
I35
sg571
F0.0002110004425048828
sg572
F0.0013751983642578125
sg573
I2
sg574
I2
sasS'total_cqs'
p579
I76
ssI57
(dp580
S'iters'
p581
I5
sS'meta'
p582
(lp583
(dp584
S'objective'
p585
I92
sS'query_time'
p586
F23.239832162857056
sS'comp_time'
p587
F0.3808927536010742
sS'exec_cq'
p588
I45
sS'total_cq'
p589
I51
sa(dp590
g585
I1
sg586
F0.01423788070678711
sg587
F0.033154964447021484
sg588
I27
sg589
I27
sa(dp591
g585
I4
sg586
F0.013354063034057617
sg587
F0.0356597900390625
sg588
I12
sg589
I12
sa(dp592
g585
I3
sg586
F0.09431791305541992
sg587
F0.022291183471679688
sg588
I7
sg589
I7
sa(dp593
g585
I11
sg586
F0.0011990070343017578
sg587
F0.0044710636138916016
sg588
I3
sg589
I3
sasS'total_cqs'
p594
I51
ssI58
(dp595
S'iters'
p596
I6
sS'meta'
p597
(lp598
(dp599
S'objective'
p600
I82923
sS'query_time'
p601
F113.20952200889587
sS'comp_time'
p602
F17.127304315567017
sS'exec_cq'
p603
I348
sS'total_cq'
p604
I486
sa(dp605
g600
I86952
sg601
F0.03843808174133301
sg602
F1.2799654006958008
sg603
I276
sg604
I414
sa(dp606
g600
I130
sg601
F0.01262211799621582
sg602
F0.07781982421875
sg603
I25
sg604
I25
sa(dp607
g600
I25
sg601
F0.010161876678466797
sg602
F0.026548385620117188
sg603
I13
sg604
I13
sa(dp608
g600
I83
sg601
F0.005177021026611328
sg602
F0.017751693725585938
sg603
I5
sg604
I5
sa(dp609
g600
I59
sg601
F0.0023500919342041016
sg602
F0.009141921997070312
sg603
I2
sg604
I2
sasS'total_cqs'
p610
I486
ssI59
(dp611
S'iters'
p612
I2
sS'meta'
p613
(lp614
(dp615
S'objective'
p616
I8
sS'query_time'
p617
F0.04841184616088867
sS'comp_time'
p618
F0.01696157455444336
sS'exec_cq'
p619
I7
sS'total_cq'
p620
I7
sa(dp621
g616
I4
sg617
F0.0001690387725830078
sg618
F0.0012390613555908203
sg619
I2
sg620
I2
sasS'total_cqs'
p622
I7
ssI60
(dp623
S'iters'
p624
I1
sS'meta'
p625
(lp626
(dp627
S'objective'
p628
I5
sS'query_time'
p629
F0.011937856674194336
sS'comp_time'
p630
F0.0023577213287353516
sS'exec_cq'
p631
I3
sS'total_cq'
p632
I5
sasS'total_cqs'
p633
I5
ssI62
(dp634
S'iters'
p635
I2
sS'meta'
p636
(lp637
(dp638
S'objective'
p639
I48
sS'query_time'
p640
F0.03086400032043457
sS'comp_time'
p641
F0.01649618148803711
sS'exec_cq'
p642
I12
sS'total_cq'
p643
I12
sa(dp644
g639
I43
sg640
F4.291534423828125e-05
sg641
F0.00015306472778320312
sg642
I9
sg643
I9
sasS'total_cqs'
p645
I12
ssI64
(dp646
S'iters'
p647
I3
sS'meta'
p648
(lp649
(dp650
S'objective'
p651
I8
sS'query_time'
p652
F0.11090612411499023
sS'comp_time'
p653
F0.011256694793701172
sS'exec_cq'
p654
I12
sS'total_cq'
p655
I12
sa(dp656
g651
I1
sg652
F0.0001819133758544922
sg653
F0.0011913776397705078
sg654
I4
sg655
I4
sa(dp657
g651
I2
sg652
F5.984306335449219e-05
sg653
F0.0003600120544433594
sg654
I2
sg655
I2
sasS'total_cqs'
p658
I12
ssI65
(dp659
S'iters'
p660
I4
sS'meta'
p661
(lp662
(dp663
S'objective'
p664
I120
sS'query_time'
p665
F0.7603740692138672
sS'comp_time'
p666
F0.22450780868530273
sS'exec_cq'
p667
I27
sS'total_cq'
p668
I27
sa(dp669
g664
I5
sg665
F0.0014510154724121094
sg666
F0.0053501129150390625
sg667
I7
sg668
I7
sa(dp670
g664
I4
sg665
F0.0003871917724609375
sg666
F0.002431631088256836
sg667
I4
sg668
I4
sa(dp671
g664
I11
sg665
F8.487701416015625e-05
sg666
F0.0005590915679931641
sg667
I2
sg668
I2
sasS'total_cqs'
p672
I27
ssI67
(dp673
S'iters'
p674
I2
sS'meta'
p675
(lp676
(dp677
S'objective'
p678
I556
sS'query_time'
p679
F1.018815040588379
sS'comp_time'
p680
F0.1078178882598877
sS'exec_cq'
p681
I35
sS'total_cq'
p682
I35
sa(dp683
g678
I19
sg679
F0.0013480186462402344
sg680
F0.009969472885131836
sg681
I2
sg682
I2
sasS'total_cqs'
p684
I35
ssI69
(dp685
S'iters'
p686
I1
sS'meta'
p687
(lp688
(dp689
S'objective'
p690
I1246
sS'query_time'
p691
F0.16271305084228516
sS'comp_time'
p692
F0.2017676830291748
sS'exec_cq'
p693
I51
sS'total_cq'
p694
I51
sasS'total_cqs'
p695
I51
ssI70
(dp696
S'iters'
p697
I1
sS'meta'
p698
(lp699
(dp700
S'objective'
p701
I9
sS'query_time'
p702
F0.018192052841186523
sS'comp_time'
p703
F0.002586841583251953
sS'exec_cq'
p704
I6
sS'total_cq'
p705
I6
sasS'total_cqs'
p706
I6
ssI71
(dp707
S'iters'
p708
I4
sS'meta'
p709
(lp710
(dp711
S'objective'
p712
I3223
sS'query_time'
p713
F0.27881598472595215
sS'comp_time'
p714
F0.17961597442626953
sS'exec_cq'
p715
I73
sS'total_cq'
p716
I85
sa(dp717
g712
I3197
sg713
F0.0002951622009277344
sg714
F0.0012507438659667969
sg715
I69
sg716
I81
sa(dp718
g712
I3088
sg713
F0.00023794174194335938
sg714
F0.0008456707000732422
sg715
I67
sg716
I79
sa(dp719
g712
I15
sg713
F0.0021300315856933594
sg714
F0.0031321048736572266
sg715
I3
sg716
I3
sasS'total_cqs'
p720
I85
ssI72
(dp721
S'iters'
p722
I3
sS'meta'
p723
(lp724
(dp725
S'objective'
p726
I10
sS'query_time'
p727
F0.2330639362335205
sS'comp_time'
p728
F0.005262136459350586
sS'exec_cq'
p729
I4
sS'total_cq'
p730
I8
sa(dp731
g726
I1
sg727
F0.024086952209472656
sg728
F0.0003292560577392578
sg729
I4
sg730
I5
sa(dp732
g726
I2
sg727
F5.602836608886719e-05
sg728
F0.0002799034118652344
sg729
I2
sg730
I3
sasS'total_cqs'
p733
I8
ssI75
(dp734
S'iters'
p735
I1
sS'meta'
p736
(lp737
(dp738
S'objective'
p739
I5
sS'query_time'
p740
F0.013659954071044922
sS'comp_time'
p741
F0.0016748905181884766
sS'exec_cq'
p742
I5
sS'total_cq'
p743
I5
sasS'total_cqs'
p744
I5
ssI76
(dp745
S'iters'
p746
I1
sS'meta'
p747
(lp748
(dp749
S'objective'
p750
I1
sS'query_time'
p751
F0.013117074966430664
sS'comp_time'
p752
F0.0011038780212402344
sS'exec_cq'
p753
I2
sS'total_cq'
p754
I2
sasS'total_cqs'
p755
I2
ssI103
(dp756
S'iters'
p757
I1
sS'meta'
p758
(lp759
(dp760
S'objective'
p761
I58
sS'query_time'
p762
F0.05212998390197754
sS'comp_time'
p763
F0.015892982482910156
sS'exec_cq'
p764
I12
sS'total_cq'
p765
I12
sasS'total_cqs'
p766
I12
ssI104
(dp767
S'iters'
p768
I2
sS'meta'
p769
(lp770
(dp771
S'objective'
p772
I0
sS'query_time'
p773
F1.3715860843658447
sS'comp_time'
p774
F0.19320940971374512
sS'exec_cq'
p775
I4
sS'total_cq'
p776
I4
sa(dp777
g772
I3
sg773
F0.012378931045532227
sg774
F0.15525293350219727
sg775
I2
sg776
I2
sasS'total_cqs'
p778
I4
ssI106
(dp779
S'iters'
p780
I1
sS'meta'
p781
(lp782
(dp783
S'objective'
p784
I2
sS'query_time'
p785
F0.024982929229736328
sS'comp_time'
p786
F0.0019381046295166016
sS'exec_cq'
p787
I4
sS'total_cq'
p788
I4
sasS'total_cqs'
p789
I4
ssI107
(dp790
S'iters'
p791
I2
sS'meta'
p792
(lp793
(dp794
S'objective'
p795
I72
sS'query_time'
p796
F0.0752871036529541
sS'comp_time'
p797
F0.01175689697265625
sS'exec_cq'
p798
I16
sS'total_cq'
p799
I16
sa(dp800
g795
I6
sg796
F0.006078958511352539
sg797
F0.0003571510314941406
sg798
I3
sg799
I3
sasS'total_cqs'
p801
I16
ss.