(dp0
I1
(dp1
S'iters'
p2
I3
sS'meta'
p3
(lp4
(dp5
S'objective'
p6
I44
sS'query_time'
p7
F0.05289793014526367
sS'comp_time'
p8
F0.0227205753326416
sS'exec_cq'
p9
I12
sS'total_cq'
p10
I12
sa(dp11
g6
I43
sg7
F7.200241088867188e-05
sg8
F0.0002281665802001953
sg9
I10
sg10
I10
sa(dp12
g6
I38
sg7
F5.698204040527344e-05
sg8
F0.00016188621520996094
sg9
I9
sg10
I9
sasS'total_cqs'
p13
I12
ssI2
(dp14
S'iters'
p15
I4
sS'meta'
p16
(lp17
(dp18
S'objective'
p19
I192
sS'query_time'
p20
F0.05765104293823242
sS'comp_time'
p21
F0.02980804443359375
sS'exec_cq'
p22
I13
sS'total_cq'
p23
I27
sa(dp24
g19
I209
sg20
F0.0760810375213623
sg21
F0.0010721683502197266
sg22
I14
sg23
I23
sa(dp25
g19
I209
sg20
F0.00011897087097167969
sg21
F0.0005888938903808594
sg22
I11
sg23
I20
sa(dp26
g19
I198
sg20
F5.984306335449219e-05
sg21
F0.00026726722717285156
sg22
I9
sg23
I18
sasS'total_cqs'
p27
I27
ssI3
(dp28
S'iters'
p29
I4
sS'meta'
p30
(lp31
(dp32
S'objective'
p33
I212
sS'query_time'
p34
F77.69755411148071
sS'comp_time'
p35
F0.5804352760314941
sS'exec_cq'
p36
I16
sS'total_cq'
p37
I43
sa(dp38
g33
I91
sg34
F108.3761088848114
sg35
F2.2094528675079346
sg36
I14
sg37
I27
sa(dp39
g33
I74
sg34
F41.751046895980835
sg35
F0.6683120727539062
sg36
I9
sg37
I13
sa(dp40
g33
I39
sg34
F11.769536256790161
sg35
F0.0014622211456298828
sg36
I6
sg37
I6
sasS'total_cqs'
p41
I43
ssI4
(dp42
S'iters'
p43
I2
sS'meta'
p44
(lp45
(dp46
S'objective'
p47
I50
sS'query_time'
p48
F5.097275972366333
sS'comp_time'
p49
F0.8648467063903809
sS'exec_cq'
p50
I11
sS'total_cq'
p51
I11
sa(dp52
g47
I6
sg48
F0.2004709243774414
sg49
F0.8812611103057861
sg50
I2
sg51
I2
sasS'total_cqs'
p53
I11
ssI5
(dp54
S'iters'
p55
I3
sS'meta'
p56
(lp57
(dp58
S'objective'
p59
I0
sS'query_time'
p60
F34.39518094062805
sS'comp_time'
p61
F4.5085813999176025
sS'exec_cq'
p62
I8
sS'total_cq'
p63
I8
sa(dp64
g59
I0
sg60
F0.10333704948425293
sg61
F1.540297031402588
sg62
I5
sg63
I5
sa(dp65
g59
I1
sg60
F0.24498200416564941
sg61
F1.1659753322601318
sg62
I2
sg63
I2
sasS'total_cqs'
p66
I8
ssI6
(dp67
S'iters'
p68
I4
sS'meta'
p69
(lp70
(dp71
S'objective'
p72
I29
sS'query_time'
p73
F36.63093709945679
sS'comp_time'
p74
F3.5868728160858154
sS'exec_cq'
p75
I18
sS'total_cq'
p76
I18
sa(dp77
g72
I1
sg73
F0.624871015548706
sg74
F3.5291757583618164
sg75
I7
sg76
I7
sa(dp78
g72
I2
sg73
F0.47812509536743164
sg74
F2.8148443698883057
sg75
I3
sg76
I3
sa(dp79
g72
I1
sg73
F0.3356630802154541
sg74
F1.9430229663848877
sg75
I2
sg76
I2
sasS'total_cqs'
p80
I18
ssI7
(dp81
S'iters'
p82
I3
sS'meta'
p83
(lp84
(dp85
S'objective'
p86
I1
sS'query_time'
p87
F13.29068899154663
sS'comp_time'
p88
F2.425323009490967
sS'exec_cq'
p89
I9
sS'total_cq'
p90
I9
sa(dp91
g86
I1
sg87
F0.4352569580078125
sg88
F2.125565528869629
sg89
I6
sg90
I6
sa(dp92
g86
I1
sg87
F0.28949785232543945
sg88
F0.9921402931213379
sg89
I3
sg90
I3
sasS'total_cqs'
p93
I9
ssI8
(dp94
S'iters'
p95
I3
sS'meta'
p96
(lp97
(dp98
S'objective'
p99
I226
sS'query_time'
p100
F0.10376501083374023
sS'comp_time'
p101
F0.029468059539794922
sS'exec_cq'
p102
I14
sS'total_cq'
p103
I27
sa(dp104
g99
I218
sg100
F0.05391216278076172
sg101
F0.00057220458984375
sg102
I13
sg103
I22
sa(dp105
g99
I230
sg100
F4.220008850097656e-05
sg101
F0.00017118453979492188
sg102
I10
sg103
I19
sasS'total_cqs'
p106
I27
ssI9
(dp107
S'iters'
p108
I3
sS'meta'
p109
(lp110
(dp111
S'objective'
p112
I2
sS'query_time'
p113
F0.05477499961853027
sS'comp_time'
p114
F0.004615068435668945
sS'exec_cq'
p115
I7
sS'total_cq'
p116
I7
sa(dp117
g112
I3
sg113
F5.1975250244140625e-05
sg114
F0.000293731689453125
sg115
I5
sg116
I5
sa(dp118
g112
I4
sg113
F1.6927719116210938e-05
sg114
F0.00011086463928222656
sg115
I2
sg116
I2
sasS'total_cqs'
p119
I7
ssI10
(dp120
S'iters'
p121
I5
sS'meta'
p122
(lp123
(dp124
S'objective'
p125
I538
sS'query_time'
p126
F0.21461987495422363
sS'comp_time'
p127
F0.0872793197631836
sS'exec_cq'
p128
I28
sS'total_cq'
p129
I51
sa(dp130
g125
I352
sg126
F0.1676938533782959
sg127
F0.00183868408203125
sg128
I23
sg129
I37
sa(dp131
g125
I2
sg126
F0.0018320083618164062
sg127
F0.0012540817260742188
sg128
I12
sg129
I12
sa(dp132
g125
I4
sg126
F7.605552673339844e-05
sg127
F0.00042128562927246094
sg128
I6
sg129
I6
sa(dp133
g125
I20
sg126
F1.5020370483398438e-05
sg127
F0.00012421607971191406
sg128
I2
sg129
I2
sasS'total_cqs'
p134
I51
ssI11
(dp135
S'iters'
p136
I5
sS'meta'
p137
(lp138
(dp139
S'objective'
p140
I1002
sS'query_time'
p141
F0.6073548793792725
sS'comp_time'
p142
F0.20874381065368652
sS'exec_cq'
p143
I63
sS'total_cq'
p144
I63
sa(dp145
g140
I929
sg141
F0.0012698173522949219
sg142
F0.006911039352416992
sg143
I47
sg144
I47
sa(dp146
g140
I6
sg141
F0.0019390583038330078
sg142
F0.0027132034301757812
sg143
I9
sg144
I9
sa(dp147
g140
I24
sg141
F3.790855407714844e-05
sg142
F0.00016808509826660156
sg143
I5
sg144
I5
sa(dp148
g140
I17
sg141
F1.4066696166992188e-05
sg142
F9.059906005859375e-05
sg143
I2
sg144
I2
sasS'total_cqs'
p149
I63
ssI12
(dp150
S'iters'
p151
I5
sS'meta'
p152
(lp153
(dp154
S'objective'
p155
I223
sS'query_time'
p156
F0.17653894424438477
sS'comp_time'
p157
F0.09759116172790527
sS'exec_cq'
p158
I28
sS'total_cq'
p159
I50
sa(dp160
g155
I305
sg156
F0.15712404251098633
sg157
F0.002962827682495117
sg158
I22
sg159
I33
sa(dp161
g155
I353
sg156
F0.00013709068298339844
sg157
F0.0006909370422363281
sg158
I15
sg159
I26
sa(dp162
g155
I7
sg156
F0.0017480850219726562
sg157
F0.000518798828125
sg158
I5
sg159
I5
sa(dp163
g155
I12
sg156
F2.3126602172851562e-05
sg157
F0.00015306472778320312
sg158
I2
sg159
I2
sasS'total_cqs'
p164
I50
ssI13
(dp165
S'iters'
p166
I5
sS'meta'
p167
(lp168
(dp169
S'objective'
p170
I10
sS'query_time'
p171
F0.16351103782653809
sS'comp_time'
p172
F0.030425310134887695
sS'exec_cq'
p173
I20
sS'total_cq'
p174
I20
sa(dp175
g170
I6
sg171
F0.001867055892944336
sg172
F0.000978231430053711
sg173
I11
sg174
I11
sa(dp176
g170
I4
sg171
F4.696846008300781e-05
sg172
F0.0002753734588623047
sg173
I5
sg174
I5
sa(dp177
g170
I1
sg171
F3.1948089599609375e-05
sg172
F0.00017452239990234375
sg173
I3
sg174
I3
sa(dp178
g170
I7
sg171
F2.193450927734375e-05
sg172
F0.00010824203491210938
sg173
I2
sg174
I2
sasS'total_cqs'
p179
I20
ssI14
(dp180
S'iters'
p181
I3
sS'meta'
p182
(lp183
(dp184
S'objective'
p185
I1
sS'query_time'
p186
F34.840901136398315
sS'comp_time'
p187
F1.6580018997192383
sS'exec_cq'
p188
I9
sS'total_cq'
p189
I9
sa(dp190
g185
I1
sg186
F0.392179012298584
sg187
F1.7236149311065674
sg188
I5
sg189
I5
sa(dp191
g185
I0
sg186
F0.2522258758544922
sg187
F0.9879872798919678
sg188
I3
sg189
I3
sasS'total_cqs'
p192
I9
ssI15
(dp193
S'iters'
p194
I3
sS'meta'
p195
(lp196
(dp197
S'objective'
p198
I0
sS'query_time'
p199
F3.9367289543151855
sS'comp_time'
p200
F0.2961139678955078
sS'exec_cq'
p201
I11
sS'total_cq'
p202
I11
sa(dp203
g198
I3
sg199
F0.001508951187133789
sg200
F0.008120298385620117
sg201
I7
sg202
I7
sa(dp204
g198
I4
sg199
F0.0010750293731689453
sg200
F0.007555961608886719
sg201
I3
sg202
I3
sasS'total_cqs'
p205
I11
ssI16
(dp206
S'iters'
p207
I1
sS'meta'
p208
(lp209
(dp210
S'objective'
p211
I26
sS'query_time'
p212
F0.04236006736755371
sS'comp_time'
p213
F0.004445075988769531
sS'exec_cq'
p214
I8
sS'total_cq'
p215
I8
sasS'total_cqs'
p216
I8
ssI17
(dp217
S'iters'
p218
I3
sS'meta'
p219
(lp220
(dp221
S'objective'
p222
I6
sS'query_time'
p223
F0.9740791320800781
sS'comp_time'
p224
F0.04887986183166504
sS'exec_cq'
p225
I11
sS'total_cq'
p226
I11
sa(dp227
g222
I0
sg223
F0.006170988082885742
sg224
F0.022593021392822266
sg225
I6
sg226
I6
sa(dp228
g222
I4
sg223
F0.00016307830810546875
sg224
F0.0009970664978027344
sg225
I2
sg226
I2
sasS'total_cqs'
p229
I11
ssI18
(dp230
S'iters'
p231
I2
sS'meta'
p232
(lp233
(dp234
S'objective'
p235
I48
sS'query_time'
p236
F0.2076430320739746
sS'comp_time'
p237
F0.0500180721282959
sS'exec_cq'
p238
I11
sS'total_cq'
p239
I11
sa(dp240
g235
I43
sg236
F0.0008728504180908203
sg237
F0.0010712146759033203
sg238
I10
sg239
I10
sasS'total_cqs'
p241
I11
ssI19
(dp242
S'iters'
p243
I0
sS'meta'
p244
(lp245
sS'total_cqs'
p246
I1
ssI20
(dp247
S'iters'
p248
I0
sS'meta'
p249
(lp250
sS'total_cqs'
p251
I1
ssI21
(dp252
S'iters'
p253
I0
sS'meta'
p254
(lp255
sS'total_cqs'
p256
I1
ssI22
(dp257
S'iters'
p258
I1
sS'meta'
p259
(lp260
(dp261
S'objective'
p262
I151
sS'query_time'
p263
F0.08214807510375977
sS'comp_time'
p264
F0.035863637924194336
sS'exec_cq'
p265
I18
sS'total_cq'
p266
I18
sasS'total_cqs'
p267
I18
ssI23
(dp268
S'iters'
p269
I2
sS'meta'
p270
(lp271
(dp272
S'objective'
p273
I96
sS'query_time'
p274
F0.025042057037353516
sS'comp_time'
p275
F0.03455805778503418
sS'exec_cq'
p276
I8
sS'total_cq'
p277
I16
sa(dp278
g273
I98
sg274
F0.02973794937133789
sg275
F0.00047326087951660156
sg276
I8
sg277
I14
sasS'total_cqs'
p279
I16
ssI24
(dp280
S'iters'
p281
I0
sS'meta'
p282
(lp283
sS'total_cqs'
p284
I1
ssI25
(dp285
S'iters'
p286
I0
sS'meta'
p287
(lp288
sS'total_cqs'
p289
I1
ssI26
(dp290
S'iters'
p291
I1
sS'meta'
p292
(lp293
(dp294
S'objective'
p295
I859
sS'query_time'
p296
F0.12243199348449707
sS'comp_time'
p297
F0.09837484359741211
sS'exec_cq'
p298
I42
sS'total_cq'
p299
I42
sasS'total_cqs'
p300
I42
ssI27
(dp301
S'iters'
p302
I3
sS'meta'
p303
(lp304
(dp305
S'objective'
p306
I303
sS'query_time'
p307
F22.765284061431885
sS'comp_time'
p308
F3.8779711723327637
sS'exec_cq'
p309
I30
sS'total_cq'
p310
I30
sa(dp311
g306
I3
sg307
F0.5247700214385986
sg308
F4.1345391273498535
sg309
I5
sg310
I5
sa(dp312
g306
I10
sg307
F0.47263479232788086
sg308
F2.3878567218780518
sg309
I2
sg310
I2
sasS'total_cqs'
p313
I30
ssI28
(dp314
S'iters'
p315
I0
sS'meta'
p316
(lp317
sS'total_cqs'
p318
I1
ssI29
(dp319
S'iters'
p320
I5
sS'meta'
p321
(lp322
(dp323
S'objective'
p324
I267
sS'query_time'
p325
F28.977056980133057
sS'comp_time'
p326
F1.0561602115631104
sS'exec_cq'
p327
I35
sS'total_cq'
p328
I49
sa(dp329
g324
I47
sg325
F0.03349804878234863
sg326
F0.32933712005615234
sg327
I17
sg328
I17
sa(dp330
g324
I12
sg325
F0.0027048587799072266
sg326
F0.013751029968261719
sg327
I9
sg328
I9
sa(dp331
g324
I2
sg325
F0.0014989376068115234
sg326
F0.0076122283935546875
sg327
I5
sg328
I5
sa(dp332
g324
I2
sg325
F0.0012009143829345703
sg326
F0.006617069244384766
sg327
I2
sg328
I2
sasS'total_cqs'
p333
I49
ssI30
(dp334
S'iters'
p335
I1
sS'meta'
p336
(lp337
(dp338
S'objective'
p339
I1
sS'query_time'
p340
F0.7471668720245361
sS'comp_time'
p341
F0.037867069244384766
sS'exec_cq'
p342
I2
sS'total_cq'
p343
I2
sasS'total_cqs'
p344
I2
ssI31
(dp345
S'iters'
p346
I0
sS'meta'
p347
(lp348
sS'total_cqs'
p349
I1
ssI32
(dp350
S'iters'
p351
I1
sS'meta'
p352
(lp353
(dp354
S'objective'
p355
I1
sS'query_time'
p356
F0.012848138809204102
sS'comp_time'
p357
F0.0028498172760009766
sS'exec_cq'
p358
I2
sS'total_cq'
p359
I2
sasS'total_cqs'
p360
I2
ssI33
(dp361
S'iters'
p362
I5
sS'meta'
p363
(lp364
(dp365
S'objective'
p366
I3686
sS'query_time'
p367
F16.02405595779419
sS'comp_time'
p368
F1.0383429527282715
sS'exec_cq'
p369
I103
sS'total_cq'
p370
I103
sa(dp371
g366
I31
sg367
F0.010431051254272461
sg368
F0.03633308410644531
sg369
I16
sg370
I16
sa(dp372
g366
I9
sg367
F0.005354166030883789
sg368
F0.019987106323242188
sg369
I10
sg370
I10
sa(dp373
g366
I2
sg367
F0.0025861263275146484
sg368
F0.011603355407714844
sg369
I5
sg370
I5
sa(dp374
g366
I1
sg367
F0.0011539459228515625
sg368
F0.007198810577392578
sg369
I3
sg370
I3
sasS'total_cqs'
p375
I103
ssI34
(dp376
S'iters'
p377
I1
sS'meta'
p378
(lp379
(dp380
S'objective'
p381
I1
sS'query_time'
p382
F0.015297889709472656
sS'comp_time'
p383
F0.0021562576293945312
sS'exec_cq'
p384
I2
sS'total_cq'
p385
I2
sasS'total_cqs'
p386
I2
ssI35
(dp387
S'iters'
p388
I5
sS'meta'
p389
(lp390
(dp391
S'objective'
p392
I1513
sS'query_time'
p393
F21.89709997177124
sS'comp_time'
p394
F0.2641022205352783
sS'exec_cq'
p395
I50
sS'total_cq'
p396
I70
sa(dp397
g392
I8
sg393
F0.09925007820129395
sg394
F0.015033721923828125
sg395
I16
sg396
I16
sa(dp398
g392
I17
sg393
F0.002872943878173828
sg394
F0.010735034942626953
sg395
I9
sg396
I9
sa(dp399
g392
I32
sg393
F0.0013511180877685547
sg394
F0.006810665130615234
sg395
I3
sg396
I3
sa(dp400
g392
I8
sg393
F0.0003948211669921875
sg394
F0.0028896331787109375
sg395
I2
sg396
I2
sasS'total_cqs'
p401
I70
ssI36
(dp402
S'iters'
p403
I1
sS'meta'
p404
(lp405
(dp406
S'objective'
p407
I525
sS'query_time'
p408
F0.6503729820251465
sS'comp_time'
p409
F0.13857626914978027
sS'exec_cq'
p410
I28
sS'total_cq'
p411
I33
sasS'total_cqs'
p412
I33
ssI37
(dp413
S'iters'
p414
I1
sS'meta'
p415
(lp416
(dp417
S'objective'
p418
I1
sS'query_time'
p419
F0.014789104461669922
sS'comp_time'
p420
F0.0027856826782226562
sS'exec_cq'
p421
I2
sS'total_cq'
p422
I2
sasS'total_cqs'
p423
I2
ssI38
(dp424
S'iters'
p425
I2
sS'meta'
p426
(lp427
(dp428
S'objective'
p429
I0
sS'query_time'
p430
F0.02442193031311035
sS'comp_time'
p431
F0.0029799938201904297
sS'exec_cq'
p432
I4
sS'total_cq'
p433
I4
sa(dp434
g429
I1
sg430
F9.107589721679688e-05
sg431
F0.0004439353942871094
sg432
I2
sg433
I2
sasS'total_cqs'
p435
I4
ssI39
(dp436
S'iters'
p437
I2
sS'meta'
p438
(lp439
(dp440
S'objective'
p441
I636
sS'query_time'
p442
F0.14620208740234375
sS'comp_time'
p443
F0.16012883186340332
sS'exec_cq'
p444
I44
sS'total_cq'
p445
I44
sa(dp446
g441
I767
sg442
F0.0003490447998046875
sg443
F0.0020198822021484375
sg444
I37
sg445
I37
sasS'total_cqs'
p447
I44
ssI40
(dp448
S'iters'
p449
I1
sS'meta'
p450
(lp451
(dp452
S'objective'
p453
I18
sS'query_time'
p454
F0.02994990348815918
sS'comp_time'
p455
F0.005812168121337891
sS'exec_cq'
p456
I7
sS'total_cq'
p457
I7
sasS'total_cqs'
p458
I7
ssI41
(dp459
S'iters'
p460
I1
sS'meta'
p461
(lp462
(dp463
S'objective'
p464
I64
sS'query_time'
p465
F0.07455110549926758
sS'comp_time'
p466
F0.01808905601501465
sS'exec_cq'
p467
I12
sS'total_cq'
p468
I12
sasS'total_cqs'
p469
I12
ssI42
(dp470
S'iters'
p471
I1
sS'meta'
p472
(lp473
(dp474
S'objective'
p475
I817
sS'query_time'
p476
F0.05353593826293945
sS'comp_time'
p477
F0.14342617988586426
sS'exec_cq'
p478
I21
sS'total_cq'
p479
I41
sasS'total_cqs'
p480
I41
ssI43
(dp481
S'iters'
p482
I1
sS'meta'
p483
(lp484
(dp485
S'objective'
p486
I18
sS'query_time'
p487
F0.028428077697753906
sS'comp_time'
p488
F0.0056188106536865234
sS'exec_cq'
p489
I7
sS'total_cq'
p490
I7
sasS'total_cqs'
p491
I7
ssI44
(dp492
S'iters'
p493
I4
sS'meta'
p494
(lp495
(dp496
S'objective'
p497
I768
sS'query_time'
p498
F0.15304803848266602
sS'comp_time'
p499
F0.16207098960876465
sS'exec_cq'
p500
I47
sS'total_cq'
p501
I47
sa(dp502
g497
I752
sg498
F0.0003418922424316406
sg499
F0.0017888545989990234
sg500
I40
sg501
I40
sa(dp503
g497
I12
sg498
F0.0023179054260253906
sg499
F0.002132415771484375
sg500
I3
sg501
I3
sa(dp504
g497
I5
sg498
F2.7894973754882812e-05
sg499
F0.00015401840209960938
sg500
I2
sg501
I2
sasS'total_cqs'
p505
I47
ssI45
(dp506
S'iters'
p507
I0
sS'meta'
p508
(lp509
sS'total_cqs'
p510
I1
ssI46
(dp511
S'iters'
p512
I2
sS'meta'
p513
(lp514
(dp515
S'objective'
p516
I9
sS'query_time'
p517
F0.014802932739257812
sS'comp_time'
p518
F0.0034139156341552734
sS'exec_cq'
p519
I4
sS'total_cq'
p520
I6
sa(dp521
g516
I7
sg517
F2.193450927734375e-05
sg518
F0.0002052783966064453
sg519
I3
sg520
I5
sasS'total_cqs'
p522
I6
ssI47
(dp523
S'iters'
p524
I1
sS'meta'
p525
(lp526
(dp527
S'objective'
p528
I1
sS'query_time'
p529
F0.008735895156860352
sS'comp_time'
p530
F0.001130819320678711
sS'exec_cq'
p531
I2
sS'total_cq'
p532
I2
sasS'total_cqs'
p533
I2
ssI48
(dp534
S'iters'
p535
I0
sS'meta'
p536
(lp537
sS'total_cqs'
p538
I1
ssI49
(dp539
S'iters'
p540
I0
sS'meta'
p541
(lp542
sS'total_cqs'
p543
I1
ssI50
(dp544
S'iters'
p545
I2
sS'meta'
p546
(lp547
(dp548
S'objective'
p549
I5
sS'query_time'
p550
F0.016405105590820312
sS'comp_time'
p551
F0.0029201507568359375
sS'exec_cq'
p552
I5
sS'total_cq'
p553
I5
sa(dp554
g549
I2
sg550
F2.9087066650390625e-05
sg551
F0.0001347064971923828
sg552
I4
sg553
I4
sasS'total_cqs'
p555
I5
ssI51
(dp556
S'iters'
p557
I1
sS'meta'
p558
(lp559
(dp560
S'objective'
p561
I1
sS'query_time'
p562
F0.008799076080322266
sS'comp_time'
p563
F0.0010387897491455078
sS'exec_cq'
p564
I2
sS'total_cq'
p565
I2
sasS'total_cqs'
p566
I2
ssI52
(dp567
S'iters'
p568
I1
sS'meta'
p569
(lp570
(dp571
S'objective'
p572
I1
sS'query_time'
p573
F0.00964808464050293
sS'comp_time'
p574
F0.0011892318725585938
sS'exec_cq'
p575
I2
sS'total_cq'
p576
I2
sasS'total_cqs'
p577
I2
ssI53
(dp578
S'iters'
p579
I2
sS'meta'
p580
(lp581
(dp582
S'objective'
p583
I2
sS'query_time'
p584
F0.06384897232055664
sS'comp_time'
p585
F0.003137826919555664
sS'exec_cq'
p586
I4
sS'total_cq'
p587
I4
sa(dp588
g583
I0
sg584
F6.699562072753906e-05
sg585
F0.0004363059997558594
sg586
I3
sg587
I3
sasS'total_cqs'
p589
I4
ssI54
(dp590
S'iters'
p591
I1
sS'meta'
p592
(lp593
(dp594
S'objective'
p595
I0
sS'query_time'
p596
F0.011507987976074219
sS'comp_time'
p597
F0.0017719268798828125
sS'exec_cq'
p598
I3
sS'total_cq'
p599
I3
sasS'total_cqs'
p600
I3
ssI55
(dp601
S'iters'
p602
I8
sS'meta'
p603
(lp604
(dp605
S'objective'
p606
I4615
sS'query_time'
p607
F2.600719928741455
sS'comp_time'
p608
F0.7430038452148438
sS'exec_cq'
p609
I109
sS'total_cq'
p610
I109
sa(dp611
g606
I4601
sg607
F0.0009779930114746094
sg608
F0.0042340755462646484
sg609
I97
sg610
I97
sa(dp612
g606
I4503
sg607
F0.0006840229034423828
sg608
F0.002866983413696289
sg609
I93
sg610
I93
sa(dp613
g606
I4418
sg607
F0.0004010200500488281
sg608
F0.0018012523651123047
sg609
I87
sg610
I87
sa(dp614
g606
I4367
sg607
F0.0003120899200439453
sg608
F0.0010831356048583984
sg609
I85
sg610
I85
sa(dp615
g606
I4284
sg607
F0.00035881996154785156
sg608
F0.0010700225830078125
sg609
I83
sg610
I83
sa(dp616
g606
I4239
sg607
F0.00039696693420410156
sg608
F0.0007853507995605469
sg609
I81
sg610
I81
sa(dp617
g606
I4196
sg607
F0.00025391578674316406
sg608
F0.0006330013275146484
sg609
I80
sg610
I80
sasS'total_cqs'
p618
I109
ssI56
(dp619
S'iters'
p620
I5
sS'meta'
p621
(lp622
(dp623
S'objective'
p624
I1704
sS'query_time'
p625
F1.7825279235839844
sS'comp_time'
p626
F0.3136887550354004
sS'exec_cq'
p627
I67
sS'total_cq'
p628
I76
sa(dp629
g624
I1
sg625
F0.007691144943237305
sg626
F0.14516186714172363
sg627
I16
sg628
I16
sa(dp630
g624
I9
sg625
F0.0031630992889404297
sg626
F0.009790182113647461
sg627
I9
sg628
I9
sa(dp631
g624
I17
sg625
F0.0021209716796875
sg626
F0.007531881332397461
sg627
I5
sg628
I5
sa(dp632
g624
I9
sg625
F0.0004010200500488281
sg626
F0.0044498443603515625
sg627
I2
sg628
I2
sasS'total_cqs'
p633
I76
ssI57
(dp634
S'iters'
p635
I6
sS'meta'
p636
(lp637
(dp638
S'objective'
p639
I226
sS'query_time'
p640
F24.146008014678955
sS'comp_time'
p641
F0.6569902896881104
sS'exec_cq'
p642
I45
sS'total_cq'
p643
I51
sa(dp644
g639
I82
sg640
F0.017239809036254883
sg641
F0.03520941734313965
sg642
I27
sg643
I27
sa(dp645
g639
I1
sg640
F0.00321197509765625
sg641
F0.007749080657958984
sg642
I12
sg643
I12
sa(dp646
g639
I1
sg640
F0.001519918441772461
sg641
F0.004987001419067383
sg642
I6
sg643
I6
sa(dp647
g639
I5
sg640
F0.0007109642028808594
sg641
F0.003721952438354492
sg642
I3
sg643
I3
sa(dp648
g639
I8
sg640
F0.0007071495056152344
sg641
F0.0035848617553710938
sg642
I2
sg643
I2
sasS'total_cqs'
p649
I51
ssI58
(dp650
S'iters'
p651
I7
sS'meta'
p652
(lp653
(dp654
S'objective'
p655
I81567
sS'query_time'
p656
F117.1286768913269
sS'comp_time'
p657
F14.759093999862671
sS'exec_cq'
p658
I348
sS'total_cq'
p659
I486
sa(dp660
g655
I86790
sg656
F0.03632092475891113
sg657
F1.2838518619537354
sg658
I276
sg659
I414
sa(dp661
g655
I10
sg656
F0.016741037368774414
sg657
F0.08428287506103516
sg658
I28
sg659
I28
sa(dp662
g655
I16
sg656
F0.00483393669128418
sg657
F0.014027833938598633
sg658
I15
sg659
I15
sa(dp663
g655
I7
sg656
F0.002209901809692383
sg657
F0.009034872055053711
sg658
I6
sg659
I6
sa(dp664
g655
I39
sg656
F0.0009171962738037109
sg657
F0.0048711299896240234
sg658
I3
sg659
I3
sa(dp665
g655
I97
sg656
F0.0012390613555908203
sg657
F0.004240751266479492
sg658
I2
sg659
I2
sasS'total_cqs'
p666
I486
ssI59
(dp667
S'iters'
p668
I2
sS'meta'
p669
(lp670
(dp671
S'objective'
p672
I14
sS'query_time'
p673
F0.07383108139038086
sS'comp_time'
p674
F0.025970935821533203
sS'exec_cq'
p675
I7
sS'total_cq'
p676
I7
sa(dp677
g672
I3
sg673
F0.0001900196075439453
sg674
F0.0012509822845458984
sg675
I2
sg676
I2
sasS'total_cqs'
p678
I7
ssI60
(dp679
S'iters'
p680
I1
sS'meta'
p681
(lp682
(dp683
S'objective'
p684
I7
sS'query_time'
p685
F0.02241802215576172
sS'comp_time'
p686
F0.0032579898834228516
sS'exec_cq'
p687
I3
sS'total_cq'
p688
I5
sasS'total_cqs'
p689
I5
ssI61
(dp690
S'iters'
p691
I0
sS'meta'
p692
(lp693
sS'total_cqs'
p694
I1
ssI62
(dp695
S'iters'
p696
I2
sS'meta'
p697
(lp698
(dp699
S'objective'
p700
I34
sS'query_time'
p701
F0.03167080879211426
sS'comp_time'
p702
F0.0862419605255127
sS'exec_cq'
p703
I12
sS'total_cq'
p704
I12
sa(dp705
g700
I42
sg701
F4.410743713378906e-05
sg702
F0.0001571178436279297
sg703
I9
sg704
I9
sasS'total_cqs'
p706
I12
ssI63
(dp707
S'iters'
p708
I0
sS'meta'
p709
(lp710
sS'total_cqs'
p711
I1
ssI64
(dp712
S'iters'
p713
I3
sS'meta'
p714
(lp715
(dp716
S'objective'
p717
I32
sS'query_time'
p718
F0.1457231044769287
sS'comp_time'
p719
F0.02200007438659668
sS'exec_cq'
p720
I12
sS'total_cq'
p721
I12
sa(dp722
g717
I1
sg718
F0.0002598762512207031
sg719
F0.0015091896057128906
sg720
I4
sg721
I4
sa(dp723
g717
I2
sg718
F0.000102996826171875
sg719
F0.0005400180816650391
sg720
I3
sg721
I3
sasS'total_cqs'
p724
I12
ssI65
(dp725
S'iters'
p726
I4
sS'meta'
p727
(lp728
(dp729
S'objective'
p730
I154
sS'query_time'
p731
F0.7573831081390381
sS'comp_time'
p732
F0.2512331008911133
sS'exec_cq'
p733
I27
sS'total_cq'
p734
I27
sa(dp735
g730
I0
sg731
F0.0016629695892333984
sg732
F0.007019758224487305
sg733
I7
sg734
I7
sa(dp736
g730
I2
sg731
F0.0006740093231201172
sg732
F0.0031032562255859375
sg733
I4
sg734
I4
sa(dp737
g730
I1
sg731
F0.00019502639770507812
sg732
F0.00131988525390625
sg733
I2
sg734
I2
sasS'total_cqs'
p738
I27
ssI66
(dp739
S'iters'
p740
I0
sS'meta'
p741
(lp742
sS'total_cqs'
p743
I1
ssI67
(dp744
S'iters'
p745
I2
sS'meta'
p746
(lp747
(dp748
S'objective'
p749
I552
sS'query_time'
p750
F1.1447038650512695
sS'comp_time'
p751
F0.17116808891296387
sS'exec_cq'
p752
I35
sS'total_cq'
p753
I35
sa(dp754
g749
I1
sg750
F0.0018048286437988281
sg751
F0.01007390022277832
sg752
I2
sg753
I2
sasS'total_cqs'
p755
I35
ssI68
(dp756
S'iters'
p757
I0
sS'meta'
p758
(lp759
sS'total_cqs'
p760
I1
ssI69
(dp761
S'iters'
p762
I1
sS'meta'
p763
(lp764
(dp765
S'objective'
p766
I1272
sS'query_time'
p767
F0.1728649139404297
sS'comp_time'
p768
F0.21796417236328125
sS'exec_cq'
p769
I51
sS'total_cq'
p770
I51
sasS'total_cqs'
p771
I51
ssI70
(dp772
S'iters'
p773
I3
sS'meta'
p774
(lp775
(dp776
S'objective'
p777
I9
sS'query_time'
p778
F0.03131604194641113
sS'comp_time'
p779
F0.00327301025390625
sS'exec_cq'
p780
I6
sS'total_cq'
p781
I6
sa(dp782
g777
I5
sg778
F5.984306335449219e-05
sg779
F0.00026798248291015625
sg780
I5
sg781
I5
sa(dp783
g777
I2
sg778
F4.601478576660156e-05
sg779
F0.00024127960205078125
sg780
I4
sg781
I4
sasS'total_cqs'
p784
I6
ssI71
(dp785
S'iters'
p786
I6
sS'meta'
p787
(lp788
(dp789
S'objective'
p790
I3275
sS'query_time'
p791
F0.26845502853393555
sS'comp_time'
p792
F0.3751051425933838
sS'exec_cq'
p793
I73
sS'total_cq'
p794
I85
sa(dp795
g790
I3181
sg791
F0.0003349781036376953
sg792
F0.0013859272003173828
sg793
I69
sg794
I81
sa(dp796
g790
I3051
sg791
F0.0002529621124267578
sg792
F0.0009567737579345703
sg793
I66
sg794
I78
sa(dp797
g790
I2937
sg791
F0.0002319812774658203
sg792
F0.0009653568267822266
sg793
I62
sg794
I74
sa(dp798
g790
I2896
sg791
F0.0002110004425048828
sg792
F0.0007269382476806641
sg793
I59
sg794
I71
sa(dp799
g790
I5
sg791
F0.0023789405822753906
sg792
F0.0030989646911621094
sg793
I3
sg794
I3
sasS'total_cqs'
p800
I85
ssI72
(dp801
S'iters'
p802
I3
sS'meta'
p803
(lp804
(dp805
S'objective'
p806
I16
sS'query_time'
p807
F0.03652000427246094
sS'comp_time'
p808
F0.004247903823852539
sS'exec_cq'
p809
I4
sS'total_cq'
p810
I8
sa(dp811
g806
I2
sg807
F0.26182985305786133
sg808
F0.003968954086303711
sg809
I4
sg810
I6
sa(dp812
g806
I4
sg807
F2.6941299438476562e-05
sg808
F0.0001461505889892578
sg809
I2
sg810
I3
sasS'total_cqs'
p813
I8
ssI73
(dp814
S'iters'
p815
I0
sS'meta'
p816
(lp817
sS'total_cqs'
p818
I1
ssI74
(dp819
S'iters'
p820
I0
sS'meta'
p821
(lp822
sS'total_cqs'
p823
I1
ssI75
(dp824
S'iters'
p825
I2
sS'meta'
p826
(lp827
(dp828
S'objective'
p829
I5
sS'query_time'
p830
F0.012775182723999023
sS'comp_time'
p831
F0.002257823944091797
sS'exec_cq'
p832
I5
sS'total_cq'
p833
I5
sa(dp834
g829
I2
sg830
F2.5033950805664062e-05
sg831
F0.00010561943054199219
sg832
I4
sg833
I4
sasS'total_cqs'
p835
I5
ssI76
(dp836
S'iters'
p837
I1
sS'meta'
p838
(lp839
(dp840
S'objective'
p841
I1
sS'query_time'
p842
F0.011790990829467773
sS'comp_time'
p843
F0.0014023780822753906
sS'exec_cq'
p844
I2
sS'total_cq'
p845
I2
sasS'total_cqs'
p846
I2
ssI77
(dp847
S'iters'
p848
I0
sS'meta'
p849
(lp850
sS'total_cqs'
p851
I1
ssI78
(dp852
S'iters'
p853
I0
sS'meta'
p854
(lp855
sS'total_cqs'
p856
I1
ssI103
(dp857
S'iters'
p858
I1
sS'meta'
p859
(lp860
(dp861
S'objective'
p862
I64
sS'query_time'
p863
F0.06824898719787598
sS'comp_time'
p864
F0.01597309112548828
sS'exec_cq'
p865
I12
sS'total_cq'
p866
I12
sasS'total_cqs'
p867
I12
ssI104
(dp868
S'iters'
p869
I2
sS'meta'
p870
(lp871
(dp872
S'objective'
p873
I2
sS'query_time'
p874
F1.523008108139038
sS'comp_time'
p875
F0.20053696632385254
sS'exec_cq'
p876
I4
sS'total_cq'
p877
I4
sa(dp878
g873
I0
sg874
F0.014996051788330078
sg875
F0.18721866607666016
sg876
I3
sg877
I3
sasS'total_cqs'
p879
I4
ssI105
(dp880
S'iters'
p881
I0
sS'meta'
p882
(lp883
sS'total_cqs'
p884
I1
ssI106
(dp885
S'iters'
p886
I1
sS'meta'
p887
(lp888
(dp889
S'objective'
p890
I4
sS'query_time'
p891
F0.01597905158996582
sS'comp_time'
p892
F0.0017502307891845703
sS'exec_cq'
p893
I4
sS'total_cq'
p894
I4
sasS'total_cqs'
p895
I4
ssI107
(dp896
S'iters'
p897
I2
sS'meta'
p898
(lp899
(dp900
S'objective'
p901
I68
sS'query_time'
p902
F0.08529400825500488
sS'comp_time'
p903
F0.13209772109985352
sS'exec_cq'
p904
I16
sS'total_cq'
p905
I16
sa(dp906
g901
I16
sg902
F0.00828099250793457
sg903
F0.00045108795166015625
sg904
I3
sg905
I3
sasS'total_cqs'
p907
I16
ssI108
(dp908
S'iters'
p909
I0
sS'meta'
p910
(lp911
sS'total_cqs'
p912
I1
ss.