(dp0
I1
(dp1
S'iters'
p2
I2
sS'meta'
p3
(lp4
(dp5
S'objective'
p6
I48
sS'query_time'
p7
F1.9212498664855957
sS'comp_time'
p8
F0.0002760887145996094
sS'exec_cq'
p9
I12
sS'total_cq'
p10
I12
sa(dp11
g6
I39
sg7
F5.4836273193359375e-05
sg8
F7.700920104980469e-05
sg9
I10
sg10
I10
sasS'total_cqs'
p12
I12
ssI2
(dp13
S'iters'
p14
I3
sS'meta'
p15
(lp16
(dp17
S'objective'
p18
I264
sS'query_time'
p19
F4.1930999755859375
sS'comp_time'
p20
F0.0018260478973388672
sS'exec_cq'
p21
I27
sS'total_cq'
p22
I27
sa(dp23
g18
I225
sg19
F0.0002009868621826172
sg20
F0.0007469654083251953
sg21
I23
sg22
I23
sa(dp24
g18
I219
sg19
F0.00016307830810546875
sg20
F0.0005729198455810547
sg21
I20
sg22
I20
sasS'total_cqs'
p25
I27
ssI3
(dp26
S'iters'
p27
I1
sS'meta'
p28
(lp29
(dp30
S'objective'
p31
I860
sS'query_time'
p32
F20.20648694038391
sS'comp_time'
p33
F0.013845205307006836
sS'exec_cq'
p34
I43
sS'total_cq'
p35
I43
sasS'total_cqs'
p36
I43
ssI4
(dp37
S'iters'
p38
I2
sS'meta'
p39
(lp40
(dp41
S'objective'
p42
I28
sS'query_time'
p43
F16.76897406578064
sS'comp_time'
p44
F0.5574572086334229
sS'exec_cq'
p45
I11
sS'total_cq'
p46
I11
sa(dp47
g42
I3
sg43
F0.11029982566833496
sg44
F0.36078691482543945
sg45
I2
sg46
I2
sasS'total_cqs'
p48
I11
ssI5
(dp49
S'iters'
p50
I1
sS'meta'
p51
(lp52
(dp53
S'objective'
p54
I20
sS'query_time'
p55
F27.982595205307007
sS'comp_time'
p56
F0.04515981674194336
sS'exec_cq'
p57
I8
sS'total_cq'
p58
I8
sasS'total_cqs'
p59
I8
ssI6
(dp60
S'iters'
p61
I3
sS'meta'
p62
(lp63
(dp64
S'objective'
p65
I117
sS'query_time'
p66
F28.12934708595276
sS'comp_time'
p67
F0.045597076416015625
sS'exec_cq'
p68
I18
sS'total_cq'
p69
I18
sa(dp70
g65
I13
sg66
F0.005258083343505859
sg67
F0.05005693435668945
sg68
I3
sg69
I3
sa(dp71
g65
I16
sg66
F0.006201982498168945
sg67
F0.028472900390625
sg68
I2
sg69
I2
sasS'total_cqs'
p72
I18
ssI7
(dp73
S'iters'
p74
I2
sS'meta'
p75
(lp76
(dp77
S'objective'
p78
I1
sS'query_time'
p79
F36.816835165023804
sS'comp_time'
p80
F0.8589992523193359
sS'exec_cq'
p81
I9
sS'total_cq'
p82
I9
sa(dp83
g78
I5
sg79
F0.003638029098510742
sg80
F0.014428138732910156
sg81
I3
sg82
I3
sasS'total_cqs'
p84
I9
ssI8
(dp85
S'iters'
p86
I3
sS'meta'
p87
(lp88
(dp89
S'objective'
p90
I250
sS'query_time'
p91
F3.588329792022705
sS'comp_time'
p92
F0.0015037059783935547
sS'exec_cq'
p93
I27
sS'total_cq'
p94
I27
sa(dp95
g90
I208
sg91
F0.00018095970153808594
sg92
F0.0004649162292480469
sg93
I22
sg94
I22
sa(dp96
g90
I1
sg91
F0.0011670589447021484
sg92
F0.0002009868621826172
sg93
I2
sg94
I2
sasS'total_cqs'
p97
I27
ssI9
(dp98
S'iters'
p99
I3
sS'meta'
p100
(lp101
(dp102
S'objective'
p103
I4
sS'query_time'
p104
F3.455700159072876
sS'comp_time'
p105
F0.0004119873046875
sS'exec_cq'
p106
I7
sS'total_cq'
p107
I7
sa(dp108
g103
I4
sg104
F5.412101745605469e-05
sg105
F0.00010180473327636719
sg106
I4
sg107
I4
sa(dp109
g103
I4
sg104
F0.021044015884399414
sg105
F0.00011301040649414062
sg106
I2
sg107
I2
sasS'total_cqs'
p110
I7
ssI10
(dp111
S'iters'
p112
I5
sS'meta'
p113
(lp114
(dp115
S'objective'
p116
I576
sS'query_time'
p117
F9.360347032546997
sS'comp_time'
p118
F0.008571147918701172
sS'exec_cq'
p119
I51
sS'total_cq'
p120
I51
sa(dp121
g116
I225
sg117
F0.0005099773406982422
sg118
F0.001669168472290039
sg119
I37
sg120
I37
sa(dp122
g116
I19
sg117
F0.0016360282897949219
sg118
F0.0004017353057861328
sg119
I12
sg120
I12
sa(dp123
g116
I37
sg117
F3.600120544433594e-05
sg118
F0.000102996826171875
sg119
I6
sg120
I6
sa(dp124
g116
I12
sg117
F5.2928924560546875e-05
sg118
F7.486343383789062e-05
sg119
I3
sg120
I3
sasS'total_cqs'
p125
I51
ssI11
(dp126
S'iters'
p127
I5
sS'meta'
p128
(lp129
(dp130
S'objective'
p131
I816
sS'query_time'
p132
F9.358409881591797
sS'comp_time'
p133
F0.016650915145874023
sS'exec_cq'
p134
I63
sS'total_cq'
p135
I63
sa(dp136
g131
I830
sg132
F0.0009198188781738281
sg133
F0.003549814224243164
sg134
I47
sg135
I47
sa(dp137
g131
I7
sg132
F0.001722097396850586
sg133
F0.0008897781372070312
sg134
I9
sg135
I9
sa(dp138
g131
I18
sg132
F0.0001468658447265625
sg133
F0.0006148815155029297
sg134
I5
sg135
I5
sa(dp139
g131
I42
sg132
F1.3113021850585938e-05
sg133
F6.103515625e-05
sg134
I2
sg135
I2
sasS'total_cqs'
p140
I63
ssI12
(dp141
S'iters'
p142
I4
sS'meta'
p143
(lp144
(dp145
S'objective'
p146
I319
sS'query_time'
p147
F9.317872047424316
sS'comp_time'
p148
F0.008920907974243164
sS'exec_cq'
p149
I50
sS'total_cq'
p150
I50
sa(dp151
g146
I319
sg147
F0.0005130767822265625
sg148
F0.0020029544830322266
sg149
I33
sg150
I33
sa(dp152
g146
I324
sg147
F0.0001690387725830078
sg148
F0.0005409717559814453
sg149
I26
sg150
I26
sa(dp153
g146
I17
sg147
F0.025642871856689453
sg148
F0.00018525123596191406
sg149
I5
sg150
I5
sasS'total_cqs'
p154
I50
ssI13
(dp155
S'iters'
p156
I3
sS'meta'
p157
(lp158
(dp159
S'objective'
p160
I0
sS'query_time'
p161
F8.22271203994751
sS'comp_time'
p162
F0.00047588348388671875
sS'exec_cq'
p163
I20
sS'total_cq'
p164
I20
sa(dp165
g160
I43
sg161
F5.793571472167969e-05
sg162
F8.20159912109375e-05
sg163
I9
sg164
I9
sa(dp166
g160
I9
sg161
F0.023714065551757812
sg162
F0.0001442432403564453
sg163
I2
sg164
I2
sasS'total_cqs'
p167
I20
ssI14
(dp168
S'iters'
p169
I3
sS'meta'
p170
(lp171
(dp172
S'objective'
p173
I7
sS'query_time'
p174
F27.662441968917847
sS'comp_time'
p175
F0.05827593803405762
sS'exec_cq'
p176
I9
sS'total_cq'
p177
I9
sa(dp178
g173
I10
sg174
F0.004494905471801758
sg175
F0.04075789451599121
sg176
I5
sg177
I5
sa(dp179
g173
I0
sg174
F0.01933884620666504
sg175
F0.028268098831176758
sg176
I4
sg177
I4
sasS'total_cqs'
p180
I9
ssI15
(dp181
S'iters'
p182
I3
sS'meta'
p183
(lp184
(dp185
S'objective'
p186
I2
sS'query_time'
p187
F24.810173988342285
sS'comp_time'
p188
F0.12695002555847168
sS'exec_cq'
p189
I11
sS'total_cq'
p190
I11
sa(dp191
g186
I0
sg187
F0.02982306480407715
sg188
F0.12092018127441406
sg189
I5
sg190
I5
sa(dp192
g186
I6
sg187
F0.007735013961791992
sg188
F0.06133770942687988
sg189
I2
sg190
I2
sasS'total_cqs'
p193
I11
ssI16
(dp194
S'iters'
p195
I1
sS'meta'
p196
(lp197
(dp198
S'objective'
p199
I20
sS'query_time'
p200
F0.02420186996459961
sS'comp_time'
p201
F0.000141143798828125
sS'exec_cq'
p202
I8
sS'total_cq'
p203
I8
sasS'total_cqs'
p204
I8
ssI17
(dp205
S'iters'
p206
I3
sS'meta'
p207
(lp208
(dp209
S'objective'
p210
I2
sS'query_time'
p211
F18.163081884384155
sS'comp_time'
p212
F0.022132158279418945
sS'exec_cq'
p213
I11
sS'total_cq'
p214
I11
sa(dp215
g210
I0
sg211
F0.0068359375
sg212
F0.019432783126831055
sg213
I6
sg214
I6
sa(dp216
g210
I6
sg211
F0.005136966705322266
sg212
F0.03939390182495117
sg213
I3
sg214
I3
sasS'total_cqs'
p217
I11
ssI18
(dp218
S'iters'
p219
I2
sS'meta'
p220
(lp221
(dp222
S'objective'
p223
I28
sS'query_time'
p224
F16.22694492340088
sS'comp_time'
p225
F0.005366086959838867
sS'exec_cq'
p226
I11
sS'total_cq'
p227
I11
sa(dp228
g223
I25
sg224
F0.00028777122497558594
sg225
F0.0013270378112792969
sg226
I8
sg227
I8
sasS'total_cqs'
p229
I11
ssI19
(dp230
S'iters'
p231
I0
sS'meta'
p232
(lp233
sS'total_cqs'
p234
I1
ssI20
(dp235
S'iters'
p236
I0
sS'meta'
p237
(lp238
sS'total_cqs'
p239
I1
ssI21
(dp240
S'iters'
p241
I0
sS'meta'
p242
(lp243
sS'total_cqs'
p244
I1
ssI22
(dp245
S'iters'
p246
I1
sS'meta'
p247
(lp248
(dp249
S'objective'
p250
I135
sS'query_time'
p251
F1.8890399932861328
sS'comp_time'
p252
F0.0003521442413330078
sS'exec_cq'
p253
I18
sS'total_cq'
p254
I18
sasS'total_cqs'
p255
I18
ssI23
(dp256
S'iters'
p257
I2
sS'meta'
p258
(lp259
(dp260
S'objective'
p261
I98
sS'query_time'
p262
F3.432516098022461
sS'comp_time'
p263
F0.0006198883056640625
sS'exec_cq'
p264
I16
sS'total_cq'
p265
I16
sa(dp266
g261
I85
sg262
F8.0108642578125e-05
sg263
F0.00023698806762695312
sg264
I14
sg265
I14
sasS'total_cqs'
p267
I16
ssI24
(dp268
S'iters'
p269
I0
sS'meta'
p270
(lp271
sS'total_cqs'
p272
I1
ssI25
(dp273
S'iters'
p274
I0
sS'meta'
p275
(lp276
sS'total_cqs'
p277
I1
ssI26
(dp278
S'iters'
p279
I1
sS'meta'
p280
(lp281
(dp282
S'objective'
p283
I819
sS'query_time'
p284
F3.5673770904541016
sS'comp_time'
p285
F0.00020956993103027344
sS'exec_cq'
p286
I42
sS'total_cq'
p287
I42
sasS'total_cqs'
p288
I42
ssI27
(dp289
S'iters'
p290
I3
sS'meta'
p291
(lp292
(dp293
S'objective'
p294
I287
sS'query_time'
p295
F43.7475700378418
sS'comp_time'
p296
F1.8079628944396973
sS'exec_cq'
p297
I30
sS'total_cq'
p298
I30
sa(dp299
g294
I1
sg295
F0.35270094871520996
sg296
F1.8785810470581055
sg297
I5
sg298
I5
sa(dp300
g294
I15
sg295
F0.010133981704711914
sg296
F0.04479169845581055
sg297
I2
sg298
I2
sasS'total_cqs'
p301
I30
ssI28
(dp302
S'iters'
p303
I0
sS'meta'
p304
(lp305
sS'total_cqs'
p306
I1
ssI29
(dp307
S'iters'
p308
I5
sS'meta'
p309
(lp310
(dp311
S'objective'
p312
I351
sS'query_time'
p313
F157.99328589439392
sS'comp_time'
p314
F13.446106195449829
sS'exec_cq'
p315
I49
sS'total_cq'
p316
I49
sa(dp317
g312
I123
sg313
F0.05035710334777832
sg314
F0.7256631851196289
sg315
I16
sg316
I16
sa(dp318
g312
I2
sg313
F0.0280001163482666
sg314
F0.4244861602783203
sg315
I10
sg316
I10
sa(dp319
g312
I5
sg313
F0.019307851791381836
sg314
F0.39273905754089355
sg315
I5
sg316
I5
sa(dp320
g312
I25
sg313
F0.00298309326171875
sg314
F0.011722087860107422
sg315
I3
sg316
I3
sasS'total_cqs'
p321
I49
ssI30
(dp322
S'iters'
p323
I1
sS'meta'
p324
(lp325
(dp326
S'objective'
p327
I1
sS'query_time'
p328
F12.961483001708984
sS'comp_time'
p329
F0.023890018463134766
sS'exec_cq'
p330
I2
sS'total_cq'
p331
I2
sasS'total_cqs'
p332
I2
ssI31
(dp333
S'iters'
p334
I0
sS'meta'
p335
(lp336
sS'total_cqs'
p337
I1
ssI32
(dp338
S'iters'
p339
I1
sS'meta'
p340
(lp341
(dp342
S'objective'
p343
I1
sS'query_time'
p344
F0.01720404624938965
sS'comp_time'
p345
F0.0002532005310058594
sS'exec_cq'
p346
I2
sS'total_cq'
p347
I2
sasS'total_cqs'
p348
I2
ssI33
(dp349
S'iters'
p350
I1
sS'meta'
p351
(lp352
(dp353
S'objective'
p354
I5150
sS'query_time'
p355
F25.09570574760437
sS'comp_time'
p356
F1.5516159534454346
sS'exec_cq'
p357
I103
sS'total_cq'
p358
I103
sasS'total_cqs'
p359
I103
ssI34
(dp360
S'iters'
p361
I1
sS'meta'
p362
(lp363
(dp364
S'objective'
p365
I1
sS'query_time'
p366
F0.7984509468078613
sS'comp_time'
p367
F0.0008530616760253906
sS'exec_cq'
p368
I2
sS'total_cq'
p369
I2
sasS'total_cqs'
p370
I2
ssI35
(dp371
S'iters'
p372
I4
sS'meta'
p373
(lp374
(dp375
S'objective'
p376
I2349
sS'query_time'
p377
F22.257632970809937
sS'comp_time'
p378
F0.16978812217712402
sS'exec_cq'
p379
I70
sS'total_cq'
p380
I70
sa(dp381
g376
I2361
sg377
F0.00030684471130371094
sg378
F0.09065508842468262
sg379
I69
sg380
I69
sa(dp382
g376
I2175
sg377
F0.3836948871612549
sg378
F0.3778650760650635
sg379
I68
sg380
I68
sa(dp383
g376
I33
sg377
F0.03640103340148926
sg378
F0.010168313980102539
sg379
I2
sg380
I2
sasS'total_cqs'
p384
I70
ssI36
(dp385
S'iters'
p386
I3
sS'meta'
p387
(lp388
(dp389
S'objective'
p390
I413
sS'query_time'
p391
F17.52549982070923
sS'comp_time'
p392
F0.02760910987854004
sS'exec_cq'
p393
I33
sS'total_cq'
p394
I33
sa(dp395
g390
I359
sg391
F0.0024781227111816406
sg392
F0.009470939636230469
sg393
I29
sg394
I29
sa(dp396
g390
I357
sg391
F0.0014679431915283203
sg392
F0.00737309455871582
sg393
I25
sg394
I25
sasS'total_cqs'
p397
I33
ssI37
(dp398
S'iters'
p399
I1
sS'meta'
p400
(lp401
(dp402
S'objective'
p403
I1
sS'query_time'
p404
F0.49946093559265137
sS'comp_time'
p405
F0.00045990943908691406
sS'exec_cq'
p406
I2
sS'total_cq'
p407
I2
sasS'total_cqs'
p408
I2
ssI38
(dp409
S'iters'
p410
I2
sS'meta'
p411
(lp412
(dp413
S'objective'
p414
I0
sS'query_time'
p415
F1.2884809970855713
sS'comp_time'
p416
F0.0009150505065917969
sS'exec_cq'
p417
I4
sS'total_cq'
p418
I4
sa(dp419
g414
I3
sg415
F0.0001590251922607422
sg416
F0.0005550384521484375
sg417
I2
sg418
I2
sasS'total_cqs'
p420
I4
ssI39
(dp421
S'iters'
p422
I2
sS'meta'
p423
(lp424
(dp425
S'objective'
p426
I798
sS'query_time'
p427
F6.184688091278076
sS'comp_time'
p428
F0.0020809173583984375
sS'exec_cq'
p429
I44
sS'total_cq'
p430
I44
sa(dp431
g426
I806
sg427
F0.0003788471221923828
sg428
F0.0063762664794921875
sg429
I37
sg430
I37
sasS'total_cqs'
p432
I44
ssI40
(dp433
S'iters'
p434
I1
sS'meta'
p435
(lp436
(dp437
S'objective'
p438
I14
sS'query_time'
p439
F3.3917250633239746
sS'comp_time'
p440
F0.00013899803161621094
sS'exec_cq'
p441
I7
sS'total_cq'
p442
I7
sasS'total_cqs'
p443
I7
ssI41
(dp444
S'iters'
p445
I1
sS'meta'
p446
(lp447
(dp448
S'objective'
p449
I54
sS'query_time'
p450
F2.4477930068969727
sS'comp_time'
p451
F0.00027108192443847656
sS'exec_cq'
p452
I12
sS'total_cq'
p453
I12
sasS'total_cqs'
p454
I12
ssI42
(dp455
S'iters'
p456
I1
sS'meta'
p457
(lp458
(dp459
S'objective'
p460
I779
sS'query_time'
p461
F2.134262800216675
sS'comp_time'
p462
F0.0002620220184326172
sS'exec_cq'
p463
I41
sS'total_cq'
p464
I41
sasS'total_cqs'
p465
I41
ssI43
(dp466
S'iters'
p467
I1
sS'meta'
p468
(lp469
(dp470
S'objective'
p471
I14
sS'query_time'
p472
F1.8659238815307617
sS'comp_time'
p473
F0.00013589859008789062
sS'exec_cq'
p474
I7
sS'total_cq'
p475
I7
sasS'total_cqs'
p476
I7
ssI44
(dp477
S'iters'
p478
I4
sS'meta'
p479
(lp480
(dp481
S'objective'
p482
I746
sS'query_time'
p483
F4.065510034561157
sS'comp_time'
p484
F0.00127410888671875
sS'exec_cq'
p485
I47
sS'total_cq'
p486
I47
sa(dp487
g482
I711
sg483
F0.0003559589385986328
sg484
F0.0010080337524414062
sg485
I40
sg486
I40
sa(dp488
g482
I27
sg483
F0.05862903594970703
sg484
F0.005738258361816406
sg485
I3
sg486
I3
sa(dp489
g482
I24
sg483
F0.00015401840209960938
sg484
F0.0008418560028076172
sg485
I2
sg486
I2
sasS'total_cqs'
p490
I47
ssI45
(dp491
S'iters'
p492
I0
sS'meta'
p493
(lp494
sS'total_cqs'
p495
I1
ssI46
(dp496
S'iters'
p497
I1
sS'meta'
p498
(lp499
(dp500
S'objective'
p501
I9
sS'query_time'
p502
F0.35813212394714355
sS'comp_time'
p503
F0.00044798851013183594
sS'exec_cq'
p504
I6
sS'total_cq'
p505
I6
sasS'total_cqs'
p506
I6
ssI47
(dp507
S'iters'
p508
I1
sS'meta'
p509
(lp510
(dp511
S'objective'
p512
I1
sS'query_time'
p513
F0.27588987350463867
sS'comp_time'
p514
F0.0010001659393310547
sS'exec_cq'
p515
I2
sS'total_cq'
p516
I2
sasS'total_cqs'
p517
I2
ssI48
(dp518
S'iters'
p519
I0
sS'meta'
p520
(lp521
sS'total_cqs'
p522
I1
ssI49
(dp523
S'iters'
p524
I0
sS'meta'
p525
(lp526
sS'total_cqs'
p527
I1
ssI50
(dp528
S'iters'
p529
I1
sS'meta'
p530
(lp531
(dp532
S'objective'
p533
I5
sS'query_time'
p534
F0.3674910068511963
sS'comp_time'
p535
F0.00021910667419433594
sS'exec_cq'
p536
I5
sS'total_cq'
p537
I5
sasS'total_cqs'
p538
I5
ssI51
(dp539
S'iters'
p540
I1
sS'meta'
p541
(lp542
(dp543
S'objective'
p544
I1
sS'query_time'
p545
F0.2538330554962158
sS'comp_time'
p546
F0.0003292560577392578
sS'exec_cq'
p547
I2
sS'total_cq'
p548
I2
sasS'total_cqs'
p549
I2
ssI52
(dp550
S'iters'
p551
I1
sS'meta'
p552
(lp553
(dp554
S'objective'
p555
I1
sS'query_time'
p556
F0.08858203887939453
sS'comp_time'
p557
F0.00031495094299316406
sS'exec_cq'
p558
I2
sS'total_cq'
p559
I2
sasS'total_cqs'
p560
I2
ssI53
(dp561
S'iters'
p562
I1
sS'meta'
p563
(lp564
(dp565
S'objective'
p566
I2
sS'query_time'
p567
F0.09699797630310059
sS'comp_time'
p568
F0.0009648799896240234
sS'exec_cq'
p569
I4
sS'total_cq'
p570
I4
sasS'total_cqs'
p571
I4
ssI54
(dp572
S'iters'
p573
I1
sS'meta'
p574
(lp575
(dp576
S'objective'
p577
I0
sS'query_time'
p578
F0.49692296981811523
sS'comp_time'
p579
F0.0002751350402832031
sS'exec_cq'
p580
I3
sS'total_cq'
p581
I3
sasS'total_cqs'
p582
I3
ssI55
(dp583
S'iters'
p584
I4
sS'meta'
p585
(lp586
(dp587
S'objective'
p588
I4887
sS'query_time'
p589
F24.116003036499023
sS'comp_time'
p590
F0.03234291076660156
sS'exec_cq'
p591
I109
sS'total_cq'
p592
I109
sa(dp593
g588
I4783
sg589
F0.000720977783203125
sg590
F0.0015940666198730469
sg591
I97
sg592
I97
sa(dp594
g588
I4660
sg589
F0.00045299530029296875
sg590
F0.00156402587890625
sg591
I93
sg592
I93
sa(dp595
g588
I8
sg589
F0.00023794174194335938
sg590
F0.0006968975067138672
sg591
I4
sg592
I4
sasS'total_cqs'
p596
I109
ssI56
(dp597
S'iters'
p598
I4
sS'meta'
p599
(lp600
(dp601
S'objective'
p602
I1638
sS'query_time'
p603
F26.20476508140564
sS'comp_time'
p604
F0.1312241554260254
sS'exec_cq'
p605
I76
sS'total_cq'
p606
I76
sa(dp607
g602
I6
sg603
F0.00515294075012207
sg604
F0.009319305419921875
sg605
I16
sg606
I16
sa(dp608
g602
I11
sg603
F0.0013918876647949219
sg604
F0.005435943603515625
sg605
I10
sg606
I10
sa(dp609
g602
I5
sg603
F0.00014400482177734375
sg604
F0.0006580352783203125
sg605
I3
sg606
I3
sasS'total_cqs'
p610
I76
ssI57
(dp611
S'iters'
p612
I5
sS'meta'
p613
(lp614
(dp615
S'objective'
p616
I124
sS'query_time'
p617
F87.83538913726807
sS'comp_time'
p618
F3.7104060649871826
sS'exec_cq'
p619
I51
sS'total_cq'
p620
I51
sa(dp621
g616
I11
sg617
F0.013312101364135742
sg618
F0.02869391441345215
sg619
I27
sg620
I27
sa(dp622
g616
I0
sg617
F0.002123117446899414
sg618
F0.005694866180419922
sg619
I12
sg620
I12
sa(dp623
g616
I1
sg617
F0.001447916030883789
sg618
F0.004047870635986328
sg619
I6
sg620
I6
sa(dp624
g616
I26
sg617
F0.00045990943908691406
sg618
F0.0024471282958984375
sg619
I2
sg620
I2
sasS'total_cqs'
p625
I51
ssI58
(dp626
S'iters'
p627
I6
sS'meta'
p628
(lp629
(dp630
S'objective'
p631
I116593
sS'query_time'
p632
F25.1881320476532
sS'comp_time'
p633
F0.5555579662322998
sS'exec_cq'
p634
I486
sS'total_cq'
p635
I486
sa(dp636
g631
I117205
sg632
F0.0018000602722167969
sg633
F0.399730920791626
sg634
I484
sg635
I484
sa(dp637
g631
I117122
sg632
F0.002068042755126953
sg633
F1.121636152267456
sg634
I483
sg635
I483
sa(dp638
g631
I117147
sg632
F0.0012509822845458984
sg633
F0.4072420597076416
sg634
I482
sg635
I482
sa(dp639
g631
I109514
sg632
F2.015923023223877
sg633
F1.9136300086975098
sg634
I480
sg635
I480
sa(dp640
g631
I2865
sg632
F0.12747693061828613
sg633
F0.10634517669677734
sg634
I12
sg635
I12
sasS'total_cqs'
p641
I486
ssI59
(dp642
S'iters'
p643
I2
sS'meta'
p644
(lp645
(dp646
S'objective'
p647
I10
sS'query_time'
p648
F1.4388151168823242
sS'comp_time'
p649
F0.0015208721160888672
sS'exec_cq'
p650
I7
sS'total_cq'
p651
I7
sa(dp652
g647
I5
sg648
F0.0002510547637939453
sg649
F0.001354217529296875
sg650
I2
sg651
I2
sasS'total_cqs'
p653
I7
ssI60
(dp654
S'iters'
p655
I1
sS'meta'
p656
(lp657
(dp658
S'objective'
p659
I5
sS'query_time'
p660
F0.39754295349121094
sS'comp_time'
p661
F0.0004527568817138672
sS'exec_cq'
p662
I5
sS'total_cq'
p663
I5
sasS'total_cqs'
p664
I5
ssI61
(dp665
S'iters'
p666
I0
sS'meta'
p667
(lp668
sS'total_cqs'
p669
I1
ssI62
(dp670
S'iters'
p671
I2
sS'meta'
p672
(lp673
(dp674
S'objective'
p675
I50
sS'query_time'
p676
F0.548753023147583
sS'comp_time'
p677
F0.0003190040588378906
sS'exec_cq'
p678
I12
sS'total_cq'
p679
I12
sa(dp680
g675
I40
sg676
F8.797645568847656e-05
sg677
F0.00011801719665527344
sg678
I9
sg679
I9
sasS'total_cqs'
p681
I12
ssI63
(dp682
S'iters'
p683
I0
sS'meta'
p684
(lp685
sS'total_cqs'
p686
I1
ssI64
(dp687
S'iters'
p688
I3
sS'meta'
p689
(lp690
(dp691
S'objective'
p692
I12
sS'query_time'
p693
F7.658825159072876
sS'comp_time'
p694
F0.009160995483398438
sS'exec_cq'
p695
I12
sS'total_cq'
p696
I12
sa(dp697
g692
I3
sg693
F0.00017690658569335938
sg694
F0.0008702278137207031
sg695
I4
sg696
I4
sa(dp698
g692
I9
sg693
F7.486343383789062e-05
sg694
F0.00026679039001464844
sg695
I2
sg696
I2
sasS'total_cqs'
p699
I12
ssI65
(dp700
S'iters'
p701
I3
sS'meta'
p702
(lp703
(dp704
S'objective'
p705
I152
sS'query_time'
p706
F15.31243896484375
sS'comp_time'
p707
F0.04788517951965332
sS'exec_cq'
p708
I27
sS'total_cq'
p709
I27
sa(dp710
g705
I5
sg706
F0.0015819072723388672
sg707
F0.0048830509185791016
sg708
I7
sg709
I7
sa(dp711
g705
I0
sg706
F0.0006289482116699219
sg707
F0.0032701492309570312
sg708
I3
sg709
I3
sasS'total_cqs'
p712
I27
ssI66
(dp713
S'iters'
p714
I0
sS'meta'
p715
(lp716
sS'total_cqs'
p717
I1
ssI67
(dp718
S'iters'
p719
I2
sS'meta'
p720
(lp721
(dp722
S'objective'
p723
I544
sS'query_time'
p724
F15.827023029327393
sS'comp_time'
p725
F0.006378889083862305
sS'exec_cq'
p726
I35
sS'total_cq'
p727
I35
sa(dp728
g723
I27
sg724
F0.0010221004486083984
sg725
F0.004966020584106445
sg726
I2
sg727
I2
sasS'total_cqs'
p729
I35
ssI68
(dp730
S'iters'
p731
I0
sS'meta'
p732
(lp733
sS'total_cqs'
p734
I1
ssI69
(dp735
S'iters'
p736
I1
sS'meta'
p737
(lp738
(dp739
S'objective'
p740
I1224
sS'query_time'
p741
F10.12393307685852
sS'comp_time'
p742
F0.0002810955047607422
sS'exec_cq'
p743
I51
sS'total_cq'
p744
I51
sasS'total_cqs'
p745
I51
ssI70
(dp746
S'iters'
p747
I1
sS'meta'
p748
(lp749
(dp750
S'objective'
p751
I9
sS'query_time'
p752
F0.812053918838501
sS'comp_time'
p753
F0.00031495094299316406
sS'exec_cq'
p754
I6
sS'total_cq'
p755
I6
sasS'total_cqs'
p756
I6
ssI71
(dp757
S'iters'
p758
I4
sS'meta'
p759
(lp760
(dp761
S'objective'
p762
I3241
sS'query_time'
p763
F6.213907957077026
sS'comp_time'
p764
F0.0014500617980957031
sS'exec_cq'
p765
I85
sS'total_cq'
p766
I85
sa(dp767
g762
I3062
sg763
F0.0005769729614257812
sg764
F0.0010809898376464844
sg765
I81
sg766
I81
sa(dp768
g762
I2923
sg763
F0.0002779960632324219
sg764
F0.0005500316619873047
sg765
I77
sg766
I77
sa(dp769
g762
I4
sg763
F0.02528095245361328
sg764
F0.005043983459472656
sg765
I3
sg766
I3
sasS'total_cqs'
p770
I85
ssI72
(dp771
S'iters'
p772
I3
sS'meta'
p773
(lp774
(dp775
S'objective'
p776
I12
sS'query_time'
p777
F9.616626977920532
sS'comp_time'
p778
F0.00399017333984375
sS'exec_cq'
p779
I8
sS'total_cq'
p780
I8
sa(dp781
g776
I6
sg777
F0.00013184547424316406
sg778
F0.0004050731658935547
sg779
I5
sg780
I5
sa(dp782
g776
I1
sg777
F0.00011301040649414062
sg778
F0.0003879070281982422
sg779
I3
sg780
I3
sasS'total_cqs'
p783
I8
ssI73
(dp784
S'iters'
p785
I0
sS'meta'
p786
(lp787
sS'total_cqs'
p788
I1
ssI74
(dp789
S'iters'
p790
I0
sS'meta'
p791
(lp792
sS'total_cqs'
p793
I1
ssI75
(dp794
S'iters'
p795
I1
sS'meta'
p796
(lp797
(dp798
S'objective'
p799
I5
sS'query_time'
p800
F0.23624897003173828
sS'comp_time'
p801
F0.00016307830810546875
sS'exec_cq'
p802
I5
sS'total_cq'
p803
I5
sasS'total_cqs'
p804
I5
ssI76
(dp805
S'iters'
p806
I1
sS'meta'
p807
(lp808
(dp809
S'objective'
p810
I1
sS'query_time'
p811
F0.7825589179992676
sS'comp_time'
p812
F0.0004508495330810547
sS'exec_cq'
p813
I2
sS'total_cq'
p814
I2
sasS'total_cqs'
p815
I2
ssI77
(dp816
S'iters'
p817
I0
sS'meta'
p818
(lp819
sS'total_cqs'
p820
I1
ssI78
(dp821
S'iters'
p822
I0
sS'meta'
p823
(lp824
sS'total_cqs'
p825
I1
ssI103
(dp826
S'iters'
p827
I1
sS'meta'
p828
(lp829
(dp830
S'objective'
p831
I54
sS'query_time'
p832
F5.659787893295288
sS'comp_time'
p833
F0.00022220611572265625
sS'exec_cq'
p834
I12
sS'total_cq'
p835
I12
sasS'total_cqs'
p836
I12
ssI104
(dp837
S'iters'
p838
I1
sS'meta'
p839
(lp840
(dp841
S'objective'
p842
I2
sS'query_time'
p843
F15.252243995666504
sS'comp_time'
p844
F0.09187817573547363
sS'exec_cq'
p845
I4
sS'total_cq'
p846
I4
sasS'total_cqs'
p847
I4
ssI105
(dp848
S'iters'
p849
I0
sS'meta'
p850
(lp851
sS'total_cqs'
p852
I1
ssI106
(dp853
S'iters'
p854
I1
sS'meta'
p855
(lp856
(dp857
S'objective'
p858
I2
sS'query_time'
p859
F1.2090840339660645
sS'comp_time'
p860
F0.00017571449279785156
sS'exec_cq'
p861
I4
sS'total_cq'
p862
I4
sasS'total_cqs'
p863
I4
ssI107
(dp864
S'iters'
p865
I2
sS'meta'
p866
(lp867
(dp868
S'objective'
p869
I50
sS'query_time'
p870
F4.530555009841919
sS'comp_time'
p871
F0.00032329559326171875
sS'exec_cq'
p872
I16
sS'total_cq'
p873
I16
sa(dp874
g869
I11
sg870
F0.07047510147094727
sg871
F0.0001690387725830078
sg872
I3
sg873
I3
sasS'total_cqs'
p875
I16
ssI108
(dp876
S'iters'
p877
I0
sS'meta'
p878
(lp879
sS'total_cqs'
p880
I1
ss.