(dp0
I1
(dp1
S'iters'
p2
I2
sS'meta'
p3
(lp4
(dp5
S'objective'
p6
I54
sS'query_time'
p7
F0.09725189208984375
sS'comp_time'
p8
F0.018486976623535156
sS'exec_cq'
p9
I12
sS'total_cq'
p10
I12
sa(dp11
g6
I52
sg7
F6.985664367675781e-05
sg8
F0.0001857280731201172
sg9
I10
sg10
I10
sasS'total_cqs'
p12
I12
ssI2
(dp13
S'iters'
p14
I5
sS'meta'
p15
(lp16
(dp17
S'objective'
p18
I238
sS'query_time'
p19
F0.11207723617553711
sS'comp_time'
p20
F0.032974958419799805
sS'exec_cq'
p21
I27
sS'total_cq'
p22
I27
sa(dp23
g18
I202
sg19
F0.00025010108947753906
sg20
F0.0009021759033203125
sg21
I24
sg22
I24
sa(dp24
g18
I161
sg19
F0.00011801719665527344
sg20
F0.0004627704620361328
sg21
I21
sg22
I21
sa(dp25
g18
I168
sg19
F0.00012803077697753906
sg20
F0.0004439353942871094
sg21
I19
sg22
I19
sa(dp26
g18
I158
sg19
F0.00010371208190917969
sg20
F0.000308990478515625
sg21
I17
sg22
I17
sasS'total_cqs'
p27
I27
ssI3
(dp28
S'iters'
p29
I5
sS'meta'
p30
(lp31
(dp32
S'objective'
p33
I470
sS'query_time'
p34
F210.33961701393127
sS'comp_time'
p35
F0.07776594161987305
sS'exec_cq'
p36
I16
sS'total_cq'
p37
I43
sa(dp38
g33
I354
sg34
F349.92442512512207
sg35
F1.6634182929992676
sg36
I23
sg37
I35
sa(dp39
g33
I397
sg34
F11.931610822677612
sg35
F1.722651720046997
sg36
I26
sg37
I28
sa(dp40
g33
I414
sg34
F7.700920104980469e-05
sg35
F0.00021982192993164062
sg36
I21
sg37
I21
sa(dp41
g33
I393
sg34
F5.3882598876953125e-05
sg35
F3.814697265625e-05
sg36
I20
sg37
I20
sasS'total_cqs'
p42
I43
ssI4
(dp43
S'iters'
p44
I2
sS'meta'
p45
(lp46
(dp47
S'objective'
p48
I42
sS'query_time'
p49
F4.810956954956055
sS'comp_time'
p50
F0.32106685638427734
sS'exec_cq'
p51
I11
sS'total_cq'
p52
I11
sa(dp53
g48
I2
sg49
F0.17237591743469238
sg50
F0.25687646865844727
sg51
I2
sg52
I2
sasS'total_cqs'
p54
I11
ssI5
(dp55
S'iters'
p56
I3
sS'meta'
p57
(lp58
(dp59
S'objective'
p60
I0
sS'query_time'
p61
F35.65397381782532
sS'comp_time'
p62
F3.0916528701782227
sS'exec_cq'
p63
I8
sS'total_cq'
p64
I8
sa(dp65
g60
I0
sg61
F0.4289438724517822
sg62
F2.098780393600464
sg63
I4
sg64
I4
sa(dp66
g60
I1
sg61
F0.426638126373291
sg62
F0.9237546920776367
sg63
I2
sg64
I2
sasS'total_cqs'
p67
I8
ssI6
(dp68
S'iters'
p69
I4
sS'meta'
p70
(lp71
(dp72
S'objective'
p73
I51
sS'query_time'
p74
F37.28898906707764
sS'comp_time'
p75
F1.5378718376159668
sS'exec_cq'
p76
I18
sS'total_cq'
p77
I18
sa(dp78
g73
I0
sg74
F0.6636989116668701
sg75
F12.999269008636475
sg76
I7
sg77
I7
sa(dp79
g73
I2
sg74
F0.4125180244445801
sg75
F1.1590209007263184
sg76
I4
sg77
I4
sa(dp80
g73
I4
sg74
F0.37302494049072266
sg75
F0.8686399459838867
sg76
I2
sg77
I2
sasS'total_cqs'
p81
I18
ssI7
(dp82
S'iters'
p83
I3
sS'meta'
p84
(lp85
(dp86
S'objective'
p87
I1
sS'query_time'
p88
F12.501498222351074
sS'comp_time'
p89
F1.9362366199493408
sS'exec_cq'
p90
I9
sS'total_cq'
p91
I9
sa(dp92
g87
I0
sg88
F0.02404308319091797
sg89
F0.1719369888305664
sg90
I5
sg91
I5
sa(dp93
g87
I1
sg88
F0.0033769607543945312
sg89
F0.005352020263671875
sg90
I2
sg91
I2
sasS'total_cqs'
p94
I9
ssI8
(dp95
S'iters'
p96
I4
sS'meta'
p97
(lp98
(dp99
S'objective'
p100
I240
sS'query_time'
p101
F0.07762408256530762
sS'comp_time'
p102
F0.02950429916381836
sS'exec_cq'
p103
I27
sS'total_cq'
p104
I27
sa(dp105
g100
I243
sg101
F0.0002257823944091797
sg102
F0.0006890296936035156
sg103
I22
sg104
I22
sa(dp106
g100
I226
sg101
F0.00010228157043457031
sg102
F0.0002789497375488281
sg103
I19
sg104
I19
sa(dp107
g100
I221
sg101
F9.918212890625e-05
sg102
F0.00015997886657714844
sg103
I18
sg104
I18
sasS'total_cqs'
p108
I27
ssI9
(dp109
S'iters'
p110
I3
sS'meta'
p111
(lp112
(dp113
S'objective'
p114
I6
sS'query_time'
p115
F0.049108028411865234
sS'comp_time'
p116
F0.004928112030029297
sS'exec_cq'
p117
I7
sS'total_cq'
p118
I7
sa(dp119
g114
I1
sg115
F3.504753112792969e-05
sg116
F0.00011610984802246094
sg117
I4
sg118
I4
sa(dp120
g114
I2
sg115
F1.4066696166992188e-05
sg116
F5.888938903808594e-05
sg117
I2
sg118
I2
sasS'total_cqs'
p121
I7
ssI10
(dp122
S'iters'
p123
I5
sS'meta'
p124
(lp125
(dp126
S'objective'
p127
I582
sS'query_time'
p128
F0.28035640716552734
sS'comp_time'
p129
F0.10213875770568848
sS'exec_cq'
p130
I51
sS'total_cq'
p131
I51
sa(dp132
g127
I6
sg128
F0.00032401084899902344
sg129
F0.0063893795013427734
sg130
I12
sg131
I12
sa(dp133
g127
I15
sg128
F4.7206878662109375e-05
sg129
F0.00033164024353027344
sg130
I6
sg131
I6
sa(dp134
g127
I17
sg128
F2.9087066650390625e-05
sg129
F0.0002067089080810547
sg130
I4
sg131
I4
sa(dp135
g127
I4
sg128
F2.7179718017578125e-05
sg129
F8.416175842285156e-05
sg130
I3
sg131
I3
sasS'total_cqs'
p136
I51
ssI11
(dp137
S'iters'
p138
I5
sS'meta'
p139
(lp140
(dp141
S'objective'
p142
I904
sS'query_time'
p143
F0.48211193084716797
sS'comp_time'
p144
F0.17461681365966797
sS'exec_cq'
p145
I63
sS'total_cq'
p146
I63
sa(dp147
g142
I864
sg143
F0.0013849735260009766
sg144
F0.005078315734863281
sg145
I47
sg146
I47
sa(dp148
g142
I12
sg143
F0.0002410411834716797
sg144
F0.0028710365295410156
sg145
I9
sg146
I9
sa(dp149
g142
I63
sg143
F3.3855438232421875e-05
sg144
F0.0003037452697753906
sg145
I4
sg146
I4
sa(dp150
g142
I26
sg143
F1.5974044799804688e-05
sg144
F7.319450378417969e-05
sg145
I2
sg146
I2
sasS'total_cqs'
p151
I63
ssI12
(dp152
S'iters'
p153
I5
sS'meta'
p154
(lp155
(dp156
S'objective'
p157
I337
sS'query_time'
p158
F0.33400917053222656
sS'comp_time'
p159
F0.08529782295227051
sS'exec_cq'
p160
I50
sS'total_cq'
p161
I50
sa(dp162
g157
I380
sg158
F0.0006041526794433594
sg159
F0.0031731128692626953
sg160
I33
sg161
I33
sa(dp163
g157
I5
sg158
F0.0003190040588378906
sg159
F0.002228975296020508
sg160
I8
sg161
I8
sa(dp164
g157
I55
sg158
F4.1961669921875e-05
sg159
F0.0002875328063964844
sg160
I4
sg161
I4
sa(dp165
g157
I25
sg158
F1.5020370483398438e-05
sg159
F7.367134094238281e-05
sg160
I2
sg161
I2
sasS'total_cqs'
p166
I50
ssI13
(dp167
S'iters'
p168
I5
sS'meta'
p169
(lp170
(dp171
S'objective'
p172
I2
sS'query_time'
p173
F0.14650392532348633
sS'comp_time'
p174
F0.03519868850708008
sS'exec_cq'
p175
I20
sS'total_cq'
p176
I20
sa(dp177
g172
I6
sg173
F0.00011396408081054688
sg174
F0.0041844844818115234
sg175
I11
sg176
I11
sa(dp178
g172
I1
sg173
F2.6941299438476562e-05
sg174
F0.00022172927856445312
sg175
I5
sg176
I5
sa(dp179
g172
I3
sg173
F1.6927719116210938e-05
sg174
F8.296966552734375e-05
sg175
I3
sg176
I3
sa(dp180
g172
I7
sg173
F1.0967254638671875e-05
sg174
F4.315376281738281e-05
sg175
I2
sg176
I2
sasS'total_cqs'
p181
I20
ssI14
(dp182
S'iters'
p183
I3
sS'meta'
p184
(lp185
(dp186
S'objective'
p187
I1
sS'query_time'
p188
F33.86720299720764
sS'comp_time'
p189
F0.9657046794891357
sS'exec_cq'
p190
I9
sS'total_cq'
p191
I9
sa(dp192
g187
I0
sg188
F0.08073091506958008
sg189
F0.6592428684234619
sg190
I4
sg191
I4
sa(dp193
g187
I1
sg188
F0.0778050422668457
sg189
F0.43297410011291504
sg190
I2
sg191
I2
sasS'total_cqs'
p194
I9
ssI15
(dp195
S'iters'
p196
I3
sS'meta'
p197
(lp198
(dp199
S'objective'
p200
I0
sS'query_time'
p201
F3.5798230171203613
sS'comp_time'
p202
F0.09096193313598633
sS'exec_cq'
p203
I11
sS'total_cq'
p204
I11
sa(dp205
g200
I1
sg201
F0.04134702682495117
sg202
F0.14810681343078613
sg203
I5
sg204
I5
sa(dp206
g200
I3
sg201
F0.0009298324584960938
sg202
F0.0011720657348632812
sg203
I2
sg204
I2
sasS'total_cqs'
p207
I11
ssI16
(dp208
S'iters'
p209
I1
sS'meta'
p210
(lp211
(dp212
S'objective'
p213
I26
sS'query_time'
p214
F0.010693788528442383
sS'comp_time'
p215
F0.004160165786743164
sS'exec_cq'
p216
I8
sS'total_cq'
p217
I8
sasS'total_cqs'
p218
I8
ssI17
(dp219
S'iters'
p220
I4
sS'meta'
p221
(lp222
(dp223
S'objective'
p224
I2
sS'query_time'
p225
F0.9859528541564941
sS'comp_time'
p226
F0.05417323112487793
sS'exec_cq'
p227
I11
sS'total_cq'
p228
I11
sa(dp229
g224
I0
sg225
F0.008944034576416016
sg226
F0.010123968124389648
sg227
I6
sg228
I6
sa(dp230
g224
I0
sg225
F0.0023889541625976562
sg226
F0.006524324417114258
sg227
I4
sg228
I4
sa(dp231
g224
I6
sg225
F0.002292156219482422
sg226
F0.004045724868774414
sg227
I2
sg228
I2
sasS'total_cqs'
p232
I11
ssI18
(dp233
S'iters'
p234
I3
sS'meta'
p235
(lp236
(dp237
S'objective'
p238
I40
sS'query_time'
p239
F0.29818201065063477
sS'comp_time'
p240
F0.030881166458129883
sS'exec_cq'
p241
I11
sS'total_cq'
p242
I11
sa(dp243
g238
I35
sg239
F0.00024700164794921875
sg240
F0.0008029937744140625
sg241
I8
sg242
I8
sa(dp244
g238
I30
sg239
F0.00021791458129882812
sg240
F0.0004017353057861328
sg241
I7
sg242
I7
sasS'total_cqs'
p245
I11
ssI19
(dp246
S'iters'
p247
I0
sS'meta'
p248
(lp249
sS'total_cqs'
p250
I1
ssI20
(dp251
S'iters'
p252
I0
sS'meta'
p253
(lp254
sS'total_cqs'
p255
I1
ssI21
(dp256
S'iters'
p257
I0
sS'meta'
p258
(lp259
sS'total_cqs'
p260
I1
ssI22
(dp261
S'iters'
p262
I1
sS'meta'
p263
(lp264
(dp265
S'objective'
p266
I151
sS'query_time'
p267
F0.024265050888061523
sS'comp_time'
p268
F0.025304317474365234
sS'exec_cq'
p269
I18
sS'total_cq'
p270
I18
sasS'total_cqs'
p271
I18
ssI23
(dp272
S'iters'
p273
I2
sS'meta'
p274
(lp275
(dp276
S'objective'
p277
I82
sS'query_time'
p278
F0.052056074142456055
sS'comp_time'
p279
F0.02590489387512207
sS'exec_cq'
p280
I16
sS'total_cq'
p281
I16
sa(dp282
g277
I91
sg278
F0.00012111663818359375
sg279
F0.0002467632293701172
sg280
I14
sg281
I14
sasS'total_cqs'
p283
I16
ssI24
(dp284
S'iters'
p285
I0
sS'meta'
p286
(lp287
sS'total_cqs'
p288
I1
ssI25
(dp289
S'iters'
p290
I0
sS'meta'
p291
(lp292
sS'total_cqs'
p293
I1
ssI26
(dp294
S'iters'
p295
I1
sS'meta'
p296
(lp297
(dp298
S'objective'
p299
I859
sS'query_time'
p300
F0.05099987983703613
sS'comp_time'
p301
F0.13174676895141602
sS'exec_cq'
p302
I42
sS'total_cq'
p303
I42
sasS'total_cqs'
p304
I42
ssI27
(dp305
S'iters'
p306
I3
sS'meta'
p307
(lp308
(dp309
S'objective'
p310
I345
sS'query_time'
p311
F22.858148097991943
sS'comp_time'
p312
F2.304391860961914
sS'exec_cq'
p313
I30
sS'total_cq'
p314
I30
sa(dp315
g310
I2
sg311
F0.8220951557159424
sg312
F2.4565303325653076
sg313
I5
sg314
I5
sa(dp316
g310
I1
sg311
F0.2487950325012207
sg312
F0.38973569869995117
sg313
I3
sg314
I3
sasS'total_cqs'
p317
I30
ssI28
(dp318
S'iters'
p319
I0
sS'meta'
p320
(lp321
sS'total_cqs'
p322
I1
ssI29
(dp323
S'iters'
p324
I5
sS'meta'
p325
(lp326
(dp327
S'objective'
p328
I149
sS'query_time'
p329
F27.704374074935913
sS'comp_time'
p330
F0.8585593700408936
sS'exec_cq'
p331
I35
sS'total_cq'
p332
I49
sa(dp333
g328
I0
sg329
F0.11594700813293457
sg330
F1.049217700958252
sg331
I16
sg332
I16
sa(dp334
g328
I5
sg329
F0.22721409797668457
sg330
F0.2989959716796875
sg331
I8
sg332
I8
sa(dp335
g328
I2
sg329
F0.012065887451171875
sg330
F0.012370109558105469
sg331
I4
sg332
I4
sa(dp336
g328
I13
sg329
F0.0010440349578857422
sg330
F0.0015180110931396484
sg331
I2
sg332
I2
sasS'total_cqs'
p337
I49
ssI30
(dp338
S'iters'
p339
I1
sS'meta'
p340
(lp341
(dp342
S'objective'
p343
I1
sS'query_time'
p344
F0.7555150985717773
sS'comp_time'
p345
F0.013065099716186523
sS'exec_cq'
p346
I2
sS'total_cq'
p347
I2
sasS'total_cqs'
p348
I2
ssI31
(dp349
S'iters'
p350
I0
sS'meta'
p351
(lp352
sS'total_cqs'
p353
I1
ssI32
(dp354
S'iters'
p355
I1
sS'meta'
p356
(lp357
(dp358
S'objective'
p359
I1
sS'query_time'
p360
F0.020375967025756836
sS'comp_time'
p361
F0.0025849342346191406
sS'exec_cq'
p362
I2
sS'total_cq'
p363
I2
sasS'total_cqs'
p364
I2
ssI33
(dp365
S'iters'
p366
I5
sS'meta'
p367
(lp368
(dp369
S'objective'
p370
I3872
sS'query_time'
p371
F15.722917079925537
sS'comp_time'
p372
F0.9263348579406738
sS'exec_cq'
p373
I103
sS'total_cq'
p374
I103
sa(dp375
g370
I50
sg371
F0.008589982986450195
sg372
F0.07155227661132812
sg373
I16
sg374
I16
sa(dp376
g370
I2
sg371
F0.002713918685913086
sg372
F0.0051043033599853516
sg373
I7
sg374
I7
sa(dp377
g370
I12
sg371
F0.0006089210510253906
sg372
F0.0010900497436523438
sg373
I4
sg374
I4
sa(dp378
g370
I25
sg371
F0.00016379356384277344
sg372
F0.00041222572326660156
sg373
I2
sg374
I2
sasS'total_cqs'
p379
I103
ssI34
(dp380
S'iters'
p381
I1
sS'meta'
p382
(lp383
(dp384
S'objective'
p385
I1
sS'query_time'
p386
F0.01203608512878418
sS'comp_time'
p387
F0.0016999244689941406
sS'exec_cq'
p388
I2
sS'total_cq'
p389
I2
sasS'total_cqs'
p390
I2
ssI35
(dp391
S'iters'
p392
I5
sS'meta'
p393
(lp394
(dp395
S'objective'
p396
I1467
sS'query_time'
p397
F264.6081669330597
sS'comp_time'
p398
F11.25479769706726
sS'exec_cq'
p399
I70
sS'total_cq'
p400
I70
sa(dp401
g396
I45
sg397
F0.0048329830169677734
sg398
F0.019610166549682617
sg399
I16
sg400
I16
sa(dp402
g396
I29
sg397
F0.001567840576171875
sg398
F0.005609989166259766
sg399
I7
sg400
I7
sa(dp403
g396
I15
sg397
F0.0007300376892089844
sg398
F0.0009677410125732422
sg399
I3
sg400
I3
sa(dp404
g396
I12
sg397
F0.00026798248291015625
sg398
F0.0005631446838378906
sg399
I2
sg400
I2
sasS'total_cqs'
p405
I70
ssI36
(dp406
S'iters'
p407
I4
sS'meta'
p408
(lp409
(dp410
S'objective'
p411
I393
sS'query_time'
p412
F0.6992652416229248
sS'comp_time'
p413
F0.15161681175231934
sS'exec_cq'
p414
I33
sS'total_cq'
p415
I33
sa(dp416
g411
I335
sg412
F0.008731842041015625
sg413
F0.01881241798400879
sg414
I29
sg415
I29
sa(dp417
g411
I344
sg412
F0.0027332305908203125
sg413
F0.004897594451904297
sg414
I25
sg415
I25
sa(dp418
g411
I339
sg412
F0.0014221668243408203
sg413
F0.00185394287109375
sg414
I24
sg415
I24
sasS'total_cqs'
p419
I33
ssI37
(dp420
S'iters'
p421
I1
sS'meta'
p422
(lp423
(dp424
S'objective'
p425
I1
sS'query_time'
p426
F0.027067899703979492
sS'comp_time'
p427
F0.001611948013305664
sS'exec_cq'
p428
I2
sS'total_cq'
p429
I2
sasS'total_cqs'
p430
I2
ssI38
(dp431
S'iters'
p432
I2
sS'meta'
p433
(lp434
(dp435
S'objective'
p436
I0
sS'query_time'
p437
F0.018175125122070312
sS'comp_time'
p438
F0.0031867027282714844
sS'exec_cq'
p439
I4
sS'total_cq'
p440
I4
sa(dp441
g436
I1
sg437
F7.295608520507812e-05
sg438
F0.00016999244689941406
sg439
I2
sg440
I2
sasS'total_cqs'
p442
I4
ssI39
(dp443
S'iters'
p444
I2
sS'meta'
p445
(lp446
(dp447
S'objective'
p448
I628
sS'query_time'
p449
F0.06353187561035156
sS'comp_time'
p450
F0.1601710319519043
sS'exec_cq'
p451
I44
sS'total_cq'
p452
I44
sa(dp453
g448
I763
sg449
F0.0003170967102050781
sg450
F0.0008170604705810547
sg451
I37
sg452
I37
sasS'total_cqs'
p454
I44
ssI40
(dp455
S'iters'
p456
I1
sS'meta'
p457
(lp458
(dp459
S'objective'
p460
I18
sS'query_time'
p461
F0.025780916213989258
sS'comp_time'
p462
F0.0055811405181884766
sS'exec_cq'
p463
I7
sS'total_cq'
p464
I7
sasS'total_cqs'
p465
I7
ssI41
(dp466
S'iters'
p467
I1
sS'meta'
p468
(lp469
(dp470
S'objective'
p471
I64
sS'query_time'
p472
F0.10793900489807129
sS'comp_time'
p473
F0.015583992004394531
sS'exec_cq'
p474
I12
sS'total_cq'
p475
I12
sasS'total_cqs'
p476
I12
ssI42
(dp477
S'iters'
p478
I2
sS'meta'
p479
(lp480
(dp481
S'objective'
p482
I785
sS'query_time'
p483
F0.06349468231201172
sS'comp_time'
p484
F0.13718485832214355
sS'exec_cq'
p485
I41
sS'total_cq'
p486
I41
sa(dp487
g482
I779
sg483
F0.00017523765563964844
sg484
F0.000240325927734375
sg485
I40
sg486
I40
sasS'total_cqs'
p488
I41
ssI43
(dp489
S'iters'
p490
I1
sS'meta'
p491
(lp492
(dp493
S'objective'
p494
I18
sS'query_time'
p495
F0.017740964889526367
sS'comp_time'
p496
F0.005602121353149414
sS'exec_cq'
p497
I7
sS'total_cq'
p498
I7
sasS'total_cqs'
p499
I7
ssI44
(dp500
S'iters'
p501
I4
sS'meta'
p502
(lp503
(dp504
S'objective'
p505
I818
sS'query_time'
p506
F0.0693509578704834
sS'comp_time'
p507
F0.1357729434967041
sS'exec_cq'
p508
I47
sS'total_cq'
p509
I47
sa(dp510
g505
I855
sg506
F0.0002808570861816406
sg507
F0.0009579658508300781
sg508
I40
sg509
I40
sa(dp511
g505
I11
sg506
F0.0001239776611328125
sg507
F0.0013058185577392578
sg508
I3
sg509
I3
sa(dp512
g505
I15
sg506
F0.00011587142944335938
sg507
F0.0002372264862060547
sg508
I2
sg509
I2
sasS'total_cqs'
p513
I47
ssI45
(dp514
S'iters'
p515
I0
sS'meta'
p516
(lp517
sS'total_cqs'
p518
I1
ssI46
(dp519
S'iters'
p520
I1
sS'meta'
p521
(lp522
(dp523
S'objective'
p524
I13
sS'query_time'
p525
F0.019043922424316406
sS'comp_time'
p526
F0.0027627944946289062
sS'exec_cq'
p527
I6
sS'total_cq'
p528
I6
sasS'total_cqs'
p529
I6
ssI47
(dp530
S'iters'
p531
I1
sS'meta'
p532
(lp533
(dp534
S'objective'
p535
I1
sS'query_time'
p536
F0.012658119201660156
sS'comp_time'
p537
F0.0012869834899902344
sS'exec_cq'
p538
I2
sS'total_cq'
p539
I2
sasS'total_cqs'
p540
I2
ssI48
(dp541
S'iters'
p542
I0
sS'meta'
p543
(lp544
sS'total_cqs'
p545
I1
ssI49
(dp546
S'iters'
p547
I0
sS'meta'
p548
(lp549
sS'total_cqs'
p550
I1
ssI50
(dp551
S'iters'
p552
I2
sS'meta'
p553
(lp554
(dp555
S'objective'
p556
I5
sS'query_time'
p557
F0.008809804916381836
sS'comp_time'
p558
F0.002039194107055664
sS'exec_cq'
p559
I5
sS'total_cq'
p560
I5
sa(dp561
g556
I2
sg557
F2.6941299438476562e-05
sg558
F0.00014710426330566406
sg559
I4
sg560
I4
sasS'total_cqs'
p562
I5
ssI51
(dp563
S'iters'
p564
I1
sS'meta'
p565
(lp566
(dp567
S'objective'
p568
I1
sS'query_time'
p569
F0.007776021957397461
sS'comp_time'
p570
F0.0024640560150146484
sS'exec_cq'
p571
I2
sS'total_cq'
p572
I2
sasS'total_cqs'
p573
I2
ssI52
(dp574
S'iters'
p575
I1
sS'meta'
p576
(lp577
(dp578
S'objective'
p579
I1
sS'query_time'
p580
F0.006448030471801758
sS'comp_time'
p581
F0.0011518001556396484
sS'exec_cq'
p582
I2
sS'total_cq'
p583
I2
sasS'total_cqs'
p584
I2
ssI53
(dp585
S'iters'
p586
I2
sS'meta'
p587
(lp588
(dp589
S'objective'
p590
I2
sS'query_time'
p591
F0.015148162841796875
sS'comp_time'
p592
F0.00257110595703125
sS'exec_cq'
p593
I4
sS'total_cq'
p594
I4
sa(dp595
g590
I0
sg591
F7.295608520507812e-05
sg592
F0.00022482872009277344
sg593
I3
sg594
I3
sasS'total_cqs'
p596
I4
ssI54
(dp597
S'iters'
p598
I1
sS'meta'
p599
(lp600
(dp601
S'objective'
p602
I0
sS'query_time'
p603
F0.00766301155090332
sS'comp_time'
p604
F0.0014922618865966797
sS'exec_cq'
p605
I3
sS'total_cq'
p606
I3
sasS'total_cqs'
p607
I3
ssI55
(dp608
S'iters'
p609
I7
sS'meta'
p610
(lp611
(dp612
S'objective'
p613
I4353
sS'query_time'
p614
F2.4171550273895264
sS'comp_time'
p615
F0.6146318912506104
sS'exec_cq'
p616
I109
sS'total_cq'
p617
I109
sa(dp618
g613
I4192
sg614
F0.0011720657348632812
sg615
F0.0048389434814453125
sg616
I97
sg617
I97
sa(dp619
g613
I4101
sg614
F0.0004990100860595703
sg615
F0.001934051513671875
sg616
I91
sg617
I91
sa(dp620
g613
I4074
sg614
F0.00041294097900390625
sg615
F0.0014412403106689453
sg616
I87
sg617
I87
sa(dp621
g613
I3977
sg614
F0.000408172607421875
sg615
F0.0009949207305908203
sg616
I85
sg617
I85
sa(dp622
g613
I3923
sg614
F0.0003590583801269531
sg615
F0.0008428096771240234
sg616
I83
sg617
I83
sa(dp623
g613
I3902
sg614
F0.0003371238708496094
sg615
F0.00066375732421875
sg616
I81
sg617
I81
sasS'total_cqs'
p624
I109
ssI56
(dp625
S'iters'
p626
I5
sS'meta'
p627
(lp628
(dp629
S'objective'
p630
I1802
sS'query_time'
p631
F1.416964054107666
sS'comp_time'
p632
F0.3238081932067871
sS'exec_cq'
p633
I67
sS'total_cq'
p634
I76
sa(dp635
g630
I4
sg631
F0.006139039993286133
sg632
F0.08754849433898926
sg633
I16
sg634
I16
sa(dp636
g630
I3
sg631
F0.002129077911376953
sg632
F0.007369518280029297
sg633
I10
sg634
I10
sa(dp637
g630
I29
sg631
F0.00047397613525390625
sg632
F0.0012447834014892578
sg633
I4
sg634
I4
sa(dp638
g630
I22
sg631
F0.0001518726348876953
sg632
F0.00041294097900390625
sg633
I2
sg634
I2
sasS'total_cqs'
p639
I76
ssI57
(dp640
S'iters'
p641
I5
sS'meta'
p642
(lp643
(dp644
S'objective'
p645
I34
sS'query_time'
p646
F22.797578811645508
sS'comp_time'
p647
F0.15207219123840332
sS'exec_cq'
p648
I45
sS'total_cq'
p649
I51
sa(dp650
g645
I42
sg646
F0.0171658992767334
sg647
F0.041841745376586914
sg648
I27
sg649
I27
sa(dp651
g645
I18
sg646
F0.0027048587799072266
sg647
F0.00391697883605957
sg648
I13
sg649
I13
sa(dp652
g645
I0
sg646
F0.0015130043029785156
sg647
F0.0053348541259765625
sg648
I6
sg649
I6
sa(dp653
g645
I17
sg646
F0.0007288455963134766
sg647
F0.0010228157043457031
sg648
I3
sg649
I3
sasS'total_cqs'
p654
I51
ssI58
(dp655
S'iters'
p656
I7
sS'meta'
p657
(lp658
(dp659
S'objective'
p660
I82127
sS'query_time'
p661
F516.4923439025879
sS'comp_time'
p662
F34.92130970954895
sS'exec_cq'
p663
I486
sS'total_cq'
p664
I486
sa(dp665
g660
I86334
sg661
F9.45864200592041
sg662
F14.58858847618103
sg663
I414
sg664
I414
sa(dp666
g660
I538
sg661
F0.016582012176513672
sg662
F0.20362329483032227
sg663
I28
sg664
I28
sa(dp667
g660
I12
sg661
F0.01232004165649414
sg662
F3.4269373416900635
sg663
I16
sg664
I16
sa(dp668
g660
I59
sg661
F0.0030040740966796875
sg662
F0.01698923110961914
sg663
I8
sg664
I8
sa(dp669
g660
I24
sg661
F0.0011029243469238281
sg662
F0.0017549991607666016
sg663
I5
sg664
I5
sa(dp670
g660
I83
sg661
F0.0006721019744873047
sg662
F0.0012230873107910156
sg663
I3
sg664
I3
sasS'total_cqs'
p671
I486
ssI59
(dp672
S'iters'
p673
I2
sS'meta'
p674
(lp675
(dp676
S'objective'
p677
I12
sS'query_time'
p678
F0.03649711608886719
sS'comp_time'
p679
F0.006197929382324219
sS'exec_cq'
p680
I7
sS'total_cq'
p681
I7
sa(dp682
g677
I2
sg678
F0.00017189979553222656
sg679
F0.0003972053527832031
sg680
I2
sg681
I2
sasS'total_cqs'
p683
I7
ssI60
(dp684
S'iters'
p685
I1
sS'meta'
p686
(lp687
(dp688
S'objective'
p689
I7
sS'query_time'
p690
F0.011347055435180664
sS'comp_time'
p691
F0.003688812255859375
sS'exec_cq'
p692
I4
sS'total_cq'
p693
I5
sasS'total_cqs'
p694
I5
ssI61
(dp695
S'iters'
p696
I0
sS'meta'
p697
(lp698
sS'total_cqs'
p699
I1
ssI62
(dp700
S'iters'
p701
I3
sS'meta'
p702
(lp703
(dp704
S'objective'
p705
I60
sS'query_time'
p706
F0.014786005020141602
sS'comp_time'
p707
F0.020010948181152344
sS'exec_cq'
p708
I12
sS'total_cq'
p709
I12
sa(dp710
g705
I53
sg706
F6.985664367675781e-05
sg707
F0.00013899803161621094
sg708
I9
sg709
I9
sa(dp711
g705
I47
sg706
F3.504753112792969e-05
sg707
F8.082389831542969e-05
sg708
I8
sg709
I8
sasS'total_cqs'
p712
I12
ssI63
(dp713
S'iters'
p714
I0
sS'meta'
p715
(lp716
sS'total_cqs'
p717
I1
ssI64
(dp718
S'iters'
p719
I3
sS'meta'
p720
(lp721
(dp722
S'objective'
p723
I24
sS'query_time'
p724
F0.11003494262695312
sS'comp_time'
p725
F0.018589258193969727
sS'exec_cq'
p726
I12
sS'total_cq'
p727
I12
sa(dp728
g723
I3
sg724
F0.00021195411682128906
sg725
F0.0008153915405273438
sg726
I4
sg727
I4
sa(dp729
g723
I2
sg724
F4.601478576660156e-05
sg725
F0.0001747608184814453
sg726
I2
sg727
I2
sasS'total_cqs'
p730
I12
ssI65
(dp731
S'iters'
p732
I4
sS'meta'
p733
(lp734
(dp735
S'objective'
p736
I194
sS'query_time'
p737
F0.6361901760101318
sS'comp_time'
p738
F0.059592247009277344
sS'exec_cq'
p739
I27
sS'total_cq'
p740
I27
sa(dp741
g736
I0
sg737
F0.0013949871063232422
sg738
F0.0020639896392822266
sg739
I7
sg740
I7
sa(dp742
g736
I0
sg737
F0.0008509159088134766
sg738
F0.0015552043914794922
sg739
I5
sg740
I5
sa(dp743
g736
I7
sg737
F0.0003421306610107422
sg738
F0.000720977783203125
sg739
I3
sg740
I3
sasS'total_cqs'
p744
I27
ssI66
(dp745
S'iters'
p746
I0
sS'meta'
p747
(lp748
sS'total_cqs'
p749
I1
ssI67
(dp750
S'iters'
p751
I2
sS'meta'
p752
(lp753
(dp754
S'objective'
p755
I530
sS'query_time'
p756
F0.9071648120880127
sS'comp_time'
p757
F0.0854794979095459
sS'exec_cq'
p758
I35
sS'total_cq'
p759
I35
sa(dp760
g755
I12
sg756
F0.0010669231414794922
sg757
F0.0023910999298095703
sg758
I2
sg759
I2
sasS'total_cqs'
p761
I35
ssI68
(dp762
S'iters'
p763
I0
sS'meta'
p764
(lp765
sS'total_cqs'
p766
I1
ssI69
(dp767
S'iters'
p768
I1
sS'meta'
p769
(lp770
(dp771
S'objective'
p772
I1272
sS'query_time'
p773
F0.11674118041992188
sS'comp_time'
p774
F0.2929718494415283
sS'exec_cq'
p775
I51
sS'total_cq'
p776
I51
sasS'total_cqs'
p777
I51
ssI70
(dp778
S'iters'
p779
I2
sS'meta'
p780
(lp781
(dp782
S'objective'
p783
I11
sS'query_time'
p784
F0.011825084686279297
sS'comp_time'
p785
F0.0032129287719726562
sS'exec_cq'
p786
I6
sS'total_cq'
p787
I6
sa(dp788
g783
I8
sg784
F5.1975250244140625e-05
sg785
F0.0001461505889892578
sg786
I5
sg787
I5
sasS'total_cqs'
p789
I6
ssI71
(dp790
S'iters'
p791
I7
sS'meta'
p792
(lp793
(dp794
S'objective'
p795
I3299
sS'query_time'
p796
F0.16484403610229492
sS'comp_time'
p797
F0.28934717178344727
sS'exec_cq'
p798
I85
sS'total_cq'
p799
I85
sa(dp800
g795
I3123
sg796
F0.00037288665771484375
sg797
F0.0012598037719726562
sg798
I81
sg799
I81
sa(dp801
g795
I2972
sg796
F0.0002999305725097656
sg797
F0.0010540485382080078
sg798
I78
sg799
I78
sa(dp802
g795
I2828
sg796
F0.00027298927307128906
sg797
F0.0009379386901855469
sg798
I74
sg799
I74
sa(dp803
g795
I2752
sg796
F0.0002608299255371094
sg797
F0.000743865966796875
sg798
I72
sg799
I72
sa(dp804
g795
I15
sg796
F4.696846008300781e-05
sg797
F0.002588987350463867
sg798
I3
sg799
I3
sa(dp805
g795
I38
sg796
F3.314018249511719e-05
sg797
F0.00013494491577148438
sg798
I2
sg799
I2
sasS'total_cqs'
p806
I85
ssI72
(dp807
S'iters'
p808
I4
sS'meta'
p809
(lp810
(dp811
S'objective'
p812
I6
sS'query_time'
p813
F0.020952939987182617
sS'comp_time'
p814
F0.0037021636962890625
sS'exec_cq'
p815
I4
sS'total_cq'
p816
I8
sa(dp817
g812
I1
sg813
F6.699562072753906e-05
sg814
F6.67572021484375e-05
sg815
I2
sg816
I6
sa(dp818
g812
I1
sg813
F0.26897382736206055
sg814
F0.001310110092163086
sg815
I4
sg816
I4
sa(dp819
g812
I4
sg813
F3.886222839355469e-05
sg814
F0.0001392364501953125
sg815
I2
sg816
I2
sasS'total_cqs'
p820
I8
ssI73
(dp821
S'iters'
p822
I0
sS'meta'
p823
(lp824
sS'total_cqs'
p825
I1
ssI74
(dp826
S'iters'
p827
I0
sS'meta'
p828
(lp829
sS'total_cqs'
p830
I1
ssI75
(dp831
S'iters'
p832
I2
sS'meta'
p833
(lp834
(dp835
S'objective'
p836
I5
sS'query_time'
p837
F0.011148929595947266
sS'comp_time'
p838
F0.0028579235076904297
sS'exec_cq'
p839
I5
sS'total_cq'
p840
I5
sa(dp841
g836
I2
sg837
F3.0040740966796875e-05
sg838
F0.0001399517059326172
sg839
I4
sg840
I4
sasS'total_cqs'
p842
I5
ssI76
(dp843
S'iters'
p844
I1
sS'meta'
p845
(lp846
(dp847
S'objective'
p848
I1
sS'query_time'
p849
F0.00966787338256836
sS'comp_time'
p850
F0.0011250972747802734
sS'exec_cq'
p851
I2
sS'total_cq'
p852
I2
sasS'total_cqs'
p853
I2
ssI77
(dp854
S'iters'
p855
I0
sS'meta'
p856
(lp857
sS'total_cqs'
p858
I1
ssI78
(dp859
S'iters'
p860
I0
sS'meta'
p861
(lp862
sS'total_cqs'
p863
I1
ssI103
(dp864
S'iters'
p865
I1
sS'meta'
p866
(lp867
(dp868
S'objective'
p869
I64
sS'query_time'
p870
F0.051867008209228516
sS'comp_time'
p871
F0.018657922744750977
sS'exec_cq'
p872
I12
sS'total_cq'
p873
I12
sasS'total_cqs'
p874
I12
ssI104
(dp875
S'iters'
p876
I2
sS'meta'
p877
(lp878
(dp879
S'objective'
p880
I2
sS'query_time'
p881
F1.5341200828552246
sS'comp_time'
p882
F0.05541825294494629
sS'exec_cq'
p883
I4
sS'total_cq'
p884
I4
sa(dp885
g880
I0
sg881
F0.014709949493408203
sg882
F0.031432151794433594
sg883
I3
sg884
I3
sasS'total_cqs'
p886
I4
ssI105
(dp887
S'iters'
p888
I0
sS'meta'
p889
(lp890
sS'total_cqs'
p891
I1
ssI106
(dp892
S'iters'
p893
I1
sS'meta'
p894
(lp895
(dp896
S'objective'
p897
I4
sS'query_time'
p898
F0.014593124389648438
sS'comp_time'
p899
F0.001837015151977539
sS'exec_cq'
p900
I4
sS'total_cq'
p901
I4
sasS'total_cqs'
p902
I4
ssI107
(dp903
S'iters'
p904
I2
sS'meta'
p905
(lp906
(dp907
S'objective'
p908
I74
sS'query_time'
p909
F0.04978513717651367
sS'comp_time'
p910
F0.15697598457336426
sS'exec_cq'
p911
I16
sS'total_cq'
p912
I16
sa(dp913
g908
I13
sg909
F2.8848648071289062e-05
sg910
F0.0003020763397216797
sg911
I3
sg912
I3
sasS'total_cqs'
p914
I16
ssI108
(dp915
S'iters'
p916
I0
sS'meta'
p917
(lp918
sS'total_cqs'
p919
I1
ss.