(dp0
I1
(dp1
S'iters'
p2
I2
sS'meta'
p3
(lp4
(dp5
S'objective'
p6
I48
sS'query_time'
p7
F0.03837084770202637
sS'comp_time'
p8
F0.017650604248046875
sS'exec_cq'
p9
I12
sS'total_cq'
p10
I12
sa(dp11
g6
I43
sg7
F5.1975250244140625e-05
sg8
F0.00016117095947265625
sg9
I10
sg10
I10
sasS'total_cqs'
p12
I12
ssI2
(dp13
S'iters'
p14
I3
sS'meta'
p15
(lp16
(dp17
S'objective'
p18
I264
sS'query_time'
p19
F0.05983591079711914
sS'comp_time'
p20
F0.03208303451538086
sS'exec_cq'
p21
I13
sS'total_cq'
p22
I27
sa(dp23
g18
I221
sg19
F0.05328702926635742
sg20
F0.0006468296051025391
sg21
I14
sg22
I23
sa(dp24
g18
I227
sg19
F5.698204040527344e-05
sg20
F0.00024199485778808594
sg21
I9
sg22
I21
sasS'total_cqs'
p25
I27
ssI3
(dp26
S'iters'
p27
I4
sS'meta'
p28
(lp29
(dp30
S'objective'
p31
I256
sS'query_time'
p32
F78.09596800804138
sS'comp_time'
p33
F0.5432138442993164
sS'exec_cq'
p34
I16
sS'total_cq'
p35
I43
sa(dp36
g31
I11
sg32
F107.79059100151062
sg33
F2.223189353942871
sg34
I14
sg35
I27
sa(dp37
g31
I32
sg32
F42.254143953323364
sg33
F0.675177812576294
sg34
I9
sg35
I13
sa(dp38
g31
I101
sg32
F11.987443923950195
sg33
F0.0013988018035888672
sg34
I6
sg35
I6
sasS'total_cqs'
p39
I43
ssI4
(dp40
S'iters'
p41
I2
sS'meta'
p42
(lp43
(dp44
S'objective'
p45
I32
sS'query_time'
p46
F4.825261116027832
sS'comp_time'
p47
F0.8498919010162354
sS'exec_cq'
p48
I11
sS'total_cq'
p49
I11
sa(dp50
g45
I3
sg46
F0.19738292694091797
sg47
F0.838716983795166
sg48
I2
sg49
I2
sasS'total_cqs'
p51
I11
ssI5
(dp52
S'iters'
p53
I3
sS'meta'
p54
(lp55
(dp56
S'objective'
p57
I0
sS'query_time'
p58
F34.55191206932068
sS'comp_time'
p59
F3.7044949531555176
sS'exec_cq'
p60
I8
sS'total_cq'
p61
I8
sa(dp62
g57
I2
sg58
F0.010190963745117188
sg59
F0.05440855026245117
sg60
I4
sg61
I4
sa(dp63
g57
I6
sg58
F0.0033969879150390625
sg59
F0.0200350284576416
sg60
I2
sg61
I2
sasS'total_cqs'
p64
I8
ssI6
(dp65
S'iters'
p66
I4
sS'meta'
p67
(lp68
(dp69
S'objective'
p70
I3
sS'query_time'
p71
F38.12899398803711
sS'comp_time'
p72
F4.5861430168151855
sS'exec_cq'
p73
I18
sS'total_cq'
p74
I18
sa(dp75
g70
I1
sg71
F0.6678979396820068
sg72
F3.469487190246582
sg73
I7
sg74
I7
sa(dp76
g70
I3
sg71
F0.0229489803314209
sg72
F0.1057431697845459
sg73
I4
sg74
I4
sa(dp77
g70
I10
sg71
F0.18789410591125488
sg72
F0.059906959533691406
sg73
I2
sg74
I2
sasS'total_cqs'
p78
I18
ssI7
(dp79
S'iters'
p80
I3
sS'meta'
p81
(lp82
(dp83
S'objective'
p84
I1
sS'query_time'
p85
F12.783693075180054
sS'comp_time'
p86
F2.1024010181427
sS'exec_cq'
p87
I9
sS'total_cq'
p88
I9
sa(dp89
g84
I1
sg85
F0.28351497650146484
sg86
F1.364394187927246
sg87
I6
sg88
I6
sa(dp90
g84
I5
sg85
F0.04503893852233887
sg86
F0.4612162113189697
sg87
I3
sg88
I3
sasS'total_cqs'
p91
I9
ssI8
(dp92
S'iters'
p93
I3
sS'meta'
p94
(lp95
(dp96
S'objective'
p97
I204
sS'query_time'
p98
F0.07373690605163574
sS'comp_time'
p99
F0.02994060516357422
sS'exec_cq'
p100
I14
sS'total_cq'
p101
I27
sa(dp102
g97
I217
sg98
F0.07064104080200195
sg99
F0.0006802082061767578
sg100
I13
sg101
I22
sa(dp103
g97
I7
sg98
F0.0016069412231445312
sg99
F0.0005359649658203125
sg100
I2
sg101
I2
sasS'total_cqs'
p104
I27
ssI9
(dp105
S'iters'
p106
I3
sS'meta'
p107
(lp108
(dp109
S'objective'
p110
I2
sS'query_time'
p111
F0.05294203758239746
sS'comp_time'
p112
F0.0046482086181640625
sS'exec_cq'
p113
I7
sS'total_cq'
p114
I7
sa(dp115
g110
I5
sg111
F2.384185791015625e-05
sg112
F0.00019097328186035156
sg113
I4
sg114
I4
sa(dp116
g110
I4
sg111
F0.001280069351196289
sg112
F0.00010704994201660156
sg113
I2
sg114
I2
sasS'total_cqs'
p117
I7
ssI10
(dp118
S'iters'
p119
I5
sS'meta'
p120
(lp121
(dp122
S'objective'
p123
I526
sS'query_time'
p124
F0.21237397193908691
sS'comp_time'
p125
F0.09579610824584961
sS'exec_cq'
p126
I28
sS'total_cq'
p127
I51
sa(dp128
g123
I174
sg124
F0.16933083534240723
sg125
F0.0016932487487792969
sg126
I23
sg127
I37
sa(dp129
g123
I416
sg124
F0.00020694732666015625
sg125
F0.0011658668518066406
sg126
I14
sg127
I25
sa(dp130
g123
I331
sg124
F6.699562072753906e-05
sg125
F0.00030350685119628906
sg126
I11
sg127
I21
sa(dp131
g123
I4
sg124
F0.0020668506622314453
sg125
F0.0004169940948486328
sg126
I3
sg127
I3
sasS'total_cqs'
p132
I51
ssI11
(dp133
S'iters'
p134
I6
sS'meta'
p135
(lp136
(dp137
S'objective'
p138
I1076
sS'query_time'
p139
F0.5622189044952393
sS'comp_time'
p140
F0.17187833786010742
sS'exec_cq'
p141
I63
sS'total_cq'
p142
I63
sa(dp143
g138
I994
sg139
F0.0012600421905517578
sg140
F0.0068280696868896484
sg141
I47
sg142
I47
sa(dp144
g138
I932
sg139
F0.0006909370422363281
sg140
F0.00448918342590332
sg141
I40
sg142
I40
sa(dp145
g138
I821
sg139
F0.0005259513854980469
sg140
F0.0033769607543945312
sg141
I35
sg142
I35
sa(dp146
g138
I4
sg139
F0.001692056655883789
sg140
F0.000972747802734375
sg141
I6
sg142
I6
sa(dp147
g138
I26
sg139
F2.8848648071289062e-05
sg140
F0.00022292137145996094
sg141
I3
sg142
I3
sasS'total_cqs'
p148
I63
ssI12
(dp149
S'iters'
p150
I4
sS'meta'
p151
(lp152
(dp153
S'objective'
p154
I641
sS'query_time'
p155
F0.23412084579467773
sS'comp_time'
p156
F0.08637785911560059
sS'exec_cq'
p157
I22
sS'total_cq'
p158
I50
sa(dp159
g154
I29
sg155
F0.002026081085205078
sg156
F0.0020432472229003906
sg157
I8
sg158
I8
sa(dp160
g154
I3
sg155
F3.0994415283203125e-05
sg156
F0.0001544952392578125
sg157
I4
sg158
I4
sa(dp161
g154
I10
sg155
F1.5974044799804688e-05
sg156
F0.0001380443572998047
sg157
I2
sg158
I2
sasS'total_cqs'
p162
I50
ssI13
(dp163
S'iters'
p164
I4
sS'meta'
p165
(lp166
(dp167
S'objective'
p168
I66
sS'query_time'
p169
F0.13124608993530273
sS'comp_time'
p170
F0.02959895133972168
sS'exec_cq'
p171
I20
sS'total_cq'
p172
I20
sa(dp173
g168
I2
sg169
F0.00011396408081054688
sg170
F0.0005240440368652344
sg171
I14
sg172
I14
sa(dp174
g168
I24
sg169
F4.506111145019531e-05
sg170
F0.00020194053649902344
sg171
I9
sg172
I9
sa(dp175
g168
I10
sg169
F0.0016140937805175781
sg170
F0.0001552104949951172
sg171
I2
sg172
I2
sasS'total_cqs'
p176
I20
ssI14
(dp177
S'iters'
p178
I3
sS'meta'
p179
(lp180
(dp181
S'objective'
p182
I1
sS'query_time'
p183
F34.79583406448364
sS'comp_time'
p184
F1.638509750366211
sS'exec_cq'
p185
I9
sS'total_cq'
p186
I9
sa(dp187
g182
I0
sg183
F0.0078089237213134766
sg184
F0.3996448516845703
sg185
I4
sg186
I4
sa(dp188
g182
I5
sg183
F0.005606174468994141
sg184
F0.03301715850830078
sg185
I2
sg186
I2
sasS'total_cqs'
p189
I9
ssI15
(dp190
S'iters'
p191
I3
sS'meta'
p192
(lp193
(dp194
S'objective'
p195
I0
sS'query_time'
p196
F3.6949350833892822
sS'comp_time'
p197
F0.2900359630584717
sS'exec_cq'
p198
I11
sS'total_cq'
p199
I11
sa(dp200
g195
I1
sg196
F0.04225897789001465
sg197
F0.26773905754089355
sg198
I6
sg199
I6
sa(dp201
g195
I4
sg196
F0.01231694221496582
sg197
F0.1745009422302246
sg198
I2
sg199
I2
sasS'total_cqs'
p202
I11
ssI16
(dp203
S'iters'
p204
I1
sS'meta'
p205
(lp206
(dp207
S'objective'
p208
I22
sS'query_time'
p209
F0.02145218849182129
sS'comp_time'
p210
F0.004303693771362305
sS'exec_cq'
p211
I8
sS'total_cq'
p212
I8
sasS'total_cqs'
p213
I8
ssI17
(dp214
S'iters'
p215
I2
sS'meta'
p216
(lp217
(dp218
S'objective'
p219
I0
sS'query_time'
p220
F0.9146180152893066
sS'comp_time'
p221
F0.050640106201171875
sS'exec_cq'
p222
I11
sS'total_cq'
p223
I11
sa(dp224
g219
I13
sg220
F0.00017595291137695312
sg221
F0.0011987686157226562
sg222
I5
sg223
I5
sasS'total_cqs'
p225
I11
ssI18
(dp226
S'iters'
p227
I1
sS'meta'
p228
(lp229
(dp230
S'objective'
p231
I46
sS'query_time'
p232
F0.20200610160827637
sS'comp_time'
p233
F0.022063016891479492
sS'exec_cq'
p234
I10
sS'total_cq'
p235
I11
sasS'total_cqs'
p236
I11
ssI19
(dp237
S'iters'
p238
I0
sS'meta'
p239
(lp240
sS'total_cqs'
p241
I1
ssI20
(dp242
S'iters'
p243
I0
sS'meta'
p244
(lp245
sS'total_cqs'
p246
I1
ssI21
(dp247
S'iters'
p248
I0
sS'meta'
p249
(lp250
sS'total_cqs'
p251
I1
ssI22
(dp252
S'iters'
p253
I1
sS'meta'
p254
(lp255
(dp256
S'objective'
p257
I141
sS'query_time'
p258
F0.08824515342712402
sS'comp_time'
p259
F0.03753066062927246
sS'exec_cq'
p260
I18
sS'total_cq'
p261
I18
sasS'total_cqs'
p262
I18
ssI23
(dp263
S'iters'
p264
I1
sS'meta'
p265
(lp266
(dp267
S'objective'
p268
I110
sS'query_time'
p269
F0.03913998603820801
sS'comp_time'
p270
F0.028943777084350586
sS'exec_cq'
p271
I8
sS'total_cq'
p272
I16
sasS'total_cqs'
p273
I16
ssI24
(dp274
S'iters'
p275
I0
sS'meta'
p276
(lp277
sS'total_cqs'
p278
I1
ssI25
(dp279
S'iters'
p280
I0
sS'meta'
p281
(lp282
sS'total_cqs'
p283
I1
ssI26
(dp284
S'iters'
p285
I1
sS'meta'
p286
(lp287
(dp288
S'objective'
p289
I837
sS'query_time'
p290
F0.16051793098449707
sS'comp_time'
p291
F0.11545181274414062
sS'exec_cq'
p292
I42
sS'total_cq'
p293
I42
sasS'total_cqs'
p294
I42
ssI27
(dp295
S'iters'
p296
I3
sS'meta'
p297
(lp298
(dp299
S'objective'
p300
I287
sS'query_time'
p301
F23.207961082458496
sS'comp_time'
p302
F5.023033142089844
sS'exec_cq'
p303
I30
sS'total_cq'
p304
I30
sa(dp305
g300
I1
sg301
F0.5609519481658936
sg302
F3.418152093887329
sg303
I5
sg304
I5
sa(dp306
g300
I3
sg301
F0.33901309967041016
sg302
F2.0045816898345947
sg303
I3
sg304
I3
sasS'total_cqs'
p307
I30
ssI28
(dp308
S'iters'
p309
I0
sS'meta'
p310
(lp311
sS'total_cqs'
p312
I1
ssI29
(dp313
S'iters'
p314
I5
sS'meta'
p315
(lp316
(dp317
S'objective'
p318
I239
sS'query_time'
p319
F29.688997983932495
sS'comp_time'
p320
F0.6273291110992432
sS'exec_cq'
p321
I35
sS'total_cq'
p322
I49
sa(dp323
g318
I33
sg319
F0.021672964096069336
sg320
F0.17170214653015137
sg321
I17
sg322
I17
sa(dp324
g318
I11
sg319
F0.001522064208984375
sg320
F0.006952762603759766
sg321
I9
sg322
I9
sa(dp325
g318
I20
sg319
F0.0007009506225585938
sg320
F0.0042879581451416016
sg321
I5
sg322
I5
sa(dp326
g318
I3
sg319
F0.0005948543548583984
sg320
F0.00396418571472168
sg321
I2
sg322
I2
sasS'total_cqs'
p327
I49
ssI30
(dp328
S'iters'
p329
I1
sS'meta'
p330
(lp331
(dp332
S'objective'
p333
I1
sS'query_time'
p334
F0.6291229724884033
sS'comp_time'
p335
F0.035980939865112305
sS'exec_cq'
p336
I2
sS'total_cq'
p337
I2
sasS'total_cqs'
p338
I2
ssI31
(dp339
S'iters'
p340
I0
sS'meta'
p341
(lp342
sS'total_cqs'
p343
I1
ssI32
(dp344
S'iters'
p345
I1
sS'meta'
p346
(lp347
(dp348
S'objective'
p349
I1
sS'query_time'
p350
F0.014873981475830078
sS'comp_time'
p351
F0.0033903121948242188
sS'exec_cq'
p352
I2
sS'total_cq'
p353
I2
sasS'total_cqs'
p354
I2
ssI33
(dp355
S'iters'
p356
I5
sS'meta'
p357
(lp358
(dp359
S'objective'
p360
I3618
sS'query_time'
p361
F15.741474866867065
sS'comp_time'
p362
F0.9846301078796387
sS'exec_cq'
p363
I103
sS'total_cq'
p364
I103
sa(dp365
g360
I31
sg361
F0.008331060409545898
sg362
F0.03003215789794922
sg363
I16
sg364
I16
sa(dp366
g360
I0
sg361
F0.003754854202270508
sg362
F0.01534581184387207
sg363
I8
sg364
I8
sa(dp367
g360
I61
sg361
F0.0008969306945800781
sg362
F0.0052378177642822266
sg363
I3
sg364
I3
sa(dp368
g360
I15
sg361
F0.0006859302520751953
sg362
F0.004187107086181641
sg363
I2
sg364
I2
sasS'total_cqs'
p369
I103
ssI34
(dp370
S'iters'
p371
I1
sS'meta'
p372
(lp373
(dp374
S'objective'
p375
I1
sS'query_time'
p376
F0.016990184783935547
sS'comp_time'
p377
F0.0019812583923339844
sS'exec_cq'
p378
I2
sS'total_cq'
p379
I2
sasS'total_cqs'
p380
I2
ssI35
(dp381
S'iters'
p382
I5
sS'meta'
p383
(lp384
(dp385
S'objective'
p386
I1215
sS'query_time'
p387
F22.29931092262268
sS'comp_time'
p388
F0.28858280181884766
sS'exec_cq'
p389
I50
sS'total_cq'
p390
I70
sa(dp391
g386
I41
sg387
F0.21232295036315918
sg388
F0.015147924423217773
sg389
I16
sg390
I16
sa(dp392
g386
I13
sg387
F0.001750946044921875
sg388
F0.006378889083862305
sg389
I7
sg390
I7
sa(dp393
g386
I16
sg387
F0.0015330314636230469
sg388
F0.005996227264404297
sg389
I4
sg390
I4
sa(dp394
g386
I45
sg387
F0.0007288455963134766
sg388
F0.005087137222290039
sg389
I2
sg390
I2
sasS'total_cqs'
p395
I70
ssI36
(dp396
S'iters'
p397
I1
sS'meta'
p398
(lp399
(dp400
S'objective'
p401
I509
sS'query_time'
p402
F0.6608576774597168
sS'comp_time'
p403
F0.15215325355529785
sS'exec_cq'
p404
I28
sS'total_cq'
p405
I33
sasS'total_cqs'
p406
I33
ssI37
(dp407
S'iters'
p408
I1
sS'meta'
p409
(lp410
(dp411
S'objective'
p412
I1
sS'query_time'
p413
F0.018845081329345703
sS'comp_time'
p414
F0.0011947154998779297
sS'exec_cq'
p415
I2
sS'total_cq'
p416
I2
sasS'total_cqs'
p417
I2
ssI38
(dp418
S'iters'
p419
I2
sS'meta'
p420
(lp421
(dp422
S'objective'
p423
I0
sS'query_time'
p424
F0.02465200424194336
sS'comp_time'
p425
F0.003124237060546875
sS'exec_cq'
p426
I4
sS'total_cq'
p427
I4
sa(dp428
g423
I3
sg424
F9.298324584960938e-05
sg425
F0.0004401206970214844
sg426
I2
sg427
I2
sasS'total_cqs'
p429
I4
ssI39
(dp430
S'iters'
p431
I2
sS'meta'
p432
(lp433
(dp434
S'objective'
p435
I662
sS'query_time'
p436
F0.21293401718139648
sS'comp_time'
p437
F0.15242242813110352
sS'exec_cq'
p438
I44
sS'total_cq'
p439
I44
sa(dp440
g435
I758
sg436
F0.0003159046173095703
sg437
F0.0018749237060546875
sg438
I37
sg439
I37
sasS'total_cqs'
p441
I44
ssI40
(dp442
S'iters'
p443
I1
sS'meta'
p444
(lp445
(dp446
S'objective'
p447
I14
sS'query_time'
p448
F0.035257816314697266
sS'comp_time'
p449
F0.005719900131225586
sS'exec_cq'
p450
I7
sS'total_cq'
p451
I7
sasS'total_cqs'
p452
I7
ssI41
(dp453
S'iters'
p454
I1
sS'meta'
p455
(lp456
(dp457
S'objective'
p458
I58
sS'query_time'
p459
F0.10558891296386719
sS'comp_time'
p460
F0.019760847091674805
sS'exec_cq'
p461
I12
sS'total_cq'
p462
I12
sasS'total_cqs'
p463
I12
ssI42
(dp464
S'iters'
p465
I1
sS'meta'
p466
(lp467
(dp468
S'objective'
p469
I797
sS'query_time'
p470
F0.05114006996154785
sS'comp_time'
p471
F0.14361977577209473
sS'exec_cq'
p472
I21
sS'total_cq'
p473
I41
sasS'total_cqs'
p474
I41
ssI43
(dp475
S'iters'
p476
I1
sS'meta'
p477
(lp478
(dp479
S'objective'
p480
I14
sS'query_time'
p481
F0.04373502731323242
sS'comp_time'
p482
F0.006710052490234375
sS'exec_cq'
p483
I7
sS'total_cq'
p484
I7
sasS'total_cqs'
p485
I7
ssI44
(dp486
S'iters'
p487
I4
sS'meta'
p488
(lp489
(dp490
S'objective'
p491
I738
sS'query_time'
p492
F0.23996400833129883
sS'comp_time'
p493
F0.1535787582397461
sS'exec_cq'
p494
I47
sS'total_cq'
p495
I47
sa(dp496
g491
I735
sg492
F0.0002880096435546875
sg493
F0.0015120506286621094
sg494
I40
sg495
I40
sa(dp497
g491
I7
sg492
F0.0017979145050048828
sg493
F0.002415895462036133
sg494
I3
sg495
I3
sa(dp498
g491
I21
sg492
F0.00011014938354492188
sg493
F0.0007202625274658203
sg494
I2
sg495
I2
sasS'total_cqs'
p499
I47
ssI45
(dp500
S'iters'
p501
I0
sS'meta'
p502
(lp503
sS'total_cqs'
p504
I1
ssI46
(dp505
S'iters'
p506
I1
sS'meta'
p507
(lp508
(dp509
S'objective'
p510
I9
sS'query_time'
p511
F0.014110803604125977
sS'comp_time'
p512
F0.003373861312866211
sS'exec_cq'
p513
I4
sS'total_cq'
p514
I6
sasS'total_cqs'
p515
I6
ssI47
(dp516
S'iters'
p517
I1
sS'meta'
p518
(lp519
(dp520
S'objective'
p521
I1
sS'query_time'
p522
F0.00863504409790039
sS'comp_time'
p523
F0.0013687610626220703
sS'exec_cq'
p524
I2
sS'total_cq'
p525
I2
sasS'total_cqs'
p526
I2
ssI48
(dp527
S'iters'
p528
I0
sS'meta'
p529
(lp530
sS'total_cqs'
p531
I1
ssI49
(dp532
S'iters'
p533
I0
sS'meta'
p534
(lp535
sS'total_cqs'
p536
I1
ssI50
(dp537
S'iters'
p538
I1
sS'meta'
p539
(lp540
(dp541
S'objective'
p542
I5
sS'query_time'
p543
F0.014422178268432617
sS'comp_time'
p544
F0.002285003662109375
sS'exec_cq'
p545
I5
sS'total_cq'
p546
I5
sasS'total_cqs'
p547
I5
ssI51
(dp548
S'iters'
p549
I1
sS'meta'
p550
(lp551
(dp552
S'objective'
p553
I1
sS'query_time'
p554
F0.026836156845092773
sS'comp_time'
p555
F0.002106904983520508
sS'exec_cq'
p556
I2
sS'total_cq'
p557
I2
sasS'total_cqs'
p558
I2
ssI52
(dp559
S'iters'
p560
I1
sS'meta'
p561
(lp562
(dp563
S'objective'
p564
I1
sS'query_time'
p565
F0.02814006805419922
sS'comp_time'
p566
F0.0013430118560791016
sS'exec_cq'
p567
I2
sS'total_cq'
p568
I2
sasS'total_cqs'
p569
I2
ssI53
(dp570
S'iters'
p571
I1
sS'meta'
p572
(lp573
(dp574
S'objective'
p575
I2
sS'query_time'
p576
F0.07312202453613281
sS'comp_time'
p577
F0.002906322479248047
sS'exec_cq'
p578
I4
sS'total_cq'
p579
I4
sasS'total_cqs'
p580
I4
ssI54
(dp581
S'iters'
p582
I2
sS'meta'
p583
(lp584
(dp585
S'objective'
p586
I0
sS'query_time'
p587
F0.012002944946289062
sS'comp_time'
p588
F0.0016491413116455078
sS'exec_cq'
p589
I3
sS'total_cq'
p590
I3
sa(dp591
g586
I1
sg587
F4.601478576660156e-05
sg588
F0.00029754638671875
sg589
I2
sg590
I2
sasS'total_cqs'
p592
I3
ssI55
(dp593
S'iters'
p594
I7
sS'meta'
p595
(lp596
(dp597
S'objective'
p598
I4423
sS'query_time'
p599
F2.4142470359802246
sS'comp_time'
p600
F0.960521936416626
sS'exec_cq'
p601
I109
sS'total_cq'
p602
I109
sa(dp603
g598
I4689
sg599
F0.0010879039764404297
sg600
F0.0045757293701171875
sg601
I97
sg602
I97
sa(dp604
g598
I4587
sg599
F0.0007579326629638672
sg600
F0.0030400753021240234
sg601
I93
sg602
I93
sa(dp605
g598
I4444
sg599
F0.00044798851013183594
sg600
F0.0021359920501708984
sg601
I87
sg602
I87
sa(dp606
g598
I4360
sg599
F0.000415802001953125
sg600
F0.0013899803161621094
sg601
I85
sg602
I85
sa(dp607
g598
I4279
sg599
F0.0003540515899658203
sg600
F0.0012979507446289062
sg601
I83
sg602
I83
sa(dp608
g598
I4215
sg599
F0.0003559589385986328
sg600
F0.0010480880737304688
sg601
I81
sg602
I81
sasS'total_cqs'
p609
I109
ssI56
(dp610
S'iters'
p611
I5
sS'meta'
p612
(lp613
(dp614
S'objective'
p615
I1626
sS'query_time'
p616
F1.7262279987335205
sS'comp_time'
p617
F0.2289586067199707
sS'exec_cq'
p618
I67
sS'total_cq'
p619
I76
sa(dp620
g615
I26
sg616
F0.0068280696868896484
sg617
F0.01851201057434082
sg618
I16
sg619
I16
sa(dp621
g615
I2
sg616
F0.004238128662109375
sg617
F0.01262354850769043
sg618
I9
sg619
I9
sa(dp622
g615
I9
sg616
F0.0017290115356445312
sg617
F0.006011962890625
sg618
I4
sg619
I4
sa(dp623
g615
I33
sg616
F0.00029397010803222656
sg617
F0.0019328594207763672
sg618
I2
sg619
I2
sasS'total_cqs'
p624
I76
ssI57
(dp625
S'iters'
p626
I5
sS'meta'
p627
(lp628
(dp629
S'objective'
p630
I58
sS'query_time'
p631
F25.87739896774292
sS'comp_time'
p632
F0.5641791820526123
sS'exec_cq'
p633
I45
sS'total_cq'
p634
I51
sa(dp635
g630
I4
sg631
F0.017042875289916992
sg632
F0.03571629524230957
sg633
I27
sg634
I27
sa(dp636
g630
I4
sg631
F0.0028290748596191406
sg632
F0.007945060729980469
sg633
I12
sg634
I12
sa(dp637
g630
I0
sg631
F0.0015358924865722656
sg632
F0.005038261413574219
sg633
I6
sg634
I6
sa(dp638
g630
I8
sg631
F0.0005621910095214844
sg632
F0.002925872802734375
sg633
I3
sg634
I3
sasS'total_cqs'
p639
I51
ssI58
(dp640
S'iters'
p641
I6
sS'meta'
p642
(lp643
(dp644
S'objective'
p645
I81569
sS'query_time'
p646
F111.81687903404236
sS'comp_time'
p647
F15.171355962753296
sS'exec_cq'
p648
I348
sS'total_cq'
p649
I486
sa(dp650
g645
I86961
sg646
F0.03954482078552246
sg647
F1.2012369632720947
sg648
I276
sg649
I414
sa(dp651
g645
I209
sg646
F0.02206897735595703
sg647
F0.11353111267089844
sg648
I28
sg649
I28
sa(dp652
g645
I11
sg646
F0.011254072189331055
sg647
F0.019818544387817383
sg648
I14
sg649
I14
sa(dp653
g645
I16
sg646
F0.002791881561279297
sg647
F0.009517908096313477
sg648
I6
sg649
I6
sa(dp654
g645
I117
sg646
F0.0010349750518798828
sg647
F0.006036996841430664
sg648
I3
sg649
I3
sasS'total_cqs'
p655
I486
ssI59
(dp656
S'iters'
p657
I2
sS'meta'
p658
(lp659
(dp660
S'objective'
p661
I8
sS'query_time'
p662
F0.04971718788146973
sS'comp_time'
p663
F0.024821758270263672
sS'exec_cq'
p664
I7
sS'total_cq'
p665
I7
sa(dp666
g661
I4
sg662
F0.00021409988403320312
sg663
F0.0011818408966064453
sg664
I2
sg665
I2
sasS'total_cqs'
p667
I7
ssI60
(dp668
S'iters'
p669
I2
sS'meta'
p670
(lp671
(dp672
S'objective'
p673
I7
sS'query_time'
p674
F0.01125192642211914
sS'comp_time'
p675
F0.003062725067138672
sS'exec_cq'
p676
I2
sS'total_cq'
p677
I5
sa(dp678
g673
I1
sg674
F0.0056629180908203125
sg675
F0.00016617774963378906
sg676
I3
sg677
I4
sasS'total_cqs'
p679
I5
ssI61
(dp680
S'iters'
p681
I0
sS'meta'
p682
(lp683
sS'total_cqs'
p684
I1
ssI62
(dp685
S'iters'
p686
I2
sS'meta'
p687
(lp688
(dp689
S'objective'
p690
I32
sS'query_time'
p691
F0.035299062728881836
sS'comp_time'
p692
F0.016657114028930664
sS'exec_cq'
p693
I12
sS'total_cq'
p694
I12
sa(dp695
g690
I35
sg691
F4.506111145019531e-05
sg692
F0.0001690387725830078
sg693
I9
sg694
I9
sasS'total_cqs'
p696
I12
ssI63
(dp697
S'iters'
p698
I0
sS'meta'
p699
(lp700
sS'total_cqs'
p701
I1
ssI64
(dp702
S'iters'
p703
I3
sS'meta'
p704
(lp705
(dp706
S'objective'
p707
I20
sS'query_time'
p708
F0.10699701309204102
sS'comp_time'
p709
F0.020709753036499023
sS'exec_cq'
p710
I12
sS'total_cq'
p711
I12
sa(dp712
g707
I7
sg708
F8.296966552734375e-05
sg709
F0.0005178451538085938
sg710
I4
sg711
I4
sa(dp713
g707
I2
sg708
F7.200241088867188e-05
sg709
F0.0004062652587890625
sg710
I3
sg711
I3
sasS'total_cqs'
p714
I12
ssI65
(dp715
S'iters'
p716
I4
sS'meta'
p717
(lp718
(dp719
S'objective'
p720
I176
sS'query_time'
p721
F0.7253649234771729
sS'comp_time'
p722
F0.2747640609741211
sS'exec_cq'
p723
I27
sS'total_cq'
p724
I27
sa(dp725
g720
I3
sg721
F0.0013980865478515625
sg722
F0.005464076995849609
sg723
I7
sg724
I7
sa(dp726
g720
I4
sg721
F0.0005900859832763672
sg722
F0.0032460689544677734
sg723
I4
sg724
I4
sa(dp727
g720
I16
sg721
F0.00026297569274902344
sg722
F0.0019807815551757812
sg723
I2
sg724
I2
sasS'total_cqs'
p728
I27
ssI66
(dp729
S'iters'
p730
I0
sS'meta'
p731
(lp732
sS'total_cqs'
p733
I1
ssI67
(dp734
S'iters'
p735
I2
sS'meta'
p736
(lp737
(dp738
S'objective'
p739
I564
sS'query_time'
p740
F1.187420129776001
sS'comp_time'
p741
F0.17867493629455566
sS'exec_cq'
p742
I35
sS'total_cq'
p743
I35
sa(dp744
g739
I23
sg740
F0.001438140869140625
sg741
F0.007194042205810547
sg742
I2
sg743
I2
sasS'total_cqs'
p745
I35
ssI68
(dp746
S'iters'
p747
I0
sS'meta'
p748
(lp749
sS'total_cqs'
p750
I1
ssI69
(dp751
S'iters'
p752
I1
sS'meta'
p753
(lp754
(dp755
S'objective'
p756
I1246
sS'query_time'
p757
F0.18888401985168457
sS'comp_time'
p758
F0.21786117553710938
sS'exec_cq'
p759
I51
sS'total_cq'
p760
I51
sasS'total_cqs'
p761
I51
ssI70
(dp762
S'iters'
p763
I1
sS'meta'
p764
(lp765
(dp766
S'objective'
p767
I9
sS'query_time'
p768
F0.04941105842590332
sS'comp_time'
p769
F0.005119800567626953
sS'exec_cq'
p770
I6
sS'total_cq'
p771
I6
sasS'total_cqs'
p772
I6
ssI71
(dp773
S'iters'
p774
I4
sS'meta'
p775
(lp776
(dp777
S'objective'
p778
I3265
sS'query_time'
p779
F0.30580902099609375
sS'comp_time'
p780
F0.5211536884307861
sS'exec_cq'
p781
I73
sS'total_cq'
p782
I85
sa(dp783
g778
I3110
sg779
F0.0003361701965332031
sg780
F0.0011208057403564453
sg781
I70
sg782
I82
sa(dp784
g778
I2935
sg779
F0.0002541542053222656
sg780
F0.001049041748046875
sg781
I66
sg782
I78
sa(dp785
g778
I45
sg779
F0.0019290447235107422
sg780
F0.0032958984375
sg781
I3
sg782
I3
sasS'total_cqs'
p786
I85
ssI72
(dp787
S'iters'
p788
I3
sS'meta'
p789
(lp790
(dp791
S'objective'
p792
I2
sS'query_time'
p793
F0.309251070022583
sS'comp_time'
p794
F0.007720232009887695
sS'exec_cq'
p795
I4
sS'total_cq'
p796
I8
sa(dp797
g792
I1
sg793
F0.028506040573120117
sg794
F0.00039577484130859375
sg795
I4
sg796
I5
sa(dp798
g792
I4
sg793
F1.71661376953125e-05
sg794
F9.179115295410156e-05
sg795
I2
sg796
I3
sasS'total_cqs'
p799
I8
ssI73
(dp800
S'iters'
p801
I0
sS'meta'
p802
(lp803
sS'total_cqs'
p804
I1
ssI74
(dp805
S'iters'
p806
I0
sS'meta'
p807
(lp808
sS'total_cqs'
p809
I1
ssI75
(dp810
S'iters'
p811
I1
sS'meta'
p812
(lp813
(dp814
S'objective'
p815
I5
sS'query_time'
p816
F0.011987924575805664
sS'comp_time'
p817
F0.0015659332275390625
sS'exec_cq'
p818
I5
sS'total_cq'
p819
I5
sasS'total_cqs'
p820
I5
ssI76
(dp821
S'iters'
p822
I1
sS'meta'
p823
(lp824
(dp825
S'objective'
p826
I1
sS'query_time'
p827
F0.01248788833618164
sS'comp_time'
p828
F0.002531766891479492
sS'exec_cq'
p829
I2
sS'total_cq'
p830
I2
sasS'total_cqs'
p831
I2
ssI77
(dp832
S'iters'
p833
I0
sS'meta'
p834
(lp835
sS'total_cqs'
p836
I1
ssI78
(dp837
S'iters'
p838
I0
sS'meta'
p839
(lp840
sS'total_cqs'
p841
I1
ssI103
(dp842
S'iters'
p843
I1
sS'meta'
p844
(lp845
(dp846
S'objective'
p847
I58
sS'query_time'
p848
F0.06485700607299805
sS'comp_time'
p849
F0.015611886978149414
sS'exec_cq'
p850
I12
sS'total_cq'
p851
I12
sasS'total_cqs'
p852
I12
ssI104
(dp853
S'iters'
p854
I1
sS'meta'
p855
(lp856
(dp857
S'objective'
p858
I2
sS'query_time'
p859
F1.3789329528808594
sS'comp_time'
p860
F0.20757508277893066
sS'exec_cq'
p861
I4
sS'total_cq'
p862
I4
sasS'total_cqs'
p863
I4
ssI105
(dp864
S'iters'
p865
I0
sS'meta'
p866
(lp867
sS'total_cqs'
p868
I1
ssI106
(dp869
S'iters'
p870
I1
sS'meta'
p871
(lp872
(dp873
S'objective'
p874
I2
sS'query_time'
p875
F0.021030902862548828
sS'comp_time'
p876
F0.002065896987915039
sS'exec_cq'
p877
I4
sS'total_cq'
p878
I4
sasS'total_cqs'
p879
I4
ssI107
(dp880
S'iters'
p881
I2
sS'meta'
p882
(lp883
(dp884
S'objective'
p885
I66
sS'query_time'
p886
F0.0740809440612793
sS'comp_time'
p887
F0.01840686798095703
sS'exec_cq'
p888
I16
sS'total_cq'
p889
I16
sa(dp890
g885
I9
sg886
F0.004830837249755859
sg887
F0.00030994415283203125
sg888
I3
sg889
I3
sasS'total_cqs'
p891
I16
ssI108
(dp892
S'iters'
p893
I0
sS'meta'
p894
(lp895
sS'total_cqs'
p896
I1
ss.