(dp0
I1
(dp1
S'iters'
p2
I2
sS'meta'
p3
(lp4
(dp5
S'objective'
p6
I44
sS'query_time'
p7
F0.0363459587097168
sS'comp_time'
p8
F0.02589869499206543
sS'exec_cq'
p9
I12
sS'total_cq'
p10
I12
sa(dp11
g6
I41
sg7
F5.698204040527344e-05
sg8
F0.00018715858459472656
sg9
I10
sg10
I10
sasS'total_cqs'
p12
I12
ssI2
(dp13
S'iters'
p14
I5
sS'meta'
p15
(lp16
(dp17
S'objective'
p18
I250
sS'query_time'
p19
F0.13938403129577637
sS'comp_time'
p20
F0.03458738327026367
sS'exec_cq'
p21
I27
sS'total_cq'
p22
I27
sa(dp23
g18
I220
sg19
F0.00024008750915527344
sg20
F0.0010275840759277344
sg21
I24
sg22
I24
sa(dp24
g18
I201
sg19
F0.00015401840209960938
sg20
F0.0005140304565429688
sg21
I21
sg22
I21
sa(dp25
g18
I182
sg19
F0.0001552104949951172
sg20
F0.0015270709991455078
sg21
I19
sg22
I19
sa(dp26
g18
I164
sg19
F0.00012803077697753906
sg20
F0.000347137451171875
sg21
I17
sg22
I17
sasS'total_cqs'
p27
I27
ssI3
(dp28
S'iters'
p29
I4
sS'meta'
p30
(lp31
(dp32
S'objective'
p33
I586
sS'query_time'
p34
F225.56809306144714
sS'comp_time'
p35
F2.310577630996704
sS'exec_cq'
p36
I39
sS'total_cq'
p37
I43
sa(dp38
g33
I460
sg34
F0.21573591232299805
sg35
F0.2796287536621094
sg36
I32
sg37
I36
sa(dp39
g33
I521
sg34
F12.473503112792969
sg35
F0.5741429328918457
sg36
I28
sg37
I28
sa(dp40
g33
I499
sg34
F0.02434515953063965
sg35
F0.0002448558807373047
sg36
I25
sg37
I25
sasS'total_cqs'
p41
I43
ssI4
(dp42
S'iters'
p43
I2
sS'meta'
p44
(lp45
(dp46
S'objective'
p47
I44
sS'query_time'
p48
F5.315083026885986
sS'comp_time'
p49
F0.3431572914123535
sS'exec_cq'
p50
I11
sS'total_cq'
p51
I11
sa(dp52
g47
I9
sg48
F0.17983698844909668
sg49
F0.41361522674560547
sg50
I2
sg51
I2
sasS'total_cqs'
p53
I11
ssI5
(dp54
S'iters'
p55
I2
sS'meta'
p56
(lp57
(dp58
S'objective'
p59
I0
sS'query_time'
p60
F31.748646020889282
sS'comp_time'
p61
F3.1980483531951904
sS'exec_cq'
p62
I8
sS'total_cq'
p63
I8
sa(dp64
g59
I4
sg60
F0.10732603073120117
sg61
F0.6413688659667969
sg62
I3
sg63
I3
sasS'total_cqs'
p65
I8
ssI6
(dp66
S'iters'
p67
I3
sS'meta'
p68
(lp69
(dp70
S'objective'
p71
I51
sS'query_time'
p72
F33.95390510559082
sS'comp_time'
p73
F1.5581588745117188
sS'exec_cq'
p74
I18
sS'total_cq'
p75
I18
sa(dp76
g71
I2
sg72
F0.6710250377655029
sg73
F2.6789448261260986
sg74
I7
sg75
I7
sa(dp77
g71
I1
sg72
F0.7422869205474854
sg73
F1.5283594131469727
sg74
I5
sg75
I5
sasS'total_cqs'
p78
I18
ssI7
(dp79
S'iters'
p80
I3
sS'meta'
p81
(lp82
(dp83
S'objective'
p84
I1
sS'query_time'
p85
F12.48688292503357
sS'comp_time'
p86
F1.1717464923858643
sS'exec_cq'
p87
I9
sS'total_cq'
p88
I9
sa(dp89
g84
I1
sg85
F0.6741199493408203
sg86
F0.6852047443389893
sg87
I5
sg88
I5
sa(dp90
g84
I4
sg85
F0.05867314338684082
sg86
F0.24433207511901855
sg87
I2
sg88
I2
sasS'total_cqs'
p91
I9
ssI8
(dp92
S'iters'
p93
I2
sS'meta'
p94
(lp95
(dp96
S'objective'
p97
I284
sS'query_time'
p98
F0.17502927780151367
sS'comp_time'
p99
F0.03812813758850098
sS'exec_cq'
p100
I27
sS'total_cq'
p101
I27
sa(dp102
g97
I3
sg98
F0.0030579566955566406
sg99
F0.00045037269592285156
sg100
I2
sg101
I2
sasS'total_cqs'
p103
I27
ssI9
(dp104
S'iters'
p105
I3
sS'meta'
p106
(lp107
(dp108
S'objective'
p109
I2
sS'query_time'
p110
F0.06936383247375488
sS'comp_time'
p111
F0.007103443145751953
sS'exec_cq'
p112
I7
sS'total_cq'
p113
I7
sa(dp114
g109
I1
sg110
F4.100799560546875e-05
sg111
F0.0002300739288330078
sg112
I4
sg113
I4
sa(dp115
g109
I6
sg110
F0.0021479129791259766
sg111
F0.00014090538024902344
sg112
I2
sg113
I2
sasS'total_cqs'
p116
I7
ssI10
(dp117
S'iters'
p118
I5
sS'meta'
p119
(lp120
(dp121
S'objective'
p122
I606
sS'query_time'
p123
F0.356597900390625
sS'comp_time'
p124
F0.1013948917388916
sS'exec_cq'
p125
I51
sS'total_cq'
p126
I51
sa(dp127
g122
I342
sg123
F0.000469207763671875
sg124
F0.003442049026489258
sg125
I37
sg126
I37
sa(dp128
g122
I436
sg123
F0.0002200603485107422
sg124
F0.001310586929321289
sg125
I25
sg126
I25
sa(dp129
g122
I367
sg123
F0.00010991096496582031
sg124
F0.00042438507080078125
sg125
I21
sg126
I21
sa(dp130
g122
I9
sg123
F0.0012030601501464844
sg124
F0.0003695487976074219
sg125
I3
sg126
I3
sasS'total_cqs'
p131
I51
ssI11
(dp132
S'iters'
p133
I5
sS'meta'
p134
(lp135
(dp136
S'objective'
p137
I854
sS'query_time'
p138
F0.5793359279632568
sS'comp_time'
p139
F0.2070472240447998
sS'exec_cq'
p140
I63
sS'total_cq'
p141
I63
sa(dp142
g137
I799
sg138
F0.0013108253479003906
sg139
F0.004686117172241211
sg140
I47
sg141
I47
sa(dp143
g137
I48
sg138
F0.0018100738525390625
sg139
F0.0028667449951171875
sg140
I9
sg141
I9
sa(dp144
g137
I27
sg138
F4.100799560546875e-05
sg139
F0.00025463104248046875
sg140
I5
sg141
I5
sa(dp145
g137
I7
sg138
F1.621246337890625e-05
sg139
F0.00010704994201660156
sg140
I2
sg141
I2
sasS'total_cqs'
p146
I63
ssI12
(dp147
S'iters'
p148
I5
sS'meta'
p149
(lp150
(dp151
S'objective'
p152
I365
sS'query_time'
p153
F0.3721458911895752
sS'comp_time'
p154
F0.0964353084564209
sS'exec_cq'
p155
I50
sS'total_cq'
p156
I50
sa(dp157
g152
I344
sg153
F0.00043892860412597656
sg154
F0.002582073211669922
sg155
I22
sg156
I33
sa(dp158
g152
I0
sg153
F0.0015289783477783203
sg154
F0.0013556480407714844
sg155
I8
sg156
I8
sa(dp159
g152
I21
sg153
F0.00015497207641601562
sg154
F0.0006308555603027344
sg155
I4
sg156
I4
sa(dp160
g152
I8
sg153
F2.09808349609375e-05
sg154
F9.822845458984375e-05
sg155
I2
sg156
I2
sasS'total_cqs'
p161
I50
ssI13
(dp162
S'iters'
p163
I3
sS'meta'
p164
(lp165
(dp166
S'objective'
p167
I8
sS'query_time'
p168
F0.15950608253479004
sS'comp_time'
p169
F0.03223419189453125
sS'exec_cq'
p170
I20
sS'total_cq'
p171
I20
sa(dp172
g167
I59
sg168
F6.699562072753906e-05
sg169
F0.0005292892456054688
sg170
I9
sg171
I9
sa(dp173
g167
I11
sg168
F0.0033788681030273438
sg169
F0.00020313262939453125
sg170
I2
sg171
I2
sasS'total_cqs'
p174
I20
ssI14
(dp175
S'iters'
p176
I3
sS'meta'
p177
(lp178
(dp179
S'objective'
p180
I1
sS'query_time'
p181
F30.910392999649048
sS'comp_time'
p182
F1.8015029430389404
sS'exec_cq'
p183
I9
sS'total_cq'
p184
I9
sa(dp185
g180
I1
sg181
F0.26417088508605957
sg182
F0.5187230110168457
sg183
I4
sg184
I4
sa(dp186
g180
I5
sg181
F0.17209506034851074
sg182
F0.2715260982513428
sg183
I2
sg184
I2
sasS'total_cqs'
p187
I9
ssI15
(dp188
S'iters'
p189
I3
sS'meta'
p190
(lp191
(dp192
S'objective'
p193
I0
sS'query_time'
p194
F3.9131338596343994
sS'comp_time'
p195
F0.08705925941467285
sS'exec_cq'
p196
I11
sS'total_cq'
p197
I11
sa(dp198
g193
I1
sg194
F0.028800010681152344
sg195
F0.0363469123840332
sg196
I5
sg197
I5
sa(dp199
g193
I4
sg194
F0.011101007461547852
sg195
F0.12221622467041016
sg196
I3
sg197
I3
sasS'total_cqs'
p200
I11
ssI16
(dp201
S'iters'
p202
I1
sS'meta'
p203
(lp204
(dp205
S'objective'
p206
I22
sS'query_time'
p207
F0.03546619415283203
sS'comp_time'
p208
F0.007418155670166016
sS'exec_cq'
p209
I8
sS'total_cq'
p210
I8
sasS'total_cqs'
p211
I8
ssI17
(dp212
S'iters'
p213
I3
sS'meta'
p214
(lp215
(dp216
S'objective'
p217
I2
sS'query_time'
p218
F0.9465100765228271
sS'comp_time'
p219
F0.03763556480407715
sS'exec_cq'
p220
I11
sS'total_cq'
p221
I11
sa(dp222
g217
I0
sg218
F0.007860898971557617
sg219
F0.01393270492553711
sg220
I6
sg221
I6
sa(dp223
g217
I3
sg218
F0.0020608901977539062
sg219
F0.00324249267578125
sg220
I2
sg221
I2
sasS'total_cqs'
p224
I11
ssI18
(dp225
S'iters'
p226
I3
sS'meta'
p227
(lp228
(dp229
S'objective'
p230
I44
sS'query_time'
p231
F0.2594149112701416
sS'comp_time'
p232
F0.02395176887512207
sS'exec_cq'
p233
I11
sS'total_cq'
p234
I11
sa(dp235
g230
I33
sg231
F0.0002651214599609375
sg232
F0.0007836818695068359
sg233
I8
sg234
I8
sa(dp236
g230
I24
sg231
F0.00020074844360351562
sg232
F0.00035643577575683594
sg233
I7
sg234
I7
sasS'total_cqs'
p237
I11
ssI22
(dp238
S'iters'
p239
I1
sS'meta'
p240
(lp241
(dp242
S'objective'
p243
I141
sS'query_time'
p244
F0.1163339614868164
sS'comp_time'
p245
F0.0388951301574707
sS'exec_cq'
p246
I18
sS'total_cq'
p247
I18
sasS'total_cqs'
p248
I18
ssI23
(dp249
S'iters'
p250
I1
sS'meta'
p251
(lp252
(dp253
S'objective'
p254
I110
sS'query_time'
p255
F0.08741188049316406
sS'comp_time'
p256
F0.02436375617980957
sS'exec_cq'
p257
I16
sS'total_cq'
p258
I16
sasS'total_cqs'
p259
I16
ssI26
(dp260
S'iters'
p261
I1
sS'meta'
p262
(lp263
(dp264
S'objective'
p265
I837
sS'query_time'
p266
F0.17605280876159668
sS'comp_time'
p267
F0.11776065826416016
sS'exec_cq'
p268
I42
sS'total_cq'
p269
I42
sasS'total_cqs'
p270
I42
ssI27
(dp271
S'iters'
p272
I3
sS'meta'
p273
(lp274
(dp275
S'objective'
p276
I277
sS'query_time'
p277
F21.580419063568115
sS'comp_time'
p278
F1.914773941040039
sS'exec_cq'
p279
I30
sS'total_cq'
p280
I30
sa(dp281
g276
I8
sg277
F0.4814579486846924
sg278
F7.314637899398804
sg279
I5
sg280
I5
sa(dp282
g276
I5
sg277
F0.5220201015472412
sg278
F1.0211079120635986
sg279
I2
sg280
I2
sasS'total_cqs'
p283
I30
ssI29
(dp284
S'iters'
p285
I5
sS'meta'
p286
(lp287
(dp288
S'objective'
p289
I279
sS'query_time'
p290
F24.966875076293945
sS'comp_time'
p291
F0.5758898258209229
sS'exec_cq'
p292
I35
sS'total_cq'
p293
I49
sa(dp294
g289
I27
sg290
F0.037255048751831055
sg291
F0.04151272773742676
sg292
I17
sg293
I17
sa(dp295
g289
I4
sg290
F0.0015070438385009766
sg291
F0.0038750171661376953
sg292
I9
sg293
I9
sa(dp296
g289
I21
sg290
F0.0007739067077636719
sg291
F0.0014119148254394531
sg292
I4
sg293
I4
sa(dp297
g289
I25
sg290
F0.0006339550018310547
sg291
F0.0009157657623291016
sg292
I2
sg293
I2
sasS'total_cqs'
p298
I49
ssI30
(dp299
S'iters'
p300
I1
sS'meta'
p301
(lp302
(dp303
S'objective'
p304
I1
sS'query_time'
p305
F0.7255592346191406
sS'comp_time'
p306
F0.04186892509460449
sS'exec_cq'
p307
I2
sS'total_cq'
p308
I2
sasS'total_cqs'
p309
I2
ssI32
(dp310
S'iters'
p311
I1
sS'meta'
p312
(lp313
(dp314
S'objective'
p315
I1
sS'query_time'
p316
F0.04331803321838379
sS'comp_time'
p317
F0.031008243560791016
sS'exec_cq'
p318
I2
sS'total_cq'
p319
I2
sasS'total_cqs'
p320
I2
ssI33
(dp321
S'iters'
p322
I4
sS'meta'
p323
(lp324
(dp325
S'objective'
p326
I3612
sS'query_time'
p327
F15.32363510131836
sS'comp_time'
p328
F0.942044734954834
sS'exec_cq'
p329
I103
sS'total_cq'
p330
I103
sa(dp331
g326
I10
sg327
F0.010441064834594727
sg328
F0.08939123153686523
sg329
I16
sg330
I16
sa(dp332
g326
I3
sg327
F0.0016880035400390625
sg328
F0.004591226577758789
sg329
I7
sg330
I7
sa(dp333
g326
I64
sg327
F0.0005791187286376953
sg328
F0.0012271404266357422
sg329
I3
sg330
I3
sasS'total_cqs'
p334
I103
ssI34
(dp335
S'iters'
p336
I1
sS'meta'
p337
(lp338
(dp339
S'objective'
p340
I1
sS'query_time'
p341
F0.020832061767578125
sS'comp_time'
p342
F0.0018968582153320312
sS'exec_cq'
p343
I2
sS'total_cq'
p344
I2
sasS'total_cqs'
p345
I2
ssI35
(dp346
S'iters'
p347
I5
sS'meta'
p348
(lp349
(dp350
S'objective'
p351
I1323
sS'query_time'
p352
F22.110316038131714
sS'comp_time'
p353
F0.22284603118896484
sS'exec_cq'
p354
I50
sS'total_cq'
p355
I70
sa(dp356
g351
I61
sg352
F0.005412101745605469
sg353
F0.02126336097717285
sg354
I16
sg355
I16
sa(dp357
g351
I7
sg352
F0.0024988651275634766
sg353
F0.0032317638397216797
sg354
I7
sg355
I7
sa(dp358
g351
I17
sg352
F0.0009410381317138672
sg353
F0.0013277530670166016
sg354
I3
sg355
I3
sa(dp359
g351
I21
sg352
F0.0006990432739257812
sg353
F0.0010917186737060547
sg354
I2
sg355
I2
sasS'total_cqs'
p360
I70
ssI36
(dp361
S'iters'
p362
I3
sS'meta'
p363
(lp364
(dp365
S'objective'
p366
I441
sS'query_time'
p367
F0.933265209197998
sS'comp_time'
p368
F0.09329962730407715
sS'exec_cq'
p369
I33
sS'total_cq'
p370
I33
sa(dp371
g366
I409
sg367
F0.0025930404663085938
sg368
F0.009169578552246094
sg369
I29
sg370
I29
sa(dp372
g366
I403
sg367
F0.0011310577392578125
sg368
F0.001544952392578125
sg369
I24
sg370
I25
sasS'total_cqs'
p373
I33
ssI37
(dp374
S'iters'
p375
I1
sS'meta'
p376
(lp377
(dp378
S'objective'
p379
I1
sS'query_time'
p380
F0.021257877349853516
sS'comp_time'
p381
F0.015583276748657227
sS'exec_cq'
p382
I2
sS'total_cq'
p383
I2
sasS'total_cqs'
p384
I2
ssI38
(dp385
S'iters'
p386
I2
sS'meta'
p387
(lp388
(dp389
S'objective'
p390
I0
sS'query_time'
p391
F0.03839302062988281
sS'comp_time'
p392
F0.003337860107421875
sS'exec_cq'
p393
I4
sS'total_cq'
p394
I4
sa(dp395
g390
I3
sg391
F0.00010013580322265625
sg392
F0.0002110004425048828
sg393
I2
sg394
I2
sasS'total_cqs'
p396
I4
ssI39
(dp397
S'iters'
p398
I2
sS'meta'
p399
(lp400
(dp401
S'objective'
p402
I672
sS'query_time'
p403
F0.2829010486602783
sS'comp_time'
p404
F0.09449172019958496
sS'exec_cq'
p405
I44
sS'total_cq'
p406
I44
sa(dp407
g402
I763
sg403
F0.00026488304138183594
sg404
F0.0007467269897460938
sg405
I37
sg406
I37
sasS'total_cqs'
p408
I44
ssI40
(dp409
S'iters'
p410
I1
sS'meta'
p411
(lp412
(dp413
S'objective'
p414
I14
sS'query_time'
p415
F0.043047189712524414
sS'comp_time'
p416
F0.005583286285400391
sS'exec_cq'
p417
I7
sS'total_cq'
p418
I7
sasS'total_cqs'
p419
I7
ssI41
(dp420
S'iters'
p421
I1
sS'meta'
p422
(lp423
(dp424
S'objective'
p425
I58
sS'query_time'
p426
F0.07408690452575684
sS'comp_time'
p427
F0.023753881454467773
sS'exec_cq'
p428
I12
sS'total_cq'
p429
I12
sasS'total_cqs'
p430
I12
ssI42
(dp431
S'iters'
p432
I1
sS'meta'
p433
(lp434
(dp435
S'objective'
p436
I797
sS'query_time'
p437
F0.11687994003295898
sS'comp_time'
p438
F0.15079188346862793
sS'exec_cq'
p439
I41
sS'total_cq'
p440
I41
sasS'total_cqs'
p441
I41
ssI43
(dp442
S'iters'
p443
I1
sS'meta'
p444
(lp445
(dp446
S'objective'
p447
I14
sS'query_time'
p448
F0.02616405487060547
sS'comp_time'
p449
F0.005561113357543945
sS'exec_cq'
p450
I7
sS'total_cq'
p451
I7
sasS'total_cqs'
p452
I7
ssI44
(dp453
S'iters'
p454
I4
sS'meta'
p455
(lp456
(dp457
S'objective'
p458
I694
sS'query_time'
p459
F0.1802828311920166
sS'comp_time'
p460
F0.1517038345336914
sS'exec_cq'
p461
I47
sS'total_cq'
p462
I47
sa(dp463
g458
I725
sg459
F0.0003521442413330078
sg460
F0.0010707378387451172
sg461
I40
sg462
I40
sa(dp464
g458
I13
sg459
F0.002373933792114258
sg460
F0.0016200542449951172
sg461
I3
sg462
I3
sa(dp465
g458
I21
sg459
F0.00014901161193847656
sg460
F0.0002760887145996094
sg461
I2
sg462
I2
sasS'total_cqs'
p466
I47
ssI46
(dp467
S'iters'
p468
I1
sS'meta'
p469
(lp470
(dp471
S'objective'
p472
I9
sS'query_time'
p473
F0.021711111068725586
sS'comp_time'
p474
F0.0040929317474365234
sS'exec_cq'
p475
I4
sS'total_cq'
p476
I6
sasS'total_cqs'
p477
I6
ssI47
(dp478
S'iters'
p479
I1
sS'meta'
p480
(lp481
(dp482
S'objective'
p483
I1
sS'query_time'
p484
F0.01242208480834961
sS'comp_time'
p485
F0.0010547637939453125
sS'exec_cq'
p486
I2
sS'total_cq'
p487
I2
sasS'total_cqs'
p488
I2
ssI50
(dp489
S'iters'
p490
I1
sS'meta'
p491
(lp492
(dp493
S'objective'
p494
I5
sS'query_time'
p495
F0.015906095504760742
sS'comp_time'
p496
F0.00232696533203125
sS'exec_cq'
p497
I5
sS'total_cq'
p498
I5
sasS'total_cqs'
p499
I5
ssI51
(dp500
S'iters'
p501
I1
sS'meta'
p502
(lp503
(dp504
S'objective'
p505
I1
sS'query_time'
p506
F0.03911280632019043
sS'comp_time'
p507
F0.0009217262268066406
sS'exec_cq'
p508
I2
sS'total_cq'
p509
I2
sasS'total_cqs'
p510
I2
ssI52
(dp511
S'iters'
p512
I1
sS'meta'
p513
(lp514
(dp515
S'objective'
p516
I1
sS'query_time'
p517
F0.008291959762573242
sS'comp_time'
p518
F0.00113677978515625
sS'exec_cq'
p519
I2
sS'total_cq'
p520
I2
sasS'total_cqs'
p521
I2
ssI53
(dp522
S'iters'
p523
I1
sS'meta'
p524
(lp525
(dp526
S'objective'
p527
I2
sS'query_time'
p528
F0.038253068923950195
sS'comp_time'
p529
F0.002347230911254883
sS'exec_cq'
p530
I4
sS'total_cq'
p531
I4
sasS'total_cqs'
p532
I4
ssI54
(dp533
S'iters'
p534
I2
sS'meta'
p535
(lp536
(dp537
S'objective'
p538
I0
sS'query_time'
p539
F0.0258328914642334
sS'comp_time'
p540
F0.001965045928955078
sS'exec_cq'
p541
I3
sS'total_cq'
p542
I3
sa(dp543
g538
I1
sg539
F5.7220458984375e-05
sg540
F0.0001628398895263672
sg541
I2
sg542
I2
sasS'total_cqs'
p544
I3
ssI55
(dp545
S'iters'
p546
I4
sS'meta'
p547
(lp548
(dp549
S'objective'
p550
I4829
sS'query_time'
p551
F2.389604091644287
sS'comp_time'
p552
F0.6116721630096436
sS'exec_cq'
p553
I109
sS'total_cq'
p554
I109
sa(dp555
g550
I45
sg551
F0.01003408432006836
sg552
F0.041419029235839844
sg553
I10
sg554
I10
sa(dp556
g550
I73
sg551
F0.0018579959869384766
sg552
F0.005718231201171875
sg553
I4
sg554
I4
sa(dp557
g550
I5
sg551
F0.0004000663757324219
sg552
F0.0004620552062988281
sg553
I2
sg554
I2
sasS'total_cqs'
p558
I109
ssI56
(dp559
S'iters'
p560
I5
sS'meta'
p561
(lp562
(dp563
S'objective'
p564
I1638
sS'query_time'
p565
F1.8185498714447021
sS'comp_time'
p566
F0.23650097846984863
sS'exec_cq'
p567
I67
sS'total_cq'
p568
I76
sa(dp569
g564
I0
sg565
F0.12847399711608887
sg566
F0.09264349937438965
sg567
I16
sg568
I16
sa(dp570
g564
I4
sg565
F0.003175020217895508
sg566
F0.010194063186645508
sg567
I9
sg568
I9
sa(dp571
g564
I17
sg565
F0.0005710124969482422
sg566
F0.0014126300811767578
sg567
I3
sg568
I3
sa(dp572
g564
I26
sg565
F0.0001888275146484375
sg566
F0.00038123130798339844
sg567
I2
sg568
I2
sasS'total_cqs'
p573
I76
ssI57
(dp574
S'iters'
p575
I5
sS'meta'
p576
(lp577
(dp578
S'objective'
p579
I260
sS'query_time'
p580
F22.86566185951233
sS'comp_time'
p581
F0.22626256942749023
sS'exec_cq'
p582
I45
sS'total_cq'
p583
I51
sa(dp584
g579
I209
sg580
F0.0028488636016845703
sg581
F0.006661891937255859
sg582
I27
sg583
I33
sa(dp585
g579
I2
sg580
F0.0026171207427978516
sg581
F0.05579066276550293
sg582
I13
sg583
I13
sa(dp586
g579
I29
sg580
F0.0014510154724121094
sg581
F0.0017361640930175781
sg582
I4
sg583
I4
sa(dp587
g579
I8
sg580
F0.00047016143798828125
sg581
F0.0006048679351806641
sg582
I2
sg583
I2
sasS'total_cqs'
p588
I51
ssI58
(dp589
S'iters'
p590
I6
sS'meta'
p591
(lp592
(dp593
S'objective'
p594
I82177
sS'query_time'
p595
F323.72212505340576
sS'comp_time'
p596
F25.617347955703735
sS'exec_cq'
p597
I486
sS'total_cq'
p598
I486
sa(dp599
g594
I87503
sg595
F5.488526105880737
sg596
F9.29305100440979
sg597
I414
sg598
I414
sa(dp600
g594
I210
sg595
F0.012695074081420898
sg596
F0.5666875839233398
sg597
I25
sg598
I25
sa(dp601
g594
I26
sg595
F0.009805917739868164
sg596
F0.26631951332092285
sg597
I12
sg598
I12
sa(dp602
g594
I93
sg595
F0.004225015640258789
sg596
F0.004731893539428711
sg597
I5
sg598
I5
sa(dp603
g594
I14
sg595
F0.0004439353942871094
sg596
F0.0005021095275878906
sg597
I2
sg598
I2
sasS'total_cqs'
p604
I486
ssI59
(dp605
S'iters'
p606
I2
sS'meta'
p607
(lp608
(dp609
S'objective'
p610
I4
sS'query_time'
p611
F0.046885013580322266
sS'comp_time'
p612
F0.005999088287353516
sS'exec_cq'
p613
I7
sS'total_cq'
p614
I7
sa(dp615
g610
I2
sg611
F0.000164031982421875
sg612
F0.00037097930908203125
sg613
I2
sg614
I2
sasS'total_cqs'
p616
I7
ssI60
(dp617
S'iters'
p618
I1
sS'meta'
p619
(lp620
(dp621
S'objective'
p622
I5
sS'query_time'
p623
F0.01645374298095703
sS'comp_time'
p624
F0.003060579299926758
sS'exec_cq'
p625
I4
sS'total_cq'
p626
I5
sasS'total_cqs'
p627
I5
ssI62
(dp628
S'iters'
p629
I2
sS'meta'
p630
(lp631
(dp632
S'objective'
p633
I14
sS'query_time'
p634
F0.03540921211242676
sS'comp_time'
p635
F0.017501115798950195
sS'exec_cq'
p636
I12
sS'total_cq'
p637
I12
sa(dp638
g633
I26
sg634
F5.2928924560546875e-05
sg635
F0.0001919269561767578
sg636
I9
sg637
I9
sasS'total_cqs'
p639
I12
ssI64
(dp640
S'iters'
p641
I2
sS'meta'
p642
(lp643
(dp644
S'objective'
p645
I32
sS'query_time'
p646
F0.10816502571105957
sS'comp_time'
p647
F0.01631903648376465
sS'exec_cq'
p648
I12
sS'total_cq'
p649
I12
sa(dp650
g645
I3
sg646
F7.987022399902344e-05
sg647
F0.0004887580871582031
sg648
I4
sg649
I4
sasS'total_cqs'
p651
I12
ssI65
(dp652
S'iters'
p653
I3
sS'meta'
p654
(lp655
(dp656
S'objective'
p657
I192
sS'query_time'
p658
F0.9096930027008057
sS'comp_time'
p659
F0.057709693908691406
sS'exec_cq'
p660
I27
sS'total_cq'
p661
I27
sa(dp662
g657
I7
sg658
F0.002231121063232422
sg659
F0.006311178207397461
sg660
I7
sg661
I7
sa(dp663
g657
I6
sg658
F0.0009758472442626953
sg659
F0.0012362003326416016
sg660
I5
sg661
I5
sasS'total_cqs'
p664
I27
ssI67
(dp665
S'iters'
p666
I2
sS'meta'
p667
(lp668
(dp669
S'objective'
p670
I572
sS'query_time'
p671
F0.8878099918365479
sS'comp_time'
p672
F0.07720112800598145
sS'exec_cq'
p673
I35
sS'total_cq'
p674
I35
sa(dp675
g670
I27
sg671
F0.0011429786682128906
sg672
F0.0026330947875976562
sg673
I2
sg674
I2
sasS'total_cqs'
p676
I35
ssI69
(dp677
S'iters'
p678
I1
sS'meta'
p679
(lp680
(dp681
S'objective'
p682
I1246
sS'query_time'
p683
F0.16034817695617676
sS'comp_time'
p684
F0.13619709014892578
sS'exec_cq'
p685
I51
sS'total_cq'
p686
I51
sasS'total_cqs'
p687
I51
ssI70
(dp688
S'iters'
p689
I1
sS'meta'
p690
(lp691
(dp692
S'objective'
p693
I9
sS'query_time'
p694
F0.020622968673706055
sS'comp_time'
p695
F0.002503633499145508
sS'exec_cq'
p696
I6
sS'total_cq'
p697
I6
sasS'total_cqs'
p698
I6
ssI71
(dp699
S'iters'
p700
I3
sS'meta'
p701
(lp702
(dp703
S'objective'
p704
I3337
sS'query_time'
p705
F0.324847936630249
sS'comp_time'
p706
F0.1815786361694336
sS'exec_cq'
p707
I85
sS'total_cq'
p708
I85
sa(dp709
g704
I3184
sg705
F0.000415802001953125
sg706
F0.001276254653930664
sg707
I82
sg708
I82
sa(dp710
g704
I26
sg705
F0.002023935317993164
sg706
F0.003359079360961914
sg707
I3
sg708
I3
sasS'total_cqs'
p711
I85
ssI72
(dp712
S'iters'
p713
I3
sS'meta'
p714
(lp715
(dp716
S'objective'
p717
I8
sS'query_time'
p718
F0.30369114875793457
sS'comp_time'
p719
F0.00495600700378418
sS'exec_cq'
p720
I8
sS'total_cq'
p721
I8
sa(dp722
g717
I4
sg718
F0.0003178119659423828
sg719
F0.0008547306060791016
sg720
I4
sg721
I6
sa(dp723
g717
I1
sg718
F1.3828277587890625e-05
sg719
F3.3855438232421875e-05
sg720
I2
sg721
I3
sasS'total_cqs'
p724
I8
ssI75
(dp725
S'iters'
p726
I1
sS'meta'
p727
(lp728
(dp729
S'objective'
p730
I5
sS'query_time'
p731
F0.015803098678588867
sS'comp_time'
p732
F0.0016179084777832031
sS'exec_cq'
p733
I5
sS'total_cq'
p734
I5
sasS'total_cqs'
p735
I5
ssI76
(dp736
S'iters'
p737
I1
sS'meta'
p738
(lp739
(dp740
S'objective'
p741
I1
sS'query_time'
p742
F0.01228189468383789
sS'comp_time'
p743
F0.0008480548858642578
sS'exec_cq'
p744
I2
sS'total_cq'
p745
I2
sasS'total_cqs'
p746
I2
ssI103
(dp747
S'iters'
p748
I1
sS'meta'
p749
(lp750
(dp751
S'objective'
p752
I58
sS'query_time'
p753
F0.06220602989196777
sS'comp_time'
p754
F0.01586461067199707
sS'exec_cq'
p755
I12
sS'total_cq'
p756
I12
sasS'total_cqs'
p757
I12
ssI104
(dp758
S'iters'
p759
I1
sS'meta'
p760
(lp761
(dp762
S'objective'
p763
I2
sS'query_time'
p764
F1.349919080734253
sS'comp_time'
p765
F0.20298337936401367
sS'exec_cq'
p766
I4
sS'total_cq'
p767
I4
sasS'total_cqs'
p768
I4
ssI106
(dp769
S'iters'
p770
I1
sS'meta'
p771
(lp772
(dp773
S'objective'
p774
I2
sS'query_time'
p775
F0.016726970672607422
sS'comp_time'
p776
F0.001941680908203125
sS'exec_cq'
p777
I4
sS'total_cq'
p778
I4
sasS'total_cqs'
p779
I4
ssI107
(dp780
S'iters'
p781
I2
sS'meta'
p782
(lp783
(dp784
S'objective'
p785
I96
sS'query_time'
p786
F0.08185696601867676
sS'comp_time'
p787
F0.026504993438720703
sS'exec_cq'
p788
I16
sS'total_cq'
p789
I16
sa(dp790
g785
I6
sg786
F0.008224010467529297
sg787
F0.0002932548522949219
sg788
I3
sg789
I3
sasS'total_cqs'
p791
I16
ss.