(dp0
I1
(dp1
S'error_cq'
p2
I0
sS'query_time'
p3
F0.03223109245300293
sS'dist'
p4
F3.333333333333333
sS'exec_cq'
p5
I12
sS'comp_time'
p6
F0.0018990039825439453
sS'parse_time'
p7
F0.003359079360961914
sS'total_cq'
p8
I12
sS'timeout_cq'
p9
I0
sS'valid_cq'
p10
I5
ssI2
(dp11
g2
I0
sg3
F0.06411600112915039
sg4
F6.857142857142858
sg5
I14
sg6
F0.005514860153198242
sg7
F0.0017809867858886719
sg8
I28
sg9
I0
sg10
I8
ssI3
(dp12
g2
I0
sg3
F291.87963485717773
sg4
F19.80952380952381
sg5
I16
sg6
F0.02805924415588379
sg7
F0.0021071434020996094
sg8
I42
sg9
I7
sg10
I9
ssI4
(dp13
g2
I0
sg3
F3.57991099357605
sg4
F3.2727272727272725
sg5
I11
sg6
F0.5297479629516602
sg7
F0.0020799636840820312
sg8
I11
sg9
I0
sg10
I2
ssI5
(dp14
g2
I0
sg3
F49.02897310256958
sg4
F4.0
sg5
I8
sg6
F3.2480428218841553
sg7
F0.00209808349609375
sg8
I8
sg9
I0
sg10
I8
ssI6
(dp15
g2
I0
sg3
F40.68427515029907
sg4
F8.555555555555557
sg5
I12
sg6
F3.041736125946045
sg7
F0.0019359588623046875
sg8
I18
sg9
I0
sg10
I10
ssI7
(dp16
g2
I0
sg3
F11.029994010925293
sg4
F4.444444444444445
sg5
I9
sg6
F2.0773990154266357
sg7
F0.0018088817596435547
sg8
I9
sg9
I0
sg10
I9
ssI8
(dp17
g2
I0
sg3
F0.06471014022827148
sg4
F5.357142857142858
sg5
I14
sg6
F0.003695964813232422
sg7
F0.0011551380157470703
sg8
I28
sg9
I0
sg10
I6
ssI9
(dp18
g2
I0
sg3
F0.06420278549194336
sg4
F3.4285714285714284
sg5
I7
sg6
F0.0052874088287353516
sg7
F0.002068042755126953
sg8
I7
sg9
I0
sg10
I6
ssI10
(dp19
g2
I0
sg3
F0.21480011940002441
sg4
F23.678571428571427
sg5
I28
sg6
F0.009756088256835938
sg7
F0.0018432140350341797
sg8
I56
sg9
I0
sg10
I21
ssI11
(dp20
g2
I0
sg3
F0.11449217796325684
sg4
F23.678571428571427
sg5
I28
sg6
F0.012176752090454102
sg7
F0.002074003219604492
sg8
I56
sg9
I0
sg10
I21
ssI12
(dp21
g2
I0
sg3
F0.9673538208007812
sg4
F10.941176470588236
sg5
I52
sg6
F0.05411887168884277
sg7
F0.0016999244689941406
sg8
I68
sg9
I0
sg10
I18
ssI13
(dp22
g2
I0
sg3
F0.4657630920410156
sg4
F23.678571428571427
sg5
I28
sg6
F0.0100860595703125
sg7
F0.0020949840545654297
sg8
I56
sg9
I0
sg10
I21
ssI14
(dp23
g2
I0
sg3
F0.4156229496002197
sg4
F13.357142857142858
sg5
I28
sg6
F0.01105499267578125
sg7
F0.002106904983520508
sg8
I28
sg9
I0
sg10
I21
ssI15
(dp24
g2
I0
sg3
F27.022320985794067
sg4
F4.444444444444445
sg5
I9
sg6
F1.9017298221588135
sg7
F0.002210855484008789
sg8
I9
sg9
I0
sg10
I9
ssI16
(dp25
g2
I0
sg3
F2.528033971786499
sg4
F5.454545454545455
sg5
I11
sg6
F0.11222195625305176
sg7
F0.0018339157104492188
sg8
I11
sg9
I0
sg10
I9
ssI17
(dp26
g2
I0
sg3
F0.17861294746398926
sg4
I0
sg5
I16
sg6
F0.022261857986450195
sg7
F0.0018310546875
sg8
I8
sg9
I0
sg10
I0
ssI18
(dp27
g2
I0
sg3
F0.7173640727996826
sg4
F5.454545454545455
sg5
I9
sg6
F0.03908562660217285
sg7
F0.0021491050720214844
sg8
I11
sg9
I0
sg10
I8
ssI19
(dp28
g2
I0
sg3
F2.1863279342651367
sg4
F1.8181818181818183
sg5
I6
sg6
F0.9366259574890137
sg7
F0.0019409656524658203
sg8
I11
sg9
I0
sg10
I1
ssI20
(dp29
g2
I0
sg3
I0
sg4
I0
sg5
I0
sg6
F0.0004467964172363281
sg7
F0.0019540786743164062
sg8
I1
sg9
I0
sg10
I0
ssI21
(dp30
g2
I0
sg3
I0
sg4
I0
sg5
I0
sg6
F0.00030684471130371094
sg7
F0.002213001251220703
sg8
I1
sg9
I0
sg10
I0
ssI22
(dp31
g2
I0
sg3
I0
sg4
I0
sg5
I0
sg6
F0.0003287792205810547
sg7
F0.0019311904907226562
sg8
I1
sg9
I0
sg10
I0
ssI23
(dp32
g2
I0
sg3
F0.032160043716430664
sg4
F1.8888888888888888
sg5
I18
sg6
F0.002655029296875
sg7
F0.0019028186798095703
sg8
I18
sg9
I0
sg10
I1
ssI24
(dp33
g2
I0
sg3
F0.1144418716430664
sg4
F1.875
sg5
I8
sg6
F0.013957977294921875
sg7
F0.0019910335540771484
sg8
I16
sg9
I0
sg10
I1
ssI25
(dp34
g2
I0
sg3
I0
sg4
I0
sg5
I0
sg6
F0.0003120899200439453
sg7
F0.001806020736694336
sg8
I1
sg9
I0
sg10
I0
ssI26
(dp35
g2
I0
sg3
I0
sg4
I0
sg5
I0
sg6
F0.0001881122589111328
sg7
F0.00074005126953125
sg8
I1
sg9
I0
sg10
I0
ssI27
(dp36
g2
I0
sg3
F0.3655118942260742
sg4
F1.9523809523809523
sg5
I42
sg6
F0.038527727127075195
sg7
F0.0019998550415039062
sg8
I42
sg9
I0
sg10
I1
ssI28
(dp37
g2
I0
sg3
F9.306375980377197
sg4
F8.333333333333332
sg5
I30
sg6
F0.5964281558990479
sg7
F0.002193927764892578
sg8
I30
sg9
I0
sg10
I7
ssI29
(dp38
g2
I0
sg3
I0
sg4
I0
sg5
I0
sg6
F0.0003478527069091797
sg7
F0.0020661354064941406
sg8
I1
sg9
I0
sg10
I0
ssI30
(dp39
g2
I0
sg3
F33.28341197967529
sg4
F22.204081632653065
sg5
I35
sg6
F0.5544254779815674
sg7
F0.0018088817596435547
sg8
I49
sg9
I0
sg10
I32
ssI31
(dp40
g2
I0
sg3
F0.4683218002319336
sg4
F1.0
sg5
I2
sg6
F0.030391931533813477
sg7
F0.002193927764892578
sg8
I2
sg9
I0
sg10
I2
ssI32
(dp41
g2
I0
sg3
I0
sg4
I0
sg5
I0
sg6
F0.000247955322265625
sg7
F0.002073049545288086
sg8
I1
sg9
I0
sg10
I0
ssI33
(dp42
g2
I0
sg3
F0.016065120697021484
sg4
F1.0
sg5
I2
sg6
F0.001024007797241211
sg7
F0.0017690658569335938
sg8
I2
sg9
I0
sg10
I2
ssI34
(dp43
g2
I0
sg3
F12.640185117721558
sg4
F27.029126213592235
sg5
I87
sg6
F0.09170722961425781
sg7
F0.0020880699157714844
sg8
I103
sg9
I0
sg10
I33
ssI35
(dp44
g2
I0
sg3
F0.03222489356994629
sg4
F1.0
sg5
I2
sg6
F0.0012412071228027344
sg7
F0.002235889434814453
sg8
I2
sg9
I0
sg10
I2
ssI36
(dp45
g2
I0
sg3
F20.065479040145874
sg4
F24.685714285714283
sg5
I42
sg6
F0.04303884506225586
sg7
F0.004310131072998047
sg8
I70
sg9
I0
sg10
I25
ssI37
(dp46
g2
I0
sg3
F17.385200023651123
sg4
I0
sg5
I69
sg6
F12.876527070999146
sg7
F0.002067089080810547
sg8
I33
sg9
I0
sg10
I0
ssI38
(dp47
g2
I0
sg3
F0.01596999168395996
sg4
F1.0
sg5
I2
sg6
F0.001110076904296875
sg7
F0.0017740726470947266
sg8
I2
sg9
I0
sg10
I2
ssI39
(dp48
g2
I0
sg3
F0.06435418128967285
sg4
F2.0
sg5
I4
sg6
F0.002705097198486328
sg7
F0.002028942108154297
sg8
I4
sg9
I0
sg10
I4
ssI40
(dp49
g2
I0
sg3
F0.11444616317749023
sg4
F11.772727272727273
sg5
I44
sg6
F0.00681304931640625
sg7
F0.0018239021301269531
sg8
I44
sg9
I0
sg10
I8
ssI41
(dp50
g2
I0
sg3
F5.046898126602173
sg4
F1.7142857142857144
sg5
I7
sg6
F1.2400779724121094
sg7
F0.002271890640258789
sg8
I7
sg9
I0
sg10
I1
ssI42
(dp51
g2
I0
sg3
F0.11453795433044434
sg4
F1.8333333333333333
sg5
I12
sg6
F0.002886533737182617
sg7
F0.0019440650939941406
sg8
I12
sg9
I0
sg10
I2
ssI43
(dp52
g2
I0
sg3
F0.16468596458435059
sg4
F1.9500000000000002
sg5
I20
sg6
F0.026845932006835938
sg7
F0.0017969608306884766
sg8
I40
sg9
I0
sg10
I1
ssI44
(dp53
g2
I0
sg3
F4.961195945739746
sg4
F1.7142857142857144
sg5
I7
sg6
F1.2301549911499023
sg7
F0.002225160598754883
sg8
I7
sg9
I0
sg10
I1
ssI45
(dp54
g2
I0
sg3
F0.11457514762878418
sg4
F11.914893617021276
sg5
I46
sg6
F0.014013051986694336
sg7
F0.0021429061889648438
sg8
I47
sg9
I0
sg10
I9
ssI46
(dp55
g2
I0
sg3
I0
sg4
I0
sg5
I0
sg6
F0.0002872943878173828
sg7
F0.0018470287322998047
sg8
I1
sg9
I0
sg10
I0
ssI47
(dp56
g2
I0
sg3
F0.31503987312316895
sg4
F1.6666666666666665
sg5
I4
sg6
F0.0423121452331543
sg7
F0.0018930435180664062
sg8
I6
sg9
I0
sg10
I2
ssI48
(dp57
g2
I0
sg3
F0.015830039978027344
sg4
F1.0
sg5
I2
sg6
F0.0027091503143310547
sg7
F0.002532958984375
sg8
I2
sg9
I0
sg10
I2
ssI49
(dp58
g2
I0
sg3
I0
sg4
I0
sg5
I0
sg6
F0.0002551078796386719
sg7
F0.0017321109771728516
sg8
I1
sg9
I0
sg10
I0
ssI50
(dp59
g2
I0
sg3
I0
sg4
I0
sg5
I0
sg6
F0.0002257823944091797
sg7
F0.0018579959869384766
sg8
I1
sg9
I0
sg10
I0
ssI51
(dp60
g2
I0
sg3
F0.1644728183746338
sg4
F1.3333333333333335
sg5
I2
sg6
F0.023682117462158203
sg7
F0.002135038375854492
sg8
I3
sg9
I0
sg10
I1
ssI52
(dp61
g2
I0
sg3
I0
sg4
I0
sg5
I0
sg6
F0.0007350444793701172
sg7
F0.0022590160369873047
sg8
I5
sg9
I0
sg10
I0
ssI53
(dp62
g2
I0
sg3
F0.016005992889404297
sg4
F1.0
sg5
I2
sg6
F0.0007851123809814453
sg7
F0.0018999576568603516
sg8
I2
sg9
I0
sg10
I2
ssI54
(dp63
g2
I0
sg3
F0.009411811828613281
sg4
F1.0
sg5
I2
sg6
F0.0010669231414794922
sg7
F0.0019369125366210938
sg8
I2
sg9
I0
sg10
I2
ssI55
(dp64
g2
I0
sg3
F0.03211784362792969
sg4
F2.0
sg5
I4
sg6
F0.0033059120178222656
sg7
F0.0018410682678222656
sg8
I4
sg9
I0
sg10
I4
ssI56
(dp65
g2
I0
sg3
F0.09594297409057617
sg4
F1.8333333333333333
sg5
I18
sg6
F0.014535188674926758
sg7
F0.0018351078033447266
sg8
I12
sg9
I0
sg10
I2
ssI57
(dp66
g2
I0
sg3
F6.90313196182251
sg4
F3.7894736842105265
sg5
I79
sg6
F1.3981411457061768
sg7
F0.0017750263214111328
sg8
I38
sg9
I0
sg10
I4
ssI58
(dp67
g2
I0
sg3
F0.01582193374633789
sg4
F1.3333333333333335
sg5
I3
sg6
F0.0013129711151123047
sg7
F0.0020771026611328125
sg8
I3
sg9
I0
sg10
I3
ssI59
(dp68
g2
I0
sg3
F2.725860834121704
sg4
F21.357798165137616
sg5
I69
sg6
F0.08686089515686035
sg7
F0.0019800662994384766
sg8
I109
sg9
I0
sg10
I30
ssI60
(dp69
g2
I0
sg3
F1.4722189903259277
sg4
F25.263157894736842
sg5
I55
sg6
F0.06676912307739258
sg7
F0.0019299983978271484
sg8
I76
sg9
I0
sg10
I24
ssI61
(dp70
g2
I0
sg3
F45.217193365097046
sg4
I0
sg5
I21
sg6
F21.973511219024658
sg7
F0.0018639564514160156
sg8
I7
sg9
I0
sg10
I0
ssI62
(dp71
g2
I0
sg3
F28.758496046066284
sg4
F25.411764705882355
sg5
I90
sg6
F0.06602621078491211
sg7
F0.0026450157165527344
sg8
I51
sg9
I0
sg10
I31
ssI63
(dp72
g2
I0
sg3
F127.39917302131653
sg4
F122.66666666666666
sg5
I220
sg6
F0.6996755599975586
sg7
F0.006114006042480469
sg8
I486
sg9
I0
sg10
I128
ssI64
(dp73
g2
I0
sg3
F0.06499314308166504
sg4
F2.8571428571428568
sg5
I5
sg6
F0.007170200347900391
sg7
F0.0019838809967041016
sg8
I7
sg9
I0
sg10
I2
ssI65
(dp74
g2
I0
sg3
F0.015998125076293945
sg4
F1.5
sg5
I2
sg6
F0.001071929931640625
sg7
F0.00191497802734375
sg8
I4
sg9
I0
sg10
I1
ssI66
(dp75
g2
I0
sg3
I0
sg4
I0
sg5
I0
sg6
F0.0002918243408203125
sg7
F0.0018208026885986328
sg8
I1
sg9
I0
sg10
I0
ssI67
(dp76
g2
I0
sg3
F0.03210783004760742
sg4
F4.5
sg5
I12
sg6
F0.0016448497772216797
sg7
F0.0023298263549804688
sg8
I12
sg9
I0
sg10
I4
ssI68
(dp77
g2
I0
sg3
I0
sg4
I0
sg5
I0
sg6
F0.000244140625
sg7
F0.0018858909606933594
sg8
I1
sg9
I0
sg10
I0
ssI69
(dp78
g2
I0
sg3
F0.07492208480834961
sg4
F5.333333333333334
sg5
I10
sg6
F0.01654982566833496
sg7
F0.0024640560150146484
sg8
I12
sg9
I0
sg10
I7
ssI70
(dp79
g2
I0
sg3
F0.2147078514099121
sg4
F3.7037037037037033
sg5
I25
sg6
F0.024020910263061523
sg7
F0.0017039775848388672
sg8
I27
sg9
I0
sg10
I3
ssI71
(dp80
g2
I0
sg3
I0
sg4
I0
sg5
I0
sg6
F0.0004520416259765625
sg7
F0.0023479461669921875
sg8
I1
sg9
I0
sg10
I0
ssI72
(dp81
g2
I0
sg3
F3.1706960201263428
sg4
F3.7714285714285714
sg5
I105
sg6
F0.22316265106201172
sg7
F0.0017740726470947266
sg8
I35
sg9
I0
sg10
I2
ssI73
(dp82
g2
I0
sg3
I0
sg4
I0
sg5
I0
sg6
F0.0006318092346191406
sg7
F0.002084016799926758
sg8
I1
sg9
I0
sg10
I0
ssI74
(dp83
g2
I0
sg3
F0.12848305702209473
sg4
I0
sg5
I120
sg6
F0.10455322265625
sg7
F0.001967906951904297
sg8
I50
sg9
I0
sg10
I0
ssI75
(dp84
g2
I0
sg3
F0.016223907470703125
sg4
F1.6
sg5
I5
sg6
F0.002197265625
sg7
F0.0019969940185546875
sg8
I5
sg9
I0
sg10
I3
ssI76
(dp85
g2
I0
sg3
F235.25131225585938
sg4
F7.623529411764705
sg5
I219
sg6
F126.48139810562134
sg7
F0.0025718212127685547
sg8
I85
sg9
I0
sg10
I4
ssI77
(dp86
g2
I0
sg3
I0
sg4
I0
sg5
I0
sg6
F0.0005280971527099609
sg7
F0.002115011215209961
sg8
I1
sg9
I0
sg10
I0
ssI78
(dp87
g2
I0
sg3
F0.03267693519592285
sg4
F1.6
sg5
I5
sg6
F0.0022988319396972656
sg7
F0.0018019676208496094
sg8
I5
sg9
I0
sg10
I4
ssI79
(dp88
g2
I0
sg3
F0.06446385383605957
sg4
F3.0
sg5
I4
sg6
F0.0013551712036132812
sg7
F0.0021469593048095703
sg8
I8
sg9
I0
sg10
I4
ssI80
(dp89
g2
I0
sg3
I0
sg4
I0
sg5
I0
sg6
F0.0004608631134033203
sg7
F0.0022399425506591797
sg8
I1
sg9
I0
sg10
I0
ssI81
(dp90
g2
I0
sg3
I0
sg4
I0
sg5
I0
sg6
F0.00021767616271972656
sg7
F0.0020110607147216797
sg8
I1
sg9
I0
sg10
I0
ssI82
(dp91
g2
I0
sg3
I0
sg4
I0
sg5
I0
sg6
F0.0007016658782958984
sg7
F0.0017750263214111328
sg8
I5
sg9
I0
sg10
I0
ssI83
(dp92
g2
I0
sg3
I0
sg4
I0
sg5
I0
sg6
F0.0002620220184326172
sg7
F0.0019080638885498047
sg8
I2
sg9
I0
sg10
I0
ssI84
(dp93
g2
I0
sg3
F0.09653711318969727
sg4
I0
sg5
I43
sg6
F0.060745954513549805
sg7
F0.0018260478973388672
sg8
I19
sg9
I0
sg10
I0
ssI85
(dp94
g2
I0
sg3
I0
sg4
I0
sg5
I0
sg6
F0.000247955322265625
sg7
F0.002012968063354492
sg8
I1
sg9
I0
sg10
I0
ssI86
(dp95
g2
I0
sg3
I0
sg4
I0
sg5
I0
sg6
F0.00024890899658203125
sg7
F0.0017189979553222656
sg8
I1
sg9
I0
sg10
I0
ssI113
(dp96
g2
I0
sg3
F10.41648006439209
sg4
F1.8333333333333333
sg5
I8
sg6
F2.5181362628936768
sg7
F0.002231121063232422
sg8
I12
sg9
I0
sg10
I1
ssI114
(dp97
g2
I0
sg3
F0.31577610969543457
sg4
F2.0
sg5
I4
sg6
F0.0163419246673584
sg7
F0.0019719600677490234
sg8
I4
sg9
I0
sg10
I4
ssI115
(dp98
g2
I0
sg3
I0
sg4
I0
sg5
I0
sg6
F0.00035500526428222656
sg7
F0.0019321441650390625
sg8
I1
sg9
I0
sg10
I0
ssI116
(dp99
g2
I0
sg3
F14.75020694732666
sg4
I0
sg5
I8
sg6
F4.090432167053223
sg7
F0.0017240047454833984
sg8
I4
sg9
I0
sg10
I0
ssI117
(dp100
g2
I0
sg3
F11.31867504119873
sg4
F3.5
sg5
I16
sg6
F2.833521842956543
sg7
F0.002285003662109375
sg8
I16
sg9
I0
sg10
I4
ssI118
(dp101
g2
I0
sg3
I0
sg4
I0
sg5
I0
sg6
F0.000469207763671875
sg7
F0.0019860267639160156
sg8
I9
sg9
I0
sg10
I0
ssI119
(dp102
g2
I0
sg3
F0.03243589401245117
sg4
F4.800000000000001
sg5
I8
sg6
F0.0032422542572021484
sg7
F0.0017940998077392578
sg8
I10
sg9
I0
sg10
I8
ssI120
(dp103
g2
I0
sg3
I0
sg4
I0
sg5
I0
sg6
F0.0001461505889892578
sg7
F0.001965045928955078
sg8
I1
sg9
I0
sg10
I0
ssI121
(dp104
g2
I0
sg3
F1.9231369495391846
sg4
F4.800000000000001
sg5
I7
sg6
F0.5582377910614014
sg7
F0.0019669532775878906
sg8
I10
sg9
I0
sg10
I7
ssI122
(dp105
g2
I0
sg3
F0.6781141757965088
sg4
F6.0
sg5
I12
sg6
F0.008853912353515625
sg7
F0.0019390583038330078
sg8
I12
sg9
I0
sg10
I8
ssI123
(dp106
g2
I0
sg3
F1.6697649955749512
sg4
F22.06711409395973
sg5
I149
sg6
F0.1898820400238037
sg7
F0.0019459724426269531
sg8
I149
sg9
I0
sg10
I20
ssI124
(dp107
g2
I0
sg3
I0
sg4
I0
sg5
I0
sg6
F0.0003180503845214844
sg7
F0.002095937728881836
sg8
I1
sg9
I0
sg10
I0
ssI125
(dp108
g2
I0
sg3
F0.7441997528076172
sg4
I0
sg5
I57
sg6
F0.16615056991577148
sg7
F0.0020198822021484375
sg8
I20
sg9
I0
sg10
I0
ssI126
(dp109
g2
I0
sg3
F0.06432580947875977
sg4
F8.727272727272727
sg5
I22
sg6
F0.006469249725341797
sg7
F0.0028069019317626953
sg8
I22
sg9
I0
sg10
I8
ssI127
(dp110
g2
I0
sg3
I0
sg4
I0
sg5
I0
sg6
F0.0004119873046875
sg7
F0.001873016357421875
sg8
I3
sg9
I0
sg10
I0
ss.