(dp0
I1
(dp1
S'iters'
p2
I4
sS'meta'
p3
(lp4
(dp5
S'objective'
p6
I56
sS'query_time'
p7
F0.060597896575927734
sS'comp_time'
p8
F0.018377304077148438
sS'exec_cq'
p9
I12
sS'total_cq'
p10
I12
sa(dp11
g6
I45
sg7
F4.792213439941406e-05
sg8
F0.00015807151794433594
sg9
I10
sg10
I10
sa(dp12
g6
I52
sg7
F3.0040740966796875e-05
sg8
F8.988380432128906e-05
sg9
I9
sg10
I9
sa(dp13
g6
I52
sg7
F2.5033950805664062e-05
sg8
F6.771087646484375e-05
sg9
I8
sg10
I8
sasS'total_cqs'
p14
I12
ssI2
(dp15
S'iters'
p16
I7
sS'meta'
p17
(lp18
(dp19
S'objective'
p20
I258
sS'query_time'
p21
F0.12763309478759766
sS'comp_time'
p22
F0.036679983139038086
sS'exec_cq'
p23
I14
sS'total_cq'
p24
I27
sa(dp25
g20
I236
sg21
F9.989738464355469e-05
sg22
F0.0005490779876708984
sg23
I11
sg24
I24
sa(dp26
g20
I183
sg21
F0.1230919361114502
sg22
F0.0005431175231933594
sg23
I13
sg24
I22
sa(dp27
g20
I158
sg21
F9.512901306152344e-05
sg22
F0.0005095005035400391
sg23
I9
sg24
I18
sa(dp28
g20
I172
sg21
F5.507469177246094e-05
sg22
F0.00022864341735839844
sg23
I9
sg24
I16
sa(dp29
g20
I173
sg21
F3.1948089599609375e-05
sg22
F0.0001049041748046875
sg23
I8
sg24
I15
sa(dp30
g20
I176
sg21
F2.8133392333984375e-05
sg22
F8.440017700195312e-05
sg23
I7
sg24
I14
sasS'total_cqs'
p31
I27
ssI3
(dp32
S'iters'
p33
I4
sS'meta'
p34
(lp35
(dp36
S'objective'
p37
I144
sS'query_time'
p38
F77.03394508361816
sS'comp_time'
p39
F0.5506319999694824
sS'exec_cq'
p40
I16
sS'total_cq'
p41
I43
sa(dp42
g37
I29
sg38
F109.17332482337952
sg39
F2.1933412551879883
sg40
I14
sg41
I27
sa(dp43
g37
I60
sg38
F42.18919491767883
sg39
F0.828819990158081
sg40
I9
sg41
I13
sa(dp44
g37
I97
sg38
F11.679474830627441
sg39
F0.002599000930786133
sg40
I6
sg41
I6
sasS'total_cqs'
p45
I43
ssI4
(dp46
S'iters'
p47
I2
sS'meta'
p48
(lp49
(dp50
S'objective'
p51
I54
sS'query_time'
p52
F4.5010480880737305
sS'comp_time'
p53
F1.057183027267456
sS'exec_cq'
p54
I11
sS'total_cq'
p55
I11
sa(dp56
g51
I4
sg52
F0.20533108711242676
sg53
F0.8459289073944092
sg54
I2
sg55
I2
sasS'total_cqs'
p57
I11
ssI5
(dp58
S'iters'
p59
I3
sS'meta'
p60
(lp61
(dp62
S'objective'
p63
I0
sS'query_time'
p64
F34.318902015686035
sS'comp_time'
p65
F3.976120948791504
sS'exec_cq'
p66
I8
sS'total_cq'
p67
I8
sa(dp68
g63
I0
sg64
F0.7575540542602539
sg65
F3.289215564727783
sg66
I4
sg67
I4
sa(dp69
g63
I7
sg64
F0.2839639186859131
sg65
F1.1586241722106934
sg66
I2
sg67
I2
sasS'total_cqs'
p70
I8
ssI6
(dp71
S'iters'
p72
I5
sS'meta'
p73
(lp74
(dp75
S'objective'
p76
I47
sS'query_time'
p77
F37.65109395980835
sS'comp_time'
p78
F5.461045026779175
sS'exec_cq'
p79
I18
sS'total_cq'
p80
I18
sa(dp81
g76
I2
sg77
F0.8230900764465332
sg78
F4.711366176605225
sg79
I7
sg80
I7
sa(dp82
g76
I4
sg77
F0.4610939025878906
sg78
F1.6138050556182861
sg79
I5
sg80
I5
sa(dp83
g76
I7
sg77
F0.019124984741210938
sg78
F0.24322891235351562
sg79
I3
sg80
I3
sa(dp84
g76
I1
sg77
F0.010885953903198242
sg78
F0.17679524421691895
sg79
I2
sg80
I2
sasS'total_cqs'
p85
I18
ssI7
(dp86
S'iters'
p87
I3
sS'meta'
p88
(lp89
(dp90
S'objective'
p91
I1
sS'query_time'
p92
F12.925469875335693
sS'comp_time'
p93
F1.9558653831481934
sS'exec_cq'
p94
I9
sS'total_cq'
p95
I9
sa(dp96
g91
I2
sg92
F0.0052220821380615234
sg93
F0.029889583587646484
sg94
I4
sg95
I4
sa(dp97
g91
I8
sg92
F0.0038709640502929688
sg93
F0.21149611473083496
sg94
I2
sg95
I2
sasS'total_cqs'
p98
I9
ssI8
(dp99
S'iters'
p100
I5
sS'meta'
p101
(lp102
(dp103
S'objective'
p104
I236
sS'query_time'
p105
F0.06613016128540039
sS'comp_time'
p106
F0.03272104263305664
sS'exec_cq'
p107
I14
sS'total_cq'
p108
I27
sa(dp109
g104
I299
sg105
F4.601478576660156e-05
sg106
F0.00027179718017578125
sg107
I9
sg108
I22
sa(dp110
g104
I235
sg105
F0.07645297050476074
sg106
F0.0005559921264648438
sg107
I21
sg108
I21
sa(dp111
g104
I265
sg105
F0.00012612342834472656
sg106
F0.0001850128173828125
sg107
I18
sg108
I18
sa(dp112
g104
I265
sg105
F6.198883056640625e-05
sg106
F9.5367431640625e-05
sg107
I17
sg108
I17
sasS'total_cqs'
p113
I27
ssI9
(dp114
S'iters'
p115
I3
sS'meta'
p116
(lp117
(dp118
S'objective'
p119
I2
sS'query_time'
p120
F0.06748008728027344
sS'comp_time'
p121
F0.005190849304199219
sS'exec_cq'
p122
I7
sS'total_cq'
p123
I7
sa(dp124
g119
I1
sg120
F3.409385681152344e-05
sg121
F0.00025081634521484375
sg122
I4
sg123
I4
sa(dp125
g119
I5
sg120
F1.5974044799804688e-05
sg121
F8.511543273925781e-05
sg122
I2
sg123
I2
sasS'total_cqs'
p126
I7
ssI10
(dp127
S'iters'
p128
I8
sS'meta'
p129
(lp130
(dp131
S'objective'
p132
I568
sS'query_time'
p133
F0.2016608715057373
sS'comp_time'
p134
F0.09467816352844238
sS'exec_cq'
p135
I28
sS'total_cq'
p136
I51
sa(dp137
g132
I255
sg133
F0.22247314453125
sg134
F0.0017974376678466797
sg135
I23
sg136
I37
sa(dp138
g132
I287
sg133
F0.0002110004425048828
sg134
F0.0011911392211914062
sg135
I14
sg136
I25
sa(dp139
g132
I322
sg133
F4.601478576660156e-05
sg134
F0.0002269744873046875
sg135
I10
sg136
I21
sa(dp140
g132
I343
sg133
F3.600120544433594e-05
sg134
F0.00012302398681640625
sg135
I8
sg136
I19
sa(dp141
g132
I299
sg133
F5.91278076171875e-05
sg134
F0.00018167495727539062
sg135
I11
sg136
I18
sa(dp142
g132
I2
sg133
F0.0014739036560058594
sg134
F0.0002930164337158203
sg135
I3
sg136
I3
sa(dp143
g132
I13
sg133
F1.6927719116210938e-05
sg134
F8.726119995117188e-05
sg135
I2
sg136
I2
sasS'total_cqs'
p144
I51
ssI11
(dp145
S'iters'
p146
I7
sS'meta'
p147
(lp148
(dp149
S'objective'
p150
I998
sS'query_time'
p151
F0.5705649852752686
sS'comp_time'
p152
F0.18974614143371582
sS'exec_cq'
p153
I63
sS'total_cq'
p154
I63
sa(dp155
g150
I937
sg151
F0.0011479854583740234
sg152
F0.0064258575439453125
sg153
I47
sg154
I47
sa(dp156
g150
I868
sg151
F0.0006229877471923828
sg152
F0.004081010818481445
sg153
I40
sg154
I40
sa(dp157
g150
I847
sg151
F0.0004899501800537109
sg152
F0.0030260086059570312
sg153
I35
sg154
I35
sa(dp158
g150
I31
sg151
F0.0014128684997558594
sg152
F0.0009341239929199219
sg153
I5
sg154
I5
sa(dp159
g150
I18
sg151
F2.09808349609375e-05
sg152
F0.000102996826171875
sg153
I3
sg154
I3
sa(dp160
g150
I6
sg151
F1.6927719116210938e-05
sg152
F0.0001399517059326172
sg153
I2
sg154
I2
sasS'total_cqs'
p161
I63
ssI12
(dp162
S'iters'
p163
I6
sS'meta'
p164
(lp165
(dp166
S'objective'
p167
I375
sS'query_time'
p168
F0.17181801795959473
sS'comp_time'
p169
F0.08402490615844727
sS'exec_cq'
p170
I28
sS'total_cq'
p171
I50
sa(dp172
g167
I417
sg168
F0.15912699699401855
sg169
F0.0028421878814697266
sg170
I22
sg171
I33
sa(dp173
g167
I2
sg168
F0.0012760162353515625
sg169
F0.0017199516296386719
sg170
I8
sg171
I8
sa(dp174
g167
I17
sg168
F4.7206878662109375e-05
sg169
F0.0002231597900390625
sg170
I5
sg171
I5
sa(dp175
g167
I12
sg168
F3.0994415283203125e-05
sg169
F0.0001628398895263672
sg170
I3
sg171
I3
sa(dp176
g167
I13
sg168
F1.7881393432617188e-05
sg169
F9.322166442871094e-05
sg170
I2
sg171
I2
sasS'total_cqs'
p177
I50
ssI13
(dp178
S'iters'
p179
I4
sS'meta'
p180
(lp181
(dp182
S'objective'
p183
I18
sS'query_time'
p184
F0.14487791061401367
sS'comp_time'
p185
F0.027125835418701172
sS'exec_cq'
p186
I20
sS'total_cq'
p187
I20
sa(dp188
g183
I12
sg184
F0.002140045166015625
sg185
F0.0006327629089355469
sg186
I11
sg187
I11
sa(dp189
g183
I9
sg184
F3.2901763916015625e-05
sg185
F0.0001919269561767578
sg186
I5
sg187
I5
sa(dp190
g183
I19
sg184
F1.3828277587890625e-05
sg185
F8.559226989746094e-05
sg186
I2
sg187
I2
sasS'total_cqs'
p191
I20
ssI14
(dp192
S'iters'
p193
I3
sS'meta'
p194
(lp195
(dp196
S'objective'
p197
I1
sS'query_time'
p198
F34.31002616882324
sS'comp_time'
p199
F1.6253767013549805
sS'exec_cq'
p200
I9
sS'total_cq'
p201
I9
sa(dp202
g197
I5
sg198
F0.21903514862060547
sg199
F1.0259408950805664
sg200
I5
sg201
I5
sa(dp203
g197
I7
sg198
F0.22126007080078125
sg199
F1.116084098815918
sg200
I2
sg201
I2
sasS'total_cqs'
p204
I9
ssI15
(dp205
S'iters'
p206
I3
sS'meta'
p207
(lp208
(dp209
S'objective'
p210
I0
sS'query_time'
p211
F3.5761868953704834
sS'comp_time'
p212
F0.2969493865966797
sS'exec_cq'
p213
I11
sS'total_cq'
p214
I11
sa(dp215
g210
I15
sg211
F0.0006999969482421875
sg212
F0.004269838333129883
sg213
I6
sg214
I6
sa(dp216
g210
I7
sg211
F0.0004181861877441406
sg212
F0.0034456253051757812
sg213
I2
sg214
I2
sasS'total_cqs'
p217
I11
ssI16
(dp218
S'iters'
p219
I1
sS'meta'
p220
(lp221
(dp222
S'objective'
p223
I34
sS'query_time'
p224
F0.04198098182678223
sS'comp_time'
p225
F0.004083156585693359
sS'exec_cq'
p226
I8
sS'total_cq'
p227
I8
sasS'total_cqs'
p228
I8
ssI17
(dp229
S'iters'
p230
I5
sS'meta'
p231
(lp232
(dp233
S'objective'
p234
I2
sS'query_time'
p235
F0.915816068649292
sS'comp_time'
p236
F0.04595303535461426
sS'exec_cq'
p237
I11
sS'total_cq'
p238
I11
sa(dp239
g234
I16
sg235
F0.00019311904907226562
sg236
F0.0012187957763671875
sg237
I6
sg238
I6
sa(dp240
g234
I16
sg235
F0.000164031982421875
sg236
F0.0010809898376464844
sg237
I5
sg238
I5
sa(dp241
g234
I14
sg235
F0.00019407272338867188
sg236
F0.0009839534759521484
sg237
I4
sg238
I4
sa(dp242
g234
I1
sg235
F0.00013685226440429688
sg236
F0.001132965087890625
sg237
I2
sg238
I2
sasS'total_cqs'
p243
I11
ssI18
(dp244
S'iters'
p245
I2
sS'meta'
p246
(lp247
(dp248
S'objective'
p249
I62
sS'query_time'
p250
F0.24774909019470215
sS'comp_time'
p251
F0.022585153579711914
sS'exec_cq'
p252
I11
sS'total_cq'
p253
I11
sa(dp254
g249
I62
sg250
F0.0011501312255859375
sg251
F0.0010497570037841797
sg252
I10
sg253
I10
sasS'total_cqs'
p255
I11
ssI19
(dp256
S'iters'
p257
I0
sS'meta'
p258
(lp259
sS'total_cqs'
p260
I1
ssI20
(dp261
S'iters'
p262
I0
sS'meta'
p263
(lp264
sS'total_cqs'
p265
I1
ssI21
(dp266
S'iters'
p267
I0
sS'meta'
p268
(lp269
sS'total_cqs'
p270
I1
ssI22
(dp271
S'iters'
p272
I1
sS'meta'
p273
(lp274
(dp275
S'objective'
p276
I169
sS'query_time'
p277
F0.5446979999542236
sS'comp_time'
p278
F0.028635025024414062
sS'exec_cq'
p279
I18
sS'total_cq'
p280
I18
sasS'total_cqs'
p281
I18
ssI23
(dp282
S'iters'
p283
I3
sS'meta'
p284
(lp285
(dp286
S'objective'
p287
I100
sS'query_time'
p288
F0.04054617881774902
sS'comp_time'
p289
F0.027363300323486328
sS'exec_cq'
p290
I8
sS'total_cq'
p291
I16
sa(dp292
g287
I96
sg288
F0.028446197509765625
sg289
F0.0004487037658691406
sg290
I8
sg291
I14
sa(dp293
g287
I105
sg288
F3.0994415283203125e-05
sg289
F0.00010037422180175781
sg290
I7
sg291
I13
sasS'total_cqs'
p294
I16
ssI24
(dp295
S'iters'
p296
I0
sS'meta'
p297
(lp298
sS'total_cqs'
p299
I1
ssI25
(dp300
S'iters'
p301
I0
sS'meta'
p302
(lp303
sS'total_cqs'
p304
I1
ssI26
(dp305
S'iters'
p306
I1
sS'meta'
p307
(lp308
(dp309
S'objective'
p310
I901
sS'query_time'
p311
F0.11936092376708984
sS'comp_time'
p312
F0.10991287231445312
sS'exec_cq'
p313
I42
sS'total_cq'
p314
I42
sasS'total_cqs'
p315
I42
ssI27
(dp316
S'iters'
p317
I4
sS'meta'
p318
(lp319
(dp320
S'objective'
p321
I287
sS'query_time'
p322
F23.00608491897583
sS'comp_time'
p323
F4.192615985870361
sS'exec_cq'
p324
I30
sS'total_cq'
p325
I30
sa(dp326
g321
I3
sg322
F0.5915210247039795
sg323
F3.597951889038086
sg324
I5
sg325
I5
sa(dp327
g321
I3
sg322
F0.4324328899383545
sg323
F3.025858163833618
sg324
I3
sg325
I3
sa(dp328
g321
I18
sg322
F0.06818413734436035
sg323
F0.832700252532959
sg324
I2
sg325
I2
sasS'total_cqs'
p329
I30
ssI28
(dp330
S'iters'
p331
I0
sS'meta'
p332
(lp333
sS'total_cqs'
p334
I1
ssI29
(dp335
S'iters'
p336
I6
sS'meta'
p337
(lp338
(dp339
S'objective'
p340
I379
sS'query_time'
p341
F29.482818126678467
sS'comp_time'
p342
F0.640167236328125
sS'exec_cq'
p343
I35
sS'total_cq'
p344
I49
sa(dp345
g340
I13
sg341
F0.07384204864501953
sg342
F0.44304680824279785
sg343
I16
sg344
I16
sa(dp346
g340
I1
sg341
F0.034497976303100586
sg342
F0.1987779140472412
sg343
I10
sg344
I10
sa(dp347
g340
I0
sg341
F0.0038030147552490234
sg342
F0.015855073928833008
sg343
I5
sg344
I5
sa(dp348
g340
I39
sg341
F0.0017049312591552734
sg342
F0.01145315170288086
sg343
I3
sg344
I3
sa(dp349
g340
I4
sg341
F0.09300088882446289
sg342
F0.009421110153198242
sg343
I2
sg344
I2
sasS'total_cqs'
p350
I49
ssI30
(dp351
S'iters'
p352
I1
sS'meta'
p353
(lp354
(dp355
S'objective'
p356
I1
sS'query_time'
p357
F0.6230340003967285
sS'comp_time'
p358
F0.04054522514343262
sS'exec_cq'
p359
I2
sS'total_cq'
p360
I2
sasS'total_cqs'
p361
I2
ssI31
(dp362
S'iters'
p363
I0
sS'meta'
p364
(lp365
sS'total_cqs'
p366
I1
ssI32
(dp367
S'iters'
p368
I1
sS'meta'
p369
(lp370
(dp371
S'objective'
p372
I1
sS'query_time'
p373
F0.013741016387939453
sS'comp_time'
p374
F0.0057909488677978516
sS'exec_cq'
p375
I2
sS'total_cq'
p376
I2
sasS'total_cqs'
p377
I2
ssI33
(dp378
S'iters'
p379
I6
sS'meta'
p380
(lp381
(dp382
S'objective'
p383
I3726
sS'query_time'
p384
F16.308298110961914
sS'comp_time'
p385
F0.9803438186645508
sS'exec_cq'
p386
I103
sS'total_cq'
p387
I103
sa(dp388
g383
I49
sg384
F0.008018970489501953
sg385
F0.24409008026123047
sg386
I16
sg387
I16
sa(dp389
g383
I10
sg384
F0.0035250186920166016
sg385
F0.0162353515625
sg386
I9
sg387
I9
sa(dp390
g383
I25
sg384
F0.0026090145111083984
sg385
F0.010393619537353516
sg386
I6
sg387
I6
sa(dp391
g383
I0
sg384
F0.0008640289306640625
sg385
F0.004733085632324219
sg386
I3
sg387
I3
sa(dp392
g383
I47
sg384
F0.0002319812774658203
sg385
F0.0017478466033935547
sg386
I2
sg387
I2
sasS'total_cqs'
p393
I103
ssI34
(dp394
S'iters'
p395
I1
sS'meta'
p396
(lp397
(dp398
S'objective'
p399
I1
sS'query_time'
p400
F0.015668153762817383
sS'comp_time'
p401
F0.0021898746490478516
sS'exec_cq'
p402
I2
sS'total_cq'
p403
I2
sasS'total_cqs'
p404
I2
ssI35
(dp405
S'iters'
p406
I7
sS'meta'
p407
(lp408
(dp409
S'objective'
p410
I1555
sS'query_time'
p411
F22.80621600151062
sS'comp_time'
p412
F0.2620975971221924
sS'exec_cq'
p413
I50
sS'total_cq'
p414
I70
sa(dp415
g410
I1640
sg411
F0.18512487411499023
sg412
F0.011748313903808594
sg413
I37
sg414
I57
sa(dp416
g410
I1570
sg411
F0.0011088848114013672
sg412
F0.006505012512207031
sg413
I32
sg414
I52
sa(dp417
g410
I1534
sg411
F0.0006670951843261719
sg412
F0.0045528411865234375
sg413
I30
sg414
I50
sa(dp418
g410
I5
sg411
F0.0005888938903808594
sg412
F0.004081010818481445
sg413
I5
sg414
I5
sa(dp419
g410
I18
sg411
F0.0005080699920654297
sg412
F0.003072023391723633
sg413
I3
sg414
I3
sa(dp420
g410
I11
sg411
F0.00038504600524902344
sg412
F0.0028290748596191406
sg413
I2
sg414
I2
sasS'total_cqs'
p421
I70
ssI36
(dp422
S'iters'
p423
I2
sS'meta'
p424
(lp425
(dp426
S'objective'
p427
I381
sS'query_time'
p428
F0.7577469348907471
sS'comp_time'
p429
F0.1493511199951172
sS'exec_cq'
p430
I33
sS'total_cq'
p431
I33
sa(dp432
g427
I469
sg428
F0.004670143127441406
sg429
F0.008973836898803711
sg430
I28
sg431
I29
sasS'total_cqs'
p433
I33
ssI37
(dp434
S'iters'
p435
I1
sS'meta'
p436
(lp437
(dp438
S'objective'
p439
I1
sS'query_time'
p440
F0.008435964584350586
sS'comp_time'
p441
F0.0012760162353515625
sS'exec_cq'
p442
I2
sS'total_cq'
p443
I2
sasS'total_cqs'
p444
I2
ssI38
(dp445
S'iters'
p446
I2
sS'meta'
p447
(lp448
(dp449
S'objective'
p450
I0
sS'query_time'
p451
F0.023553133010864258
sS'comp_time'
p452
F0.0034227371215820312
sS'exec_cq'
p453
I4
sS'total_cq'
p454
I4
sa(dp455
g450
I3
sg451
F6.794929504394531e-05
sg452
F0.00043320655822753906
sg453
I2
sg454
I2
sasS'total_cqs'
p456
I4
ssI39
(dp457
S'iters'
p458
I2
sS'meta'
p459
(lp460
(dp461
S'objective'
p462
I668
sS'query_time'
p463
F0.1487269401550293
sS'comp_time'
p464
F0.17573237419128418
sS'exec_cq'
p465
I44
sS'total_cq'
p466
I44
sa(dp467
g462
I827
sg463
F0.0004398822784423828
sg464
F0.0023620128631591797
sg465
I37
sg466
I37
sasS'total_cqs'
p468
I44
ssI40
(dp469
S'iters'
p470
I1
sS'meta'
p471
(lp472
(dp473
S'objective'
p474
I26
sS'query_time'
p475
F0.0382390022277832
sS'comp_time'
p476
F0.006243228912353516
sS'exec_cq'
p477
I7
sS'total_cq'
p478
I7
sasS'total_cqs'
p479
I7
ssI41
(dp480
S'iters'
p481
I2
sS'meta'
p482
(lp483
(dp484
S'objective'
p485
I56
sS'query_time'
p486
F0.09564399719238281
sS'comp_time'
p487
F0.0811920166015625
sS'exec_cq'
p488
I12
sS'total_cq'
p489
I12
sa(dp490
g485
I65
sg486
F7.700920104980469e-05
sg487
F0.00019097328186035156
sg488
I11
sg489
I11
sasS'total_cqs'
p491
I12
ssI42
(dp492
S'iters'
p493
I2
sS'meta'
p494
(lp495
(dp496
S'objective'
p497
I809
sS'query_time'
p498
F0.05387306213378906
sS'comp_time'
p499
F0.14251065254211426
sS'exec_cq'
p500
I21
sS'total_cq'
p501
I41
sa(dp502
g497
I833
sg498
F8.392333984375e-05
sg499
F0.00020194053649902344
sg500
I20
sg501
I40
sasS'total_cqs'
p503
I41
ssI43
(dp504
S'iters'
p505
I1
sS'meta'
p506
(lp507
(dp508
S'objective'
p509
I26
sS'query_time'
p510
F0.08517599105834961
sS'comp_time'
p511
F0.006206989288330078
sS'exec_cq'
p512
I7
sS'total_cq'
p513
I7
sasS'total_cqs'
p514
I7
ssI44
(dp515
S'iters'
p516
I4
sS'meta'
p517
(lp518
(dp519
S'objective'
p520
I808
sS'query_time'
p521
F0.14314889907836914
sS'comp_time'
p522
F0.09965801239013672
sS'exec_cq'
p523
I47
sS'total_cq'
p524
I47
sa(dp525
g520
I868
sg521
F0.00028514862060546875
sg522
F0.0016980171203613281
sg523
I40
sg524
I40
sa(dp526
g520
I6
sg521
F0.001394033432006836
sg522
F0.0019445419311523438
sg523
I3
sg524
I3
sa(dp527
g520
I20
sg521
F0.00011181831359863281
sg522
F0.0007150173187255859
sg523
I2
sg524
I2
sasS'total_cqs'
p528
I47
ssI45
(dp529
S'iters'
p530
I0
sS'meta'
p531
(lp532
sS'total_cqs'
p533
I1
ssI46
(dp534
S'iters'
p535
I3
sS'meta'
p536
(lp537
(dp538
S'objective'
p539
I9
sS'query_time'
p540
F0.014054059982299805
sS'comp_time'
p541
F0.002630949020385742
sS'exec_cq'
p542
I4
sS'total_cq'
p543
I6
sa(dp544
g539
I9
sg540
F0.005315065383911133
sg541
F0.000308990478515625
sg542
I5
sg543
I5
sa(dp545
g539
I10
sg540
F2.47955322265625e-05
sg541
F7.653236389160156e-05
sg542
I4
sg543
I4
sasS'total_cqs'
p546
I6
ssI47
(dp547
S'iters'
p548
I1
sS'meta'
p549
(lp550
(dp551
S'objective'
p552
I1
sS'query_time'
p553
F0.01350092887878418
sS'comp_time'
p554
F0.0012598037719726562
sS'exec_cq'
p555
I2
sS'total_cq'
p556
I2
sasS'total_cqs'
p557
I2
ssI48
(dp558
S'iters'
p559
I0
sS'meta'
p560
(lp561
sS'total_cqs'
p562
I1
ssI49
(dp563
S'iters'
p564
I0
sS'meta'
p565
(lp566
sS'total_cqs'
p567
I1
ssI50
(dp568
S'iters'
p569
I4
sS'meta'
p570
(lp571
(dp572
S'objective'
p573
I5
sS'query_time'
p574
F0.0527348518371582
sS'comp_time'
p575
F0.0021026134490966797
sS'exec_cq'
p576
I5
sS'total_cq'
p577
I5
sa(dp578
g573
I2
sg574
F2.7894973754882812e-05
sg575
F0.0001418590545654297
sg576
I4
sg577
I4
sa(dp579
g573
I0
sg574
F2.193450927734375e-05
sg575
F0.0001010894775390625
sg576
I3
sg577
I3
sa(dp580
g573
I1
sg574
F1.7881393432617188e-05
sg575
F9.799003601074219e-05
sg576
I2
sg577
I2
sasS'total_cqs'
p581
I5
ssI51
(dp582
S'iters'
p583
I1
sS'meta'
p584
(lp585
(dp586
S'objective'
p587
I1
sS'query_time'
p588
F0.011240005493164062
sS'comp_time'
p589
F0.002680063247680664
sS'exec_cq'
p590
I2
sS'total_cq'
p591
I2
sasS'total_cqs'
p592
I2
ssI52
(dp593
S'iters'
p594
I1
sS'meta'
p595
(lp596
(dp597
S'objective'
p598
I1
sS'query_time'
p599
F0.014646053314208984
sS'comp_time'
p600
F0.0013530254364013672
sS'exec_cq'
p601
I2
sS'total_cq'
p602
I2
sasS'total_cqs'
p603
I2
ssI53
(dp604
S'iters'
p605
I2
sS'meta'
p606
(lp607
(dp608
S'objective'
p609
I2
sS'query_time'
p610
F0.10002398490905762
sS'comp_time'
p611
F0.004079103469848633
sS'exec_cq'
p612
I4
sS'total_cq'
p613
I4
sa(dp614
g609
I2
sg610
F0.00010013580322265625
sg611
F0.0006761550903320312
sg612
I2
sg613
I2
sasS'total_cqs'
p615
I4
ssI54
(dp616
S'iters'
p617
I2
sS'meta'
p618
(lp619
(dp620
S'objective'
p621
I0
sS'query_time'
p622
F0.011469125747680664
sS'comp_time'
p623
F0.0017709732055664062
sS'exec_cq'
p624
I3
sS'total_cq'
p625
I3
sa(dp626
g621
I1
sg622
F4.38690185546875e-05
sg623
F0.00026607513427734375
sg624
I2
sg625
I2
sasS'total_cqs'
p627
I3
ssI55
(dp628
S'iters'
p629
I9
sS'meta'
p630
(lp631
(dp632
S'objective'
p633
I4951
sS'query_time'
p634
F2.6210179328918457
sS'comp_time'
p635
F0.6492290496826172
sS'exec_cq'
p636
I109
sS'total_cq'
p637
I109
sa(dp638
g633
I4941
sg634
F0.0009810924530029297
sg635
F0.0041997432708740234
sg636
I97
sg637
I97
sa(dp639
g633
I4731
sg634
F0.0007758140563964844
sg635
F0.002958059310913086
sg636
I93
sg637
I93
sa(dp640
g633
I4615
sg634
F0.00040793418884277344
sg635
F0.001987457275390625
sg636
I87
sg637
I87
sa(dp641
g633
I4534
sg634
F0.0003998279571533203
sg635
F0.0013689994812011719
sg636
I85
sg637
I85
sa(dp642
g633
I4527
sg634
F0.0003459453582763672
sg635
F0.001176595687866211
sg636
I83
sg637
I83
sa(dp643
g633
I4509
sg634
F0.0003428459167480469
sg635
F0.0010449886322021484
sg636
I81
sg637
I81
sa(dp644
g633
I4532
sg634
F0.00033783912658691406
sg635
F0.0008130073547363281
sg636
I80
sg637
I80
sa(dp645
g633
I4540
sg634
F0.0003020763397216797
sg635
F0.0007150173187255859
sg636
I79
sg637
I79
sasS'total_cqs'
p646
I109
ssI56
(dp647
S'iters'
p648
I6
sS'meta'
p649
(lp650
(dp651
S'objective'
p652
I1718
sS'query_time'
p653
F1.5506439208984375
sS'comp_time'
p654
F0.23562335968017578
sS'exec_cq'
p655
I67
sS'total_cq'
p656
I76
sa(dp657
g652
I14
sg653
F0.006968975067138672
sg654
F0.14363956451416016
sg655
I16
sg656
I16
sa(dp658
g652
I9
sg653
F0.004023075103759766
sg654
F0.013659000396728516
sg655
I9
sg656
I9
sa(dp659
g652
I17
sg653
F0.002252817153930664
sg654
F0.009360074996948242
sg655
I6
sg656
I6
sa(dp660
g652
I1
sg653
F0.0011548995971679688
sg654
F0.0062978267669677734
sg655
I4
sg656
I4
sa(dp661
g652
I33
sg653
F0.00013303756713867188
sg654
F0.001016855239868164
sg655
I2
sg656
I2
sasS'total_cqs'
p662
I76
ssI57
(dp663
S'iters'
p664
I6
sS'meta'
p665
(lp666
(dp667
S'objective'
p668
I114
sS'query_time'
p669
F23.746940851211548
sS'comp_time'
p670
F0.48149967193603516
sS'exec_cq'
p671
I45
sS'total_cq'
p672
I51
sa(dp673
g668
I28
sg669
F0.015548944473266602
sg670
F0.03446197509765625
sg671
I27
sg672
I27
sa(dp674
g668
I12
sg669
F0.01147317886352539
sg670
F0.024810075759887695
sg671
I11
sg672
I11
sa(dp675
g668
I5
sg669
F0.0020558834075927734
sg670
F0.0066318511962890625
sg671
I6
sg672
I6
sa(dp676
g668
I0
sg669
F0.0010471343994140625
sg670
F0.004787921905517578
sg671
I3
sg672
I3
sa(dp677
g668
I45
sg669
F0.0002930164337158203
sg670
F0.0022351741790771484
sg671
I2
sg672
I2
sasS'total_cqs'
p678
I51
ssI58
(dp679
S'iters'
p680
I8
sS'meta'
p681
(lp682
(dp683
S'objective'
p684
I81975
sS'query_time'
p685
F116.36820197105408
sS'comp_time'
p686
F18.867690324783325
sS'exec_cq'
p687
I348
sS'total_cq'
p688
I486
sa(dp689
g684
I87074
sg685
F0.039919137954711914
sg686
F1.959001064300537
sg687
I276
sg688
I414
sa(dp690
g684
I58
sg685
F0.0159909725189209
sg686
F0.08687090873718262
sg687
I28
sg688
I28
sa(dp691
g684
I0
sg685
F0.012605905532836914
sg686
F0.02672290802001953
sg687
I15
sg688
I15
sa(dp692
g684
I26
sg685
F0.004086017608642578
sg686
F0.011581897735595703
sg687
I9
sg688
I9
sa(dp693
g684
I12
sg685
F0.0024161338806152344
sg686
F0.00791788101196289
sg687
I5
sg688
I5
sa(dp694
g684
I70
sg685
F0.0011470317840576172
sg686
F0.005603313446044922
sg687
I4
sg688
I4
sa(dp695
g684
I163
sg685
F0.0005078315734863281
sg686
F0.0029740333557128906
sg687
I2
sg688
I2
sasS'total_cqs'
p696
I486
ssI59
(dp697
S'iters'
p698
I2
sS'meta'
p699
(lp700
(dp701
S'objective'
p702
I20
sS'query_time'
p703
F0.0487210750579834
sS'comp_time'
p704
F0.01671004295349121
sS'exec_cq'
p705
I7
sS'total_cq'
p706
I7
sa(dp707
g702
I2
sg703
F0.00017189979553222656
sg704
F0.00115203857421875
sg705
I2
sg706
I2
sasS'total_cqs'
p708
I7
ssI60
(dp709
S'iters'
p710
I3
sS'meta'
p711
(lp712
(dp713
S'objective'
p714
I7
sS'query_time'
p715
F0.011445999145507812
sS'comp_time'
p716
F0.003078937530517578
sS'exec_cq'
p717
I2
sS'total_cq'
p718
I5
sa(dp719
g714
I7
sg715
F0.005564212799072266
sg716
F0.000186920166015625
sg717
I3
sg718
I4
sa(dp720
g714
I7
sg715
F4.506111145019531e-05
sg716
F0.000133514404296875
sg717
I2
sg718
I3
sasS'total_cqs'
p721
I5
ssI61
(dp722
S'iters'
p723
I0
sS'meta'
p724
(lp725
sS'total_cqs'
p726
I1
ssI62
(dp727
S'iters'
p728
I3
sS'meta'
p729
(lp730
(dp731
S'objective'
p732
I48
sS'query_time'
p733
F0.24054503440856934
sS'comp_time'
p734
F0.02100825309753418
sS'exec_cq'
p735
I12
sS'total_cq'
p736
I12
sa(dp737
g732
I57
sg733
F4.100799560546875e-05
sg734
F0.00014972686767578125
sg735
I9
sg736
I9
sa(dp738
g732
I58
sg733
F3.600120544433594e-05
sg734
F9.226799011230469e-05
sg735
I8
sg736
I8
sasS'total_cqs'
p739
I12
ssI63
(dp740
S'iters'
p741
I0
sS'meta'
p742
(lp743
sS'total_cqs'
p744
I1
ssI64
(dp745
S'iters'
p746
I4
sS'meta'
p747
(lp748
(dp749
S'objective'
p750
I36
sS'query_time'
p751
F0.1206660270690918
sS'comp_time'
p752
F0.022798538208007812
sS'exec_cq'
p753
I12
sS'total_cq'
p754
I12
sa(dp755
g750
I1
sg751
F0.00023698806762695312
sg752
F0.0014088153839111328
sg753
I4
sg754
I4
sa(dp756
g750
I1
sg751
F9.703636169433594e-05
sg752
F0.0005099773406982422
sg753
I3
sg754
I3
sa(dp757
g750
I3
sg751
F6.914138793945312e-05
sg752
F0.00037097930908203125
sg753
I2
sg754
I2
sasS'total_cqs'
p758
I12
ssI65
(dp759
S'iters'
p760
I4
sS'meta'
p761
(lp762
(dp763
S'objective'
p764
I210
sS'query_time'
p765
F0.7588088512420654
sS'comp_time'
p766
F0.281109094619751
sS'exec_cq'
p767
I27
sS'total_cq'
p768
I27
sa(dp769
g764
I0
sg765
F0.0017549991607666016
sg766
F0.007487773895263672
sg767
I7
sg768
I7
sa(dp770
g764
I0
sg765
F0.00021600723266601562
sg766
F0.0012869834899902344
sg767
I3
sg768
I3
sa(dp771
g764
I19
sg765
F0.00011897087097167969
sg766
F0.0007975101470947266
sg767
I2
sg768
I2
sasS'total_cqs'
p772
I27
ssI66
(dp773
S'iters'
p774
I0
sS'meta'
p775
(lp776
sS'total_cqs'
p777
I1
ssI67
(dp778
S'iters'
p779
I2
sS'meta'
p780
(lp781
(dp782
S'objective'
p783
I604
sS'query_time'
p784
F1.0938818454742432
sS'comp_time'
p785
F0.1606919765472412
sS'exec_cq'
p786
I35
sS'total_cq'
p787
I35
sa(dp788
g783
I11
sg784
F0.001622915267944336
sg785
F0.0077419281005859375
sg786
I2
sg787
I2
sasS'total_cqs'
p789
I35
ssI68
(dp790
S'iters'
p791
I0
sS'meta'
p792
(lp793
sS'total_cqs'
p794
I1
ssI69
(dp795
S'iters'
p796
I1
sS'meta'
p797
(lp798
(dp799
S'objective'
p800
I1324
sS'query_time'
p801
F0.22251200675964355
sS'comp_time'
p802
F0.10918807983398438
sS'exec_cq'
p803
I51
sS'total_cq'
p804
I51
sasS'total_cqs'
p805
I51
ssI70
(dp806
S'iters'
p807
I4
sS'meta'
p808
(lp809
(dp810
S'objective'
p811
I9
sS'query_time'
p812
F0.022532939910888672
sS'comp_time'
p813
F0.002917051315307617
sS'exec_cq'
p814
I6
sS'total_cq'
p815
I6
sa(dp816
g811
I7
sg812
F6.508827209472656e-05
sg813
F0.0003077983856201172
sg814
I5
sg815
I5
sa(dp817
g811
I7
sg812
F4.00543212890625e-05
sg813
F0.00046062469482421875
sg814
I4
sg815
I4
sa(dp818
g811
I7
sg812
F3.886222839355469e-05
sg813
F0.00020313262939453125
sg814
I3
sg815
I3
sasS'total_cqs'
p819
I6
ssI71
(dp820
S'iters'
p821
I5
sS'meta'
p822
(lp823
(dp824
S'objective'
p825
I3203
sS'query_time'
p826
F0.26115918159484863
sS'comp_time'
p827
F0.4143240451812744
sS'exec_cq'
p828
I73
sS'total_cq'
p829
I85
sa(dp830
g825
I3089
sg826
F0.00032901763916015625
sg827
F0.001373291015625
sg828
I69
sg829
I81
sa(dp831
g825
I2985
sg826
F0.0002741813659667969
sg827
F0.0011508464813232422
sg828
I65
sg829
I77
sa(dp832
g825
I1
sg826
F0.0025811195373535156
sg827
F0.003398895263671875
sg828
I3
sg829
I3
sa(dp833
g825
I66
sg826
F0.003401041030883789
sg827
F0.00023508071899414062
sg828
I2
sg829
I2
sasS'total_cqs'
p834
I85
ssI72
(dp835
S'iters'
p836
I5
sS'meta'
p837
(lp838
(dp839
S'objective'
p840
I8
sS'query_time'
p841
F0.031539201736450195
sS'comp_time'
p842
F0.0031461715698242188
sS'exec_cq'
p843
I4
sS'total_cq'
p844
I8
sa(dp845
g840
I0
sg841
F6.4849853515625e-05
sg842
F0.0002830028533935547
sg843
I2
sg844
I6
sa(dp846
g840
I1
sg841
F0.2596879005432129
sg842
F0.0031092166900634766
sg843
I4
sg844
I4
sa(dp847
g840
I0
sg841
F0.00030493736267089844
sg842
F0.0025377273559570312
sg843
I3
sg844
I3
sa(dp848
g840
I1
sg841
F4.1961669921875e-05
sg842
F0.000244140625
sg843
I2
sg844
I2
sasS'total_cqs'
p849
I8
ssI73
(dp850
S'iters'
p851
I0
sS'meta'
p852
(lp853
sS'total_cqs'
p854
I1
ssI74
(dp855
S'iters'
p856
I0
sS'meta'
p857
(lp858
sS'total_cqs'
p859
I1
ssI75
(dp860
S'iters'
p861
I4
sS'meta'
p862
(lp863
(dp864
S'objective'
p865
I5
sS'query_time'
p866
F0.01818704605102539
sS'comp_time'
p867
F0.0021352767944335938
sS'exec_cq'
p868
I5
sS'total_cq'
p869
I5
sa(dp870
g865
I2
sg866
F2.6941299438476562e-05
sg867
F0.0001201629638671875
sg868
I4
sg869
I4
sa(dp871
g865
I0
sg866
F2.09808349609375e-05
sg867
F9.298324584960938e-05
sg868
I3
sg869
I3
sa(dp872
g865
I1
sg866
F1.6927719116210938e-05
sg867
F8.296966552734375e-05
sg868
I2
sg869
I2
sasS'total_cqs'
p873
I5
ssI76
(dp874
S'iters'
p875
I1
sS'meta'
p876
(lp877
(dp878
S'objective'
p879
I1
sS'query_time'
p880
F0.01058197021484375
sS'comp_time'
p881
F0.0009469985961914062
sS'exec_cq'
p882
I2
sS'total_cq'
p883
I2
sasS'total_cqs'
p884
I2
ssI77
(dp885
S'iters'
p886
I0
sS'meta'
p887
(lp888
sS'total_cqs'
p889
I1
ssI78
(dp890
S'iters'
p891
I0
sS'meta'
p892
(lp893
sS'total_cqs'
p894
I1
ssI103
(dp895
S'iters'
p896
I2
sS'meta'
p897
(lp898
(dp899
S'objective'
p900
I68
sS'query_time'
p901
F0.053601980209350586
sS'comp_time'
p902
F0.01801586151123047
sS'exec_cq'
p903
I12
sS'total_cq'
p904
I12
sa(dp905
g900
I71
sg901
F5.888938903808594e-05
sg902
F0.0001800060272216797
sg903
I11
sg904
I11
sasS'total_cqs'
p906
I12
ssI104
(dp907
S'iters'
p908
I2
sS'meta'
p909
(lp910
(dp911
S'objective'
p912
I2
sS'query_time'
p913
F1.2885279655456543
sS'comp_time'
p914
F0.24052977561950684
sS'exec_cq'
p915
I4
sS'total_cq'
p916
I4
sa(dp917
g912
I2
sg913
F0.01116800308227539
sg914
F0.17967581748962402
sg915
I2
sg916
I2
sasS'total_cqs'
p918
I4
ssI105
(dp919
S'iters'
p920
I0
sS'meta'
p921
(lp922
sS'total_cqs'
p923
I1
ssI106
(dp924
S'iters'
p925
I1
sS'meta'
p926
(lp927
(dp928
S'objective'
p929
I8
sS'query_time'
p930
F0.021168947219848633
sS'comp_time'
p931
F0.0019447803497314453
sS'exec_cq'
p932
I4
sS'total_cq'
p933
I4
sasS'total_cqs'
p934
I4
ssI107
(dp935
S'iters'
p936
I2
sS'meta'
p937
(lp938
(dp939
S'objective'
p940
I92
sS'query_time'
p941
F0.08054304122924805
sS'comp_time'
p942
F0.08953380584716797
sS'exec_cq'
p943
I16
sS'total_cq'
p944
I16
sa(dp945
g940
I20
sg941
F0.005663871765136719
sg942
F0.0006000995635986328
sg943
I3
sg944
I3
sasS'total_cqs'
p946
I16
ssI108
(dp947
S'iters'
p948
I0
sS'meta'
p949
(lp950
sS'total_cqs'
p951
I1
ss.