(dp0
I1
(dp1
S'iters'
p2
I4
sS'meta'
p3
(lp4
(dp5
S'objective'
p6
I54
sS'query_time'
p7
F0.031790971755981445
sS'comp_time'
p8
F0.01787590980529785
sS'exec_cq'
p9
I12
sS'total_cq'
p10
I12
sa(dp11
g6
I44
sg7
F7.104873657226562e-05
sg8
F0.00025391578674316406
sg9
I11
sg10
I11
sa(dp12
g6
I47
sg7
F3.695487976074219e-05
sg8
F0.00012087821960449219
sg9
I9
sg10
I9
sa(dp13
g6
I49
sg7
F3.504753112792969e-05
sg8
F6.890296936035156e-05
sg9
I8
sg10
I8
sasS'total_cqs'
p14
I12
ssI2
(dp15
S'iters'
p16
I8
sS'meta'
p17
(lp18
(dp19
S'objective'
p20
I248
sS'query_time'
p21
F0.13152289390563965
sS'comp_time'
p22
F0.02881145477294922
sS'exec_cq'
p23
I27
sS'total_cq'
p24
I27
sa(dp25
g20
I199
sg21
F0.0001678466796875
sg22
F0.0008809566497802734
sg23
I24
sg24
I24
sa(dp26
g20
I200
sg21
F0.00010800361633300781
sg22
F0.0004341602325439453
sg23
I20
sg24
I20
sa(dp27
g20
I192
sg21
F0.00010514259338378906
sg22
F0.0002751350402832031
sg23
I18
sg24
I18
sa(dp28
g20
I174
sg21
F8.20159912109375e-05
sg22
F0.00018978118896484375
sg23
I17
sg24
I17
sa(dp29
g20
I158
sg21
F7.510185241699219e-05
sg22
F0.00017142295837402344
sg23
I15
sg24
I15
sa(dp30
g20
I159
sg21
F7.104873657226562e-05
sg22
F0.00011897087097167969
sg23
I14
sg24
I14
sa(dp31
g20
I165
sg21
F5.269050598144531e-05
sg22
F7.605552673339844e-05
sg23
I13
sg24
I13
sasS'total_cqs'
p32
I27
ssI3
(dp33
S'iters'
p34
I4
sS'meta'
p35
(lp36
(dp37
S'objective'
p38
I636
sS'query_time'
p39
F185.74500679969788
sS'comp_time'
p40
F1.3302960395812988
sS'exec_cq'
p41
I30
sS'total_cq'
p42
I43
sa(dp43
g38
I487
sg39
F0.5732958316802979
sg40
F1.242466926574707
sg41
I22
sg42
I35
sa(dp44
g38
I577
sg39
F54.13917112350464
sg40
F0.42597413063049316
sg41
I28
sg42
I28
sa(dp45
g38
I606
sg39
F0.0003478527069091797
sg40
F0.0001652240753173828
sg41
I25
sg42
I25
sasS'total_cqs'
p46
I43
ssI4
(dp47
S'iters'
p48
I2
sS'meta'
p49
(lp50
(dp51
S'objective'
p52
I52
sS'query_time'
p53
F4.885371923446655
sS'comp_time'
p54
F0.32030200958251953
sS'exec_cq'
p55
I11
sS'total_cq'
p56
I11
sa(dp57
g52
I5
sg53
F0.16849994659423828
sg54
F0.2524068355560303
sg55
I2
sg56
I2
sasS'total_cqs'
p58
I11
ssI5
(dp59
S'iters'
p60
I4
sS'meta'
p61
(lp62
(dp63
S'objective'
p64
I0
sS'query_time'
p65
F34.29395294189453
sS'comp_time'
p66
F2.2379472255706787
sS'exec_cq'
p67
I8
sS'total_cq'
p68
I8
sa(dp69
g64
I0
sg65
F0.33751988410949707
sg66
F0.6467189788818359
sg67
I5
sg68
I5
sa(dp70
g64
I1
sg65
F0.20669984817504883
sg66
F0.5075578689575195
sg67
I3
sg68
I3
sa(dp71
g64
I2
sg65
F0.205733060836792
sg66
F0.4941396713256836
sg67
I2
sg68
I2
sasS'total_cqs'
p72
I8
ssI6
(dp73
S'iters'
p74
I5
sS'meta'
p75
(lp76
(dp77
S'objective'
p78
I31
sS'query_time'
p79
F37.04046392440796
sS'comp_time'
p80
F1.5633747577667236
sS'exec_cq'
p81
I18
sS'total_cq'
p82
I18
sa(dp83
g78
I0
sg79
F0.6711010932922363
sg80
F1.3766820430755615
sg81
I7
sg82
I7
sa(dp84
g78
I1
sg79
F0.36718297004699707
sg80
F0.540194034576416
sg81
I4
sg82
I4
sa(dp85
g78
I12
sg79
F0.23366308212280273
sg80
F0.5476381778717041
sg81
I3
sg82
I3
sa(dp86
g78
I1
sg79
F0.010308027267456055
sg80
F0.017011404037475586
sg81
I2
sg82
I2
sasS'total_cqs'
p87
I18
ssI7
(dp88
S'iters'
p89
I4
sS'meta'
p90
(lp91
(dp92
S'objective'
p93
I1
sS'query_time'
p94
F12.19066596031189
sS'comp_time'
p95
F1.1214139461517334
sS'exec_cq'
p96
I9
sS'total_cq'
p97
I9
sa(dp98
g93
I1
sg94
F0.14668798446655273
sg95
F0.6903519630432129
sg96
I6
sg97
I6
sa(dp99
g93
I0
sg94
F0.12301301956176758
sg95
F0.25505518913269043
sg96
I4
sg97
I4
sa(dp100
g93
I4
sg94
F0.02782297134399414
sg95
F0.17776799201965332
sg96
I2
sg97
I2
sasS'total_cqs'
p101
I9
ssI8
(dp102
S'iters'
p103
I5
sS'meta'
p104
(lp105
(dp106
S'objective'
p107
I206
sS'query_time'
p108
F0.11561703681945801
sS'comp_time'
p109
F0.029853343963623047
sS'exec_cq'
p110
I27
sS'total_cq'
p111
I27
sa(dp112
g107
I246
sg108
F0.00018906593322753906
sg109
F0.0006279945373535156
sg110
I22
sg111
I22
sa(dp113
g107
I245
sg108
F8.58306884765625e-05
sg109
F0.00022792816162109375
sg110
I19
sg111
I19
sa(dp114
g107
I241
sg108
F8.392333984375e-05
sg109
F0.00014472007751464844
sg110
I18
sg111
I18
sa(dp115
g107
I247
sg108
F7.486343383789062e-05
sg109
F0.00010824203491210938
sg110
I17
sg111
I17
sasS'total_cqs'
p116
I27
ssI9
(dp117
S'iters'
p118
I3
sS'meta'
p119
(lp120
(dp121
S'objective'
p122
I6
sS'query_time'
p123
F0.04497885704040527
sS'comp_time'
p124
F0.005048990249633789
sS'exec_cq'
p125
I7
sS'total_cq'
p126
I7
sa(dp127
g122
I1
sg123
F3.600120544433594e-05
sg124
F0.00016689300537109375
sg125
I4
sg126
I4
sa(dp128
g122
I6
sg123
F0.0022749900817871094
sg124
F0.00012111663818359375
sg125
I2
sg126
I2
sasS'total_cqs'
p129
I7
ssI10
(dp130
S'iters'
p131
I6
sS'meta'
p132
(lp133
(dp134
S'objective'
p135
I660
sS'query_time'
p136
F0.32324695587158203
sS'comp_time'
p137
F0.08514022827148438
sS'exec_cq'
p138
I51
sS'total_cq'
p139
I51
sa(dp140
g135
I475
sg136
F0.000492095947265625
sg137
F0.003306865692138672
sg138
I37
sg139
I37
sa(dp141
g135
I452
sg136
F0.00020599365234375
sg137
F0.0013480186462402344
sg138
I25
sg139
I25
sa(dp142
g135
I417
sg136
F9.489059448242188e-05
sg137
F0.00039768218994140625
sg138
I21
sg139
I21
sa(dp143
g135
I6
sg136
F0.0012431144714355469
sg137
F0.00032711029052734375
sg138
I3
sg139
I3
sa(dp144
g135
I39
sg136
F1.5974044799804688e-05
sg137
F8.058547973632812e-05
sg138
I2
sg139
I2
sasS'total_cqs'
p145
I51
ssI11
(dp146
S'iters'
p147
I6
sS'meta'
p148
(lp149
(dp150
S'objective'
p151
I1016
sS'query_time'
p152
F0.5495049953460693
sS'comp_time'
p153
F0.1683504581451416
sS'exec_cq'
p154
I63
sS'total_cq'
p155
I63
sa(dp156
g151
I964
sg152
F0.001215219497680664
sg153
F0.004734992980957031
sg154
I47
sg155
I47
sa(dp157
g151
I56
sg152
F0.0016508102416992188
sg153
F0.003414630889892578
sg154
I9
sg155
I9
sa(dp158
g151
I0
sg152
F3.981590270996094e-05
sg153
F0.00023698806762695312
sg154
I5
sg155
I5
sa(dp159
g151
I43
sg152
F2.193450927734375e-05
sg153
F0.00012636184692382812
sg154
I3
sg155
I3
sa(dp160
g151
I18
sg152
F1.5020370483398438e-05
sg153
F0.0001251697540283203
sg154
I2
sg155
I2
sasS'total_cqs'
p161
I63
ssI12
(dp162
S'iters'
p163
I7
sS'meta'
p164
(lp165
(dp166
S'objective'
p167
I423
sS'query_time'
p168
F0.3461029529571533
sS'comp_time'
p169
F0.08716869354248047
sS'exec_cq'
p170
I50
sS'total_cq'
p171
I50
sa(dp172
g167
I313
sg168
F0.0004279613494873047
sg169
F0.0028905868530273438
sg170
I22
sg171
I33
sa(dp173
g167
I383
sg168
F0.00024080276489257812
sg169
F0.0009400844573974609
sg170
I26
sg171
I26
sa(dp174
g167
I324
sg168
F0.0002028942108154297
sg169
F0.0005891323089599609
sg170
I23
sg171
I23
sa(dp175
g167
I251
sg168
F0.0001289844512939453
sg169
F0.0005288124084472656
sg170
I21
sg171
I21
sa(dp176
g167
I28
sg168
F0.0015399456024169922
sg169
F0.0005910396575927734
sg170
I5
sg171
I5
sa(dp177
g167
I50
sg168
F2.6941299438476562e-05
sg169
F0.00011992454528808594
sg170
I3
sg171
I3
sasS'total_cqs'
p178
I50
ssI13
(dp179
S'iters'
p180
I4
sS'meta'
p181
(lp182
(dp183
S'objective'
p184
I2
sS'query_time'
p185
F0.176987886428833
sS'comp_time'
p186
F0.031339406967163086
sS'exec_cq'
p187
I20
sS'total_cq'
p188
I20
sa(dp189
g184
I0
sg185
F0.003785848617553711
sg186
F0.0056650638580322266
sg187
I11
sg188
I11
sa(dp190
g184
I0
sg185
F3.409385681152344e-05
sg186
F0.00028061866760253906
sg187
I5
sg188
I5
sa(dp191
g184
I24
sg185
F2.193450927734375e-05
sg186
F0.000141143798828125
sg187
I3
sg188
I3
sasS'total_cqs'
p192
I20
ssI14
(dp193
S'iters'
p194
I5
sS'meta'
p195
(lp196
(dp197
S'objective'
p198
I1
sS'query_time'
p199
F33.68683314323425
sS'comp_time'
p200
F0.9814751148223877
sS'exec_cq'
p201
I9
sS'total_cq'
p202
I9
sa(dp203
g198
I1
sg199
F0.01493215560913086
sg200
F0.015384197235107422
sg201
I6
sg202
I6
sa(dp204
g198
I2
sg199
F0.006594181060791016
sg200
F0.11074280738830566
sg201
I4
sg202
I4
sa(dp205
g198
I1
sg199
F0.007323026657104492
sg200
F0.011243104934692383
sg201
I3
sg202
I3
sa(dp206
g198
I1
sg199
F0.006304025650024414
sg200
F0.01304769515991211
sg201
I2
sg202
I2
sasS'total_cqs'
p207
I9
ssI15
(dp208
S'iters'
p209
I4
sS'meta'
p210
(lp211
(dp212
S'objective'
p213
I0
sS'query_time'
p214
F3.6750149726867676
sS'comp_time'
p215
F0.0808100700378418
sS'exec_cq'
p216
I11
sS'total_cq'
p217
I11
sa(dp218
g213
I1
sg214
F0.027943849563598633
sg215
F0.040689945220947266
sg216
I5
sg217
I5
sa(dp219
g213
I6
sg214
F0.0018808841705322266
sg215
F0.0019752979278564453
sg216
I3
sg217
I3
sa(dp220
g213
I3
sg214
F0.0008459091186523438
sg215
F0.00131988525390625
sg216
I2
sg217
I2
sasS'total_cqs'
p221
I11
ssI16
(dp222
S'iters'
p223
I1
sS'meta'
p224
(lp225
(dp226
S'objective'
p227
I34
sS'query_time'
p228
F0.019043922424316406
sS'comp_time'
p229
F0.003674030303955078
sS'exec_cq'
p230
I8
sS'total_cq'
p231
I8
sasS'total_cqs'
p232
I8
ssI17
(dp233
S'iters'
p234
I4
sS'meta'
p235
(lp236
(dp237
S'objective'
p238
I0
sS'query_time'
p239
F0.910290002822876
sS'comp_time'
p240
F0.04865622520446777
sS'exec_cq'
p241
I11
sS'total_cq'
p242
I11
sa(dp243
g238
I13
sg239
F0.003793954849243164
sg240
F0.009492874145507812
sg241
I7
sg242
I7
sa(dp244
g238
I2
sg239
F0.003551959991455078
sg240
F0.0068073272705078125
sg241
I3
sg242
I3
sa(dp245
g238
I2
sg239
F0.0033228397369384766
sg240
F0.005348682403564453
sg241
I2
sg242
I2
sasS'total_cqs'
p246
I11
ssI18
(dp247
S'iters'
p248
I4
sS'meta'
p249
(lp250
(dp251
S'objective'
p252
I26
sS'query_time'
p253
F0.23084592819213867
sS'comp_time'
p254
F0.027151107788085938
sS'exec_cq'
p255
I11
sS'total_cq'
p256
I11
sa(dp257
g252
I30
sg253
F0.0006558895111083984
sg254
F0.0022835731506347656
sg255
I9
sg256
I9
sa(dp258
g252
I24
sg253
F9.393692016601562e-05
sg254
F0.0001220703125
sg255
I7
sg256
I7
sa(dp259
g252
I29
sg253
F3.814697265625e-05
sg254
F7.82012939453125e-05
sg255
I6
sg256
I6
sasS'total_cqs'
p260
I11
ssI19
(dp261
S'iters'
p262
I0
sS'meta'
p263
(lp264
sS'total_cqs'
p265
I1
ssI20
(dp266
S'iters'
p267
I0
sS'meta'
p268
(lp269
sS'total_cqs'
p270
I1
ssI21
(dp271
S'iters'
p272
I0
sS'meta'
p273
(lp274
sS'total_cqs'
p275
I1
ssI22
(dp276
S'iters'
p277
I1
sS'meta'
p278
(lp279
(dp280
S'objective'
p281
I169
sS'query_time'
p282
F0.051116943359375
sS'comp_time'
p283
F0.030574321746826172
sS'exec_cq'
p284
I18
sS'total_cq'
p285
I18
sasS'total_cqs'
p286
I18
ssI23
(dp287
S'iters'
p288
I3
sS'meta'
p289
(lp290
(dp291
S'objective'
p292
I122
sS'query_time'
p293
F0.10686397552490234
sS'comp_time'
p294
F0.026118755340576172
sS'exec_cq'
p295
I16
sS'total_cq'
p296
I16
sa(dp297
g292
I117
sg293
F9.107589721679688e-05
sg294
F0.00012683868408203125
sg295
I15
sg296
I15
sa(dp298
g292
I121
sg293
F5.698204040527344e-05
sg294
F9.608268737792969e-05
sg295
I13
sg296
I13
sasS'total_cqs'
p299
I16
ssI24
(dp300
S'iters'
p301
I0
sS'meta'
p302
(lp303
sS'total_cqs'
p304
I1
ssI25
(dp305
S'iters'
p306
I0
sS'meta'
p307
(lp308
sS'total_cqs'
p309
I1
ssI26
(dp310
S'iters'
p311
I1
sS'meta'
p312
(lp313
(dp314
S'objective'
p315
I901
sS'query_time'
p316
F0.11585092544555664
sS'comp_time'
p317
F0.09593629837036133
sS'exec_cq'
p318
I42
sS'total_cq'
p319
I42
sasS'total_cqs'
p320
I42
ssI27
(dp321
S'iters'
p322
I5
sS'meta'
p323
(lp324
(dp325
S'objective'
p326
I365
sS'query_time'
p327
F22.469926834106445
sS'comp_time'
p328
F1.9215848445892334
sS'exec_cq'
p329
I30
sS'total_cq'
p330
I30
sa(dp331
g326
I369
sg327
F0.4013810157775879
sg328
F1.0676140785217285
sg329
I27
sg330
I27
sa(dp332
g326
I1
sg327
F0.49877500534057617
sg328
F1.334557294845581
sg329
I4
sg330
I4
sa(dp333
g326
I3
sg327
F0.0327150821685791
sg328
F0.2188427448272705
sg329
I3
sg330
I3
sa(dp334
g326
I2
sg327
F0.02912306785583496
sg328
F0.20460104942321777
sg329
I2
sg330
I2
sasS'total_cqs'
p335
I30
ssI28
(dp336
S'iters'
p337
I0
sS'meta'
p338
(lp339
sS'total_cqs'
p340
I1
ssI29
(dp341
S'iters'
p342
I6
sS'meta'
p343
(lp344
(dp345
S'objective'
p346
I295
sS'query_time'
p347
F27.072355031967163
sS'comp_time'
p348
F0.4722437858581543
sS'exec_cq'
p349
I35
sS'total_cq'
p350
I49
sa(dp351
g346
I47
sg347
F0.072052001953125
sg348
F0.4669229984283447
sg349
I17
sg350
I17
sa(dp352
g346
I3
sg347
F0.002363920211791992
sg348
F0.003487825393676758
sg349
I9
sg350
I9
sa(dp353
g346
I10
sg347
F0.0014510154724121094
sg348
F0.002712249755859375
sg349
I5
sg350
I5
sa(dp354
g346
I30
sg347
F0.0009529590606689453
sg348
F0.002440929412841797
sg349
I3
sg350
I3
sa(dp355
g346
I7
sg347
F0.0008840560913085938
sg348
F0.0012078285217285156
sg349
I2
sg350
I2
sasS'total_cqs'
p356
I49
ssI30
(dp357
S'iters'
p358
I1
sS'meta'
p359
(lp360
(dp361
S'objective'
p362
I1
sS'query_time'
p363
F0.7398738861083984
sS'comp_time'
p364
F0.012363910675048828
sS'exec_cq'
p365
I2
sS'total_cq'
p366
I2
sasS'total_cqs'
p367
I2
ssI31
(dp368
S'iters'
p369
I0
sS'meta'
p370
(lp371
sS'total_cqs'
p372
I1
ssI32
(dp373
S'iters'
p374
I1
sS'meta'
p375
(lp376
(dp377
S'objective'
p378
I1
sS'query_time'
p379
F0.038038015365600586
sS'comp_time'
p380
F0.0019931793212890625
sS'exec_cq'
p381
I2
sS'total_cq'
p382
I2
sasS'total_cqs'
p383
I2
ssI33
(dp384
S'iters'
p385
I7
sS'meta'
p386
(lp387
(dp388
S'objective'
p389
I3932
sS'query_time'
p390
F16.3041570186615
sS'comp_time'
p391
F1.0275251865386963
sS'exec_cq'
p392
I103
sS'total_cq'
p393
I103
sa(dp394
g389
I2
sg390
F0.009238004684448242
sg391
F0.07973814010620117
sg392
I16
sg393
I16
sa(dp395
g389
I1
sg390
F0.0044171810150146484
sg391
F0.01015472412109375
sg392
I10
sg393
I10
sa(dp396
g389
I12
sg390
F0.0018451213836669922
sg391
F0.01056814193725586
sg392
I6
sg393
I6
sa(dp397
g389
I37
sg390
F0.0008020401000976562
sg391
F0.001402139663696289
sg392
I4
sg393
I4
sa(dp398
g389
I1
sg390
F0.0007050037384033203
sg391
F0.00135040283203125
sg392
I3
sg393
I3
sa(dp399
g389
I9
sg390
F0.00013589859008789062
sg391
F0.00032210350036621094
sg392
I2
sg393
I2
sasS'total_cqs'
p400
I103
ssI34
(dp401
S'iters'
p402
I1
sS'meta'
p403
(lp404
(dp405
S'objective'
p406
I1
sS'query_time'
p407
F0.019169092178344727
sS'comp_time'
p408
F0.0020630359649658203
sS'exec_cq'
p409
I2
sS'total_cq'
p410
I2
sasS'total_cqs'
p411
I2
ssI35
(dp412
S'iters'
p413
I5
sS'meta'
p414
(lp415
(dp416
S'objective'
p417
I1231
sS'query_time'
p418
F22.528475999832153
sS'comp_time'
p419
F0.2989625930786133
sS'exec_cq'
p420
I50
sS'total_cq'
p421
I70
sa(dp422
g417
I57
sg418
F0.005346059799194336
sg419
F0.018319129943847656
sg420
I16
sg421
I16
sa(dp423
g417
I3
sg418
F0.0023560523986816406
sg419
F0.002950906753540039
sg420
I7
sg421
I7
sa(dp424
g417
I3
sg418
F0.0008890628814697266
sg419
F0.0012600421905517578
sg420
I4
sg421
I4
sa(dp425
g417
I67
sg418
F0.0004420280456542969
sg419
F0.0008039474487304688
sg420
I2
sg421
I2
sasS'total_cqs'
p426
I70
ssI36
(dp427
S'iters'
p428
I5
sS'meta'
p429
(lp430
(dp431
S'objective'
p432
I351
sS'query_time'
p433
F0.7468998432159424
sS'comp_time'
p434
F0.14862585067749023
sS'exec_cq'
p435
I33
sS'total_cq'
p436
I33
sa(dp437
g432
I298
sg433
F0.006357908248901367
sg434
F0.016103267669677734
sg435
I29
sg436
I29
sa(dp438
g432
I367
sg433
F0.002331972122192383
sg434
F0.003942728042602539
sg435
I25
sg436
I25
sa(dp439
g432
I366
sg433
F0.0011799335479736328
sg434
F0.0018110275268554688
sg435
I24
sg436
I24
sa(dp440
g432
I367
sg433
F0.00013399124145507812
sg434
F0.0002818107604980469
sg435
I23
sg436
I23
sasS'total_cqs'
p441
I33
ssI37
(dp442
S'iters'
p443
I1
sS'meta'
p444
(lp445
(dp446
S'objective'
p447
I1
sS'query_time'
p448
F0.00939798355102539
sS'comp_time'
p449
F0.0009210109710693359
sS'exec_cq'
p450
I2
sS'total_cq'
p451
I2
sasS'total_cqs'
p452
I2
ssI38
(dp453
S'iters'
p454
I2
sS'meta'
p455
(lp456
(dp457
S'objective'
p458
I0
sS'query_time'
p459
F0.023576021194458008
sS'comp_time'
p460
F0.0024700164794921875
sS'exec_cq'
p461
I4
sS'total_cq'
p462
I4
sa(dp463
g458
I3
sg459
F9.512901306152344e-05
sg460
F0.00016498565673828125
sg461
I2
sg462
I2
sasS'total_cqs'
p464
I4
ssI39
(dp465
S'iters'
p466
I2
sS'meta'
p467
(lp468
(dp469
S'objective'
p470
I510
sS'query_time'
p471
F0.14484596252441406
sS'comp_time'
p472
F0.14739060401916504
sS'exec_cq'
p473
I44
sS'total_cq'
p474
I44
sa(dp475
g470
I748
sg471
F0.00031495094299316406
sg472
F0.0008940696716308594
sg473
I37
sg474
I37
sasS'total_cqs'
p476
I44
ssI40
(dp477
S'iters'
p478
I1
sS'meta'
p479
(lp480
(dp481
S'objective'
p482
I26
sS'query_time'
p483
F0.0315859317779541
sS'comp_time'
p484
F0.0057599544525146484
sS'exec_cq'
p485
I7
sS'total_cq'
p486
I7
sasS'total_cqs'
p487
I7
ssI41
(dp488
S'iters'
p489
I2
sS'meta'
p490
(lp491
(dp492
S'objective'
p493
I56
sS'query_time'
p494
F0.06539392471313477
sS'comp_time'
p495
F0.01662588119506836
sS'exec_cq'
p496
I12
sS'total_cq'
p497
I12
sa(dp498
g493
I65
sg494
F5.91278076171875e-05
sg495
F0.0001010894775390625
sg496
I11
sg497
I11
sasS'total_cqs'
p499
I12
ssI42
(dp500
S'iters'
p501
I4
sS'meta'
p502
(lp503
(dp504
S'objective'
p505
I785
sS'query_time'
p506
F0.10244083404541016
sS'comp_time'
p507
F0.13487958908081055
sS'exec_cq'
p508
I41
sS'total_cq'
p509
I41
sa(dp510
g505
I793
sg506
F0.00018525123596191406
sg507
F0.0002541542053222656
sg508
I40
sg509
I40
sa(dp511
g505
I794
sg506
F0.00015878677368164062
sg507
F0.0001919269561767578
sg508
I39
sg509
I39
sa(dp512
g505
I799
sg506
F0.0001533031463623047
sg507
F0.00013303756713867188
sg508
I38
sg509
I38
sasS'total_cqs'
p513
I41
ssI43
(dp514
S'iters'
p515
I1
sS'meta'
p516
(lp517
(dp518
S'objective'
p519
I26
sS'query_time'
p520
F0.02697896957397461
sS'comp_time'
p521
F0.00614476203918457
sS'exec_cq'
p522
I7
sS'total_cq'
p523
I7
sasS'total_cqs'
p524
I7
ssI44
(dp525
S'iters'
p526
I4
sS'meta'
p527
(lp528
(dp529
S'objective'
p530
I798
sS'query_time'
p531
F0.22448301315307617
sS'comp_time'
p532
F0.15709710121154785
sS'exec_cq'
p533
I47
sS'total_cq'
p534
I47
sa(dp535
g530
I839
sg531
F0.0002880096435546875
sg532
F0.0010030269622802734
sg533
I40
sg534
I40
sa(dp536
g530
I14
sg531
F0.0015230178833007812
sg532
F0.001440286636352539
sg533
I3
sg534
I3
sa(dp537
g530
I22
sg531
F0.00010800361633300781
sg532
F0.00022864341735839844
sg533
I2
sg534
I2
sasS'total_cqs'
p538
I47
ssI45
(dp539
S'iters'
p540
I0
sS'meta'
p541
(lp542
sS'total_cqs'
p543
I1
ssI46
(dp544
S'iters'
p545
I3
sS'meta'
p546
(lp547
(dp548
S'objective'
p549
I11
sS'query_time'
p550
F0.07517218589782715
sS'comp_time'
p551
F0.002727031707763672
sS'exec_cq'
p552
I6
sS'total_cq'
p553
I6
sa(dp554
g549
I12
sg550
F5.984306335449219e-05
sg551
F0.0001533031463623047
sg552
I5
sg553
I5
sa(dp555
g549
I12
sg550
F2.5033950805664062e-05
sg551
F5.4836273193359375e-05
sg552
I4
sg553
I4
sasS'total_cqs'
p556
I6
ssI47
(dp557
S'iters'
p558
I1
sS'meta'
p559
(lp560
(dp561
S'objective'
p562
I1
sS'query_time'
p563
F0.00898885726928711
sS'comp_time'
p564
F0.0010590553283691406
sS'exec_cq'
p565
I2
sS'total_cq'
p566
I2
sasS'total_cqs'
p567
I2
ssI48
(dp568
S'iters'
p569
I0
sS'meta'
p570
(lp571
sS'total_cqs'
p572
I1
ssI49
(dp573
S'iters'
p574
I0
sS'meta'
p575
(lp576
sS'total_cqs'
p577
I1
ssI50
(dp578
S'iters'
p579
I4
sS'meta'
p580
(lp581
(dp582
S'objective'
p583
I5
sS'query_time'
p584
F0.03470301628112793
sS'comp_time'
p585
F0.007526874542236328
sS'exec_cq'
p586
I5
sS'total_cq'
p587
I5
sa(dp588
g583
I2
sg584
F4.00543212890625e-05
sg585
F0.0001628398895263672
sg586
I4
sg587
I4
sa(dp589
g583
I0
sg584
F2.8848648071289062e-05
sg585
F0.00011801719665527344
sg586
I3
sg587
I3
sa(dp590
g583
I1
sg584
F2.384185791015625e-05
sg585
F0.0001049041748046875
sg586
I2
sg587
I2
sasS'total_cqs'
p591
I5
ssI51
(dp592
S'iters'
p593
I1
sS'meta'
p594
(lp595
(dp596
S'objective'
p597
I1
sS'query_time'
p598
F0.008394956588745117
sS'comp_time'
p599
F0.0009789466857910156
sS'exec_cq'
p600
I2
sS'total_cq'
p601
I2
sasS'total_cqs'
p602
I2
ssI52
(dp603
S'iters'
p604
I1
sS'meta'
p605
(lp606
(dp607
S'objective'
p608
I1
sS'query_time'
p609
F0.00795602798461914
sS'comp_time'
p610
F0.0011851787567138672
sS'exec_cq'
p611
I2
sS'total_cq'
p612
I2
sasS'total_cqs'
p613
I2
ssI53
(dp614
S'iters'
p615
I3
sS'meta'
p616
(lp617
(dp618
S'objective'
p619
I2
sS'query_time'
p620
F0.022040128707885742
sS'comp_time'
p621
F0.002415180206298828
sS'exec_cq'
p622
I4
sS'total_cq'
p623
I4
sa(dp624
g619
I0
sg620
F0.0011661052703857422
sg621
F0.0003662109375
sg622
I3
sg623
I3
sa(dp625
g619
I1
sg620
F9.107589721679688e-05
sg621
F0.00022077560424804688
sg622
I2
sg623
I2
sasS'total_cqs'
p626
I4
ssI54
(dp627
S'iters'
p628
I2
sS'meta'
p629
(lp630
(dp631
S'objective'
p632
I0
sS'query_time'
p633
F0.011693000793457031
sS'comp_time'
p634
F0.0016379356384277344
sS'exec_cq'
p635
I3
sS'total_cq'
p636
I3
sa(dp637
g632
I1
sg633
F4.100799560546875e-05
sg634
F0.00012993812561035156
sg635
I2
sg636
I2
sasS'total_cqs'
p638
I3
ssI55
(dp639
S'iters'
p640
I9
sS'meta'
p641
(lp642
(dp643
S'objective'
p644
I4769
sS'query_time'
p645
F2.493662118911743
sS'comp_time'
p646
F0.8228559494018555
sS'exec_cq'
p647
I109
sS'total_cq'
p648
I109
sa(dp649
g644
I4780
sg645
F0.000990152359008789
sg646
F0.0043849945068359375
sg647
I97
sg648
I97
sa(dp650
g644
I4753
sg645
F0.00044798851013183594
sg646
F0.0017971992492675781
sg647
I91
sg648
I91
sa(dp651
g644
I4603
sg645
F0.00041294097900390625
sg646
F0.0009632110595703125
sg647
I89
sg648
I89
sa(dp652
g644
I4544
sg645
F0.0003859996795654297
sg646
F0.0010077953338623047
sg647
I85
sg648
I85
sa(dp653
g644
I4436
sg645
F0.00038695335388183594
sg646
F0.0007414817810058594
sg647
I84
sg648
I84
sa(dp654
g644
I4348
sg645
F0.00037407875061035156
sg646
F0.0007088184356689453
sg647
I82
sg648
I82
sa(dp655
g644
I4340
sg645
F0.00032711029052734375
sg646
F0.0005412101745605469
sg647
I81
sg648
I81
sa(dp656
g644
I4391
sg645
F0.00034618377685546875
sg646
F0.0004820823669433594
sg647
I79
sg648
I79
sasS'total_cqs'
p657
I109
ssI56
(dp658
S'iters'
p659
I6
sS'meta'
p660
(lp661
(dp662
S'objective'
p663
I1370
sS'query_time'
p664
F1.742779016494751
sS'comp_time'
p665
F0.25151538848876953
sS'exec_cq'
p666
I67
sS'total_cq'
p667
I76
sa(dp668
g663
I44
sg664
F0.007915973663330078
sg665
F0.10878562927246094
sg666
I16
sg667
I16
sa(dp669
g663
I37
sg664
F0.0032019615173339844
sg665
F0.010809659957885742
sg666
I8
sg667
I8
sa(dp670
g663
I18
sg664
F0.0008740425109863281
sg665
F0.0030481815338134766
sg666
I5
sg667
I5
sa(dp671
g663
I49
sg664
F0.0002791881561279297
sg665
F0.0006330013275146484
sg666
I3
sg667
I3
sa(dp672
g663
I25
sg664
F0.00013899803161621094
sg665
F0.0003275871276855469
sg666
I2
sg667
I2
sasS'total_cqs'
p673
I76
ssI57
(dp674
S'iters'
p675
I7
sS'meta'
p676
(lp677
(dp678
S'objective'
p679
I44
sS'query_time'
p680
F24.476478099822998
sS'comp_time'
p681
F0.15044069290161133
sS'exec_cq'
p682
I45
sS'total_cq'
p683
I51
sa(dp684
g679
I43
sg680
F0.021542072296142578
sg681
F0.04782843589782715
sg682
I31
sg683
I31
sa(dp685
g679
I52
sg680
F0.0013060569763183594
sg681
F0.008620023727416992
sg682
I19
sg683
I19
sa(dp686
g679
I8
sg680
F0.0007588863372802734
sg681
F0.006699085235595703
sg682
I10
sg683
I10
sa(dp687
g679
I10
sg680
F0.0002689361572265625
sg681
F0.0007801055908203125
sg682
I4
sg683
I4
sa(dp688
g679
I26
sg680
F0.00021910667419433594
sg681
F0.0005488395690917969
sg682
I3
sg683
I3
sa(dp689
g679
I1
sg680
F0.00018310546875
sg681
F0.0003082752227783203
sg682
I2
sg683
I2
sasS'total_cqs'
p690
I51
ssI58
(dp691
S'iters'
p692
I9
sS'meta'
p693
(lp694
(dp695
S'objective'
p696
I82843
sS'query_time'
p697
F323.86629605293274
sS'comp_time'
p698
F23.330005645751953
sS'exec_cq'
p699
I486
sS'total_cq'
p700
I486
sa(dp701
g696
I87182
sg697
F5.591639757156372
sg698
F8.947255611419678
sg699
I414
sg700
I414
sa(dp702
g696
I237
sg697
F0.015160083770751953
sg698
F0.24600958824157715
sg699
I28
sg700
I28
sa(dp703
g696
I1
sg697
F0.0030641555786132812
sg698
F0.1411457061767578
sg699
I16
sg700
I16
sa(dp704
g696
I2
sg697
F0.0014331340789794922
sg698
F0.006856203079223633
sg699
I10
sg700
I10
sa(dp705
g696
I55
sg697
F0.0007929801940917969
sg698
F0.0025141239166259766
sg699
I7
sg700
I7
sa(dp706
g696
I0
sg697
F0.0007081031799316406
sg698
F0.0019371509552001953
sg699
I6
sg700
I6
sa(dp707
g696
I131
sg697
F0.0003390312194824219
sg698
F0.0008647441864013672
sg699
I3
sg700
I3
sa(dp708
g696
I34
sg697
F0.0001780986785888672
sg698
F0.0003612041473388672
sg699
I2
sg700
I2
sasS'total_cqs'
p709
I486
ssI59
(dp710
S'iters'
p711
I2
sS'meta'
p712
(lp713
(dp714
S'objective'
p715
I14
sS'query_time'
p716
F0.05002903938293457
sS'comp_time'
p717
F0.007077455520629883
sS'exec_cq'
p718
I7
sS'total_cq'
p719
I7
sa(dp720
g715
I5
sg716
F0.00018310546875
sg717
F0.00039386749267578125
sg718
I2
sg719
I2
sasS'total_cqs'
p721
I7
ssI60
(dp722
S'iters'
p723
I4
sS'meta'
p724
(lp725
(dp726
S'objective'
p727
I5
sS'query_time'
p728
F0.01888275146484375
sS'comp_time'
p729
F0.0033080577850341797
sS'exec_cq'
p730
I4
sS'total_cq'
p731
I5
sa(dp732
g727
I4
sg728
F0.003389120101928711
sg729
F0.000347137451171875
sg730
I4
sg731
I4
sa(dp733
g727
I3
sg728
F2.3126602172851562e-05
sg729
F3.695487976074219e-05
sg730
I2
sg731
I3
sa(dp734
g727
I3
sg728
F1.0967254638671875e-05
sg729
F2.193450927734375e-05
sg730
I1
sg731
I2
sasS'total_cqs'
p735
I5
ssI61
(dp736
S'iters'
p737
I0
sS'meta'
p738
(lp739
sS'total_cqs'
p740
I1
ssI62
(dp741
S'iters'
p742
I3
sS'meta'
p743
(lp744
(dp745
S'objective'
p746
I12
sS'query_time'
p747
F0.0325469970703125
sS'comp_time'
p748
F0.018880128860473633
sS'exec_cq'
p749
I12
sS'total_cq'
p750
I12
sa(dp751
g746
I39
sg747
F5.1021575927734375e-05
sg748
F0.00015091896057128906
sg749
I9
sg750
I9
sa(dp752
g746
I40
sg747
F3.790855407714844e-05
sg748
F7.295608520507812e-05
sg749
I8
sg750
I8
sasS'total_cqs'
p753
I12
ssI63
(dp754
S'iters'
p755
I0
sS'meta'
p756
(lp757
sS'total_cqs'
p758
I1
ssI64
(dp759
S'iters'
p760
I3
sS'meta'
p761
(lp762
(dp763
S'objective'
p764
I32
sS'query_time'
p765
F0.18827199935913086
sS'comp_time'
p766
F0.01836252212524414
sS'exec_cq'
p767
I12
sS'total_cq'
p768
I12
sa(dp769
g764
I1
sg765
F0.000102996826171875
sg766
F0.0005178451538085938
sg767
I4
sg768
I4
sa(dp770
g764
I10
sg765
F2.5987625122070312e-05
sg766
F0.00011181831359863281
sg767
I2
sg768
I2
sasS'total_cqs'
p771
I12
ssI65
(dp772
S'iters'
p773
I5
sS'meta'
p774
(lp775
(dp776
S'objective'
p777
I214
sS'query_time'
p778
F0.7874410152435303
sS'comp_time'
p779
F0.15512394905090332
sS'exec_cq'
p780
I27
sS'total_cq'
p781
I27
sa(dp782
g777
I4
sg778
F0.0018939971923828125
sg779
F0.003203153610229492
sg780
I7
sg781
I7
sa(dp783
g777
I5
sg778
F0.0008378028869628906
sg779
F0.0013575553894042969
sg780
I4
sg781
I4
sa(dp784
g777
I1
sg778
F0.0004630088806152344
sg779
F0.0006289482116699219
sg780
I3
sg781
I3
sa(dp785
g777
I6
sg778
F0.00026488304138183594
sg779
F0.0004839897155761719
sg780
I2
sg781
I2
sasS'total_cqs'
p786
I27
ssI66
(dp787
S'iters'
p788
I0
sS'meta'
p789
(lp790
sS'total_cqs'
p791
I1
ssI67
(dp792
S'iters'
p793
I2
sS'meta'
p794
(lp795
(dp796
S'objective'
p797
I572
sS'query_time'
p798
F0.9559550285339355
sS'comp_time'
p799
F0.08243584632873535
sS'exec_cq'
p800
I35
sS'total_cq'
p801
I35
sa(dp802
g797
I27
sg798
F0.0013289451599121094
sg799
F0.002792835235595703
sg800
I2
sg801
I2
sasS'total_cqs'
p803
I35
ssI68
(dp804
S'iters'
p805
I0
sS'meta'
p806
(lp807
sS'total_cqs'
p808
I1
ssI69
(dp809
S'iters'
p810
I1
sS'meta'
p811
(lp812
(dp813
S'objective'
p814
I1324
sS'query_time'
p815
F0.1826190948486328
sS'comp_time'
p816
F0.19919800758361816
sS'exec_cq'
p817
I51
sS'total_cq'
p818
I51
sasS'total_cqs'
p819
I51
ssI70
(dp820
S'iters'
p821
I4
sS'meta'
p822
(lp823
(dp824
S'objective'
p825
I9
sS'query_time'
p826
F0.06255483627319336
sS'comp_time'
p827
F0.004738330841064453
sS'exec_cq'
p828
I6
sS'total_cq'
p829
I6
sa(dp830
g825
I7
sg826
F5.888938903808594e-05
sg827
F0.00018310546875
sg828
I5
sg829
I5
sa(dp831
g825
I5
sg826
F7.486343383789062e-05
sg827
F0.00015211105346679688
sg828
I4
sg829
I4
sa(dp832
g825
I6
sg826
F4.291534423828125e-05
sg827
F0.00012445449829101562
sg828
I3
sg829
I3
sasS'total_cqs'
p833
I6
ssI71
(dp834
S'iters'
p835
I10
sS'meta'
p836
(lp837
(dp838
S'objective'
p839
I3223
sS'query_time'
p840
F0.3309640884399414
sS'comp_time'
p841
F0.3517420291900635
sS'exec_cq'
p842
I85
sS'total_cq'
p843
I85
sa(dp844
g839
I3105
sg840
F0.0004649162292480469
sg841
F0.0016393661499023438
sg842
I81
sg843
I81
sa(dp845
g839
I3012
sg840
F0.00034999847412109375
sg841
F0.0014348030090332031
sg842
I77
sg843
I77
sa(dp846
g839
I2946
sg840
F0.0003478527069091797
sg841
F0.0009839534759521484
sg842
I74
sg843
I74
sa(dp847
g839
I2862
sg840
F0.00033593177795410156
sg841
F0.0008144378662109375
sg842
I72
sg843
I72
sa(dp848
g839
I2791
sg840
F0.0002846717834472656
sg841
F0.0006208419799804688
sg842
I69
sg843
I69
sa(dp849
g839
I2776
sg840
F0.00028705596923828125
sg841
F0.0004172325134277344
sg842
I68
sg843
I68
sa(dp850
g839
I2778
sg840
F0.0003459453582763672
sg841
F0.0005800724029541016
sg842
I67
sg843
I67
sa(dp851
g839
I9
sg840
F0.0030260086059570312
sg841
F0.002954244613647461
sg842
I3
sg843
I3
sa(dp852
g839
I14
sg840
F0.0046977996826171875
sg841
F0.00020194053649902344
sg842
I2
sg843
I2
sasS'total_cqs'
p853
I85
ssI72
(dp854
S'iters'
p855
I3
sS'meta'
p856
(lp857
(dp858
S'objective'
p859
I10
sS'query_time'
p860
F0.31200695037841797
sS'comp_time'
p861
F0.0055272579193115234
sS'exec_cq'
p862
I8
sS'total_cq'
p863
I8
sa(dp864
g859
I1
sg860
F9.584426879882812e-05
sg861
F0.00017786026000976562
sg862
I4
sg863
I5
sa(dp865
g859
I9
sg860
F5.91278076171875e-05
sg861
F5.2928924560546875e-05
sg862
I2
sg863
I3
sasS'total_cqs'
p866
I8
ssI73
(dp867
S'iters'
p868
I0
sS'meta'
p869
(lp870
sS'total_cqs'
p871
I1
ssI74
(dp872
S'iters'
p873
I0
sS'meta'
p874
(lp875
sS'total_cqs'
p876
I1
ssI75
(dp877
S'iters'
p878
I4
sS'meta'
p879
(lp880
(dp881
S'objective'
p882
I5
sS'query_time'
p883
F0.012471914291381836
sS'comp_time'
p884
F0.002151012420654297
sS'exec_cq'
p885
I5
sS'total_cq'
p886
I5
sa(dp887
g882
I2
sg883
F2.4080276489257812e-05
sg884
F0.0001308917999267578
sg885
I4
sg886
I4
sa(dp888
g882
I0
sg883
F1.8835067749023438e-05
sg884
F9.226799011230469e-05
sg885
I3
sg886
I3
sa(dp889
g882
I1
sg883
F1.5020370483398438e-05
sg884
F7.486343383789062e-05
sg885
I2
sg886
I2
sasS'total_cqs'
p890
I5
ssI76
(dp891
S'iters'
p892
I1
sS'meta'
p893
(lp894
(dp895
S'objective'
p896
I1
sS'query_time'
p897
F0.01153707504272461
sS'comp_time'
p898
F0.0012240409851074219
sS'exec_cq'
p899
I2
sS'total_cq'
p900
I2
sasS'total_cqs'
p901
I2
ssI77
(dp902
S'iters'
p903
I0
sS'meta'
p904
(lp905
sS'total_cqs'
p906
I1
ssI78
(dp907
S'iters'
p908
I0
sS'meta'
p909
(lp910
sS'total_cqs'
p911
I1
ssI103
(dp912
S'iters'
p913
I2
sS'meta'
p914
(lp915
(dp916
S'objective'
p917
I56
sS'query_time'
p918
F0.061717987060546875
sS'comp_time'
p919
F0.015623331069946289
sS'exec_cq'
p920
I12
sS'total_cq'
p921
I12
sa(dp922
g917
I65
sg918
F6.794929504394531e-05
sg919
F0.0001049041748046875
sg920
I11
sg921
I11
sasS'total_cqs'
p923
I12
ssI104
(dp924
S'iters'
p925
I2
sS'meta'
p926
(lp927
(dp928
S'objective'
p929
I0
sS'query_time'
p930
F1.466353178024292
sS'comp_time'
p931
F0.04381394386291504
sS'exec_cq'
p932
I4
sS'total_cq'
p933
I4
sa(dp934
g929
I3
sg930
F0.011940956115722656
sg931
F0.021198749542236328
sg932
I2
sg933
I2
sasS'total_cqs'
p935
I4
ssI105
(dp936
S'iters'
p937
I0
sS'meta'
p938
(lp939
sS'total_cqs'
p940
I1
ssI106
(dp941
S'iters'
p942
I1
sS'meta'
p943
(lp944
(dp945
S'objective'
p946
I8
sS'query_time'
p947
F0.025330066680908203
sS'comp_time'
p948
F0.0019199848175048828
sS'exec_cq'
p949
I4
sS'total_cq'
p950
I4
sasS'total_cqs'
p951
I4
ssI107
(dp952
S'iters'
p953
I3
sS'meta'
p954
(lp955
(dp956
S'objective'
p957
I114
sS'query_time'
p958
F0.0790090560913086
sS'comp_time'
p959
F0.0294039249420166
sS'exec_cq'
p960
I16
sS'total_cq'
p961
I16
sa(dp962
g957
I105
sg958
F0.00012803077697753906
sg959
F0.00020313262939453125
sg960
I15
sg961
I15
sa(dp963
g957
I8
sg958
F0.006891965866088867
sg959
F0.00042366981506347656
sg960
I3
sg961
I3
sasS'total_cqs'
p964
I16
ssI108
(dp965
S'iters'
p966
I0
sS'meta'
p967
(lp968
sS'total_cqs'
p969
I1
ss.