(dp0
I1
(dp1
S'iters'
p2
I1
sS'meta'
p3
(lp4
(dp5
S'objective'
p6
I58
sS'query_time'
p7
F0.04666399955749512
sS'comp_time'
p8
F0.00023603439331054688
sS'exec_cq'
p9
I12
sS'total_cq'
p10
I12
sasS'total_cqs'
p11
I12
ssI2
(dp12
S'iters'
p13
I3
sS'meta'
p14
(lp15
(dp16
S'objective'
p17
I266
sS'query_time'
p18
F0.15832996368408203
sS'comp_time'
p19
F0.0011148452758789062
sS'exec_cq'
p20
I27
sS'total_cq'
p21
I27
sa(dp22
g17
I226
sg18
F0.0001552104949951172
sg19
F0.00047087669372558594
sg20
I24
sg21
I24
sa(dp23
g17
I230
sg18
F9.512901306152344e-05
sg19
F0.0002999305725097656
sg20
I20
sg21
I20
sasS'total_cqs'
p24
I27
ssI3
(dp25
S'iters'
p26
I4
sS'meta'
p27
(lp28
(dp29
S'objective'
p30
I204
sS'query_time'
p31
F158.3648419380188
sS'comp_time'
p32
F1.550220012664795
sS'exec_cq'
p33
I43
sS'total_cq'
p34
I43
sa(dp35
g30
I143
sg31
F0.34015488624572754
sg32
F1.3433811664581299
sg33
I27
sg34
I27
sa(dp36
g30
I197
sg31
F0.27698302268981934
sg32
F0.9528381824493408
sg33
I19
sg34
I19
sa(dp37
g30
I13
sg31
F5.602836608886719e-05
sg32
F9.799003601074219e-05
sg33
I5
sg34
I5
sasS'total_cqs'
p38
I43
ssI4
(dp39
S'iters'
p40
I2
sS'meta'
p41
(lp42
(dp43
S'objective'
p44
I36
sS'query_time'
p45
F3.9926669597625732
sS'comp_time'
p46
F0.3513329029083252
sS'exec_cq'
p47
I11
sS'total_cq'
p48
I11
sa(dp49
g44
I5
sg45
F0.10327386856079102
sg46
F0.36545610427856445
sg47
I2
sg48
I2
sasS'total_cqs'
p50
I11
ssI5
(dp51
S'iters'
p52
I3
sS'meta'
p53
(lp54
(dp55
S'objective'
p56
I0
sS'query_time'
p57
F27.748536109924316
sS'comp_time'
p58
F2.2571089267730713
sS'exec_cq'
p59
I8
sS'total_cq'
p60
I8
sa(dp61
g56
I0
sg57
F0.4262380599975586
sg58
F1.8487610816955566
sg59
I5
sg60
I5
sa(dp62
g56
I5
sg57
F0.34729504585266113
sg58
F1.3358500003814697
sg59
I2
sg60
I2
sasS'total_cqs'
p63
I8
ssI6
(dp64
S'iters'
p65
I4
sS'meta'
p66
(lp67
(dp68
S'objective'
p69
I5
sS'query_time'
p70
F30.12618899345398
sS'comp_time'
p71
F2.87204909324646
sS'exec_cq'
p72
I18
sS'total_cq'
p73
I18
sa(dp74
g69
I0
sg70
F0.6815099716186523
sg71
F2.30668306350708
sg72
I7
sg73
I7
sa(dp75
g69
I0
sg70
F0.026407957077026367
sg71
F0.08770012855529785
sg72
I4
sg73
I4
sa(dp76
g69
I8
sg70
F0.01168513298034668
sg71
F0.22628498077392578
sg72
I2
sg73
I2
sasS'total_cqs'
p77
I18
ssI7
(dp78
S'iters'
p79
I3
sS'meta'
p80
(lp81
(dp82
S'objective'
p83
I1
sS'query_time'
p84
F10.1216881275177
sS'comp_time'
p85
F1.0478529930114746
sS'exec_cq'
p86
I9
sS'total_cq'
p87
I9
sa(dp88
g83
I0
sg84
F0.16297602653503418
sg85
F0.5230603218078613
sg86
I5
sg87
I5
sa(dp89
g83
I5
sg84
F0.10874390602111816
sg85
F0.39262819290161133
sg86
I2
sg87
I2
sasS'total_cqs'
p90
I9
ssI8
(dp91
S'iters'
p92
I4
sS'meta'
p93
(lp94
(dp95
S'objective'
p96
I232
sS'query_time'
p97
F0.16696405410766602
sS'comp_time'
p98
F0.0013828277587890625
sS'exec_cq'
p99
I27
sS'total_cq'
p100
I27
sa(dp101
g96
I199
sg97
F0.00016307830810546875
sg98
F0.0003941059112548828
sg99
I22
sg100
I22
sa(dp102
g96
I198
sg97
F8.296966552734375e-05
sg98
F0.00010991096496582031
sg99
I19
sg100
I19
sa(dp103
g96
I181
sg97
F7.796287536621094e-05
sg98
F9.012222290039062e-05
sg99
I18
sg100
I18
sasS'total_cqs'
p104
I27
ssI9
(dp105
S'iters'
p106
I2
sS'meta'
p107
(lp108
(dp109
S'objective'
p110
I4
sS'query_time'
p111
F0.049365997314453125
sS'comp_time'
p112
F0.00027489662170410156
sS'exec_cq'
p113
I7
sS'total_cq'
p114
I7
sa(dp115
g110
I2
sg111
F2.002716064453125e-05
sg112
F5.2928924560546875e-05
sg113
I2
sg114
I2
sasS'total_cqs'
p116
I7
ssI10
(dp117
S'iters'
p118
I5
sS'meta'
p119
(lp120
(dp121
S'objective'
p122
I560
sS'query_time'
p123
F0.42864298820495605
sS'comp_time'
p124
F0.006777048110961914
sS'exec_cq'
p125
I51
sS'total_cq'
p126
I51
sa(dp127
g122
I303
sg123
F0.00043320655822753906
sg124
F0.0014200210571289062
sg125
I37
sg126
I37
sa(dp128
g122
I339
sg123
F0.00020694732666015625
sg124
F0.0007250308990478516
sg125
I25
sg126
I25
sa(dp129
g122
I347
sg123
F0.00011587142944335938
sg124
F0.00028777122497558594
sg125
I21
sg126
I21
sa(dp130
g122
I13
sg123
F0.001001119613647461
sg124
F9.298324584960938e-05
sg125
I3
sg126
I3
sasS'total_cqs'
p131
I51
ssI11
(dp132
S'iters'
p133
I5
sS'meta'
p134
(lp135
(dp136
S'objective'
p137
I1214
sS'query_time'
p138
F0.6407439708709717
sS'comp_time'
p139
F0.01475381851196289
sS'exec_cq'
p140
I63
sS'total_cq'
p141
I63
sa(dp142
g137
I975
sg138
F0.0008959770202636719
sg139
F0.003641843795776367
sg140
I47
sg141
I47
sa(dp143
g137
I20
sg138
F0.0016760826110839844
sg139
F0.0010287761688232422
sg140
I9
sg141
I9
sa(dp144
g137
I36
sg138
F0.00015997886657714844
sg139
F0.0006887912750244141
sg140
I5
sg141
I5
sa(dp145
g137
I5
sg138
F1.2874603271484375e-05
sg139
F4.100799560546875e-05
sg140
I2
sg141
I2
sasS'total_cqs'
p146
I63
ssI12
(dp147
S'iters'
p148
I5
sS'meta'
p149
(lp150
(dp151
S'objective'
p152
I391
sS'query_time'
p153
F0.4215061664581299
sS'comp_time'
p154
F0.0065538883209228516
sS'exec_cq'
p155
I50
sS'total_cq'
p156
I50
sa(dp157
g152
I345
sg153
F0.0004189014434814453
sg154
F0.001667022705078125
sg155
I33
sg156
I33
sa(dp158
g152
I0
sg153
F0.0019221305847167969
sg154
F0.001338958740234375
sg155
I8
sg156
I8
sa(dp159
g152
I26
sg153
F2.6941299438476562e-05
sg154
F9.989738464355469e-05
sg155
I3
sg156
I3
sa(dp160
g152
I4
sg153
F2.002716064453125e-05
sg154
F0.00010585784912109375
sg155
I2
sg156
I2
sasS'total_cqs'
p161
I50
ssI13
(dp162
S'iters'
p163
I3
sS'meta'
p164
(lp165
(dp166
S'objective'
p167
I12
sS'query_time'
p168
F0.18346786499023438
sS'comp_time'
p169
F0.00044536590576171875
sS'exec_cq'
p170
I20
sS'total_cq'
p171
I20
sa(dp172
g167
I49
sg168
F5.1021575927734375e-05
sg169
F7.414817810058594e-05
sg170
I9
sg171
I9
sa(dp173
g167
I7
sg168
F0.0009829998016357422
sg169
F6.389617919921875e-05
sg170
I2
sg171
I2
sasS'total_cqs'
p174
I20
ssI14
(dp175
S'iters'
p176
I3
sS'meta'
p177
(lp178
(dp179
S'objective'
p180
I1
sS'query_time'
p181
F26.961066007614136
sS'comp_time'
p182
F1.1207640171051025
sS'exec_cq'
p183
I9
sS'total_cq'
p184
I9
sa(dp185
g180
I3
sg181
F0.00716710090637207
sg182
F0.039045095443725586
sg183
I4
sg184
I4
sa(dp186
g180
I6
sg181
F0.00746607780456543
sg182
F0.16138792037963867
sg183
I2
sg184
I2
sasS'total_cqs'
p187
I9
ssI15
(dp188
S'iters'
p189
I3
sS'meta'
p190
(lp191
(dp192
S'objective'
p193
I0
sS'query_time'
p194
F3.0982298851013184
sS'comp_time'
p195
F0.20973801612854004
sS'exec_cq'
p196
I11
sS'total_cq'
p197
I11
sa(dp198
g193
I1
sg194
F0.01992511749267578
sg195
F0.06440615653991699
sg196
I5
sg197
I5
sa(dp199
g193
I3
sg194
F0.0008599758148193359
sg195
F0.003556966781616211
sg196
I2
sg197
I2
sasS'total_cqs'
p200
I11
ssI16
(dp201
S'iters'
p202
I1
sS'meta'
p203
(lp204
(dp205
S'objective'
p206
I22
sS'query_time'
p207
F0.047369956970214844
sS'comp_time'
p208
F0.00015616416931152344
sS'exec_cq'
p209
I8
sS'total_cq'
p210
I8
sasS'total_cqs'
p211
I8
ssI17
(dp212
S'iters'
p213
I3
sS'meta'
p214
(lp215
(dp216
S'objective'
p217
I2
sS'query_time'
p218
F0.8920979499816895
sS'comp_time'
p219
F0.02133798599243164
sS'exec_cq'
p220
I11
sS'total_cq'
p221
I11
sa(dp222
g217
I6
sg218
F0.002212047576904297
sg219
F0.011055946350097656
sg220
I6
sg221
I6
sa(dp223
g217
I6
sg218
F0.0024809837341308594
sg219
F0.00979304313659668
sg220
I2
sg221
I2
sasS'total_cqs'
p224
I11
ssI18
(dp225
S'iters'
p226
I2
sS'meta'
p227
(lp228
(dp229
S'objective'
p230
I38
sS'query_time'
p231
F0.22911405563354492
sS'comp_time'
p232
F0.0038061141967773438
sS'exec_cq'
p233
I11
sS'total_cq'
p234
I11
sa(dp235
g230
I32
sg231
F0.0002570152282714844
sg232
F0.0012881755828857422
sg233
I8
sg234
I8
sasS'total_cqs'
p236
I11
ssI19
(dp237
S'iters'
p238
I0
sS'meta'
p239
(lp240
sS'total_cqs'
p241
I1
ssI20
(dp242
S'iters'
p243
I0
sS'meta'
p244
(lp245
sS'total_cqs'
p246
I1
ssI21
(dp247
S'iters'
p248
I0
sS'meta'
p249
(lp250
sS'total_cqs'
p251
I1
ssI22
(dp252
S'iters'
p253
I1
sS'meta'
p254
(lp255
(dp256
S'objective'
p257
I141
sS'query_time'
p258
F0.11109089851379395
sS'comp_time'
p259
F0.00024008750915527344
sS'exec_cq'
p260
I18
sS'total_cq'
p261
I18
sasS'total_cqs'
p262
I18
ssI23
(dp263
S'iters'
p264
I2
sS'meta'
p265
(lp266
(dp267
S'objective'
p268
I82
sS'query_time'
p269
F0.08046817779541016
sS'comp_time'
p270
F0.0006527900695800781
sS'exec_cq'
p271
I16
sS'total_cq'
p272
I16
sa(dp273
g268
I83
sg269
F9.107589721679688e-05
sg270
F0.0003058910369873047
sg271
I14
sg272
I14
sasS'total_cqs'
p274
I16
ssI24
(dp275
S'iters'
p276
I0
sS'meta'
p277
(lp278
sS'total_cqs'
p279
I1
ssI25
(dp280
S'iters'
p281
I0
sS'meta'
p282
(lp283
sS'total_cqs'
p284
I1
ssI26
(dp285
S'iters'
p286
I1
sS'meta'
p287
(lp288
(dp289
S'objective'
p290
I837
sS'query_time'
p291
F0.19338202476501465
sS'comp_time'
p292
F0.0001761913299560547
sS'exec_cq'
p293
I42
sS'total_cq'
p294
I42
sasS'total_cqs'
p295
I42
ssI27
(dp296
S'iters'
p297
I3
sS'meta'
p298
(lp299
(dp300
S'objective'
p301
I299
sS'query_time'
p302
F17.200063943862915
sS'comp_time'
p303
F1.8130378723144531
sS'exec_cq'
p304
I30
sS'total_cq'
p305
I30
sa(dp306
g301
I5
sg302
F0.35499000549316406
sg303
F2.0574588775634766
sg304
I5
sg305
I5
sa(dp307
g301
I4
sg302
F0.02213287353515625
sg303
F0.23360872268676758
sg304
I3
sg305
I3
sasS'total_cqs'
p308
I30
ssI28
(dp309
S'iters'
p310
I0
sS'meta'
p311
(lp312
sS'total_cqs'
p313
I1
ssI29
(dp314
S'iters'
p315
I5
sS'meta'
p316
(lp317
(dp318
S'objective'
p319
I279
sS'query_time'
p320
F134.2435760498047
sS'comp_time'
p321
F13.512741804122925
sS'exec_cq'
p322
I49
sS'total_cq'
p323
I49
sa(dp324
g319
I19
sg320
F0.021353960037231445
sg321
F0.046486854553222656
sg322
I17
sg323
I17
sa(dp325
g319
I23
sg320
F0.5932199954986572
sg321
F0.03768515586853027
sg322
I7
sg323
I7
sa(dp326
g319
I23
sg320
F0.0008809566497802734
sg321
F0.004106998443603516
sg322
I4
sg323
I4
sa(dp327
g319
I2
sg320
F0.0005850791931152344
sg321
F0.002919912338256836
sg322
I2
sg323
I2
sasS'total_cqs'
p328
I49
ssI30
(dp329
S'iters'
p330
I1
sS'meta'
p331
(lp332
(dp333
S'objective'
p334
I1
sS'query_time'
p335
F0.6726760864257812
sS'comp_time'
p336
F0.028039932250976562
sS'exec_cq'
p337
I2
sS'total_cq'
p338
I2
sasS'total_cqs'
p339
I2
ssI31
(dp340
S'iters'
p341
I0
sS'meta'
p342
(lp343
sS'total_cqs'
p344
I1
ssI32
(dp345
S'iters'
p346
I1
sS'meta'
p347
(lp348
(dp349
S'objective'
p350
I1
sS'query_time'
p351
F0.012584924697875977
sS'comp_time'
p352
F0.0002472400665283203
sS'exec_cq'
p353
I2
sS'total_cq'
p354
I2
sasS'total_cqs'
p355
I2
ssI33
(dp356
S'iters'
p357
I5
sS'meta'
p358
(lp359
(dp360
S'objective'
p361
I3788
sS'query_time'
p362
F14.206436157226562
sS'comp_time'
p363
F0.12384605407714844
sS'exec_cq'
p364
I103
sS'total_cq'
p365
I103
sa(dp366
g361
I10
sg362
F0.008282899856567383
sg363
F0.04837775230407715
sg364
I16
sg365
I16
sa(dp367
g361
I33
sg362
F0.004742860794067383
sg363
F0.017041921615600586
sg364
I10
sg365
I10
sa(dp368
g361
I12
sg362
F0.0009119510650634766
sg363
F0.002840757369995117
sg364
I5
sg365
I5
sa(dp369
g361
I61
sg362
F0.00017213821411132812
sg363
F0.0009329319000244141
sg364
I2
sg365
I2
sasS'total_cqs'
p370
I103
ssI34
(dp371
S'iters'
p372
I1
sS'meta'
p373
(lp374
(dp375
S'objective'
p376
I1
sS'query_time'
p377
F0.01798105239868164
sS'comp_time'
p378
F0.0005660057067871094
sS'exec_cq'
p379
I2
sS'total_cq'
p380
I2
sasS'total_cqs'
p381
I2
ssI35
(dp382
S'iters'
p383
I16
sS'meta'
p384
(lp385
(dp386
S'objective'
p387
I2361
sS'query_time'
p388
F50.85804510116577
sS'comp_time'
p389
F3.3989500999450684
sS'exec_cq'
p390
I70
sS'total_cq'
p391
I70
sa(dp392
g387
I2303
sg388
F0.8246579170227051
sg389
F3.364386796951294
sg390
I69
sg391
I69
sa(dp393
g387
I2263
sg388
F0.8353490829467773
sg389
F3.314692258834839
sg390
I68
sg391
I68
sa(dp394
g387
I2225
sg388
F0.8213779926300049
sg389
F3.211026668548584
sg390
I67
sg391
I67
sa(dp395
g387
I2195
sg388
F0.830366849899292
sg389
F3.1720778942108154
sg390
I66
sg391
I66
sa(dp396
g387
I2122
sg388
F0.00021195411682128906
sg389
F0.05170392990112305
sg390
I65
sg391
I65
sa(dp397
g387
I2037
sg388
F0.28292298316955566
sg389
F0.23152613639831543
sg390
I62
sg391
I62
sa(dp398
g387
I1935
sg388
F0.3712031841278076
sg389
F0.18894195556640625
sg390
I61
sg391
I61
sa(dp399
g387
I1809
sg388
F0.20165514945983887
sg389
F0.18845200538635254
sg390
I59
sg391
I59
sa(dp400
g387
I1703
sg388
F0.1930851936340332
sg389
F0.17299199104309082
sg390
I57
sg391
I57
sa(dp401
g387
I1677
sg388
F0.18032002449035645
sg389
F0.18836021423339844
sg390
I55
sg391
I55
sa(dp402
g387
I1433
sg388
F0.1452651023864746
sg389
F0.14882707595825195
sg390
I54
sg391
I54
sa(dp403
g387
I1470
sg388
F0.13780617713928223
sg389
F0.1385819911956787
sg390
I50
sg391
I50
sa(dp404
g387
I1339
sg388
F0.16655302047729492
sg389
F0.13509631156921387
sg390
I49
sg391
I49
sa(dp405
g387
I1322
sg388
F0.19079327583312988
sg389
F0.1335008144378662
sg390
I46
sg391
I46
sa(dp406
g387
I1270
sg388
F0.13073301315307617
sg389
F0.13272786140441895
sg390
I45
sg391
I45
sasS'total_cqs'
p407
I70
ssI36
(dp408
S'iters'
p409
I4
sS'meta'
p410
(lp411
(dp412
S'objective'
p413
I401
sS'query_time'
p414
F0.7776541709899902
sS'comp_time'
p415
F0.03347277641296387
sS'exec_cq'
p416
I33
sS'total_cq'
p417
I33
sa(dp418
g413
I359
sg414
F0.0025501251220703125
sg415
F0.011268138885498047
sg416
I29
sg417
I29
sa(dp419
g413
I366
sg414
F0.0016379356384277344
sg415
F0.0075168609619140625
sg416
I25
sg417
I25
sa(dp420
g413
I341
sg414
F0.00047898292541503906
sg415
F0.002560138702392578
sg416
I24
sg417
I24
sasS'total_cqs'
p421
I33
ssI37
(dp422
S'iters'
p423
I1
sS'meta'
p424
(lp425
(dp426
S'objective'
p427
I1
sS'query_time'
p428
F0.010542869567871094
sS'comp_time'
p429
F0.00032806396484375
sS'exec_cq'
p430
I2
sS'total_cq'
p431
I2
sasS'total_cqs'
p432
I2
ssI38
(dp433
S'iters'
p434
I2
sS'meta'
p435
(lp436
(dp437
S'objective'
p438
I0
sS'query_time'
p439
F0.024821043014526367
sS'comp_time'
p440
F0.0005109310150146484
sS'exec_cq'
p441
I4
sS'total_cq'
p442
I4
sa(dp443
g438
I3
sg439
F8.702278137207031e-05
sg440
F0.00038504600524902344
sg441
I2
sg442
I2
sasS'total_cqs'
p444
I4
ssI39
(dp445
S'iters'
p446
I2
sS'meta'
p447
(lp448
(dp449
S'objective'
p450
I698
sS'query_time'
p451
F0.1873490810394287
sS'comp_time'
p452
F0.0019507408142089844
sS'exec_cq'
p453
I44
sS'total_cq'
p454
I44
sa(dp455
g450
I776
sg451
F0.0003008842468261719
sg452
F0.006219148635864258
sg453
I37
sg454
I37
sasS'total_cqs'
p456
I44
ssI40
(dp457
S'iters'
p458
I1
sS'meta'
p459
(lp460
(dp461
S'objective'
p462
I14
sS'query_time'
p463
F0.04863095283508301
sS'comp_time'
p464
F0.00011301040649414062
sS'exec_cq'
p465
I7
sS'total_cq'
p466
I7
sasS'total_cqs'
p467
I7
ssI41
(dp468
S'iters'
p469
I2
sS'meta'
p470
(lp471
(dp472
S'objective'
p473
I56
sS'query_time'
p474
F0.08045101165771484
sS'comp_time'
p475
F0.00012493133544921875
sS'exec_cq'
p476
I12
sS'total_cq'
p477
I12
sa(dp478
g473
I47
sg474
F4.506111145019531e-05
sg475
F5.698204040527344e-05
sg476
I11
sg477
I11
sasS'total_cqs'
p479
I12
ssI42
(dp480
S'iters'
p481
I1
sS'meta'
p482
(lp483
(dp484
S'objective'
p485
I797
sS'query_time'
p486
F0.11596012115478516
sS'comp_time'
p487
F0.00021314620971679688
sS'exec_cq'
p488
I41
sS'total_cq'
p489
I41
sasS'total_cqs'
p490
I41
ssI43
(dp491
S'iters'
p492
I1
sS'meta'
p493
(lp494
(dp495
S'objective'
p496
I14
sS'query_time'
p497
F0.034761905670166016
sS'comp_time'
p498
F0.00010800361633300781
sS'exec_cq'
p499
I7
sS'total_cq'
p500
I7
sasS'total_cqs'
p501
I7
ssI44
(dp502
S'iters'
p503
I4
sS'meta'
p504
(lp505
(dp506
S'objective'
p507
I852
sS'query_time'
p508
F0.19214892387390137
sS'comp_time'
p509
F0.0012509822845458984
sS'exec_cq'
p510
I47
sS'total_cq'
p511
I47
sa(dp512
g507
I850
sg508
F0.0002760887145996094
sg509
F0.0008749961853027344
sg510
I40
sg511
I40
sa(dp513
g507
I30
sg508
F0.003008127212524414
sg509
F0.0007040500640869141
sg510
I3
sg511
I3
sa(dp514
g507
I24
sg508
F2.288818359375e-05
sg509
F0.00011181831359863281
sg510
I2
sg511
I2
sasS'total_cqs'
p515
I47
ssI45
(dp516
S'iters'
p517
I0
sS'meta'
p518
(lp519
sS'total_cqs'
p520
I1
ssI46
(dp521
S'iters'
p522
I1
sS'meta'
p523
(lp524
(dp525
S'objective'
p526
I9
sS'query_time'
p527
F0.022082090377807617
sS'comp_time'
p528
F0.0004711151123046875
sS'exec_cq'
p529
I6
sS'total_cq'
p530
I6
sasS'total_cqs'
p531
I6
ssI47
(dp532
S'iters'
p533
I1
sS'meta'
p534
(lp535
(dp536
S'objective'
p537
I1
sS'query_time'
p538
F0.009121894836425781
sS'comp_time'
p539
F0.00026702880859375
sS'exec_cq'
p540
I2
sS'total_cq'
p541
I2
sasS'total_cqs'
p542
I2
ssI48
(dp543
S'iters'
p544
I0
sS'meta'
p545
(lp546
sS'total_cqs'
p547
I1
ssI49
(dp548
S'iters'
p549
I0
sS'meta'
p550
(lp551
sS'total_cqs'
p552
I1
ssI50
(dp553
S'iters'
p554
I1
sS'meta'
p555
(lp556
(dp557
S'objective'
p558
I5
sS'query_time'
p559
F0.015719890594482422
sS'comp_time'
p560
F0.00013589859008789062
sS'exec_cq'
p561
I5
sS'total_cq'
p562
I5
sasS'total_cqs'
p563
I5
ssI51
(dp564
S'iters'
p565
I1
sS'meta'
p566
(lp567
(dp568
S'objective'
p569
I1
sS'query_time'
p570
F0.007084846496582031
sS'comp_time'
p571
F0.00013899803161621094
sS'exec_cq'
p572
I2
sS'total_cq'
p573
I2
sasS'total_cqs'
p574
I2
ssI52
(dp575
S'iters'
p576
I1
sS'meta'
p577
(lp578
(dp579
S'objective'
p580
I1
sS'query_time'
p581
F0.00833582878112793
sS'comp_time'
p582
F0.0001919269561767578
sS'exec_cq'
p583
I2
sS'total_cq'
p584
I2
sasS'total_cqs'
p585
I2
ssI53
(dp586
S'iters'
p587
I1
sS'meta'
p588
(lp589
(dp590
S'objective'
p591
I2
sS'query_time'
p592
F0.02547001838684082
sS'comp_time'
p593
F0.0007002353668212891
sS'exec_cq'
p594
I4
sS'total_cq'
p595
I4
sasS'total_cqs'
p596
I4
ssI54
(dp597
S'iters'
p598
I2
sS'meta'
p599
(lp600
(dp601
S'objective'
p602
I0
sS'query_time'
p603
F0.011361122131347656
sS'comp_time'
p604
F0.0002727508544921875
sS'exec_cq'
p605
I3
sS'total_cq'
p606
I3
sa(dp607
g602
I1
sg603
F4.9114227294921875e-05
sg604
F0.0002231597900390625
sg605
I2
sg606
I2
sasS'total_cqs'
p608
I3
ssI55
(dp609
S'iters'
p610
I7
sS'meta'
p611
(lp612
(dp613
S'objective'
p614
I4409
sS'query_time'
p615
F2.4673471450805664
sS'comp_time'
p616
F0.0667119026184082
sS'exec_cq'
p617
I109
sS'total_cq'
p618
I109
sa(dp619
g614
I4656
sg615
F0.0008151531219482422
sg616
F0.0016477108001708984
sg617
I97
sg618
I97
sa(dp620
g614
I4533
sg615
F0.0002951622009277344
sg616
F0.0007960796356201172
sg617
I91
sg618
I91
sa(dp621
g614
I4467
sg615
F0.00028586387634277344
sg616
F0.0007529258728027344
sg617
I87
sg618
I87
sa(dp622
g614
I4353
sg615
F0.00027108192443847656
sg616
F0.0008039474487304688
sg617
I85
sg618
I85
sa(dp623
g614
I4280
sg615
F0.00024890899658203125
sg616
F0.000514984130859375
sg617
I83
sg618
I83
sa(dp624
g614
I4212
sg615
F0.00024008750915527344
sg616
F0.004940032958984375
sg617
I82
sg618
I82
sasS'total_cqs'
p625
I109
ssI56
(dp626
S'iters'
p627
I5
sS'meta'
p628
(lp629
(dp630
S'objective'
p631
I1726
sS'query_time'
p632
F3.425497055053711
sS'comp_time'
p633
F0.1329939365386963
sS'exec_cq'
p634
I76
sS'total_cq'
p635
I76
sa(dp636
g631
I24
sg632
F0.005290985107421875
sg633
F0.009701013565063477
sg634
I16
sg635
I16
sa(dp637
g631
I10
sg632
F0.003320932388305664
sg633
F0.00820016860961914
sg634
I10
sg635
I10
sa(dp638
g631
I7
sg632
F0.00028204917907714844
sg633
F0.0012569427490234375
sg634
I4
sg635
I4
sa(dp639
g631
I39
sg632
F0.00013709068298339844
sg633
F0.0009129047393798828
sg634
I2
sg635
I2
sasS'total_cqs'
p640
I76
ssI57
(dp641
S'iters'
p642
I5
sS'meta'
p643
(lp644
(dp645
S'objective'
p646
I16
sS'query_time'
p647
F67.7138741016388
sS'comp_time'
p648
F3.4499170780181885
sS'exec_cq'
p649
I51
sS'total_cq'
p650
I51
sa(dp651
g646
I15
sg647
F0.01400303840637207
sg648
F0.027861833572387695
sg649
I27
sg650
I27
sa(dp652
g646
I11
sg647
F0.00912022590637207
sg648
F0.2322709560394287
sg649
I11
sg650
I11
sa(dp653
g646
I3
sg647
F0.002145051956176758
sg648
F0.005550384521484375
sg649
I6
sg650
I6
sa(dp654
g646
I8
sg647
F0.0008301734924316406
sg648
F0.003849029541015625
sg649
I3
sg650
I3
sasS'total_cqs'
p655
I51
ssI58
(dp656
S'iters'
p657
I8
sS'meta'
p658
(lp659
(dp660
S'objective'
p661
I86057
sS'query_time'
p662
F291.7344410419464
sS'comp_time'
p663
F16.6320481300354
sS'exec_cq'
p664
I486
sS'total_cq'
p665
I486
sa(dp666
g661
I9706
sg662
F0.03482699394226074
sg663
F0.17958998680114746
sg664
I64
sg665
I64
sa(dp667
g661
I3670
sg662
F0.024576187133789062
sg663
F0.18909978866577148
sg664
I52
sg665
I52
sa(dp668
g661
I2709
sg662
F0.019253015518188477
sg663
F0.9130160808563232
sg664
I32
sg665
I32
sa(dp669
g661
I101
sg662
F0.008265972137451172
sg663
F0.03241991996765137
sg664
I21
sg665
I21
sa(dp670
g661
I228
sg662
F0.00504302978515625
sg663
F0.035842180252075195
sg664
I11
sg665
I11
sa(dp671
g661
I41
sg662
F0.0036110877990722656
sg663
F0.02936267852783203
sg664
I7
sg665
I7
sa(dp672
g661
I5
sg662
F0.003367900848388672
sg663
F0.022362709045410156
sg664
I4
sg665
I4
sasS'total_cqs'
p673
I486
ssI59
(dp674
S'iters'
p675
I2
sS'meta'
p676
(lp677
(dp678
S'objective'
p679
I2
sS'query_time'
p680
F0.04853010177612305
sS'comp_time'
p681
F0.000888824462890625
sS'exec_cq'
p682
I7
sS'total_cq'
p683
I7
sa(dp684
g679
I1
sg680
F0.00013899803161621094
sg681
F0.0008702278137207031
sg682
I2
sg683
I2
sasS'total_cqs'
p685
I7
ssI60
(dp686
S'iters'
p687
I1
sS'meta'
p688
(lp689
(dp690
S'objective'
p691
I5
sS'query_time'
p692
F0.019869089126586914
sS'comp_time'
p693
F0.00032210350036621094
sS'exec_cq'
p694
I5
sS'total_cq'
p695
I5
sasS'total_cqs'
p696
I5
ssI61
(dp697
S'iters'
p698
I0
sS'meta'
p699
(lp700
sS'total_cqs'
p701
I1
ssI62
(dp702
S'iters'
p703
I2
sS'meta'
p704
(lp705
(dp706
S'objective'
p707
I24
sS'query_time'
p708
F0.04791903495788574
sS'comp_time'
p709
F0.00017905235290527344
sS'exec_cq'
p710
I12
sS'total_cq'
p711
I12
sa(dp712
g707
I31
sg708
F5.1975250244140625e-05
sg709
F8.487701416015625e-05
sg710
I9
sg711
I9
sasS'total_cqs'
p713
I12
ssI63
(dp714
S'iters'
p715
I0
sS'meta'
p716
(lp717
sS'total_cqs'
p718
I1
ssI64
(dp719
S'iters'
p720
I3
sS'meta'
p721
(lp722
(dp723
S'objective'
p724
I10
sS'query_time'
p725
F0.13640713691711426
sS'comp_time'
p726
F0.003592967987060547
sS'exec_cq'
p727
I12
sS'total_cq'
p728
I12
sa(dp729
g724
I4
sg725
F0.000102996826171875
sg726
F0.00037598609924316406
sg727
I4
sg728
I4
sa(dp730
g724
I1
sg725
F2.3126602172851562e-05
sg726
F0.00010395050048828125
sg727
I2
sg728
I2
sasS'total_cqs'
p731
I12
ssI65
(dp732
S'iters'
p733
I4
sS'meta'
p734
(lp735
(dp736
S'objective'
p737
I162
sS'query_time'
p738
F0.8048131465911865
sS'comp_time'
p739
F0.03406786918640137
sS'exec_cq'
p740
I27
sS'total_cq'
p741
I27
sa(dp742
g737
I0
sg738
F0.0012629032135009766
sg739
F0.004231691360473633
sg740
I7
sg741
I7
sa(dp743
g737
I6
sg738
F0.0003590583801269531
sg739
F0.002026081085205078
sg740
I4
sg741
I4
sa(dp744
g737
I20
sg738
F7.987022399902344e-05
sg739
F0.00047397613525390625
sg740
I2
sg741
I2
sasS'total_cqs'
p745
I27
ssI66
(dp746
S'iters'
p747
I0
sS'meta'
p748
(lp749
sS'total_cqs'
p750
I1
ssI67
(dp751
S'iters'
p752
I2
sS'meta'
p753
(lp754
(dp755
S'objective'
p756
I510
sS'query_time'
p757
F1.4025030136108398
sS'comp_time'
p758
F0.01172018051147461
sS'exec_cq'
p759
I35
sS'total_cq'
p760
I35
sa(dp761
g756
I4
sg757
F0.0010600090026855469
sg758
F0.00513911247253418
sg759
I2
sg760
I2
sasS'total_cqs'
p762
I35
ssI68
(dp763
S'iters'
p764
I0
sS'meta'
p765
(lp766
sS'total_cqs'
p767
I1
ssI69
(dp768
S'iters'
p769
I1
sS'meta'
p770
(lp771
(dp772
S'objective'
p773
I1246
sS'query_time'
p774
F0.20878195762634277
sS'comp_time'
p775
F0.000263214111328125
sS'exec_cq'
p776
I51
sS'total_cq'
p777
I51
sasS'total_cqs'
p778
I51
ssI70
(dp779
S'iters'
p780
I1
sS'meta'
p781
(lp782
(dp783
S'objective'
p784
I9
sS'query_time'
p785
F0.022526979446411133
sS'comp_time'
p786
F0.0002200603485107422
sS'exec_cq'
p787
I6
sS'total_cq'
p788
I6
sasS'total_cqs'
p789
I6
ssI71
(dp790
S'iters'
p791
I5
sS'meta'
p792
(lp793
(dp794
S'objective'
p795
I3309
sS'query_time'
p796
F0.4071080684661865
sS'comp_time'
p797
F0.0011298656463623047
sS'exec_cq'
p798
I85
sS'total_cq'
p799
I85
sa(dp800
g795
I3216
sg796
F0.0004417896270751953
sg797
F0.0008749961853027344
sg798
I81
sg799
I81
sa(dp801
g795
I3101
sg796
F0.0003750324249267578
sg797
F0.000698089599609375
sg798
I78
sg799
I78
sa(dp802
g795
I3003
sg796
F0.00034999847412109375
sg797
F0.0041980743408203125
sg798
I74
sg799
I74
sa(dp803
g795
I19
sg796
F0.0020508766174316406
sg797
F0.00017213821411132812
sg798
I3
sg799
I3
sasS'total_cqs'
p804
I85
ssI72
(dp805
S'iters'
p806
I3
sS'meta'
p807
(lp808
(dp809
S'objective'
p810
I2
sS'query_time'
p811
F0.38649892807006836
sS'comp_time'
p812
F0.00677180290222168
sS'exec_cq'
p813
I8
sS'total_cq'
p814
I8
sa(dp815
g810
I1
sg811
F0.00010180473327636719
sg812
F0.00028777122497558594
sg813
I5
sg814
I5
sa(dp816
g810
I4
sg811
F3.314018249511719e-05
sg812
F0.00012993812561035156
sg813
I3
sg814
I3
sasS'total_cqs'
p817
I8
ssI73
(dp818
S'iters'
p819
I0
sS'meta'
p820
(lp821
sS'total_cqs'
p822
I1
ssI74
(dp823
S'iters'
p824
I0
sS'meta'
p825
(lp826
sS'total_cqs'
p827
I1
ssI75
(dp828
S'iters'
p829
I1
sS'meta'
p830
(lp831
(dp832
S'objective'
p833
I5
sS'query_time'
p834
F0.014555931091308594
sS'comp_time'
p835
F0.00011491775512695312
sS'exec_cq'
p836
I5
sS'total_cq'
p837
I5
sasS'total_cqs'
p838
I5
ssI76
(dp839
S'iters'
p840
I1
sS'meta'
p841
(lp842
(dp843
S'objective'
p844
I1
sS'query_time'
p845
F0.014356851577758789
sS'comp_time'
p846
F0.00033783912658691406
sS'exec_cq'
p847
I2
sS'total_cq'
p848
I2
sasS'total_cqs'
p849
I2
ssI77
(dp850
S'iters'
p851
I0
sS'meta'
p852
(lp853
sS'total_cqs'
p854
I1
ssI78
(dp855
S'iters'
p856
I0
sS'meta'
p857
(lp858
sS'total_cqs'
p859
I1
ssI103
(dp860
S'iters'
p861
I1
sS'meta'
p862
(lp863
(dp864
S'objective'
p865
I58
sS'query_time'
p866
F0.08153295516967773
sS'comp_time'
p867
F0.00015735626220703125
sS'exec_cq'
p868
I12
sS'total_cq'
p869
I12
sasS'total_cqs'
p870
I12
ssI104
(dp871
S'iters'
p872
I2
sS'meta'
p873
(lp874
(dp875
S'objective'
p876
I0
sS'query_time'
p877
F1.549088954925537
sS'comp_time'
p878
F0.08292007446289062
sS'exec_cq'
p879
I4
sS'total_cq'
p880
I4
sa(dp881
g876
I3
sg877
F0.010431051254272461
sg878
F0.07694172859191895
sg879
I2
sg880
I2
sasS'total_cqs'
p882
I4
ssI105
(dp883
S'iters'
p884
I0
sS'meta'
p885
(lp886
sS'total_cqs'
p887
I1
ssI106
(dp888
S'iters'
p889
I1
sS'meta'
p890
(lp891
(dp892
S'objective'
p893
I2
sS'query_time'
p894
F0.024801969528198242
sS'comp_time'
p895
F8.296966552734375e-05
sS'exec_cq'
p896
I4
sS'total_cq'
p897
I4
sasS'total_cqs'
p898
I4
ssI107
(dp899
S'iters'
p900
I2
sS'meta'
p901
(lp902
(dp903
S'objective'
p904
I74
sS'query_time'
p905
F0.10560083389282227
sS'comp_time'
p906
F0.00021791458129882812
sS'exec_cq'
p907
I16
sS'total_cq'
p908
I16
sa(dp909
g904
I5
sg905
F0.006990194320678711
sg906
F0.00010395050048828125
sg907
I3
sg908
I3
sasS'total_cqs'
p910
I16
ssI108
(dp911
S'iters'
p912
I0
sS'meta'
p913
(lp914
sS'total_cqs'
p915
I1
ss.