(dp0
I1
(dp1
S'iters'
p2
I3
sS'meta'
p3
(lp4
(dp5
S'objective'
p6
I54
sS'query_time'
p7
F0.035923004150390625
sS'comp_time'
p8
F0.00021886825561523438
sS'exec_cq'
p9
I12
sS'total_cq'
p10
I12
sa(dp11
g6
I42
sg7
F4.792213439941406e-05
sg8
F6.985664367675781e-05
sg9
I10
sg10
I10
sa(dp12
g6
I46
sg7
F3.695487976074219e-05
sg8
F5.91278076171875e-05
sg9
I9
sg10
I9
sasS'total_cqs'
p13
I12
ssI2
(dp14
S'iters'
p15
I6
sS'meta'
p16
(lp17
(dp18
S'objective'
p19
I212
sS'query_time'
p20
F0.1082448959350586
sS'comp_time'
p21
F0.00107574462890625
sS'exec_cq'
p22
I27
sS'total_cq'
p23
I27
sa(dp24
g19
I225
sg20
F0.00015497207641601562
sg21
F0.0005137920379638672
sg22
I23
sg23
I23
sa(dp25
g19
I210
sg20
F0.000102996826171875
sg21
F0.0002942085266113281
sg22
I20
sg23
I20
sa(dp26
g19
I199
sg20
F9.608268737792969e-05
sg21
F0.00021195411682128906
sg22
I19
sg23
I19
sa(dp27
g19
I195
sg20
F8.20159912109375e-05
sg21
F0.00017499923706054688
sg22
I17
sg23
I17
sa(dp28
g19
I190
sg20
F6.580352783203125e-05
sg21
F8.797645568847656e-05
sg22
I16
sg23
I16
sasS'total_cqs'
p29
I27
ssI3
(dp30
S'iters'
p31
I4
sS'meta'
p32
(lp33
(dp34
S'objective'
p35
I184
sS'query_time'
p36
F160.8582079410553
sS'comp_time'
p37
F1.9037227630615234
sS'exec_cq'
p38
I43
sS'total_cq'
p39
I43
sa(dp40
g35
I31
sg36
F0.40624189376831055
sg37
F1.438689947128296
sg38
I27
sg39
I27
sa(dp41
g35
I44
sg36
F0.04809713363647461
sg37
F0.4051518440246582
sg38
I13
sg39
I13
sa(dp42
g35
I147
sg36
F6.222724914550781e-05
sg37
F0.0043010711669921875
sg38
I7
sg39
I7
sasS'total_cqs'
p43
I43
ssI4
(dp44
S'iters'
p45
I2
sS'meta'
p46
(lp47
(dp48
S'objective'
p49
I56
sS'query_time'
p50
F3.9750709533691406
sS'comp_time'
p51
F0.35839390754699707
sS'exec_cq'
p52
I11
sS'total_cq'
p53
I11
sa(dp54
g49
I3
sg50
F0.10544419288635254
sg51
F0.3898732662200928
sg52
I2
sg53
I2
sasS'total_cqs'
p55
I11
ssI5
(dp56
S'iters'
p57
I3
sS'meta'
p58
(lp59
(dp60
S'objective'
p61
I0
sS'query_time'
p62
F27.457257986068726
sS'comp_time'
p63
F2.9370157718658447
sS'exec_cq'
p64
I8
sS'total_cq'
p65
I8
sa(dp66
g61
I0
sg62
F0.01134800910949707
sg63
F0.045638084411621094
sg64
I4
sg65
I4
sa(dp67
g61
I3
sg62
F0.007654905319213867
sg63
F0.03398585319519043
sg64
I2
sg65
I2
sasS'total_cqs'
p68
I8
ssI6
(dp69
S'iters'
p70
I4
sS'meta'
p71
(lp72
(dp73
S'objective'
p74
I15
sS'query_time'
p75
F30.199501991271973
sS'comp_time'
p76
F2.1317601203918457
sS'exec_cq'
p77
I18
sS'total_cq'
p78
I18
sa(dp79
g74
I0
sg75
F0.5466949939727783
sg76
F2.1654717922210693
sg77
I7
sg78
I7
sa(dp80
g74
I5
sg75
F0.5196270942687988
sg76
F2.3398959636688232
sg77
I4
sg78
I4
sa(dp81
g74
I5
sg75
F0.2906608581542969
sg76
F1.2679328918457031
sg77
I2
sg78
I2
sasS'total_cqs'
p82
I18
ssI7
(dp83
S'iters'
p84
I3
sS'meta'
p85
(lp86
(dp87
S'objective'
p88
I1
sS'query_time'
p89
F9.939695119857788
sS'comp_time'
p90
F0.9254519939422607
sS'exec_cq'
p91
I9
sS'total_cq'
p92
I9
sa(dp93
g88
I1
sg89
F0.009829998016357422
sg90
F0.040010929107666016
sg91
I5
sg92
I5
sa(dp94
g88
I4
sg89
F0.10084199905395508
sg90
F0.034481048583984375
sg91
I2
sg92
I2
sasS'total_cqs'
p95
I9
ssI8
(dp96
S'iters'
p97
I5
sS'meta'
p98
(lp99
(dp100
S'objective'
p101
I248
sS'query_time'
p102
F0.1248929500579834
sS'comp_time'
p103
F0.001077890396118164
sS'exec_cq'
p104
I27
sS'total_cq'
p105
I27
sa(dp106
g101
I195
sg102
F0.00013208389282226562
sg103
F0.00032019615173339844
sg104
I22
sg105
I22
sa(dp107
g101
I204
sg102
F6.699562072753906e-05
sg103
F8.511543273925781e-05
sg104
I19
sg105
I19
sa(dp108
g101
I211
sg102
F6.008148193359375e-05
sg103
F6.914138793945312e-05
sg104
I18
sg105
I18
sa(dp109
g101
I204
sg102
F5.507469177246094e-05
sg103
F5.1021575927734375e-05
sg104
I17
sg105
I17
sasS'total_cqs'
p110
I27
ssI9
(dp111
S'iters'
p112
I3
sS'meta'
p113
(lp114
(dp115
S'objective'
p116
I2
sS'query_time'
p117
F0.05621600151062012
sS'comp_time'
p118
F0.00026297569274902344
sS'exec_cq'
p119
I7
sS'total_cq'
p120
I7
sa(dp121
g116
I3
sg117
F3.0994415283203125e-05
sg118
F6.413459777832031e-05
sg119
I4
sg120
I4
sa(dp122
g116
I1
sg117
F1.5020370483398438e-05
sg118
F4.7206878662109375e-05
sg119
I2
sg120
I2
sasS'total_cqs'
p123
I7
ssI10
(dp124
S'iters'
p125
I7
sS'meta'
p126
(lp127
(dp128
S'objective'
p129
I592
sS'query_time'
p130
F0.3716881275177002
sS'comp_time'
p131
F0.0067729949951171875
sS'exec_cq'
p132
I51
sS'total_cq'
p133
I51
sa(dp134
g129
I321
sg130
F0.00042510032653808594
sg131
F0.0013420581817626953
sg132
I37
sg133
I37
sa(dp135
g129
I442
sg130
F0.00017309188842773438
sg131
F0.0006020069122314453
sg132
I25
sg133
I25
sa(dp136
g129
I449
sg130
F9.584426879882812e-05
sg131
F0.00023889541625976562
sg132
I21
sg133
I21
sa(dp137
g129
I423
sg130
F9.202957153320312e-05
sg131
F0.0002200603485107422
sg132
I20
sg133
I20
sa(dp138
g129
I6
sg130
F0.0015749931335449219
sg131
F9.918212890625e-05
sg132
I3
sg133
I3
sa(dp139
g129
I7
sg130
F1.811981201171875e-05
sg131
F6.29425048828125e-05
sg132
I2
sg133
I2
sasS'total_cqs'
p140
I51
ssI11
(dp141
S'iters'
p142
I7
sS'meta'
p143
(lp144
(dp145
S'objective'
p146
I884
sS'query_time'
p147
F0.5955049991607666
sS'comp_time'
p148
F0.014549016952514648
sS'exec_cq'
p149
I63
sS'total_cq'
p150
I63
sa(dp151
g146
I1010
sg147
F0.0011930465698242188
sg148
F0.004776954650878906
sg149
I47
sg150
I47
sa(dp152
g146
I894
sg147
F0.0006468296051025391
sg148
F0.003047943115234375
sg149
I40
sg150
I40
sa(dp153
g146
I828
sg147
F0.0004999637603759766
sg148
F0.0023200511932373047
sg149
I35
sg150
I35
sa(dp154
g146
I753
sg147
F0.0004940032958984375
sg148
F0.0022759437561035156
sg149
I33
sg150
I33
sa(dp155
g146
I0
sg147
F0.0011529922485351562
sg148
F9.322166442871094e-05
sg149
I5
sg150
I5
sa(dp156
g146
I14
sg147
F1.5020370483398438e-05
sg148
F5.0067901611328125e-05
sg149
I2
sg150
I2
sasS'total_cqs'
p157
I63
ssI12
(dp158
S'iters'
p159
I5
sS'meta'
p160
(lp161
(dp162
S'objective'
p163
I331
sS'query_time'
p164
F0.39741086959838867
sS'comp_time'
p165
F0.006600141525268555
sS'exec_cq'
p166
I50
sS'total_cq'
p167
I50
sa(dp168
g163
I349
sg164
F0.0004870891571044922
sg165
F0.0017552375793457031
sg166
I33
sg167
I33
sa(dp169
g163
I424
sg164
F0.00014400482177734375
sg165
F0.00043392181396484375
sg166
I26
sg167
I26
sa(dp170
g163
I28
sg164
F0.012185811996459961
sg165
F8.296966552734375e-05
sg166
I4
sg167
I4
sa(dp171
g163
I4
sg164
F1.5974044799804688e-05
sg165
F5.2928924560546875e-05
sg166
I2
sg167
I2
sasS'total_cqs'
p172
I50
ssI13
(dp173
S'iters'
p174
I4
sS'meta'
p175
(lp176
(dp177
S'objective'
p178
I26
sS'query_time'
p179
F0.17102289199829102
sS'comp_time'
p180
F0.0004000663757324219
sS'exec_cq'
p181
I20
sS'total_cq'
p182
I20
sa(dp183
g178
I22
sg179
F7.700920104980469e-05
sg180
F0.00010395050048828125
sg181
I14
sg182
I14
sa(dp184
g178
I2
sg179
F0.004336118698120117
sg180
F9.632110595703125e-05
sg181
I5
sg182
I5
sa(dp185
g178
I11
sg179
F2.384185791015625e-05
sg180
F7.104873657226562e-05
sg181
I3
sg182
I3
sasS'total_cqs'
p186
I20
ssI14
(dp187
S'iters'
p188
I4
sS'meta'
p189
(lp190
(dp191
S'objective'
p192
I1
sS'query_time'
p193
F27.27178406715393
sS'comp_time'
p194
F0.9563350677490234
sS'exec_cq'
p195
I9
sS'total_cq'
p196
I9
sa(dp197
g192
I2
sg193
F0.010693073272705078
sg194
F0.035742759704589844
sg195
I5
sg196
I5
sa(dp198
g192
I2
sg193
F0.0031762123107910156
sg194
F0.08897686004638672
sg195
I3
sg196
I3
sa(dp199
g192
I1
sg193
F0.0030410289764404297
sg194
F0.017770767211914062
sg195
I2
sg196
I2
sasS'total_cqs'
p200
I9
ssI15
(dp201
S'iters'
p202
I3
sS'meta'
p203
(lp204
(dp205
S'objective'
p206
I2
sS'query_time'
p207
F3.3621339797973633
sS'comp_time'
p208
F0.139617919921875
sS'exec_cq'
p209
I11
sS'total_cq'
p210
I11
sa(dp211
g206
I16
sg207
F0.0010421276092529297
sg208
F0.004045963287353516
sg209
I7
sg210
I7
sa(dp212
g206
I1
sg207
F0.0007190704345703125
sg208
F0.0029799938201904297
sg209
I2
sg210
I2
sasS'total_cqs'
p213
I11
ssI16
(dp214
S'iters'
p215
I1
sS'meta'
p216
(lp217
(dp218
S'objective'
p219
I30
sS'query_time'
p220
F0.018960952758789062
sS'comp_time'
p221
F0.00012493133544921875
sS'exec_cq'
p222
I8
sS'total_cq'
p223
I8
sasS'total_cqs'
p224
I8
ssI17
(dp225
S'iters'
p226
I4
sS'meta'
p227
(lp228
(dp229
S'objective'
p230
I2
sS'query_time'
p231
F0.9337730407714844
sS'comp_time'
p232
F0.02123117446899414
sS'exec_cq'
p233
I11
sS'total_cq'
p234
I11
sa(dp235
g230
I12
sg231
F0.0027151107788085938
sg232
F0.012889862060546875
sg233
I7
sg234
I7
sa(dp236
g230
I8
sg231
F0.0032188892364501953
sg232
F0.012055158615112305
sg233
I6
sg234
I6
sa(dp237
g230
I1
sg231
F0.0027120113372802734
sg232
F0.01288294792175293
sg233
I3
sg234
I3
sasS'total_cqs'
p238
I11
ssI18
(dp239
S'iters'
p240
I3
sS'meta'
p241
(lp242
(dp243
S'objective'
p244
I30
sS'query_time'
p245
F0.25114893913269043
sS'comp_time'
p246
F0.0045359134674072266
sS'exec_cq'
p247
I11
sS'total_cq'
p248
I11
sa(dp249
g244
I34
sg245
F0.0001881122589111328
sg246
F0.0006580352783203125
sg247
I9
sg248
I9
sa(dp250
g244
I33
sg245
F6.985664367675781e-05
sg246
F0.00028896331787109375
sg247
I7
sg248
I7
sasS'total_cqs'
p251
I11
ssI19
(dp252
S'iters'
p253
I0
sS'meta'
p254
(lp255
sS'total_cqs'
p256
I1
ssI20
(dp257
S'iters'
p258
I0
sS'meta'
p259
(lp260
sS'total_cqs'
p261
I1
ssI21
(dp262
S'iters'
p263
I0
sS'meta'
p264
(lp265
sS'total_cqs'
p266
I1
ssI22
(dp267
S'iters'
p268
I1
sS'meta'
p269
(lp270
(dp271
S'objective'
p272
I159
sS'query_time'
p273
F0.05322980880737305
sS'comp_time'
p274
F0.00018906593322753906
sS'exec_cq'
p275
I18
sS'total_cq'
p276
I18
sasS'total_cqs'
p277
I18
ssI23
(dp278
S'iters'
p279
I3
sS'meta'
p280
(lp281
(dp282
S'objective'
p283
I114
sS'query_time'
p284
F0.0625619888305664
sS'comp_time'
p285
F0.0005178451538085938
sS'exec_cq'
p286
I16
sS'total_cq'
p287
I16
sa(dp288
g283
I115
sg284
F6.413459777832031e-05
sg285
F7.605552673339844e-05
sg286
I15
sg287
I15
sa(dp289
g283
I110
sg284
F4.100799560546875e-05
sg285
F5.412101745605469e-05
sg286
I13
sg287
I13
sasS'total_cqs'
p290
I16
ssI24
(dp291
S'iters'
p292
I0
sS'meta'
p293
(lp294
sS'total_cqs'
p295
I1
ssI25
(dp296
S'iters'
p297
I0
sS'meta'
p298
(lp299
sS'total_cqs'
p300
I1
ssI26
(dp301
S'iters'
p302
I1
sS'meta'
p303
(lp304
(dp305
S'objective'
p306
I879
sS'query_time'
p307
F0.13332796096801758
sS'comp_time'
p308
F0.00017309188842773438
sS'exec_cq'
p309
I42
sS'total_cq'
p310
I42
sasS'total_cqs'
p311
I42
ssI27
(dp312
S'iters'
p313
I4
sS'meta'
p314
(lp315
(dp316
S'objective'
p317
I339
sS'query_time'
p318
F17.266559839248657
sS'comp_time'
p319
F2.1732606887817383
sS'exec_cq'
p320
I30
sS'total_cq'
p321
I30
sa(dp322
g317
I1
sg318
F0.4841959476470947
sg319
F2.3250319957733154
sg320
I5
sg321
I5
sa(dp323
g317
I9
sg318
F0.08567404747009277
sg319
F0.6272058486938477
sg320
I3
sg321
I3
sa(dp324
g317
I7
sg318
F0.14407801628112793
sg319
F0.39653682708740234
sg320
I2
sg321
I2
sasS'total_cqs'
p325
I30
ssI28
(dp326
S'iters'
p327
I0
sS'meta'
p328
(lp329
sS'total_cqs'
p330
I1
ssI29
(dp331
S'iters'
p332
I6
sS'meta'
p333
(lp334
(dp335
S'objective'
p336
I411
sS'query_time'
p337
F135.53595519065857
sS'comp_time'
p338
F13.790139198303223
sS'exec_cq'
p339
I49
sS'total_cq'
p340
I49
sa(dp341
g336
I55
sg337
F0.02342510223388672
sg338
F0.04896211624145508
sg339
I17
sg340
I17
sa(dp342
g336
I2
sg337
F0.5942749977111816
sg338
F0.05517005920410156
sg339
I9
sg340
I9
sa(dp343
g336
I3
sg337
F0.013392210006713867
sg338
F0.20090699195861816
sg339
I7
sg340
I7
sa(dp344
g336
I2
sg337
F0.0084228515625
sg338
F0.031984806060791016
sg339
I5
sg340
I5
sa(dp345
g336
I4
sg337
F0.0017199516296386719
sg338
F0.007178068161010742
sg339
I2
sg340
I2
sasS'total_cqs'
p346
I49
ssI30
(dp347
S'iters'
p348
I1
sS'meta'
p349
(lp350
(dp351
S'objective'
p352
I1
sS'query_time'
p353
F0.6775541305541992
sS'comp_time'
p354
F0.02359914779663086
sS'exec_cq'
p355
I2
sS'total_cq'
p356
I2
sasS'total_cqs'
p357
I2
ssI31
(dp358
S'iters'
p359
I0
sS'meta'
p360
(lp361
sS'total_cqs'
p362
I1
ssI32
(dp363
S'iters'
p364
I1
sS'meta'
p365
(lp366
(dp367
S'objective'
p368
I1
sS'query_time'
p369
F0.008879899978637695
sS'comp_time'
p370
F0.0002551078796386719
sS'exec_cq'
p371
I2
sS'total_cq'
p372
I2
sasS'total_cqs'
p373
I2
ssI33
(dp374
S'iters'
p375
I5
sS'meta'
p376
(lp377
(dp378
S'objective'
p379
I3800
sS'query_time'
p380
F14.633717060089111
sS'comp_time'
p381
F0.1232459545135498
sS'exec_cq'
p382
I103
sS'total_cq'
p383
I103
sa(dp384
g379
I18
sg380
F0.007021903991699219
sg381
F0.037602901458740234
sg382
I16
sg383
I16
sa(dp385
g379
I10
sg380
F0.003019094467163086
sg381
F0.012360811233520508
sg382
I8
sg383
I8
sa(dp386
g379
I4
sg380
F0.0013470649719238281
sg381
F0.006454944610595703
sg382
I4
sg383
I4
sa(dp387
g379
I50
sg380
F0.0006699562072753906
sg381
F0.0033278465270996094
sg382
I2
sg383
I2
sasS'total_cqs'
p388
I103
ssI34
(dp389
S'iters'
p390
I1
sS'meta'
p391
(lp392
(dp393
S'objective'
p394
I1
sS'query_time'
p395
F0.0180509090423584
sS'comp_time'
p396
F0.00047969818115234375
sS'exec_cq'
p397
I2
sS'total_cq'
p398
I2
sasS'total_cqs'
p399
I2
ssI35
(dp400
S'iters'
p401
I9
sS'meta'
p402
(lp403
(dp404
S'objective'
p405
I2355
sS'query_time'
p406
F45.95747780799866
sS'comp_time'
p407
F3.826606035232544
sS'exec_cq'
p408
I70
sS'total_cq'
p409
I70
sa(dp410
g405
I2294
sg406
F0.7109959125518799
sg407
F4.259897947311401
sg408
I69
sg409
I69
sa(dp411
g405
I2263
sg406
F0.0006039142608642578
sg407
F0.04923605918884277
sg408
I68
sg409
I68
sa(dp412
g405
I2252
sg406
F0.000431060791015625
sg407
F0.05602526664733887
sg408
I67
sg409
I67
sa(dp413
g405
I2225
sg406
F0.0006101131439208984
sg407
F0.04984307289123535
sg408
I66
sg409
I66
sa(dp414
g405
I2017
sg406
F0.00021600723266601562
sg407
F0.0512850284576416
sg408
I65
sg409
I65
sa(dp415
g405
I1831
sg406
F0.2998230457305908
sg407
F0.2128009796142578
sg408
I62
sg409
I62
sa(dp416
g405
I16
sg406
F0.0448298454284668
sg407
F0.038426876068115234
sg408
I4
sg409
I4
sa(dp417
g405
I46
sg406
F0.34191298484802246
sg407
F0.03376603126525879
sg408
I3
sg409
I3
sasS'total_cqs'
p418
I70
ssI36
(dp419
S'iters'
p420
I5
sS'meta'
p421
(lp422
(dp423
S'objective'
p424
I391
sS'query_time'
p425
F0.8056178092956543
sS'comp_time'
p426
F0.02721405029296875
sS'exec_cq'
p427
I33
sS'total_cq'
p428
I33
sa(dp429
g424
I386
sg425
F0.0024771690368652344
sg426
F0.01039886474609375
sg427
I29
sg428
I29
sa(dp430
g424
I395
sg425
F0.0015101432800292969
sg426
F0.007336854934692383
sg427
I25
sg428
I25
sa(dp431
g424
I385
sg425
F0.0010421276092529297
sg426
F0.00584864616394043
sg427
I24
sg428
I24
sa(dp432
g424
I379
sg425
F0.00011491775512695312
sg426
F0.0002989768981933594
sg427
I23
sg428
I23
sasS'total_cqs'
p433
I33
ssI37
(dp434
S'iters'
p435
I1
sS'meta'
p436
(lp437
(dp438
S'objective'
p439
I1
sS'query_time'
p440
F0.00881195068359375
sS'comp_time'
p441
F0.00026106834411621094
sS'exec_cq'
p442
I2
sS'total_cq'
p443
I2
sasS'total_cqs'
p444
I2
ssI38
(dp445
S'iters'
p446
I2
sS'meta'
p447
(lp448
(dp449
S'objective'
p450
I0
sS'query_time'
p451
F0.024556875228881836
sS'comp_time'
p452
F0.00047898292541503906
sS'exec_cq'
p453
I4
sS'total_cq'
p454
I4
sa(dp455
g450
I1
sg451
F6.890296936035156e-05
sg452
F0.000308990478515625
sg453
I2
sg454
I2
sasS'total_cqs'
p456
I4
ssI39
(dp457
S'iters'
p458
I2
sS'meta'
p459
(lp460
(dp461
S'objective'
p462
I648
sS'query_time'
p463
F0.19165992736816406
sS'comp_time'
p464
F0.0016210079193115234
sS'exec_cq'
p465
I44
sS'total_cq'
p466
I44
sa(dp467
g462
I795
sg463
F0.0003008842468261719
sg464
F0.0025360584259033203
sg465
I37
sg466
I37
sasS'total_cqs'
p468
I44
ssI40
(dp469
S'iters'
p470
I1
sS'meta'
p471
(lp472
(dp473
S'objective'
p474
I22
sS'query_time'
p475
F0.043453216552734375
sS'comp_time'
p476
F9.679794311523438e-05
sS'exec_cq'
p477
I7
sS'total_cq'
p478
I7
sasS'total_cqs'
p479
I7
ssI41
(dp480
S'iters'
p481
I2
sS'meta'
p482
(lp483
(dp484
S'objective'
p485
I64
sS'query_time'
p486
F0.08269691467285156
sS'comp_time'
p487
F0.00012111663818359375
sS'exec_cq'
p488
I12
sS'total_cq'
p489
I12
sa(dp490
g485
I63
sg486
F4.291534423828125e-05
sg487
F5.1975250244140625e-05
sg488
I11
sg489
I11
sasS'total_cqs'
p491
I12
ssI42
(dp492
S'iters'
p493
I3
sS'meta'
p494
(lp495
(dp496
S'objective'
p497
I801
sS'query_time'
p498
F0.13727807998657227
sS'comp_time'
p499
F0.00021791458129882812
sS'exec_cq'
p500
I41
sS'total_cq'
p501
I41
sa(dp502
g497
I805
sg498
F0.0001800060272216797
sg499
F0.00012803077697753906
sg500
I40
sg501
I40
sa(dp503
g497
I794
sg498
F0.0001480579376220703
sg499
F0.00010704994201660156
sg500
I39
sg501
I39
sasS'total_cqs'
p504
I41
ssI43
(dp505
S'iters'
p506
I1
sS'meta'
p507
(lp508
(dp509
S'objective'
p510
I22
sS'query_time'
p511
F0.029597997665405273
sS'comp_time'
p512
F9.107589721679688e-05
sS'exec_cq'
p513
I7
sS'total_cq'
p514
I7
sasS'total_cqs'
p515
I7
ssI44
(dp516
S'iters'
p517
I4
sS'meta'
p518
(lp519
(dp520
S'objective'
p521
I856
sS'query_time'
p522
F0.1667790412902832
sS'comp_time'
p523
F0.0013210773468017578
sS'exec_cq'
p524
I47
sS'total_cq'
p525
I47
sa(dp526
g521
I844
sg522
F0.0003390312194824219
sg523
F0.0013132095336914062
sg524
I40
sg525
I40
sa(dp527
g521
I6
sg522
F0.0013048648834228516
sg523
F0.0006809234619140625
sg524
I3
sg525
I3
sa(dp528
g521
I8
sg522
F0.00012493133544921875
sg523
F0.000698089599609375
sg524
I2
sg525
I2
sasS'total_cqs'
p529
I47
ssI45
(dp530
S'iters'
p531
I0
sS'meta'
p532
(lp533
sS'total_cqs'
p534
I1
ssI46
(dp535
S'iters'
p536
I2
sS'meta'
p537
(lp538
(dp539
S'objective'
p540
I11
sS'query_time'
p541
F0.01924300193786621
sS'comp_time'
p542
F0.00027179718017578125
sS'exec_cq'
p543
I6
sS'total_cq'
p544
I6
sa(dp545
g540
I10
sg541
F3.0994415283203125e-05
sg542
F6.508827209472656e-05
sg543
I5
sg544
I5
sasS'total_cqs'
p546
I6
ssI47
(dp547
S'iters'
p548
I1
sS'meta'
p549
(lp550
(dp551
S'objective'
p552
I1
sS'query_time'
p553
F0.009143829345703125
sS'comp_time'
p554
F0.0002548694610595703
sS'exec_cq'
p555
I2
sS'total_cq'
p556
I2
sasS'total_cqs'
p557
I2
ssI48
(dp558
S'iters'
p559
I0
sS'meta'
p560
(lp561
sS'total_cqs'
p562
I1
ssI49
(dp563
S'iters'
p564
I0
sS'meta'
p565
(lp566
sS'total_cqs'
p567
I1
ssI50
(dp568
S'iters'
p569
I3
sS'meta'
p570
(lp571
(dp572
S'objective'
p573
I5
sS'query_time'
p574
F0.01564311981201172
sS'comp_time'
p575
F0.00012421607971191406
sS'exec_cq'
p576
I5
sS'total_cq'
p577
I5
sa(dp578
g573
I2
sg574
F2.7894973754882812e-05
sg575
F8.487701416015625e-05
sg576
I4
sg577
I4
sa(dp579
g573
I0
sg574
F2.384185791015625e-05
sg575
F7.295608520507812e-05
sg576
I3
sg577
I3
sasS'total_cqs'
p580
I5
ssI51
(dp581
S'iters'
p582
I1
sS'meta'
p583
(lp584
(dp585
S'objective'
p586
I1
sS'query_time'
p587
F0.007814168930053711
sS'comp_time'
p588
F0.000148773193359375
sS'exec_cq'
p589
I2
sS'total_cq'
p590
I2
sasS'total_cqs'
p591
I2
ssI52
(dp592
S'iters'
p593
I1
sS'meta'
p594
(lp595
(dp596
S'objective'
p597
I1
sS'query_time'
p598
F0.007616996765136719
sS'comp_time'
p599
F0.00018787384033203125
sS'exec_cq'
p600
I2
sS'total_cq'
p601
I2
sasS'total_cqs'
p602
I2
ssI53
(dp603
S'iters'
p604
I3
sS'meta'
p605
(lp606
(dp607
S'objective'
p608
I2
sS'query_time'
p609
F0.020593881607055664
sS'comp_time'
p610
F0.0005800724029541016
sS'exec_cq'
p611
I4
sS'total_cq'
p612
I4
sa(dp613
g608
I0
sg609
F9.799003601074219e-05
sg610
F0.000492095947265625
sg611
I3
sg612
I3
sa(dp614
g608
I1
sg609
F8.702278137207031e-05
sg610
F0.000431060791015625
sg611
I2
sg612
I2
sasS'total_cqs'
p615
I4
ssI54
(dp616
S'iters'
p617
I2
sS'meta'
p618
(lp619
(dp620
S'objective'
p621
I0
sS'query_time'
p622
F0.017235994338989258
sS'comp_time'
p623
F0.0002739429473876953
sS'exec_cq'
p624
I3
sS'total_cq'
p625
I3
sa(dp626
g621
I1
sg622
F4.38690185546875e-05
sg623
F0.00021004676818847656
sg624
I2
sg625
I2
sasS'total_cqs'
p627
I3
ssI55
(dp628
S'iters'
p629
I8
sS'meta'
p630
(lp631
(dp632
S'objective'
p633
I4695
sS'query_time'
p634
F2.5584919452667236
sS'comp_time'
p635
F0.04052901268005371
sS'exec_cq'
p636
I109
sS'total_cq'
p637
I109
sa(dp638
g633
I4671
sg634
F0.0009698867797851562
sg635
F0.001917123794555664
sg636
I97
sg637
I97
sa(dp639
g633
I4414
sg634
F0.0003750324249267578
sg635
F0.0009729862213134766
sg636
I91
sg637
I91
sa(dp640
g633
I4487
sg634
F0.0003509521484375
sg635
F0.0009150505065917969
sg636
I87
sg637
I87
sa(dp641
g633
I4411
sg634
F0.00032711029052734375
sg635
F0.0009789466857910156
sg636
I85
sg637
I85
sa(dp642
g633
I4321
sg634
F0.0003180503845214844
sg635
F0.0007219314575195312
sg636
I83
sg637
I83
sa(dp643
g633
I4325
sg634
F0.0002899169921875
sg635
F0.0005240440368652344
sg636
I81
sg637
I81
sa(dp644
g633
I4311
sg634
F0.00029206275939941406
sg635
F0.0004930496215820312
sg636
I80
sg637
I80
sasS'total_cqs'
p645
I109
ssI56
(dp646
S'iters'
p647
I6
sS'meta'
p648
(lp649
(dp650
S'objective'
p651
I1484
sS'query_time'
p652
F3.3764169216156006
sS'comp_time'
p653
F0.14039325714111328
sS'exec_cq'
p654
I76
sS'total_cq'
p655
I76
sa(dp656
g651
I33
sg652
F0.0047681331634521484
sg653
F0.009261846542358398
sg654
I16
sg655
I16
sa(dp657
g651
I9
sg652
F0.002273082733154297
sg653
F0.005980014801025391
sg654
I8
sg655
I8
sa(dp658
g651
I19
sg652
F0.0009779930114746094
sg653
F0.0040569305419921875
sg654
I5
sg655
I5
sa(dp659
g651
I28
sg652
F0.0003600120544433594
sg653
F0.0020961761474609375
sg654
I3
sg655
I3
sa(dp660
g651
I1
sg652
F0.0001361370086669922
sg653
F0.0007078647613525391
sg654
I2
sg655
I2
sasS'total_cqs'
p661
I76
ssI57
(dp662
S'iters'
p663
I6
sS'meta'
p664
(lp665
(dp666
S'objective'
p667
I172
sS'query_time'
p668
F68.72094392776489
sS'comp_time'
p669
F3.4114022254943848
sS'exec_cq'
p670
I51
sS'total_cq'
p671
I51
sa(dp672
g667
I17
sg668
F0.014525175094604492
sg669
F0.027112960815429688
sg670
I27
sg671
I27
sa(dp673
g667
I85
sg668
F0.002126932144165039
sg669
F0.005594015121459961
sg670
I13
sg671
I13
sa(dp674
g667
I5
sg668
F0.0014460086822509766
sg669
F0.0039119720458984375
sg670
I6
sg671
I6
sa(dp675
g667
I22
sg668
F0.0007100105285644531
sg669
F0.0029671192169189453
sg670
I3
sg671
I3
sa(dp676
g667
I3
sg668
F0.00017189979553222656
sg669
F0.0009338855743408203
sg670
I2
sg671
I2
sasS'total_cqs'
p677
I51
ssI58
(dp678
S'iters'
p679
I6
sS'meta'
p680
(lp681
(dp682
S'objective'
p683
I83917
sS'query_time'
p684
F293.7340199947357
sS'comp_time'
p685
F16.719150066375732
sS'exec_cq'
p686
I486
sS'total_cq'
p687
I486
sa(dp688
g683
I8982
sg684
F0.03606915473937988
sg685
F0.21335387229919434
sg686
I64
sg687
I64
sa(dp689
g683
I669
sg684
F0.00822305679321289
sg685
F0.05148506164550781
sg686
I16
sg687
I16
sa(dp690
g683
I89
sg684
F0.0055348873138427734
sg685
F0.037225961685180664
sg686
I7
sg687
I7
sa(dp691
g683
I467
sg684
F0.0008590221405029297
sg685
F0.03612494468688965
sg686
I4
sg687
I4
sa(dp692
g683
I71
sg684
F0.0008029937744140625
sg685
F0.003644704818725586
sg686
I2
sg687
I2
sasS'total_cqs'
p693
I486
ssI59
(dp694
S'iters'
p695
I2
sS'meta'
p696
(lp697
(dp698
S'objective'
p699
I8
sS'query_time'
p700
F0.05292797088623047
sS'comp_time'
p701
F0.0009582042694091797
sS'exec_cq'
p702
I7
sS'total_cq'
p703
I7
sa(dp704
g699
I4
sg700
F0.00015115737915039062
sg701
F0.0007991790771484375
sg702
I2
sg703
I2
sasS'total_cqs'
p705
I7
ssI60
(dp706
S'iters'
p707
I3
sS'meta'
p708
(lp709
(dp710
S'objective'
p711
I5
sS'query_time'
p712
F0.029005050659179688
sS'comp_time'
p713
F0.00037407875061035156
sS'exec_cq'
p714
I5
sS'total_cq'
p715
I5
sa(dp716
g711
I2
sg712
F3.1948089599609375e-05
sg713
F8.20159912109375e-05
sg714
I4
sg715
I4
sa(dp717
g711
I0
sg712
F2.09808349609375e-05
sg713
F7.081031799316406e-05
sg714
I3
sg715
I3
sasS'total_cqs'
p718
I5
ssI61
(dp719
S'iters'
p720
I0
sS'meta'
p721
(lp722
sS'total_cqs'
p723
I1
ssI62
(dp724
S'iters'
p725
I3
sS'meta'
p726
(lp727
(dp728
S'objective'
p729
I20
sS'query_time'
p730
F0.035466909408569336
sS'comp_time'
p731
F0.0001938343048095703
sS'exec_cq'
p732
I12
sS'total_cq'
p733
I12
sa(dp734
g729
I27
sg730
F4.100799560546875e-05
sg731
F6.794929504394531e-05
sg732
I9
sg733
I9
sa(dp735
g729
I30
sg730
F3.218650817871094e-05
sg731
F5.4836273193359375e-05
sg732
I8
sg733
I8
sasS'total_cqs'
p736
I12
ssI63
(dp737
S'iters'
p738
I0
sS'meta'
p739
(lp740
sS'total_cqs'
p741
I1
ssI64
(dp742
S'iters'
p743
I3
sS'meta'
p744
(lp745
(dp746
S'objective'
p747
I22
sS'query_time'
p748
F0.13451504707336426
sS'comp_time'
p749
F0.00720977783203125
sS'exec_cq'
p750
I12
sS'total_cq'
p751
I12
sa(dp752
g747
I2
sg748
F9.012222290039062e-05
sg749
F0.0003261566162109375
sg750
I4
sg751
I4
sa(dp753
g747
I7
sg748
F2.09808349609375e-05
sg749
F9.417533874511719e-05
sg750
I2
sg751
I2
sasS'total_cqs'
p754
I12
ssI65
(dp755
S'iters'
p756
I4
sS'meta'
p757
(lp758
(dp759
S'objective'
p760
I120
sS'query_time'
p761
F0.8164839744567871
sS'comp_time'
p762
F0.04383087158203125
sS'exec_cq'
p763
I27
sS'total_cq'
p764
I27
sa(dp765
g760
I3
sg761
F0.001650094985961914
sg762
F0.005268096923828125
sg763
I7
sg764
I7
sa(dp766
g760
I2
sg761
F0.0005829334259033203
sg762
F0.0024089813232421875
sg763
I4
sg764
I4
sa(dp767
g760
I18
sg761
F0.00013399124145507812
sg762
F0.0007770061492919922
sg763
I2
sg764
I2
sasS'total_cqs'
p768
I27
ssI66
(dp769
S'iters'
p770
I0
sS'meta'
p771
(lp772
sS'total_cqs'
p773
I1
ssI67
(dp774
S'iters'
p775
I2
sS'meta'
p776
(lp777
(dp778
S'objective'
p779
I564
sS'query_time'
p780
F1.4232351779937744
sS'comp_time'
p781
F0.007508993148803711
sS'exec_cq'
p782
I35
sS'total_cq'
p783
I35
sa(dp784
g779
I13
sg780
F0.0014438629150390625
sg781
F0.00683903694152832
sg782
I2
sg783
I2
sasS'total_cqs'
p785
I35
ssI68
(dp786
S'iters'
p787
I0
sS'meta'
p788
(lp789
sS'total_cqs'
p790
I1
ssI69
(dp791
S'iters'
p792
I1
sS'meta'
p793
(lp794
(dp795
S'objective'
p796
I1298
sS'query_time'
p797
F0.20932388305664062
sS'comp_time'
p798
F0.00024700164794921875
sS'exec_cq'
p799
I51
sS'total_cq'
p800
I51
sasS'total_cqs'
p801
I51
ssI70
(dp802
S'iters'
p803
I3
sS'meta'
p804
(lp805
(dp806
S'objective'
p807
I9
sS'query_time'
p808
F0.020231962203979492
sS'comp_time'
p809
F0.00023508071899414062
sS'exec_cq'
p810
I6
sS'total_cq'
p811
I6
sa(dp812
g807
I7
sg808
F4.696846008300781e-05
sg809
F0.0001480579376220703
sg810
I5
sg811
I5
sa(dp813
g807
I5
sg808
F4.100799560546875e-05
sg809
F0.00015473365783691406
sg810
I4
sg811
I4
sasS'total_cqs'
p814
I6
ssI71
(dp815
S'iters'
p816
I4
sS'meta'
p817
(lp818
(dp819
S'objective'
p820
I3263
sS'query_time'
p821
F0.399385929107666
sS'comp_time'
p822
F0.0008680820465087891
sS'exec_cq'
p823
I85
sS'total_cq'
p824
I85
sa(dp825
g820
I3115
sg821
F0.0003821849822998047
sg822
F0.0006279945373535156
sg823
I81
sg824
I81
sa(dp826
g820
I12
sg821
F0.0017838478088378906
sg822
F0.00016617774963378906
sg823
I3
sg824
I3
sa(dp827
g820
I46
sg821
F0.0036950111389160156
sg822
F0.00015473365783691406
sg823
I2
sg824
I2
sasS'total_cqs'
p828
I85
ssI72
(dp829
S'iters'
p830
I3
sS'meta'
p831
(lp832
(dp833
S'objective'
p834
I6
sS'query_time'
p835
F0.3728170394897461
sS'comp_time'
p836
F0.0029861927032470703
sS'exec_cq'
p837
I8
sS'total_cq'
p838
I8
sa(dp839
g834
I1
sg835
F0.0004031658172607422
sg836
F0.002336740493774414
sg837
I6
sg838
I6
sa(dp840
g834
I5
sg835
F3.600120544433594e-05
sg836
F0.000141143798828125
sg837
I3
sg838
I3
sasS'total_cqs'
p841
I8
ssI73
(dp842
S'iters'
p843
I0
sS'meta'
p844
(lp845
sS'total_cqs'
p846
I1
ssI74
(dp847
S'iters'
p848
I0
sS'meta'
p849
(lp850
sS'total_cqs'
p851
I1
ssI75
(dp852
S'iters'
p853
I3
sS'meta'
p854
(lp855
(dp856
S'objective'
p857
I5
sS'query_time'
p858
F0.018788814544677734
sS'comp_time'
p859
F0.0001251697540283203
sS'exec_cq'
p860
I5
sS'total_cq'
p861
I5
sa(dp862
g857
I2
sg858
F3.2901763916015625e-05
sg859
F0.0001819133758544922
sg860
I4
sg861
I4
sa(dp863
g857
I0
sg858
F1.9073486328125e-05
sg859
F0.00024199485778808594
sg860
I3
sg861
I3
sasS'total_cqs'
p864
I5
ssI76
(dp865
S'iters'
p866
I1
sS'meta'
p867
(lp868
(dp869
S'objective'
p870
I1
sS'query_time'
p871
F0.012817144393920898
sS'comp_time'
p872
F0.00029206275939941406
sS'exec_cq'
p873
I2
sS'total_cq'
p874
I2
sasS'total_cqs'
p875
I2
ssI77
(dp876
S'iters'
p877
I0
sS'meta'
p878
(lp879
sS'total_cqs'
p880
I1
ssI78
(dp881
S'iters'
p882
I0
sS'meta'
p883
(lp884
sS'total_cqs'
p885
I1
ssI103
(dp886
S'iters'
p887
I2
sS'meta'
p888
(lp889
(dp890
S'objective'
p891
I64
sS'query_time'
p892
F0.08904790878295898
sS'comp_time'
p893
F0.00021195411682128906
sS'exec_cq'
p894
I12
sS'total_cq'
p895
I12
sa(dp896
g891
I63
sg892
F7.700920104980469e-05
sg893
F0.00014495849609375
sg894
I11
sg895
I11
sasS'total_cqs'
p897
I12
ssI104
(dp898
S'iters'
p899
I2
sS'meta'
p900
(lp901
(dp902
S'objective'
p903
I2
sS'query_time'
p904
F1.6524860858917236
sS'comp_time'
p905
F0.09963607788085938
sS'exec_cq'
p906
I4
sS'total_cq'
p907
I4
sa(dp908
g903
I2
sg904
F0.012550115585327148
sg905
F0.0866708755493164
sg906
I2
sg907
I2
sasS'total_cqs'
p909
I4
ssI105
(dp910
S'iters'
p911
I0
sS'meta'
p912
(lp913
sS'total_cqs'
p914
I1
ssI106
(dp915
S'iters'
p916
I1
sS'meta'
p917
(lp918
(dp919
S'objective'
p920
I6
sS'query_time'
p921
F0.031095027923583984
sS'comp_time'
p922
F0.00010013580322265625
sS'exec_cq'
p923
I4
sS'total_cq'
p924
I4
sasS'total_cqs'
p925
I4
ssI107
(dp926
S'iters'
p927
I2
sS'meta'
p928
(lp929
(dp930
S'objective'
p931
I86
sS'query_time'
p932
F0.10004591941833496
sS'comp_time'
p933
F0.0001747608184814453
sS'exec_cq'
p934
I16
sS'total_cq'
p935
I16
sa(dp936
g931
I15
sg932
F0.007414817810058594
sg933
F0.00012493133544921875
sg934
I3
sg935
I3
sasS'total_cqs'
p937
I16
ssI108
(dp938
S'iters'
p939
I0
sS'meta'
p940
(lp941
sS'total_cqs'
p942
I1
ss.