(dp0
I1
(dp1
S'iters'
p2
I3
sS'meta'
p3
(lp4
(dp5
S'objective'
p6
I58
sS'query_time'
p7
F0.05879807472229004
sS'comp_time'
p8
F0.00020599365234375
sS'exec_cq'
p9
I12
sS'total_cq'
p10
I12
sa(dp11
g6
I48
sg7
F4.887580871582031e-05
sg8
F7.510185241699219e-05
sg9
I10
sg10
I10
sa(dp12
g6
I44
sg7
F4.100799560546875e-05
sg8
F6.580352783203125e-05
sg9
I9
sg10
I9
sasS'total_cqs'
p13
I12
ssI2
(dp14
S'iters'
p15
I5
sS'meta'
p16
(lp17
(dp18
S'objective'
p19
I240
sS'query_time'
p20
F0.13462305068969727
sS'comp_time'
p21
F0.0010721683502197266
sS'exec_cq'
p22
I27
sS'total_cq'
p23
I27
sa(dp24
g19
I211
sg20
F0.00014901161193847656
sg21
F0.000453948974609375
sg22
I23
sg23
I23
sa(dp25
g19
I212
sg20
F9.703636169433594e-05
sg21
F0.00024771690368652344
sg22
I20
sg23
I20
sa(dp26
g19
I188
sg20
F8.893013000488281e-05
sg21
F0.00023794174194335938
sg22
I18
sg23
I18
sa(dp27
g19
I182
sg20
F9.799003601074219e-05
sg21
F0.00023484230041503906
sg22
I17
sg23
I17
sasS'total_cqs'
p28
I27
ssI3
(dp29
S'iters'
p30
I4
sS'meta'
p31
(lp32
(dp33
S'objective'
p34
I300
sS'query_time'
p35
F160.33767008781433
sS'comp_time'
p36
F1.5201990604400635
sS'exec_cq'
p37
I43
sS'total_cq'
p38
I43
sa(dp39
g34
I21
sg35
F0.345304012298584
sg36
F1.327423095703125
sg37
I27
sg38
I27
sa(dp40
g34
I42
sg35
F0.04303407669067383
sg36
F0.3689889907836914
sg37
I13
sg38
I13
sa(dp41
g34
I94
sg35
F6.29425048828125e-05
sg36
F0.0030412673950195312
sg37
I7
sg38
I7
sasS'total_cqs'
p42
I43
ssI4
(dp43
S'iters'
p44
I2
sS'meta'
p45
(lp46
(dp47
S'objective'
p48
I40
sS'query_time'
p49
F4.098392963409424
sS'comp_time'
p50
F0.3824901580810547
sS'exec_cq'
p51
I11
sS'total_cq'
p52
I11
sa(dp53
g48
I1
sg49
F0.11289191246032715
sg50
F0.4237980842590332
sg51
I2
sg52
I2
sasS'total_cqs'
p54
I11
ssI5
(dp55
S'iters'
p56
I3
sS'meta'
p57
(lp58
(dp59
S'objective'
p60
I0
sS'query_time'
p61
F28.035392999649048
sS'comp_time'
p62
F2.2787108421325684
sS'exec_cq'
p63
I8
sS'total_cq'
p64
I8
sa(dp65
g60
I0
sg61
F0.4488370418548584
sg62
F1.377492904663086
sg63
I5
sg64
I5
sa(dp66
g60
I1
sg61
F0.24804902076721191
sg62
F0.7890729904174805
sg63
I2
sg64
I2
sasS'total_cqs'
p67
I8
ssI6
(dp68
S'iters'
p69
I3
sS'meta'
p70
(lp71
(dp72
S'objective'
p73
I63
sS'query_time'
p74
F30.68328285217285
sS'comp_time'
p75
F2.6008622646331787
sS'exec_cq'
p76
I18
sS'total_cq'
p77
I18
sa(dp78
g73
I0
sg74
F0.5710978507995605
sg75
F2.1496360301971436
sg76
I7
sg77
I7
sa(dp79
g73
I7
sg74
F0.01179814338684082
sg75
F0.045259952545166016
sg76
I2
sg77
I2
sasS'total_cqs'
p80
I18
ssI7
(dp81
S'iters'
p82
I3
sS'meta'
p83
(lp84
(dp85
S'objective'
p86
I1
sS'query_time'
p87
F10.018644094467163
sS'comp_time'
p88
F0.9036357402801514
sS'exec_cq'
p89
I9
sS'total_cq'
p90
I9
sa(dp91
g86
I1
sg87
F0.13004589080810547
sg88
F0.4100370407104492
sg89
I6
sg90
I6
sa(dp92
g86
I0
sg87
F0.0033020973205566406
sg88
F0.01544499397277832
sg89
I3
sg90
I3
sasS'total_cqs'
p93
I9
ssI8
(dp94
S'iters'
p95
I4
sS'meta'
p96
(lp97
(dp98
S'objective'
p99
I254
sS'query_time'
p100
F0.16783595085144043
sS'comp_time'
p101
F0.0013110637664794922
sS'exec_cq'
p102
I27
sS'total_cq'
p103
I27
sa(dp104
g99
I220
sg100
F0.00015687942504882812
sg101
F0.0004630088806152344
sg102
I24
sg103
I24
sa(dp105
g99
I224
sg100
F6.699562072753906e-05
sg101
F9.417533874511719e-05
sg102
I19
sg103
I19
sa(dp106
g99
I216
sg100
F6.103515625e-05
sg101
F7.200241088867188e-05
sg102
I18
sg103
I18
sasS'total_cqs'
p107
I27
ssI9
(dp108
S'iters'
p109
I3
sS'meta'
p110
(lp111
(dp112
S'objective'
p113
I2
sS'query_time'
p114
F0.053153038024902344
sS'comp_time'
p115
F0.0002532005310058594
sS'exec_cq'
p116
I7
sS'total_cq'
p117
I7
sa(dp118
g113
I1
sg114
F0.001127004623413086
sg115
F0.0001728534698486328
sg116
I5
sg117
I5
sa(dp119
g113
I2
sg114
F3.409385681152344e-05
sg115
F0.00012612342834472656
sg116
I3
sg117
I3
sasS'total_cqs'
p120
I7
ssI10
(dp121
S'iters'
p122
I6
sS'meta'
p123
(lp124
(dp125
S'objective'
p126
I628
sS'query_time'
p127
F0.47254395484924316
sS'comp_time'
p128
F0.006463050842285156
sS'exec_cq'
p129
I51
sS'total_cq'
p130
I51
sa(dp131
g126
I365
sg127
F0.00041294097900390625
sg128
F0.0013382434844970703
sg129
I37
sg130
I37
sa(dp132
g126
I4
sg127
F0.001363992691040039
sg128
F0.0004887580871582031
sg129
I12
sg130
I12
sa(dp133
g126
I5
sg127
F0.00010418891906738281
sg128
F0.00028896331787109375
sg129
I8
sg130
I8
sa(dp134
g126
I9
sg127
F4.1961669921875e-05
sg128
F0.00012683868408203125
sg129
I5
sg130
I5
sa(dp135
g126
I12
sg127
F3.0040740966796875e-05
sg128
F0.00010609626770019531
sg129
I3
sg130
I3
sasS'total_cqs'
p136
I51
ssI11
(dp137
S'iters'
p138
I5
sS'meta'
p139
(lp140
(dp141
S'objective'
p142
I1038
sS'query_time'
p143
F0.5599589347839355
sS'comp_time'
p144
F0.01317286491394043
sS'exec_cq'
p145
I63
sS'total_cq'
p146
I63
sa(dp147
g142
I793
sg143
F0.0008831024169921875
sg144
F0.0034711360931396484
sg145
I47
sg146
I47
sa(dp148
g142
I15
sg143
F0.0014719963073730469
sg144
F0.0007960796356201172
sg145
I9
sg146
I9
sa(dp149
g142
I14
sg143
F0.00011205673217773438
sg144
F0.0006086826324462891
sg145
I5
sg146
I5
sa(dp150
g142
I29
sg143
F9.512901306152344e-05
sg144
F0.0007092952728271484
sg145
I3
sg146
I3
sasS'total_cqs'
p151
I63
ssI12
(dp152
S'iters'
p153
I5
sS'meta'
p154
(lp155
(dp156
S'objective'
p157
I419
sS'query_time'
p158
F0.4325981140136719
sS'comp_time'
p159
F0.00781393051147461
sS'exec_cq'
p160
I50
sS'total_cq'
p161
I50
sa(dp162
g157
I353
sg158
F0.0004830360412597656
sg159
F0.001968860626220703
sg160
I33
sg161
I33
sa(dp163
g157
I442
sg158
F0.0001709461212158203
sg159
F0.0005478858947753906
sg160
I26
sg161
I26
sa(dp164
g157
I3
sg158
F0.0014011859893798828
sg159
F0.00014209747314453125
sg160
I5
sg161
I5
sa(dp165
g157
I11
sg158
F2.5987625122070312e-05
sg159
F9.584426879882812e-05
sg160
I3
sg161
I3
sasS'total_cqs'
p166
I50
ssI13
(dp167
S'iters'
p168
I3
sS'meta'
p169
(lp170
(dp171
S'objective'
p172
I38
sS'query_time'
p173
F0.16867804527282715
sS'comp_time'
p174
F0.0003788471221923828
sS'exec_cq'
p175
I20
sS'total_cq'
p176
I20
sa(dp177
g172
I36
sg173
F4.601478576660156e-05
sg174
F7.486343383789062e-05
sg175
I9
sg176
I9
sa(dp178
g172
I3
sg173
F0.0013930797576904297
sg174
F6.198883056640625e-05
sg175
I2
sg176
I2
sasS'total_cqs'
p179
I20
ssI14
(dp180
S'iters'
p181
I3
sS'meta'
p182
(lp183
(dp184
S'objective'
p185
I1
sS'query_time'
p186
F27.36691117286682
sS'comp_time'
p187
F1.1268181800842285
sS'exec_cq'
p188
I9
sS'total_cq'
p189
I9
sa(dp190
g185
I3
sg186
F0.00980687141418457
sg187
F0.03504204750061035
sg188
I5
sg189
I5
sa(dp191
g185
I1
sg186
F0.003409147262573242
sg187
F0.09010887145996094
sg188
I3
sg189
I3
sasS'total_cqs'
p192
I9
ssI15
(dp193
S'iters'
p194
I4
sS'meta'
p195
(lp196
(dp197
S'objective'
p198
I0
sS'query_time'
p199
F3.3041131496429443
sS'comp_time'
p200
F0.12300229072570801
sS'exec_cq'
p201
I11
sS'total_cq'
p202
I11
sa(dp203
g198
I1
sg199
F0.02992987632751465
sg200
F0.12459588050842285
sg201
I6
sg202
I6
sa(dp204
g198
I1
sg199
F0.009665966033935547
sg200
F0.06568360328674316
sg201
I3
sg202
I3
sa(dp205
g198
I6
sg199
F0.00892019271850586
sg200
F0.04134416580200195
sg201
I2
sg202
I2
sasS'total_cqs'
p206
I11
ssI16
(dp207
S'iters'
p208
I1
sS'meta'
p209
(lp210
(dp211
S'objective'
p212
I26
sS'query_time'
p213
F0.02788090705871582
sS'comp_time'
p214
F0.00013685226440429688
sS'exec_cq'
p215
I8
sS'total_cq'
p216
I8
sasS'total_cqs'
p217
I8
ssI17
(dp218
S'iters'
p219
I3
sS'meta'
p220
(lp221
(dp222
S'objective'
p223
I0
sS'query_time'
p224
F0.9310979843139648
sS'comp_time'
p225
F0.017316102981567383
sS'exec_cq'
p226
I11
sS'total_cq'
p227
I11
sa(dp228
g223
I1
sg224
F0.005597114562988281
sg225
F0.01832413673400879
sg226
I6
sg227
I6
sa(dp229
g223
I2
sg224
F0.0019459724426269531
sg225
F0.008757829666137695
sg226
I2
sg227
I2
sasS'total_cqs'
p230
I11
ssI18
(dp231
S'iters'
p232
I3
sS'meta'
p233
(lp234
(dp235
S'objective'
p236
I28
sS'query_time'
p237
F0.21655702590942383
sS'comp_time'
p238
F0.006323337554931641
sS'exec_cq'
p239
I11
sS'total_cq'
p240
I11
sa(dp241
g236
I33
sg237
F0.00020384788513183594
sg238
F0.0008471012115478516
sg239
I9
sg240
I9
sa(dp242
g236
I26
sg237
F6.914138793945312e-05
sg238
F0.00029206275939941406
sg239
I7
sg240
I7
sasS'total_cqs'
p243
I11
ssI22
(dp244
S'iters'
p245
I1
sS'meta'
p246
(lp247
(dp248
S'objective'
p249
I151
sS'query_time'
p250
F0.06508898735046387
sS'comp_time'
p251
F0.00017499923706054688
sS'exec_cq'
p252
I18
sS'total_cq'
p253
I18
sasS'total_cqs'
p254
I18
ssI23
(dp255
S'iters'
p256
I3
sS'meta'
p257
(lp258
(dp259
S'objective'
p260
I112
sS'query_time'
p261
F0.0686800479888916
sS'comp_time'
p262
F0.0005030632019042969
sS'exec_cq'
p263
I16
sS'total_cq'
p264
I16
sa(dp265
g260
I102
sg261
F6.318092346191406e-05
sg262
F7.700920104980469e-05
sg263
I15
sg264
I15
sa(dp266
g260
I95
sg261
F6.389617919921875e-05
sg262
F5.0067901611328125e-05
sg263
I13
sg264
I13
sasS'total_cqs'
p267
I16
ssI26
(dp268
S'iters'
p269
I1
sS'meta'
p270
(lp271
(dp272
S'objective'
p273
I859
sS'query_time'
p274
F0.18935799598693848
sS'comp_time'
p275
F0.00019097328186035156
sS'exec_cq'
p276
I42
sS'total_cq'
p277
I42
sasS'total_cqs'
p278
I42
ssI27
(dp279
S'iters'
p280
I4
sS'meta'
p281
(lp282
(dp283
S'objective'
p284
I251
sS'query_time'
p285
F17.32972288131714
sS'comp_time'
p286
F2.0398149490356445
sS'exec_cq'
p287
I30
sS'total_cq'
p288
I30
sa(dp289
g284
I11
sg285
F0.4113349914550781
sg286
F2.104048013687134
sg287
I5
sg288
I5
sa(dp290
g284
I15
sg285
F0.2795829772949219
sg286
F1.2535130977630615
sg287
I3
sg288
I3
sa(dp291
g284
I5
sg285
F0.011156082153320312
sg286
F0.04519295692443848
sg287
I2
sg288
I2
sasS'total_cqs'
p292
I30
ssI29
(dp293
S'iters'
p294
I6
sS'meta'
p295
(lp296
(dp297
S'objective'
p298
I191
sS'query_time'
p299
F135.49311900138855
sS'comp_time'
p300
F13.581269025802612
sS'exec_cq'
p301
I49
sS'total_cq'
p302
I49
sa(dp303
g298
I3
sg299
F0.021610021591186523
sg300
F0.04641103744506836
sg301
I17
sg302
I17
sa(dp304
g298
I11
sg299
F0.001399993896484375
sg300
F0.0049800872802734375
sg301
I9
sg302
I9
sa(dp305
g298
I1
sg299
F0.0006561279296875
sg300
F0.003426790237426758
sg301
I5
sg302
I5
sa(dp306
g298
I7
sg299
F0.0009391307830810547
sg300
F0.0033948421478271484
sg301
I3
sg302
I3
sa(dp307
g298
I25
sg299
F0.0005750656127929688
sg300
F0.002881765365600586
sg301
I2
sg302
I2
sasS'total_cqs'
p308
I49
ssI30
(dp309
S'iters'
p310
I1
sS'meta'
p311
(lp312
(dp313
S'objective'
p314
I1
sS'query_time'
p315
F0.6937780380249023
sS'comp_time'
p316
F0.028513193130493164
sS'exec_cq'
p317
I2
sS'total_cq'
p318
I2
sasS'total_cqs'
p319
I2
ssI32
(dp320
S'iters'
p321
I1
sS'meta'
p322
(lp323
(dp324
S'objective'
p325
I1
sS'query_time'
p326
F0.014578104019165039
sS'comp_time'
p327
F0.0002760887145996094
sS'exec_cq'
p328
I2
sS'total_cq'
p329
I2
sasS'total_cqs'
p330
I2
ssI33
(dp331
S'iters'
p332
I5
sS'meta'
p333
(lp334
(dp335
S'objective'
p336
I3876
sS'query_time'
p337
F14.988111972808838
sS'comp_time'
p338
F0.13273906707763672
sS'exec_cq'
p339
I103
sS'total_cq'
p340
I103
sa(dp341
g336
I26
sg337
F0.007976055145263672
sg338
F0.04765892028808594
sg339
I16
sg340
I16
sa(dp342
g336
I11
sg337
F0.0029458999633789062
sg338
F0.008572101593017578
sg339
I9
sg340
I9
sa(dp343
g336
I12
sg337
F0.0008330345153808594
sg338
F0.003899097442626953
sg339
I5
sg340
I5
sa(dp344
g336
I7
sg337
F7.700920104980469e-05
sg338
F0.00040984153747558594
sg339
I2
sg340
I2
sasS'total_cqs'
p345
I103
ssI34
(dp346
S'iters'
p347
I1
sS'meta'
p348
(lp349
(dp350
S'objective'
p351
I1
sS'query_time'
p352
F0.020225048065185547
sS'comp_time'
p353
F0.0007822513580322266
sS'exec_cq'
p354
I2
sS'total_cq'
p355
I2
sasS'total_cqs'
p356
I2
ssI35
(dp357
S'iters'
p358
I12
sS'meta'
p359
(lp360
(dp361
S'objective'
p362
I2359
sS'query_time'
p363
F45.78950095176697
sS'comp_time'
p364
F3.5122170448303223
sS'exec_cq'
p365
I70
sS'total_cq'
p366
I70
sa(dp367
g362
I2310
sg363
F0.7364740371704102
sg364
F3.6967430114746094
sg365
I69
sg366
I69
sa(dp368
g362
I2164
sg363
F0.847602128982544
sg364
F3.287177801132202
sg365
I68
sg366
I68
sa(dp369
g362
I2207
sg363
F0.8266799449920654
sg364
F3.1539158821105957
sg365
I65
sg366
I65
sa(dp370
g362
I2192
sg363
F0.0005619525909423828
sg364
F0.049854278564453125
sg365
I64
sg366
I64
sa(dp371
g362
I2176
sg363
F0.00016498565673828125
sg364
F0.06076812744140625
sg365
I63
sg366
I63
sa(dp372
g362
I2055
sg363
F0.29111289978027344
sg364
F0.2540862560272217
sg365
I62
sg366
I62
sa(dp373
g362
I1765
sg363
F0.05066108703613281
sg364
F0.048593997955322266
sg365
I61
sg366
I61
sa(dp374
g362
I1811
sg363
F0.29396605491638184
sg364
F0.24424505233764648
sg365
I57
sg366
I57
sa(dp375
g362
I1574
sg363
F0.23621010780334473
sg364
F0.2260291576385498
sg365
I56
sg366
I56
sa(dp376
g362
I20
sg363
F0.06575703620910645
sg364
F0.039530038833618164
sg365
I4
sg366
I4
sa(dp377
g362
I14
sg363
F0.038047075271606445
sg364
F0.03370213508605957
sg365
I3
sg366
I3
sasS'total_cqs'
p378
I70
ssI36
(dp379
S'iters'
p380
I3
sS'meta'
p381
(lp382
(dp383
S'objective'
p384
I351
sS'query_time'
p385
F0.9412710666656494
sS'comp_time'
p386
F0.026048660278320312
sS'exec_cq'
p387
I33
sS'total_cq'
p388
I33
sa(dp389
g384
I366
sg385
F0.00413203239440918
sg386
F0.019648075103759766
sg387
I29
sg388
I29
sa(dp390
g384
I375
sg385
F0.0014750957489013672
sg386
F0.0071680545806884766
sg387
I25
sg388
I25
sasS'total_cqs'
p391
I33
ssI37
(dp392
S'iters'
p393
I1
sS'meta'
p394
(lp395
(dp396
S'objective'
p397
I1
sS'query_time'
p398
F0.009875059127807617
sS'comp_time'
p399
F0.00026106834411621094
sS'exec_cq'
p400
I2
sS'total_cq'
p401
I2
sasS'total_cqs'
p402
I2
ssI38
(dp403
S'iters'
p404
I2
sS'meta'
p405
(lp406
(dp407
S'objective'
p408
I0
sS'query_time'
p409
F0.03535819053649902
sS'comp_time'
p410
F0.0008008480072021484
sS'exec_cq'
p411
I4
sS'total_cq'
p412
I4
sa(dp413
g408
I1
sg409
F8.606910705566406e-05
sg410
F0.00038504600524902344
sg411
I2
sg412
I2
sasS'total_cqs'
p414
I4
ssI39
(dp415
S'iters'
p416
I2
sS'meta'
p417
(lp418
(dp419
S'objective'
p420
I674
sS'query_time'
p421
F0.2176048755645752
sS'comp_time'
p422
F0.0011630058288574219
sS'exec_cq'
p423
I44
sS'total_cq'
p424
I44
sa(dp425
g420
I786
sg421
F0.0003190040588378906
sg422
F0.0011260509490966797
sg423
I37
sg424
I37
sasS'total_cqs'
p426
I44
ssI40
(dp427
S'iters'
p428
I1
sS'meta'
p429
(lp430
(dp431
S'objective'
p432
I18
sS'query_time'
p433
F0.03447890281677246
sS'comp_time'
p434
F0.00011181831359863281
sS'exec_cq'
p435
I7
sS'total_cq'
p436
I7
sasS'total_cqs'
p437
I7
ssI41
(dp438
S'iters'
p439
I2
sS'meta'
p440
(lp441
(dp442
S'objective'
p443
I58
sS'query_time'
p444
F0.07455301284790039
sS'comp_time'
p445
F0.00011372566223144531
sS'exec_cq'
p446
I12
sS'total_cq'
p447
I12
sa(dp448
g443
I54
sg444
F4.9114227294921875e-05
sg445
F6.29425048828125e-05
sg446
I11
sg447
I11
sasS'total_cqs'
p449
I12
ssI42
(dp450
S'iters'
p451
I3
sS'meta'
p452
(lp453
(dp454
S'objective'
p455
I791
sS'query_time'
p456
F0.14345312118530273
sS'comp_time'
p457
F0.00021886825561523438
sS'exec_cq'
p458
I41
sS'total_cq'
p459
I41
sa(dp460
g455
I774
sg456
F0.000164031982421875
sg457
F0.00013303756713867188
sg458
I40
sg459
I40
sa(dp461
g455
I756
sg456
F0.0001499652862548828
sg457
F0.00010585784912109375
sg458
I39
sg459
I39
sasS'total_cqs'
p462
I41
ssI43
(dp463
S'iters'
p464
I1
sS'meta'
p465
(lp466
(dp467
S'objective'
p468
I18
sS'query_time'
p469
F0.03057694435119629
sS'comp_time'
p470
F9.274482727050781e-05
sS'exec_cq'
p471
I7
sS'total_cq'
p472
I7
sasS'total_cqs'
p473
I7
ssI44
(dp474
S'iters'
p475
I4
sS'meta'
p476
(lp477
(dp478
S'objective'
p479
I816
sS'query_time'
p480
F0.18587994575500488
sS'comp_time'
p481
F0.001178741455078125
sS'exec_cq'
p482
I47
sS'total_cq'
p483
I47
sa(dp484
g479
I834
sg480
F0.00028204917907714844
sg481
F0.0009131431579589844
sg482
I40
sg483
I40
sa(dp485
g479
I15
sg480
F0.001477956771850586
sg481
F0.0005939006805419922
sg482
I3
sg483
I3
sa(dp486
g479
I23
sg480
F2.3126602172851562e-05
sg481
F9.489059448242188e-05
sg482
I2
sg483
I2
sasS'total_cqs'
p487
I47
ssI46
(dp488
S'iters'
p489
I2
sS'meta'
p490
(lp491
(dp492
S'objective'
p493
I9
sS'query_time'
p494
F0.04655313491821289
sS'comp_time'
p495
F0.00061798095703125
sS'exec_cq'
p496
I6
sS'total_cq'
p497
I6
sa(dp498
g493
I7
sg494
F5.078315734863281e-05
sg495
F0.00018906593322753906
sg496
I5
sg497
I5
sasS'total_cqs'
p499
I6
ssI47
(dp500
S'iters'
p501
I1
sS'meta'
p502
(lp503
(dp504
S'objective'
p505
I1
sS'query_time'
p506
F0.009860992431640625
sS'comp_time'
p507
F0.0002911090850830078
sS'exec_cq'
p508
I2
sS'total_cq'
p509
I2
sasS'total_cqs'
p510
I2
ssI50
(dp511
S'iters'
p512
I2
sS'meta'
p513
(lp514
(dp515
S'objective'
p516
I5
sS'query_time'
p517
F0.040270090103149414
sS'comp_time'
p518
F0.0001361370086669922
sS'exec_cq'
p519
I5
sS'total_cq'
p520
I5
sa(dp521
g516
I2
sg517
F2.9087066650390625e-05
sg518
F8.296966552734375e-05
sg519
I4
sg520
I4
sasS'total_cqs'
p522
I5
ssI51
(dp523
S'iters'
p524
I1
sS'meta'
p525
(lp526
(dp527
S'objective'
p528
I1
sS'query_time'
p529
F0.02274298667907715
sS'comp_time'
p530
F0.0001480579376220703
sS'exec_cq'
p531
I2
sS'total_cq'
p532
I2
sasS'total_cqs'
p533
I2
ssI52
(dp534
S'iters'
p535
I1
sS'meta'
p536
(lp537
(dp538
S'objective'
p539
I1
sS'query_time'
p540
F0.00921010971069336
sS'comp_time'
p541
F0.00019288063049316406
sS'exec_cq'
p542
I2
sS'total_cq'
p543
I2
sasS'total_cqs'
p544
I2
ssI53
(dp545
S'iters'
p546
I2
sS'meta'
p547
(lp548
(dp549
S'objective'
p550
I2
sS'query_time'
p551
F0.023591995239257812
sS'comp_time'
p552
F0.0005791187286376953
sS'exec_cq'
p553
I4
sS'total_cq'
p554
I4
sa(dp555
g550
I2
sg551
F0.00010395050048828125
sg552
F0.00043773651123046875
sg553
I2
sg554
I2
sasS'total_cqs'
p556
I4
ssI54
(dp557
S'iters'
p558
I1
sS'meta'
p559
(lp560
(dp561
S'objective'
p562
I0
sS'query_time'
p563
F0.019112110137939453
sS'comp_time'
p564
F0.00026702880859375
sS'exec_cq'
p565
I3
sS'total_cq'
p566
I3
sasS'total_cqs'
p567
I3
ssI55
(dp568
S'iters'
p569
I7
sS'meta'
p570
(lp571
(dp572
S'objective'
p573
I4457
sS'query_time'
p574
F2.396933078765869
sS'comp_time'
p575
F0.03407478332519531
sS'exec_cq'
p576
I109
sS'total_cq'
p577
I109
sa(dp578
g573
I4632
sg574
F0.0007050037384033203
sg575
F0.0015521049499511719
sg576
I97
sg577
I97
sa(dp579
g573
I4513
sg574
F0.0003008842468261719
sg575
F0.0008330345153808594
sg576
I91
sg577
I91
sa(dp580
g573
I4517
sg574
F0.0002779960632324219
sg575
F0.0007679462432861328
sg576
I87
sg577
I87
sa(dp581
g573
I4421
sg574
F0.0002720355987548828
sg575
F0.0008068084716796875
sg576
I85
sg577
I85
sa(dp582
g573
I4398
sg574
F0.0005249977111816406
sg575
F0.001049041748046875
sg576
I83
sg577
I83
sa(dp583
g573
I4347
sg574
F0.00024890899658203125
sg575
F0.0005121231079101562
sg576
I82
sg577
I82
sasS'total_cqs'
p584
I109
ssI56
(dp585
S'iters'
p586
I5
sS'meta'
p587
(lp588
(dp589
S'objective'
p590
I1812
sS'query_time'
p591
F3.496910810470581
sS'comp_time'
p592
F0.13721108436584473
sS'exec_cq'
p593
I76
sS'total_cq'
p594
I76
sa(dp595
g590
I31
sg591
F0.005421161651611328
sg592
F0.009593963623046875
sg593
I16
sg594
I16
sa(dp596
g590
I2
sg591
F0.0015370845794677734
sg592
F0.004460811614990234
sg593
I11
sg594
I11
sa(dp597
g590
I4
sg591
F0.00028705596923828125
sg592
F0.0011830329895019531
sg593
I4
sg594
I4
sa(dp598
g590
I7
sg591
F0.00010395050048828125
sg592
F0.0005600452423095703
sg593
I2
sg594
I2
sasS'total_cqs'
p599
I76
ssI57
(dp600
S'iters'
p601
I6
sS'meta'
p602
(lp603
(dp604
S'objective'
p605
I118
sS'query_time'
p606
F68.83113813400269
sS'comp_time'
p607
F4.590552806854248
sS'exec_cq'
p608
I51
sS'total_cq'
p609
I51
sa(dp610
g605
I56
sg606
F0.015310049057006836
sg607
F0.027473926544189453
sg608
I27
sg609
I27
sa(dp611
g605
I5
sg606
F0.002332925796508789
sg607
F0.005880832672119141
sg608
I12
sg609
I12
sa(dp612
g605
I4
sg606
F0.0010530948638916016
sg607
F0.0028197765350341797
sg608
I6
sg609
I6
sa(dp613
g605
I4
sg606
F0.00021600723266601562
sg607
F0.001035928726196289
sg608
I3
sg609
I3
sa(dp614
g605
I10
sg606
F0.00017118453979492188
sg607
F0.0011060237884521484
sg608
I2
sg609
I2
sasS'total_cqs'
p615
I51
ssI58
(dp616
S'iters'
p617
I8
sS'meta'
p618
(lp619
(dp620
S'objective'
p621
I87193
sS'query_time'
p622
F295.7779850959778
sS'comp_time'
p623
F16.688254833221436
sS'exec_cq'
p624
I486
sS'total_cq'
p625
I486
sa(dp626
g621
I10046
sg622
F0.03397393226623535
sg623
F0.1779460906982422
sg624
I64
sg625
I64
sa(dp627
g621
I3338
sg622
F0.026163101196289062
sg623
F0.9370341300964355
sg624
I52
sg625
I52
sa(dp628
g621
I2774
sg622
F0.014467000961303711
sg623
F0.09758400917053223
sg624
I32
sg625
I32
sa(dp629
g621
I486
sg622
F0.008475065231323242
sg623
F0.25420284271240234
sg624
I21
sg625
I21
sa(dp630
g621
I11
sg622
F0.005697965621948242
sg623
F0.02133917808532715
sg624
I11
sg625
I11
sa(dp631
g621
I118
sg622
F0.0033788681030273438
sg623
F0.022534847259521484
sg624
I6
sg625
I6
sa(dp632
g621
I189
sg622
F0.0007920265197753906
sg623
F0.0036568641662597656
sg624
I2
sg625
I2
sasS'total_cqs'
p633
I486
ssI59
(dp634
S'iters'
p635
I2
sS'meta'
p636
(lp637
(dp638
S'objective'
p639
I10
sS'query_time'
p640
F0.04881596565246582
sS'comp_time'
p641
F0.0009391307830810547
sS'exec_cq'
p642
I7
sS'total_cq'
p643
I7
sa(dp644
g639
I1
sg640
F0.00015783309936523438
sg641
F0.0008172988891601562
sg642
I2
sg643
I2
sasS'total_cqs'
p645
I7
ssI60
(dp646
S'iters'
p647
I1
sS'meta'
p648
(lp649
(dp650
S'objective'
p651
I7
sS'query_time'
p652
F0.020190000534057617
sS'comp_time'
p653
F0.0003249645233154297
sS'exec_cq'
p654
I5
sS'total_cq'
p655
I5
sasS'total_cqs'
p656
I5
ssI62
(dp657
S'iters'
p658
I2
sS'meta'
p659
(lp660
(dp661
S'objective'
p662
I46
sS'query_time'
p663
F0.03328418731689453
sS'comp_time'
p664
F0.00018906593322753906
sS'exec_cq'
p665
I12
sS'total_cq'
p666
I12
sa(dp667
g662
I48
sg663
F4.410743713378906e-05
sg664
F6.699562072753906e-05
sg665
I9
sg666
I9
sasS'total_cqs'
p668
I12
ssI64
(dp669
S'iters'
p670
I3
sS'meta'
p671
(lp672
(dp673
S'objective'
p674
I6
sS'query_time'
p675
F0.13228297233581543
sS'comp_time'
p676
F0.003170013427734375
sS'exec_cq'
p677
I12
sS'total_cq'
p678
I12
sa(dp679
g674
I0
sg675
F8.606910705566406e-05
sg676
F0.0002880096435546875
sg677
I4
sg678
I4
sa(dp680
g674
I4
sg675
F1.9073486328125e-05
sg676
F9.202957153320312e-05
sg677
I2
sg678
I2
sasS'total_cqs'
p681
I12
ssI65
(dp682
S'iters'
p683
I4
sS'meta'
p684
(lp685
(dp686
S'objective'
p687
I154
sS'query_time'
p688
F0.8735480308532715
sS'comp_time'
p689
F0.038893938064575195
sS'exec_cq'
p690
I27
sS'total_cq'
p691
I27
sa(dp692
g687
I0
sg688
F0.0013761520385742188
sg689
F0.00432586669921875
sg690
I7
sg691
I7
sa(dp693
g687
I14
sg688
F0.00015401840209960938
sg689
F0.0008118152618408203
sg690
I3
sg691
I3
sa(dp694
g687
I5
sg688
F8.511543273925781e-05
sg689
F0.0005140304565429688
sg690
I2
sg691
I2
sasS'total_cqs'
p695
I27
ssI67
(dp696
S'iters'
p697
I2
sS'meta'
p698
(lp699
(dp700
S'objective'
p701
I526
sS'query_time'
p702
F1.3556950092315674
sS'comp_time'
p703
F0.01346898078918457
sS'exec_cq'
p704
I35
sS'total_cq'
p705
I35
sa(dp706
g701
I14
sg702
F0.0010361671447753906
sg703
F0.004864215850830078
sg704
I2
sg705
I2
sasS'total_cqs'
p707
I35
ssI69
(dp708
S'iters'
p709
I1
sS'meta'
p710
(lp711
(dp712
S'objective'
p713
I1272
sS'query_time'
p714
F0.27021288871765137
sS'comp_time'
p715
F0.0003559589385986328
sS'exec_cq'
p716
I51
sS'total_cq'
p717
I51
sasS'total_cqs'
p718
I51
ssI70
(dp719
S'iters'
p720
I3
sS'meta'
p721
(lp722
(dp723
S'objective'
p724
I9
sS'query_time'
p725
F0.03213310241699219
sS'comp_time'
p726
F0.0002422332763671875
sS'exec_cq'
p727
I6
sS'total_cq'
p728
I6
sa(dp729
g724
I5
sg725
F9.799003601074219e-05
sg726
F0.0002040863037109375
sg727
I5
sg728
I5
sa(dp730
g724
I2
sg725
F4.696846008300781e-05
sg726
F0.0001990795135498047
sg727
I4
sg728
I4
sasS'total_cqs'
p731
I6
ssI71
(dp732
S'iters'
p733
I6
sS'meta'
p734
(lp735
(dp736
S'objective'
p737
I3245
sS'query_time'
p738
F0.37621092796325684
sS'comp_time'
p739
F0.0008628368377685547
sS'exec_cq'
p740
I85
sS'total_cq'
p741
I85
sa(dp742
g737
I3066
sg738
F0.00040602684020996094
sg739
F0.0007541179656982422
sg740
I81
sg741
I81
sa(dp743
g737
I2880
sg738
F0.000308990478515625
sg739
F0.0005700588226318359
sg740
I77
sg741
I77
sa(dp744
g737
I2725
sg738
F0.0002560615539550781
sg739
F0.0004971027374267578
sg740
I74
sg741
I74
sa(dp745
g737
I2617
sg738
F0.0003330707550048828
sg739
F0.0003478527069091797
sg740
I71
sg741
I71
sa(dp746
g737
I52
sg738
F0.0021610260009765625
sg739
F0.00018215179443359375
sg740
I3
sg741
I3
sasS'total_cqs'
p747
I85
ssI72
(dp748
S'iters'
p749
I3
sS'meta'
p750
(lp751
(dp752
S'objective'
p753
I12
sS'query_time'
p754
F0.37959909439086914
sS'comp_time'
p755
F0.0027840137481689453
sS'exec_cq'
p756
I8
sS'total_cq'
p757
I8
sa(dp758
g753
I2
sg754
F0.00010395050048828125
sg755
F0.0003032684326171875
sg756
I5
sg757
I5
sa(dp759
g753
I3
sg754
F7.891654968261719e-05
sg755
F0.0002777576446533203
sg756
I3
sg757
I3
sasS'total_cqs'
p760
I8
ssI75
(dp761
S'iters'
p762
I2
sS'meta'
p763
(lp764
(dp765
S'objective'
p766
I5
sS'query_time'
p767
F0.020684003829956055
sS'comp_time'
p768
F0.00011014938354492188
sS'exec_cq'
p769
I5
sS'total_cq'
p770
I5
sa(dp771
g766
I2
sg767
F2.384185791015625e-05
sg768
F5.2928924560546875e-05
sg769
I4
sg770
I4
sasS'total_cqs'
p772
I5
ssI76
(dp773
S'iters'
p774
I1
sS'meta'
p775
(lp776
(dp777
S'objective'
p778
I1
sS'query_time'
p779
F0.013437032699584961
sS'comp_time'
p780
F0.0003139972686767578
sS'exec_cq'
p781
I2
sS'total_cq'
p782
I2
sasS'total_cqs'
p783
I2
ssI103
(dp784
S'iters'
p785
I1
sS'meta'
p786
(lp787
(dp788
S'objective'
p789
I64
sS'query_time'
p790
F0.10419106483459473
sS'comp_time'
p791
F0.00016307830810546875
sS'exec_cq'
p792
I12
sS'total_cq'
p793
I12
sasS'total_cqs'
p794
I12
ssI104
(dp795
S'iters'
p796
I2
sS'meta'
p797
(lp798
(dp799
S'objective'
p800
I0
sS'query_time'
p801
F1.645953893661499
sS'comp_time'
p802
F0.08710193634033203
sS'exec_cq'
p803
I4
sS'total_cq'
p804
I4
sa(dp805
g800
I1
sg801
F0.01482391357421875
sg802
F0.12427306175231934
sg803
I2
sg804
I2
sasS'total_cqs'
p806
I4
ssI106
(dp807
S'iters'
p808
I1
sS'meta'
p809
(lp810
(dp811
S'objective'
p812
I4
sS'query_time'
p813
F0.022839069366455078
sS'comp_time'
p814
F0.00011396408081054688
sS'exec_cq'
p815
I4
sS'total_cq'
p816
I4
sasS'total_cqs'
p817
I4
ssI107
(dp818
S'iters'
p819
I2
sS'meta'
p820
(lp821
(dp822
S'objective'
p823
I74
sS'query_time'
p824
F0.10750889778137207
sS'comp_time'
p825
F0.00016307830810546875
sS'exec_cq'
p826
I16
sS'total_cq'
p827
I16
sa(dp828
g823
I13
sg824
F0.007306098937988281
sg825
F0.00015020370483398438
sg826
I3
sg827
I3
sasS'total_cqs'
p829
I16
ss.