(dp0
I1
(dp1
S'iters'
p2
I1
sS'meta'
p3
(lp4
(dp5
S'objective'
p6
I54
sS'query_time'
p7
F0.06782197952270508
sS'comp_time'
p8
F0.0002269744873046875
sS'exec_cq'
p9
I12
sS'total_cq'
p10
I12
sasS'total_cqs'
p11
I12
ssI2
(dp12
S'iters'
p13
I3
sS'meta'
p14
(lp15
(dp16
S'objective'
p17
I228
sS'query_time'
p18
F0.6177830696105957
sS'comp_time'
p19
F0.0014498233795166016
sS'exec_cq'
p20
I27
sS'total_cq'
p21
I27
sa(dp22
g17
I189
sg18
F0.00024008750915527344
sg19
F0.000698089599609375
sg20
I23
sg21
I23
sa(dp23
g17
I192
sg18
F0.0001518726348876953
sg19
F0.000308990478515625
sg20
I20
sg21
I20
sasS'total_cqs'
p24
I27
ssI3
(dp25
S'iters'
p26
I3
sS'meta'
p27
(lp28
(dp29
S'objective'
p30
I258
sS'query_time'
p31
F179.28697204589844
sS'comp_time'
p32
F1.5406301021575928
sS'exec_cq'
p33
I43
sS'total_cq'
p34
I43
sa(dp35
g30
I58
sg31
F0.05600786209106445
sg32
F0.562039852142334
sg33
I29
sg34
I29
sa(dp36
g30
I244
sg31
F0.14344191551208496
sg32
F0.2835371494293213
sg33
I13
sg34
I13
sasS'total_cqs'
p37
I43
ssI4
(dp38
S'iters'
p39
I2
sS'meta'
p40
(lp41
(dp42
S'objective'
p43
I34
sS'query_time'
p44
F5.270204067230225
sS'comp_time'
p45
F0.3584160804748535
sS'exec_cq'
p46
I11
sS'total_cq'
p47
I11
sa(dp48
g43
I6
sg44
F0.09900307655334473
sg45
F0.35587596893310547
sg46
I2
sg47
I2
sasS'total_cqs'
p49
I11
ssI5
(dp50
S'iters'
p51
I1
sS'meta'
p52
(lp53
(dp54
S'objective'
p55
I20
sS'query_time'
p56
F21.049817085266113
sS'comp_time'
p57
F0.05113029479980469
sS'exec_cq'
p58
I8
sS'total_cq'
p59
I8
sasS'total_cqs'
p60
I8
ssI6
(dp61
S'iters'
p62
I3
sS'meta'
p63
(lp64
(dp65
S'objective'
p66
I115
sS'query_time'
p67
F21.263941049575806
sS'comp_time'
p68
F0.054247140884399414
sS'exec_cq'
p69
I18
sS'total_cq'
p70
I18
sa(dp71
g66
I12
sg67
F0.0052509307861328125
sg68
F0.05504202842712402
sg69
I3
sg70
I3
sa(dp72
g66
I16
sg67
F0.006134033203125
sg68
F0.030131101608276367
sg69
I2
sg70
I2
sasS'total_cqs'
p73
I18
ssI7
(dp74
S'iters'
p75
I3
sS'meta'
p76
(lp77
(dp78
S'objective'
p79
I1
sS'query_time'
p80
F28.199145793914795
sS'comp_time'
p81
F0.8578100204467773
sS'exec_cq'
p82
I9
sS'total_cq'
p83
I9
sa(dp84
g79
I1
sg80
F0.169158935546875
sg81
F0.3319861888885498
sg82
I4
sg83
I4
sa(dp85
g79
I6
sg80
F0.08665204048156738
sg81
F0.2211620807647705
sg82
I2
sg83
I2
sasS'total_cqs'
p86
I9
ssI8
(dp87
S'iters'
p88
I3
sS'meta'
p89
(lp90
(dp91
S'objective'
p92
I222
sS'query_time'
p93
F0.6837611198425293
sS'comp_time'
p94
F0.00151824951171875
sS'exec_cq'
p95
I27
sS'total_cq'
p96
I27
sa(dp97
g92
I230
sg93
F0.00015115737915039062
sg94
F0.000560760498046875
sg95
I22
sg96
I22
sa(dp98
g92
I19
sg93
F0.004597187042236328
sg94
F0.0002429485321044922
sg95
I2
sg96
I2
sasS'total_cqs'
p99
I27
ssI9
(dp100
S'iters'
p101
I2
sS'meta'
p102
(lp103
(dp104
S'objective'
p105
I6
sS'query_time'
p106
F0.5067179203033447
sS'comp_time'
p107
F0.00028014183044433594
sS'exec_cq'
p108
I7
sS'total_cq'
p109
I7
sa(dp110
g105
I3
sg106
F2.6226043701171875e-05
sg107
F5.817413330078125e-05
sg108
I2
sg109
I2
sasS'total_cqs'
p111
I7
ssI10
(dp112
S'iters'
p113
I4
sS'meta'
p114
(lp115
(dp116
S'objective'
p117
I612
sS'query_time'
p118
F1.6452581882476807
sS'comp_time'
p119
F0.007097959518432617
sS'exec_cq'
p120
I51
sS'total_cq'
p121
I51
sa(dp122
g117
I395
sg118
F0.0009129047393798828
sg119
F0.0017659664154052734
sg120
I37
sg121
I37
sa(dp123
g117
I5
sg118
F0.007838964462280273
sg119
F0.0007929801940917969
sg120
I12
sg121
I12
sa(dp124
g117
I39
sg118
F5.507469177246094e-05
sg119
F0.0001728534698486328
sg120
I6
sg121
I6
sasS'total_cqs'
p125
I51
ssI11
(dp126
S'iters'
p127
I4
sS'meta'
p128
(lp129
(dp130
S'objective'
p131
I1120
sS'query_time'
p132
F1.693742036819458
sS'comp_time'
p133
F0.015278816223144531
sS'exec_cq'
p134
I63
sS'total_cq'
p135
I63
sa(dp136
g131
I914
sg132
F0.0009729862213134766
sg133
F0.0038793087005615234
sg134
I47
sg135
I47
sa(dp137
g131
I13
sg132
F0.0029900074005126953
sg133
F0.000904083251953125
sg134
I9
sg135
I9
sa(dp138
g131
I31
sg132
F0.00013899803161621094
sg133
F0.0007138252258300781
sg134
I5
sg135
I5
sasS'total_cqs'
p139
I63
ssI12
(dp140
S'iters'
p141
I4
sS'meta'
p142
(lp143
(dp144
S'objective'
p145
I303
sS'query_time'
p146
F1.5972580909729004
sS'comp_time'
p147
F0.008736133575439453
sS'exec_cq'
p148
I50
sS'total_cq'
p149
I50
sa(dp150
g145
I405
sg146
F0.0005750656127929688
sg147
F0.0019822120666503906
sg148
I33
sg149
I33
sa(dp151
g145
I18
sg146
F0.002897024154663086
sg147
F0.001399993896484375
sg148
I8
sg149
I8
sa(dp152
g145
I5
sg146
F0.00014781951904296875
sg147
F0.0008790493011474609
sg148
I4
sg149
I4
sasS'total_cqs'
p153
I50
ssI13
(dp154
S'iters'
p155
I3
sS'meta'
p156
(lp157
(dp158
S'objective'
p159
I6
sS'query_time'
p160
F1.4434480667114258
sS'comp_time'
p161
F0.0004930496215820312
sS'exec_cq'
p162
I20
sS'total_cq'
p163
I20
sa(dp164
g159
I26
sg160
F0.023033857345581055
sg161
F0.0003619194030761719
sg162
I11
sg163
I11
sa(dp165
g159
I2
sg160
F2.4080276489257812e-05
sg161
F7.772445678710938e-05
sg162
I2
sg163
I2
sasS'total_cqs'
p166
I20
ssI14
(dp167
S'iters'
p168
I3
sS'meta'
p169
(lp170
(dp171
S'objective'
p172
I3
sS'query_time'
p173
F21.06586003303528
sS'comp_time'
p174
F0.05765485763549805
sS'exec_cq'
p175
I9
sS'total_cq'
p176
I9
sa(dp177
g172
I22
sg173
F0.004786968231201172
sg174
F0.02752995491027832
sg175
I5
sg176
I5
sa(dp178
g172
I5
sg173
F0.019396066665649414
sg174
F0.033186912536621094
sg175
I4
sg176
I4
sasS'total_cqs'
p179
I9
ssI15
(dp180
S'iters'
p181
I3
sS'meta'
p182
(lp183
(dp184
S'objective'
p185
I4
sS'query_time'
p186
F11.98151183128357
sS'comp_time'
p187
F0.13995003700256348
sS'exec_cq'
p188
I11
sS'total_cq'
p189
I11
sa(dp190
g185
I1
sg186
F0.03051900863647461
sg187
F0.12823486328125
sg188
I6
sg189
I6
sa(dp191
g185
I5
sg186
F0.008873939514160156
sg187
F0.062046051025390625
sg188
I2
sg189
I2
sasS'total_cqs'
p192
I11
ssI16
(dp193
S'iters'
p194
I1
sS'meta'
p195
(lp196
(dp197
S'objective'
p198
I20
sS'query_time'
p199
F0.024955034255981445
sS'comp_time'
p200
F0.0001270771026611328
sS'exec_cq'
p201
I8
sS'total_cq'
p202
I8
sasS'total_cqs'
p203
I8
ssI17
(dp204
S'iters'
p205
I3
sS'meta'
p206
(lp207
(dp208
S'objective'
p209
I2
sS'query_time'
p210
F3.664170980453491
sS'comp_time'
p211
F0.020695924758911133
sS'exec_cq'
p212
I11
sS'total_cq'
p213
I11
sa(dp214
g209
I2
sg210
F0.00623011589050293
sg211
F0.01860523223876953
sg212
I4
sg213
I4
sa(dp215
g209
I7
sg210
F0.0023479461669921875
sg211
F0.010068178176879883
sg212
I2
sg213
I2
sasS'total_cqs'
p216
I11
ssI18
(dp217
S'iters'
p218
I2
sS'meta'
p219
(lp220
(dp221
S'objective'
p222
I32
sS'query_time'
p223
F2.2080118656158447
sS'comp_time'
p224
F0.004336118698120117
sS'exec_cq'
p225
I11
sS'total_cq'
p226
I11
sa(dp227
g222
I27
sg223
F0.0002219676971435547
sg224
F0.0012240409851074219
sg225
I8
sg226
I8
sasS'total_cqs'
p228
I11
ssI19
(dp229
S'iters'
p230
I0
sS'meta'
p231
(lp232
sS'total_cqs'
p233
I1
ssI20
(dp234
S'iters'
p235
I0
sS'meta'
p236
(lp237
sS'total_cqs'
p238
I1
ssI21
(dp239
S'iters'
p240
I0
sS'meta'
p241
(lp242
sS'total_cqs'
p243
I1
ssI22
(dp244
S'iters'
p245
I1
sS'meta'
p246
(lp247
(dp248
S'objective'
p249
I135
sS'query_time'
p250
F0.11103582382202148
sS'comp_time'
p251
F0.0001900196075439453
sS'exec_cq'
p252
I18
sS'total_cq'
p253
I18
sasS'total_cqs'
p254
I18
ssI23
(dp255
S'iters'
p256
I2
sS'meta'
p257
(lp258
(dp259
S'objective'
p260
I94
sS'query_time'
p261
F0.12650799751281738
sS'comp_time'
p262
F0.0007631778717041016
sS'exec_cq'
p263
I16
sS'total_cq'
p264
I16
sa(dp265
g260
I83
sg261
F0.00010514259338378906
sg262
F0.00030112266540527344
sg263
I14
sg264
I14
sasS'total_cqs'
p266
I16
ssI24
(dp267
S'iters'
p268
I0
sS'meta'
p269
(lp270
sS'total_cqs'
p271
I1
ssI25
(dp272
S'iters'
p273
I0
sS'meta'
p274
(lp275
sS'total_cqs'
p276
I1
ssI26
(dp277
S'iters'
p278
I1
sS'meta'
p279
(lp280
(dp281
S'objective'
p282
I819
sS'query_time'
p283
F0.5819361209869385
sS'comp_time'
p284
F0.0002300739288330078
sS'exec_cq'
p285
I42
sS'total_cq'
p286
I42
sasS'total_cqs'
p287
I42
ssI27
(dp288
S'iters'
p289
I5
sS'meta'
p290
(lp291
(dp292
S'objective'
p293
I411
sS'query_time'
p294
F22.261291980743408
sS'comp_time'
p295
F0.8456189632415771
sS'exec_cq'
p296
I30
sS'total_cq'
p297
I30
sa(dp298
g293
I390
sg294
F0.0009930133819580078
sg295
F0.658257007598877
sg296
I28
sg297
I28
sa(dp299
g293
I374
sg294
F0.0009248256683349609
sg295
F0.5745360851287842
sg296
I27
sg297
I27
sa(dp300
g293
I304
sg294
F0.17507600784301758
sg295
F0.00432896614074707
sg296
I26
sg297
I26
sa(dp301
g293
I15
sg294
F0.4414517879486084
sg295
F0.28821301460266113
sg296
I2
sg297
I2
sasS'total_cqs'
p302
I30
ssI28
(dp303
S'iters'
p304
I0
sS'meta'
p305
(lp306
sS'total_cqs'
p307
I1
ssI29
(dp308
S'iters'
p309
I5
sS'meta'
p310
(lp311
(dp312
S'objective'
p313
I199
sS'query_time'
p314
F154.1495280265808
sS'comp_time'
p315
F13.380818128585815
sS'exec_cq'
p316
I49
sS'total_cq'
p317
I49
sa(dp318
g313
I89
sg314
F0.002112865447998047
sg315
F0.016289949417114258
sg316
I16
sg317
I16
sa(dp319
g313
I19
sg314
F0.0018630027770996094
sg315
F0.009439706802368164
sg316
I9
sg317
I9
sa(dp320
g313
I1
sg314
F0.00102996826171875
sg315
F0.006121158599853516
sg316
I4
sg317
I4
sa(dp321
g313
I27
sg314
F0.0007622241973876953
sg315
F0.0035827159881591797
sg316
I2
sg317
I2
sasS'total_cqs'
p322
I49
ssI30
(dp323
S'iters'
p324
I1
sS'meta'
p325
(lp326
(dp327
S'objective'
p328
I1
sS'query_time'
p329
F2.516029119491577
sS'comp_time'
p330
F0.024033069610595703
sS'exec_cq'
p331
I2
sS'total_cq'
p332
I2
sasS'total_cqs'
p333
I2
ssI31
(dp334
S'iters'
p335
I0
sS'meta'
p336
(lp337
sS'total_cqs'
p338
I1
ssI32
(dp339
S'iters'
p340
I1
sS'meta'
p341
(lp342
(dp343
S'objective'
p344
I1
sS'query_time'
p345
F0.015998125076293945
sS'comp_time'
p346
F0.0003230571746826172
sS'exec_cq'
p347
I2
sS'total_cq'
p348
I2
sasS'total_cqs'
p349
I2
ssI33
(dp350
S'iters'
p351
I1
sS'meta'
p352
(lp353
(dp354
S'objective'
p355
I5150
sS'query_time'
p356
F22.106403827667236
sS'comp_time'
p357
F0.6863710880279541
sS'exec_cq'
p358
I103
sS'total_cq'
p359
I103
sasS'total_cqs'
p360
I103
ssI34
(dp361
S'iters'
p362
I1
sS'meta'
p363
(lp364
(dp365
S'objective'
p366
I1
sS'query_time'
p367
F0.04044818878173828
sS'comp_time'
p368
F0.0005991458892822266
sS'exec_cq'
p369
I2
sS'total_cq'
p370
I2
sasS'total_cqs'
p371
I2
ssI35
(dp372
S'iters'
p373
I4
sS'meta'
p374
(lp375
(dp376
S'objective'
p377
I2377
sS'query_time'
p378
F20.358983993530273
sS'comp_time'
p379
F0.11972999572753906
sS'exec_cq'
p380
I70
sS'total_cq'
p381
I70
sa(dp382
g377
I2363
sg378
F0.0002639293670654297
sg379
F0.17168402671813965
sg380
I69
sg381
I69
sa(dp383
g377
I2211
sg378
F0.3978610038757324
sg379
F0.37996721267700195
sg380
I68
sg381
I68
sa(dp384
g377
I47
sg378
F0.017050981521606445
sg379
F0.009982824325561523
sg380
I2
sg381
I2
sasS'total_cqs'
p385
I70
ssI36
(dp386
S'iters'
p387
I3
sS'meta'
p388
(lp389
(dp390
S'objective'
p391
I419
sS'query_time'
p392
F3.192918062210083
sS'comp_time'
p393
F0.02343297004699707
sS'exec_cq'
p394
I33
sS'total_cq'
p395
I33
sa(dp396
g391
I352
sg392
F0.003283977508544922
sg393
F0.016428232192993164
sg394
I29
sg395
I29
sa(dp397
g391
I355
sg392
F0.0011811256408691406
sg393
F0.005933046340942383
sg394
I25
sg395
I25
sasS'total_cqs'
p398
I33
ssI37
(dp399
S'iters'
p400
I1
sS'meta'
p401
(lp402
(dp403
S'objective'
p404
I1
sS'query_time'
p405
F0.02702498435974121
sS'comp_time'
p406
F0.00028228759765625
sS'exec_cq'
p407
I2
sS'total_cq'
p408
I2
sasS'total_cqs'
p409
I2
ssI38
(dp410
S'iters'
p411
I2
sS'meta'
p412
(lp413
(dp414
S'objective'
p415
I0
sS'query_time'
p416
F0.0495610237121582
sS'comp_time'
p417
F0.0006949901580810547
sS'exec_cq'
p418
I4
sS'total_cq'
p419
I4
sa(dp420
g415
I3
sg416
F0.00011301040649414062
sg417
F0.0004961490631103516
sg418
I2
sg419
I2
sasS'total_cqs'
p421
I4
ssI39
(dp422
S'iters'
p423
I2
sS'meta'
p424
(lp425
(dp426
S'objective'
p427
I626
sS'query_time'
p428
F0.8551750183105469
sS'comp_time'
p429
F0.0018999576568603516
sS'exec_cq'
p430
I44
sS'total_cq'
p431
I44
sa(dp432
g427
I720
sg428
F0.00044608116149902344
sg429
F0.005619049072265625
sg430
I37
sg431
I37
sasS'total_cqs'
p433
I44
ssI40
(dp434
S'iters'
p435
I1
sS'meta'
p436
(lp437
(dp438
S'objective'
p439
I14
sS'query_time'
p440
F0.2727780342102051
sS'comp_time'
p441
F0.00010085105895996094
sS'exec_cq'
p442
I7
sS'total_cq'
p443
I7
sasS'total_cqs'
p444
I7
ssI41
(dp445
S'iters'
p446
I1
sS'meta'
p447
(lp448
(dp449
S'objective'
p450
I54
sS'query_time'
p451
F0.21453595161437988
sS'comp_time'
p452
F0.0001480579376220703
sS'exec_cq'
p453
I12
sS'total_cq'
p454
I12
sasS'total_cqs'
p455
I12
ssI42
(dp456
S'iters'
p457
I1
sS'meta'
p458
(lp459
(dp460
S'objective'
p461
I779
sS'query_time'
p462
F0.5538311004638672
sS'comp_time'
p463
F0.00025916099548339844
sS'exec_cq'
p464
I41
sS'total_cq'
p465
I41
sasS'total_cqs'
p466
I41
ssI43
(dp467
S'iters'
p468
I1
sS'meta'
p469
(lp470
(dp471
S'objective'
p472
I14
sS'query_time'
p473
F0.12406492233276367
sS'comp_time'
p474
F0.00016498565673828125
sS'exec_cq'
p475
I7
sS'total_cq'
p476
I7
sasS'total_cqs'
p477
I7
ssI44
(dp478
S'iters'
p479
I4
sS'meta'
p480
(lp481
(dp482
S'objective'
p483
I742
sS'query_time'
p484
F0.7669310569763184
sS'comp_time'
p485
F0.0014226436614990234
sS'exec_cq'
p486
I47
sS'total_cq'
p487
I47
sa(dp488
g483
I741
sg484
F0.00031685829162597656
sg485
F0.0012531280517578125
sg486
I40
sg487
I40
sa(dp489
g483
I9
sg484
F0.009240865707397461
sg485
F0.0007781982421875
sg486
I3
sg487
I3
sa(dp490
g483
I41
sg484
F2.8848648071289062e-05
sg485
F0.00010609626770019531
sg486
I2
sg487
I2
sasS'total_cqs'
p491
I47
ssI45
(dp492
S'iters'
p493
I0
sS'meta'
p494
(lp495
sS'total_cqs'
p496
I1
ssI46
(dp497
S'iters'
p498
I1
sS'meta'
p499
(lp500
(dp501
S'objective'
p502
I9
sS'query_time'
p503
F0.04656696319580078
sS'comp_time'
p504
F0.0002720355987548828
sS'exec_cq'
p505
I6
sS'total_cq'
p506
I6
sasS'total_cqs'
p507
I6
ssI47
(dp508
S'iters'
p509
I1
sS'meta'
p510
(lp511
(dp512
S'objective'
p513
I1
sS'query_time'
p514
F0.01161503791809082
sS'comp_time'
p515
F0.0002732276916503906
sS'exec_cq'
p516
I2
sS'total_cq'
p517
I2
sasS'total_cqs'
p518
I2
ssI48
(dp519
S'iters'
p520
I0
sS'meta'
p521
(lp522
sS'total_cqs'
p523
I1
ssI49
(dp524
S'iters'
p525
I0
sS'meta'
p526
(lp527
sS'total_cqs'
p528
I1
ssI50
(dp529
S'iters'
p530
I1
sS'meta'
p531
(lp532
(dp533
S'objective'
p534
I5
sS'query_time'
p535
F0.11048197746276855
sS'comp_time'
p536
F0.00015401840209960938
sS'exec_cq'
p537
I5
sS'total_cq'
p538
I5
sasS'total_cqs'
p539
I5
ssI51
(dp540
S'iters'
p541
I1
sS'meta'
p542
(lp543
(dp544
S'objective'
p545
I1
sS'query_time'
p546
F0.10501503944396973
sS'comp_time'
p547
F0.00027680397033691406
sS'exec_cq'
p548
I2
sS'total_cq'
p549
I2
sasS'total_cqs'
p550
I2
ssI52
(dp551
S'iters'
p552
I1
sS'meta'
p553
(lp554
(dp555
S'objective'
p556
I1
sS'query_time'
p557
F0.08662009239196777
sS'comp_time'
p558
F0.00025272369384765625
sS'exec_cq'
p559
I2
sS'total_cq'
p560
I2
sasS'total_cqs'
p561
I2
ssI53
(dp562
S'iters'
p563
I1
sS'meta'
p564
(lp565
(dp566
S'objective'
p567
I2
sS'query_time'
p568
F0.11330103874206543
sS'comp_time'
p569
F0.0012679100036621094
sS'exec_cq'
p570
I4
sS'total_cq'
p571
I4
sasS'total_cqs'
p572
I4
ssI54
(dp573
S'iters'
p574
I1
sS'meta'
p575
(lp576
(dp577
S'objective'
p578
I0
sS'query_time'
p579
F0.059921979904174805
sS'comp_time'
p580
F0.0003497600555419922
sS'exec_cq'
p581
I3
sS'total_cq'
p582
I3
sasS'total_cqs'
p583
I3
ssI55
(dp584
S'iters'
p585
I4
sS'meta'
p586
(lp587
(dp588
S'objective'
p589
I4575
sS'query_time'
p590
F15.906270027160645
sS'comp_time'
p591
F0.05898714065551758
sS'exec_cq'
p592
I109
sS'total_cq'
p593
I109
sa(dp594
g589
I4613
sg590
F0.001068115234375
sg591
F0.0016169548034667969
sg592
I97
sg593
I97
sa(dp595
g589
I4441
sg590
F0.0003559589385986328
sg591
F0.0008051395416259766
sg592
I91
sg593
I91
sa(dp596
g589
I4477
sg590
F0.0002911090850830078
sg591
F0.0008141994476318359
sg592
I87
sg593
I87
sasS'total_cqs'
p597
I109
ssI56
(dp598
S'iters'
p599
I4
sS'meta'
p600
(lp601
(dp602
S'objective'
p603
I1504
sS'query_time'
p604
F20.623393058776855
sS'comp_time'
p605
F0.16515517234802246
sS'exec_cq'
p606
I76
sS'total_cq'
p607
I76
sa(dp608
g603
I13
sg604
F0.005491971969604492
sg605
F0.009939193725585938
sg606
I16
sg607
I16
sa(dp609
g603
I19
sg604
F0.00045990943908691406
sg605
F0.0018451213836669922
sg606
I7
sg607
I7
sa(dp610
g603
I13
sg604
F0.00014591217041015625
sg605
F0.0006990432739257812
sg606
I3
sg607
I3
sasS'total_cqs'
p611
I76
ssI57
(dp612
S'iters'
p613
I5
sS'meta'
p614
(lp615
(dp616
S'objective'
p617
I238
sS'query_time'
p618
F88.77200198173523
sS'comp_time'
p619
F3.467621088027954
sS'exec_cq'
p620
I51
sS'total_cq'
p621
I51
sa(dp622
g617
I10
sg618
F0.014153003692626953
sg619
F0.027896642684936523
sg620
I27
sg621
I27
sa(dp623
g617
I4
sg618
F0.0021038055419921875
sg619
F0.005872011184692383
sg620
I12
sg621
I12
sa(dp624
g617
I2
sg618
F0.0014259815216064453
sg619
F0.0041463375091552734
sg620
I6
sg621
I6
sa(dp625
g617
I3
sg618
F0.0008940696716308594
sg619
F0.002711057662963867
sg620
I3
sg621
I3
sasS'total_cqs'
p626
I51
ssI58
(dp627
S'iters'
p628
I6
sS'meta'
p629
(lp630
(dp631
S'objective'
p632
I116853
sS'query_time'
p633
F21.764219999313354
sS'comp_time'
p634
F0.4876821041107178
sS'exec_cq'
p635
I486
sS'total_cq'
p636
I486
sa(dp637
g632
I116569
sg633
F0.0017180442810058594
sg634
F0.4105851650238037
sg635
I484
sg636
I484
sa(dp638
g632
I116195
sg633
F0.001786947250366211
sg634
F1.1367368698120117
sg635
I482
sg636
I482
sa(dp639
g632
I115855
sg633
F0.0012848377227783203
sg634
F0.4230189323425293
sg635
I481
sg636
I481
sa(dp640
g632
I111963
sg633
F2.049906015396118
sg634
F2.2423229217529297
sg635
I480
sg636
I480
sa(dp641
g632
I1170
sg633
F0.15330100059509277
sg634
F0.13266992568969727
sg635
I12
sg636
I12
sasS'total_cqs'
p642
I486
ssI59
(dp643
S'iters'
p644
I2
sS'meta'
p645
(lp646
(dp647
S'objective'
p648
I10
sS'query_time'
p649
F0.3035421371459961
sS'comp_time'
p650
F0.005555152893066406
sS'exec_cq'
p651
I7
sS'total_cq'
p652
I7
sa(dp653
g648
I5
sg649
F0.0002219676971435547
sg650
F0.0009949207305908203
sg651
I2
sg652
I2
sasS'total_cqs'
p654
I7
ssI60
(dp655
S'iters'
p656
I1
sS'meta'
p657
(lp658
(dp659
S'objective'
p660
I5
sS'query_time'
p661
F0.11906099319458008
sS'comp_time'
p662
F0.0003769397735595703
sS'exec_cq'
p663
I5
sS'total_cq'
p664
I5
sasS'total_cqs'
p665
I5
ssI61
(dp666
S'iters'
p667
I0
sS'meta'
p668
(lp669
sS'total_cqs'
p670
I1
ssI62
(dp671
S'iters'
p672
I2
sS'meta'
p673
(lp674
(dp675
S'objective'
p676
I36
sS'query_time'
p677
F0.1795330047607422
sS'comp_time'
p678
F0.00018525123596191406
sS'exec_cq'
p679
I12
sS'total_cq'
p680
I12
sa(dp681
g676
I33
sg677
F4.38690185546875e-05
sg678
F6.008148193359375e-05
sg679
I9
sg680
I9
sasS'total_cqs'
p682
I12
ssI63
(dp683
S'iters'
p684
I0
sS'meta'
p685
(lp686
sS'total_cqs'
p687
I1
ssI64
(dp688
S'iters'
p689
I3
sS'meta'
p690
(lp691
(dp692
S'objective'
p693
I18
sS'query_time'
p694
F1.1913378238677979
sS'comp_time'
p695
F0.007175922393798828
sS'exec_cq'
p696
I12
sS'total_cq'
p697
I12
sa(dp698
g693
I0
sg694
F8.893013000488281e-05
sg695
F0.0003857612609863281
sg696
I4
sg697
I4
sa(dp699
g693
I9
sg694
F5.1021575927734375e-05
sg695
F0.00021004676818847656
sg696
I2
sg697
I2
sasS'total_cqs'
p700
I12
ssI65
(dp701
S'iters'
p702
I3
sS'meta'
p703
(lp704
(dp705
S'objective'
p706
I244
sS'query_time'
p707
F3.0322139263153076
sS'comp_time'
p708
F0.046972036361694336
sS'exec_cq'
p709
I27
sS'total_cq'
p710
I27
sa(dp711
g706
I3
sg707
F0.0014240741729736328
sg708
F0.005382061004638672
sg709
I7
sg710
I7
sa(dp712
g706
I22
sg707
F0.0003161430358886719
sg708
F0.0014400482177734375
sg709
I2
sg710
I2
sasS'total_cqs'
p713
I27
ssI66
(dp714
S'iters'
p715
I0
sS'meta'
p716
(lp717
sS'total_cqs'
p718
I1
ssI67
(dp719
S'iters'
p720
I2
sS'meta'
p721
(lp722
(dp723
S'objective'
p724
I508
sS'query_time'
p725
F4.74150013923645
sS'comp_time'
p726
F0.01066899299621582
sS'exec_cq'
p727
I35
sS'total_cq'
p728
I35
sa(dp729
g724
I9
sg725
F0.0018439292907714844
sg726
F0.006303071975708008
sg727
I2
sg728
I2
sasS'total_cqs'
p730
I35
ssI68
(dp731
S'iters'
p732
I0
sS'meta'
p733
(lp734
sS'total_cqs'
p735
I1
ssI69
(dp736
S'iters'
p737
I1
sS'meta'
p738
(lp739
(dp740
S'objective'
p741
I1224
sS'query_time'
p742
F1.423003911972046
sS'comp_time'
p743
F0.0003159046173095703
sS'exec_cq'
p744
I51
sS'total_cq'
p745
I51
sasS'total_cqs'
p746
I51
ssI70
(dp747
S'iters'
p748
I1
sS'meta'
p749
(lp750
(dp751
S'objective'
p752
I9
sS'query_time'
p753
F0.18502306938171387
sS'comp_time'
p754
F0.0002980232238769531
sS'exec_cq'
p755
I6
sS'total_cq'
p756
I6
sasS'total_cqs'
p757
I6
ssI71
(dp758
S'iters'
p759
I7
sS'meta'
p760
(lp761
(dp762
S'objective'
p763
I3279
sS'query_time'
p764
F1.1034801006317139
sS'comp_time'
p765
F0.0013251304626464844
sS'exec_cq'
p766
I85
sS'total_cq'
p767
I85
sa(dp768
g763
I3117
sg764
F0.0005800724029541016
sg765
F0.0009100437164306641
sg766
I82
sg767
I82
sa(dp769
g763
I3012
sg764
F0.0004119873046875
sg765
F0.0008327960968017578
sg766
I78
sg767
I78
sa(dp770
g763
I2884
sg764
F0.00038814544677734375
sg765
F0.0008959770202636719
sg766
I74
sg767
I74
sa(dp771
g763
I2790
sg764
F0.0003669261932373047
sg765
F0.0006048679351806641
sg766
I71
sg767
I71
sa(dp772
g763
I2678
sg764
F0.0002560615539550781
sg765
F0.00025081634521484375
sg766
I69
sg767
I69
sa(dp773
g763
I57
sg764
F0.020685195922851562
sg765
F0.00033783912658691406
sg766
I3
sg767
I3
sasS'total_cqs'
p774
I85
ssI72
(dp775
S'iters'
p776
I2
sS'meta'
p777
(lp778
(dp779
S'objective'
p780
I4
sS'query_time'
p781
F1.346755027770996
sS'comp_time'
p782
F0.007948875427246094
sS'exec_cq'
p783
I8
sS'total_cq'
p784
I8
sa(dp785
g780
I4
sg781
F0.00011301040649414062
sg782
F0.0003452301025390625
sg783
I5
sg784
I5
sasS'total_cqs'
p786
I8
ssI73
(dp787
S'iters'
p788
I0
sS'meta'
p789
(lp790
sS'total_cqs'
p791
I1
ssI74
(dp792
S'iters'
p793
I0
sS'meta'
p794
(lp795
sS'total_cqs'
p796
I1
ssI75
(dp797
S'iters'
p798
I1
sS'meta'
p799
(lp800
(dp801
S'objective'
p802
I5
sS'query_time'
p803
F0.05419206619262695
sS'comp_time'
p804
F0.00014209747314453125
sS'exec_cq'
p805
I5
sS'total_cq'
p806
I5
sasS'total_cqs'
p807
I5
ssI76
(dp808
S'iters'
p809
I1
sS'meta'
p810
(lp811
(dp812
S'objective'
p813
I1
sS'query_time'
p814
F0.17302894592285156
sS'comp_time'
p815
F0.00033020973205566406
sS'exec_cq'
p816
I2
sS'total_cq'
p817
I2
sasS'total_cqs'
p818
I2
ssI77
(dp819
S'iters'
p820
I0
sS'meta'
p821
(lp822
sS'total_cqs'
p823
I1
ssI78
(dp824
S'iters'
p825
I0
sS'meta'
p826
(lp827
sS'total_cqs'
p828
I1
ssI103
(dp829
S'iters'
p830
I1
sS'meta'
p831
(lp832
(dp833
S'objective'
p834
I54
sS'query_time'
p835
F0.9736769199371338
sS'comp_time'
p836
F0.0001780986785888672
sS'exec_cq'
p837
I12
sS'total_cq'
p838
I12
sasS'total_cqs'
p839
I12
ssI104
(dp840
S'iters'
p841
I1
sS'meta'
p842
(lp843
(dp844
S'objective'
p845
I2
sS'query_time'
p846
F5.914332151412964
sS'comp_time'
p847
F0.08664298057556152
sS'exec_cq'
p848
I4
sS'total_cq'
p849
I4
sasS'total_cqs'
p850
I4
ssI105
(dp851
S'iters'
p852
I0
sS'meta'
p853
(lp854
sS'total_cqs'
p855
I1
ssI106
(dp856
S'iters'
p857
I1
sS'meta'
p858
(lp859
(dp860
S'objective'
p861
I2
sS'query_time'
p862
F0.21118998527526855
sS'comp_time'
p863
F0.00012373924255371094
sS'exec_cq'
p864
I4
sS'total_cq'
p865
I4
sasS'total_cqs'
p866
I4
ssI107
(dp867
S'iters'
p868
I2
sS'meta'
p869
(lp870
(dp871
S'objective'
p872
I60
sS'query_time'
p873
F0.6992490291595459
sS'comp_time'
p874
F0.00020503997802734375
sS'exec_cq'
p875
I16
sS'total_cq'
p876
I16
sa(dp877
g872
I6
sg873
F0.014000892639160156
sg874
F0.00018477439880371094
sg875
I3
sg876
I3
sasS'total_cqs'
p878
I16
ssI108
(dp879
S'iters'
p880
I0
sS'meta'
p881
(lp882
sS'total_cqs'
p883
I1
ss.