(dp0
I1
(dp1
S'iters'
p2
I3
sS'meta'
p3
(lp4
(dp5
S'objective'
p6
I10
sS'query_time'
p7
F0.023623228073120117
sS'comp_time'
p8
F8.106231689453125e-05
sS'exec_cq'
p9
I1
sS'total_cq'
p10
I12
sa(dp11
g6
I9
sg7
F0.011311054229736328
sg8
F7.891654968261719e-05
sg9
I3
sg10
I11
sa(dp12
g6
I8
sg7
F0.011560916900634766
sg8
F6.198883056640625e-05
sg9
I1
sg10
I10
sasS'total_cqs'
p13
I12
ssI2
(dp14
S'iters'
p15
I5
sS'meta'
p16
(lp17
(dp18
S'objective'
p19
I21
sS'query_time'
p20
F0.05318403244018555
sS'comp_time'
p21
F0.00011992454528808594
sS'exec_cq'
p22
I2
sS'total_cq'
p23
I27
sa(dp24
g19
I20
sg20
F0.0197601318359375
sg21
F0.00010013580322265625
sg22
I1
sg23
I24
sa(dp25
g19
I20
sg20
F0.02112579345703125
sg21
F0.00010895729064941406
sg22
I3
sg23
I22
sa(dp26
g19
I13
sg20
F0.01974201202392578
sg21
F0.00010204315185546875
sg22
I1
sg23
I21
sa(dp27
g19
I15
sg20
F0.015238046646118164
sg21
F9.822845458984375e-05
sg22
I2
sg23
I17
sasS'total_cqs'
p28
I27
ssI3
(dp29
S'iters'
p30
I6
sS'meta'
p31
(lp32
(dp33
S'objective'
p34
I11
sS'query_time'
p35
F51.23799991607666
sS'comp_time'
p36
F0.00011801719665527344
sS'exec_cq'
p37
I3
sS'total_cq'
p38
I43
sa(dp39
g34
I19
sg35
F49.53377604484558
sg36
F0.00017595291137695312
sg37
I4
sg38
I27
sa(dp40
g34
I7
sg35
F15.736260890960693
sg36
F0.00012302398681640625
sg37
I1
sg38
I23
sa(dp41
g34
I1
sg35
F7.6428611278533936
sg36
F0.0004069805145263672
sg37
I1
sg38
I15
sa(dp42
g34
I3
sg35
F7.182666063308716
sg36
F0.0009162425994873047
sg37
I1
sg38
I7
sa(dp43
g34
I3
sg35
F0.0019059181213378906
sg36
F8.511543273925781e-05
sg37
I1
sg38
I5
sasS'total_cqs'
p44
I43
ssI4
(dp45
S'iters'
p46
I2
sS'meta'
p47
(lp48
(dp49
S'objective'
p50
I7
sS'query_time'
p51
F0.7510170936584473
sS'comp_time'
p52
F0.00012421607971191406
sS'exec_cq'
p53
I8
sS'total_cq'
p54
I11
sa(dp55
g50
I0
sg51
F3.1658411026000977
sg52
F9.298324584960938e-05
sg53
I1
sg54
I2
sasS'total_cqs'
p56
I11
ssI5
(dp57
S'iters'
p58
I2
sS'meta'
p59
(lp60
(dp61
S'objective'
p62
I2
sS'query_time'
p63
F0.7789230346679688
sS'comp_time'
p64
F8.893013000488281e-05
sS'exec_cq'
p65
I1
sS'total_cq'
p66
I8
sa(dp67
g62
I1
sg63
F0.31529784202575684
sg64
F7.796287536621094e-05
sg65
I1
sg66
I3
sasS'total_cqs'
p68
I8
ssI6
(dp69
S'iters'
p70
I4
sS'meta'
p71
(lp72
(dp73
S'objective'
p74
I16
sS'query_time'
p75
F8.909278154373169
sS'comp_time'
p76
F0.00015282630920410156
sS'exec_cq'
p77
I1
sS'total_cq'
p78
I18
sa(dp79
g74
I15
sg75
F0.0616300106048584
sg76
F0.00011801719665527344
sg77
I1
sg78
I17
sa(dp80
g74
I10
sg75
F0.4272639751434326
sg76
F0.00014281272888183594
sg77
I1
sg78
I16
sa(dp81
g74
I1
sg75
F6.375047922134399
sg76
F0.0003437995910644531
sg77
I1
sg78
I3
sasS'total_cqs'
p82
I18
ssI7
(dp83
S'iters'
p84
I1
sS'meta'
p85
(lp86
(dp87
S'objective'
p88
I7
sS'query_time'
p89
F0.24693918228149414
sS'comp_time'
p90
F6.604194641113281e-05
sS'exec_cq'
p91
I1
sS'total_cq'
p92
I9
sasS'total_cqs'
p93
I9
ssI8
(dp94
S'iters'
p95
I7
sS'meta'
p96
(lp97
(dp98
S'objective'
p99
I25
sS'query_time'
p100
F0.052983999252319336
sS'comp_time'
p101
F0.00011587142944335938
sS'exec_cq'
p102
I2
sS'total_cq'
p103
I27
sa(dp104
g99
I18
sg100
F0.02640390396118164
sg101
F0.0001010894775390625
sg102
I1
sg103
I26
sa(dp105
g99
I20
sg100
F0.01710820198059082
sg101
F9.608268737792969e-05
sg102
I6
sg103
I22
sa(dp106
g99
I17
sg100
F0.03449296951293945
sg101
F0.00010585784912109375
sg102
I2
sg103
I21
sa(dp107
g99
I17
sg100
F0.04147505760192871
sg101
F9.417533874511719e-05
sg102
I3
sg103
I19
sa(dp108
g99
I16
sg100
F0.01214599609375
sg101
F8.511543273925781e-05
sg102
I7
sg103
I18
sa(dp109
g99
I15
sg100
F0.00780797004699707
sg101
F7.414817810058594e-05
sg102
I12
sg103
I17
sasS'total_cqs'
p110
I27
ssI9
(dp111
S'iters'
p112
I3
sS'meta'
p113
(lp114
(dp115
S'objective'
p116
I1
sS'query_time'
p117
F0.027408123016357422
sS'comp_time'
p118
F6.794929504394531e-05
sS'exec_cq'
p119
I1
sS'total_cq'
p120
I7
sa(dp121
g116
I0
sg117
F0.006254911422729492
sg118
F7.009506225585938e-05
sg119
I1
sg120
I4
sa(dp122
g116
I0
sg117
F0.0030689239501953125
sg118
F5.91278076171875e-05
sg119
I2
sg120
I2
sasS'total_cqs'
p123
I7
ssI10
(dp124
S'iters'
p125
I7
sS'meta'
p126
(lp127
(dp128
S'objective'
p129
I23
sS'query_time'
p130
F0.0898289680480957
sS'comp_time'
p131
F0.00011205673217773438
sS'exec_cq'
p132
I1
sS'total_cq'
p133
I51
sa(dp134
g129
I23
sg130
F0.058365821838378906
sg131
F0.00010991096496582031
sg132
I1
sg133
I37
sa(dp135
g129
I18
sg130
F0.023823976516723633
sg131
F0.0001068115234375
sg132
I3
sg133
I30
sa(dp136
g129
I22
sg130
F0.013396978378295898
sg131
F9.489059448242188e-05
sg132
I2
sg133
I24
sa(dp137
g129
I19
sg130
F0.03615307807922363
sg131
F0.00010395050048828125
sg132
I1
sg133
I23
sa(dp138
g129
I19
sg130
F0.032662153244018555
sg131
F9.298324584960938e-05
sg132
I6
sg133
I21
sa(dp139
g129
I18
sg130
F0.011413097381591797
sg131
F7.176399230957031e-05
sg132
I1
sg133
I20
sasS'total_cqs'
p140
I51
ssI11
(dp141
S'iters'
p142
I17
sS'meta'
p143
(lp144
(dp145
S'objective'
p146
I59
sS'query_time'
p147
F0.11619687080383301
sS'comp_time'
p148
F0.00011992454528808594
sS'exec_cq'
p149
I2
sS'total_cq'
p150
I63
sa(dp151
g146
I59
sg147
F0.05869007110595703
sg148
F0.00012421607971191406
sg149
I1
sg150
I61
sa(dp152
g146
I58
sg147
F0.07768392562866211
sg148
F0.0001220703125
sg149
I3
sg150
I60
sa(dp153
g146
I27
sg147
F0.08984899520874023
sg148
F0.0001220703125
sg149
I2
sg150
I59
sa(dp154
g146
I41
sg147
F0.0845329761505127
sg148
F0.00011205673217773438
sg149
I2
sg150
I43
sa(dp155
g146
I40
sg147
F0.04130101203918457
sg148
F0.00010514259338378906
sg149
I2
sg150
I42
sa(dp156
g146
I35
sg147
F0.07197690010070801
sg148
F0.00017499923706054688
sg149
I1
sg150
I41
sa(dp157
g146
I34
sg147
F0.07373404502868652
sg148
F0.00011301040649414062
sg149
I1
sg150
I38
sa(dp158
g146
I34
sg147
F0.04579615592956543
sg148
F0.0001239776611328125
sg149
I2
sg150
I36
sa(dp159
g146
I33
sg147
F0.05078697204589844
sg148
F0.00012493133544921875
sg149
I1
sg150
I35
sa(dp160
g146
I32
sg147
F0.07282900810241699
sg148
F0.00011205673217773438
sg149
I1
sg150
I34
sa(dp161
g146
I19
sg147
F0.05346798896789551
sg148
F9.012222290039062e-05
sg149
I1
sg150
I33
sa(dp162
g146
I5
sg147
F0.014882087707519531
sg148
F7.390975952148438e-05
sg149
I1
sg150
I7
sa(dp163
g146
I4
sg147
F0.014786005020141602
sg148
F8.797645568847656e-05
sg149
I1
sg150
I6
sa(dp164
g146
I1
sg147
F0.013210058212280273
sg148
F6.890296936035156e-05
sg149
I1
sg150
I5
sa(dp165
g146
I1
sg147
F0.0067789554595947266
sg148
F6.175041198730469e-05
sg149
I1
sg150
I3
sa(dp166
g146
I0
sg147
F0.003453969955444336
sg148
F5.4836273193359375e-05
sg149
I2
sg150
I2
sasS'total_cqs'
p167
I63
ssI12
(dp168
S'iters'
p169
I6
sS'meta'
p170
(lp171
(dp172
S'objective'
p173
I44
sS'query_time'
p174
F0.06807279586791992
sS'comp_time'
p175
F0.00011587142944335938
sS'exec_cq'
p176
I1
sS'total_cq'
p177
I50
sa(dp178
g173
I13
sg174
F0.05065107345581055
sg175
F0.00011682510375976562
sg176
I1
sg177
I47
sa(dp179
g173
I28
sg174
F0.05620384216308594
sg175
F9.202957153320312e-05
sg176
I2
sg177
I30
sa(dp180
g173
I21
sg174
F0.05830097198486328
sg175
F0.00010395050048828125
sg176
I1
sg177
I29
sa(dp181
g173
I0
sg174
F0.0261838436126709
sg175
F7.581710815429688e-05
sg176
I1
sg177
I4
sa(dp182
g173
I0
sg174
F0.006092071533203125
sg175
F5.078315734863281e-05
sg176
I1
sg177
I2
sasS'total_cqs'
p183
I50
ssI13
(dp184
S'iters'
p185
I4
sS'meta'
p186
(lp187
(dp188
S'objective'
p189
I12
sS'query_time'
p190
F0.06270194053649902
sS'comp_time'
p191
F7.796287536621094e-05
sS'exec_cq'
p192
I1
sS'total_cq'
p193
I20
sa(dp194
g189
I0
sg190
F0.02256608009338379
sg191
F0.0001010894775390625
sg192
I2
sg193
I16
sa(dp195
g189
I4
sg190
F0.01386713981628418
sg191
F8.416175842285156e-05
sg192
I1
sg193
I8
sa(dp196
g189
I0
sg190
F0.006031036376953125
sg191
F6.389617919921875e-05
sg192
I1
sg193
I2
sasS'total_cqs'
p197
I20
ssI14
(dp198
S'iters'
p199
I2
sS'meta'
p200
(lp201
(dp202
S'objective'
p203
I1
sS'query_time'
p204
F0.3939189910888672
sS'comp_time'
p205
F7.772445678710938e-05
sS'exec_cq'
p206
I1
sS'total_cq'
p207
I9
sa(dp208
g203
I2
sg204
F7.441158056259155
sg205
F0.00018978118896484375
sg206
I1
sg207
I4
sasS'total_cqs'
p209
I9
ssI15
(dp210
S'iters'
p211
I3
sS'meta'
p212
(lp213
(dp214
S'objective'
p215
I9
sS'query_time'
p216
F0.06327414512634277
sS'comp_time'
p217
F8.106231689453125e-05
sS'exec_cq'
p218
I1
sS'total_cq'
p219
I11
sa(dp220
g215
I6
sg216
F0.04280591011047363
sg217
F7.176399230957031e-05
sg218
I1
sg219
I10
sa(dp221
g215
I0
sg216
F1.306401014328003
sg217
F7.987022399902344e-05
sg218
I1
sg219
I2
sasS'total_cqs'
p222
I11
ssI16
(dp223
S'iters'
p224
I1
sS'meta'
p225
(lp226
(dp227
S'objective'
p228
I6
sS'query_time'
p229
F0.011207103729248047
sS'comp_time'
p230
F8.702278137207031e-05
sS'exec_cq'
p231
I4
sS'total_cq'
p232
I8
sasS'total_cqs'
p233
I8
ssI17
(dp234
S'iters'
p235
I2
sS'meta'
p236
(lp237
(dp238
S'objective'
p239
I3
sS'query_time'
p240
F0.01796698570251465
sS'comp_time'
p241
F7.200241088867188e-05
sS'exec_cq'
p242
I1
sS'total_cq'
p243
I11
sa(dp244
g239
I5
sg240
F0.03152799606323242
sg241
F9.369850158691406e-05
sg242
I2
sg243
I7
sasS'total_cqs'
p245
I11
ssI18
(dp246
S'iters'
p247
I2
sS'meta'
p248
(lp249
(dp250
S'objective'
p251
I9
sS'query_time'
p252
F0.03957390785217285
sS'comp_time'
p253
F7.724761962890625e-05
sS'exec_cq'
p254
I1
sS'total_cq'
p255
I11
sa(dp256
g251
I8
sg252
F0.014077901840209961
sg253
F7.295608520507812e-05
sg254
I2
sg255
I10
sasS'total_cqs'
p257
I11
ssI22
(dp258
S'iters'
p259
I1
sS'meta'
p260
(lp261
(dp262
S'objective'
p263
I16
sS'query_time'
p264
F0.025134801864624023
sS'comp_time'
p265
F8.58306884765625e-05
sS'exec_cq'
p266
I12
sS'total_cq'
p267
I18
sasS'total_cqs'
p268
I18
ssI23
(dp269
S'iters'
p270
I2
sS'meta'
p271
(lp272
(dp273
S'objective'
p274
I14
sS'query_time'
p275
F0.04327392578125
sS'comp_time'
p276
F8.797645568847656e-05
sS'exec_cq'
p277
I6
sS'total_cq'
p278
I16
sa(dp279
g274
I13
sg275
F0.01655292510986328
sg276
F8.20159912109375e-05
sg277
I4
sg278
I15
sasS'total_cqs'
p280
I16
ssI26
(dp281
S'iters'
p282
I1
sS'meta'
p283
(lp284
(dp285
S'objective'
p286
I40
sS'query_time'
p287
F0.05965995788574219
sS'comp_time'
p288
F9.608268737792969e-05
sS'exec_cq'
p289
I25
sS'total_cq'
p290
I42
sasS'total_cqs'
p291
I42
ssI27
(dp292
S'iters'
p293
I7
sS'meta'
p294
(lp295
(dp296
S'objective'
p297
I28
sS'query_time'
p298
F1.1077909469604492
sS'comp_time'
p299
F0.00010275840759277344
sS'exec_cq'
p300
I5
sS'total_cq'
p301
I30
sa(dp302
g297
I27
sg298
F0.9178910255432129
sg299
F0.00011587142944335938
sg300
I9
sg301
I29
sa(dp303
g297
I26
sg298
F3.3447580337524414
sg299
F0.00025391578674316406
sg300
I4
sg301
I28
sa(dp304
g297
I25
sg298
F8.896447896957397
sg299
F0.0002980232238769531
sg300
I6
sg301
I27
sa(dp305
g297
I24
sg298
F1.1989729404449463
sg299
F0.00015497207641601562
sg300
I11
sg301
I26
sa(dp306
g297
I21
sg298
F0.27843809127807617
sg299
F0.0002779960632324219
sg300
I16
sg301
I25
sa(dp307
g297
I21
sg298
F2.3108038902282715
sg299
F0.00011301040649414062
sg300
I16
sg301
I23
sasS'total_cqs'
p308
I30
ssI29
(dp309
S'iters'
p310
I6
sS'meta'
p311
(lp312
(dp313
S'objective'
p314
I45
sS'query_time'
p315
F9.520791053771973
sS'comp_time'
p316
F0.00015974044799804688
sS'exec_cq'
p317
I1
sS'total_cq'
p318
I49
sa(dp319
g314
I43
sg315
F25.544470071792603
sg316
F0.00014591217041015625
sg317
I2
sg318
I47
sa(dp320
g314
I33
sg315
F1.439769983291626
sg316
F0.00011897087097167969
sg317
I1
sg318
I45
sa(dp321
g314
I29
sg315
F0.8410089015960693
sg316
F0.00010824203491210938
sg317
I1
sg318
I39
sa(dp322
g314
I16
sg315
F0.35741114616394043
sg316
F9.012222290039062e-05
sg317
I1
sg318
I34
sa(dp323
g314
I23
sg315
F0.19147205352783203
sg316
F0.00010180473327636719
sg317
I1
sg318
I25
sasS'total_cqs'
p324
I49
ssI30
(dp325
S'iters'
p326
I1
sS'meta'
p327
(lp328
(dp329
S'objective'
p330
I0
sS'query_time'
p331
F0.740149974822998
sS'comp_time'
p332
F7.200241088867188e-05
sS'exec_cq'
p333
I1
sS'total_cq'
p334
I2
sasS'total_cqs'
p335
I2
ssI32
(dp336
S'iters'
p337
I1
sS'meta'
p338
(lp339
(dp340
S'objective'
p341
I0
sS'query_time'
p342
F0.005342960357666016
sS'comp_time'
p343
F6.198883056640625e-05
sS'exec_cq'
p344
I1
sS'total_cq'
p345
I2
sasS'total_cqs'
p346
I2
ssI33
(dp347
S'iters'
p348
I7
sS'meta'
p349
(lp350
(dp351
S'objective'
p352
I101
sS'query_time'
p353
F0.7728559970855713
sS'comp_time'
p354
F0.00014019012451171875
sS'exec_cq'
p355
I1
sS'total_cq'
p356
I103
sa(dp357
g352
I100
sg353
F0.863332986831665
sg354
F0.0001900196075439453
sg355
I2
sg356
I102
sa(dp358
g352
I97
sg353
F0.9729881286621094
sg354
F0.00017905235290527344
sg355
I5
sg356
I101
sa(dp359
g352
I97
sg353
F1.5317389965057373
sg354
F0.00018906593322753906
sg355
I1
sg356
I99
sa(dp360
g352
I96
sg353
F1.0989930629730225
sg354
F0.00018334388732910156
sg355
I4
sg356
I98
sa(dp361
g352
I93
sg353
F0.6207699775695801
sg354
F0.00023818016052246094
sg355
I10
sg356
I97
sa(dp362
g352
I0
sg353
F0.21634387969970703
sg354
F0.0001308917999267578
sg355
I1
sg356
I2
sasS'total_cqs'
p363
I103
ssI34
(dp364
S'iters'
p365
I1
sS'meta'
p366
(lp367
(dp368
S'objective'
p369
I0
sS'query_time'
p370
F0.013779878616333008
sS'comp_time'
p371
F6.914138793945312e-05
sS'exec_cq'
p372
I1
sS'total_cq'
p373
I2
sasS'total_cqs'
p374
I2
ssI35
(dp375
S'iters'
p376
I9
sS'meta'
p377
(lp378
(dp379
S'objective'
p380
I64
sS'query_time'
p381
F4.465755939483643
sS'comp_time'
p382
F0.00013899803161621094
sS'exec_cq'
p383
I1
sS'total_cq'
p384
I70
sa(dp385
g380
I49
sg381
F0.3396439552307129
sg382
F0.00016808509826660156
sg383
I1
sg384
I67
sa(dp386
g380
I56
sg381
F19.752443075180054
sg382
F0.0003192424774169922
sg383
I1
sg384
I58
sa(dp387
g380
I51
sg381
F21.12769389152527
sg382
F0.00034809112548828125
sg383
I1
sg384
I57
sa(dp388
g380
I48
sg381
F24.054301023483276
sg382
F0.00023293495178222656
sg383
I3
sg384
I54
sa(dp389
g380
I43
sg381
F0.9437620639801025
sg382
F0.0002880096435546875
sg383
I1
sg384
I51
sa(dp390
g380
I2
sg381
F0.06833004951477051
sg382
F9.989738464355469e-05
sg383
I1
sg384
I4
sa(dp391
g380
I1
sg381
F0.015655040740966797
sg382
F0.00012922286987304688
sg383
I1
sg384
I3
sa(dp392
g380
I0
sg381
F0.31197118759155273
sg382
F0.00013208389282226562
sg383
I1
sg384
I2
sasS'total_cqs'
p393
I70
ssI36
(dp394
S'iters'
p395
I4
sS'meta'
p396
(lp397
(dp398
S'objective'
p399
I31
sS'query_time'
p400
F0.10271215438842773
sS'comp_time'
p401
F9.489059448242188e-05
sS'exec_cq'
p402
I1
sS'total_cq'
p403
I33
sa(dp404
g399
I30
sg400
F0.04514789581298828
sg401
F9.298324584960938e-05
sg402
I1
sg403
I32
sa(dp405
g399
I27
sg400
F0.12986397743225098
sg401
F0.000102996826171875
sg402
I5
sg403
I31
sa(dp406
g399
I27
sg400
F0.05990004539489746
sg401
F8.726119995117188e-05
sg402
I7
sg403
I29
sasS'total_cqs'
p407
I33
ssI37
(dp408
S'iters'
p409
I1
sS'meta'
p410
(lp411
(dp412
S'objective'
p413
I0
sS'query_time'
p414
F0.005644083023071289
sS'comp_time'
p415
F6.29425048828125e-05
sS'exec_cq'
p416
I1
sS'total_cq'
p417
I2
sasS'total_cqs'
p418
I2
ssI38
(dp419
S'iters'
p420
I3
sS'meta'
p421
(lp422
(dp423
S'objective'
p424
I2
sS'query_time'
p425
F0.012590169906616211
sS'comp_time'
p426
F5.7220458984375e-05
sS'exec_cq'
p427
I1
sS'total_cq'
p428
I4
sa(dp429
g424
I1
sg425
F0.013447046279907227
sg426
F6.604194641113281e-05
sg427
I1
sg428
I3
sa(dp430
g424
I0
sg425
F0.015452861785888672
sg426
F5.507469177246094e-05
sg427
I1
sg428
I2
sasS'total_cqs'
p431
I4
ssI39
(dp432
S'iters'
p433
I2
sS'meta'
p434
(lp435
(dp436
S'objective'
p437
I28
sS'query_time'
p438
F0.04724907875061035
sS'comp_time'
p439
F0.00011420249938964844
sS'exec_cq'
p440
I1
sS'total_cq'
p441
I44
sa(dp442
g437
I6
sg438
F0.03730201721191406
sg439
F8.0108642578125e-05
sg440
I1
sg441
I8
sasS'total_cqs'
p443
I44
ssI40
(dp444
S'iters'
p445
I1
sS'meta'
p446
(lp447
(dp448
S'objective'
p449
I5
sS'query_time'
p450
F0.02476191520690918
sS'comp_time'
p451
F7.700920104980469e-05
sS'exec_cq'
p452
I5
sS'total_cq'
p453
I7
sasS'total_cqs'
p454
I7
ssI41
(dp455
S'iters'
p456
I2
sS'meta'
p457
(lp458
(dp459
S'objective'
p460
I10
sS'query_time'
p461
F0.02276301383972168
sS'comp_time'
p462
F8.702278137207031e-05
sS'exec_cq'
p463
I2
sS'total_cq'
p464
I12
sa(dp465
g460
I9
sg461
F0.05243706703186035
sg462
F9.202957153320312e-05
sg463
I10
sg464
I11
sasS'total_cqs'
p466
I12
ssI42
(dp467
S'iters'
p468
I1
sS'meta'
p469
(lp470
(dp471
S'objective'
p472
I39
sS'query_time'
p473
F0.03344082832336426
sS'comp_time'
p474
F8.20159912109375e-05
sS'exec_cq'
p475
I11
sS'total_cq'
p476
I41
sasS'total_cqs'
p477
I41
ssI43
(dp478
S'iters'
p479
I1
sS'meta'
p480
(lp481
(dp482
S'objective'
p483
I5
sS'query_time'
p484
F0.018365144729614258
sS'comp_time'
p485
F7.700920104980469e-05
sS'exec_cq'
p486
I2
sS'total_cq'
p487
I7
sasS'total_cqs'
p488
I7
ssI44
(dp489
S'iters'
p490
I4
sS'meta'
p491
(lp492
(dp493
S'objective'
p494
I33
sS'query_time'
p495
F0.050357818603515625
sS'comp_time'
p496
F9.989738464355469e-05
sS'exec_cq'
p497
I2
sS'total_cq'
p498
I47
sa(dp499
g494
I34
sg495
F0.0381009578704834
sg496
F0.00010824203491210938
sg497
I7
sg498
I40
sa(dp500
g494
I1
sg495
F0.0044708251953125
sg496
F6.175041198730469e-05
sg497
I1
sg498
I3
sa(dp501
g494
I0
sg495
F0.01335597038269043
sg496
F5.793571472167969e-05
sg497
I1
sg498
I2
sasS'total_cqs'
p502
I47
ssI46
(dp503
S'iters'
p504
I3
sS'meta'
p505
(lp506
(dp507
S'objective'
p508
I4
sS'query_time'
p509
F0.011965036392211914
sS'comp_time'
p510
F7.176399230957031e-05
sS'exec_cq'
p511
I4
sS'total_cq'
p512
I6
sa(dp513
g508
I3
sg509
F0.0034530162811279297
sg510
F5.626678466796875e-05
sg511
I1
sg512
I5
sa(dp514
g508
I2
sg509
F0.0033659934997558594
sg510
F7.796287536621094e-05
sg511
I1
sg512
I4
sasS'total_cqs'
p515
I6
ssI47
(dp516
S'iters'
p517
I1
sS'meta'
p518
(lp519
(dp520
S'objective'
p521
I0
sS'query_time'
p522
F0.006365060806274414
sS'comp_time'
p523
F6.318092346191406e-05
sS'exec_cq'
p524
I1
sS'total_cq'
p525
I2
sasS'total_cqs'
p526
I2
ssI50
(dp527
S'iters'
p528
I4
sS'meta'
p529
(lp530
(dp531
S'objective'
p532
I3
sS'query_time'
p533
F0.005532979965209961
sS'comp_time'
p534
F6.103515625e-05
sS'exec_cq'
p535
I1
sS'total_cq'
p536
I5
sa(dp537
g532
I2
sg533
F0.011080026626586914
sg534
F8.893013000488281e-05
sg535
I1
sg536
I4
sa(dp538
g532
I1
sg533
F0.0035109519958496094
sg534
F6.794929504394531e-05
sg535
I1
sg536
I3
sa(dp539
g532
I0
sg533
F0.004094123840332031
sg534
F5.4836273193359375e-05
sg535
I1
sg536
I2
sasS'total_cqs'
p540
I5
ssI51
(dp541
S'iters'
p542
I1
sS'meta'
p543
(lp544
(dp545
S'objective'
p546
I0
sS'query_time'
p547
F0.0028340816497802734
sS'comp_time'
p548
F4.982948303222656e-05
sS'exec_cq'
p549
I1
sS'total_cq'
p550
I2
sasS'total_cqs'
p551
I2
ssI52
(dp552
S'iters'
p553
I1
sS'meta'
p554
(lp555
(dp556
S'objective'
p557
I0
sS'query_time'
p558
F0.005204916000366211
sS'comp_time'
p559
F4.887580871582031e-05
sS'exec_cq'
p560
I1
sS'total_cq'
p561
I2
sasS'total_cqs'
p562
I2
ssI53
(dp563
S'iters'
p564
I1
sS'meta'
p565
(lp566
(dp567
S'objective'
p568
I2
sS'query_time'
p569
F0.006114959716796875
sS'comp_time'
p570
F7.104873657226562e-05
sS'exec_cq'
p571
I1
sS'total_cq'
p572
I4
sasS'total_cqs'
p573
I4
ssI54
(dp574
S'iters'
p575
I1
sS'meta'
p576
(lp577
(dp578
S'objective'
p579
I1
sS'query_time'
p580
F0.008940935134887695
sS'comp_time'
p581
F7.176399230957031e-05
sS'exec_cq'
p582
I1
sS'total_cq'
p583
I3
sasS'total_cqs'
p584
I3
ssI55
(dp585
S'iters'
p586
I4
sS'meta'
p587
(lp588
(dp589
S'objective'
p590
I103
sS'query_time'
p591
F0.40918993949890137
sS'comp_time'
p592
F0.00020074844360351562
sS'exec_cq'
p593
I1
sS'total_cq'
p594
I109
sa(dp595
g590
I104
sg591
F0.21494102478027344
sg592
F0.00017690658569335938
sg593
I4
sg594
I106
sa(dp596
g590
I97
sg591
F0.24318909645080566
sg592
F0.00018906593322753906
sg593
I2
sg594
I105
sa(dp597
g590
I99
sg591
F0.1456761360168457
sg592
F0.00018596649169921875
sg593
I1
sg594
I101
sasS'total_cqs'
p598
I109
ssI56
(dp599
S'iters'
p600
I8
sS'meta'
p601
(lp602
(dp603
S'objective'
p604
I74
sS'query_time'
p605
F0.09806990623474121
sS'comp_time'
p606
F0.00013899803161621094
sS'exec_cq'
p607
I2
sS'total_cq'
p608
I76
sa(dp609
g604
I73
sg605
F0.3356950283050537
sg606
F0.0001590251922607422
sg607
I2
sg608
I75
sa(dp610
g604
I72
sg605
F0.37018489837646484
sg606
F0.00015211105346679688
sg607
I5
sg608
I74
sa(dp611
g604
I67
sg605
F0.32899999618530273
sg606
F0.00015211105346679688
sg607
I10
sg608
I73
sa(dp612
g604
I66
sg605
F0.2557668685913086
sg606
F0.00016427040100097656
sg607
I1
sg608
I70
sa(dp613
g604
I66
sg605
F0.19735503196716309
sg606
F0.000164031982421875
sg607
I5
sg608
I68
sa(dp614
g604
I65
sg605
F0.19593286514282227
sg606
F0.00016021728515625
sg607
I1
sg608
I67
sa(dp615
g604
I64
sg605
F0.12695097923278809
sg606
F0.00015211105346679688
sg607
I2
sg608
I66
sasS'total_cqs'
p616
I76
ssI57
(dp617
S'iters'
p618
I4
sS'meta'
p619
(lp620
(dp621
S'objective'
p622
I27
sS'query_time'
p623
F2.608262062072754
sS'comp_time'
p624
F0.0001430511474609375
sS'exec_cq'
p625
I1
sS'total_cq'
p626
I51
sa(dp627
g622
I37
sg623
F0.5496339797973633
sg624
F0.00012302398681640625
sg625
I1
sg626
I39
sa(dp628
g622
I32
sg623
F0.2644460201263428
sg624
F0.00018405914306640625
sg625
I3
sg626
I38
sa(dp629
g622
I1
sg623
F2.605232000350952
sg624
F8.797645568847656e-05
sg625
I1
sg626
I3
sasS'total_cqs'
p630
I51
ssI58
(dp631
S'iters'
p632
I12
sS'meta'
p633
(lp634
(dp635
S'objective'
p636
I478
sS'query_time'
p637
F3.5399229526519775
sS'comp_time'
p638
F0.0014119148254394531
sS'exec_cq'
p639
I2
sS'total_cq'
p640
I486
sa(dp641
g636
I458
sg637
F4.146154165267944
sg638
F0.00047397613525390625
sg639
I2
sg640
I482
sa(dp642
g636
I460
sg637
F1.8261709213256836
sg638
F0.0005829334259033203
sg639
I2
sg640
I470
sa(dp643
g636
I433
sg637
F2.3335540294647217
sg638
F0.0008039474487304688
sg639
I3
sg640
I465
sa(dp644
g636
I445
sg637
F0.5268568992614746
sg638
F0.0005209445953369141
sg639
I1
sg640
I449
sa(dp645
g636
I445
sg637
F6.626868963241577
sg638
F0.0003459453582763672
sg639
I3
sg640
I447
sa(dp646
g636
I434
sg637
F0.4167778491973877
sg638
F0.0003390312194824219
sg639
I2
sg640
I446
sa(dp647
g636
I338
sg637
F1.9886901378631592
sg638
F0.0004889965057373047
sg639
I2
sg640
I440
sa(dp648
g636
I365
sg637
F11.595421075820923
sg638
F0.0004487037658691406
sg639
I2
sg640
I389
sa(dp649
g636
I367
sg637
F1.349242925643921
sg638
F0.0003170967102050781
sg639
I2
sg640
I377
sa(dp650
g636
I3
sg637
F0.7877330780029297
sg638
F9.822845458984375e-05
sg639
I1
sg640
I5
sa(dp651
g636
I2
sg637
F0.06657004356384277
sg638
F0.0001468658447265625
sg639
I1
sg640
I4
sasS'total_cqs'
p652
I486
ssI59
(dp653
S'iters'
p654
I2
sS'meta'
p655
(lp656
(dp657
S'objective'
p658
I3
sS'query_time'
p659
F0.01994800567626953
sS'comp_time'
p660
F8.225440979003906e-05
sS'exec_cq'
p661
I5
sS'total_cq'
p662
I7
sa(dp663
g658
I0
sg659
F0.03508496284484863
sg660
F7.390975952148438e-05
sg661
I2
sg662
I2
sasS'total_cqs'
p664
I7
ssI60
(dp665
S'iters'
p666
I2
sS'meta'
p667
(lp668
(dp669
S'objective'
p670
I3
sS'query_time'
p671
F0.00925302505493164
sS'comp_time'
p672
F6.127357482910156e-05
sS'exec_cq'
p673
I1
sS'total_cq'
p674
I5
sa(dp675
g670
I2
sg671
F0.003165006637573242
sg672
F5.078315734863281e-05
sg673
I1
sg674
I4
sasS'total_cqs'
p676
I5
ssI62
(dp677
S'iters'
p678
I4
sS'meta'
p679
(lp680
(dp681
S'objective'
p682
I10
sS'query_time'
p683
F0.015974044799804688
sS'comp_time'
p684
F7.605552673339844e-05
sS'exec_cq'
p685
I3
sS'total_cq'
p686
I12
sa(dp687
g682
I9
sg683
F0.009999990463256836
sg684
F6.628036499023438e-05
sg685
I1
sg686
I11
sa(dp688
g682
I8
sg683
F0.008796930313110352
sg684
F6.699562072753906e-05
sg685
I6
sg686
I10
sa(dp689
g682
I7
sg683
F0.00751805305480957
sg684
F7.700920104980469e-05
sg685
I2
sg686
I9
sasS'total_cqs'
p690
I12
ssI64
(dp691
S'iters'
p692
I5
sS'meta'
p693
(lp694
(dp695
S'objective'
p696
I8
sS'query_time'
p697
F0.046202898025512695
sS'comp_time'
p698
F8.58306884765625e-05
sS'exec_cq'
p699
I1
sS'total_cq'
p700
I12
sa(dp701
g696
I6
sg697
F0.027118921279907227
sg698
F8.416175842285156e-05
sg699
I2
sg700
I10
sa(dp702
g696
I6
sg697
F0.030766010284423828
sg698
F7.724761962890625e-05
sg699
I1
sg700
I8
sa(dp703
g696
I5
sg697
F0.022568225860595703
sg698
F0.0001430511474609375
sg699
I2
sg700
I7
sa(dp704
g696
I4
sg697
F0.019064903259277344
sg698
F0.0001068115234375
sg699
I2
sg700
I6
sasS'total_cqs'
p705
I12
ssI65
(dp706
S'iters'
p707
I8
sS'meta'
p708
(lp709
(dp710
S'objective'
p711
I23
sS'query_time'
p712
F0.06188702583312988
sS'comp_time'
p713
F0.00010609626770019531
sS'exec_cq'
p714
I1
sS'total_cq'
p715
I27
sa(dp716
g711
I23
sg712
F0.02842402458190918
sg713
F0.00010395050048828125
sg714
I1
sg715
I25
sa(dp717
g711
I22
sg712
F0.5081501007080078
sg713
F0.000102996826171875
sg714
I1
sg715
I24
sa(dp718
g711
I21
sg712
F0.030039072036743164
sg713
F0.00011277198791503906
sg714
I1
sg715
I23
sa(dp719
g711
I14
sg712
F0.01984405517578125
sg713
F9.703636169433594e-05
sg714
I2
sg715
I22
sa(dp720
g711
I16
sg712
F0.034564971923828125
sg713
F0.00010704994201660156
sg714
I2
sg715
I18
sa(dp721
g711
I15
sg712
F0.057077884674072266
sg713
F0.00012087821960449219
sg714
I1
sg715
I17
sa(dp722
g711
I14
sg712
F0.017838001251220703
sg713
F8.177757263183594e-05
sg714
I1
sg715
I16
sasS'total_cqs'
p723
I27
ssI67
(dp724
S'iters'
p725
I1
sS'meta'
p726
(lp727
(dp728
S'objective'
p729
I33
sS'query_time'
p730
F0.8600039482116699
sS'comp_time'
p731
F8.392333984375e-05
sS'exec_cq'
p732
I8
sS'total_cq'
p733
I35
sasS'total_cqs'
p734
I35
ssI69
(dp735
S'iters'
p736
I1
sS'meta'
p737
(lp738
(dp739
S'objective'
p740
I49
sS'query_time'
p741
F0.10538005828857422
sS'comp_time'
p742
F0.00011801719665527344
sS'exec_cq'
p743
I4
sS'total_cq'
p744
I51
sasS'total_cqs'
p745
I51
ssI70
(dp746
S'iters'
p747
I4
sS'meta'
p748
(lp749
(dp750
S'objective'
p751
I4
sS'query_time'
p752
F0.00704503059387207
sS'comp_time'
p753
F6.413459777832031e-05
sS'exec_cq'
p754
I2
sS'total_cq'
p755
I6
sa(dp756
g751
I3
sg752
F0.012002229690551758
sg753
F6.604194641113281e-05
sg754
I1
sg755
I5
sa(dp757
g751
I2
sg752
F0.003607034683227539
sg753
F5.1975250244140625e-05
sg754
I1
sg755
I4
sa(dp758
g751
I1
sg752
F0.005497932434082031
sg753
F5.602836608886719e-05
sg754
I2
sg755
I3
sasS'total_cqs'
p759
I6
ssI71
(dp760
S'iters'
p761
I6
sS'meta'
p762
(lp763
(dp764
S'objective'
p765
I81
sS'query_time'
p766
F0.0868229866027832
sS'comp_time'
p767
F0.00013184547424316406
sS'exec_cq'
p768
I1
sS'total_cq'
p769
I85
sa(dp770
g765
I77
sg766
F0.09615182876586914
sg767
F0.00014209747314453125
sg768
I2
sg769
I83
sa(dp771
g765
I76
sg766
F0.07149815559387207
sg767
F0.0001239776611328125
sg768
I13
sg769
I80
sa(dp772
g765
I72
sg766
F0.07796907424926758
sg767
F0.00017380714416503906
sg768
I8
sg769
I78
sa(dp773
g765
I1
sg766
F0.010313987731933594
sg767
F6.914138793945312e-05
sg768
I2
sg769
I3
sa(dp774
g765
I0
sg766
F0.005024909973144531
sg767
F5.1975250244140625e-05
sg768
I2
sg769
I2
sasS'total_cqs'
p775
I85
ssI72
(dp776
S'iters'
p777
I1
sS'meta'
p778
(lp779
(dp780
S'objective'
p781
I6
sS'query_time'
p782
F0.008063077926635742
sS'comp_time'
p783
F7.295608520507812e-05
sS'exec_cq'
p784
I1
sS'total_cq'
p785
I8
sasS'total_cqs'
p786
I8
ssI75
(dp787
S'iters'
p788
I3
sS'meta'
p789
(lp790
(dp791
S'objective'
p792
I3
sS'query_time'
p793
F0.004533052444458008
sS'comp_time'
p794
F5.698204040527344e-05
sS'exec_cq'
p795
I1
sS'total_cq'
p796
I5
sa(dp797
g792
I2
sg793
F0.003242015838623047
sg794
F5.507469177246094e-05
sg795
I1
sg796
I4
sa(dp798
g792
I1
sg793
F0.0025229454040527344
sg794
F5.173683166503906e-05
sg795
I1
sg796
I3
sasS'total_cqs'
p799
I5
ssI76
(dp800
S'iters'
p801
I1
sS'meta'
p802
(lp803
(dp804
S'objective'
p805
I0
sS'query_time'
p806
F0.010339975357055664
sS'comp_time'
p807
F6.890296936035156e-05
sS'exec_cq'
p808
I1
sS'total_cq'
p809
I2
sasS'total_cqs'
p810
I2
ssI103
(dp811
S'iters'
p812
I1
sS'meta'
p813
(lp814
(dp815
S'objective'
p816
I10
sS'query_time'
p817
F0.039598941802978516
sS'comp_time'
p818
F9.298324584960938e-05
sS'exec_cq'
p819
I4
sS'total_cq'
p820
I12
sasS'total_cqs'
p821
I12
ssI104
(dp822
S'iters'
p823
I2
sS'meta'
p824
(lp825
(dp826
S'objective'
p827
I2
sS'query_time'
p828
F0.06385588645935059
sS'comp_time'
p829
F8.606910705566406e-05
sS'exec_cq'
p830
I1
sS'total_cq'
p831
I4
sa(dp832
g827
I1
sg828
F0.014872074127197266
sg829
F6.413459777832031e-05
sg830
I1
sg831
I3
sasS'total_cqs'
p833
I4
ssI106
(dp834
S'iters'
p835
I1
sS'meta'
p836
(lp837
(dp838
S'objective'
p839
I2
sS'query_time'
p840
F0.012250900268554688
sS'comp_time'
p841
F6.508827209472656e-05
sS'exec_cq'
p842
I1
sS'total_cq'
p843
I4
sasS'total_cqs'
p844
I4
ssI107
(dp845
S'iters'
p846
I3
sS'meta'
p847
(lp848
(dp849
S'objective'
p850
I14
sS'query_time'
p851
F0.07565116882324219
sS'comp_time'
p852
F9.012222290039062e-05
sS'exec_cq'
p853
I3
sS'total_cq'
p854
I16
sa(dp855
g850
I9
sg851
F0.021409988403320312
sg852
F7.891654968261719e-05
sg853
I3
sg854
I15
sa(dp856
g850
I1
sg851
F0.021853923797607422
sg852
F7.104873657226562e-05
sg853
I1
sg854
I3
sasS'total_cqs'
p857
I16
ss.