(dp0
I1
(dp1
S'iters'
p2
I1
sS'meta'
p3
(lp4
(dp5
S'objective'
p6
I58
sS'query_time'
p7
F0.03481698036193848
sS'comp_time'
p8
F0.02041482925415039
sS'exec_cq'
p9
I12
sS'total_cq'
p10
I12
sasS'total_cqs'
p11
I12
ssI2
(dp12
S'iters'
p13
I3
sS'meta'
p14
(lp15
(dp16
S'objective'
p17
I258
sS'query_time'
p18
F0.13028383255004883
sS'comp_time'
p19
F0.03446340560913086
sS'exec_cq'
p20
I27
sS'total_cq'
p21
I27
sa(dp22
g17
I216
sg18
F0.0002338886260986328
sg19
F0.001070261001586914
sg20
I24
sg21
I24
sa(dp23
g17
I223
sg18
F0.00015282630920410156
sg19
F0.0005393028259277344
sg20
I20
sg21
I20
sasS'total_cqs'
p24
I27
ssI3
(dp25
S'iters'
p26
I4
sS'meta'
p27
(lp28
(dp29
S'objective'
p30
I546
sS'query_time'
p31
F186.61517095565796
sS'comp_time'
p32
F1.2148292064666748
sS'exec_cq'
p33
I30
sS'total_cq'
p34
I43
sa(dp35
g30
I430
sg31
F43.230011224746704
sg32
F2.0294294357299805
sg33
I31
sg34
I35
sa(dp36
g30
I494
sg31
F11.30524206161499
sg32
F0.47959160804748535
sg33
I28
sg34
I28
sa(dp37
g30
I473
sg31
F0.00020694732666015625
sg32
F0.0001609325408935547
sg33
I25
sg34
I25
sasS'total_cqs'
p38
I43
ssI4
(dp39
S'iters'
p40
I2
sS'meta'
p41
(lp42
(dp43
S'objective'
p44
I30
sS'query_time'
p45
F4.697157859802246
sS'comp_time'
p46
F0.32175207138061523
sS'exec_cq'
p47
I11
sS'total_cq'
p48
I11
sa(dp49
g44
I2
sg45
F0.16947412490844727
sg46
F0.25196290016174316
sg47
I2
sg48
I2
sasS'total_cqs'
p50
I11
ssI5
(dp51
S'iters'
p52
I2
sS'meta'
p53
(lp54
(dp55
S'objective'
p56
I0
sS'query_time'
p57
F34.49615478515625
sS'comp_time'
p58
F4.514716863632202
sS'exec_cq'
p59
I8
sS'total_cq'
p60
I8
sa(dp61
g56
I4
sg57
F0.08121895790100098
sg58
F0.7492210865020752
sg59
I3
sg60
I3
sasS'total_cqs'
p62
I8
ssI6
(dp63
S'iters'
p64
I3
sS'meta'
p65
(lp66
(dp67
S'objective'
p68
I33
sS'query_time'
p69
F36.601717948913574
sS'comp_time'
p70
F2.6867146492004395
sS'exec_cq'
p71
I18
sS'total_cq'
p72
I18
sa(dp73
g68
I1
sg69
F0.696599006652832
sg70
F10.897852897644043
sg71
I7
sg72
I7
sa(dp74
g68
I5
sg69
F0.41210079193115234
sg70
F1.1955437660217285
sg71
I3
sg72
I3
sasS'total_cqs'
p75
I18
ssI7
(dp76
S'iters'
p77
I3
sS'meta'
p78
(lp79
(dp80
S'objective'
p81
I1
sS'query_time'
p82
F12.567742824554443
sS'comp_time'
p83
F0.8148009777069092
sS'exec_cq'
p84
I9
sS'total_cq'
p85
I9
sa(dp86
g81
I1
sg82
F0.10312199592590332
sg83
F0.28731298446655273
sg84
I6
sg85
I6
sa(dp87
g81
I5
sg82
F0.16739702224731445
sg83
F0.10020208358764648
sg84
I2
sg85
I2
sasS'total_cqs'
p88
I9
ssI8
(dp89
S'iters'
p90
I3
sS'meta'
p91
(lp92
(dp93
S'objective'
p94
I252
sS'query_time'
p95
F0.13288307189941406
sS'comp_time'
p96
F0.029664039611816406
sS'exec_cq'
p97
I27
sS'total_cq'
p98
I27
sa(dp99
g94
I239
sg95
F0.00021004676818847656
sg96
F0.0005822181701660156
sg97
I22
sg98
I22
sa(dp100
g94
I6
sg95
F0.005652904510498047
sg96
F0.0004589557647705078
sg97
I2
sg98
I2
sasS'total_cqs'
p101
I27
ssI9
(dp102
S'iters'
p103
I3
sS'meta'
p104
(lp105
(dp106
S'objective'
p107
I12
sS'query_time'
p108
F0.059892892837524414
sS'comp_time'
p109
F0.005694150924682617
sS'exec_cq'
p110
I7
sS'total_cq'
p111
I7
sa(dp112
g107
I4
sg108
F0.002418994903564453
sg109
F0.0007143020629882812
sg110
I5
sg111
I5
sa(dp113
g107
I2
sg108
F2.8133392333984375e-05
sg109
F0.00014209747314453125
sg110
I2
sg111
I2
sasS'total_cqs'
p114
I7
ssI10
(dp115
S'iters'
p116
I5
sS'meta'
p117
(lp118
(dp119
S'objective'
p120
I610
sS'query_time'
p121
F0.3273029327392578
sS'comp_time'
p122
F0.07849431037902832
sS'exec_cq'
p123
I51
sS'total_cq'
p124
I51
sa(dp125
g120
I274
sg121
F0.0005857944488525391
sg122
F0.0032150745391845703
sg123
I37
sg124
I37
sa(dp126
g120
I3
sg121
F0.0017130374908447266
sg122
F0.005916595458984375
sg123
I12
sg124
I12
sa(dp127
g120
I23
sg121
F5.1975250244140625e-05
sg122
F0.0003609657287597656
sg123
I6
sg124
I6
sa(dp128
g120
I19
sg121
F3.0040740966796875e-05
sg122
F0.000186920166015625
sg123
I3
sg124
I3
sasS'total_cqs'
p129
I51
ssI11
(dp130
S'iters'
p131
I5
sS'meta'
p132
(lp133
(dp134
S'objective'
p135
I906
sS'query_time'
p136
F0.5450949668884277
sS'comp_time'
p137
F0.16447806358337402
sS'exec_cq'
p138
I63
sS'total_cq'
p139
I63
sa(dp140
g135
I845
sg136
F0.001138925552368164
sg137
F0.004496574401855469
sg138
I47
sg139
I47
sa(dp141
g135
I18
sg136
F0.0018970966339111328
sg137
F0.002832174301147461
sg138
I9
sg139
I9
sa(dp142
g135
I33
sg136
F3.1948089599609375e-05
sg137
F0.00029587745666503906
sg138
I4
sg139
I4
sa(dp143
g135
I42
sg136
F1.5974044799804688e-05
sg137
F0.0001628398895263672
sg138
I2
sg139
I2
sasS'total_cqs'
p144
I63
ssI12
(dp145
S'iters'
p146
I5
sS'meta'
p147
(lp148
(dp149
S'objective'
p150
I383
sS'query_time'
p151
F0.39362406730651855
sS'comp_time'
p152
F0.09270524978637695
sS'exec_cq'
p153
I50
sS'total_cq'
p154
I50
sa(dp155
g150
I307
sg151
F0.0004611015319824219
sg152
F0.00250244140625
sg153
I22
sg154
I33
sa(dp156
g150
I7
sg151
F0.00775909423828125
sg152
F0.0015192031860351562
sg153
I8
sg154
I8
sa(dp157
g150
I10
sg151
F9.298324584960938e-05
sg152
F0.0005128383636474609
sg153
I5
sg154
I5
sa(dp158
g150
I16
sg151
F2.8848648071289062e-05
sg152
F0.0001380443572998047
sg153
I3
sg154
I3
sasS'total_cqs'
p159
I50
ssI13
(dp160
S'iters'
p161
I3
sS'meta'
p162
(lp163
(dp164
S'objective'
p165
I56
sS'query_time'
p166
F0.13446807861328125
sS'comp_time'
p167
F0.03666496276855469
sS'exec_cq'
p168
I20
sS'total_cq'
p169
I20
sa(dp170
g165
I35
sg166
F4.8160552978515625e-05
sg167
F0.0003666877746582031
sg168
I9
sg169
I9
sa(dp171
g165
I11
sg166
F0.001631021499633789
sg167
F0.00015306472778320312
sg168
I2
sg169
I2
sasS'total_cqs'
p172
I20
ssI14
(dp173
S'iters'
p174
I3
sS'meta'
p175
(lp176
(dp177
S'objective'
p178
I1
sS'query_time'
p179
F32.18407392501831
sS'comp_time'
p180
F1.2986621856689453
sS'exec_cq'
p181
I9
sS'total_cq'
p182
I9
sa(dp183
g178
I2
sg179
F0.192641019821167
sg180
F0.27248311042785645
sg181
I5
sg182
I5
sa(dp184
g178
I4
sg179
F0.006648063659667969
sg180
F0.010202407836914062
sg181
I2
sg182
I2
sasS'total_cqs'
p185
I9
ssI15
(dp186
S'iters'
p187
I3
sS'meta'
p188
(lp189
(dp190
S'objective'
p191
I0
sS'query_time'
p192
F3.6808061599731445
sS'comp_time'
p193
F0.1617720127105713
sS'exec_cq'
p194
I11
sS'total_cq'
p195
I11
sa(dp196
g191
I1
sg192
F0.2258448600769043
sg193
F0.08489489555358887
sg194
I5
sg195
I5
sa(dp197
g191
I4
sg192
F0.012139081954956055
sg193
F0.02048659324645996
sg194
I2
sg195
I2
sasS'total_cqs'
p198
I11
ssI16
(dp199
S'iters'
p200
I1
sS'meta'
p201
(lp202
(dp203
S'objective'
p204
I22
sS'query_time'
p205
F0.023022174835205078
sS'comp_time'
p206
F0.004224061965942383
sS'exec_cq'
p207
I8
sS'total_cq'
p208
I8
sasS'total_cqs'
p209
I8
ssI17
(dp210
S'iters'
p211
I3
sS'meta'
p212
(lp213
(dp214
S'objective'
p215
I0
sS'query_time'
p216
F0.8704071044921875
sS'comp_time'
p217
F0.03213381767272949
sS'exec_cq'
p218
I11
sS'total_cq'
p219
I11
sa(dp220
g215
I1
sg216
F0.008624076843261719
sg217
F0.01930713653564453
sg218
I6
sg219
I6
sa(dp221
g215
I3
sg216
F0.0036580562591552734
sg217
F0.005236148834228516
sg218
I2
sg219
I2
sasS'total_cqs'
p222
I11
ssI18
(dp223
S'iters'
p224
I2
sS'meta'
p225
(lp226
(dp227
S'objective'
p228
I28
sS'query_time'
p229
F0.27522826194763184
sS'comp_time'
p230
F0.023200273513793945
sS'exec_cq'
p231
I11
sS'total_cq'
p232
I11
sa(dp233
g228
I27
sg229
F0.00021886825561523438
sg230
F0.0004334449768066406
sg231
I7
sg232
I8
sasS'total_cqs'
p234
I11
ssI19
(dp235
S'iters'
p236
I0
sS'meta'
p237
(lp238
sS'total_cqs'
p239
I1
ssI20
(dp240
S'iters'
p241
I0
sS'meta'
p242
(lp243
sS'total_cqs'
p244
I1
ssI21
(dp245
S'iters'
p246
I0
sS'meta'
p247
(lp248
sS'total_cqs'
p249
I1
ssI22
(dp250
S'iters'
p251
I1
sS'meta'
p252
(lp253
(dp254
S'objective'
p255
I141
sS'query_time'
p256
F0.06792902946472168
sS'comp_time'
p257
F0.028112173080444336
sS'exec_cq'
p258
I18
sS'total_cq'
p259
I18
sasS'total_cqs'
p260
I18
ssI23
(dp261
S'iters'
p262
I1
sS'meta'
p263
(lp264
(dp265
S'objective'
p266
I110
sS'query_time'
p267
F0.052644968032836914
sS'comp_time'
p268
F0.023895740509033203
sS'exec_cq'
p269
I16
sS'total_cq'
p270
I16
sasS'total_cqs'
p271
I16
ssI24
(dp272
S'iters'
p273
I0
sS'meta'
p274
(lp275
sS'total_cqs'
p276
I1
ssI25
(dp277
S'iters'
p278
I0
sS'meta'
p279
(lp280
sS'total_cqs'
p281
I1
ssI26
(dp282
S'iters'
p283
I1
sS'meta'
p284
(lp285
(dp286
S'objective'
p287
I837
sS'query_time'
p288
F0.12388396263122559
sS'comp_time'
p289
F0.11975383758544922
sS'exec_cq'
p290
I42
sS'total_cq'
p291
I42
sasS'total_cqs'
p292
I42
ssI27
(dp293
S'iters'
p294
I3
sS'meta'
p295
(lp296
(dp297
S'objective'
p298
I309
sS'query_time'
p299
F21.34616708755493
sS'comp_time'
p300
F2.2232491970062256
sS'exec_cq'
p301
I30
sS'total_cq'
p302
I30
sa(dp303
g298
I2
sg299
F0.45203495025634766
sg300
F3.7900290489196777
sg301
I5
sg302
I5
sa(dp304
g298
I8
sg299
F0.5972998142242432
sg300
F1.3093910217285156
sg301
I3
sg302
I3
sasS'total_cqs'
p305
I30
ssI28
(dp306
S'iters'
p307
I0
sS'meta'
p308
(lp309
sS'total_cqs'
p310
I1
ssI29
(dp311
S'iters'
p312
I5
sS'meta'
p313
(lp314
(dp315
S'objective'
p316
I319
sS'query_time'
p317
F26.48739194869995
sS'comp_time'
p318
F0.5304429531097412
sS'exec_cq'
p319
I35
sS'total_cq'
p320
I49
sa(dp321
g316
I23
sg317
F0.06030011177062988
sg318
F0.38294482231140137
sg319
I17
sg320
I17
sa(dp322
g316
I1
sg317
F0.1676931381225586
sg318
F0.07950782775878906
sg319
I9
sg320
I9
sa(dp323
g316
I13
sg317
F0.002701997756958008
sg318
F0.005791902542114258
sg319
I3
sg320
I3
sa(dp324
g316
I16
sg317
F0.0016968250274658203
sg318
F0.0027379989624023438
sg319
I2
sg320
I2
sasS'total_cqs'
p325
I49
ssI30
(dp326
S'iters'
p327
I1
sS'meta'
p328
(lp329
(dp330
S'objective'
p331
I1
sS'query_time'
p332
F0.6498661041259766
sS'comp_time'
p333
F0.017765045166015625
sS'exec_cq'
p334
I2
sS'total_cq'
p335
I2
sasS'total_cqs'
p336
I2
ssI31
(dp337
S'iters'
p338
I0
sS'meta'
p339
(lp340
sS'total_cqs'
p341
I1
ssI32
(dp342
S'iters'
p343
I1
sS'meta'
p344
(lp345
(dp346
S'objective'
p347
I1
sS'query_time'
p348
F0.009948968887329102
sS'comp_time'
p349
F0.0018057823181152344
sS'exec_cq'
p350
I2
sS'total_cq'
p351
I2
sasS'total_cqs'
p352
I2
ssI33
(dp353
S'iters'
p354
I5
sS'meta'
p355
(lp356
(dp357
S'objective'
p358
I3776
sS'query_time'
p359
F16.515041828155518
sS'comp_time'
p360
F0.8602907657623291
sS'exec_cq'
p361
I103
sS'total_cq'
p362
I103
sa(dp363
g358
I2
sg359
F0.008577108383178711
sg360
F0.06013894081115723
sg361
I16
sg362
I16
sa(dp364
g358
I26
sg359
F0.0039958953857421875
sg360
F0.016357421875
sg361
I9
sg362
I9
sa(dp365
g358
I9
sg359
F0.0014951229095458984
sg360
F0.0025398731231689453
sg361
I5
sg362
I5
sa(dp366
g358
I70
sg359
F0.00045990943908691406
sg360
F0.000993967056274414
sg361
I3
sg362
I3
sasS'total_cqs'
p367
I103
ssI34
(dp368
S'iters'
p369
I1
sS'meta'
p370
(lp371
(dp372
S'objective'
p373
I1
sS'query_time'
p374
F0.020280838012695312
sS'comp_time'
p375
F0.0020723342895507812
sS'exec_cq'
p376
I2
sS'total_cq'
p377
I2
sasS'total_cqs'
p378
I2
ssI35
(dp379
S'iters'
p380
I5
sS'meta'
p381
(lp382
(dp383
S'objective'
p384
I1245
sS'query_time'
p385
F22.764074087142944
sS'comp_time'
p386
F0.29337096214294434
sS'exec_cq'
p387
I50
sS'total_cq'
p388
I70
sa(dp389
g384
I28
sg385
F0.005388021469116211
sg386
F0.013872623443603516
sg387
I16
sg388
I16
sa(dp390
g384
I18
sg385
F0.002294778823852539
sg386
F0.005297183990478516
sg387
I9
sg388
I9
sa(dp391
g384
I23
sg385
F0.17163991928100586
sg386
F0.003278017044067383
sg387
I5
sg388
I5
sa(dp392
g384
I20
sg385
F0.00038504600524902344
sg386
F0.0007283687591552734
sg387
I2
sg388
I2
sasS'total_cqs'
p393
I70
ssI36
(dp394
S'iters'
p395
I3
sS'meta'
p396
(lp397
(dp398
S'objective'
p399
I439
sS'query_time'
p400
F1.12251877784729
sS'comp_time'
p401
F0.18922877311706543
sS'exec_cq'
p402
I33
sS'total_cq'
p403
I33
sa(dp404
g399
I430
sg400
F0.0084991455078125
sg401
F0.013375997543334961
sg402
I29
sg403
I29
sa(dp405
g399
I413
sg400
F0.0012888908386230469
sg401
F0.0017681121826171875
sg402
I24
sg403
I25
sasS'total_cqs'
p406
I33
ssI37
(dp407
S'iters'
p408
I1
sS'meta'
p409
(lp410
(dp411
S'objective'
p412
I1
sS'query_time'
p413
F0.008997917175292969
sS'comp_time'
p414
F0.001692056655883789
sS'exec_cq'
p415
I2
sS'total_cq'
p416
I2
sasS'total_cqs'
p417
I2
ssI38
(dp418
S'iters'
p419
I2
sS'meta'
p420
(lp421
(dp422
S'objective'
p423
I0
sS'query_time'
p424
F0.026629924774169922
sS'comp_time'
p425
F0.0031042098999023438
sS'exec_cq'
p426
I4
sS'total_cq'
p427
I4
sa(dp428
g423
I3
sg424
F8.20159912109375e-05
sg425
F0.00019311904907226562
sg426
I2
sg427
I2
sasS'total_cqs'
p429
I4
ssI39
(dp430
S'iters'
p431
I2
sS'meta'
p432
(lp433
(dp434
S'objective'
p435
I780
sS'query_time'
p436
F0.13874387741088867
sS'comp_time'
p437
F0.19378018379211426
sS'exec_cq'
p438
I44
sS'total_cq'
p439
I44
sa(dp440
g435
I817
sg436
F0.00033593177795410156
sg437
F0.0009541511535644531
sg438
I37
sg439
I37
sasS'total_cqs'
p441
I44
ssI40
(dp442
S'iters'
p443
I1
sS'meta'
p444
(lp445
(dp446
S'objective'
p447
I14
sS'query_time'
p448
F0.036486148834228516
sS'comp_time'
p449
F0.006272077560424805
sS'exec_cq'
p450
I7
sS'total_cq'
p451
I7
sasS'total_cqs'
p452
I7
ssI41
(dp453
S'iters'
p454
I1
sS'meta'
p455
(lp456
(dp457
S'objective'
p458
I58
sS'query_time'
p459
F0.06545686721801758
sS'comp_time'
p460
F0.07977175712585449
sS'exec_cq'
p461
I12
sS'total_cq'
p462
I12
sasS'total_cqs'
p463
I12
ssI42
(dp464
S'iters'
p465
I1
sS'meta'
p466
(lp467
(dp468
S'objective'
p469
I797
sS'query_time'
p470
F0.15030622482299805
sS'comp_time'
p471
F0.0787665843963623
sS'exec_cq'
p472
I41
sS'total_cq'
p473
I41
sasS'total_cqs'
p474
I41
ssI43
(dp475
S'iters'
p476
I1
sS'meta'
p477
(lp478
(dp479
S'objective'
p480
I14
sS'query_time'
p481
F0.03380703926086426
sS'comp_time'
p482
F0.005917072296142578
sS'exec_cq'
p483
I7
sS'total_cq'
p484
I7
sasS'total_cqs'
p485
I7
ssI44
(dp486
S'iters'
p487
I4
sS'meta'
p488
(lp489
(dp490
S'objective'
p491
I738
sS'query_time'
p492
F0.14234590530395508
sS'comp_time'
p493
F0.16096186637878418
sS'exec_cq'
p494
I47
sS'total_cq'
p495
I47
sa(dp496
g491
I781
sg492
F0.0003190040588378906
sg493
F0.0010406970977783203
sg494
I40
sg495
I40
sa(dp497
g491
I28
sg492
F0.0012400150299072266
sg493
F0.0014162063598632812
sg494
I3
sg495
I3
sa(dp498
g491
I22
sg492
F2.47955322265625e-05
sg493
F0.00010395050048828125
sg494
I2
sg495
I2
sasS'total_cqs'
p499
I47
ssI45
(dp500
S'iters'
p501
I0
sS'meta'
p502
(lp503
sS'total_cqs'
p504
I1
ssI46
(dp505
S'iters'
p506
I1
sS'meta'
p507
(lp508
(dp509
S'objective'
p510
I9
sS'query_time'
p511
F0.015063047409057617
sS'comp_time'
p512
F0.0026903152465820312
sS'exec_cq'
p513
I4
sS'total_cq'
p514
I6
sasS'total_cqs'
p515
I6
ssI47
(dp516
S'iters'
p517
I1
sS'meta'
p518
(lp519
(dp520
S'objective'
p521
I1
sS'query_time'
p522
F0.013068914413452148
sS'comp_time'
p523
F0.0013031959533691406
sS'exec_cq'
p524
I2
sS'total_cq'
p525
I2
sasS'total_cqs'
p526
I2
ssI48
(dp527
S'iters'
p528
I0
sS'meta'
p529
(lp530
sS'total_cqs'
p531
I1
ssI49
(dp532
S'iters'
p533
I0
sS'meta'
p534
(lp535
sS'total_cqs'
p536
I1
ssI50
(dp537
S'iters'
p538
I1
sS'meta'
p539
(lp540
(dp541
S'objective'
p542
I5
sS'query_time'
p543
F0.014144182205200195
sS'comp_time'
p544
F0.002213001251220703
sS'exec_cq'
p545
I5
sS'total_cq'
p546
I5
sasS'total_cqs'
p547
I5
ssI51
(dp548
S'iters'
p549
I1
sS'meta'
p550
(lp551
(dp552
S'objective'
p553
I1
sS'query_time'
p554
F0.007798910140991211
sS'comp_time'
p555
F0.0010309219360351562
sS'exec_cq'
p556
I2
sS'total_cq'
p557
I2
sasS'total_cqs'
p558
I2
ssI52
(dp559
S'iters'
p560
I1
sS'meta'
p561
(lp562
(dp563
S'objective'
p564
I1
sS'query_time'
p565
F0.02622509002685547
sS'comp_time'
p566
F0.0014488697052001953
sS'exec_cq'
p567
I2
sS'total_cq'
p568
I2
sasS'total_cqs'
p569
I2
ssI53
(dp570
S'iters'
p571
I1
sS'meta'
p572
(lp573
(dp574
S'objective'
p575
I2
sS'query_time'
p576
F0.030887842178344727
sS'comp_time'
p577
F0.0022575855255126953
sS'exec_cq'
p578
I4
sS'total_cq'
p579
I4
sasS'total_cqs'
p580
I4
ssI54
(dp581
S'iters'
p582
I2
sS'meta'
p583
(lp584
(dp585
S'objective'
p586
I0
sS'query_time'
p587
F0.012029886245727539
sS'comp_time'
p588
F0.0015978813171386719
sS'exec_cq'
p589
I3
sS'total_cq'
p590
I3
sa(dp591
g586
I1
sg587
F4.506111145019531e-05
sg588
F0.00013780593872070312
sg589
I2
sg590
I2
sasS'total_cqs'
p592
I3
ssI55
(dp593
S'iters'
p594
I8
sS'meta'
p595
(lp596
(dp597
S'objective'
p598
I4637
sS'query_time'
p599
F2.578481912612915
sS'comp_time'
p600
F0.6938412189483643
sS'exec_cq'
p601
I109
sS'total_cq'
p602
I109
sa(dp603
g598
I4524
sg599
F0.001010894775390625
sg600
F0.004397869110107422
sg601
I97
sg602
I97
sa(dp604
g598
I4354
sg599
F0.0004570484161376953
sg600
F0.0017008781433105469
sg601
I91
sg602
I91
sa(dp605
g598
I4307
sg599
F0.0004279613494873047
sg600
F0.0013561248779296875
sg601
I87
sg602
I87
sa(dp606
g598
I4256
sg599
F0.0003809928894042969
sg600
F0.0009331703186035156
sg601
I85
sg602
I85
sa(dp607
g598
I4166
sg599
F0.00039076805114746094
sg600
F0.0009198188781738281
sg601
I83
sg602
I83
sa(dp608
g598
I4073
sg599
F0.0003619194030761719
sg600
F0.0005781650543212891
sg601
I81
sg602
I81
sa(dp609
g598
I4003
sg599
F0.0003070831298828125
sg600
F0.00039005279541015625
sg601
I80
sg602
I80
sasS'total_cqs'
p610
I109
ssI56
(dp611
S'iters'
p612
I5
sS'meta'
p613
(lp614
(dp615
S'objective'
p616
I1804
sS'query_time'
p617
F1.8846089839935303
sS'comp_time'
p618
F0.31464099884033203
sS'exec_cq'
p619
I67
sS'total_cq'
p620
I76
sa(dp621
g616
I5
sg617
F0.007124900817871094
sg618
F0.0992579460144043
sg619
I16
sg620
I16
sa(dp622
g616
I26
sg617
F0.004901885986328125
sg618
F0.018625259399414062
sg619
I10
sg620
I10
sa(dp623
g616
I0
sg617
F0.0011420249938964844
sg618
F0.002986907958984375
sg619
I6
sg620
I6
sa(dp624
g616
I40
sg617
F0.00025010108947753906
sg618
F0.0007061958312988281
sg619
I3
sg620
I3
sasS'total_cqs'
p625
I76
ssI57
(dp626
S'iters'
p627
I6
sS'meta'
p628
(lp629
(dp630
S'objective'
p631
I308
sS'query_time'
p632
F24.561596155166626
sS'comp_time'
p633
F0.15920352935791016
sS'exec_cq'
p634
I45
sS'total_cq'
p635
I51
sa(dp636
g631
I59
sg632
F0.02347397804260254
sg633
F0.04027819633483887
sg634
I31
sg635
I31
sa(dp637
g631
I1
sg632
F0.020774126052856445
sg633
F0.4898386001586914
sg634
I16
sg635
I16
sa(dp638
g631
I1
sg632
F0.011848926544189453
sg633
F0.031938791275024414
sg634
I8
sg635
I8
sa(dp639
g631
I4
sg632
F0.008101940155029297
sg633
F0.011322736740112305
sg634
I5
sg635
I5
sa(dp640
g631
I31
sg632
F0.0013909339904785156
sg633
F0.0012557506561279297
sg634
I2
sg635
I2
sasS'total_cqs'
p641
I51
ssI58
(dp642
S'iters'
p643
I6
sS'meta'
p644
(lp645
(dp646
S'objective'
p647
I86035
sS'query_time'
p648
F324.27811789512634
sS'comp_time'
p649
F24.810819387435913
sS'exec_cq'
p650
I486
sS'total_cq'
p651
I486
sa(dp652
g647
I89068
sg648
F5.522572994232178
sg649
F9.379952907562256
sg650
I414
sg651
I414
sa(dp653
g647
I300
sg648
F0.015616893768310547
sg649
F0.18738603591918945
sg650
I28
sg651
I28
sa(dp654
g647
I0
sg648
F0.013617992401123047
sg649
F0.7270121574401855
sg650
I15
sg651
I15
sa(dp655
g647
I39
sg648
F0.007269859313964844
sg649
F0.11141514778137207
sg650
I10
sg651
I10
sa(dp656
g647
I31
sg648
F0.0050008296966552734
sg649
F0.028783559799194336
sg650
I6
sg651
I6
sasS'total_cqs'
p657
I486
ssI59
(dp658
S'iters'
p659
I2
sS'meta'
p660
(lp661
(dp662
S'objective'
p663
I10
sS'query_time'
p664
F0.04779505729675293
sS'comp_time'
p665
F0.006409645080566406
sS'exec_cq'
p666
I7
sS'total_cq'
p667
I7
sa(dp668
g663
I5
sg664
F0.0001671314239501953
sg665
F0.0003609657287597656
sg666
I2
sg667
I2
sasS'total_cqs'
p669
I7
ssI60
(dp670
S'iters'
p671
I1
sS'meta'
p672
(lp673
(dp674
S'objective'
p675
I5
sS'query_time'
p676
F0.021600008010864258
sS'comp_time'
p677
F0.003283977508544922
sS'exec_cq'
p678
I4
sS'total_cq'
p679
I5
sasS'total_cqs'
p680
I5
ssI61
(dp681
S'iters'
p682
I0
sS'meta'
p683
(lp684
sS'total_cqs'
p685
I1
ssI62
(dp686
S'iters'
p687
I2
sS'meta'
p688
(lp689
(dp690
S'objective'
p691
I48
sS'query_time'
p692
F0.03062891960144043
sS'comp_time'
p693
F0.022890567779541016
sS'exec_cq'
p694
I12
sS'total_cq'
p695
I12
sa(dp696
g691
I43
sg692
F8.320808410644531e-05
sg693
F0.0002300739288330078
sg694
I9
sg695
I9
sasS'total_cqs'
p697
I12
ssI63
(dp698
S'iters'
p699
I0
sS'meta'
p700
(lp701
sS'total_cqs'
p702
I1
ssI64
(dp703
S'iters'
p704
I3
sS'meta'
p705
(lp706
(dp707
S'objective'
p708
I2
sS'query_time'
p709
F0.12530303001403809
sS'comp_time'
p710
F0.018280029296875
sS'exec_cq'
p711
I12
sS'total_cq'
p712
I12
sa(dp713
g708
I0
sg709
F0.00019097328186035156
sg710
F0.0008068084716796875
sg711
I4
sg712
I4
sa(dp714
g708
I1
sg709
F4.982948303222656e-05
sg710
F0.00012803077697753906
sg711
I2
sg712
I2
sasS'total_cqs'
p715
I12
ssI65
(dp716
S'iters'
p717
I3
sS'meta'
p718
(lp719
(dp720
S'objective'
p721
I186
sS'query_time'
p722
F0.698944091796875
sS'comp_time'
p723
F0.047609806060791016
sS'exec_cq'
p724
I27
sS'total_cq'
p725
I27
sa(dp726
g721
I6
sg722
F0.0013580322265625
sg723
F0.0030994415283203125
sg724
I7
sg725
I7
sa(dp727
g721
I1
sg722
F0.0002529621124267578
sg723
F0.0005338191986083984
sg724
I3
sg725
I3
sasS'total_cqs'
p728
I27
ssI66
(dp729
S'iters'
p730
I0
sS'meta'
p731
(lp732
sS'total_cqs'
p733
I1
ssI67
(dp734
S'iters'
p735
I2
sS'meta'
p736
(lp737
(dp738
S'objective'
p739
I546
sS'query_time'
p740
F0.9087071418762207
sS'comp_time'
p741
F0.1005394458770752
sS'exec_cq'
p742
I35
sS'total_cq'
p743
I35
sa(dp744
g739
I14
sg740
F0.001560211181640625
sg741
F0.002466917037963867
sg742
I2
sg743
I2
sasS'total_cqs'
p745
I35
ssI68
(dp746
S'iters'
p747
I0
sS'meta'
p748
(lp749
sS'total_cqs'
p750
I1
ssI69
(dp751
S'iters'
p752
I1
sS'meta'
p753
(lp754
(dp755
S'objective'
p756
I1246
sS'query_time'
p757
F0.16280484199523926
sS'comp_time'
p758
F0.2903618812561035
sS'exec_cq'
p759
I51
sS'total_cq'
p760
I51
sasS'total_cqs'
p761
I51
ssI70
(dp762
S'iters'
p763
I1
sS'meta'
p764
(lp765
(dp766
S'objective'
p767
I9
sS'query_time'
p768
F0.020184040069580078
sS'comp_time'
p769
F0.0034732818603515625
sS'exec_cq'
p770
I6
sS'total_cq'
p771
I6
sasS'total_cqs'
p772
I6
ssI71
(dp773
S'iters'
p774
I4
sS'meta'
p775
(lp776
(dp777
S'objective'
p778
I3355
sS'query_time'
p779
F0.33559679985046387
sS'comp_time'
p780
F0.319058895111084
sS'exec_cq'
p781
I85
sS'total_cq'
p782
I85
sa(dp783
g778
I3213
sg779
F0.0004220008850097656
sg780
F0.001271963119506836
sg781
I82
sg782
I82
sa(dp784
g778
I3101
sg779
F0.0003199577331542969
sg780
F0.0011637210845947266
sg781
I78
sg782
I78
sa(dp785
g778
I1
sg779
F0.002502918243408203
sg780
F0.0032761096954345703
sg781
I3
sg782
I3
sasS'total_cqs'
p786
I85
ssI72
(dp787
S'iters'
p788
I3
sS'meta'
p789
(lp790
(dp791
S'objective'
p792
I6
sS'query_time'
p793
F0.31113100051879883
sS'comp_time'
p794
F0.007945537567138672
sS'exec_cq'
p795
I4
sS'total_cq'
p796
I8
sa(dp797
g792
I3
sg793
F0.027498960494995117
sg794
F0.00016498565673828125
sg795
I4
sg796
I5
sa(dp798
g792
I2
sg793
F6.29425048828125e-05
sg794
F5.5789947509765625e-05
sg795
I2
sg796
I3
sasS'total_cqs'
p799
I8
ssI73
(dp800
S'iters'
p801
I0
sS'meta'
p802
(lp803
sS'total_cqs'
p804
I1
ssI74
(dp805
S'iters'
p806
I0
sS'meta'
p807
(lp808
sS'total_cqs'
p809
I1
ssI75
(dp810
S'iters'
p811
I1
sS'meta'
p812
(lp813
(dp814
S'objective'
p815
I5
sS'query_time'
p816
F0.012755155563354492
sS'comp_time'
p817
F0.0021681785583496094
sS'exec_cq'
p818
I5
sS'total_cq'
p819
I5
sasS'total_cqs'
p820
I5
ssI76
(dp821
S'iters'
p822
I1
sS'meta'
p823
(lp824
(dp825
S'objective'
p826
I1
sS'query_time'
p827
F0.012620925903320312
sS'comp_time'
p828
F0.0010371208190917969
sS'exec_cq'
p829
I2
sS'total_cq'
p830
I2
sasS'total_cqs'
p831
I2
ssI77
(dp832
S'iters'
p833
I0
sS'meta'
p834
(lp835
sS'total_cqs'
p836
I1
ssI78
(dp837
S'iters'
p838
I0
sS'meta'
p839
(lp840
sS'total_cqs'
p841
I1
ssI103
(dp842
S'iters'
p843
I2
sS'meta'
p844
(lp845
(dp846
S'objective'
p847
I56
sS'query_time'
p848
F0.053308963775634766
sS'comp_time'
p849
F0.015875816345214844
sS'exec_cq'
p850
I12
sS'total_cq'
p851
I12
sa(dp852
g847
I47
sg848
F4.792213439941406e-05
sg849
F9.298324584960938e-05
sg850
I11
sg851
I11
sasS'total_cqs'
p853
I12
ssI104
(dp854
S'iters'
p855
I2
sS'meta'
p856
(lp857
(dp858
S'objective'
p859
I0
sS'query_time'
p860
F1.3755228519439697
sS'comp_time'
p861
F0.0435328483581543
sS'exec_cq'
p862
I4
sS'total_cq'
p863
I4
sa(dp864
g859
I3
sg860
F0.011365890502929688
sg861
F0.019903182983398438
sg862
I2
sg863
I2
sasS'total_cqs'
p865
I4
ssI105
(dp866
S'iters'
p867
I0
sS'meta'
p868
(lp869
sS'total_cqs'
p870
I1
ssI106
(dp871
S'iters'
p872
I1
sS'meta'
p873
(lp874
(dp875
S'objective'
p876
I2
sS'query_time'
p877
F0.01778388023376465
sS'comp_time'
p878
F0.0017342567443847656
sS'exec_cq'
p879
I4
sS'total_cq'
p880
I4
sasS'total_cqs'
p881
I4
ssI107
(dp882
S'iters'
p883
I2
sS'meta'
p884
(lp885
(dp886
S'objective'
p887
I100
sS'query_time'
p888
F0.0797891616821289
sS'comp_time'
p889
F0.08522582054138184
sS'exec_cq'
p890
I16
sS'total_cq'
p891
I16
sa(dp892
g887
I8
sg888
F0.005813121795654297
sg889
F0.0004649162292480469
sg890
I3
sg891
I3
sasS'total_cqs'
p893
I16
ssI108
(dp894
S'iters'
p895
I0
sS'meta'
p896
(lp897
sS'total_cqs'
p898
I1
ss.