(dp0
I1
(dp1
S'iters'
p2
I3
sS'meta'
p3
(lp4
(dp5
S'objective'
p6
I8
sS'query_time'
p7
F0.016387939453125
sS'total_cq'
p8
I12
sS'comp_time'
p9
F0.00029087066650390625
sa(dp10
g6
I8
sg7
F0.00150299072265625
sg8
I10
sg9
F0.00010633468627929688
sa(dp11
g6
I7
sg7
F0.0015289783477783203
sg8
I9
sg9
F0.00010704994201660156
sasS'total_cqs'
p12
I12
ssI2
(dp13
g2
I7
sg3
(lp14
(dp15
g6
I19
sg7
F0.03202700614929199
sg8
I27
sg9
F0.0006601810455322266
sa(dp16
g6
I17
sg7
F0.03227090835571289
sg8
I23
sg9
F0.0008108615875244141
sa(dp17
g6
I16
sg7
F0.0013170242309570312
sg8
I20
sg9
F0.00067901611328125
sa(dp18
g6
I16
sg7
F0.001238107681274414
sg8
I18
sg9
F0.0003199577331542969
sa(dp19
g6
I15
sg7
F0.0013349056243896484
sg8
I17
sg9
F0.0001399517059326172
sa(dp20
g6
I12
sg7
F0.0013608932495117188
sg8
I16
sg9
F0.0002560615539550781
sa(dp21
g6
I12
sg7
F0.0014541149139404297
sg8
I14
sg9
F0.0001068115234375
sasg12
I27
ssI3
(dp22
g2
I4
sg3
(lp23
(dp24
g6
I27
sg7
F203.43112301826477
sg8
I43
sg9
F0.025814056396484375
sa(dp25
g6
I21
sg7
F226.30739307403564
sg8
I35
sg9
F3.3890178203582764
sa(dp26
g6
I12
sg7
F121.47381281852722
sg8
I28
sg9
F0.9369857311248779
sa(dp27
g6
I18
sg7
F10.971578121185303
sg8
I20
sg9
F0.0001633167266845703
sasg12
I43
ssI4
(dp28
g2
I2
sg3
(lp29
(dp30
g6
I7
sg7
F3.0460469722747803
sg8
I11
sg9
F1.0347709655761719
sa(dp31
g6
I0
sg7
F0.06581807136535645
sg8
I2
sg9
F1.064363956451416
sasg12
I11
ssI5
(dp32
g2
I3
sg3
(lp33
(dp34
g6
I0
sg7
F24.597226858139038
sg8
I8
sg9
F5.787747144699097
sa(dp35
g6
I0
sg7
F0.017343997955322266
sg8
I4
sg9
F0.3722038269042969
sa(dp36
g6
I0
sg7
F0.007796049118041992
sg8
I2
sg9
F0.1508781909942627
sasg12
I8
ssI6
(dp37
g2
I4
sg3
(lp38
(dp39
g6
I4
sg7
F26.73747491836548
sg8
I18
sg9
F4.987025022506714
sa(dp40
g6
I1
sg7
F0.89894700050354
sg8
I7
sg9
F4.972507953643799
sa(dp41
g6
I0
sg7
F0.040029048919677734
sg8
I4
sg9
F0.5452032089233398
sa(dp42
g6
I0
sg7
F0.022042036056518555
sg8
I2
sg9
F0.2163386344909668
sasg12
I18
ssI7
(dp43
g2
I3
sg3
(lp44
(dp45
g6
I1
sg7
F8.785783052444458
sg8
I9
sg9
F2.2111189365386963
sa(dp46
g6
I1
sg7
F0.016067028045654297
sg8
I5
sg9
F0.2435300350189209
sa(dp47
g6
I0
sg7
F0.007753133773803711
sg8
I2
sg9
F0.06263613700866699
sasg12
I9
ssI8
(dp48
g2
I4
sg3
(lp49
(dp50
g6
I21
sg7
F0.06445002555847168
sg8
I27
sg9
F0.0007669925689697266
sa(dp51
g6
I14
sg7
F0.031928062438964844
sg8
I24
sg9
F0.0009458065032958984
sa(dp52
g6
I17
sg7
F0.0013179779052734375
sg8
I19
sg9
F0.00017023086547851562
sa(dp53
g6
I16
sg7
F0.001219034194946289
sg8
I18
sg9
F0.00013184547424316406
sasg12
I27
ssI9
(dp54
g2
I3
sg3
(lp55
(dp56
g6
I1
sg7
F0.03217792510986328
sg8
I7
sg9
F0.0003979206085205078
sa(dp57
g6
I0
sg7
F0.0011548995971679688
sg8
I4
sg9
F0.00015473365783691406
sa(dp58
g6
I0
sg7
F0.0012497901916503906
sg8
I2
sg9
F0.0001480579376220703
sasg12
I7
ssI10
(dp59
g2
I6
sg3
(lp60
(dp61
g6
I23
sg7
F0.16475701332092285
sg8
I51
sg9
F0.0029060840606689453
sa(dp62
g6
I13
sg7
F0.11461615562438965
sg8
I37
sg9
F0.0020599365234375
sa(dp63
g6
I17
sg7
F0.0012140274047851562
sg8
I25
sg9
F0.0007948875427246094
sa(dp64
g6
I15
sg7
F0.0011990070343017578
sg8
I21
sg9
F0.00021791458129882812
sa(dp65
g6
I1
sg7
F0.001322031021118164
sg8
I3
sg9
F0.00023984909057617188
sa(dp66
g6
I0
sg7
F0.0012559890747070312
sg8
I2
sg9
F0.00014591217041015625
sasg12
I51
ssI11
(dp67
g2
I5
sg3
(lp68
(dp69
g6
I31
sg7
F0.4160161018371582
sg8
I63
sg9
F0.019057750701904297
sa(dp70
g6
I29
sg7
F0.003607034683227539
sg8
I47
sg9
F0.008892297744750977
sa(dp71
g6
I1
sg7
F0.0013651847839355469
sg8
I9
sg9
F0.0014908313751220703
sa(dp72
g6
I0
sg7
F0.0015530586242675781
sg8
I4
sg9
F0.00017499923706054688
sa(dp73
g6
I0
sg7
F0.0015239715576171875
sg8
I2
sg9
F0.00012421607971191406
sasg12
I63
ssI12
(dp74
g2
I5
sg3
(lp75
(dp76
g6
I16
sg7
F0.1145169734954834
sg8
I50
sg9
F0.0015759468078613281
sa(dp77
g6
I17
sg7
F0.11454606056213379
sg8
I33
sg9
F0.004192829132080078
sa(dp78
g6
I0
sg7
F0.0012328624725341797
sg8
I8
sg9
F0.001497030258178711
sa(dp79
g6
I0
sg7
F0.0014979839324951172
sg8
I4
sg9
F0.0014121532440185547
sa(dp80
g6
I0
sg7
F0.0012969970703125
sg8
I2
sg9
F0.0002257823944091797
sasg12
I50
ssI13
(dp81
g2
I3
sg3
(lp82
(dp83
g6
I2
sg7
F0.11455798149108887
sg8
I20
sg9
F0.0006487369537353516
sa(dp84
g6
I5
sg7
F0.0014650821685791016
sg8
I9
sg9
F9.703636169433594e-05
sa(dp85
g6
I0
sg7
F0.0013079643249511719
sg8
I2
sg9
F8.96453857421875e-05
sasg12
I20
ssI14
(dp86
g2
I3
sg3
(lp87
(dp88
g6
I1
sg7
F23.743775129318237
sg8
I9
sg9
F2.2126998901367188
sa(dp89
g6
I1
sg7
F0.017967939376831055
sg8
I5
sg9
F0.06914520263671875
sa(dp90
g6
I0
sg7
F0.008857965469360352
sg8
I2
sg9
F0.19944524765014648
sasg12
I9
ssI15
(dp91
g2
I3
sg3
(lp92
(dp93
g6
I1
sg7
F2.4041459560394287
sg8
I11
sg9
F0.27507710456848145
sa(dp94
g6
I2
sg7
F0.0011589527130126953
sg8
I6
sg9
F0.004657745361328125
sa(dp95
g6
I0
sg7
F0.0013530254364013672
sg8
I2
sg9
F0.004518985748291016
sasg12
I11
ssI16
(dp96
g2
I1
sg3
(lp97
(dp98
g6
I6
sg7
F0.007645845413208008
sg8
I8
sg9
F0.00011181831359863281
sasg12
I8
ssI17
(dp99
g2
I3
sg3
(lp100
(dp101
g6
I1
sg7
F0.5665640830993652
sg8
I11
sg9
F0.03400111198425293
sa(dp102
g6
I2
sg7
F0.001241922378540039
sg8
I6
sg9
F0.0018818378448486328
sa(dp103
g6
I0
sg7
F0.0012080669403076172
sg8
I2
sg9
F0.0017979145050048828
sasg12
I11
ssI18
(dp104
g2
I4
sg3
(lp105
(dp106
g6
I9
sg7
F0.1146399974822998
sg8
I11
sg9
F0.0012812614440917969
sa(dp107
g6
I4
sg7
F0.00848388671875
sg8
I10
sg9
F0.008210897445678711
sa(dp108
g6
I5
sg7
F0.06533980369567871
sg8
I7
sg9
F0.003165006637573242
sa(dp109
g6
I4
sg7
F0.0014829635620117188
sg8
I6
sg9
F0.00019216537475585938
sasg12
I11
ssI19
(dp110
g2
I0
sg3
(lp111
sg12
I1
ssI20
(dp112
g2
I0
sg3
(lp113
sg12
I1
ssI21
(dp114
g2
I0
sg3
(lp115
sg12
I1
ssI22
(dp116
g2
I1
sg3
(lp117
(dp118
g6
I16
sg7
F0.03223705291748047
sg8
I18
sg9
F0.0002868175506591797
sasg12
I18
ssI23
(dp119
g2
I2
sg3
(lp120
(dp121
g6
I14
sg7
F0.0160980224609375
sg8
I16
sg9
F0.0005910396575927734
sa(dp122
g6
I13
sg7
F0.0011429786682128906
sg8
I15
sg9
F0.0001418590545654297
sasg12
I16
ssI24
(dp123
g2
I0
sg3
(lp124
sg12
I1
ssI25
(dp125
g2
I0
sg3
(lp126
sg12
I1
ssI26
(dp127
g2
I1
sg3
(lp128
(dp129
g6
I40
sg7
F0.06418895721435547
sg8
I42
sg9
F0.0001709461212158203
sasg12
I42
ssI27
(dp130
g2
I3
sg3
(lp131
(dp132
g6
I20
sg7
F14.44648790359497
sg8
I30
sg9
F4.665467023849487
sa(dp133
g6
I1
sg7
F0.7055459022521973
sg8
I5
sg9
F4.418768644332886
sa(dp134
g6
I0
sg7
F0.3522350788116455
sg8
I2
sg9
F1.141716718673706
sasg12
I30
ssI28
(dp135
g2
I0
sg3
(lp136
sg12
I1
ssI29
(dp137
g2
I6
sg3
(lp138
(dp139
g6
I15
sg7
F18.039278984069824
sg8
I49
sg9
F0.5457561016082764
sa(dp140
g6
I1
sg7
F0.16598010063171387
sg8
I17
sg9
F0.4778149127960205
sa(dp141
g6
I1
sg7
F0.07245707511901855
sg8
I9
sg9
F0.48003411293029785
sa(dp142
g6
I1
sg7
F0.007763862609863281
sg8
I5
sg9
F0.0459291934967041
sa(dp143
g6
I1
sg7
F0.00797581672668457
sg8
I3
sg9
F0.1397848129272461
sa(dp144
g6
I0
sg7
F0.0035698413848876953
sg8
I2
sg9
F0.016412973403930664
sasg12
I49
ssI30
(dp145
g2
I1
sg3
(lp146
(dp147
g6
I0
sg7
F0.4156968593597412
sg8
I2
sg9
F0.043123722076416016
sasg12
I2
ssI31
(dp148
g2
I0
sg3
(lp149
sg12
I1
ssI32
(dp150
g2
I1
sg3
(lp151
(dp152
g6
I0
sg7
F0.007528066635131836
sg8
I2
sg9
F0.00036787986755371094
sasg12
I2
ssI33
(dp153
g2
I5
sg3
(lp154
(dp155
g6
I71
sg7
F10.315601110458374
sg8
I103
sg9
F0.26941394805908203
sa(dp156
g6
I0
sg7
F0.007895946502685547
sg8
I16
sg9
F0.03194904327392578
sa(dp157
g6
I0
sg7
F0.11266613006591797
sg8
I8
sg9
F0.02091383934020996
sa(dp158
g6
I0
sg7
F0.0036618709564208984
sg8
I4
sg9
F0.010631799697875977
sa(dp159
g6
I0
sg7
F0.0013780593872070312
sg8
I2
sg9
F0.005285024642944336
sasg12
I103
ssI34
(dp160
g2
I1
sg3
(lp161
(dp162
g6
I0
sg7
F0.017041921615600586
sg8
I2
sg9
F0.0009608268737792969
sasg12
I2
ssI35
(dp163
g2
I4
sg3
(lp164
(dp165
g6
I38
sg7
F14.128897905349731
sg8
I70
sg9
F0.02924489974975586
sa(dp166
g6
I2
sg7
F0.004803180694580078
sg8
I16
sg9
F0.01975870132446289
sa(dp167
g6
I1
sg7
F0.0037729740142822266
sg8
I7
sg9
F0.011855125427246094
sa(dp168
g6
I1
sg7
F0.0012950897216796875
sg8
I3
sg9
F0.005652189254760742
sasg12
I70
ssI36
(dp169
g2
I2
sg3
(lp170
(dp171
g6
I25
sg7
F0.5298831462860107
sg8
I33
sg9
F0.013570070266723633
sa(dp172
g6
I27
sg7
F0.004915714263916016
sg8
I29
sg9
F0.0059661865234375
sasg12
I33
ssI37
(dp173
g2
I1
sg3
(lp174
(dp175
g6
I0
sg7
F0.007876873016357422
sg8
I2
sg9
F0.00042366981506347656
sasg12
I2
ssI38
(dp176
g2
I2
sg3
(lp177
(dp178
g6
I0
sg7
F0.032209157943725586
sg8
I4
sg9
F0.0008392333984375
sa(dp179
g6
I0
sg7
F0.00131988525390625
sg8
I2
sg9
F0.0007319450378417969
sasg12
I4
ssI39
(dp180
g2
I2
sg3
(lp181
(dp182
g6
I30
sg7
F0.11448407173156738
sg8
I44
sg9
F0.00426793098449707
sa(dp183
g6
I35
sg7
F0.0015659332275390625
sg8
I37
sg9
F0.0018310546875
sasg12
I44
ssI40
(dp184
g2
I1
sg3
(lp185
(dp186
g6
I5
sg7
F0.0321500301361084
sg8
I7
sg9
F0.00017404556274414062
sasg12
I7
ssI41
(dp187
g2
I1
sg3
(lp188
(dp189
g6
I10
sg7
F0.06442999839782715
sg8
I12
sg9
F0.0002582073211669922
sasg12
I12
ssI42
(dp190
g2
I2
sg3
(lp191
(dp192
g6
I39
sg7
F0.0319061279296875
sg8
I41
sg9
F0.00022482872009277344
sa(dp193
g6
I38
sg7
F0.0012259483337402344
sg8
I40
sg9
F0.0001590251922607422
sasg12
I41
ssI43
(dp194
g2
I1
sg3
(lp195
(dp196
g6
I5
sg7
F0.016147851943969727
sg8
I7
sg9
F0.0001652240753173828
sasg12
I7
ssI44
(dp197
g2
I4
sg3
(lp198
(dp199
g6
I33
sg7
F0.11441993713378906
sg8
I47
sg9
F0.0019960403442382812
sa(dp200
g6
I34
sg7
F0.0011959075927734375
sg8
I40
sg9
F0.0019338130950927734
sa(dp201
g6
I1
sg7
F0.0017189979553222656
sg8
I3
sg9
F0.0009009838104248047
sa(dp202
g6
I0
sg7
F0.001332998275756836
sg8
I2
sg9
F0.000164031982421875
sasg12
I47
ssI45
(dp203
g2
I0
sg3
(lp204
sg12
I1
ssI46
(dp205
g2
I2
sg3
(lp206
(dp207
g6
I4
sg7
F0.01601696014404297
sg8
I6
sg9
F0.0005450248718261719
sa(dp208
g6
I3
sg7
F0.009127140045166016
sg8
I5
sg9
F0.00015974044799804688
sasg12
I6
ssI47
(dp209
g2
I1
sg3
(lp210
(dp211
g6
I0
sg7
F0.0076751708984375
sg8
I2
sg9
F0.000392913818359375
sasg12
I2
ssI48
(dp212
g2
I0
sg3
(lp213
sg12
I1
ssI49
(dp214
g2
I0
sg3
(lp215
sg12
I1
ssI50
(dp216
g2
I3
sg3
(lp217
(dp218
g6
I3
sg7
F0.0076639652252197266
sg8
I5
sg9
F0.0002009868621826172
sa(dp219
g6
I2
sg7
F0.001302957534790039
sg8
I4
sg9
F0.00020503997802734375
sa(dp220
g6
I1
sg7
F0.001238107681274414
sg8
I3
sg9
F0.00018477439880371094
sasg12
I5
ssI51
(dp221
g2
I1
sg3
(lp222
(dp223
g6
I0
sg7
F0.007618904113769531
sg8
I2
sg9
F0.0003402233123779297
sasg12
I2
ssI52
(dp224
g2
I1
sg3
(lp225
(dp226
g6
I0
sg7
F0.007563114166259766
sg8
I2
sg9
F0.00032520294189453125
sasg12
I2
ssI53
(dp227
g2
I2
sg3
(lp228
(dp229
g6
I0
sg7
F0.015678882598876953
sg8
I4
sg9
F0.0010480880737304688
sa(dp230
g6
I0
sg7
F0.0014159679412841797
sg8
I2
sg9
F0.0010330677032470703
sasg12
I4
ssI54
(dp231
g2
I1
sg3
(lp232
(dp233
g6
I1
sg7
F0.007620811462402344
sg8
I3
sg9
F0.00041961669921875
sasg12
I3
ssI55
(dp234
g2
I7
sg3
(lp235
(dp236
g6
I85
sg7
F1.5716321468353271
sg8
I109
sg9
F0.0484919548034668
sa(dp237
g6
I85
sg7
F0.001161813735961914
sg8
I97
sg9
F0.0026161670684814453
sa(dp238
g6
I83
sg7
F0.0012180805206298828
sg8
I91
sg9
F0.0012559890747070312
sa(dp239
g6
I83
sg7
F0.0017480850219726562
sg8
I87
sg9
F0.0015158653259277344
sa(dp240
g6
I81
sg7
F0.0013339519500732422
sg8
I85
sg9
F0.0010797977447509766
sa(dp241
g6
I79
sg7
F0.001394033432006836
sg8
I83
sg9
F0.0008928775787353516
sa(dp242
g6
I79
sg7
F0.0013098716735839844
sg8
I81
sg9
F0.0007741451263427734
sasg12
I109
ssI56
(dp243
g2
I5
sg3
(lp244
(dp245
g6
I44
sg7
F1.068114995956421
sg8
I76
sg9
F0.11718010902404785
sa(dp246
g6
I0
sg7
F0.009528875350952148
sg8
I16
sg9
F0.02179694175720215
sa(dp247
g6
I0
sg7
F0.0035789012908935547
sg8
I8
sg9
F0.014780759811401367
sa(dp248
g6
I0
sg7
F0.0018780231475830078
sg8
I4
sg9
F0.0032308101654052734
sa(dp249
g6
I0
sg7
F0.0012271404266357422
sg8
I2
sg9
F0.003267049789428711
sasg12
I76
ssI57
(dp250
g2
I5
sg3
(lp251
(dp252
g6
I3
sg7
F19.04348087310791
sg8
I51
sg9
F0.1496748924255371
sa(dp253
g6
I1
sg7
F0.020492076873779297
sg8
I27
sg9
F0.05058884620666504
sa(dp254
g6
I1
sg7
F0.0033729076385498047
sg8
I13
sg9
F0.012090206146240234
sa(dp255
g6
I0
sg7
F0.0035500526428222656
sg8
I6
sg9
F0.008672237396240234
sa(dp256
g6
I1
sg7
F0.0013821125030517578
sg8
I3
sg9
F0.0030450820922851562
sasg12
I51
ssI58
(dp257
g2
I7
sg3
(lp258
(dp259
g6
I342
sg7
F102.83087992668152
sg8
I486
sg9
F0.48984432220458984
sa(dp260
g6
I358
sg7
F0.08041501045227051
sg8
I414
sg9
F0.18944382667541504
sa(dp261
g6
I0
sg7
F0.01939988136291504
sg8
I28
sg9
F0.052294015884399414
sa(dp262
g6
I0
sg7
F0.01152801513671875
sg8
I14
sg9
F0.031542062759399414
sa(dp263
g6
I1
sg7
F0.0063970088958740234
sg8
I7
sg9
F0.02380204200744629
sa(dp264
g6
I0
sg7
F0.0011789798736572266
sg8
I4
sg9
F0.004605293273925781
sa(dp265
g6
I0
sg7
F0.0014960765838623047
sg8
I2
sg9
F0.0026760101318359375
sasg12
I486
ssI59
(dp266
g2
I2
sg3
(lp267
(dp268
g6
I3
sg7
F0.06403017044067383
sg8
I7
sg9
F0.0012941360473632812
sa(dp269
g6
I0
sg7
F0.0013909339904785156
sg8
I2
sg9
F0.0014421939849853516
sasg12
I7
ssI60
(dp270
g2
I4
sg3
(lp271
(dp272
g6
I3
sg7
F0.007771015167236328
sg8
I5
sg9
F0.00012969970703125
sa(dp273
g6
I2
sg7
F0.0036020278930664062
sg8
I4
sg9
F0.0006279945373535156
sa(dp274
g6
I1
sg7
F0.0015249252319335938
sg8
I3
sg9
F0.0005741119384765625
sa(dp275
g6
I0
sg7
F0.001277923583984375
sg8
I2
sg9
F0.00011515617370605469
sasg12
I5
ssI61
(dp276
g2
I0
sg3
(lp277
sg12
I1
ssI62
(dp278
g2
I2
sg3
(lp279
(dp280
g6
I6
sg7
F0.016260862350463867
sg8
I12
sg9
F0.00044608116149902344
sa(dp281
g6
I7
sg7
F0.0012519359588623047
sg8
I9
sg9
F0.0001480579376220703
sasg12
I12
ssI63
(dp282
g2
I0
sg3
(lp283
sg12
I1
ssI64
(dp284
g2
I3
sg3
(lp285
(dp286
g6
I4
sg7
F0.12091207504272461
sg8
I12
sg9
F0.009907245635986328
sa(dp287
g6
I0
sg7
F0.0015709400177001953
sg8
I4
sg9
F0.0013768672943115234
sa(dp288
g6
I0
sg7
F0.0013380050659179688
sg8
I2
sg9
F0.001241922378540039
sasg12
I12
ssI65
(dp289
g2
I4
sg3
(lp290
(dp291
g6
I13
sg7
F0.6249141693115234
sg8
I27
sg9
F0.057356834411621094
sa(dp292
g6
I1
sg7
F0.0037660598754882812
sg8
I7
sg9
F0.01030588150024414
sa(dp293
g6
I0
sg7
F0.0012979507446289062
sg8
I4
sg9
F0.003849029541015625
sa(dp294
g6
I0
sg7
F0.0014178752899169922
sg8
I2
sg9
F0.001196146011352539
sasg12
I27
ssI66
(dp295
g2
I0
sg3
(lp296
sg12
I1
ssI67
(dp297
g2
I2
sg3
(lp298
(dp299
g6
I31
sg7
F0.6665511131286621
sg8
I35
sg9
F0.014947891235351562
sa(dp300
g6
I0
sg7
F0.0021657943725585938
sg8
I2
sg9
F0.010148763656616211
sasg12
I35
ssI68
(dp301
g2
I0
sg3
(lp302
sg12
I1
ssI69
(dp303
g2
I1
sg3
(lp304
(dp305
g6
I49
sg7
F0.11455202102661133
sg8
I51
sg9
F0.0005908012390136719
sasg12
I51
ssI70
(dp306
g2
I2
sg3
(lp307
(dp308
g6
I4
sg7
F0.016124963760375977
sg8
I6
sg9
F0.00048732757568359375
sa(dp309
g6
I3
sg7
F0.0012969970703125
sg8
I5
sg9
F0.00043201446533203125
sasg12
I6
ssI71
(dp310
g2
I6
sg3
(lp311
(dp312
g6
I77
sg7
F0.16447806358337402
sg8
I85
sg9
F0.0014736652374267578
sa(dp313
g6
I73
sg7
F0.0012710094451904297
sg8
I81
sg9
F0.0007121562957763672
sa(dp314
g6
I71
sg7
F0.0012111663818359375
sg8
I77
sg9
F0.0006296634674072266
sa(dp315
g6
I68
sg7
F0.0014388561248779297
sg8
I74
sg9
F0.0005362033843994141
sa(dp316
g6
I65
sg7
F0.0014710426330566406
sg8
I71
sg9
F0.0005488395690917969
sa(dp317
g6
I1
sg7
F0.0013310909271240234
sg8
I3
sg9
F0.00031280517578125
sasg12
I85
ssI72
(dp318
g2
I3
sg3
(lp319
(dp320
g6
I4
sg7
F0.03216814994812012
sg8
I8
sg9
F0.00045299530029296875
sa(dp321
g6
I0
sg7
F0.2145528793334961
sg8
I6
sg9
F0.0035576820373535156
sa(dp322
g6
I1
sg7
F0.0002598762512207031
sg8
I3
sg9
F8.416175842285156e-05
sasg12
I8
ssI73
(dp323
g2
I0
sg3
(lp324
sg12
I1
ssI74
(dp325
g2
I0
sg3
(lp326
sg12
I1
ssI75
(dp327
g2
I3
sg3
(lp328
(dp329
g6
I3
sg7
F0.007882118225097656
sg8
I5
sg9
F0.0001881122589111328
sa(dp330
g6
I2
sg7
F0.0013260841369628906
sg8
I4
sg9
F0.0001659393310546875
sa(dp331
g6
I1
sg7
F0.001332998275756836
sg8
I3
sg9
F0.00015020370483398438
sasg12
I5
ssI76
(dp332
g2
I1
sg3
(lp333
(dp334
g6
I0
sg7
F0.015947818756103516
sg8
I2
sg9
F0.00072479248046875
sasg12
I2
ssI77
(dp335
g2
I0
sg3
(lp336
sg12
I1
ssI78
(dp337
g2
I0
sg3
(lp338
sg12
I1
ssI103
(dp339
g2
I1
sg3
(lp340
(dp341
g6
I10
sg7
F0.06458592414855957
sg8
I12
sg9
F0.00023984909057617188
sasg12
I12
ssI104
(dp342
g2
I2
sg3
(lp343
(dp344
g6
I0
sg7
F1.1683919429779053
sg8
I4
sg9
F0.20270371437072754
sa(dp345
g6
I0
sg7
F0.01691603660583496
sg8
I2
sg9
F0.20496416091918945
sasg12
I4
ssI105
(dp346
g2
I0
sg3
(lp347
sg12
I1
ssI106
(dp348
g2
I1
sg3
(lp349
(dp350
g6
I2
sg7
F0.01606607437133789
sg8
I4
sg9
F0.00018477439880371094
sasg12
I4
ssI107
(dp351
g2
I2
sg3
(lp352
(dp353
g6
I10
sg7
F0.06441807746887207
sg8
I16
sg9
F0.0003509521484375
sa(dp354
g6
I1
sg7
F0.0014050006866455078
sg8
I3
sg9
F0.0002727508544921875
sasg12
I16
ssI108
(dp355
g2
I0
sg3
(lp356
sg12
I1
ss.