(dp0
I1
(dp1
S'iters'
p2
I4
sS'meta'
p3
(lp4
(dp5
S'objective'
p6
I48
sS'query_time'
p7
F0.09641695022583008
sS'comp_time'
p8
F0.03096771240234375
sS'exec_cq'
p9
I12
sS'total_cq'
p10
I12
sa(dp11
g6
I39
sg7
F5.3882598876953125e-05
sg8
F0.00016689300537109375
sg9
I10
sg10
I10
sa(dp12
g6
I37
sg7
F4.100799560546875e-05
sg8
F0.00010800361633300781
sg9
I9
sg10
I9
sa(dp13
g6
I42
sg7
F3.1948089599609375e-05
sg8
F7.176399230957031e-05
sg9
I8
sg10
I8
sasS'total_cqs'
p14
I12
ssI2
(dp15
S'iters'
p16
I8
sS'meta'
p17
(lp18
(dp19
S'objective'
p20
I226
sS'query_time'
p21
F0.20304489135742188
sS'comp_time'
p22
F0.03529620170593262
sS'exec_cq'
p23
I27
sS'total_cq'
p24
I27
sa(dp25
g20
I212
sg21
F0.0002110004425048828
sg22
F0.001020193099975586
sg23
I24
sg24
I24
sa(dp26
g20
I209
sg21
F0.00010895729064941406
sg22
F0.0003943443298339844
sg23
I20
sg24
I20
sa(dp27
g20
I197
sg21
F0.00010228157043457031
sg22
F0.0003681182861328125
sg23
I19
sg24
I19
sa(dp28
g20
I181
sg21
F9.918212890625e-05
sg22
F0.0002510547637939453
sg23
I17
sg24
I17
sa(dp29
g20
I180
sg21
F7.510185241699219e-05
sg22
F0.0001614093780517578
sg23
I16
sg24
I16
sa(dp30
g20
I179
sg21
F6.794929504394531e-05
sg22
F0.00011897087097167969
sg23
I15
sg24
I15
sa(dp31
g20
I182
sg21
F5.698204040527344e-05
sg22
F9.989738464355469e-05
sg23
I13
sg24
I13
sasS'total_cqs'
p32
I27
ssI3
(dp33
S'iters'
p34
I4
sS'meta'
p35
(lp36
(dp37
S'objective'
p38
I528
sS'query_time'
p39
F187.3284502029419
sS'comp_time'
p40
F0.9716012477874756
sS'exec_cq'
p41
I30
sS'total_cq'
p42
I43
sa(dp43
g38
I343
sg39
F0.5404951572418213
sg40
F0.9732856750488281
sg41
I14
sg42
I35
sa(dp44
g38
I442
sg39
F54.982747316360474
sg40
F0.31464695930480957
sg41
I28
sg42
I28
sa(dp45
g38
I489
sg39
F0.0003230571746826172
sg40
F0.00014090538024902344
sg41
I25
sg42
I25
sasS'total_cqs'
p46
I43
ssI4
(dp47
S'iters'
p48
I2
sS'meta'
p49
(lp50
(dp51
S'objective'
p52
I58
sS'query_time'
p53
F4.769520044326782
sS'comp_time'
p54
F0.47110581398010254
sS'exec_cq'
p55
I11
sS'total_cq'
p56
I11
sa(dp57
g52
I2
sg53
F0.17974400520324707
sg54
F0.2515897750854492
sg55
I2
sg56
I2
sasS'total_cqs'
p58
I11
ssI5
(dp59
S'iters'
p60
I4
sS'meta'
p61
(lp62
(dp63
S'objective'
p64
I0
sS'query_time'
p65
F34.41478395462036
sS'comp_time'
p66
F8.452931642532349
sS'exec_cq'
p67
I8
sS'total_cq'
p68
I8
sa(dp69
g64
I0
sg65
F0.3454580307006836
sg66
F0.6286141872406006
sg67
I5
sg68
I5
sa(dp70
g64
I1
sg65
F0.19072890281677246
sg66
F0.46892404556274414
sg67
I3
sg68
I3
sa(dp71
g64
I2
sg65
F0.0037539005279541016
sg66
F0.10751891136169434
sg67
I2
sg68
I2
sasS'total_cqs'
p72
I8
ssI6
(dp73
S'iters'
p74
I4
sS'meta'
p75
(lp76
(dp77
S'objective'
p78
I73
sS'query_time'
p79
F36.92743802070618
sS'comp_time'
p80
F2.052544355392456
sS'exec_cq'
p81
I18
sS'total_cq'
p82
I18
sa(dp83
g78
I1
sg79
F0.7328689098358154
sg80
F7.376663684844971
sg81
I7
sg82
I7
sa(dp84
g78
I0
sg79
F0.4578850269317627
sg80
F0.8262631893157959
sg81
I3
sg82
I3
sa(dp85
g78
I10
sg79
F0.22243380546569824
sg80
F0.5160162448883057
sg81
I2
sg82
I2
sasS'total_cqs'
p86
I18
ssI7
(dp87
S'iters'
p88
I4
sS'meta'
p89
(lp90
(dp91
S'objective'
p92
I1
sS'query_time'
p93
F12.699663877487183
sS'comp_time'
p94
F1.2665128707885742
sS'exec_cq'
p95
I9
sS'total_cq'
p96
I9
sa(dp97
g92
I0
sg93
F0.40535807609558105
sg94
F2.0048649311065674
sg95
I5
sg96
I5
sa(dp98
g92
I5
sg93
F0.3133070468902588
sg94
F0.42999815940856934
sg95
I3
sg96
I3
sa(dp99
g92
I1
sg93
F0.3096308708190918
sg94
F0.4350459575653076
sg95
I2
sg96
I2
sasS'total_cqs'
p100
I9
ssI8
(dp101
S'iters'
p102
I5
sS'meta'
p103
(lp104
(dp105
S'objective'
p106
I228
sS'query_time'
p107
F0.1507582664489746
sS'comp_time'
p108
F0.031101226806640625
sS'exec_cq'
p109
I27
sS'total_cq'
p110
I27
sa(dp111
g106
I203
sg107
F0.0001671314239501953
sg108
F0.0006220340728759766
sg109
I22
sg110
I22
sa(dp112
g106
I205
sg107
F8.0108642578125e-05
sg108
F0.0002148151397705078
sg109
I19
sg110
I19
sa(dp113
g106
I223
sg107
F6.699562072753906e-05
sg108
F0.00011014938354492188
sg109
I18
sg110
I18
sa(dp114
g106
I224
sg107
F6.508827209472656e-05
sg108
F7.939338684082031e-05
sg109
I17
sg110
I17
sasS'total_cqs'
p115
I27
ssI9
(dp116
S'iters'
p117
I3
sS'meta'
p118
(lp119
(dp120
S'objective'
p121
I2
sS'query_time'
p122
F0.12290191650390625
sS'comp_time'
p123
F0.005160331726074219
sS'exec_cq'
p124
I7
sS'total_cq'
p125
I7
sa(dp126
g121
I5
sg122
F3.600120544433594e-05
sg123
F0.00024700164794921875
sg124
I4
sg125
I4
sa(dp127
g121
I3
sg122
F2.002716064453125e-05
sg123
F7.510185241699219e-05
sg124
I2
sg125
I2
sasS'total_cqs'
p128
I7
ssI10
(dp129
S'iters'
p130
I6
sS'meta'
p131
(lp132
(dp133
S'objective'
p134
I606
sS'query_time'
p135
F0.4109327793121338
sS'comp_time'
p136
F0.08254265785217285
sS'exec_cq'
p137
I51
sS'total_cq'
p138
I51
sa(dp139
g134
I272
sg135
F0.0003800392150878906
sg136
F0.002936124801635742
sg137
I23
sg138
I37
sa(dp140
g134
I367
sg135
F0.0002551078796386719
sg136
F0.0013210773468017578
sg137
I25
sg138
I25
sa(dp141
g134
I337
sg135
F8.392333984375e-05
sg136
F0.0003578662872314453
sg137
I21
sg138
I21
sa(dp142
g134
I24
sg135
F0.0015268325805664062
sg136
F0.0003960132598876953
sg137
I3
sg138
I3
sa(dp143
g134
I25
sg135
F2.2172927856445312e-05
sg136
F9.608268737792969e-05
sg137
I2
sg138
I2
sasS'total_cqs'
p144
I51
ssI11
(dp145
S'iters'
p146
I6
sS'meta'
p147
(lp148
(dp149
S'objective'
p150
I988
sS'query_time'
p151
F0.6406199932098389
sS'comp_time'
p152
F0.17485308647155762
sS'exec_cq'
p153
I63
sS'total_cq'
p154
I63
sa(dp155
g150
I1022
sg151
F0.0012919902801513672
sg152
F0.0046291351318359375
sg153
I47
sg154
I47
sa(dp156
g150
I14
sg151
F0.0017719268798828125
sg152
F0.0027709007263183594
sg153
I9
sg154
I9
sa(dp157
g150
I11
sg151
F8.320808410644531e-05
sg152
F0.0007369518280029297
sg153
I6
sg154
I6
sa(dp158
g150
I21
sg151
F3.600120544433594e-05
sg152
F0.00020384788513183594
sg153
I4
sg154
I4
sa(dp159
g150
I22
sg151
F1.811981201171875e-05
sg152
F0.00015592575073242188
sg153
I2
sg154
I2
sasS'total_cqs'
p160
I63
ssI12
(dp161
S'iters'
p162
I8
sS'meta'
p163
(lp164
(dp165
S'objective'
p166
I339
sS'query_time'
p167
F0.3994729518890381
sS'comp_time'
p168
F0.09835386276245117
sS'exec_cq'
p169
I50
sS'total_cq'
p170
I50
sa(dp171
g166
I453
sg167
F0.0007030963897705078
sg168
F0.003114938735961914
sg169
I33
sg170
I33
sa(dp172
g166
I460
sg167
F0.0001659393310546875
sg168
F0.0008139610290527344
sg169
I26
sg170
I26
sa(dp173
g166
I387
sg167
F0.00017499923706054688
sg168
F0.0005161762237548828
sg169
I23
sg170
I23
sa(dp174
g166
I336
sg167
F0.00012421607971191406
sg168
F0.0005252361297607422
sg169
I21
sg170
I21
sa(dp175
g166
I7
sg167
F0.0016450881958007812
sg168
F0.0005507469177246094
sg169
I5
sg170
I5
sa(dp176
g166
I17
sg167
F3.600120544433594e-05
sg168
F0.00018787384033203125
sg169
I3
sg170
I3
sa(dp177
g166
I4
sg167
F2.3126602172851562e-05
sg168
F9.703636169433594e-05
sg169
I2
sg170
I2
sasS'total_cqs'
p178
I50
ssI13
(dp179
S'iters'
p180
I3
sS'meta'
p181
(lp182
(dp183
S'objective'
p184
I28
sS'query_time'
p185
F0.12793183326721191
sS'comp_time'
p186
F0.03118157386779785
sS'exec_cq'
p187
I20
sS'total_cq'
p188
I20
sa(dp189
g184
I77
sg185
F4.1961669921875e-05
sg186
F0.0003788471221923828
sg187
I9
sg188
I9
sa(dp190
g184
I19
sg185
F0.0013730525970458984
sg186
F0.00014019012451171875
sg187
I2
sg188
I2
sasS'total_cqs'
p191
I20
ssI14
(dp192
S'iters'
p193
I3
sS'meta'
p194
(lp195
(dp196
S'objective'
p197
I1
sS'query_time'
p198
F34.375712871551514
sS'comp_time'
p199
F0.8632800579071045
sS'exec_cq'
p200
I9
sS'total_cq'
p201
I9
sa(dp202
g197
I4
sg198
F0.29162001609802246
sg199
F0.5544660091400146
sg200
I5
sg201
I5
sa(dp203
g197
I7
sg198
F0.07265901565551758
sg199
F0.4101400375366211
sg200
I2
sg201
I2
sasS'total_cqs'
p204
I9
ssI15
(dp205
S'iters'
p206
I4
sS'meta'
p207
(lp208
(dp209
S'objective'
p210
I0
sS'query_time'
p211
F3.7168750762939453
sS'comp_time'
p212
F0.08401799201965332
sS'exec_cq'
p213
I11
sS'total_cq'
p214
I11
sa(dp215
g210
I7
sg211
F0.011754989624023438
sg212
F0.025960206985473633
sg213
I7
sg214
I7
sa(dp216
g210
I7
sg211
F0.010809183120727539
sg212
F0.01712512969970703
sg213
I3
sg214
I3
sa(dp217
g210
I1
sg211
F0.0951080322265625
sg212
F0.019505023956298828
sg213
I2
sg214
I2
sasS'total_cqs'
p218
I11
ssI16
(dp219
S'iters'
p220
I1
sS'meta'
p221
(lp222
(dp223
S'objective'
p224
I34
sS'query_time'
p225
F0.03478503227233887
sS'comp_time'
p226
F0.004439830780029297
sS'exec_cq'
p227
I8
sS'total_cq'
p228
I8
sasS'total_cqs'
p229
I8
ssI17
(dp230
S'iters'
p231
I4
sS'meta'
p232
(lp233
(dp234
S'objective'
p235
I2
sS'query_time'
p236
F0.95176100730896
sS'comp_time'
p237
F0.04672551155090332
sS'exec_cq'
p238
I11
sS'total_cq'
p239
I11
sa(dp240
g235
I0
sg236
F0.007941961288452148
sg237
F0.010946035385131836
sg238
I6
sg239
I6
sa(dp241
g235
I2
sg236
F0.0029730796813964844
sg237
F0.00513458251953125
sg238
I3
sg239
I3
sa(dp242
g235
I5
sg236
F0.0025420188903808594
sg237
F0.005004167556762695
sg238
I2
sg239
I2
sasS'total_cqs'
p243
I11
ssI18
(dp244
S'iters'
p245
I4
sS'meta'
p246
(lp247
(dp248
S'objective'
p249
I30
sS'query_time'
p250
F0.21547293663024902
sS'comp_time'
p251
F0.024036169052124023
sS'exec_cq'
p252
I11
sS'total_cq'
p253
I11
sa(dp254
g249
I38
sg250
F0.00026488304138183594
sg251
F0.0007719993591308594
sg252
I8
sg253
I8
sa(dp255
g249
I35
sg250
F0.00018215179443359375
sg251
F0.00037741661071777344
sg252
I7
sg253
I7
sa(dp256
g249
I37
sg250
F3.1948089599609375e-05
sg251
F6.580352783203125e-05
sg252
I6
sg253
I6
sasS'total_cqs'
p257
I11
ssI19
(dp258
S'iters'
p259
I0
sS'meta'
p260
(lp261
sS'total_cqs'
p262
I1
ssI20
(dp263
S'iters'
p264
I0
sS'meta'
p265
(lp266
sS'total_cqs'
p267
I1
ssI21
(dp268
S'iters'
p269
I0
sS'meta'
p270
(lp271
sS'total_cqs'
p272
I1
ssI22
(dp273
S'iters'
p274
I1
sS'meta'
p275
(lp276
(dp277
S'objective'
p278
I169
sS'query_time'
p279
F0.05364704132080078
sS'comp_time'
p280
F0.031397104263305664
sS'exec_cq'
p281
I18
sS'total_cq'
p282
I18
sasS'total_cqs'
p283
I18
ssI23
(dp284
S'iters'
p285
I3
sS'meta'
p286
(lp287
(dp288
S'objective'
p289
I100
sS'query_time'
p290
F0.06554722785949707
sS'comp_time'
p291
F0.024541616439819336
sS'exec_cq'
p292
I16
sS'total_cq'
p293
I16
sa(dp294
g289
I88
sg290
F0.00010704994201660156
sg291
F0.00021314620971679688
sg292
I14
sg293
I14
sa(dp295
g289
I101
sg290
F5.1975250244140625e-05
sg291
F9.393692016601562e-05
sg292
I13
sg293
I13
sasS'total_cqs'
p296
I16
ssI24
(dp297
S'iters'
p298
I0
sS'meta'
p299
(lp300
sS'total_cqs'
p301
I1
ssI25
(dp302
S'iters'
p303
I0
sS'meta'
p304
(lp305
sS'total_cqs'
p306
I1
ssI26
(dp307
S'iters'
p308
I1
sS'meta'
p309
(lp310
(dp311
S'objective'
p312
I901
sS'query_time'
p313
F0.14975905418395996
sS'comp_time'
p314
F0.11515188217163086
sS'exec_cq'
p315
I42
sS'total_cq'
p316
I42
sasS'total_cqs'
p317
I42
ssI27
(dp318
S'iters'
p319
I4
sS'meta'
p320
(lp321
(dp322
S'objective'
p323
I289
sS'query_time'
p324
F22.072842121124268
sS'comp_time'
p325
F1.6931610107421875
sS'exec_cq'
p326
I30
sS'total_cq'
p327
I30
sa(dp328
g323
I0
sg324
F0.4645841121673584
sg325
F1.5741138458251953
sg326
I5
sg327
I5
sa(dp329
g323
I6
sg324
F0.21842193603515625
sg325
F0.4781677722930908
sg326
I3
sg327
I3
sa(dp330
g323
I17
sg324
F0.03118586540222168
sg325
F0.07119488716125488
sg326
I2
sg327
I2
sasS'total_cqs'
p331
I30
ssI28
(dp332
S'iters'
p333
I0
sS'meta'
p334
(lp335
sS'total_cqs'
p336
I1
ssI29
(dp337
S'iters'
p338
I6
sS'meta'
p339
(lp340
(dp341
S'objective'
p342
I397
sS'query_time'
p343
F146.80934405326843
sS'comp_time'
p344
F10.987432956695557
sS'exec_cq'
p345
I49
sS'total_cq'
p346
I49
sa(dp347
g342
I6
sg343
F0.10745406150817871
sg344
F2.2202517986297607
sg345
I16
sg346
I16
sa(dp348
g342
I2
sg343
F0.4960958957672119
sg344
F0.9031155109405518
sg345
I9
sg346
I9
sa(dp349
g342
I2
sg343
F0.017271041870117188
sg344
F0.05836892127990723
sg345
I5
sg346
I5
sa(dp350
g342
I9
sg343
F0.0019299983978271484
sg344
F0.001984119415283203
sg345
I3
sg346
I3
sa(dp351
g342
I19
sg343
F0.0011489391326904297
sg344
F0.0017843246459960938
sg345
I2
sg346
I2
sasS'total_cqs'
p352
I49
ssI30
(dp353
S'iters'
p354
I1
sS'meta'
p355
(lp356
(dp357
S'objective'
p358
I1
sS'query_time'
p359
F0.6999318599700928
sS'comp_time'
p360
F0.011640071868896484
sS'exec_cq'
p361
I2
sS'total_cq'
p362
I2
sasS'total_cqs'
p363
I2
ssI31
(dp364
S'iters'
p365
I0
sS'meta'
p366
(lp367
sS'total_cqs'
p368
I1
ssI32
(dp369
S'iters'
p370
I1
sS'meta'
p371
(lp372
(dp373
S'objective'
p374
I1
sS'query_time'
p375
F0.02722907066345215
sS'comp_time'
p376
F0.007460117340087891
sS'exec_cq'
p377
I2
sS'total_cq'
p378
I2
sasS'total_cqs'
p379
I2
ssI33
(dp380
S'iters'
p381
I7
sS'meta'
p382
(lp383
(dp384
S'objective'
p385
I3722
sS'query_time'
p386
F16.259352922439575
sS'comp_time'
p387
F0.8706767559051514
sS'exec_cq'
p388
I103
sS'total_cq'
p389
I103
sa(dp390
g385
I47
sg386
F0.008672952651977539
sg387
F0.08056402206420898
sg388
I16
sg389
I16
sa(dp391
g385
I10
sg386
F0.006105899810791016
sg387
F0.029021739959716797
sg388
I10
sg389
I10
sa(dp392
g385
I3
sg386
F0.002724885940551758
sg387
F0.009498834609985352
sg388
I7
sg389
I7
sa(dp393
g385
I40
sg386
F0.0008819103240966797
sg387
F0.0014579296112060547
sg388
I4
sg389
I4
sa(dp394
g385
I10
sg386
F0.0006699562072753906
sg387
F0.0012352466583251953
sg388
I3
sg389
I3
sa(dp395
g385
I11
sg386
F0.0001399517059326172
sg387
F0.0003058910369873047
sg388
I2
sg389
I2
sasS'total_cqs'
p396
I103
ssI34
(dp397
S'iters'
p398
I1
sS'meta'
p399
(lp400
(dp401
S'objective'
p402
I1
sS'query_time'
p403
F0.014657974243164062
sS'comp_time'
p404
F0.0014882087707519531
sS'exec_cq'
p405
I2
sS'total_cq'
p406
I2
sasS'total_cqs'
p407
I2
ssI35
(dp408
S'iters'
p409
I6
sS'meta'
p410
(lp411
(dp412
S'objective'
p413
I1369
sS'query_time'
p414
F70.11183214187622
sS'comp_time'
p415
F2.3592569828033447
sS'exec_cq'
p416
I70
sS'total_cq'
p417
I70
sa(dp418
g413
I34
sg414
F0.004620075225830078
sg415
F0.015017271041870117
sg416
I16
sg417
I16
sa(dp419
g413
I8
sg414
F0.002363920211791992
sg415
F0.010139226913452148
sg416
I10
sg417
I10
sa(dp420
g413
I18
sg414
F0.0017230510711669922
sg415
F0.0025680065155029297
sg416
I6
sg417
I6
sa(dp421
g413
I39
sg414
F0.000988006591796875
sg415
F0.0012500286102294922
sg416
I3
sg417
I3
sa(dp422
g413
I10
sg414
F0.0002799034118652344
sg415
F0.0005686283111572266
sg416
I2
sg417
I2
sasS'total_cqs'
p423
I70
ssI36
(dp424
S'iters'
p425
I5
sS'meta'
p426
(lp427
(dp428
S'objective'
p429
I395
sS'query_time'
p430
F0.8573472499847412
sS'comp_time'
p431
F0.15764307975769043
sS'exec_cq'
p432
I33
sS'total_cq'
p433
I33
sa(dp434
g429
I326
sg430
F0.007370948791503906
sg431
F0.01656818389892578
sg432
I29
sg433
I29
sa(dp435
g429
I370
sg430
F0.002555370330810547
sg431
F0.0038704872131347656
sg432
I25
sg433
I25
sa(dp436
g429
I382
sg430
F0.001293182373046875
sg431
F0.001956462860107422
sg432
I24
sg433
I24
sa(dp437
g429
I382
sg430
F0.00012087821960449219
sg431
F0.0002617835998535156
sg432
I23
sg433
I23
sasS'total_cqs'
p438
I33
ssI37
(dp439
S'iters'
p440
I1
sS'meta'
p441
(lp442
(dp443
S'objective'
p444
I1
sS'query_time'
p445
F0.008346080780029297
sS'comp_time'
p446
F0.0010921955108642578
sS'exec_cq'
p447
I2
sS'total_cq'
p448
I2
sasS'total_cqs'
p449
I2
ssI38
(dp450
S'iters'
p451
I2
sS'meta'
p452
(lp453
(dp454
S'objective'
p455
I0
sS'query_time'
p456
F0.024277925491333008
sS'comp_time'
p457
F0.0035140514373779297
sS'exec_cq'
p458
I4
sS'total_cq'
p459
I4
sa(dp460
g455
I3
sg456
F7.796287536621094e-05
sg457
F0.00016689300537109375
sg458
I2
sg459
I2
sasS'total_cqs'
p461
I4
ssI39
(dp462
S'iters'
p463
I2
sS'meta'
p464
(lp465
(dp466
S'objective'
p467
I630
sS'query_time'
p468
F0.23067808151245117
sS'comp_time'
p469
F0.16991686820983887
sS'exec_cq'
p470
I44
sS'total_cq'
p471
I44
sa(dp472
g467
I808
sg468
F0.00036787986755371094
sg469
F0.001033782958984375
sg470
I37
sg471
I37
sasS'total_cqs'
p473
I44
ssI40
(dp474
S'iters'
p475
I1
sS'meta'
p476
(lp477
(dp478
S'objective'
p479
I26
sS'query_time'
p480
F0.033637046813964844
sS'comp_time'
p481
F0.006082057952880859
sS'exec_cq'
p482
I7
sS'total_cq'
p483
I7
sasS'total_cqs'
p484
I7
ssI41
(dp485
S'iters'
p486
I2
sS'meta'
p487
(lp488
(dp489
S'objective'
p490
I62
sS'query_time'
p491
F0.07204198837280273
sS'comp_time'
p492
F0.018111705780029297
sS'exec_cq'
p493
I12
sS'total_cq'
p494
I12
sa(dp495
g490
I68
sg491
F6.985664367675781e-05
sg492
F0.00011396408081054688
sg493
I11
sg494
I11
sasS'total_cqs'
p496
I12
ssI42
(dp497
S'iters'
p498
I4
sS'meta'
p499
(lp500
(dp501
S'objective'
p502
I779
sS'query_time'
p503
F0.15967488288879395
sS'comp_time'
p504
F0.1329362392425537
sS'exec_cq'
p505
I41
sS'total_cq'
p506
I41
sa(dp507
g502
I772
sg503
F0.0002048015594482422
sg504
F0.00028705596923828125
sg505
I40
sg506
I40
sa(dp508
g502
I756
sg503
F0.00017499923706054688
sg504
F0.0002238750457763672
sg505
I39
sg506
I39
sa(dp509
g502
I774
sg503
F0.0001659393310546875
sg504
F0.0001590251922607422
sg505
I38
sg506
I38
sasS'total_cqs'
p510
I41
ssI43
(dp511
S'iters'
p512
I1
sS'meta'
p513
(lp514
(dp515
S'objective'
p516
I26
sS'query_time'
p517
F0.032425880432128906
sS'comp_time'
p518
F0.005628824234008789
sS'exec_cq'
p519
I7
sS'total_cq'
p520
I7
sasS'total_cqs'
p521
I7
ssI44
(dp522
S'iters'
p523
I4
sS'meta'
p524
(lp525
(dp526
S'objective'
p527
I822
sS'query_time'
p528
F0.14144182205200195
sS'comp_time'
p529
F0.14548850059509277
sS'exec_cq'
p530
I47
sS'total_cq'
p531
I47
sa(dp532
g527
I835
sg528
F0.00031304359436035156
sg529
F0.0009958744049072266
sg530
I40
sg531
I40
sa(dp533
g527
I18
sg528
F0.0013189315795898438
sg529
F0.0012950897216796875
sg530
I3
sg531
I3
sa(dp534
g527
I24
sg528
F2.5033950805664062e-05
sg529
F0.00010418891906738281
sg530
I2
sg531
I2
sasS'total_cqs'
p535
I47
ssI45
(dp536
S'iters'
p537
I0
sS'meta'
p538
(lp539
sS'total_cqs'
p540
I1
ssI46
(dp541
S'iters'
p542
I3
sS'meta'
p543
(lp544
(dp545
S'objective'
p546
I9
sS'query_time'
p547
F0.07812190055847168
sS'comp_time'
p548
F0.0024690628051757812
sS'exec_cq'
p549
I4
sS'total_cq'
p550
I6
sa(dp551
g546
I7
sg547
F0.005093097686767578
sg548
F0.0001049041748046875
sg549
I5
sg550
I5
sa(dp552
g546
I9
sg547
F3.0994415283203125e-05
sg548
F6.723403930664062e-05
sg549
I4
sg550
I4
sasS'total_cqs'
p553
I6
ssI47
(dp554
S'iters'
p555
I1
sS'meta'
p556
(lp557
(dp558
S'objective'
p559
I1
sS'query_time'
p560
F0.02388596534729004
sS'comp_time'
p561
F0.0009989738464355469
sS'exec_cq'
p562
I2
sS'total_cq'
p563
I2
sasS'total_cqs'
p564
I2
ssI48
(dp565
S'iters'
p566
I0
sS'meta'
p567
(lp568
sS'total_cqs'
p569
I1
ssI49
(dp570
S'iters'
p571
I0
sS'meta'
p572
(lp573
sS'total_cqs'
p574
I1
ssI50
(dp575
S'iters'
p576
I4
sS'meta'
p577
(lp578
(dp579
S'objective'
p580
I5
sS'query_time'
p581
F0.018358945846557617
sS'comp_time'
p582
F0.002048015594482422
sS'exec_cq'
p583
I5
sS'total_cq'
p584
I5
sa(dp585
g580
I2
sg581
F3.314018249511719e-05
sg582
F0.00013709068298339844
sg583
I4
sg584
I4
sa(dp586
g580
I0
sg581
F2.5033950805664062e-05
sg582
F0.00010895729064941406
sg583
I3
sg584
I3
sa(dp587
g580
I1
sg581
F2.002716064453125e-05
sg582
F8.821487426757812e-05
sg583
I2
sg584
I2
sasS'total_cqs'
p588
I5
ssI51
(dp589
S'iters'
p590
I1
sS'meta'
p591
(lp592
(dp593
S'objective'
p594
I1
sS'query_time'
p595
F0.030673980712890625
sS'comp_time'
p596
F0.0009951591491699219
sS'exec_cq'
p597
I2
sS'total_cq'
p598
I2
sasS'total_cqs'
p599
I2
ssI52
(dp600
S'iters'
p601
I1
sS'meta'
p602
(lp603
(dp604
S'objective'
p605
I1
sS'query_time'
p606
F0.008357048034667969
sS'comp_time'
p607
F0.0010399818420410156
sS'exec_cq'
p608
I2
sS'total_cq'
p609
I2
sasS'total_cqs'
p610
I2
ssI53
(dp611
S'iters'
p612
I2
sS'meta'
p613
(lp614
(dp615
S'objective'
p616
I0
sS'query_time'
p617
F0.021641969680786133
sS'comp_time'
p618
F0.0026857852935791016
sS'exec_cq'
p619
I4
sS'total_cq'
p620
I4
sa(dp621
g616
I3
sg617
F0.000102996826171875
sg618
F0.0002548694610595703
sg619
I2
sg620
I2
sasS'total_cqs'
p622
I4
ssI54
(dp623
S'iters'
p624
I2
sS'meta'
p625
(lp626
(dp627
S'objective'
p628
I0
sS'query_time'
p629
F0.012466907501220703
sS'comp_time'
p630
F0.0016701221466064453
sS'exec_cq'
p631
I3
sS'total_cq'
p632
I3
sa(dp633
g628
I1
sg629
F5.2928924560546875e-05
sg630
F0.00015211105346679688
sg631
I2
sg632
I2
sasS'total_cqs'
p634
I3
ssI55
(dp635
S'iters'
p636
I5
sS'meta'
p637
(lp638
(dp639
S'objective'
p640
I5165
sS'query_time'
p641
F3.4383320808410645
sS'comp_time'
p642
F0.7257640361785889
sS'exec_cq'
p643
I109
sS'total_cq'
p644
I109
sa(dp645
g640
I29
sg641
F0.010582923889160156
sg642
F0.0650932788848877
sg643
I10
sg644
I10
sa(dp646
g640
I8
sg641
F0.0018129348754882812
sg642
F0.0061795711517333984
sg643
I6
sg644
I6
sa(dp647
g640
I19
sg641
F0.0004029273986816406
sg642
F0.001146078109741211
sg643
I3
sg644
I3
sa(dp648
g640
I42
sg641
F0.00026607513427734375
sg642
F0.0004260540008544922
sg643
I2
sg644
I2
sasS'total_cqs'
p649
I109
ssI56
(dp650
S'iters'
p651
I6
sS'meta'
p652
(lp653
(dp654
S'objective'
p655
I1824
sS'query_time'
p656
F1.7737209796905518
sS'comp_time'
p657
F0.2664768695831299
sS'exec_cq'
p658
I67
sS'total_cq'
p659
I76
sa(dp660
g655
I41
sg656
F0.1761469841003418
sg657
F0.0959169864654541
sg658
I16
sg659
I16
sa(dp661
g655
I2
sg656
F0.0037848949432373047
sg657
F0.007848978042602539
sg658
I9
sg659
I9
sa(dp662
g655
I17
sg656
F0.001119852066040039
sg657
F0.0027036666870117188
sg658
I5
sg659
I5
sa(dp663
g655
I52
sg656
F0.00022721290588378906
sg657
F0.0004990100860595703
sg658
I3
sg659
I3
sa(dp664
g655
I5
sg656
F0.00015592575073242188
sg657
F0.00035691261291503906
sg658
I2
sg659
I2
sasS'total_cqs'
p665
I76
ssI57
(dp666
S'iters'
p667
I7
sS'meta'
p668
(lp669
(dp670
S'objective'
p671
I256
sS'query_time'
p672
F24.437335968017578
sS'comp_time'
p673
F0.15831351280212402
sS'exec_cq'
p674
I45
sS'total_cq'
p675
I51
sa(dp676
g671
I11
sg672
F0.021535158157348633
sg673
F0.03173470497131348
sg674
I31
sg675
I31
sa(dp677
g671
I84
sg672
F0.0026159286499023438
sg673
F0.0038826465606689453
sg674
I13
sg675
I13
sa(dp678
g671
I21
sg672
F0.0015230178833007812
sg673
F0.0028548240661621094
sg674
I6
sg675
I6
sa(dp679
g671
I36
sg672
F0.0010118484497070312
sg673
F0.0010442733764648438
sg674
I4
sg675
I4
sa(dp680
g671
I1
sg672
F0.0005309581756591797
sg673
F0.0007677078247070312
sg674
I3
sg675
I3
sa(dp681
g671
I5
sg672
F0.00019407272338867188
sg673
F0.00031304359436035156
sg674
I2
sg675
I2
sasS'total_cqs'
p682
I51
ssI58
(dp683
S'iters'
p684
I9
sS'meta'
p685
(lp686
(dp687
S'objective'
p688
I80587
sS'query_time'
p689
F321.05735182762146
sS'comp_time'
p690
F26.977850914001465
sS'exec_cq'
p691
I486
sS'total_cq'
p692
I486
sa(dp693
g688
I86106
sg689
F5.582342147827148
sg690
F9.393120050430298
sg691
I414
sg692
I414
sa(dp694
g688
I17
sg689
F0.01675701141357422
sg690
F0.20393991470336914
sg691
I28
sg692
I28
sa(dp695
g688
I25
sg689
F0.008697032928466797
sg690
F0.29903531074523926
sg691
I14
sg692
I14
sa(dp696
g688
I31
sg689
F0.0037641525268554688
sg690
F0.019438743591308594
sg691
I8
sg692
I8
sa(dp697
g688
I93
sg689
F0.0027120113372802734
sg690
F0.003900766372680664
sg691
I5
sg692
I5
sa(dp698
g688
I49
sg689
F0.0015010833740234375
sg690
F0.0019598007202148438
sg691
I4
sg692
I4
sa(dp699
g688
I79
sg689
F0.0005581378936767578
sg690
F0.0006480216979980469
sg691
I3
sg692
I3
sa(dp700
g688
I36
sg689
F0.0002770423889160156
sg690
F0.00038909912109375
sg691
I2
sg692
I2
sasS'total_cqs'
p701
I486
ssI59
(dp702
S'iters'
p703
I2
sS'meta'
p704
(lp705
(dp706
S'objective'
p707
I18
sS'query_time'
p708
F0.04592084884643555
sS'comp_time'
p709
F0.006162166595458984
sS'exec_cq'
p710
I7
sS'total_cq'
p711
I7
sa(dp712
g707
I3
sg708
F0.00017714500427246094
sg709
F0.00039005279541015625
sg710
I2
sg711
I2
sasS'total_cqs'
p713
I7
ssI60
(dp714
S'iters'
p715
I4
sS'meta'
p716
(lp717
(dp718
S'objective'
p719
I7
sS'query_time'
p720
F0.1244821548461914
sS'comp_time'
p721
F0.0034112930297851562
sS'exec_cq'
p722
I5
sS'total_cq'
p723
I5
sa(dp724
g719
I5
sg720
F6.29425048828125e-05
sg721
F0.00015783309936523438
sg722
I3
sg723
I4
sa(dp725
g719
I4
sg720
F5.984306335449219e-05
sg721
F0.000156402587890625
sg722
I3
sg723
I3
sa(dp726
g719
I4
sg720
F1.0967254638671875e-05
sg721
F2.7179718017578125e-05
sg722
I1
sg723
I2
sasS'total_cqs'
p727
I5
ssI61
(dp728
S'iters'
p729
I0
sS'meta'
p730
(lp731
sS'total_cqs'
p732
I1
ssI62
(dp733
S'iters'
p734
I3
sS'meta'
p735
(lp736
(dp737
S'objective'
p738
I40
sS'query_time'
p739
F0.054963111877441406
sS'comp_time'
p740
F0.018227577209472656
sS'exec_cq'
p741
I12
sS'total_cq'
p742
I12
sa(dp743
g738
I41
sg739
F7.104873657226562e-05
sg740
F0.00018072128295898438
sg741
I9
sg742
I9
sa(dp744
g738
I48
sg739
F5.412101745605469e-05
sg740
F0.00010466575622558594
sg741
I8
sg742
I8
sasS'total_cqs'
p745
I12
ssI63
(dp746
S'iters'
p747
I0
sS'meta'
p748
(lp749
sS'total_cqs'
p750
I1
ssI64
(dp751
S'iters'
p752
I3
sS'meta'
p753
(lp754
(dp755
S'objective'
p756
I30
sS'query_time'
p757
F0.1325700283050537
sS'comp_time'
p758
F0.021696805953979492
sS'exec_cq'
p759
I12
sS'total_cq'
p760
I12
sa(dp761
g756
I0
sg757
F0.0001919269561767578
sg758
F0.0006961822509765625
sg759
I4
sg760
I4
sa(dp762
g756
I10
sg757
F0.00012612342834472656
sg758
F0.00028014183044433594
sg759
I2
sg760
I2
sasS'total_cqs'
p763
I12
ssI65
(dp764
S'iters'
p765
I4
sS'meta'
p766
(lp767
(dp768
S'objective'
p769
I196
sS'query_time'
p770
F0.8986470699310303
sS'comp_time'
p771
F0.06093192100524902
sS'exec_cq'
p772
I27
sS'total_cq'
p773
I27
sa(dp774
g769
I3
sg770
F0.1828169822692871
sg771
F0.0030450820922851562
sg772
I7
sg773
I7
sa(dp775
g769
I0
sg770
F0.0004470348358154297
sg771
F0.0008769035339355469
sg772
I4
sg773
I4
sa(dp776
g769
I20
sg770
F7.987022399902344e-05
sg771
F0.000209808349609375
sg772
I2
sg773
I2
sasS'total_cqs'
p777
I27
ssI66
(dp778
S'iters'
p779
I0
sS'meta'
p780
(lp781
sS'total_cqs'
p782
I1
ssI67
(dp783
S'iters'
p784
I2
sS'meta'
p785
(lp786
(dp787
S'objective'
p788
I562
sS'query_time'
p789
F1.1906280517578125
sS'comp_time'
p790
F0.14822983741760254
sS'exec_cq'
p791
I35
sS'total_cq'
p792
I35
sa(dp793
g788
I32
sg789
F0.002393007278442383
sg790
F0.003072977066040039
sg791
I2
sg792
I2
sasS'total_cqs'
p794
I35
ssI68
(dp795
S'iters'
p796
I0
sS'meta'
p797
(lp798
sS'total_cqs'
p799
I1
ssI69
(dp800
S'iters'
p801
I1
sS'meta'
p802
(lp803
(dp804
S'objective'
p805
I1324
sS'query_time'
p806
F0.18468284606933594
sS'comp_time'
p807
F0.17135381698608398
sS'exec_cq'
p808
I51
sS'total_cq'
p809
I51
sasS'total_cqs'
p810
I51
ssI70
(dp811
S'iters'
p812
I4
sS'meta'
p813
(lp814
(dp815
S'objective'
p816
I9
sS'query_time'
p817
F0.03271293640136719
sS'comp_time'
p818
F0.003679990768432617
sS'exec_cq'
p819
I6
sS'total_cq'
p820
I6
sa(dp821
g816
I5
sg817
F6.008148193359375e-05
sg818
F0.00017118453979492188
sg819
I5
sg820
I5
sa(dp822
g816
I4
sg817
F4.38690185546875e-05
sg818
F0.00012087821960449219
sg819
I4
sg820
I4
sa(dp823
g816
I5
sg817
F4.00543212890625e-05
sg818
F0.00011396408081054688
sg819
I3
sg820
I3
sasS'total_cqs'
p824
I6
ssI71
(dp825
S'iters'
p826
I8
sS'meta'
p827
(lp828
(dp829
S'objective'
p830
I3211
sS'query_time'
p831
F0.35889196395874023
sS'comp_time'
p832
F0.30454182624816895
sS'exec_cq'
p833
I85
sS'total_cq'
p834
I85
sa(dp835
g830
I3073
sg831
F0.00043487548828125
sg832
F0.001482248306274414
sg833
I81
sg834
I81
sa(dp836
g830
I2907
sg831
F0.0003249645233154297
sg832
F0.0011599063873291016
sg833
I78
sg834
I78
sa(dp837
g830
I2858
sg831
F0.00033283233642578125
sg832
F0.0011172294616699219
sg833
I74
sg834
I74
sa(dp838
g830
I2807
sg831
F0.0002810955047607422
sg832
F0.0007452964782714844
sg833
I71
sg834
I71
sa(dp839
g830
I2738
sg831
F0.0002779960632324219
sg832
F0.0004887580871582031
sg833
I69
sg834
I69
sa(dp840
g830
I29
sg831
F0.0021810531616210938
sg832
F0.0018720626831054688
sg833
I3
sg834
I3
sa(dp841
g830
I50
sg831
F0.003376007080078125
sg832
F0.00012803077697753906
sg833
I2
sg834
I2
sasS'total_cqs'
p842
I85
ssI72
(dp843
S'iters'
p844
I3
sS'meta'
p845
(lp846
(dp847
S'objective'
p848
I8
sS'query_time'
p849
F0.37746191024780273
sS'comp_time'
p850
F0.0048677921295166016
sS'exec_cq'
p851
I8
sS'total_cq'
p852
I8
sa(dp853
g848
I6
sg849
F0.0003790855407714844
sg850
F0.0010459423065185547
sg851
I4
sg852
I6
sa(dp854
g848
I6
sg849
F1.811981201171875e-05
sg850
F3.981590270996094e-05
sg851
I2
sg852
I3
sasS'total_cqs'
p855
I8
ssI73
(dp856
S'iters'
p857
I0
sS'meta'
p858
(lp859
sS'total_cqs'
p860
I1
ssI74
(dp861
S'iters'
p862
I0
sS'meta'
p863
(lp864
sS'total_cqs'
p865
I1
ssI75
(dp866
S'iters'
p867
I4
sS'meta'
p868
(lp869
(dp870
S'objective'
p871
I5
sS'query_time'
p872
F0.011970996856689453
sS'comp_time'
p873
F0.002045869827270508
sS'exec_cq'
p874
I5
sS'total_cq'
p875
I5
sa(dp876
g871
I2
sg872
F2.7894973754882812e-05
sg873
F0.00013327598571777344
sg874
I4
sg875
I4
sa(dp877
g871
I0
sg872
F1.9073486328125e-05
sg873
F9.417533874511719e-05
sg874
I3
sg875
I3
sa(dp878
g871
I1
sg872
F1.5020370483398438e-05
sg873
F7.462501525878906e-05
sg874
I2
sg875
I2
sasS'total_cqs'
p879
I5
ssI76
(dp880
S'iters'
p881
I1
sS'meta'
p882
(lp883
(dp884
S'objective'
p885
I1
sS'query_time'
p886
F0.014675140380859375
sS'comp_time'
p887
F0.0008168220520019531
sS'exec_cq'
p888
I2
sS'total_cq'
p889
I2
sasS'total_cqs'
p890
I2
ssI77
(dp891
S'iters'
p892
I0
sS'meta'
p893
(lp894
sS'total_cqs'
p895
I1
ssI78
(dp896
S'iters'
p897
I0
sS'meta'
p898
(lp899
sS'total_cqs'
p900
I1
ssI103
(dp901
S'iters'
p902
I2
sS'meta'
p903
(lp904
(dp905
S'objective'
p906
I66
sS'query_time'
p907
F0.06597709655761719
sS'comp_time'
p908
F0.01816105842590332
sS'exec_cq'
p909
I12
sS'total_cq'
p910
I12
sa(dp911
g906
I70
sg907
F5.507469177246094e-05
sg908
F9.036064147949219e-05
sg909
I11
sg910
I11
sasS'total_cqs'
p912
I12
ssI104
(dp913
S'iters'
p914
I2
sS'meta'
p915
(lp916
(dp917
S'objective'
p918
I2
sS'query_time'
p919
F1.3173468112945557
sS'comp_time'
p920
F0.1417238712310791
sS'exec_cq'
p921
I4
sS'total_cq'
p922
I4
sa(dp923
g918
I2
sg919
F0.01341104507446289
sg920
F0.023301124572753906
sg921
I2
sg922
I2
sasS'total_cqs'
p924
I4
ssI105
(dp925
S'iters'
p926
I0
sS'meta'
p927
(lp928
sS'total_cqs'
p929
I1
ssI106
(dp930
S'iters'
p931
I1
sS'meta'
p932
(lp933
(dp934
S'objective'
p935
I8
sS'query_time'
p936
F0.02189493179321289
sS'comp_time'
p937
F0.0019042491912841797
sS'exec_cq'
p938
I4
sS'total_cq'
p939
I4
sasS'total_cqs'
p940
I4
ssI107
(dp941
S'iters'
p942
I2
sS'meta'
p943
(lp944
(dp945
S'objective'
p946
I96
sS'query_time'
p947
F0.0778501033782959
sS'comp_time'
p948
F0.01887679100036621
sS'exec_cq'
p949
I16
sS'total_cq'
p950
I16
sa(dp951
g946
I18
sg947
F0.0048749446868896484
sg948
F0.0002942085266113281
sg949
I3
sg950
I3
sasS'total_cqs'
p952
I16
ssI108
(dp953
S'iters'
p954
I0
sS'meta'
p955
(lp956
sS'total_cqs'
p957
I1
ss.