(dp0
I1
(dp1
S'iters'
p2
I4
sS'meta'
p3
(lp4
(dp5
S'objective'
p6
I68
sS'query_time'
p7
F0.050453901290893555
sS'comp_time'
p8
F0.00021004676818847656
sS'exec_cq'
p9
I12
sS'total_cq'
p10
I12
sa(dp11
g6
I63
sg7
F5.316734313964844e-05
sg8
F7.009506225585938e-05
sg9
I10
sg10
I10
sa(dp12
g6
I60
sg7
F3.695487976074219e-05
sg8
F6.103515625e-05
sg9
I9
sg10
I9
sa(dp13
g6
I62
sg7
F3.1948089599609375e-05
sg8
F5.173683166503906e-05
sg9
I8
sg10
I8
sasS'total_cqs'
p14
I12
ssI2
(dp15
S'iters'
p16
I8
sS'meta'
p17
(lp18
(dp19
S'objective'
p20
I226
sS'query_time'
p21
F0.17673206329345703
sS'comp_time'
p22
F0.0019588470458984375
sS'exec_cq'
p23
I27
sS'total_cq'
p24
I27
sa(dp25
g20
I186
sg21
F0.00018906593322753906
sg22
F0.0006499290466308594
sg23
I23
sg24
I23
sa(dp26
g20
I154
sg21
F0.00012493133544921875
sg22
F0.0003619194030761719
sg23
I20
sg24
I20
sa(dp27
g20
I161
sg21
F0.00011277198791503906
sg22
F0.0003032684326171875
sg23
I18
sg24
I18
sa(dp28
g20
I144
sg21
F9.608268737792969e-05
sg22
F0.0002601146697998047
sg23
I16
sg24
I16
sa(dp29
g20
I140
sg21
F7.987022399902344e-05
sg22
F0.0001690387725830078
sg23
I15
sg24
I15
sa(dp30
g20
I145
sg21
F6.389617919921875e-05
sg22
F7.891654968261719e-05
sg23
I14
sg24
I14
sa(dp31
g20
I146
sg21
F5.4836273193359375e-05
sg22
F6.508827209472656e-05
sg23
I13
sg24
I13
sasS'total_cqs'
p32
I27
ssI3
(dp33
S'iters'
p34
I4
sS'meta'
p35
(lp36
(dp37
S'objective'
p38
I262
sS'query_time'
p39
F157.63748288154602
sS'comp_time'
p40
F1.7856669425964355
sS'exec_cq'
p41
I43
sS'total_cq'
p42
I43
sa(dp43
g38
I54
sg39
F0.3411979675292969
sg40
F1.3375768661499023
sg41
I27
sg42
I27
sa(dp44
g38
I25
sg39
F0.04273390769958496
sg40
F0.37379002571105957
sg41
I13
sg42
I13
sa(dp45
g38
I123
sg39
F6.29425048828125e-05
sg40
F0.003075838088989258
sg41
I7
sg42
I7
sasS'total_cqs'
p46
I43
ssI4
(dp47
S'iters'
p48
I2
sS'meta'
p49
(lp50
(dp51
S'objective'
p52
I46
sS'query_time'
p53
F3.999073028564453
sS'comp_time'
p54
F0.4585409164428711
sS'exec_cq'
p55
I11
sS'total_cq'
p56
I11
sa(dp57
g52
I8
sg53
F0.12463188171386719
sg54
F0.4021339416503906
sg55
I2
sg56
I2
sasS'total_cqs'
p58
I11
ssI5
(dp59
S'iters'
p60
I3
sS'meta'
p61
(lp62
(dp63
S'objective'
p64
I0
sS'query_time'
p65
F27.61317491531372
sS'comp_time'
p66
F2.948110818862915
sS'exec_cq'
p67
I8
sS'total_cq'
p68
I8
sa(dp69
g64
I2
sg65
F0.37560200691223145
sg66
F1.1453940868377686
sg67
I4
sg68
I4
sa(dp70
g64
I6
sg65
F0.004238128662109375
sg66
F0.0166013240814209
sg67
I2
sg68
I2
sasS'total_cqs'
p71
I8
ssI6
(dp72
S'iters'
p73
I4
sS'meta'
p74
(lp75
(dp76
S'objective'
p77
I35
sS'query_time'
p78
F29.76580500602722
sS'comp_time'
p79
F2.1397459506988525
sS'exec_cq'
p80
I18
sS'total_cq'
p81
I18
sa(dp82
g77
I0
sg78
F0.5341141223907471
sg79
F2.1205568313598633
sg80
I7
sg81
I7
sa(dp83
g77
I0
sg78
F0.11092519760131836
sg79
F0.9249660968780518
sg80
I4
sg81
I4
sa(dp84
g77
I15
sg78
F0.012610912322998047
sg79
F0.14103102684020996
sg80
I2
sg81
I2
sasS'total_cqs'
p85
I18
ssI7
(dp86
S'iters'
p87
I3
sS'meta'
p88
(lp89
(dp90
S'objective'
p91
I1
sS'query_time'
p92
F9.950798988342285
sS'comp_time'
p93
F1.0362310409545898
sS'exec_cq'
p94
I9
sS'total_cq'
p95
I9
sa(dp96
g91
I2
sg92
F0.004826068878173828
sg93
F0.015954256057739258
sg94
I4
sg95
I4
sa(dp97
g91
I8
sg92
F0.002112865447998047
sg93
F0.012202262878417969
sg94
I2
sg95
I2
sasS'total_cqs'
p98
I9
ssI8
(dp99
S'iters'
p100
I5
sS'meta'
p101
(lp102
(dp103
S'objective'
p104
I254
sS'query_time'
p105
F0.14548802375793457
sS'comp_time'
p106
F0.0014290809631347656
sS'exec_cq'
p107
I27
sS'total_cq'
p108
I27
sa(dp109
g104
I228
sg105
F0.00016999244689941406
sg106
F0.0004038810729980469
sg107
I22
sg108
I22
sa(dp110
g104
I222
sg105
F8.20159912109375e-05
sg106
F0.00011014938354492188
sg107
I19
sg108
I19
sa(dp111
g104
I215
sg105
F7.700920104980469e-05
sg106
F8.58306884765625e-05
sg107
I18
sg108
I18
sa(dp112
g104
I229
sg105
F5.698204040527344e-05
sg106
F5.316734313964844e-05
sg107
I17
sg108
I17
sasS'total_cqs'
p113
I27
ssI9
(dp114
S'iters'
p115
I3
sS'meta'
p116
(lp117
(dp118
S'objective'
p119
I2
sS'query_time'
p120
F0.05944395065307617
sS'comp_time'
p121
F0.00025200843811035156
sS'exec_cq'
p122
I7
sS'total_cq'
p123
I7
sa(dp124
g119
I1
sg120
F2.9802322387695312e-05
sg121
F5.507469177246094e-05
sg122
I4
sg123
I4
sa(dp125
g119
I6
sg120
F1.4066696166992188e-05
sg121
F4.315376281738281e-05
sg122
I2
sg123
I2
sasS'total_cqs'
p126
I7
ssI10
(dp127
S'iters'
p128
I8
sS'meta'
p129
(lp130
(dp131
S'objective'
p132
I422
sS'query_time'
p133
F0.427642822265625
sS'comp_time'
p134
F0.006706953048706055
sS'exec_cq'
p135
I51
sS'total_cq'
p136
I51
sa(dp137
g132
I422
sg133
F0.0004520416259765625
sg134
F0.0014269351959228516
sg135
I37
sg136
I37
sa(dp138
g132
I350
sg133
F0.0001919269561767578
sg134
F0.0005030632019042969
sg135
I25
sg136
I25
sa(dp139
g132
I401
sg133
F6.890296936035156e-05
sg134
F0.00013709068298339844
sg135
I21
sg136
I21
sa(dp140
g132
I352
sg133
F6.389617919921875e-05
sg134
F0.00011897087097167969
sg135
I20
sg136
I20
sa(dp141
g132
I323
sg133
F5.507469177246094e-05
sg134
F0.00010013580322265625
sg135
I18
sg136
I18
sa(dp142
g132
I11
sg133
F0.0012199878692626953
sg134
F8.106231689453125e-05
sg135
I3
sg136
I3
sa(dp143
g132
I23
sg133
F1.4066696166992188e-05
sg134
F4.410743713378906e-05
sg135
I2
sg136
I2
sasS'total_cqs'
p144
I51
ssI11
(dp145
S'iters'
p146
I7
sS'meta'
p147
(lp148
(dp149
S'objective'
p150
I970
sS'query_time'
p151
F0.648033857345581
sS'comp_time'
p152
F0.014291763305664062
sS'exec_cq'
p153
I63
sS'total_cq'
p154
I63
sa(dp155
g150
I975
sg151
F0.0012180805206298828
sg152
F0.0043010711669921875
sg153
I47
sg154
I47
sa(dp156
g150
I916
sg151
F0.0006630420684814453
sg152
F0.003175020217895508
sg153
I40
sg154
I40
sa(dp157
g150
I809
sg151
F0.0004761219024658203
sg152
F0.0022678375244140625
sg153
I35
sg154
I35
sa(dp158
g150
I7
sg151
F0.0014691352844238281
sg152
F0.00018525123596191406
sg153
I6
sg154
I6
sa(dp159
g150
I19
sg151
F3.504753112792969e-05
sg152
F7.891654968261719e-05
sg153
I4
sg154
I4
sa(dp160
g150
I20
sg151
F1.5020370483398438e-05
sg152
F5.173683166503906e-05
sg153
I2
sg154
I2
sasS'total_cqs'
p161
I63
ssI12
(dp162
S'iters'
p163
I6
sS'meta'
p164
(lp165
(dp166
S'objective'
p167
I375
sS'query_time'
p168
F0.410599946975708
sS'comp_time'
p169
F0.008311033248901367
sS'exec_cq'
p170
I50
sS'total_cq'
p171
I50
sa(dp172
g167
I415
sg168
F0.0005431175231933594
sg169
F0.0013129711151123047
sg170
I33
sg171
I33
sa(dp173
g167
I414
sg168
F0.00011587142944335938
sg169
F0.0003681182861328125
sg170
I26
sg171
I26
sa(dp174
g167
I9
sg168
F0.0013179779052734375
sg169
F0.00012803077697753906
sg170
I5
sg171
I5
sa(dp175
g167
I30
sg168
F2.8133392333984375e-05
sg169
F8.797645568847656e-05
sg170
I4
sg171
I4
sa(dp176
g167
I11
sg168
F1.5974044799804688e-05
sg169
F6.794929504394531e-05
sg170
I2
sg171
I2
sasS'total_cqs'
p177
I50
ssI13
(dp178
S'iters'
p179
I6
sS'meta'
p180
(lp181
(dp182
S'objective'
p183
I12
sS'query_time'
p184
F0.1909019947052002
sS'comp_time'
p185
F0.00040721893310546875
sS'exec_cq'
p186
I20
sS'total_cq'
p187
I20
sa(dp188
g183
I7
sg184
F0.0020248889923095703
sg185
F0.00033593177795410156
sg186
I11
sg187
I11
sa(dp189
g183
I4
sg184
F5.507469177246094e-05
sg185
F0.00012493133544921875
sg186
I6
sg187
I6
sa(dp190
g183
I2
sg184
F3.814697265625e-05
sg185
F0.00011491775512695312
sg186
I4
sg187
I4
sa(dp191
g183
I1
sg184
F2.9087066650390625e-05
sg185
F9.393692016601562e-05
sg186
I3
sg187
I3
sa(dp192
g183
I4
sg184
F1.7881393432617188e-05
sg185
F6.175041198730469e-05
sg186
I2
sg187
I2
sasS'total_cqs'
p193
I20
ssI14
(dp194
S'iters'
p195
I3
sS'meta'
p196
(lp197
(dp198
S'objective'
p199
I1
sS'query_time'
p200
F26.72619318962097
sS'comp_time'
p201
F1.1291728019714355
sS'exec_cq'
p202
I9
sS'total_cq'
p203
I9
sa(dp204
g199
I2
sg200
F0.2824711799621582
sg201
F0.7350142002105713
sg202
I5
sg203
I5
sa(dp205
g199
I8
sg200
F0.17483282089233398
sg201
F0.5250599384307861
sg202
I2
sg203
I2
sasS'total_cqs'
p206
I9
ssI15
(dp207
S'iters'
p208
I3
sS'meta'
p209
(lp210
(dp211
S'objective'
p212
I0
sS'query_time'
p213
F3.061124086380005
sS'comp_time'
p214
F0.1308000087738037
sS'exec_cq'
p215
I11
sS'total_cq'
p216
I11
sa(dp217
g212
I15
sg213
F0.0004630088806152344
sg214
F0.002410888671875
sg215
I6
sg216
I6
sa(dp218
g212
I7
sg213
F0.0002818107604980469
sg214
F0.0018820762634277344
sg215
I2
sg216
I2
sasS'total_cqs'
p219
I11
ssI16
(dp220
S'iters'
p221
I1
sS'meta'
p222
(lp223
(dp224
S'objective'
p225
I34
sS'query_time'
p226
F0.020596027374267578
sS'comp_time'
p227
F0.0001220703125
sS'exec_cq'
p228
I8
sS'total_cq'
p229
I8
sasS'total_cqs'
p230
I8
ssI17
(dp231
S'iters'
p232
I5
sS'meta'
p233
(lp234
(dp235
S'objective'
p236
I2
sS'query_time'
p237
F0.9042000770568848
sS'comp_time'
p238
F0.017335891723632812
sS'exec_cq'
p239
I11
sS'total_cq'
p240
I11
sa(dp241
g236
I2
sg237
F0.00498199462890625
sg238
F0.016846179962158203
sg239
I6
sg240
I6
sa(dp242
g236
I3
sg237
F0.0046460628509521484
sg238
F0.03141975402832031
sg239
I4
sg240
I4
sa(dp243
g236
I0
sg237
F0.003328084945678711
sg238
F0.013999700546264648
sg239
I3
sg240
I3
sa(dp244
g236
I1
sg237
F0.0018270015716552734
sg238
F0.010455131530761719
sg239
I2
sg240
I2
sasS'total_cqs'
p245
I11
ssI18
(dp246
S'iters'
p247
I4
sS'meta'
p248
(lp249
(dp250
S'objective'
p251
I24
sS'query_time'
p252
F0.2513749599456787
sS'comp_time'
p253
F0.004445075988769531
sS'exec_cq'
p254
I11
sS'total_cq'
p255
I11
sa(dp256
g251
I27
sg252
F0.00023794174194335938
sg253
F0.0011701583862304688
sg254
I8
sg255
I8
sa(dp257
g251
I22
sg252
F7.104873657226562e-05
sg253
F0.0002849102020263672
sg254
I7
sg255
I7
sa(dp258
g251
I27
sg252
F3.1948089599609375e-05
sg253
F8.702278137207031e-05
sg254
I6
sg255
I6
sasS'total_cqs'
p259
I11
ssI19
(dp260
S'iters'
p261
I0
sS'meta'
p262
(lp263
sS'total_cqs'
p264
I1
ssI20
(dp265
S'iters'
p266
I0
sS'meta'
p267
(lp268
sS'total_cqs'
p269
I1
ssI21
(dp270
S'iters'
p271
I0
sS'meta'
p272
(lp273
sS'total_cqs'
p274
I1
ssI22
(dp275
S'iters'
p276
I1
sS'meta'
p277
(lp278
(dp279
S'objective'
p280
I169
sS'query_time'
p281
F0.05779600143432617
sS'comp_time'
p282
F0.000186920166015625
sS'exec_cq'
p283
I18
sS'total_cq'
p284
I18
sasS'total_cqs'
p285
I18
ssI23
(dp286
S'iters'
p287
I3
sS'meta'
p288
(lp289
(dp290
S'objective'
p291
I96
sS'query_time'
p292
F0.06848907470703125
sS'comp_time'
p293
F0.0005590915679931641
sS'exec_cq'
p294
I16
sS'total_cq'
p295
I16
sa(dp296
g291
I110
sg292
F8.893013000488281e-05
sg293
F0.0002689361572265625
sg294
I14
sg295
I14
sa(dp297
g291
I111
sg292
F5.3882598876953125e-05
sg293
F6.198883056640625e-05
sg294
I13
sg295
I13
sasS'total_cqs'
p298
I16
ssI24
(dp299
S'iters'
p300
I0
sS'meta'
p301
(lp302
sS'total_cqs'
p303
I1
ssI25
(dp304
S'iters'
p305
I0
sS'meta'
p306
(lp307
sS'total_cqs'
p308
I1
ssI26
(dp309
S'iters'
p310
I1
sS'meta'
p311
(lp312
(dp313
S'objective'
p314
I901
sS'query_time'
p315
F0.2152848243713379
sS'comp_time'
p316
F0.00017189979553222656
sS'exec_cq'
p317
I42
sS'total_cq'
p318
I42
sasS'total_cqs'
p319
I42
ssI27
(dp320
S'iters'
p321
I4
sS'meta'
p322
(lp323
(dp324
S'objective'
p325
I307
sS'query_time'
p326
F17.56939196586609
sS'comp_time'
p327
F1.837913990020752
sS'exec_cq'
p328
I30
sS'total_cq'
p329
I30
sa(dp330
g325
I1
sg326
F0.35674190521240234
sg327
F1.9144697189331055
sg328
I5
sg329
I5
sa(dp331
g325
I12
sg326
F0.3420999050140381
sg327
F1.90397310256958
sg328
I3
sg329
I3
sa(dp332
g325
I12
sg326
F0.24685287475585938
sg327
F1.1685760021209717
sg328
I2
sg329
I2
sasS'total_cqs'
p333
I30
ssI28
(dp334
S'iters'
p335
I0
sS'meta'
p336
(lp337
sS'total_cqs'
p338
I1
ssI29
(dp339
S'iters'
p340
I6
sS'meta'
p341
(lp342
(dp343
S'objective'
p344
I507
sS'query_time'
p345
F133.72067093849182
sS'comp_time'
p346
F13.42565393447876
sS'exec_cq'
p347
I49
sS'total_cq'
p348
I49
sa(dp349
g344
I23
sg345
F0.021258115768432617
sg346
F0.04730415344238281
sg347
I17
sg348
I17
sa(dp350
g344
I18
sg345
F0.0013990402221679688
sg346
F0.0049822330474853516
sg347
I9
sg348
I9
sa(dp351
g344
I11
sg345
F0.0007181167602539062
sg346
F0.003796100616455078
sg347
I4
sg348
I4
sa(dp352
g344
I13
sg345
F0.0009338855743408203
sg346
F0.0032219886779785156
sg347
I3
sg348
I3
sa(dp353
g344
I13
sg345
F0.0005590915679931641
sg346
F0.0029392242431640625
sg347
I2
sg348
I2
sasS'total_cqs'
p354
I49
ssI30
(dp355
S'iters'
p356
I1
sS'meta'
p357
(lp358
(dp359
S'objective'
p360
I1
sS'query_time'
p361
F0.7259888648986816
sS'comp_time'
p362
F0.024247169494628906
sS'exec_cq'
p363
I2
sS'total_cq'
p364
I2
sasS'total_cqs'
p365
I2
ssI31
(dp366
S'iters'
p367
I0
sS'meta'
p368
(lp369
sS'total_cqs'
p370
I1
ssI32
(dp371
S'iters'
p372
I1
sS'meta'
p373
(lp374
(dp375
S'objective'
p376
I1
sS'query_time'
p377
F0.009016036987304688
sS'comp_time'
p378
F0.000263214111328125
sS'exec_cq'
p379
I2
sS'total_cq'
p380
I2
sasS'total_cqs'
p381
I2
ssI33
(dp382
S'iters'
p383
I6
sS'meta'
p384
(lp385
(dp386
S'objective'
p387
I3844
sS'query_time'
p388
F13.972352981567383
sS'comp_time'
p389
F0.12486791610717773
sS'exec_cq'
p390
I103
sS'total_cq'
p391
I103
sa(dp392
g387
I18
sg388
F0.007276058197021484
sg389
F0.04033184051513672
sg390
I16
sg391
I16
sa(dp393
g387
I1
sg388
F0.0030689239501953125
sg389
F0.012871980667114258
sg390
I9
sg391
I9
sa(dp394
g387
I3
sg388
F0.0016360282897949219
sg389
F0.007988929748535156
sg390
I6
sg391
I6
sa(dp395
g387
I13
sg388
F0.0003180503845214844
sg389
F0.0018510818481445312
sg390
I3
sg391
I3
sa(dp396
g387
I37
sg388
F6.985664367675781e-05
sg389
F0.0003829002380371094
sg390
I2
sg391
I2
sasS'total_cqs'
p397
I103
ssI34
(dp398
S'iters'
p399
I1
sS'meta'
p400
(lp401
(dp402
S'objective'
p403
I1
sS'query_time'
p404
F0.018098115921020508
sS'comp_time'
p405
F0.0006568431854248047
sS'exec_cq'
p406
I2
sS'total_cq'
p407
I2
sasS'total_cqs'
p408
I2
ssI35
(dp409
S'iters'
p410
I13
sS'meta'
p411
(lp412
(dp413
S'objective'
p414
I2379
sS'query_time'
p415
F51.07433795928955
sS'comp_time'
p416
F3.4488489627838135
sS'exec_cq'
p417
I70
sS'total_cq'
p418
I70
sa(dp419
g414
I2344
sg415
F0.834388017654419
sg416
F3.3609049320220947
sg417
I69
sg418
I69
sa(dp420
g414
I2306
sg415
F0.8183059692382812
sg416
F3.354965925216675
sg417
I68
sg418
I68
sa(dp421
g414
I2297
sg415
F0.8280317783355713
sg416
F3.1379451751708984
sg417
I67
sg418
I67
sa(dp422
g414
I2102
sg415
F0.000225067138671875
sg416
F0.04792308807373047
sg417
I66
sg418
I66
sa(dp423
g414
I2206
sg415
F0.00021219253540039062
sg416
F0.0498349666595459
sg417
I63
sg418
I63
sa(dp424
g414
I1869
sg415
F0.5616369247436523
sg416
F0.26288485527038574
sg417
I62
sg418
I62
sa(dp425
g414
I1903
sg415
F0.3025999069213867
sg416
F0.21698689460754395
sg417
I59
sg418
I59
sa(dp426
g414
I1839
sg415
F0.22057104110717773
sg416
F0.23856472969055176
sg417
I58
sg418
I58
sa(dp427
g414
I1775
sg415
F0.2295081615447998
sg416
F0.20200586318969727
sg417
I57
sg418
I57
sa(dp428
g414
I1714
sg415
F0.06498408317565918
sg416
F0.0668020248413086
sg417
I56
sg418
I56
sa(dp429
g414
I1651
sg415
F0.2162320613861084
sg416
F0.18575596809387207
sg417
I55
sg418
I55
sa(dp430
g414
I61
sg415
F0.19738006591796875
sg416
F0.011758089065551758
sg417
I2
sg418
I2
sasS'total_cqs'
p431
I70
ssI36
(dp432
S'iters'
p433
I5
sS'meta'
p434
(lp435
(dp436
S'objective'
p437
I395
sS'query_time'
p438
F0.8284938335418701
sS'comp_time'
p439
F0.025979995727539062
sS'exec_cq'
p440
I33
sS'total_cq'
p441
I33
sa(dp442
g437
I326
sg438
F0.0041081905364990234
sg439
F0.019281864166259766
sg440
I29
sg441
I29
sa(dp443
g437
I338
sg438
F0.0014030933380126953
sg439
F0.006762027740478516
sg440
I25
sg441
I25
sa(dp444
g437
I322
sg438
F0.0003829002380371094
sg439
F0.0022208690643310547
sg440
I24
sg441
I24
sa(dp445
g437
I344
sg438
F0.00012111663818359375
sg439
F0.00027108192443847656
sg440
I23
sg441
I23
sasS'total_cqs'
p446
I33
ssI37
(dp447
S'iters'
p448
I1
sS'meta'
p449
(lp450
(dp451
S'objective'
p452
I1
sS'query_time'
p453
F0.008400917053222656
sS'comp_time'
p454
F0.00027680397033691406
sS'exec_cq'
p455
I2
sS'total_cq'
p456
I2
sasS'total_cqs'
p457
I2
ssI38
(dp458
S'iters'
p459
I2
sS'meta'
p460
(lp461
(dp462
S'objective'
p463
I0
sS'query_time'
p464
F0.02861809730529785
sS'comp_time'
p465
F0.0004889965057373047
sS'exec_cq'
p466
I4
sS'total_cq'
p467
I4
sa(dp468
g463
I3
sg464
F8.988380432128906e-05
sg465
F0.0003299713134765625
sg466
I2
sg467
I2
sasS'total_cqs'
p469
I4
ssI39
(dp470
S'iters'
p471
I2
sS'meta'
p472
(lp473
(dp474
S'objective'
p475
I654
sS'query_time'
p476
F0.21133708953857422
sS'comp_time'
p477
F0.0016188621520996094
sS'exec_cq'
p478
I44
sS'total_cq'
p479
I44
sa(dp480
g475
I820
sg476
F0.0002989768981933594
sg477
F0.0012590885162353516
sg478
I37
sg479
I37
sasS'total_cqs'
p481
I44
ssI40
(dp482
S'iters'
p483
I1
sS'meta'
p484
(lp485
(dp486
S'objective'
p487
I26
sS'query_time'
p488
F0.06262993812561035
sS'comp_time'
p489
F0.00010609626770019531
sS'exec_cq'
p490
I7
sS'total_cq'
p491
I7
sasS'total_cqs'
p492
I7
ssI41
(dp493
S'iters'
p494
I2
sS'meta'
p495
(lp496
(dp497
S'objective'
p498
I70
sS'query_time'
p499
F0.11520099639892578
sS'comp_time'
p500
F0.00014901161193847656
sS'exec_cq'
p501
I12
sS'total_cq'
p502
I12
sa(dp503
g498
I72
sg499
F4.482269287109375e-05
sg500
F5.1975250244140625e-05
sg501
I11
sg502
I11
sasS'total_cqs'
p504
I12
ssI42
(dp505
S'iters'
p506
I4
sS'meta'
p507
(lp508
(dp509
S'objective'
p510
I843
sS'query_time'
p511
F0.1641700267791748
sS'comp_time'
p512
F0.00018215179443359375
sS'exec_cq'
p513
I41
sS'total_cq'
p514
I41
sa(dp515
g510
I840
sg511
F0.00014591217041015625
sg512
F0.00010395050048828125
sg513
I40
sg514
I40
sa(dp516
g510
I842
sg511
F0.00011491775512695312
sg512
F8.296966552734375e-05
sg513
I39
sg514
I39
sa(dp517
g510
I842
sg511
F0.00011205673217773438
sg512
F6.890296936035156e-05
sg513
I38
sg514
I38
sasS'total_cqs'
p518
I41
ssI43
(dp519
S'iters'
p520
I1
sS'meta'
p521
(lp522
(dp523
S'objective'
p524
I26
sS'query_time'
p525
F0.03212404251098633
sS'comp_time'
p526
F0.00010395050048828125
sS'exec_cq'
p527
I7
sS'total_cq'
p528
I7
sasS'total_cqs'
p529
I7
ssI44
(dp530
S'iters'
p531
I4
sS'meta'
p532
(lp533
(dp534
S'objective'
p535
I706
sS'query_time'
p536
F0.1881270408630371
sS'comp_time'
p537
F0.0010881423950195312
sS'exec_cq'
p538
I47
sS'total_cq'
p539
I47
sa(dp540
g535
I825
sg536
F0.00029206275939941406
sg537
F0.005035877227783203
sg538
I40
sg539
I40
sa(dp541
g535
I10
sg536
F0.00150299072265625
sg537
F0.0006248950958251953
sg538
I3
sg539
I3
sa(dp542
g535
I16
sg536
F0.0001068115234375
sg537
F0.0005562305450439453
sg538
I2
sg539
I2
sasS'total_cqs'
p543
I47
ssI45
(dp544
S'iters'
p545
I0
sS'meta'
p546
(lp547
sS'total_cqs'
p548
I1
ssI46
(dp549
S'iters'
p550
I3
sS'meta'
p551
(lp552
(dp553
S'objective'
p554
I11
sS'query_time'
p555
F0.02970600128173828
sS'comp_time'
p556
F0.0003337860107421875
sS'exec_cq'
p557
I6
sS'total_cq'
p558
I6
sa(dp559
g554
I10
sg555
F6.008148193359375e-05
sg556
F0.00027298927307128906
sg557
I5
sg558
I5
sa(dp560
g554
I11
sg555
F2.4080276489257812e-05
sg556
F5.412101745605469e-05
sg557
I4
sg558
I4
sasS'total_cqs'
p561
I6
ssI47
(dp562
S'iters'
p563
I1
sS'meta'
p564
(lp565
(dp566
S'objective'
p567
I1
sS'query_time'
p568
F0.010772943496704102
sS'comp_time'
p569
F0.00022077560424804688
sS'exec_cq'
p570
I2
sS'total_cq'
p571
I2
sasS'total_cqs'
p572
I2
ssI48
(dp573
S'iters'
p574
I0
sS'meta'
p575
(lp576
sS'total_cqs'
p577
I1
ssI49
(dp578
S'iters'
p579
I0
sS'meta'
p580
(lp581
sS'total_cqs'
p582
I1
ssI50
(dp583
S'iters'
p584
I4
sS'meta'
p585
(lp586
(dp587
S'objective'
p588
I5
sS'query_time'
p589
F0.027550935745239258
sS'comp_time'
p590
F0.00015997886657714844
sS'exec_cq'
p591
I5
sS'total_cq'
p592
I5
sa(dp593
g588
I2
sg589
F3.910064697265625e-05
sg590
F0.00010824203491210938
sg591
I4
sg592
I4
sa(dp594
g588
I0
sg589
F3.0040740966796875e-05
sg590
F8.988380432128906e-05
sg591
I3
sg592
I3
sa(dp595
g588
I1
sg589
F2.5033950805664062e-05
sg590
F9.012222290039062e-05
sg591
I2
sg592
I2
sasS'total_cqs'
p596
I5
ssI51
(dp597
S'iters'
p598
I1
sS'meta'
p599
(lp600
(dp601
S'objective'
p602
I1
sS'query_time'
p603
F0.008691072463989258
sS'comp_time'
p604
F0.0001571178436279297
sS'exec_cq'
p605
I2
sS'total_cq'
p606
I2
sasS'total_cqs'
p607
I2
ssI52
(dp608
S'iters'
p609
I1
sS'meta'
p610
(lp611
(dp612
S'objective'
p613
I1
sS'query_time'
p614
F0.00963592529296875
sS'comp_time'
p615
F0.00019788742065429688
sS'exec_cq'
p616
I2
sS'total_cq'
p617
I2
sasS'total_cqs'
p618
I2
ssI53
(dp619
S'iters'
p620
I2
sS'meta'
p621
(lp622
(dp623
S'objective'
p624
I0
sS'query_time'
p625
F0.02478504180908203
sS'comp_time'
p626
F0.0007262229919433594
sS'exec_cq'
p627
I4
sS'total_cq'
p628
I4
sa(dp629
g624
I3
sg625
F0.00011515617370605469
sg626
F0.0005750656127929688
sg627
I2
sg628
I2
sasS'total_cqs'
p630
I4
ssI54
(dp631
S'iters'
p632
I2
sS'meta'
p633
(lp634
(dp635
S'objective'
p636
I0
sS'query_time'
p637
F0.020838022232055664
sS'comp_time'
p638
F0.0002491474151611328
sS'exec_cq'
p639
I3
sS'total_cq'
p640
I3
sa(dp641
g636
I1
sg637
F4.506111145019531e-05
sg638
F0.00020313262939453125
sg639
I2
sg640
I2
sasS'total_cqs'
p642
I3
ssI55
(dp643
S'iters'
p644
I9
sS'meta'
p645
(lp646
(dp647
S'objective'
p648
I4711
sS'query_time'
p649
F2.4642128944396973
sS'comp_time'
p650
F0.03862786293029785
sS'exec_cq'
p651
I109
sS'total_cq'
p652
I109
sa(dp653
g648
I4621
sg649
F0.0008640289306640625
sg650
F0.0019609928131103516
sg651
I97
sg652
I97
sa(dp654
g648
I4539
sg649
F0.0003612041473388672
sg650
F0.0009436607360839844
sg651
I91
sg652
I91
sa(dp655
g648
I4429
sg649
F0.0003440380096435547
sg650
F0.004559040069580078
sg651
I87
sg652
I87
sa(dp656
g648
I4404
sg649
F0.00049591064453125
sg650
F0.0010230541229248047
sg651
I85
sg652
I85
sa(dp657
g648
I4364
sg649
F0.00032901763916015625
sg650
F0.0007050037384033203
sg651
I83
sg652
I83
sa(dp658
g648
I4320
sg649
F0.0003039836883544922
sg650
F0.0006759166717529297
sg651
I82
sg652
I82
sa(dp659
g648
I4334
sg649
F0.0002999305725097656
sg650
F0.0006182193756103516
sg651
I81
sg652
I81
sa(dp660
g648
I4353
sg649
F0.00023293495178222656
sg650
F0.000370025634765625
sg651
I79
sg652
I79
sasS'total_cqs'
p661
I109
ssI56
(dp662
S'iters'
p663
I6
sS'meta'
p664
(lp665
(dp666
S'objective'
p667
I1600
sS'query_time'
p668
F3.2587320804595947
sS'comp_time'
p669
F0.11770915985107422
sS'exec_cq'
p670
I76
sS'total_cq'
p671
I76
sa(dp672
g667
I11
sg668
F0.005419015884399414
sg669
F0.010097742080688477
sg670
I16
sg671
I16
sa(dp673
g667
I33
sg668
F0.002283811569213867
sg669
F0.005191802978515625
sg670
I9
sg671
I9
sa(dp674
g667
I0
sg668
F0.0009889602661132812
sg669
F0.004023075103759766
sg670
I5
sg671
I5
sa(dp675
g667
I26
sg668
F0.0006320476531982422
sg669
F0.0033071041107177734
sg670
I3
sg671
I3
sa(dp676
g667
I23
sg668
F0.00011801719665527344
sg669
F0.0006589889526367188
sg670
I2
sg671
I2
sasS'total_cqs'
p677
I76
ssI57
(dp678
S'iters'
p679
I6
sS'meta'
p680
(lp681
(dp682
S'objective'
p683
I36
sS'query_time'
p684
F67.46156406402588
sS'comp_time'
p685
F3.809213161468506
sS'exec_cq'
p686
I51
sS'total_cq'
p687
I51
sa(dp688
g683
I9
sg684
F0.014539957046508789
sg685
F0.02735114097595215
sg686
I27
sg687
I27
sa(dp689
g683
I61
sg684
F0.002017974853515625
sg685
F0.0055980682373046875
sg686
I13
sg687
I13
sa(dp690
g683
I12
sg684
F0.0014290809631347656
sg685
F0.004003763198852539
sg686
I6
sg687
I6
sa(dp691
g683
I25
sg684
F0.0006880760192871094
sg685
F0.0030090808868408203
sg686
I3
sg687
I3
sa(dp692
g683
I18
sg684
F0.00017404556274414062
sg685
F0.000965118408203125
sg686
I2
sg687
I2
sasS'total_cqs'
p693
I51
ssI58
(dp694
S'iters'
p695
I9
sS'meta'
p696
(lp697
(dp698
S'objective'
p699
I86919
sS'query_time'
p700
F294.2402300834656
sS'comp_time'
p701
F17.04162907600403
sS'exec_cq'
p702
I486
sS'total_cq'
p703
I486
sa(dp704
g699
I9333
sg700
F0.035698890686035156
sg701
F0.19722986221313477
sg702
I64
sg703
I64
sa(dp705
g699
I2220
sg700
F0.026395082473754883
sg701
F0.3593719005584717
sg702
I52
sg703
I52
sa(dp706
g699
I2729
sg700
F0.01693892478942871
sg701
F0.8418862819671631
sg702
I32
sg703
I32
sa(dp707
g699
I1042
sg700
F0.008809804916381836
sg701
F0.05022025108337402
sg702
I21
sg703
I21
sa(dp708
g699
I10
sg700
F0.0036270618438720703
sg701
F0.03422403335571289
sg702
I9
sg703
I9
sa(dp709
g699
I85
sg700
F0.001149892807006836
sg701
F0.012186050415039062
sg702
I5
sg703
I5
sa(dp710
g699
I447
sg700
F0.0004489421844482422
sg701
F0.001367807388305664
sg702
I3
sg703
I3
sa(dp711
g699
I5
sg700
F0.00043892860412597656
sg701
F0.0017199516296386719
sg702
I2
sg703
I2
sasS'total_cqs'
p712
I486
ssI59
(dp713
S'iters'
p714
I2
sS'meta'
p715
(lp716
(dp717
S'objective'
p718
I18
sS'query_time'
p719
F0.06140494346618652
sS'comp_time'
p720
F0.0010759830474853516
sS'exec_cq'
p721
I7
sS'total_cq'
p722
I7
sa(dp723
g718
I3
sg719
F0.00015783309936523438
sg720
F0.0009648799896240234
sg721
I2
sg722
I2
sasS'total_cqs'
p724
I7
ssI60
(dp725
S'iters'
p726
I4
sS'meta'
p727
(lp728
(dp729
S'objective'
p730
I7
sS'query_time'
p731
F0.020956993103027344
sS'comp_time'
p732
F0.00036978721618652344
sS'exec_cq'
p733
I5
sS'total_cq'
p734
I5
sa(dp735
g730
I5
sg731
F5.698204040527344e-05
sg732
F0.0002608299255371094
sg733
I4
sg734
I4
sa(dp736
g730
I4
sg731
F5.1975250244140625e-05
sg732
F0.00024700164794921875
sg733
I3
sg734
I3
sa(dp737
g730
I4
sg731
F1.5020370483398438e-05
sg732
F4.601478576660156e-05
sg733
I2
sg734
I2
sasS'total_cqs'
p738
I5
ssI61
(dp739
S'iters'
p740
I0
sS'meta'
p741
(lp742
sS'total_cqs'
p743
I1
ssI62
(dp744
S'iters'
p745
I3
sS'meta'
p746
(lp747
(dp748
S'objective'
p749
I22
sS'query_time'
p750
F0.04798293113708496
sS'comp_time'
p751
F0.00021910667419433594
sS'exec_cq'
p752
I12
sS'total_cq'
p753
I12
sa(dp754
g749
I30
sg750
F5.1021575927734375e-05
sg751
F8.225440979003906e-05
sg752
I9
sg753
I9
sa(dp755
g749
I38
sg750
F3.409385681152344e-05
sg751
F6.794929504394531e-05
sg752
I8
sg753
I8
sasS'total_cqs'
p756
I12
ssI63
(dp757
S'iters'
p758
I0
sS'meta'
p759
(lp760
sS'total_cqs'
p761
I1
ssI64
(dp762
S'iters'
p763
I3
sS'meta'
p764
(lp765
(dp766
S'objective'
p767
I40
sS'query_time'
p768
F0.13879799842834473
sS'comp_time'
p769
F0.0038590431213378906
sS'exec_cq'
p770
I12
sS'total_cq'
p771
I12
sa(dp772
g767
I3
sg768
F0.00023293495178222656
sg769
F0.0010879039764404297
sg770
I4
sg771
I4
sa(dp773
g767
I6
sg768
F6.29425048828125e-05
sg769
F0.0003490447998046875
sg770
I2
sg771
I2
sasS'total_cqs'
p774
I12
ssI65
(dp775
S'iters'
p776
I5
sS'meta'
p777
(lp778
(dp779
S'objective'
p780
I224
sS'query_time'
p781
F0.7958319187164307
sS'comp_time'
p782
F0.03753304481506348
sS'exec_cq'
p783
I27
sS'total_cq'
p784
I27
sa(dp785
g780
I9
sg781
F0.001291036605834961
sg782
F0.00436091423034668
sg783
I7
sg784
I7
sa(dp786
g780
I3
sg781
F0.0007238388061523438
sg782
F0.003519773483276367
sg783
I5
sg784
I5
sa(dp787
g780
I14
sg781
F0.000308990478515625
sg782
F0.0020558834075927734
sg783
I3
sg784
I3
sa(dp788
g780
I1
sg781
F8.296966552734375e-05
sg782
F0.0004699230194091797
sg783
I2
sg784
I2
sasS'total_cqs'
p789
I27
ssI66
(dp790
S'iters'
p791
I0
sS'meta'
p792
(lp793
sS'total_cqs'
p794
I1
ssI67
(dp795
S'iters'
p796
I2
sS'meta'
p797
(lp798
(dp799
S'objective'
p800
I588
sS'query_time'
p801
F1.4176740646362305
sS'comp_time'
p802
F0.006214141845703125
sS'exec_cq'
p803
I35
sS'total_cq'
p804
I35
sa(dp805
g800
I19
sg801
F0.0010578632354736328
sg802
F0.005215167999267578
sg803
I2
sg804
I2
sasS'total_cqs'
p806
I35
ssI68
(dp807
S'iters'
p808
I0
sS'meta'
p809
(lp810
sS'total_cqs'
p811
I1
ssI69
(dp812
S'iters'
p813
I1
sS'meta'
p814
(lp815
(dp816
S'objective'
p817
I1324
sS'query_time'
p818
F0.23824191093444824
sS'comp_time'
p819
F0.0002510547637939453
sS'exec_cq'
p820
I51
sS'total_cq'
p821
I51
sasS'total_cqs'
p822
I51
ssI70
(dp823
S'iters'
p824
I4
sS'meta'
p825
(lp826
(dp827
S'objective'
p828
I13
sS'query_time'
p829
F0.02204298973083496
sS'comp_time'
p830
F0.00024580955505371094
sS'exec_cq'
p831
I6
sS'total_cq'
p832
I6
sa(dp833
g828
I11
sg829
F5.507469177246094e-05
sg830
F0.0001590251922607422
sg831
I5
sg832
I5
sa(dp834
g828
I10
sg829
F3.814697265625e-05
sg830
F0.00014591217041015625
sg831
I4
sg832
I4
sa(dp835
g828
I10
sg829
F3.409385681152344e-05
sg830
F0.0001399517059326172
sg831
I3
sg832
I3
sasS'total_cqs'
p836
I6
ssI71
(dp837
S'iters'
p838
I9
sS'meta'
p839
(lp840
(dp841
S'objective'
p842
I3183
sS'query_time'
p843
F0.3847620487213135
sS'comp_time'
p844
F0.0008151531219482422
sS'exec_cq'
p845
I85
sS'total_cq'
p846
I85
sa(dp847
g842
I3057
sg843
F0.0003349781036376953
sg844
F0.0006351470947265625
sg845
I81
sg846
I81
sa(dp848
g842
I2974
sg843
F0.00026297569274902344
sg844
F0.0005228519439697266
sg845
I77
sg846
I77
sa(dp849
g842
I2912
sg843
F0.00024509429931640625
sg844
F0.00043702125549316406
sg845
I74
sg846
I74
sa(dp850
g842
I2841
sg843
F0.0002338886260986328
sg844
F0.00033593177795410156
sg845
I71
sg846
I71
sa(dp851
g842
I2785
sg843
F0.00021910667419433594
sg844
F0.00026297569274902344
sg845
I69
sg846
I69
sa(dp852
g842
I2769
sg843
F0.00021409988403320312
sg844
F0.0002429485321044922
sg845
I68
sg846
I68
sa(dp853
g842
I21
sg843
F0.0019049644470214844
sg844
F0.0004341602325439453
sg845
I3
sg846
I3
sa(dp854
g842
I9
sg843
F0.003612995147705078
sg844
F0.00015616416931152344
sg845
I2
sg846
I2
sasS'total_cqs'
p855
I85
ssI72
(dp856
S'iters'
p857
I3
sS'meta'
p858
(lp859
(dp860
S'objective'
p861
I6
sS'query_time'
p862
F0.39861607551574707
sS'comp_time'
p863
F0.006371736526489258
sS'exec_cq'
p864
I8
sS'total_cq'
p865
I8
sa(dp866
g861
I5
sg862
F9.489059448242188e-05
sg863
F0.0002827644348144531
sg864
I5
sg865
I5
sa(dp867
g861
I6
sg862
F3.409385681152344e-05
sg863
F0.00013184547424316406
sg864
I3
sg865
I3
sasS'total_cqs'
p868
I8
ssI73
(dp869
S'iters'
p870
I0
sS'meta'
p871
(lp872
sS'total_cqs'
p873
I1
ssI74
(dp874
S'iters'
p875
I0
sS'meta'
p876
(lp877
sS'total_cqs'
p878
I1
ssI75
(dp879
S'iters'
p880
I4
sS'meta'
p881
(lp882
(dp883
S'objective'
p884
I5
sS'query_time'
p885
F0.0141448974609375
sS'comp_time'
p886
F0.00011610984802246094
sS'exec_cq'
p887
I5
sS'total_cq'
p888
I5
sa(dp889
g884
I2
sg885
F2.7894973754882812e-05
sg886
F7.605552673339844e-05
sg887
I4
sg888
I4
sa(dp890
g884
I0
sg885
F1.9073486328125e-05
sg886
F5.888938903808594e-05
sg887
I3
sg888
I3
sa(dp891
g884
I1
sg885
F1.5974044799804688e-05
sg886
F5.173683166503906e-05
sg887
I2
sg888
I2
sasS'total_cqs'
p892
I5
ssI76
(dp893
S'iters'
p894
I1
sS'meta'
p895
(lp896
(dp897
S'objective'
p898
I1
sS'query_time'
p899
F0.012520074844360352
sS'comp_time'
p900
F0.0003230571746826172
sS'exec_cq'
p901
I2
sS'total_cq'
p902
I2
sasS'total_cqs'
p903
I2
ssI77
(dp904
S'iters'
p905
I0
sS'meta'
p906
(lp907
sS'total_cqs'
p908
I1
ssI78
(dp909
S'iters'
p910
I0
sS'meta'
p911
(lp912
sS'total_cqs'
p913
I1
ssI103
(dp914
S'iters'
p915
I2
sS'meta'
p916
(lp917
(dp918
S'objective'
p919
I68
sS'query_time'
p920
F0.08931612968444824
sS'comp_time'
p921
F0.00018405914306640625
sS'exec_cq'
p922
I12
sS'total_cq'
p923
I12
sa(dp924
g919
I71
sg920
F7.009506225585938e-05
sg921
F0.000125885009765625
sg922
I11
sg923
I11
sasS'total_cqs'
p925
I12
ssI104
(dp926
S'iters'
p927
I2
sS'meta'
p928
(lp929
(dp930
S'objective'
p931
I0
sS'query_time'
p932
F1.6263799667358398
sS'comp_time'
p933
F0.12677884101867676
sS'exec_cq'
p934
I4
sS'total_cq'
p935
I4
sa(dp936
g931
I3
sg932
F0.017852067947387695
sg933
F0.15575098991394043
sg934
I2
sg935
I2
sasS'total_cqs'
p937
I4
ssI105
(dp938
S'iters'
p939
I0
sS'meta'
p940
(lp941
sS'total_cqs'
p942
I1
ssI106
(dp943
S'iters'
p944
I1
sS'meta'
p945
(lp946
(dp947
S'objective'
p948
I8
sS'query_time'
p949
F0.023180007934570312
sS'comp_time'
p950
F9.393692016601562e-05
sS'exec_cq'
p951
I4
sS'total_cq'
p952
I4
sasS'total_cqs'
p953
I4
ssI107
(dp954
S'iters'
p955
I3
sS'meta'
p956
(lp957
(dp958
S'objective'
p959
I108
sS'query_time'
p960
F0.10066914558410645
sS'comp_time'
p961
F0.00020384788513183594
sS'exec_cq'
p962
I16
sS'total_cq'
p963
I16
sa(dp964
g959
I104
sg960
F8.20159912109375e-05
sg961
F0.0001327991485595703
sg962
I15
sg963
I15
sa(dp965
g959
I7
sg960
F0.007308006286621094
sg961
F0.0001239776611328125
sg962
I3
sg963
I3
sasS'total_cqs'
p966
I16
ssI108
(dp967
S'iters'
p968
I0
sS'meta'
p969
(lp970
sS'total_cqs'
p971
I1
ss.