(dp0
I1
(dp1
S'iters'
p2
I2
sS'meta'
p3
(lp4
(dp5
S'objective'
p6
I44
sS'query_time'
p7
F0.15298795700073242
sS'comp_time'
p8
F0.00022101402282714844
sS'exec_cq'
p9
I12
sS'total_cq'
p10
I12
sa(dp11
g6
I37
sg7
F4.1961669921875e-05
sg8
F5.507469177246094e-05
sg9
I10
sg10
I10
sasS'total_cqs'
p12
I12
ssI2
(dp13
S'iters'
p14
I4
sS'meta'
p15
(lp16
(dp17
S'objective'
p18
I260
sS'query_time'
p19
F0.7226860523223877
sS'comp_time'
p20
F0.0013837814331054688
sS'exec_cq'
p21
I27
sS'total_cq'
p22
I27
sa(dp23
g18
I217
sg19
F0.00021600723266601562
sg20
F0.0006470680236816406
sg21
I24
sg22
I24
sa(dp24
g18
I210
sg19
F0.00012993812561035156
sg20
F0.00041174888610839844
sg21
I21
sg22
I21
sa(dp25
g18
I185
sg19
F0.00012183189392089844
sg20
F0.0003819465637207031
sg21
I19
sg22
I19
sasS'total_cqs'
p26
I27
ssI3
(dp27
S'iters'
p28
I4
sS'meta'
p29
(lp30
(dp31
S'objective'
p32
I350
sS'query_time'
p33
F176.34117889404297
sS'comp_time'
p34
F1.5423367023468018
sS'exec_cq'
p35
I43
sS'total_cq'
p36
I43
sa(dp37
g32
I26
sg33
F0.3365669250488281
sg34
F1.3463592529296875
sg35
I27
sg36
I27
sa(dp38
g32
I35
sg33
F0.0632619857788086
sg34
F0.4974699020385742
sg35
I13
sg36
I13
sa(dp39
g32
I52
sg33
F6.198883056640625e-05
sg34
F0.0044782161712646484
sg35
I7
sg36
I7
sasS'total_cqs'
p40
I43
ssI4
(dp41
S'iters'
p42
I2
sS'meta'
p43
(lp44
(dp45
S'objective'
p46
I26
sS'query_time'
p47
F6.103533983230591
sS'comp_time'
p48
F0.3695816993713379
sS'exec_cq'
p49
I11
sS'total_cq'
p50
I11
sa(dp51
g46
I2
sg47
F0.10144710540771484
sg48
F0.371157169342041
sg49
I2
sg50
I2
sasS'total_cqs'
p52
I11
ssI5
(dp53
S'iters'
p54
I3
sS'meta'
p55
(lp56
(dp57
S'objective'
p58
I0
sS'query_time'
p59
F45.739269971847534
sS'comp_time'
p60
F2.2659361362457275
sS'exec_cq'
p61
I8
sS'total_cq'
p62
I8
sa(dp63
g58
I0
sg59
F0.009463071823120117
sg60
F0.042485952377319336
sg61
I4
sg62
I4
sa(dp64
g58
I7
sg59
F0.003390073776245117
sg60
F0.015413045883178711
sg61
I2
sg62
I2
sasS'total_cqs'
p65
I8
ssI6
(dp66
S'iters'
p67
I3
sS'meta'
p68
(lp69
(dp70
S'objective'
p71
I73
sS'query_time'
p72
F21.90191888809204
sS'comp_time'
p73
F0.05056500434875488
sS'exec_cq'
p74
I18
sS'total_cq'
p75
I18
sa(dp76
g71
I21
sg72
F0.005381107330322266
sg73
F0.055773019790649414
sg74
I3
sg75
I3
sa(dp77
g71
I1
sg72
F0.005568027496337891
sg73
F0.032430171966552734
sg74
I2
sg75
I2
sasS'total_cqs'
p78
I18
ssI7
(dp79
S'iters'
p80
I3
sS'meta'
p81
(lp82
(dp83
S'objective'
p84
I1
sS'query_time'
p85
F26.492874145507812
sS'comp_time'
p86
F0.8956198692321777
sS'exec_cq'
p87
I9
sS'total_cq'
p88
I9
sa(dp89
g84
I0
sg85
F0.008628129959106445
sg86
F0.03861689567565918
sg87
I5
sg88
I5
sa(dp90
g84
I7
sg85
F0.002454996109008789
sg86
F0.07569694519042969
sg87
I2
sg88
I2
sasS'total_cqs'
p91
I9
ssI8
(dp92
S'iters'
p93
I3
sS'meta'
p94
(lp95
(dp96
S'objective'
p97
I192
sS'query_time'
p98
F0.9498460292816162
sS'comp_time'
p99
F0.00152587890625
sS'exec_cq'
p100
I27
sS'total_cq'
p101
I27
sa(dp102
g97
I201
sg98
F0.00019097328186035156
sg99
F0.0004277229309082031
sg100
I22
sg101
I22
sa(dp103
g97
I12
sg98
F0.05356001853942871
sg99
F0.00037097930908203125
sg100
I2
sg101
I2
sasS'total_cqs'
p104
I27
ssI9
(dp105
S'iters'
p106
I3
sS'meta'
p107
(lp108
(dp109
S'objective'
p110
I2
sS'query_time'
p111
F0.566241979598999
sS'comp_time'
p112
F0.00038623809814453125
sS'exec_cq'
p113
I7
sS'total_cq'
p114
I7
sa(dp115
g110
I3
sg111
F4.100799560546875e-05
sg112
F6.604194641113281e-05
sg113
I4
sg114
I4
sa(dp116
g110
I6
sg111
F2.288818359375e-05
sg112
F5.6743621826171875e-05
sg113
I2
sg114
I2
sasS'total_cqs'
p117
I7
ssI10
(dp118
S'iters'
p119
I5
sS'meta'
p120
(lp121
(dp122
S'objective'
p123
I632
sS'query_time'
p124
F1.9975659847259521
sS'comp_time'
p125
F0.006893157958984375
sS'exec_cq'
p126
I51
sS'total_cq'
p127
I51
sa(dp128
g123
I305
sg124
F0.00044083595275878906
sg125
F0.0014300346374511719
sg126
I37
sg127
I37
sa(dp129
g123
I3
sg124
F0.0142059326171875
sg125
F0.0008389949798583984
sg126
I12
sg127
I12
sa(dp130
g123
I37
sg124
F7.891654968261719e-05
sg125
F0.0002269744873046875
sg126
I6
sg127
I6
sa(dp131
g123
I0
sg124
F3.600120544433594e-05
sg125
F9.608268737792969e-05
sg126
I4
sg127
I4
sasS'total_cqs'
p132
I51
ssI11
(dp133
S'iters'
p134
I5
sS'meta'
p135
(lp136
(dp137
S'objective'
p138
I1094
sS'query_time'
p139
F2.1807291507720947
sS'comp_time'
p140
F0.01567983627319336
sS'exec_cq'
p141
I63
sS'total_cq'
p142
I63
sa(dp143
g138
I897
sg139
F0.0009510517120361328
sg140
F0.0037992000579833984
sg141
I47
sg142
I47
sa(dp144
g138
I1
sg139
F0.00420689582824707
sg140
F0.0008699893951416016
sg141
I9
sg142
I9
sa(dp145
g138
I19
sg139
F2.8133392333984375e-05
sg140
F9.608268737792969e-05
sg141
I4
sg142
I4
sa(dp146
g138
I53
sg139
F1.2159347534179688e-05
sg140
F6.794929504394531e-05
sg141
I2
sg142
I2
sasS'total_cqs'
p147
I63
ssI12
(dp148
S'iters'
p149
I5
sS'meta'
p150
(lp151
(dp152
S'objective'
p153
I473
sS'query_time'
p154
F1.9583470821380615
sS'comp_time'
p155
F0.0069391727447509766
sS'exec_cq'
p156
I50
sS'total_cq'
p157
I50
sa(dp158
g153
I372
sg154
F0.0004119873046875
sg155
F0.0018198490142822266
sg156
I33
sg157
I33
sa(dp159
g153
I1
sg154
F0.00919795036315918
sg155
F0.001180887222290039
sg156
I8
sg157
I8
sa(dp160
g153
I13
sg154
F7.009506225585938e-05
sg155
F0.000209808349609375
sg156
I4
sg157
I4
sa(dp161
g153
I31
sg154
F3.2901763916015625e-05
sg155
F0.00012683868408203125
sg156
I2
sg157
I2
sasS'total_cqs'
p162
I50
ssI13
(dp163
S'iters'
p164
I3
sS'meta'
p165
(lp166
(dp167
S'objective'
p168
I36
sS'query_time'
p169
F1.7191741466522217
sS'comp_time'
p170
F0.00045299530029296875
sS'exec_cq'
p171
I20
sS'total_cq'
p172
I20
sa(dp173
g168
I17
sg169
F4.482269287109375e-05
sg170
F6.914138793945312e-05
sg171
I9
sg172
I9
sa(dp174
g168
I5
sg169
F0.004760026931762695
sg170
F7.486343383789062e-05
sg171
I2
sg172
I2
sasS'total_cqs'
p175
I20
ssI14
(dp176
S'iters'
p177
I2
sS'meta'
p178
(lp179
(dp180
S'objective'
p181
I1
sS'query_time'
p182
F44.71302390098572
sS'comp_time'
p183
F1.0268750190734863
sS'exec_cq'
p184
I9
sS'total_cq'
p185
I9
sa(dp186
g181
I4
sg182
F0.3226170539855957
sg183
F0.7478630542755127
sg184
I3
sg185
I3
sasS'total_cqs'
p187
I9
ssI15
(dp188
S'iters'
p189
I3
sS'meta'
p190
(lp191
(dp192
S'objective'
p193
I2
sS'query_time'
p194
F12.084429025650024
sS'comp_time'
p195
F0.14718413352966309
sS'exec_cq'
p196
I11
sS'total_cq'
p197
I11
sa(dp198
g193
I2
sg194
F0.03558611869812012
sg195
F0.13971590995788574
sg196
I5
sg197
I5
sa(dp199
g193
I4
sg194
F0.009174108505249023
sg195
F0.06993913650512695
sg196
I2
sg197
I2
sasS'total_cqs'
p200
I11
ssI16
(dp201
S'iters'
p202
I1
sS'meta'
p203
(lp204
(dp205
S'objective'
p206
I20
sS'query_time'
p207
F0.023876190185546875
sS'comp_time'
p208
F0.00013899803161621094
sS'exec_cq'
p209
I8
sS'total_cq'
p210
I8
sasS'total_cqs'
p211
I8
ssI17
(dp212
S'iters'
p213
I3
sS'meta'
p214
(lp215
(dp216
S'objective'
p217
I0
sS'query_time'
p218
F4.3040931224823
sS'comp_time'
p219
F0.020588159561157227
sS'exec_cq'
p220
I11
sS'total_cq'
p221
I11
sa(dp222
g217
I7
sg218
F0.0022749900817871094
sg219
F0.01147913932800293
sg220
I6
sg221
I6
sa(dp223
g217
I9
sg218
F0.003038167953491211
sg219
F0.011296749114990234
sg220
I2
sg221
I2
sasS'total_cqs'
p224
I11
ssI18
(dp225
S'iters'
p226
I2
sS'meta'
p227
(lp228
(dp229
S'objective'
p230
I18
sS'query_time'
p231
F2.898042917251587
sS'comp_time'
p232
F0.005730867385864258
sS'exec_cq'
p233
I11
sS'total_cq'
p234
I11
sa(dp235
g230
I20
sg231
F0.0002319812774658203
sg232
F0.0012869834899902344
sg233
I8
sg234
I8
sasS'total_cqs'
p236
I11
ssI19
(dp237
S'iters'
p238
I0
sS'meta'
p239
(lp240
sS'total_cqs'
p241
I1
ssI20
(dp242
S'iters'
p243
I0
sS'meta'
p244
(lp245
sS'total_cqs'
p246
I1
ssI21
(dp247
S'iters'
p248
I0
sS'meta'
p249
(lp250
sS'total_cqs'
p251
I1
ssI22
(dp252
S'iters'
p253
I1
sS'meta'
p254
(lp255
(dp256
S'objective'
p257
I135
sS'query_time'
p258
F0.16063213348388672
sS'comp_time'
p259
F0.00018286705017089844
sS'exec_cq'
p260
I18
sS'total_cq'
p261
I18
sasS'total_cqs'
p262
I18
ssI23
(dp263
S'iters'
p264
I2
sS'meta'
p265
(lp266
(dp267
S'objective'
p268
I100
sS'query_time'
p269
F0.22183489799499512
sS'comp_time'
p270
F0.0008790493011474609
sS'exec_cq'
p271
I16
sS'total_cq'
p272
I16
sa(dp273
g268
I86
sg269
F0.00010704994201660156
sg270
F0.0003268718719482422
sg271
I14
sg272
I14
sasS'total_cqs'
p274
I16
ssI24
(dp275
S'iters'
p276
I0
sS'meta'
p277
(lp278
sS'total_cqs'
p279
I1
ssI25
(dp280
S'iters'
p281
I0
sS'meta'
p282
(lp283
sS'total_cqs'
p284
I1
ssI26
(dp285
S'iters'
p286
I1
sS'meta'
p287
(lp288
(dp289
S'objective'
p290
I819
sS'query_time'
p291
F0.5517420768737793
sS'comp_time'
p292
F0.00020813941955566406
sS'exec_cq'
p293
I42
sS'total_cq'
p294
I42
sasS'total_cqs'
p295
I42
ssI27
(dp296
S'iters'
p297
I3
sS'meta'
p298
(lp299
(dp300
S'objective'
p301
I265
sS'query_time'
p302
F36.82601618766785
sS'comp_time'
p303
F2.505918025970459
sS'exec_cq'
p304
I30
sS'total_cq'
p305
I30
sa(dp306
g301
I6
sg302
F0.3738090991973877
sg303
F2.05523419380188
sg304
I5
sg305
I5
sa(dp307
g301
I7
sg302
F0.33440089225769043
sg303
F1.6500952243804932
sg304
I3
sg305
I3
sasS'total_cqs'
p308
I30
ssI28
(dp309
S'iters'
p310
I0
sS'meta'
p311
(lp312
sS'total_cqs'
p313
I1
ssI29
(dp314
S'iters'
p315
I4
sS'meta'
p316
(lp317
(dp318
S'objective'
p319
I367
sS'query_time'
p320
F148.36844396591187
sS'comp_time'
p321
F13.692676782608032
sS'exec_cq'
p322
I49
sS'total_cq'
p323
I49
sa(dp324
g319
I5
sg320
F0.021934986114501953
sg321
F0.04686689376831055
sg322
I17
sg323
I17
sa(dp325
g319
I13
sg320
F0.5900890827178955
sg321
F0.03767585754394531
sg322
I7
sg323
I7
sa(dp326
g319
I17
sg320
F0.0018491744995117188
sg321
F0.009929895401000977
sg322
I3
sg323
I3
sasS'total_cqs'
p327
I49
ssI30
(dp328
S'iters'
p329
I1
sS'meta'
p330
(lp331
(dp332
S'objective'
p333
I1
sS'query_time'
p334
F3.1633381843566895
sS'comp_time'
p335
F0.028268098831176758
sS'exec_cq'
p336
I2
sS'total_cq'
p337
I2
sasS'total_cqs'
p338
I2
ssI31
(dp339
S'iters'
p340
I0
sS'meta'
p341
(lp342
sS'total_cqs'
p343
I1
ssI32
(dp344
S'iters'
p345
I1
sS'meta'
p346
(lp347
(dp348
S'objective'
p349
I1
sS'query_time'
p350
F0.017331838607788086
sS'comp_time'
p351
F0.0002779960632324219
sS'exec_cq'
p352
I2
sS'total_cq'
p353
I2
sasS'total_cqs'
p354
I2
ssI33
(dp355
S'iters'
p356
I1
sS'meta'
p357
(lp358
(dp359
S'objective'
p360
I5150
sS'query_time'
p361
F21.968201160430908
sS'comp_time'
p362
F0.6493930816650391
sS'exec_cq'
p363
I103
sS'total_cq'
p364
I103
sasS'total_cqs'
p365
I103
ssI34
(dp366
S'iters'
p367
I1
sS'meta'
p368
(lp369
(dp370
S'objective'
p371
I1
sS'query_time'
p372
F0.08057594299316406
sS'comp_time'
p373
F0.0006971359252929688
sS'exec_cq'
p374
I2
sS'total_cq'
p375
I2
sasS'total_cqs'
p376
I2
ssI35
(dp377
S'iters'
p378
I4
sS'meta'
p379
(lp380
(dp381
S'objective'
p382
I2389
sS'query_time'
p383
F20.471397161483765
sS'comp_time'
p384
F0.10061192512512207
sS'exec_cq'
p385
I70
sS'total_cq'
p386
I70
sa(dp387
g382
I2419
sg383
F0.0002808570861816406
sg384
F0.06283307075500488
sg385
I69
sg386
I69
sa(dp388
g382
I2238
sg383
F0.3524630069732666
sg384
F0.3596351146697998
sg385
I68
sg386
I68
sa(dp389
g382
I45
sg383
F0.021767854690551758
sg384
F0.010272026062011719
sg385
I2
sg386
I2
sasS'total_cqs'
p390
I70
ssI36
(dp391
S'iters'
p392
I3
sS'meta'
p393
(lp394
(dp395
S'objective'
p396
I385
sS'query_time'
p397
F3.964477062225342
sS'comp_time'
p398
F0.025171756744384766
sS'exec_cq'
p399
I33
sS'total_cq'
p400
I33
sa(dp401
g396
I319
sg397
F0.0018930435180664062
sg398
F0.008387088775634766
sg399
I29
sg400
I29
sa(dp402
g396
I330
sg397
F0.001177072525024414
sg398
F0.005875825881958008
sg399
I25
sg400
I25
sasS'total_cqs'
p403
I33
ssI37
(dp404
S'iters'
p405
I1
sS'meta'
p406
(lp407
(dp408
S'objective'
p409
I1
sS'query_time'
p410
F0.051609039306640625
sS'comp_time'
p411
F0.00038504600524902344
sS'exec_cq'
p412
I2
sS'total_cq'
p413
I2
sasS'total_cqs'
p414
I2
ssI38
(dp415
S'iters'
p416
I2
sS'meta'
p417
(lp418
(dp419
S'objective'
p420
I0
sS'query_time'
p421
F0.10170197486877441
sS'comp_time'
p422
F0.0006849765777587891
sS'exec_cq'
p423
I4
sS'total_cq'
p424
I4
sa(dp425
g420
I3
sg421
F0.00010395050048828125
sg422
F0.0004620552062988281
sg423
I2
sg424
I2
sasS'total_cqs'
p426
I4
ssI39
(dp427
S'iters'
p428
I2
sS'meta'
p429
(lp430
(dp431
S'objective'
p432
I688
sS'query_time'
p433
F1.0470480918884277
sS'comp_time'
p434
F0.002599000930786133
sS'exec_cq'
p435
I44
sS'total_cq'
p436
I44
sa(dp437
g432
I751
sg433
F0.0005359649658203125
sg434
F0.0017850399017333984
sg435
I37
sg436
I37
sasS'total_cqs'
p438
I44
ssI40
(dp439
S'iters'
p440
I1
sS'meta'
p441
(lp442
(dp443
S'objective'
p444
I14
sS'query_time'
p445
F0.333482027053833
sS'comp_time'
p446
F0.00012922286987304688
sS'exec_cq'
p447
I7
sS'total_cq'
p448
I7
sasS'total_cqs'
p449
I7
ssI41
(dp450
S'iters'
p451
I1
sS'meta'
p452
(lp453
(dp454
S'objective'
p455
I54
sS'query_time'
p456
F0.19162988662719727
sS'comp_time'
p457
F0.0002110004425048828
sS'exec_cq'
p458
I12
sS'total_cq'
p459
I12
sasS'total_cqs'
p460
I12
ssI42
(dp461
S'iters'
p462
I1
sS'meta'
p463
(lp464
(dp465
S'objective'
p466
I779
sS'query_time'
p467
F0.5427000522613525
sS'comp_time'
p468
F0.00030517578125
sS'exec_cq'
p469
I41
sS'total_cq'
p470
I41
sasS'total_cqs'
p471
I41
ssI43
(dp472
S'iters'
p473
I1
sS'meta'
p474
(lp475
(dp476
S'objective'
p477
I14
sS'query_time'
p478
F0.07692503929138184
sS'comp_time'
p479
F9.512901306152344e-05
sS'exec_cq'
p480
I7
sS'total_cq'
p481
I7
sasS'total_cqs'
p482
I7
ssI44
(dp483
S'iters'
p484
I4
sS'meta'
p485
(lp486
(dp487
S'objective'
p488
I936
sS'query_time'
p489
F1.186357021331787
sS'comp_time'
p490
F0.0011217594146728516
sS'exec_cq'
p491
I47
sS'total_cq'
p492
I47
sa(dp493
g488
I852
sg489
F0.0003159046173095703
sg490
F0.004575967788696289
sg491
I40
sg492
I40
sa(dp494
g488
I42
sg489
F0.0031659603118896484
sg490
F0.0007090568542480469
sg491
I3
sg492
I3
sa(dp495
g488
I28
sg489
F0.00010704994201660156
sg490
F0.00061798095703125
sg491
I2
sg492
I2
sasS'total_cqs'
p496
I47
ssI45
(dp497
S'iters'
p498
I0
sS'meta'
p499
(lp500
sS'total_cqs'
p501
I1
ssI46
(dp502
S'iters'
p503
I1
sS'meta'
p504
(lp505
(dp506
S'objective'
p507
I9
sS'query_time'
p508
F0.19362592697143555
sS'comp_time'
p509
F0.0003199577331542969
sS'exec_cq'
p510
I6
sS'total_cq'
p511
I6
sasS'total_cqs'
p512
I6
ssI47
(dp513
S'iters'
p514
I1
sS'meta'
p515
(lp516
(dp517
S'objective'
p518
I1
sS'query_time'
p519
F0.042388200759887695
sS'comp_time'
p520
F0.00031304359436035156
sS'exec_cq'
p521
I2
sS'total_cq'
p522
I2
sasS'total_cqs'
p523
I2
ssI48
(dp524
S'iters'
p525
I0
sS'meta'
p526
(lp527
sS'total_cqs'
p528
I1
ssI49
(dp529
S'iters'
p530
I0
sS'meta'
p531
(lp532
sS'total_cqs'
p533
I1
ssI50
(dp534
S'iters'
p535
I1
sS'meta'
p536
(lp537
(dp538
S'objective'
p539
I5
sS'query_time'
p540
F0.11350488662719727
sS'comp_time'
p541
F0.0001437664031982422
sS'exec_cq'
p542
I5
sS'total_cq'
p543
I5
sasS'total_cqs'
p544
I5
ssI51
(dp545
S'iters'
p546
I1
sS'meta'
p547
(lp548
(dp549
S'objective'
p550
I1
sS'query_time'
p551
F0.10513091087341309
sS'comp_time'
p552
F0.0002219676971435547
sS'exec_cq'
p553
I2
sS'total_cq'
p554
I2
sasS'total_cqs'
p555
I2
ssI52
(dp556
S'iters'
p557
I1
sS'meta'
p558
(lp559
(dp560
S'objective'
p561
I1
sS'query_time'
p562
F0.07125496864318848
sS'comp_time'
p563
F0.0003001689910888672
sS'exec_cq'
p564
I2
sS'total_cq'
p565
I2
sasS'total_cqs'
p566
I2
ssI53
(dp567
S'iters'
p568
I1
sS'meta'
p569
(lp570
(dp571
S'objective'
p572
I2
sS'query_time'
p573
F0.10403299331665039
sS'comp_time'
p574
F0.0006570816040039062
sS'exec_cq'
p575
I4
sS'total_cq'
p576
I4
sasS'total_cqs'
p577
I4
ssI54
(dp578
S'iters'
p579
I1
sS'meta'
p580
(lp581
(dp582
S'objective'
p583
I0
sS'query_time'
p584
F0.06722402572631836
sS'comp_time'
p585
F0.0003781318664550781
sS'exec_cq'
p586
I3
sS'total_cq'
p587
I3
sasS'total_cqs'
p588
I3
ssI55
(dp589
S'iters'
p590
I3
sS'meta'
p591
(lp592
(dp593
S'objective'
p594
I4791
sS'query_time'
p595
F13.40111494064331
sS'comp_time'
p596
F0.05199790000915527
sS'exec_cq'
p597
I109
sS'total_cq'
p598
I109
sa(dp599
g594
I4915
sg595
F0.001074075698852539
sg596
F0.0016138553619384766
sg597
I97
sg598
I97
sa(dp600
g594
I21
sg595
F0.00023603439331054688
sg596
F0.0007169246673583984
sg597
I4
sg598
I4
sasS'total_cqs'
p601
I109
ssI56
(dp602
S'iters'
p603
I4
sS'meta'
p604
(lp605
(dp606
S'objective'
p607
I1610
sS'query_time'
p608
F17.590458154678345
sS'comp_time'
p609
F0.15640687942504883
sS'exec_cq'
p610
I76
sS'total_cq'
p611
I76
sa(dp612
g607
I4
sg608
F0.0056629180908203125
sg609
F0.011081218719482422
sg610
I16
sg611
I16
sa(dp613
g607
I15
sg608
F0.0024480819702148438
sg609
F0.006829977035522461
sg610
I8
sg611
I8
sa(dp614
g607
I21
sg608
F0.000682830810546875
sg609
F0.0036499500274658203
sg610
I3
sg611
I3
sasS'total_cqs'
p615
I76
ssI57
(dp616
S'iters'
p617
I5
sS'meta'
p618
(lp619
(dp620
S'objective'
p621
I84
sS'query_time'
p622
F83.89245319366455
sS'comp_time'
p623
F3.6701629161834717
sS'exec_cq'
p624
I51
sS'total_cq'
p625
I51
sa(dp626
g621
I17
sg622
F0.01277303695678711
sg623
F0.02774810791015625
sg624
I27
sg625
I27
sa(dp627
g621
I10
sg622
F0.002074003219604492
sg623
F0.0057179927825927734
sg624
I13
sg625
I13
sa(dp628
g621
I1
sg622
F0.0013689994812011719
sg623
F0.004172086715698242
sg624
I6
sg625
I6
sa(dp629
g621
I19
sg622
F0.0009701251983642578
sg623
F0.0036840438842773438
sg624
I3
sg625
I3
sasS'total_cqs'
p630
I51
ssI58
(dp631
S'iters'
p632
I6
sS'meta'
p633
(lp634
(dp635
S'objective'
p636
I117509
sS'query_time'
p637
F22.136065006256104
sS'comp_time'
p638
F0.9404330253601074
sS'exec_cq'
p639
I486
sS'total_cq'
p640
I486
sa(dp641
g636
I117247
sg637
F0.0017549991607666016
sg638
F0.3918919563293457
sg639
I485
sg640
I485
sa(dp642
g636
I117028
sg637
F0.0020170211791992188
sg638
F0.40398502349853516
sg639
I483
sg640
I483
sa(dp643
g636
I116807
sg637
F0.0012221336364746094
sg638
F0.34172916412353516
sg639
I481
sg640
I481
sa(dp644
g636
I111489
sg637
F2.4800517559051514
sg638
F2.2325470447540283
sg639
I480
sg640
I480
sa(dp645
g636
I1812
sg637
F0.15652203559875488
sg638
F0.12514209747314453
sg639
I12
sg640
I12
sasS'total_cqs'
p646
I486
ssI59
(dp647
S'iters'
p648
I2
sS'meta'
p649
(lp650
(dp651
S'objective'
p652
I2
sS'query_time'
p653
F0.4801349639892578
sS'comp_time'
p654
F0.002164125442504883
sS'exec_cq'
p655
I7
sS'total_cq'
p656
I7
sa(dp657
g652
I1
sg653
F0.0002448558807373047
sg654
F0.0013580322265625
sg655
I2
sg656
I2
sasS'total_cqs'
p658
I7
ssI60
(dp659
S'iters'
p660
I1
sS'meta'
p661
(lp662
(dp663
S'objective'
p664
I5
sS'query_time'
p665
F0.1427159309387207
sS'comp_time'
p666
F0.0003769397735595703
sS'exec_cq'
p667
I5
sS'total_cq'
p668
I5
sasS'total_cqs'
p669
I5
ssI61
(dp670
S'iters'
p671
I0
sS'meta'
p672
(lp673
sS'total_cqs'
p674
I1
ssI62
(dp675
S'iters'
p676
I1
sS'meta'
p677
(lp678
(dp679
S'objective'
p680
I54
sS'query_time'
p681
F0.37716197967529297
sS'comp_time'
p682
F0.00028228759765625
sS'exec_cq'
p683
I12
sS'total_cq'
p684
I12
sasS'total_cqs'
p685
I12
ssI63
(dp686
S'iters'
p687
I0
sS'meta'
p688
(lp689
sS'total_cqs'
p690
I1
ssI64
(dp691
S'iters'
p692
I3
sS'meta'
p693
(lp694
(dp695
S'objective'
p696
I14
sS'query_time'
p697
F1.446509838104248
sS'comp_time'
p698
F0.008772850036621094
sS'exec_cq'
p699
I12
sS'total_cq'
p700
I12
sa(dp701
g696
I4
sg697
F0.00020384788513183594
sg698
F0.0010290145874023438
sg699
I4
sg700
I4
sa(dp702
g696
I10
sg697
F6.103515625e-05
sg698
F0.0001957416534423828
sg699
I2
sg700
I2
sasS'total_cqs'
p703
I12
ssI65
(dp704
S'iters'
p705
I3
sS'meta'
p706
(lp707
(dp708
S'objective'
p709
I198
sS'query_time'
p710
F3.806973934173584
sS'comp_time'
p711
F0.03934001922607422
sS'exec_cq'
p712
I27
sS'total_cq'
p713
I27
sa(dp714
g709
I4
sg710
F0.0012722015380859375
sg711
F0.004440784454345703
sg712
I7
sg713
I7
sa(dp715
g709
I7
sg710
F0.00016188621520996094
sg711
F0.0008151531219482422
sg712
I3
sg713
I3
sasS'total_cqs'
p716
I27
ssI66
(dp717
S'iters'
p718
I0
sS'meta'
p719
(lp720
sS'total_cqs'
p721
I1
ssI67
(dp722
S'iters'
p723
I2
sS'meta'
p724
(lp725
(dp726
S'objective'
p727
I546
sS'query_time'
p728
F4.697339773178101
sS'comp_time'
p729
F0.008083820343017578
sS'exec_cq'
p730
I35
sS'total_cq'
p731
I35
sa(dp732
g727
I28
sg728
F0.0015320777893066406
sg729
F0.007580995559692383
sg730
I2
sg731
I2
sasS'total_cqs'
p733
I35
ssI68
(dp734
S'iters'
p735
I0
sS'meta'
p736
(lp737
sS'total_cqs'
p738
I1
ssI69
(dp739
S'iters'
p740
I1
sS'meta'
p741
(lp742
(dp743
S'objective'
p744
I1224
sS'query_time'
p745
F1.9638218879699707
sS'comp_time'
p746
F0.00030994415283203125
sS'exec_cq'
p747
I51
sS'total_cq'
p748
I51
sasS'total_cqs'
p749
I51
ssI70
(dp750
S'iters'
p751
I1
sS'meta'
p752
(lp753
(dp754
S'objective'
p755
I9
sS'query_time'
p756
F0.3427560329437256
sS'comp_time'
p757
F0.0002961158752441406
sS'exec_cq'
p758
I6
sS'total_cq'
p759
I6
sasS'total_cqs'
p760
I6
ssI71
(dp761
S'iters'
p762
I6
sS'meta'
p763
(lp764
(dp765
S'objective'
p766
I3245
sS'query_time'
p767
F1.6343300342559814
sS'comp_time'
p768
F0.0008699893951416016
sS'exec_cq'
p769
I85
sS'total_cq'
p770
I85
sa(dp771
g766
I3100
sg767
F0.0003790855407714844
sg768
F0.0006182193756103516
sg769
I82
sg770
I82
sa(dp772
g766
I2961
sg767
F0.000308990478515625
sg768
F0.0005390644073486328
sg769
I78
sg770
I78
sa(dp773
g766
I2810
sg767
F0.00024580955505371094
sg768
F0.0004379749298095703
sg769
I74
sg770
I74
sa(dp774
g766
I2676
sg767
F0.00023102760314941406
sg768
F0.0003311634063720703
sg769
I71
sg770
I71
sa(dp775
g766
I26
sg767
F0.007197141647338867
sg768
F0.00017189979553222656
sg769
I3
sg770
I3
sasS'total_cqs'
p776
I85
ssI72
(dp777
S'iters'
p778
I2
sS'meta'
p779
(lp780
(dp781
S'objective'
p782
I8
sS'query_time'
p783
F1.8072609901428223
sS'comp_time'
p784
F0.007404804229736328
sS'exec_cq'
p785
I8
sS'total_cq'
p786
I8
sa(dp787
g782
I6
sg783
F0.0001239776611328125
sg784
F0.0004367828369140625
sg785
I5
sg786
I5
sasS'total_cqs'
p788
I8
ssI73
(dp789
S'iters'
p790
I0
sS'meta'
p791
(lp792
sS'total_cqs'
p793
I1
ssI74
(dp794
S'iters'
p795
I0
sS'meta'
p796
(lp797
sS'total_cqs'
p798
I1
ssI75
(dp799
S'iters'
p800
I1
sS'meta'
p801
(lp802
(dp803
S'objective'
p804
I5
sS'query_time'
p805
F0.1018831729888916
sS'comp_time'
p806
F0.000244140625
sS'exec_cq'
p807
I5
sS'total_cq'
p808
I5
sasS'total_cqs'
p809
I5
ssI76
(dp810
S'iters'
p811
I1
sS'meta'
p812
(lp813
(dp814
S'objective'
p815
I1
sS'query_time'
p816
F0.1633138656616211
sS'comp_time'
p817
F0.0004680156707763672
sS'exec_cq'
p818
I2
sS'total_cq'
p819
I2
sasS'total_cqs'
p820
I2
ssI77
(dp821
S'iters'
p822
I0
sS'meta'
p823
(lp824
sS'total_cqs'
p825
I1
ssI78
(dp826
S'iters'
p827
I0
sS'meta'
p828
(lp829
sS'total_cqs'
p830
I1
ssI103
(dp831
S'iters'
p832
I1
sS'meta'
p833
(lp834
(dp835
S'objective'
p836
I54
sS'query_time'
p837
F1.1651170253753662
sS'comp_time'
p838
F0.00026416778564453125
sS'exec_cq'
p839
I12
sS'total_cq'
p840
I12
sasS'total_cqs'
p841
I12
ssI104
(dp842
S'iters'
p843
I1
sS'meta'
p844
(lp845
(dp846
S'objective'
p847
I2
sS'query_time'
p848
F5.136400938034058
sS'comp_time'
p849
F0.09060120582580566
sS'exec_cq'
p850
I4
sS'total_cq'
p851
I4
sasS'total_cqs'
p852
I4
ssI105
(dp853
S'iters'
p854
I0
sS'meta'
p855
(lp856
sS'total_cqs'
p857
I1
ssI106
(dp858
S'iters'
p859
I1
sS'meta'
p860
(lp861
(dp862
S'objective'
p863
I2
sS'query_time'
p864
F0.1505579948425293
sS'comp_time'
p865
F0.0001308917999267578
sS'exec_cq'
p866
I4
sS'total_cq'
p867
I4
sasS'total_cqs'
p868
I4
ssI107
(dp869
S'iters'
p870
I2
sS'meta'
p871
(lp872
(dp873
S'objective'
p874
I82
sS'query_time'
p875
F0.9423229694366455
sS'comp_time'
p876
F0.0002663135528564453
sS'exec_cq'
p877
I16
sS'total_cq'
p878
I16
sa(dp879
g874
I5
sg875
F0.015576839447021484
sg876
F0.00015091896057128906
sg877
I3
sg878
I3
sasS'total_cqs'
p880
I16
ssI108
(dp881
S'iters'
p882
I0
sS'meta'
p883
(lp884
sS'total_cqs'
p885
I1
ss.