(dp0
I1
(dp1
S'iters'
p2
I1
sS'meta'
p3
(lp4
(dp5
S'objective'
p6
I54
sS'query_time'
p7
F0.02048206329345703
sS'comp_time'
p8
F4.506111145019531e-05
sS'exec_cq'
p9
I1
sS'total_cq'
p10
I12
sasS'total_cqs'
p11
I12
ssI2
(dp12
S'iters'
p13
I1
sS'meta'
p14
(lp15
(dp16
S'objective'
p17
I324
sS'query_time'
p18
F0.03270697593688965
sS'comp_time'
p19
F8.320808410644531e-05
sS'exec_cq'
p20
I1
sS'total_cq'
p21
I27
sasS'total_cqs'
p22
I27
ssI3
(dp23
S'iters'
p24
I1
sS'meta'
p25
(lp26
(dp27
S'objective'
p28
I860
sS'query_time'
p29
F0.02478194236755371
sS'comp_time'
p30
F7.009506225585938e-05
sS'exec_cq'
p31
I1
sS'total_cq'
p32
I43
sasS'total_cqs'
p33
I43
ssI4
(dp34
S'iters'
p35
I1
sS'meta'
p36
(lp37
(dp38
S'objective'
p39
I44
sS'query_time'
p40
F2.9921560287475586
sS'comp_time'
p41
F0.0012459754943847656
sS'exec_cq'
p42
I1
sS'total_cq'
p43
I11
sasS'total_cqs'
p44
I11
ssI5
(dp45
S'iters'
p46
I2
sS'meta'
p47
(lp48
(dp49
S'objective'
p50
I4
sS'query_time'
p51
F0.5456011295318604
sS'comp_time'
p52
F6.604194641113281e-05
sS'exec_cq'
p53
I1
sS'total_cq'
p54
I8
sa(dp55
g50
I4
sg51
F0.0074460506439208984
sg52
F4.982948303222656e-05
sg53
I1
sg54
I4
sasS'total_cqs'
p56
I8
ssI6
(dp57
S'iters'
p58
I3
sS'meta'
p59
(lp60
(dp61
S'objective'
p62
I71
sS'query_time'
p63
F0.5660920143127441
sS'comp_time'
p64
F7.104873657226562e-05
sS'exec_cq'
p65
I1
sS'total_cq'
p66
I18
sa(dp67
g62
I14
sg63
F0.008755922317504883
sg64
F4.00543212890625e-05
sg65
I1
sg66
I4
sa(dp68
g62
I4
sg63
F0.0067670345306396484
sg64
F3.1948089599609375e-05
sg65
I1
sg66
I2
sasS'total_cqs'
p69
I18
ssI7
(dp70
S'iters'
p71
I1
sS'meta'
p72
(lp73
(dp74
S'objective'
p75
I27
sS'query_time'
p76
F0.26887989044189453
sS'comp_time'
p77
F7.605552673339844e-05
sS'exec_cq'
p78
I1
sS'total_cq'
p79
I9
sasS'total_cqs'
p80
I9
ssI8
(dp81
S'iters'
p82
I2
sS'meta'
p83
(lp84
(dp85
S'objective'
p86
I280
sS'query_time'
p87
F0.05804800987243652
sS'comp_time'
p88
F8.106231689453125e-05
sS'exec_cq'
p89
I1
sS'total_cq'
p90
I27
sa(dp91
g86
I5
sg87
F0.013161897659301758
sg88
F5.2928924560546875e-05
sg89
I2
sg90
I2
sasS'total_cqs'
p92
I27
ssI9
(dp93
S'iters'
p94
I2
sS'meta'
p95
(lp96
(dp97
S'objective'
p98
I6
sS'query_time'
p99
F0.02313089370727539
sS'comp_time'
p100
F4.601478576660156e-05
sS'exec_cq'
p101
I1
sS'total_cq'
p102
I7
sa(dp103
g98
I3
sg99
F0.03899693489074707
sg100
F5.507469177246094e-05
sg101
I2
sg102
I5
sasS'total_cqs'
p104
I7
ssI10
(dp105
S'iters'
p106
I4
sS'meta'
p107
(lp108
(dp109
S'objective'
p110
I606
sS'query_time'
p111
F0.06193804740905762
sS'comp_time'
p112
F7.295608520507812e-05
sS'exec_cq'
p113
I1
sS'total_cq'
p114
I51
sa(dp115
g110
I8
sg111
F0.10939598083496094
sg112
F4.482269287109375e-05
sg113
I2
sg114
I12
sa(dp116
g110
I34
sg111
F0.017101049423217773
sg112
F5.1021575927734375e-05
sg113
I2
sg114
I6
sa(dp117
g110
I7
sg111
F0.008766889572143555
sg112
F4.506111145019531e-05
sg113
I2
sg114
I4
sasS'total_cqs'
p118
I51
ssI11
(dp119
S'iters'
p120
I2
sS'meta'
p121
(lp122
(dp123
S'objective'
p124
I1194
sS'query_time'
p125
F0.14461517333984375
sS'comp_time'
p126
F6.508827209472656e-05
sS'exec_cq'
p127
I1
sS'total_cq'
p128
I63
sa(dp129
g124
I285
sg125
F0.026121854782104492
sg126
F3.981590270996094e-05
sg127
I2
sg128
I9
sasS'total_cqs'
p130
I63
ssI12
(dp131
S'iters'
p132
I4
sS'meta'
p133
(lp134
(dp135
S'objective'
p136
I819
sS'query_time'
p137
F0.10314106941223145
sS'comp_time'
p138
F9.799003601074219e-05
sS'exec_cq'
p139
I1
sS'total_cq'
p140
I50
sa(dp141
g136
I78
sg137
F0.029801130294799805
sg138
F4.982948303222656e-05
sg139
I2
sg140
I8
sa(dp142
g136
I27
sg137
F0.008726119995117188
sg138
F3.600120544433594e-05
sg139
I2
sg140
I4
sa(dp143
g136
I49
sg137
F0.004248142242431641
sg138
F4.100799560546875e-05
sg139
I2
sg140
I2
sasS'total_cqs'
p144
I50
ssI13
(dp145
S'iters'
p146
I3
sS'meta'
p147
(lp148
(dp149
S'objective'
p150
I22
sS'query_time'
p151
F0.05252194404602051
sS'comp_time'
p152
F4.410743713378906e-05
sS'exec_cq'
p153
I1
sS'total_cq'
p154
I20
sa(dp155
g150
I58
sg151
F0.05697202682495117
sg152
F5.602836608886719e-05
sg153
I2
sg154
I11
sa(dp156
g150
I11
sg151
F0.0064771175384521484
sg152
F4.410743713378906e-05
sg153
I2
sg154
I2
sasS'total_cqs'
p157
I20
ssI14
(dp158
S'iters'
p159
I3
sS'meta'
p160
(lp161
(dp162
S'objective'
p163
I1
sS'query_time'
p164
F0.3850278854370117
sS'comp_time'
p165
F7.104873657226562e-05
sS'exec_cq'
p166
I1
sS'total_cq'
p167
I9
sa(dp168
g163
I15
sg164
F0.005777835845947266
sg165
F3.504753112792969e-05
sg166
I1
sg167
I4
sa(dp169
g163
I1
sg164
F0.027738094329833984
sg165
F3.814697265625e-05
sg166
I1
sg167
I3
sasS'total_cqs'
p170
I9
ssI15
(dp171
S'iters'
p172
I2
sS'meta'
p173
(lp174
(dp175
S'objective'
p176
I40
sS'query_time'
p177
F0.07523703575134277
sS'comp_time'
p178
F7.295608520507812e-05
sS'exec_cq'
p179
I1
sS'total_cq'
p180
I11
sa(dp181
g176
I9
sg177
F0.0023899078369140625
sg178
F4.410743713378906e-05
sg179
I1
sg180
I2
sasS'total_cqs'
p182
I11
ssI16
(dp183
S'iters'
p184
I1
sS'meta'
p185
(lp186
(dp187
S'objective'
p188
I20
sS'query_time'
p189
F0.013420820236206055
sS'comp_time'
p190
F5.0067901611328125e-05
sS'exec_cq'
p191
I1
sS'total_cq'
p192
I8
sasS'total_cqs'
p193
I8
ssI17
(dp194
S'iters'
p195
I1
sS'meta'
p196
(lp197
(dp198
S'objective'
p199
I44
sS'query_time'
p200
F0.037001848220825195
sS'comp_time'
p201
F6.604194641113281e-05
sS'exec_cq'
p202
I1
sS'total_cq'
p203
I11
sasS'total_cqs'
p204
I11
ssI18
(dp205
S'iters'
p206
I1
sS'meta'
p207
(lp208
(dp209
S'objective'
p210
I44
sS'query_time'
p211
F0.03764605522155762
sS'comp_time'
p212
F6.699562072753906e-05
sS'exec_cq'
p213
I1
sS'total_cq'
p214
I11
sasS'total_cqs'
p215
I11
ssI19
(dp216
S'iters'
p217
I0
sS'meta'
p218
(lp219
sS'total_cqs'
p220
I1
ssI20
(dp221
S'iters'
p222
I0
sS'meta'
p223
(lp224
sS'total_cqs'
p225
I1
ssI21
(dp226
S'iters'
p227
I0
sS'meta'
p228
(lp229
sS'total_cqs'
p230
I1
ssI22
(dp231
S'iters'
p232
I1
sS'meta'
p233
(lp234
(dp235
S'objective'
p236
I135
sS'query_time'
p237
F0.04010891914367676
sS'comp_time'
p238
F7.605552673339844e-05
sS'exec_cq'
p239
I1
sS'total_cq'
p240
I18
sasS'total_cqs'
p241
I18
ssI23
(dp242
S'iters'
p243
I1
sS'meta'
p244
(lp245
(dp246
S'objective'
p247
I104
sS'query_time'
p248
F0.017886877059936523
sS'comp_time'
p249
F4.792213439941406e-05
sS'exec_cq'
p250
I1
sS'total_cq'
p251
I16
sasS'total_cqs'
p252
I16
ssI24
(dp253
S'iters'
p254
I0
sS'meta'
p255
(lp256
sS'total_cqs'
p257
I1
ssI25
(dp258
S'iters'
p259
I0
sS'meta'
p260
(lp261
sS'total_cqs'
p262
I1
ssI26
(dp263
S'iters'
p264
I1
sS'meta'
p265
(lp266
(dp267
S'objective'
p268
I819
sS'query_time'
p269
F0.08083987236022949
sS'comp_time'
p270
F5.793571472167969e-05
sS'exec_cq'
p271
I1
sS'total_cq'
p272
I42
sasS'total_cqs'
p273
I42
ssI27
(dp274
S'iters'
p275
I2
sS'meta'
p276
(lp277
(dp278
S'objective'
p279
I353
sS'query_time'
p280
F2.547835111618042
sS'comp_time'
p281
F0.0003230571746826172
sS'exec_cq'
p282
I1
sS'total_cq'
p283
I30
sa(dp284
g279
I4
sg280
F1184.5304379463196
sg281
F7.295608520507812e-05
sg282
I2
sg283
I2
sasS'total_cqs'
p285
I30
ssI28
(dp286
S'iters'
p287
I0
sS'meta'
p288
(lp289
sS'total_cqs'
p290
I1
ssI29
(dp291
S'iters'
p292
I1
sS'meta'
p293
(lp294
(dp295
S'objective'
p296
I1127
sS'query_time'
p297
F0.6727759838104248
sS'comp_time'
p298
F7.319450378417969e-05
sS'exec_cq'
p299
I1
sS'total_cq'
p300
I49
sasS'total_cqs'
p301
I49
ssI30
(dp302
S'iters'
p303
I1
sS'meta'
p304
(lp305
(dp306
S'objective'
p307
I1
sS'query_time'
p308
F0.6242630481719971
sS'comp_time'
p309
F7.009506225585938e-05
sS'exec_cq'
p310
I1
sS'total_cq'
p311
I2
sasS'total_cqs'
p312
I2
ssI31
(dp313
S'iters'
p314
I0
sS'meta'
p315
(lp316
sS'total_cqs'
p317
I1
ssI32
(dp318
S'iters'
p319
I1
sS'meta'
p320
(lp321
(dp322
S'objective'
p323
I1
sS'query_time'
p324
F0.011296987533569336
sS'comp_time'
p325
F5.507469177246094e-05
sS'exec_cq'
p326
I1
sS'total_cq'
p327
I2
sasS'total_cqs'
p328
I2
ssI33
(dp329
S'iters'
p330
I1
sS'meta'
p331
(lp332
(dp333
S'objective'
p334
I5150
sS'query_time'
p335
F0.7579541206359863
sS'comp_time'
p336
F0.00013208389282226562
sS'exec_cq'
p337
I1
sS'total_cq'
p338
I103
sasS'total_cqs'
p339
I103
ssI34
(dp340
S'iters'
p341
I1
sS'meta'
p342
(lp343
(dp344
S'objective'
p345
I1
sS'query_time'
p346
F0.01960611343383789
sS'comp_time'
p347
F6.699562072753906e-05
sS'exec_cq'
p348
I1
sS'total_cq'
p349
I2
sasS'total_cqs'
p350
I2
ssI35
(dp351
S'iters'
p352
I2
sS'meta'
p353
(lp354
(dp355
S'objective'
p356
I2231
sS'query_time'
p357
F0.5957739353179932
sS'comp_time'
p358
F9.107589721679688e-05
sS'exec_cq'
p359
I1
sS'total_cq'
p360
I70
sa(dp361
g356
I13
sg357
F0.017394065856933594
sg358
F4.1961669921875e-05
sg359
I1
sg360
I3
sasS'total_cqs'
p362
I70
ssI36
(dp363
S'iters'
p364
I1
sS'meta'
p365
(lp366
(dp367
S'objective'
p368
I495
sS'query_time'
p369
F0.12175202369689941
sS'comp_time'
p370
F9.202957153320312e-05
sS'exec_cq'
p371
I1
sS'total_cq'
p372
I33
sasS'total_cqs'
p373
I33
ssI37
(dp374
S'iters'
p375
I1
sS'meta'
p376
(lp377
(dp378
S'objective'
p379
I1
sS'query_time'
p380
F0.01079106330871582
sS'comp_time'
p381
F4.982948303222656e-05
sS'exec_cq'
p382
I1
sS'total_cq'
p383
I2
sasS'total_cqs'
p384
I2
ssI38
(dp385
S'iters'
p386
I2
sS'meta'
p387
(lp388
(dp389
S'objective'
p390
I0
sS'query_time'
p391
F0.01662588119506836
sS'comp_time'
p392
F6.890296936035156e-05
sS'exec_cq'
p393
I1
sS'total_cq'
p394
I4
sa(dp395
g390
I3
sg391
F0.016193151473999023
sg392
F0.00045609474182128906
sg393
I1
sg394
I2
sasS'total_cqs'
p396
I4
ssI39
(dp397
S'iters'
p398
I1
sS'meta'
p399
(lp400
(dp401
S'objective'
p402
I902
sS'query_time'
p403
F0.08387994766235352
sS'comp_time'
p404
F8.511543273925781e-05
sS'exec_cq'
p405
I1
sS'total_cq'
p406
I44
sasS'total_cqs'
p407
I44
ssI40
(dp408
S'iters'
p409
I1
sS'meta'
p410
(lp411
(dp412
S'objective'
p413
I14
sS'query_time'
p414
F0.017717838287353516
sS'comp_time'
p415
F6.008148193359375e-05
sS'exec_cq'
p416
I1
sS'total_cq'
p417
I7
sasS'total_cqs'
p418
I7
ssI41
(dp419
S'iters'
p420
I1
sS'meta'
p421
(lp422
(dp423
S'objective'
p424
I54
sS'query_time'
p425
F0.03661608695983887
sS'comp_time'
p426
F5.3882598876953125e-05
sS'exec_cq'
p427
I1
sS'total_cq'
p428
I12
sasS'total_cqs'
p429
I12
ssI42
(dp430
S'iters'
p431
I1
sS'meta'
p432
(lp433
(dp434
S'objective'
p435
I779
sS'query_time'
p436
F0.02913808822631836
sS'comp_time'
p437
F0.00011610984802246094
sS'exec_cq'
p438
I1
sS'total_cq'
p439
I41
sasS'total_cqs'
p440
I41
ssI43
(dp441
S'iters'
p442
I1
sS'meta'
p443
(lp444
(dp445
S'objective'
p446
I14
sS'query_time'
p447
F0.01433706283569336
sS'comp_time'
p448
F6.508827209472656e-05
sS'exec_cq'
p449
I1
sS'total_cq'
p450
I7
sasS'total_cqs'
p451
I7
ssI44
(dp452
S'iters'
p453
I2
sS'meta'
p454
(lp455
(dp456
S'objective'
p457
I964
sS'query_time'
p458
F0.048185110092163086
sS'comp_time'
p459
F6.318092346191406e-05
sS'exec_cq'
p460
I1
sS'total_cq'
p461
I47
sa(dp462
g457
I12
sg458
F0.032891035079956055
sg459
F6.389617919921875e-05
sg460
I2
sg461
I2
sasS'total_cqs'
p463
I47
ssI45
(dp464
S'iters'
p465
I0
sS'meta'
p466
(lp467
sS'total_cqs'
p468
I1
ssI46
(dp469
S'iters'
p470
I1
sS'meta'
p471
(lp472
(dp473
S'objective'
p474
I9
sS'query_time'
p475
F0.006727933883666992
sS'comp_time'
p476
F4.601478576660156e-05
sS'exec_cq'
p477
I1
sS'total_cq'
p478
I6
sasS'total_cqs'
p479
I6
ssI47
(dp480
S'iters'
p481
I1
sS'meta'
p482
(lp483
(dp484
S'objective'
p485
I1
sS'query_time'
p486
F0.0109100341796875
sS'comp_time'
p487
F4.482269287109375e-05
sS'exec_cq'
p488
I1
sS'total_cq'
p489
I2
sasS'total_cqs'
p490
I2
ssI48
(dp491
S'iters'
p492
I0
sS'meta'
p493
(lp494
sS'total_cqs'
p495
I1
ssI49
(dp496
S'iters'
p497
I0
sS'meta'
p498
(lp499
sS'total_cqs'
p500
I1
ssI50
(dp501
S'iters'
p502
I1
sS'meta'
p503
(lp504
(dp505
S'objective'
p506
I5
sS'query_time'
p507
F0.006740093231201172
sS'comp_time'
p508
F4.982948303222656e-05
sS'exec_cq'
p509
I1
sS'total_cq'
p510
I5
sasS'total_cqs'
p511
I5
ssI51
(dp512
S'iters'
p513
I1
sS'meta'
p514
(lp515
(dp516
S'objective'
p517
I1
sS'query_time'
p518
F0.020217180252075195
sS'comp_time'
p519
F4.696846008300781e-05
sS'exec_cq'
p520
I1
sS'total_cq'
p521
I2
sasS'total_cqs'
p522
I2
ssI52
(dp523
S'iters'
p524
I1
sS'meta'
p525
(lp526
(dp527
S'objective'
p528
I1
sS'query_time'
p529
F0.007311820983886719
sS'comp_time'
p530
F5.1975250244140625e-05
sS'exec_cq'
p531
I1
sS'total_cq'
p532
I2
sasS'total_cqs'
p533
I2
ssI53
(dp534
S'iters'
p535
I1
sS'meta'
p536
(lp537
(dp538
S'objective'
p539
I2
sS'query_time'
p540
F0.012660980224609375
sS'comp_time'
p541
F6.198883056640625e-05
sS'exec_cq'
p542
I1
sS'total_cq'
p543
I4
sasS'total_cqs'
p544
I4
ssI54
(dp545
S'iters'
p546
I1
sS'meta'
p547
(lp548
(dp549
S'objective'
p550
I0
sS'query_time'
p551
F0.007735013961791992
sS'comp_time'
p552
F5.1021575927734375e-05
sS'exec_cq'
p553
I1
sS'total_cq'
p554
I3
sasS'total_cqs'
p555
I3
ssI55
(dp556
S'iters'
p557
I1
sS'meta'
p558
(lp559
(dp560
S'objective'
p561
I5777
sS'query_time'
p562
F0.16903400421142578
sS'comp_time'
p563
F0.0001399517059326172
sS'exec_cq'
p564
I1
sS'total_cq'
p565
I109
sasS'total_cqs'
p566
I109
ssI56
(dp567
S'iters'
p568
I1
sS'meta'
p569
(lp570
(dp571
S'objective'
p572
I2774
sS'query_time'
p573
F0.15535497665405273
sS'comp_time'
p574
F0.00010514259338378906
sS'exec_cq'
p575
I1
sS'total_cq'
p576
I76
sasS'total_cqs'
p577
I76
ssI57
(dp578
S'iters'
p579
I3
sS'meta'
p580
(lp581
(dp582
S'objective'
p583
I1156
sS'query_time'
p584
F0.5195629596710205
sS'comp_time'
p585
F8.988380432128906e-05
sS'exec_cq'
p586
I1
sS'total_cq'
p587
I51
sa(dp588
g583
I73
sg584
F0.05649900436401367
sg585
F4.220008850097656e-05
sg586
I1
sg587
I3
sa(dp589
g583
I23
sg584
F0.04533100128173828
sg585
F5.602836608886719e-05
sg586
I1
sg587
I2
sasS'total_cqs'
p590
I51
ssI58
(dp591
S'iters'
p592
I4
sS'meta'
p593
(lp594
(dp595
S'objective'
p596
I84381
sS'query_time'
p597
F2.069365978240967
sS'comp_time'
p598
F0.0005469322204589844
sS'exec_cq'
p599
I1
sS'total_cq'
p600
I486
sa(dp601
g596
I13598
sg597
F0.5247390270233154
sg598
F6.103515625e-05
sg599
I1
sg600
I64
sa(dp602
g596
I637
sg597
F0.06569790840148926
sg598
F4.792213439941406e-05
sg599
I1
sg600
I6
sa(dp603
g596
I445
sg597
F0.05191993713378906
sg598
F2.5987625122070312e-05
sg599
I1
sg600
I2
sasS'total_cqs'
p604
I486
ssI59
(dp605
S'iters'
p606
I2
sS'meta'
p607
(lp608
(dp609
S'objective'
p610
I4
sS'query_time'
p611
F0.024717092514038086
sS'comp_time'
p612
F5.0067901611328125e-05
sS'exec_cq'
p613
I1
sS'total_cq'
p614
I7
sa(dp615
g610
I2
sg611
F0.04258298873901367
sg612
F5.602836608886719e-05
sg613
I2
sg614
I2
sasS'total_cqs'
p616
I7
ssI60
(dp617
S'iters'
p618
I1
sS'meta'
p619
(lp620
(dp621
S'objective'
p622
I5
sS'query_time'
p623
F0.012624025344848633
sS'comp_time'
p624
F6.699562072753906e-05
sS'exec_cq'
p625
I1
sS'total_cq'
p626
I5
sasS'total_cqs'
p627
I5
ssI61
(dp628
S'iters'
p629
I0
sS'meta'
p630
(lp631
sS'total_cqs'
p632
I1
ssI62
(dp633
S'iters'
p634
I1
sS'meta'
p635
(lp636
(dp637
S'objective'
p638
I54
sS'query_time'
p639
F0.0185091495513916
sS'comp_time'
p640
F7.605552673339844e-05
sS'exec_cq'
p641
I1
sS'total_cq'
p642
I12
sasS'total_cqs'
p643
I12
ssI63
(dp644
S'iters'
p645
I0
sS'meta'
p646
(lp647
sS'total_cqs'
p648
I1
ssI64
(dp649
S'iters'
p650
I2
sS'meta'
p651
(lp652
(dp653
S'objective'
p654
I32
sS'query_time'
p655
F0.040869951248168945
sS'comp_time'
p656
F5.412101745605469e-05
sS'exec_cq'
p657
I1
sS'total_cq'
p658
I12
sa(dp659
g654
I1
sg655
F0.012212038040161133
sg656
F2.9087066650390625e-05
sg657
I1
sg658
I3
sasS'total_cqs'
p660
I12
ssI65
(dp661
S'iters'
p662
I1
sS'meta'
p663
(lp664
(dp665
S'objective'
p666
I324
sS'query_time'
p667
F0.028644084930419922
sS'comp_time'
p668
F5.602836608886719e-05
sS'exec_cq'
p669
I1
sS'total_cq'
p670
I27
sasS'total_cqs'
p671
I27
ssI66
(dp672
S'iters'
p673
I0
sS'meta'
p674
(lp675
sS'total_cqs'
p676
I1
ssI67
(dp677
S'iters'
p678
I1
sS'meta'
p679
(lp680
(dp681
S'objective'
p682
I560
sS'query_time'
p683
F0.5854001045227051
sS'comp_time'
p684
F6.794929504394531e-05
sS'exec_cq'
p685
I1
sS'total_cq'
p686
I35
sasS'total_cqs'
p687
I35
ssI68
(dp688
S'iters'
p689
I0
sS'meta'
p690
(lp691
sS'total_cqs'
p692
I1
ssI69
(dp693
S'iters'
p694
I1
sS'meta'
p695
(lp696
(dp697
S'objective'
p698
I1224
sS'query_time'
p699
F0.11464405059814453
sS'comp_time'
p700
F9.894371032714844e-05
sS'exec_cq'
p701
I1
sS'total_cq'
p702
I51
sasS'total_cqs'
p703
I51
ssI70
(dp704
S'iters'
p705
I1
sS'meta'
p706
(lp707
(dp708
S'objective'
p709
I9
sS'query_time'
p710
F0.01125192642211914
sS'comp_time'
p711
F5.507469177246094e-05
sS'exec_cq'
p712
I1
sS'total_cq'
p713
I6
sasS'total_cqs'
p714
I6
ssI71
(dp715
S'iters'
p716
I1
sS'meta'
p717
(lp718
(dp719
S'objective'
p720
I3485
sS'query_time'
p721
F0.08007597923278809
sS'comp_time'
p722
F0.00012302398681640625
sS'exec_cq'
p723
I1
sS'total_cq'
p724
I85
sasS'total_cqs'
p725
I85
ssI72
(dp726
S'iters'
p727
I1
sS'meta'
p728
(lp729
(dp730
S'objective'
p731
I20
sS'query_time'
p732
F0.009085893630981445
sS'comp_time'
p733
F6.103515625e-05
sS'exec_cq'
p734
I1
sS'total_cq'
p735
I8
sasS'total_cqs'
p736
I8
ssI73
(dp737
S'iters'
p738
I0
sS'meta'
p739
(lp740
sS'total_cqs'
p741
I1
ssI74
(dp742
S'iters'
p743
I0
sS'meta'
p744
(lp745
sS'total_cqs'
p746
I1
ssI75
(dp747
S'iters'
p748
I1
sS'meta'
p749
(lp750
(dp751
S'objective'
p752
I5
sS'query_time'
p753
F0.0049591064453125
sS'comp_time'
p754
F4.506111145019531e-05
sS'exec_cq'
p755
I1
sS'total_cq'
p756
I5
sasS'total_cqs'
p757
I5
ssI76
(dp758
S'iters'
p759
I1
sS'meta'
p760
(lp761
(dp762
S'objective'
p763
I1
sS'query_time'
p764
F0.011156797409057617
sS'comp_time'
p765
F5.817413330078125e-05
sS'exec_cq'
p766
I1
sS'total_cq'
p767
I2
sasS'total_cqs'
p768
I2
ssI77
(dp769
S'iters'
p770
I0
sS'meta'
p771
(lp772
sS'total_cqs'
p773
I1
ssI78
(dp774
S'iters'
p775
I0
sS'meta'
p776
(lp777
sS'total_cqs'
p778
I1
ssI103
(dp779
S'iters'
p780
I1
sS'meta'
p781
(lp782
(dp783
S'objective'
p784
I54
sS'query_time'
p785
F0.028582096099853516
sS'comp_time'
p786
F7.104873657226562e-05
sS'exec_cq'
p787
I1
sS'total_cq'
p788
I12
sasS'total_cqs'
p789
I12
ssI104
(dp790
S'iters'
p791
I1
sS'meta'
p792
(lp793
(dp794
S'objective'
p795
I2
sS'query_time'
p796
F1.1989929676055908
sS'comp_time'
p797
F7.700920104980469e-05
sS'exec_cq'
p798
I1
sS'total_cq'
p799
I4
sasS'total_cqs'
p800
I4
ssI105
(dp801
S'iters'
p802
I0
sS'meta'
p803
(lp804
sS'total_cqs'
p805
I1
ssI106
(dp806
S'iters'
p807
I1
sS'meta'
p808
(lp809
(dp810
S'objective'
p811
I2
sS'query_time'
p812
F0.010452985763549805
sS'comp_time'
p813
F4.696846008300781e-05
sS'exec_cq'
p814
I1
sS'total_cq'
p815
I4
sasS'total_cqs'
p816
I4
ssI107
(dp817
S'iters'
p818
I1
sS'meta'
p819
(lp820
(dp821
S'objective'
p822
I104
sS'query_time'
p823
F0.033225059509277344
sS'comp_time'
p824
F7.700920104980469e-05
sS'exec_cq'
p825
I1
sS'total_cq'
p826
I16
sasS'total_cqs'
p827
I16
ssI108
(dp828
S'iters'
p829
I0
sS'meta'
p830
(lp831
sS'total_cqs'
p832
I1
ss.