(dp0
I1
(dp1
S'iters'
p2
I3
sS'meta'
p3
(lp4
(dp5
S'objective'
p6
I46
sS'query_time'
p7
F0.036267995834350586
sS'comp_time'
p8
F0.0002560615539550781
sS'exec_cq'
p9
I12
sS'total_cq'
p10
I12
sa(dp11
g6
I52
sg7
F4.8160552978515625e-05
sg8
F7.295608520507812e-05
sg9
I10
sg10
I10
sa(dp12
g6
I49
sg7
F3.600120544433594e-05
sg8
F5.412101745605469e-05
sg9
I9
sg10
I9
sasS'total_cqs'
p13
I12
ssI2
(dp14
S'iters'
p15
I6
sS'meta'
p16
(lp17
(dp18
S'objective'
p19
I282
sS'query_time'
p20
F0.12079596519470215
sS'comp_time'
p21
F0.0010833740234375
sS'exec_cq'
p22
I27
sS'total_cq'
p23
I27
sa(dp24
g19
I242
sg20
F0.0001499652862548828
sg21
F0.0004680156707763672
sg22
I24
sg23
I24
sa(dp25
g19
I232
sg20
F0.00010204315185546875
sg21
F0.00025582313537597656
sg22
I21
sg23
I21
sa(dp26
g19
I205
sg20
F8.58306884765625e-05
sg21
F0.00019407272338867188
sg22
I20
sg23
I20
sa(dp27
g19
I206
sg20
F7.700920104980469e-05
sg21
F0.00015091896057128906
sg22
I18
sg23
I18
sa(dp28
g19
I203
sg20
F6.699562072753906e-05
sg21
F0.00013303756713867188
sg22
I16
sg23
I16
sasS'total_cqs'
p29
I27
ssI3
(dp30
S'iters'
p31
I4
sS'meta'
p32
(lp33
(dp34
S'objective'
p35
I158
sS'query_time'
p36
F159.8674829006195
sS'comp_time'
p37
F1.5162720680236816
sS'exec_cq'
p38
I43
sS'total_cq'
p39
I43
sa(dp40
g35
I22
sg36
F0.3396759033203125
sg37
F1.3434569835662842
sg38
I27
sg39
I27
sa(dp41
g35
I13
sg36
F0.04337286949157715
sg37
F0.36496496200561523
sg38
I13
sg39
I13
sa(dp42
g35
I113
sg36
F5.698204040527344e-05
sg37
F0.0030930042266845703
sg38
I7
sg39
I7
sasS'total_cqs'
p43
I43
ssI4
(dp44
S'iters'
p45
I2
sS'meta'
p46
(lp47
(dp48
S'objective'
p49
I52
sS'query_time'
p50
F3.9417271614074707
sS'comp_time'
p51
F0.3797287940979004
sS'exec_cq'
p52
I11
sS'total_cq'
p53
I11
sa(dp54
g49
I1
sg50
F0.11363005638122559
sg51
F0.3971889019012451
sg52
I2
sg53
I2
sasS'total_cqs'
p55
I11
ssI5
(dp56
S'iters'
p57
I4
sS'meta'
p58
(lp59
(dp60
S'objective'
p61
I0
sS'query_time'
p62
F27.578384160995483
sS'comp_time'
p63
F2.4285600185394287
sS'exec_cq'
p64
I8
sS'total_cq'
p65
I8
sa(dp66
g61
I2
sg62
F0.009943008422851562
sg63
F0.0424799919128418
sg64
I4
sg65
I4
sa(dp67
g61
I0
sg62
F0.006489992141723633
sg63
F0.03524494171142578
sg64
I3
sg65
I3
sa(dp68
g61
I1
sg62
F0.0035369396209716797
sg63
F0.01564502716064453
sg64
I2
sg65
I2
sasS'total_cqs'
p69
I8
ssI6
(dp70
S'iters'
p71
I4
sS'meta'
p72
(lp73
(dp74
S'objective'
p75
I31
sS'query_time'
p76
F29.822976112365723
sS'comp_time'
p77
F2.5995688438415527
sS'exec_cq'
p78
I18
sS'total_cq'
p79
I18
sa(dp80
g75
I0
sg76
F0.6668980121612549
sg77
F2.5319130420684814
sg78
I7
sg79
I7
sa(dp81
g75
I1
sg76
F0.6101200580596924
sg77
F2.161817789077759
sg78
I4
sg79
I4
sa(dp82
g75
I6
sg76
F0.2908341884613037
sg77
F1.301671028137207
sg78
I2
sg79
I2
sasS'total_cqs'
p83
I18
ssI7
(dp84
S'iters'
p85
I3
sS'meta'
p86
(lp87
(dp88
S'objective'
p89
I1
sS'query_time'
p90
F9.777576923370361
sS'comp_time'
p91
F0.9550380706787109
sS'exec_cq'
p92
I9
sS'total_cq'
p93
I9
sa(dp94
g89
I1
sg90
F0.03487706184387207
sg91
F0.20261096954345703
sg92
I6
sg93
I6
sa(dp95
g89
I4
sg90
F0.002610921859741211
sg91
F0.012166976928710938
sg92
I2
sg93
I2
sasS'total_cqs'
p96
I9
ssI8
(dp97
S'iters'
p98
I4
sS'meta'
p99
(lp100
(dp101
S'objective'
p102
I166
sS'query_time'
p103
F0.16886401176452637
sS'comp_time'
p104
F0.0012447834014892578
sS'exec_cq'
p105
I27
sS'total_cq'
p106
I27
sa(dp107
g102
I204
sg103
F0.00013899803161621094
sg104
F0.00037598609924316406
sg105
I22
sg106
I22
sa(dp108
g102
I218
sg103
F6.699562072753906e-05
sg104
F9.107589721679688e-05
sg105
I19
sg106
I19
sa(dp109
g102
I212
sg103
F5.91278076171875e-05
sg104
F6.794929504394531e-05
sg105
I18
sg106
I18
sasS'total_cqs'
p110
I27
ssI9
(dp111
S'iters'
p112
I3
sS'meta'
p113
(lp114
(dp115
S'objective'
p116
I2
sS'query_time'
p117
F0.061492919921875
sS'comp_time'
p118
F0.00026106834411621094
sS'exec_cq'
p119
I7
sS'total_cq'
p120
I7
sa(dp121
g116
I1
sg117
F3.0994415283203125e-05
sg118
F6.198883056640625e-05
sg119
I4
sg120
I4
sa(dp122
g116
I1
sg117
F0.0014581680297851562
sg118
F6.103515625e-05
sg119
I2
sg120
I2
sasS'total_cqs'
p123
I7
ssI10
(dp124
S'iters'
p125
I7
sS'meta'
p126
(lp127
(dp128
S'objective'
p129
I606
sS'query_time'
p130
F0.4374849796295166
sS'comp_time'
p131
F0.006412982940673828
sS'exec_cq'
p132
I51
sS'total_cq'
p133
I51
sa(dp134
g129
I322
sg130
F0.00041413307189941406
sg131
F0.0013546943664550781
sg132
I37
sg133
I37
sa(dp135
g129
I0
sg130
F0.0014698505401611328
sg131
F0.0004889965057373047
sg132
I12
sg133
I12
sa(dp136
g129
I3
sg130
F7.414817810058594e-05
sg131
F0.00022912025451660156
sg132
I7
sg133
I7
sa(dp137
g129
I7
sg130
F4.506111145019531e-05
sg131
F0.00018715858459472656
sg132
I5
sg133
I5
sa(dp138
g129
I0
sg130
F3.504753112792969e-05
sg131
F0.00014710426330566406
sg132
I3
sg133
I3
sa(dp139
g129
I10
sg130
F2.7894973754882812e-05
sg131
F0.0001399517059326172
sg132
I2
sg133
I2
sasS'total_cqs'
p140
I51
ssI11
(dp141
S'iters'
p142
I7
sS'meta'
p143
(lp144
(dp145
S'objective'
p146
I904
sS'query_time'
p147
F0.6097049713134766
sS'comp_time'
p148
F0.014037132263183594
sS'exec_cq'
p149
I63
sS'total_cq'
p150
I63
sa(dp151
g146
I1032
sg147
F0.0008728504180908203
sg148
F0.0034203529357910156
sg149
I47
sg150
I47
sa(dp152
g146
I850
sg147
F0.0004620552062988281
sg148
F0.0024268627166748047
sg149
I40
sg150
I40
sa(dp153
g146
I850
sg147
F0.00037407875061035156
sg148
F0.0018279552459716797
sg149
I35
sg150
I35
sa(dp154
g146
I3
sg147
F0.0010700225830078125
sg148
F0.00013113021850585938
sg149
I6
sg150
I6
sa(dp155
g146
I11
sg147
F2.09808349609375e-05
sg148
F7.295608520507812e-05
sg149
I3
sg150
I3
sa(dp156
g146
I14
sg147
F1.2159347534179688e-05
sg148
F4.076957702636719e-05
sg149
I2
sg150
I2
sasS'total_cqs'
p157
I63
ssI12
(dp158
S'iters'
p159
I5
sS'meta'
p160
(lp161
(dp162
S'objective'
p163
I233
sS'query_time'
p164
F0.48569703102111816
sS'comp_time'
p165
F0.0071752071380615234
sS'exec_cq'
p166
I50
sS'total_cq'
p167
I50
sa(dp168
g163
I294
sg164
F0.0005178451538085938
sg165
F0.00202178955078125
sg166
I33
sg167
I33
sa(dp169
g163
I12
sg164
F0.0019941329956054688
sg165
F0.0013239383697509766
sg166
I8
sg167
I8
sa(dp170
g163
I25
sg164
F3.600120544433594e-05
sg165
F8.988380432128906e-05
sg166
I4
sg167
I4
sa(dp171
g163
I20
sg164
F1.71661376953125e-05
sg165
F5.888938903808594e-05
sg166
I2
sg167
I2
sasS'total_cqs'
p172
I50
ssI13
(dp173
S'iters'
p174
I5
sS'meta'
p175
(lp176
(dp177
S'objective'
p178
I34
sS'query_time'
p179
F0.18423914909362793
sS'comp_time'
p180
F0.0004010200500488281
sS'exec_cq'
p181
I20
sS'total_cq'
p182
I20
sa(dp183
g178
I8
sg179
F0.0011289119720458984
sg180
F0.0002961158752441406
sg181
I11
sg182
I11
sa(dp184
g178
I9
sg179
F3.910064697265625e-05
sg180
F7.891654968261719e-05
sg181
I5
sg182
I5
sa(dp185
g178
I4
sg179
F2.3126602172851562e-05
sg180
F6.508827209472656e-05
sg181
I3
sg182
I3
sa(dp186
g178
I2
sg179
F1.5020370483398438e-05
sg180
F4.792213439941406e-05
sg181
I2
sg182
I2
sasS'total_cqs'
p187
I20
ssI14
(dp188
S'iters'
p189
I3
sS'meta'
p190
(lp191
(dp192
S'objective'
p193
I1
sS'query_time'
p194
F26.82339310646057
sS'comp_time'
p195
F1.1695160865783691
sS'exec_cq'
p196
I9
sS'total_cq'
p197
I9
sa(dp198
g193
I1
sg194
F0.41138696670532227
sg195
F0.9785618782043457
sg196
I5
sg197
I5
sa(dp199
g193
I4
sg194
F0.1625819206237793
sg195
F0.4590880870819092
sg196
I2
sg197
I2
sasS'total_cqs'
p200
I9
ssI15
(dp201
S'iters'
p202
I4
sS'meta'
p203
(lp204
(dp205
S'objective'
p206
I0
sS'query_time'
p207
F3.101977825164795
sS'comp_time'
p208
F0.14864802360534668
sS'exec_cq'
p209
I11
sS'total_cq'
p210
I11
sa(dp211
g206
I1
sg207
F0.0331721305847168
sg208
F0.13249588012695312
sg209
I6
sg210
I6
sa(dp212
g206
I2
sg207
F0.010698080062866211
sg208
F0.07227206230163574
sg209
I4
sg210
I4
sa(dp213
g206
I1
sg207
F0.0008029937744140625
sg208
F0.00347900390625
sg209
I2
sg210
I2
sasS'total_cqs'
p214
I11
ssI16
(dp215
S'iters'
p216
I1
sS'meta'
p217
(lp218
(dp219
S'objective'
p220
I30
sS'query_time'
p221
F0.029614925384521484
sS'comp_time'
p222
F0.00013399124145507812
sS'exec_cq'
p223
I8
sS'total_cq'
p224
I8
sasS'total_cqs'
p225
I8
ssI17
(dp226
S'iters'
p227
I4
sS'meta'
p228
(lp229
(dp230
S'objective'
p231
I2
sS'query_time'
p232
F0.9033839702606201
sS'comp_time'
p233
F0.022392988204956055
sS'exec_cq'
p234
I11
sS'total_cq'
p235
I11
sa(dp236
g231
I2
sg232
F0.006969928741455078
sg233
F0.022436857223510742
sg234
I6
sg235
I6
sa(dp237
g231
I6
sg232
F0.004972934722900391
sg233
F0.03370809555053711
sg234
I3
sg235
I3
sa(dp238
g231
I3
sg232
F0.0016188621520996094
sg233
F0.008449077606201172
sg234
I2
sg235
I2
sasS'total_cqs'
p239
I11
ssI18
(dp240
S'iters'
p241
I4
sS'meta'
p242
(lp243
(dp244
S'objective'
p245
I40
sS'query_time'
p246
F0.2449169158935547
sS'comp_time'
p247
F0.003928184509277344
sS'exec_cq'
p248
I11
sS'total_cq'
p249
I11
sa(dp250
g245
I43
sg246
F0.000492095947265625
sg247
F0.0027420520782470703
sg248
I9
sg249
I9
sa(dp251
g245
I38
sg246
F0.0004889965057373047
sg247
F0.0025250911712646484
sg248
I8
sg249
I8
sa(dp252
g245
I35
sg246
F3.504753112792969e-05
sg247
F8.606910705566406e-05
sg248
I6
sg249
I6
sasS'total_cqs'
p253
I11
ssI22
(dp254
S'iters'
p255
I1
sS'meta'
p256
(lp257
(dp258
S'objective'
p259
I159
sS'query_time'
p260
F0.07586812973022461
sS'comp_time'
p261
F0.00017380714416503906
sS'exec_cq'
p262
I18
sS'total_cq'
p263
I18
sasS'total_cqs'
p264
I18
ssI23
(dp265
S'iters'
p266
I3
sS'meta'
p267
(lp268
(dp269
S'objective'
p270
I110
sS'query_time'
p271
F0.08771395683288574
sS'comp_time'
p272
F0.0007758140563964844
sS'exec_cq'
p273
I16
sS'total_cq'
p274
I16
sa(dp275
g270
I103
sg271
F0.00010704994201660156
sg272
F0.0003159046173095703
sg273
I14
sg274
I14
sa(dp276
g270
I103
sg271
F3.695487976074219e-05
sg272
F4.220008850097656e-05
sg273
I13
sg274
I13
sasS'total_cqs'
p277
I16
ssI26
(dp278
S'iters'
p279
I1
sS'meta'
p280
(lp281
(dp282
S'objective'
p283
I879
sS'query_time'
p284
F0.20441007614135742
sS'comp_time'
p285
F0.00017523765563964844
sS'exec_cq'
p286
I42
sS'total_cq'
p287
I42
sasS'total_cqs'
p288
I42
ssI27
(dp289
S'iters'
p290
I4
sS'meta'
p291
(lp292
(dp293
S'objective'
p294
I295
sS'query_time'
p295
F17.24919104576111
sS'comp_time'
p296
F1.9287469387054443
sS'exec_cq'
p297
I30
sS'total_cq'
p298
I30
sa(dp299
g294
I1
sg295
F0.4687461853027344
sg296
F2.2239959239959717
sg297
I5
sg298
I5
sa(dp300
g294
I5
sg295
F0.37670207023620605
sg296
F1.6312751770019531
sg297
I3
sg298
I3
sa(dp301
g294
I6
sg295
F0.17042088508605957
sg296
F0.3824641704559326
sg297
I2
sg298
I2
sasS'total_cqs'
p302
I30
ssI29
(dp303
S'iters'
p304
I5
sS'meta'
p305
(lp306
(dp307
S'objective'
p308
I195
sS'query_time'
p309
F134.11282205581665
sS'comp_time'
p310
F13.353786706924438
sS'exec_cq'
p311
I49
sS'total_cq'
p312
I49
sa(dp313
g308
I9
sg309
F0.0214078426361084
sg310
F0.046109914779663086
sg311
I17
sg312
I17
sa(dp314
g308
I5
sg309
F0.0013761520385742188
sg310
F0.0048980712890625
sg311
I9
sg312
I9
sa(dp315
g308
I20
sg309
F0.0007469654083251953
sg310
F0.0037910938262939453
sg311
I4
sg312
I4
sa(dp316
g308
I24
sg309
F0.0008590221405029297
sg310
F0.002969026565551758
sg311
I2
sg312
I2
sasS'total_cqs'
p317
I49
ssI30
(dp318
S'iters'
p319
I1
sS'meta'
p320
(lp321
(dp322
S'objective'
p323
I1
sS'query_time'
p324
F0.6386501789093018
sS'comp_time'
p325
F0.02348613739013672
sS'exec_cq'
p326
I2
sS'total_cq'
p327
I2
sasS'total_cqs'
p328
I2
ssI32
(dp329
S'iters'
p330
I1
sS'meta'
p331
(lp332
(dp333
S'objective'
p334
I1
sS'query_time'
p335
F0.012387990951538086
sS'comp_time'
p336
F0.00045418739318847656
sS'exec_cq'
p337
I2
sS'total_cq'
p338
I2
sasS'total_cqs'
p339
I2
ssI33
(dp340
S'iters'
p341
I6
sS'meta'
p342
(lp343
(dp344
S'objective'
p345
I3872
sS'query_time'
p346
F15.070569038391113
sS'comp_time'
p347
F0.12828874588012695
sS'exec_cq'
p348
I103
sS'total_cq'
p349
I103
sa(dp350
g345
I24
sg346
F0.007555961608886719
sg347
F0.040315866470336914
sg348
I16
sg349
I16
sa(dp351
g345
I19
sg346
F0.002933025360107422
sg347
F0.01337885856628418
sg348
I9
sg349
I9
sa(dp352
g345
I16
sg346
F0.0016908645629882812
sg347
F0.007737874984741211
sg348
I6
sg349
I6
sa(dp353
g345
I19
sg346
F0.0003788471221923828
sg347
F0.0021719932556152344
sg348
I4
sg349
I4
sa(dp354
g345
I2
sg346
F0.00013494491577148438
sg347
F0.0007698535919189453
sg348
I2
sg349
I2
sasS'total_cqs'
p355
I103
ssI34
(dp356
S'iters'
p357
I1
sS'meta'
p358
(lp359
(dp360
S'objective'
p361
I1
sS'query_time'
p362
F0.019526004791259766
sS'comp_time'
p363
F0.0008268356323242188
sS'exec_cq'
p364
I2
sS'total_cq'
p365
I2
sasS'total_cqs'
p366
I2
ssI35
(dp367
S'iters'
p368
I11
sS'meta'
p369
(lp370
(dp371
S'objective'
p372
I2369
sS'query_time'
p373
F48.56851005554199
sS'comp_time'
p374
F3.408032178878784
sS'exec_cq'
p375
I70
sS'total_cq'
p376
I70
sa(dp377
g372
I2335
sg373
F0.8449819087982178
sg374
F3.327637195587158
sg375
I69
sg376
I69
sa(dp378
g372
I2193
sg373
F0.8152148723602295
sg374
F3.3366050720214844
sg375
I68
sg376
I68
sa(dp379
g372
I2221
sg373
F1.13975191116333
sg374
F3.7401740550994873
sg375
I65
sg376
I65
sa(dp380
g372
I2218
sg373
F0.8256170749664307
sg374
F3.446070909500122
sg375
I64
sg376
I64
sa(dp381
g372
I2208
sg373
F0.7051551342010498
sg374
F3.308316946029663
sg375
I63
sg376
I63
sa(dp382
g372
I2070
sg373
F0.06224179267883301
sg374
F0.06468081474304199
sg375
I62
sg376
I62
sa(dp383
g372
I2010
sg373
F0.2683990001678467
sg374
F0.2230510711669922
sg375
I60
sg376
I60
sa(dp384
g372
I1718
sg373
F0.2149960994720459
sg374
F0.2133650779724121
sg375
I59
sg376
I59
sa(dp385
g372
I46
sg373
F0.04424023628234863
sg374
F0.03919196128845215
sg375
I4
sg376
I4
sa(dp386
g372
I75
sg373
F0.32444071769714355
sg374
F0.03461718559265137
sg375
I3
sg376
I3
sasS'total_cqs'
p387
I70
ssI36
(dp388
S'iters'
p389
I5
sS'meta'
p390
(lp391
(dp392
S'objective'
p393
I441
sS'query_time'
p394
F0.7813670635223389
sS'comp_time'
p395
F0.026036977767944336
sS'exec_cq'
p396
I33
sS'total_cq'
p397
I33
sa(dp398
g393
I383
sg394
F0.0034210681915283203
sg395
F0.01643681526184082
sg396
I29
sg397
I29
sa(dp399
g393
I376
sg394
F0.0011529922485351562
sg395
F0.005934715270996094
sg396
I25
sg397
I25
sa(dp400
g393
I377
sg394
F0.0003809928894042969
sg395
F0.0020012855529785156
sg396
I24
sg397
I24
sa(dp401
g393
I373
sg394
F9.393692016601562e-05
sg395
F0.00023603439331054688
sg396
I23
sg397
I23
sasS'total_cqs'
p402
I33
ssI37
(dp403
S'iters'
p404
I1
sS'meta'
p405
(lp406
(dp407
S'objective'
p408
I1
sS'query_time'
p409
F0.010792970657348633
sS'comp_time'
p410
F0.0002868175506591797
sS'exec_cq'
p411
I2
sS'total_cq'
p412
I2
sasS'total_cqs'
p413
I2
ssI38
(dp414
S'iters'
p415
I2
sS'meta'
p416
(lp417
(dp418
S'objective'
p419
I0
sS'query_time'
p420
F0.02584218978881836
sS'comp_time'
p421
F0.0006799697875976562
sS'exec_cq'
p422
I4
sS'total_cq'
p423
I4
sa(dp424
g419
I1
sg420
F6.985664367675781e-05
sg421
F0.0003268718719482422
sg422
I2
sg423
I2
sasS'total_cqs'
p425
I4
ssI39
(dp426
S'iters'
p427
I2
sS'meta'
p428
(lp429
(dp430
S'objective'
p431
I752
sS'query_time'
p432
F0.24025797843933105
sS'comp_time'
p433
F0.00174713134765625
sS'exec_cq'
p434
I44
sS'total_cq'
p435
I44
sa(dp436
g431
I847
sg432
F0.0004761219024658203
sg433
F0.0012960433959960938
sg434
I37
sg435
I37
sasS'total_cqs'
p437
I44
ssI40
(dp438
S'iters'
p439
I1
sS'meta'
p440
(lp441
(dp442
S'objective'
p443
I22
sS'query_time'
p444
F0.03541898727416992
sS'comp_time'
p445
F0.00011229515075683594
sS'exec_cq'
p446
I7
sS'total_cq'
p447
I7
sasS'total_cqs'
p448
I7
ssI41
(dp449
S'iters'
p450
I2
sS'meta'
p451
(lp452
(dp453
S'objective'
p454
I64
sS'query_time'
p455
F0.07324099540710449
sS'comp_time'
p456
F0.00012302398681640625
sS'exec_cq'
p457
I12
sS'total_cq'
p458
I12
sa(dp459
g454
I63
sg455
F3.600120544433594e-05
sg456
F5.1021575927734375e-05
sg457
I11
sg458
I11
sasS'total_cqs'
p460
I12
ssI42
(dp461
S'iters'
p462
I3
sS'meta'
p463
(lp464
(dp465
S'objective'
p466
I787
sS'query_time'
p467
F0.12106895446777344
sS'comp_time'
p468
F0.00017309188842773438
sS'exec_cq'
p469
I41
sS'total_cq'
p470
I41
sa(dp471
g466
I782
sg467
F0.0001571178436279297
sg468
F0.00010395050048828125
sg469
I40
sg470
I40
sa(dp472
g466
I779
sg467
F0.00013303756713867188
sg468
F9.584426879882812e-05
sg469
I39
sg470
I39
sasS'total_cqs'
p473
I41
ssI43
(dp474
S'iters'
p475
I1
sS'meta'
p476
(lp477
(dp478
S'objective'
p479
I22
sS'query_time'
p480
F0.025999784469604492
sS'comp_time'
p481
F9.584426879882812e-05
sS'exec_cq'
p482
I7
sS'total_cq'
p483
I7
sasS'total_cqs'
p484
I7
ssI44
(dp485
S'iters'
p486
I4
sS'meta'
p487
(lp488
(dp489
S'objective'
p490
I728
sS'query_time'
p491
F0.1967010498046875
sS'comp_time'
p492
F0.0011553764343261719
sS'exec_cq'
p493
I47
sS'total_cq'
p494
I47
sa(dp495
g490
I808
sg491
F0.0003490447998046875
sg492
F0.0013287067413330078
sg493
I40
sg494
I40
sa(dp496
g490
I24
sg491
F0.0022749900817871094
sg492
F0.0005280971527099609
sg493
I3
sg494
I3
sa(dp497
g490
I8
sg491
F8.106231689453125e-05
sg492
F0.0005106925964355469
sg493
I2
sg494
I2
sasS'total_cqs'
p498
I47
ssI46
(dp499
S'iters'
p500
I2
sS'meta'
p501
(lp502
(dp503
S'objective'
p504
I11
sS'query_time'
p505
F0.02045893669128418
sS'comp_time'
p506
F0.00026679039001464844
sS'exec_cq'
p507
I6
sS'total_cq'
p508
I6
sa(dp509
g504
I10
sg505
F2.7179718017578125e-05
sg506
F5.2928924560546875e-05
sg507
I5
sg508
I5
sasS'total_cqs'
p510
I6
ssI47
(dp511
S'iters'
p512
I1
sS'meta'
p513
(lp514
(dp515
S'objective'
p516
I1
sS'query_time'
p517
F0.010464191436767578
sS'comp_time'
p518
F0.000263214111328125
sS'exec_cq'
p519
I2
sS'total_cq'
p520
I2
sasS'total_cqs'
p521
I2
ssI50
(dp522
S'iters'
p523
I3
sS'meta'
p524
(lp525
(dp526
S'objective'
p527
I5
sS'query_time'
p528
F0.015145063400268555
sS'comp_time'
p529
F0.00012373924255371094
sS'exec_cq'
p530
I5
sS'total_cq'
p531
I5
sa(dp532
g527
I2
sg528
F3.0994415283203125e-05
sg529
F9.226799011230469e-05
sg530
I4
sg531
I4
sa(dp533
g527
I0
sg528
F2.3126602172851562e-05
sg529
F7.486343383789062e-05
sg530
I3
sg531
I3
sasS'total_cqs'
p534
I5
ssI51
(dp535
S'iters'
p536
I1
sS'meta'
p537
(lp538
(dp539
S'objective'
p540
I1
sS'query_time'
p541
F0.012001991271972656
sS'comp_time'
p542
F0.00020503997802734375
sS'exec_cq'
p543
I2
sS'total_cq'
p544
I2
sasS'total_cqs'
p545
I2
ssI52
(dp546
S'iters'
p547
I1
sS'meta'
p548
(lp549
(dp550
S'objective'
p551
I1
sS'query_time'
p552
F0.008105993270874023
sS'comp_time'
p553
F0.00018310546875
sS'exec_cq'
p554
I2
sS'total_cq'
p555
I2
sasS'total_cqs'
p556
I2
ssI53
(dp557
S'iters'
p558
I3
sS'meta'
p559
(lp560
(dp561
S'objective'
p562
I2
sS'query_time'
p563
F0.028770923614501953
sS'comp_time'
p564
F0.0008289813995361328
sS'exec_cq'
p565
I4
sS'total_cq'
p566
I4
sa(dp567
g562
I0
sg563
F0.00015115737915039062
sg564
F0.0006749629974365234
sg565
I3
sg566
I3
sa(dp568
g562
I1
sg563
F0.0001239776611328125
sg564
F0.00067901611328125
sg565
I2
sg566
I2
sasS'total_cqs'
p569
I4
ssI54
(dp570
S'iters'
p571
I2
sS'meta'
p572
(lp573
(dp574
S'objective'
p575
I0
sS'query_time'
p576
F0.012274980545043945
sS'comp_time'
p577
F0.0002760887145996094
sS'exec_cq'
p578
I3
sS'total_cq'
p579
I3
sa(dp580
g575
I1
sg576
F4.00543212890625e-05
sg577
F0.00018906593322753906
sg578
I2
sg579
I2
sasS'total_cqs'
p581
I3
ssI55
(dp582
S'iters'
p583
I8
sS'meta'
p584
(lp585
(dp586
S'objective'
p587
I4647
sS'query_time'
p588
F2.3114819526672363
sS'comp_time'
p589
F0.03144216537475586
sS'exec_cq'
p590
I109
sS'total_cq'
p591
I109
sa(dp592
g587
I4521
sg588
F0.0008032321929931641
sg589
F0.0015718936920166016
sg590
I97
sg591
I97
sa(dp593
g587
I4429
sg588
F0.0003008842468261719
sg589
F0.0008108615875244141
sg590
I91
sg591
I91
sa(dp594
g587
I4337
sg588
F0.00028586387634277344
sg589
F0.0007419586181640625
sg590
I87
sg591
I87
sa(dp595
g587
I4178
sg588
F0.0002770423889160156
sg589
F0.0007960796356201172
sg590
I85
sg591
I85
sa(dp596
g587
I4018
sg588
F0.000247955322265625
sg589
F0.0004978179931640625
sg590
I83
sg591
I83
sa(dp597
g587
I4092
sg588
F0.00023603439331054688
sg589
F0.0004241466522216797
sg590
I81
sg591
I81
sa(dp598
g587
I4078
sg588
F0.0002269744873046875
sg589
F0.000392913818359375
sg590
I80
sg591
I80
sasS'total_cqs'
p599
I109
ssI56
(dp600
S'iters'
p601
I5
sS'meta'
p602
(lp603
(dp604
S'objective'
p605
I1630
sS'query_time'
p606
F3.3932180404663086
sS'comp_time'
p607
F0.13108110427856445
sS'exec_cq'
p608
I76
sS'total_cq'
p609
I76
sa(dp610
g605
I22
sg606
F0.0050640106201171875
sg607
F0.00960683822631836
sg608
I16
sg609
I16
sa(dp611
g605
I19
sg606
F0.0023849010467529297
sg607
F0.006506919860839844
sg608
I8
sg609
I8
sa(dp612
g605
I1
sg606
F0.0010480880737304688
sg607
F0.0036029815673828125
sg608
I4
sg609
I4
sa(dp613
g605
I49
sg606
F0.0005590915679931641
sg607
F0.00302886962890625
sg608
I2
sg609
I2
sasS'total_cqs'
p614
I76
ssI57
(dp615
S'iters'
p616
I6
sS'meta'
p617
(lp618
(dp619
S'objective'
p620
I82
sS'query_time'
p621
F68.38306903839111
sS'comp_time'
p622
F3.6836020946502686
sS'exec_cq'
p623
I51
sS'total_cq'
p624
I51
sa(dp625
g620
I6
sg621
F0.013104915618896484
sg622
F0.0280148983001709
sg623
I27
sg624
I27
sa(dp626
g620
I80
sg621
F0.0020360946655273438
sg622
F0.005716085433959961
sg623
I13
sg624
I13
sa(dp627
g620
I21
sg621
F0.0016660690307617188
sg622
F0.00521397590637207
sg623
I9
sg624
I9
sa(dp628
g620
I2
sg621
F0.0014221668243408203
sg622
F0.0040438175201416016
sg623
I6
sg624
I6
sa(dp629
g620
I17
sg621
F0.0002079010009765625
sg622
F0.0010251998901367188
sg623
I2
sg624
I2
sasS'total_cqs'
p630
I51
ssI58
(dp631
S'iters'
p632
I10
sS'meta'
p633
(lp634
(dp635
S'objective'
p636
I87253
sS'query_time'
p637
F288.2617039680481
sS'comp_time'
p638
F16.74234104156494
sS'exec_cq'
p639
I486
sS'total_cq'
p640
I486
sa(dp641
g636
I9638
sg637
F0.03608894348144531
sg638
F0.17425274848937988
sg639
I64
sg640
I64
sa(dp642
g636
I2901
sg637
F0.031126022338867188
sg638
F0.17644190788269043
sg639
I52
sg640
I52
sa(dp643
g636
I2442
sg637
F0.01827096939086914
sg638
F0.8377950191497803
sg639
I32
sg640
I32
sa(dp644
g636
I628
sg637
F0.008363962173461914
sg638
F0.032301902770996094
sg639
I21
sg640
I21
sa(dp645
g636
I859
sg637
F0.00477290153503418
sg638
F0.028558015823364258
sg639
I11
sg640
I11
sa(dp646
g636
I812
sg637
F0.0025658607482910156
sg638
F0.017781972885131836
sg639
I7
sg640
I7
sa(dp647
g636
I118
sg637
F0.0029098987579345703
sg638
F0.023210763931274414
sg639
I5
sg640
I5
sa(dp648
g636
I111
sg637
F0.0012590885162353516
sg638
F0.005017995834350586
sg639
I3
sg640
I3
sa(dp649
g636
I3
sg637
F0.00026988983154296875
sg638
F0.001155853271484375
sg639
I2
sg640
I2
sasS'total_cqs'
p650
I486
ssI59
(dp651
S'iters'
p652
I2
sS'meta'
p653
(lp654
(dp655
S'objective'
p656
I14
sS'query_time'
p657
F0.04681992530822754
sS'comp_time'
p658
F0.0011477470397949219
sS'exec_cq'
p659
I7
sS'total_cq'
p660
I7
sa(dp661
g656
I1
sg657
F0.00011301040649414062
sg658
F0.0007009506225585938
sg659
I2
sg660
I2
sasS'total_cqs'
p662
I7
ssI60
(dp663
S'iters'
p664
I2
sS'meta'
p665
(lp666
(dp667
S'objective'
p668
I5
sS'query_time'
p669
F0.020066022872924805
sS'comp_time'
p670
F0.0003769397735595703
sS'exec_cq'
p671
I5
sS'total_cq'
p672
I5
sa(dp673
g668
I4
sg669
F7.295608520507812e-05
sg670
F0.0007140636444091797
sg671
I4
sg672
I4
sasS'total_cqs'
p674
I5
ssI62
(dp675
S'iters'
p676
I3
sS'meta'
p677
(lp678
(dp679
S'objective'
p680
I18
sS'query_time'
p681
F0.033865928649902344
sS'comp_time'
p682
F0.000186920166015625
sS'exec_cq'
p683
I12
sS'total_cq'
p684
I12
sa(dp685
g680
I38
sg681
F4.8160552978515625e-05
sg682
F6.508827209472656e-05
sg683
I9
sg684
I9
sa(dp686
g680
I35
sg681
F3.1948089599609375e-05
sg682
F5.2928924560546875e-05
sg683
I8
sg684
I8
sasS'total_cqs'
p687
I12
ssI64
(dp688
S'iters'
p689
I3
sS'meta'
p690
(lp691
(dp692
S'objective'
p693
I18
sS'query_time'
p694
F0.1464691162109375
sS'comp_time'
p695
F0.007045745849609375
sS'exec_cq'
p696
I12
sS'total_cq'
p697
I12
sa(dp698
g693
I2
sg694
F9.393692016601562e-05
sg695
F0.00035119056701660156
sg696
I4
sg697
I4
sa(dp699
g693
I8
sg694
F3.790855407714844e-05
sg695
F0.0001659393310546875
sg696
I2
sg697
I2
sasS'total_cqs'
p700
I12
ssI65
(dp701
S'iters'
p702
I4
sS'meta'
p703
(lp704
(dp705
S'objective'
p706
I148
sS'query_time'
p707
F0.8076181411743164
sS'comp_time'
p708
F0.03443789482116699
sS'exec_cq'
p709
I27
sS'total_cq'
p710
I27
sa(dp711
g706
I1
sg707
F0.0012869834899902344
sg708
F0.004240751266479492
sg709
I7
sg710
I7
sa(dp712
g706
I4
sg707
F0.0001621246337890625
sg708
F0.0007872581481933594
sg709
I3
sg710
I3
sa(dp713
g706
I15
sg707
F8.20159912109375e-05
sg708
F0.0004639625549316406
sg709
I2
sg710
I2
sasS'total_cqs'
p714
I27
ssI67
(dp715
S'iters'
p716
I2
sS'meta'
p717
(lp718
(dp719
S'objective'
p720
I556
sS'query_time'
p721
F1.3320472240447998
sS'comp_time'
p722
F0.008050918579101562
sS'exec_cq'
p723
I35
sS'total_cq'
p724
I35
sa(dp725
g720
I17
sg721
F0.0013120174407958984
sg722
F0.005717277526855469
sg723
I2
sg724
I2
sasS'total_cqs'
p726
I35
ssI69
(dp727
S'iters'
p728
I1
sS'meta'
p729
(lp730
(dp731
S'objective'
p732
I1298
sS'query_time'
p733
F0.21205997467041016
sS'comp_time'
p734
F0.00023984909057617188
sS'exec_cq'
p735
I51
sS'total_cq'
p736
I51
sasS'total_cqs'
p737
I51
ssI70
(dp738
S'iters'
p739
I3
sS'meta'
p740
(lp741
(dp742
S'objective'
p743
I9
sS'query_time'
p744
F0.025974035263061523
sS'comp_time'
p745
F0.0002639293670654297
sS'exec_cq'
p746
I6
sS'total_cq'
p747
I6
sa(dp748
g743
I5
sg744
F6.198883056640625e-05
sg745
F0.00021791458129882812
sg746
I5
sg747
I5
sa(dp749
g743
I4
sg744
F5.0067901611328125e-05
sg745
F0.0001437664031982422
sg746
I4
sg747
I4
sasS'total_cqs'
p750
I6
ssI71
(dp751
S'iters'
p752
I7
sS'meta'
p753
(lp754
(dp755
S'objective'
p756
I3259
sS'query_time'
p757
F0.3827989101409912
sS'comp_time'
p758
F0.0008649826049804688
sS'exec_cq'
p759
I85
sS'total_cq'
p760
I85
sa(dp761
g756
I3067
sg757
F0.00037097930908203125
sg758
F0.0006320476531982422
sg759
I81
sg760
I81
sa(dp762
g756
I2902
sg757
F0.0002758502960205078
sg758
F0.0005300045013427734
sg759
I77
sg760
I77
sa(dp763
g756
I2838
sg757
F0.0002548694610595703
sg758
F0.00041985511779785156
sg759
I74
sg760
I74
sa(dp764
g756
I2746
sg757
F0.00023889541625976562
sg758
F0.0003502368927001953
sg759
I71
sg760
I71
sa(dp765
g756
I21
sg757
F0.0019381046295166016
sg758
F0.00017189979553222656
sg759
I3
sg760
I3
sa(dp766
g756
I3
sg757
F0.0036041736602783203
sg758
F0.0001690387725830078
sg759
I2
sg760
I2
sasS'total_cqs'
p767
I85
ssI72
(dp768
S'iters'
p769
I3
sS'meta'
p770
(lp771
(dp772
S'objective'
p773
I6
sS'query_time'
p774
F0.4058229923248291
sS'comp_time'
p775
F0.005493879318237305
sS'exec_cq'
p776
I8
sS'total_cq'
p777
I8
sa(dp778
g773
I1
sg774
F0.0004241466522216797
sg775
F0.002397298812866211
sg776
I6
sg777
I6
sa(dp779
g773
I4
sg774
F3.600120544433594e-05
sg775
F0.00013303756713867188
sg776
I3
sg777
I3
sasS'total_cqs'
p780
I8
ssI75
(dp781
S'iters'
p782
I3
sS'meta'
p783
(lp784
(dp785
S'objective'
p786
I5
sS'query_time'
p787
F0.011960983276367188
sS'comp_time'
p788
F0.00012493133544921875
sS'exec_cq'
p789
I5
sS'total_cq'
p790
I5
sa(dp791
g786
I2
sg787
F3.409385681152344e-05
sg788
F7.772445678710938e-05
sg789
I4
sg790
I4
sa(dp792
g786
I0
sg787
F2.002716064453125e-05
sg788
F6.914138793945312e-05
sg789
I3
sg790
I3
sasS'total_cqs'
p793
I5
ssI76
(dp794
S'iters'
p795
I1
sS'meta'
p796
(lp797
(dp798
S'objective'
p799
I1
sS'query_time'
p800
F0.013029098510742188
sS'comp_time'
p801
F0.00030994415283203125
sS'exec_cq'
p802
I2
sS'total_cq'
p803
I2
sasS'total_cqs'
p804
I2
ssI103
(dp805
S'iters'
p806
I2
sS'meta'
p807
(lp808
(dp809
S'objective'
p810
I54
sS'query_time'
p811
F0.09208106994628906
sS'comp_time'
p812
F0.00019288063049316406
sS'exec_cq'
p813
I12
sS'total_cq'
p814
I12
sa(dp815
g810
I58
sg811
F7.009506225585938e-05
sg812
F0.00011992454528808594
sg813
I11
sg814
I11
sasS'total_cqs'
p816
I12
ssI104
(dp817
S'iters'
p818
I2
sS'meta'
p819
(lp820
(dp821
S'objective'
p822
I2
sS'query_time'
p823
F1.6243538856506348
sS'comp_time'
p824
F0.10793900489807129
sS'exec_cq'
p825
I4
sS'total_cq'
p826
I4
sa(dp827
g822
I2
sg823
F0.013843059539794922
sg824
F0.12601804733276367
sg825
I2
sg826
I2
sasS'total_cqs'
p828
I4
ssI106
(dp829
S'iters'
p830
I1
sS'meta'
p831
(lp832
(dp833
S'objective'
p834
I6
sS'query_time'
p835
F0.03130006790161133
sS'comp_time'
p836
F9.179115295410156e-05
sS'exec_cq'
p837
I4
sS'total_cq'
p838
I4
sasS'total_cqs'
p839
I4
ssI107
(dp840
S'iters'
p841
I2
sS'meta'
p842
(lp843
(dp844
S'objective'
p845
I84
sS'query_time'
p846
F0.09820103645324707
sS'comp_time'
p847
F0.00019311904907226562
sS'exec_cq'
p848
I16
sS'total_cq'
p849
I16
sa(dp850
g845
I16
sg846
F0.0073549747467041016
sg847
F0.00011420249938964844
sg848
I3
sg849
I3
sasS'total_cqs'
p851
I16
ss.