(dp0
I1
(dp1
S'iters'
p2
I4
sS'meta'
p3
(lp4
(dp5
S'objective'
p6
I8
sS'query_time'
p7
F0.03837108612060547
sS'comp_time'
p8
F0.0178070068359375
sS'exec_cq'
p9
I12
sS'total_cq'
p10
I12
sa(dp11
g6
I8
sg7
F5.602836608886719e-05
sg8
F0.0001609325408935547
sg9
I10
sg10
I10
sa(dp12
g6
I7
sg7
F4.220008850097656e-05
sg8
F0.00010585784912109375
sg9
I9
sg10
I9
sa(dp13
g6
I6
sg7
F3.1948089599609375e-05
sg8
F7.05718994140625e-05
sg9
I8
sg10
I8
sasS'total_cqs'
p14
I12
ssI2
(dp15
S'iters'
p16
I6
sS'meta'
p17
(lp18
(dp19
S'objective'
p20
I19
sS'query_time'
p21
F0.12778592109680176
sS'comp_time'
p22
F0.03300619125366211
sS'exec_cq'
p23
I27
sS'total_cq'
p24
I27
sa(dp25
g20
I17
sg21
F0.0002028942108154297
sg22
F0.0008206367492675781
sg23
I23
sg24
I23
sa(dp26
g20
I16
sg21
F0.00012803077697753906
sg22
F0.0004477500915527344
sg23
I20
sg24
I20
sa(dp27
g20
I14
sg21
F0.00010609626770019531
sg22
F0.0003883838653564453
sg23
I18
sg24
I18
sa(dp28
g20
I14
sg21
F8.702278137207031e-05
sg22
F0.0002269744873046875
sg23
I16
sg24
I16
sa(dp29
g20
I13
sg21
F8.20159912109375e-05
sg22
F0.00018310546875
sg23
I15
sg24
I15
sasS'total_cqs'
p30
I27
ssI3
(dp31
S'iters'
p32
I4
sS'meta'
p33
(lp34
(dp35
S'objective'
p36
I27
sS'query_time'
p37
F227.9060399532318
sS'comp_time'
p38
F1.9070889949798584
sS'exec_cq'
p39
I39
sS'total_cq'
p40
I43
sa(dp41
g36
I21
sg37
F0.5799930095672607
sg38
F2.240067958831787
sg39
I31
sg40
I35
sa(dp42
g36
I22
sg37
F12.304141283035278
sg38
F0.4594905376434326
sg39
I28
sg40
I28
sa(dp43
g36
I23
sg37
F0.02241659164428711
sg38
F0.00018167495727539062
sg39
I25
sg40
I25
sasS'total_cqs'
p44
I43
ssI4
(dp45
S'iters'
p46
I2
sS'meta'
p47
(lp48
(dp49
S'objective'
p50
I7
sS'query_time'
p51
F4.783398866653442
sS'comp_time'
p52
F0.32036709785461426
sS'exec_cq'
p53
I11
sS'total_cq'
p54
I11
sa(dp55
g50
I0
sg51
F0.16726303100585938
sg52
F0.24874496459960938
sg53
I2
sg54
I2
sasS'total_cqs'
p56
I11
ssI5
(dp57
S'iters'
p58
I3
sS'meta'
p59
(lp60
(dp61
S'objective'
p62
I0
sS'query_time'
p63
F32.1403169631958
sS'comp_time'
p64
F1.453780174255371
sS'exec_cq'
p65
I8
sS'total_cq'
p66
I8
sa(dp67
g62
I0
sg63
F0.4189748764038086
sg64
F1.1838979721069336
sg65
I4
sg66
I4
sa(dp68
g62
I0
sg63
F0.00407099723815918
sg64
F0.0057260990142822266
sg65
I2
sg66
I2
sasS'total_cqs'
p69
I8
ssI6
(dp70
S'iters'
p71
I4
sS'meta'
p72
(lp73
(dp74
S'objective'
p75
I4
sS'query_time'
p76
F36.15099000930786
sS'comp_time'
p77
F1.5937070846557617
sS'exec_cq'
p78
I18
sS'total_cq'
p79
I18
sa(dp80
g75
I1
sg76
F0.6725599765777588
sg77
F2.3693246841430664
sg78
I7
sg79
I7
sa(dp81
g75
I0
sg76
F0.303372859954834
sg77
F1.2416620254516602
sg78
I4
sg79
I4
sa(dp82
g75
I0
sg76
F0.11323809623718262
sg77
F0.017442703247070312
sg78
I2
sg79
I2
sasS'total_cqs'
p83
I18
ssI7
(dp84
S'iters'
p85
I4
sS'meta'
p86
(lp87
(dp88
S'objective'
p89
I1
sS'query_time'
p90
F13.170546054840088
sS'comp_time'
p91
F0.8553345203399658
sS'exec_cq'
p92
I9
sS'total_cq'
p93
I9
sa(dp94
g89
I1
sg90
F0.2971210479736328
sg91
F0.6145739555358887
sg92
I5
sg93
I5
sa(dp95
g89
I1
sg90
F0.21357417106628418
sg91
F0.3283660411834717
sg92
I3
sg93
I3
sa(dp96
g89
I0
sg90
F0.17078208923339844
sg91
F0.29131436347961426
sg92
I2
sg93
I2
sasS'total_cqs'
p97
I9
ssI8
(dp98
S'iters'
p99
I3
sS'meta'
p100
(lp101
(dp102
S'objective'
p103
I17
sS'query_time'
p104
F0.15467476844787598
sS'comp_time'
p105
F0.0305941104888916
sS'exec_cq'
p106
I27
sS'total_cq'
p107
I27
sa(dp108
g103
I16
sg104
F0.0001590251922607422
sg105
F0.0005521774291992188
sg106
I22
sg107
I22
sa(dp109
g103
I17
sg104
F7.319450378417969e-05
sg105
F0.00022411346435546875
sg106
I19
sg107
I19
sasS'total_cqs'
p110
I27
ssI9
(dp111
S'iters'
p112
I3
sS'meta'
p113
(lp114
(dp115
S'objective'
p116
I1
sS'query_time'
p117
F0.06468987464904785
sS'comp_time'
p118
F0.004278898239135742
sS'exec_cq'
p119
I7
sS'total_cq'
p120
I7
sa(dp121
g116
I0
sg117
F2.9087066650390625e-05
sg118
F0.00019311904907226562
sg119
I4
sg120
I4
sa(dp122
g116
I0
sg117
F1.4066696166992188e-05
sg118
F5.793571472167969e-05
sg119
I2
sg120
I2
sasS'total_cqs'
p123
I7
ssI10
(dp124
S'iters'
p125
I6
sS'meta'
p126
(lp127
(dp128
S'objective'
p129
I23
sS'query_time'
p130
F0.3139231204986572
sS'comp_time'
p131
F0.08610272407531738
sS'exec_cq'
p132
I51
sS'total_cq'
p133
I51
sa(dp134
g129
I13
sg130
F0.0004107952117919922
sg131
F0.002824068069458008
sg132
I37
sg133
I37
sa(dp135
g129
I0
sg130
F0.0018658638000488281
sg131
F0.0032796859741210938
sg132
I12
sg133
I12
sa(dp136
g129
I0
sg130
F5.5789947509765625e-05
sg131
F0.0003371238708496094
sg132
I6
sg133
I6
sa(dp137
g129
I1
sg130
F2.5987625122070312e-05
sg131
F0.00014328956604003906
sg132
I3
sg133
I3
sa(dp138
g129
I0
sg130
F1.6927719116210938e-05
sg131
F7.510185241699219e-05
sg132
I2
sg133
I2
sasS'total_cqs'
p139
I51
ssI11
(dp140
S'iters'
p141
I5
sS'meta'
p142
(lp143
(dp144
S'objective'
p145
I31
sS'query_time'
p146
F0.5640130043029785
sS'comp_time'
p147
F0.16961932182312012
sS'exec_cq'
p148
I63
sS'total_cq'
p149
I63
sa(dp150
g145
I29
sg146
F0.0010509490966796875
sg147
F0.0038580894470214844
sg148
I47
sg149
I47
sa(dp151
g145
I1
sg146
F0.0018908977508544922
sg147
F0.0021719932556152344
sg148
I9
sg149
I9
sa(dp152
g145
I0
sg146
F3.1948089599609375e-05
sg147
F0.0002465248107910156
sg148
I4
sg149
I4
sa(dp153
g145
I0
sg146
F1.5974044799804688e-05
sg147
F8.678436279296875e-05
sg148
I2
sg149
I2
sasS'total_cqs'
p154
I63
ssI12
(dp155
S'iters'
p156
I5
sS'meta'
p157
(lp158
(dp159
S'objective'
p160
I16
sS'query_time'
p161
F0.370650053024292
sS'comp_time'
p162
F0.10564589500427246
sS'exec_cq'
p163
I50
sS'total_cq'
p164
I50
sa(dp165
g160
I17
sg161
F0.0005269050598144531
sg162
F0.002660036087036133
sg163
I33
sg164
I33
sa(dp166
g160
I0
sg161
F0.0015749931335449219
sg162
F0.0011653900146484375
sg163
I8
sg164
I8
sa(dp167
g160
I0
sg161
F0.00015687942504882812
sg162
F0.0005939006805419922
sg163
I4
sg164
I4
sa(dp168
g160
I0
sg161
F2.2172927856445312e-05
sg162
F9.202957153320312e-05
sg163
I2
sg164
I2
sasS'total_cqs'
p169
I50
ssI13
(dp170
S'iters'
p171
I3
sS'meta'
p172
(lp173
(dp174
S'objective'
p175
I2
sS'query_time'
p176
F0.21864008903503418
sS'comp_time'
p177
F0.028081178665161133
sS'exec_cq'
p178
I20
sS'total_cq'
p179
I20
sa(dp180
g175
I5
sg176
F7.581710815429688e-05
sg177
F0.0005595684051513672
sg178
I9
sg179
I9
sa(dp181
g175
I0
sg176
F0.002401113510131836
sg177
F0.00024509429931640625
sg178
I2
sg179
I2
sasS'total_cqs'
p182
I20
ssI14
(dp183
S'iters'
p184
I3
sS'meta'
p185
(lp186
(dp187
S'objective'
p188
I1
sS'query_time'
p189
F31.02256202697754
sS'comp_time'
p190
F0.9902143478393555
sS'exec_cq'
p191
I9
sS'total_cq'
p192
I9
sa(dp193
g188
I0
sg189
F0.08849811553955078
sg190
F0.565636157989502
sg191
I4
sg192
I4
sa(dp194
g188
I0
sg189
F0.009823083877563477
sg190
F0.012209892272949219
sg191
I2
sg192
I2
sasS'total_cqs'
p195
I9
ssI15
(dp196
S'iters'
p197
I3
sS'meta'
p198
(lp199
(dp200
S'objective'
p201
I1
sS'query_time'
p202
F3.8087990283966064
sS'comp_time'
p203
F0.09638619422912598
sS'exec_cq'
p204
I11
sS'total_cq'
p205
I11
sa(dp206
g201
I1
sg202
F0.031007051467895508
sg203
F0.034194231033325195
sg204
I5
sg205
I5
sa(dp207
g201
I0
sg202
F0.001344919204711914
sg203
F0.0014793872833251953
sg204
I2
sg205
I2
sasS'total_cqs'
p208
I11
ssI16
(dp209
S'iters'
p210
I1
sS'meta'
p211
(lp212
(dp213
S'objective'
p214
I6
sS'query_time'
p215
F0.029417037963867188
sS'comp_time'
p216
F0.0074939727783203125
sS'exec_cq'
p217
I8
sS'total_cq'
p218
I8
sasS'total_cqs'
p219
I8
ssI17
(dp220
S'iters'
p221
I4
sS'meta'
p222
(lp223
(dp224
S'objective'
p225
I1
sS'query_time'
p226
F0.9160439968109131
sS'comp_time'
p227
F0.03378605842590332
sS'exec_cq'
p228
I11
sS'total_cq'
p229
I11
sa(dp230
g225
I3
sg226
F0.00015401840209960938
sg227
F0.0004620552062988281
sg228
I5
sg229
I5
sa(dp231
g225
I2
sg226
F0.00010704994201660156
sg227
F0.00023102760314941406
sg228
I4
sg229
I4
sa(dp232
g225
I1
sg226
F0.00010704994201660156
sg227
F0.00023484230041503906
sg228
I3
sg229
I3
sasS'total_cqs'
p233
I11
ssI18
(dp234
S'iters'
p235
I2
sS'meta'
p236
(lp237
(dp238
S'objective'
p239
I5
sS'query_time'
p240
F0.24643278121948242
sS'comp_time'
p241
F0.026367664337158203
sS'exec_cq'
p242
I11
sS'total_cq'
p243
I11
sa(dp244
g239
I6
sg240
F0.0003311634063720703
sg241
F0.0006608963012695312
sg242
I8
sg243
I8
sasS'total_cqs'
p245
I11
ssI22
(dp246
S'iters'
p247
I1
sS'meta'
p248
(lp249
(dp250
S'objective'
p251
I16
sS'query_time'
p252
F0.050199031829833984
sS'comp_time'
p253
F0.027951717376708984
sS'exec_cq'
p254
I18
sS'total_cq'
p255
I18
sasS'total_cqs'
p256
I18
ssI23
(dp257
S'iters'
p258
I3
sS'meta'
p259
(lp260
(dp261
S'objective'
p262
I12
sS'query_time'
p263
F0.08484101295471191
sS'comp_time'
p264
F0.03411102294921875
sS'exec_cq'
p265
I16
sS'total_cq'
p266
I16
sa(dp267
g262
I12
sg263
F0.0001068115234375
sg264
F0.00020933151245117188
sg265
I14
sg266
I14
sa(dp268
g262
I11
sg263
F5.221366882324219e-05
sg264
F7.796287536621094e-05
sg265
I13
sg266
I13
sasS'total_cqs'
p269
I16
ssI26
(dp270
S'iters'
p271
I1
sS'meta'
p272
(lp273
(dp274
S'objective'
p275
I40
sS'query_time'
p276
F0.14540791511535645
sS'comp_time'
p277
F0.13116121292114258
sS'exec_cq'
p278
I42
sS'total_cq'
p279
I42
sasS'total_cqs'
p280
I42
ssI27
(dp281
S'iters'
p282
I3
sS'meta'
p283
(lp284
(dp285
S'objective'
p286
I20
sS'query_time'
p287
F23.09484601020813
sS'comp_time'
p288
F1.7116527557373047
sS'exec_cq'
p289
I30
sS'total_cq'
p290
I30
sa(dp291
g286
I1
sg287
F0.46266913414001465
sg288
F1.3370211124420166
sg289
I5
sg290
I5
sa(dp292
g286
I1
sg287
F0.3815469741821289
sg288
F0.7835650444030762
sg289
I3
sg290
I3
sasS'total_cqs'
p293
I30
ssI29
(dp294
S'iters'
p295
I6
sS'meta'
p296
(lp297
(dp298
S'objective'
p299
I15
sS'query_time'
p300
F27.237985849380493
sS'comp_time'
p301
F0.4042470455169678
sS'exec_cq'
p302
I35
sS'total_cq'
p303
I49
sa(dp304
g299
I1
sg300
F0.04964017868041992
sg301
F0.2356419563293457
sg302
I17
sg303
I17
sa(dp305
g299
I1
sg300
F0.0017299652099609375
sg301
F0.002579212188720703
sg302
I9
sg303
I9
sa(dp306
g299
I1
sg300
F0.0007531642913818359
sg301
F0.0017781257629394531
sg302
I5
sg303
I5
sa(dp307
g299
I1
sg300
F0.0005991458892822266
sg301
F0.0009961128234863281
sg302
I3
sg303
I3
sa(dp308
g299
I0
sg300
F0.0005919933319091797
sg301
F0.0009109973907470703
sg302
I2
sg303
I2
sasS'total_cqs'
p309
I49
ssI30
(dp310
S'iters'
p311
I1
sS'meta'
p312
(lp313
(dp314
S'objective'
p315
I0
sS'query_time'
p316
F0.6794168949127197
sS'comp_time'
p317
F0.01341700553894043
sS'exec_cq'
p318
I2
sS'total_cq'
p319
I2
sasS'total_cqs'
p320
I2
ssI32
(dp321
S'iters'
p322
I1
sS'meta'
p323
(lp324
(dp325
S'objective'
p326
I0
sS'query_time'
p327
F0.009405136108398438
sS'comp_time'
p328
F0.0018739700317382812
sS'exec_cq'
p329
I2
sS'total_cq'
p330
I2
sasS'total_cqs'
p331
I2
ssI33
(dp332
S'iters'
p333
I5
sS'meta'
p334
(lp335
(dp336
S'objective'
p337
I71
sS'query_time'
p338
F16.59040403366089
sS'comp_time'
p339
F0.9225170612335205
sS'exec_cq'
p340
I103
sS'total_cq'
p341
I103
sa(dp342
g337
I0
sg338
F0.010290861129760742
sg339
F0.04572486877441406
sg340
I16
sg341
I16
sa(dp343
g337
I0
sg338
F0.0054280757904052734
sg339
F0.008085250854492188
sg340
I8
sg341
I8
sa(dp344
g337
I0
sg338
F0.0008690357208251953
sg339
F0.0014150142669677734
sg340
I4
sg341
I4
sa(dp345
g337
I0
sg338
F0.0004088878631591797
sg339
F0.0007731914520263672
sg340
I2
sg341
I2
sasS'total_cqs'
p346
I103
ssI34
(dp347
S'iters'
p348
I1
sS'meta'
p349
(lp350
(dp351
S'objective'
p352
I0
sS'query_time'
p353
F0.029018878936767578
sS'comp_time'
p354
F0.0021152496337890625
sS'exec_cq'
p355
I2
sS'total_cq'
p356
I2
sasS'total_cqs'
p357
I2
ssI35
(dp358
S'iters'
p359
I6
sS'meta'
p360
(lp361
(dp362
S'objective'
p363
I38
sS'query_time'
p364
F70.95509600639343
sS'comp_time'
p365
F2.9879369735717773
sS'exec_cq'
p366
I70
sS'total_cq'
p367
I70
sa(dp368
g363
I4
sg364
F0.0050868988037109375
sg365
F0.011979103088378906
sg366
I16
sg367
I16
sa(dp369
g363
I0
sg364
F0.0026061534881591797
sg365
F0.007061958312988281
sg366
I10
sg367
I10
sa(dp370
g363
I1
sg364
F0.0009169578552246094
sg365
F0.0021991729736328125
sg366
I5
sg367
I5
sa(dp371
g363
I1
sg364
F0.00024080276489257812
sg365
F0.0005621910095214844
sg366
I3
sg367
I3
sa(dp372
g363
I0
sg364
F7.605552673339844e-05
sg365
F0.00021505355834960938
sg366
I2
sg367
I2
sasS'total_cqs'
p373
I70
ssI36
(dp374
S'iters'
p375
I3
sS'meta'
p376
(lp377
(dp378
S'objective'
p379
I25
sS'query_time'
p380
F0.8890917301177979
sS'comp_time'
p381
F0.10993027687072754
sS'exec_cq'
p382
I33
sS'total_cq'
p383
I33
sa(dp384
g379
I21
sg380
F0.007487297058105469
sg381
F0.015045404434204102
sg382
I29
sg383
I29
sa(dp385
g379
I23
sg380
F0.002443075180053711
sg381
F0.0037932395935058594
sg382
I25
sg383
I25
sasS'total_cqs'
p386
I33
ssI37
(dp387
S'iters'
p388
I1
sS'meta'
p389
(lp390
(dp391
S'objective'
p392
I0
sS'query_time'
p393
F0.03183794021606445
sS'comp_time'
p394
F0.006911754608154297
sS'exec_cq'
p395
I2
sS'total_cq'
p396
I2
sasS'total_cqs'
p397
I2
ssI38
(dp398
S'iters'
p399
I2
sS'meta'
p400
(lp401
(dp402
S'objective'
p403
I0
sS'query_time'
p404
F0.032446861267089844
sS'comp_time'
p405
F0.0032007694244384766
sS'exec_cq'
p406
I4
sS'total_cq'
p407
I4
sa(dp408
g403
I0
sg404
F8.296966552734375e-05
sg405
F0.0001900196075439453
sg406
I2
sg407
I2
sasS'total_cqs'
p409
I4
ssI39
(dp410
S'iters'
p411
I2
sS'meta'
p412
(lp413
(dp414
S'objective'
p415
I30
sS'query_time'
p416
F0.21773004531860352
sS'comp_time'
p417
F0.08897161483764648
sS'exec_cq'
p418
I44
sS'total_cq'
p419
I44
sa(dp420
g415
I35
sg416
F0.0004000663757324219
sg417
F0.0010499954223632812
sg418
I37
sg419
I37
sasS'total_cqs'
p421
I44
ssI40
(dp422
S'iters'
p423
I1
sS'meta'
p424
(lp425
(dp426
S'objective'
p427
I5
sS'query_time'
p428
F0.03318500518798828
sS'comp_time'
p429
F0.0061342716217041016
sS'exec_cq'
p430
I7
sS'total_cq'
p431
I7
sasS'total_cqs'
p432
I7
ssI41
(dp433
S'iters'
p434
I1
sS'meta'
p435
(lp436
(dp437
S'objective'
p438
I10
sS'query_time'
p439
F0.08392810821533203
sS'comp_time'
p440
F0.015289068222045898
sS'exec_cq'
p441
I12
sS'total_cq'
p442
I12
sasS'total_cqs'
p443
I12
ssI42
(dp444
S'iters'
p445
I1
sS'meta'
p446
(lp447
(dp448
S'objective'
p449
I39
sS'query_time'
p450
F0.22024106979370117
sS'comp_time'
p451
F0.2848341464996338
sS'exec_cq'
p452
I41
sS'total_cq'
p453
I41
sasS'total_cqs'
p454
I41
ssI43
(dp455
S'iters'
p456
I1
sS'meta'
p457
(lp458
(dp459
S'objective'
p460
I5
sS'query_time'
p461
F0.051589012145996094
sS'comp_time'
p462
F0.0066912174224853516
sS'exec_cq'
p463
I7
sS'total_cq'
p464
I7
sasS'total_cqs'
p465
I7
ssI44
(dp466
S'iters'
p467
I4
sS'meta'
p468
(lp469
(dp470
S'objective'
p471
I33
sS'query_time'
p472
F0.14619684219360352
sS'comp_time'
p473
F0.09226703643798828
sS'exec_cq'
p474
I47
sS'total_cq'
p475
I47
sa(dp476
g471
I34
sg472
F0.0003190040588378906
sg473
F0.0010612010955810547
sg474
I40
sg475
I40
sa(dp477
g471
I1
sg472
F0.0013511180877685547
sg473
F0.0012593269348144531
sg474
I3
sg475
I3
sa(dp478
g471
I0
sg472
F2.5033950805664062e-05
sg473
F9.608268737792969e-05
sg474
I2
sg475
I2
sasS'total_cqs'
p479
I47
ssI46
(dp480
S'iters'
p481
I2
sS'meta'
p482
(lp483
(dp484
S'objective'
p485
I4
sS'query_time'
p486
F0.11122417449951172
sS'comp_time'
p487
F0.002807140350341797
sS'exec_cq'
p488
I6
sS'total_cq'
p489
I6
sa(dp490
g485
I3
sg486
F7.605552673339844e-05
sg487
F0.0001595020294189453
sg488
I5
sg489
I5
sasS'total_cqs'
p491
I6
ssI47
(dp492
S'iters'
p493
I1
sS'meta'
p494
(lp495
(dp496
S'objective'
p497
I0
sS'query_time'
p498
F0.018630027770996094
sS'comp_time'
p499
F0.00168609619140625
sS'exec_cq'
p500
I2
sS'total_cq'
p501
I2
sasS'total_cqs'
p502
I2
ssI50
(dp503
S'iters'
p504
I1
sS'meta'
p505
(lp506
(dp507
S'objective'
p508
I3
sS'query_time'
p509
F0.017553091049194336
sS'comp_time'
p510
F0.0021088123321533203
sS'exec_cq'
p511
I5
sS'total_cq'
p512
I5
sasS'total_cqs'
p513
I5
ssI51
(dp514
S'iters'
p515
I1
sS'meta'
p516
(lp517
(dp518
S'objective'
p519
I0
sS'query_time'
p520
F0.006721019744873047
sS'comp_time'
p521
F0.0008471012115478516
sS'exec_cq'
p522
I2
sS'total_cq'
p523
I2
sasS'total_cqs'
p524
I2
ssI52
(dp525
S'iters'
p526
I1
sS'meta'
p527
(lp528
(dp529
S'objective'
p530
I0
sS'query_time'
p531
F0.009212970733642578
sS'comp_time'
p532
F0.0010852813720703125
sS'exec_cq'
p533
I2
sS'total_cq'
p534
I2
sasS'total_cqs'
p535
I2
ssI53
(dp536
S'iters'
p537
I2
sS'meta'
p538
(lp539
(dp540
S'objective'
p541
I0
sS'query_time'
p542
F0.06336307525634766
sS'comp_time'
p543
F0.003954887390136719
sS'exec_cq'
p544
I4
sS'total_cq'
p545
I4
sa(dp546
g541
I0
sg542
F0.00010895729064941406
sg543
F0.00036263465881347656
sg544
I2
sg545
I2
sasS'total_cqs'
p547
I4
ssI54
(dp548
S'iters'
p549
I2
sS'meta'
p550
(lp551
(dp552
S'objective'
p553
I1
sS'query_time'
p554
F0.0894021987915039
sS'comp_time'
p555
F0.0016179084777832031
sS'exec_cq'
p556
I3
sS'total_cq'
p557
I3
sa(dp558
g553
I0
sg554
F4.410743713378906e-05
sg555
F0.0001201629638671875
sg556
I2
sg557
I2
sasS'total_cqs'
p559
I3
ssI55
(dp560
S'iters'
p561
I9
sS'meta'
p562
(lp563
(dp564
S'objective'
p565
I85
sS'query_time'
p566
F2.348996162414551
sS'comp_time'
p567
F0.5754127502441406
sS'exec_cq'
p568
I109
sS'total_cq'
p569
I109
sa(dp570
g565
I85
sg566
F0.0011420249938964844
sg567
F0.004576921463012695
sg568
I97
sg569
I97
sa(dp571
g565
I83
sg566
F0.00044083595275878906
sg567
F0.0017108917236328125
sg568
I91
sg569
I91
sa(dp572
g565
I83
sg566
F0.0004429817199707031
sg567
F0.0014591217041015625
sg568
I87
sg569
I87
sa(dp573
g565
I81
sg566
F0.00039005279541015625
sg567
F0.0009214878082275391
sg568
I85
sg569
I85
sa(dp574
g565
I79
sg566
F0.0003650188446044922
sg567
F0.0008757114410400391
sg568
I83
sg569
I83
sa(dp575
g565
I79
sg566
F0.00032591819763183594
sg567
F0.0005750656127929688
sg568
I81
sg569
I81
sa(dp576
g565
I78
sg566
F0.0003299713134765625
sg567
F0.00040721893310546875
sg568
I80
sg569
I80
sa(dp577
g565
I77
sg566
F0.00034999847412109375
sg567
F0.000396728515625
sg568
I79
sg569
I79
sasS'total_cqs'
p578
I109
ssI56
(dp579
S'iters'
p580
I5
sS'meta'
p581
(lp582
(dp583
S'objective'
p584
I44
sS'query_time'
p585
F1.5073699951171875
sS'comp_time'
p586
F0.3776719570159912
sS'exec_cq'
p587
I67
sS'total_cq'
p588
I76
sa(dp589
g584
I0
sg585
F0.007143974304199219
sg586
F0.04964399337768555
sg587
I16
sg588
I16
sa(dp590
g584
I0
sg585
F0.003113985061645508
sg586
F0.005350589752197266
sg587
I8
sg588
I8
sa(dp591
g584
I0
sg585
F0.00040411949157714844
sg586
F0.0009667873382568359
sg587
I4
sg588
I4
sa(dp592
g584
I0
sg585
F0.00019407272338867188
sg586
F0.00044798851013183594
sg587
I2
sg588
I2
sasS'total_cqs'
p593
I76
ssI57
(dp594
S'iters'
p595
I5
sS'meta'
p596
(lp597
(dp598
S'objective'
p599
I11
sS'query_time'
p600
F25.08292293548584
sS'comp_time'
p601
F0.2964463233947754
sS'exec_cq'
p602
I45
sS'total_cq'
p603
I51
sa(dp604
g599
I5
sg600
F0.022223949432373047
sg601
F0.04349875450134277
sg602
I31
sg603
I31
sa(dp605
g599
I1
sg600
F0.0028657913208007812
sg601
F0.0041027069091796875
sg602
I13
sg603
I13
sa(dp606
g599
I0
sg600
F0.001519918441772461
sg601
F0.002557039260864258
sg602
I6
sg603
I6
sa(dp607
g599
I1
sg600
F0.0011069774627685547
sg601
F0.0010771751403808594
sg602
I3
sg603
I3
sasS'total_cqs'
p608
I51
ssI58
(dp609
S'iters'
p610
I6
sS'meta'
p611
(lp612
(dp613
S'objective'
p614
I342
sS'query_time'
p615
F326.85122299194336
sS'comp_time'
p616
F25.478837251663208
sS'exec_cq'
p617
I486
sS'total_cq'
p618
I486
sa(dp619
g614
I358
sg615
F5.524251937866211
sg616
F9.31624698638916
sg617
I414
sg618
I414
sa(dp620
g614
I0
sg615
F0.016071081161499023
sg616
F0.12225914001464844
sg617
I28
sg618
I28
sa(dp621
g614
I0
sg615
F0.006350994110107422
sg616
F0.039945125579833984
sg617
I14
sg618
I14
sa(dp622
g614
I1
sg615
F0.004691123962402344
sg616
F0.00648808479309082
sg617
I7
sg618
I7
sa(dp623
g614
I1
sg615
F0.0017349720001220703
sg616
F0.002966165542602539
sg617
I3
sg618
I3
sasS'total_cqs'
p624
I486
ssI59
(dp625
S'iters'
p626
I2
sS'meta'
p627
(lp628
(dp629
S'objective'
p630
I3
sS'query_time'
p631
F0.12104606628417969
sS'comp_time'
p632
F0.006360530853271484
sS'exec_cq'
p633
I7
sS'total_cq'
p634
I7
sa(dp635
g630
I0
sg631
F0.00023698806762695312
sg632
F0.0004494190216064453
sg633
I2
sg634
I2
sasS'total_cqs'
p636
I7
ssI60
(dp637
S'iters'
p638
I3
sS'meta'
p639
(lp640
(dp641
S'objective'
p642
I3
sS'query_time'
p643
F0.01954483985900879
sS'comp_time'
p644
F0.0032758712768554688
sS'exec_cq'
p645
I4
sS'total_cq'
p646
I5
sa(dp647
g642
I2
sg643
F5.602836608886719e-05
sg644
F0.00016808509826660156
sg645
I3
sg646
I4
sa(dp648
g642
I1
sg643
F0.0027081966400146484
sg644
F8.821487426757812e-05
sg645
I3
sg646
I3
sasS'total_cqs'
p649
I5
ssI62
(dp650
S'iters'
p651
I3
sS'meta'
p652
(lp653
(dp654
S'objective'
p655
I6
sS'query_time'
p656
F0.03606891632080078
sS'comp_time'
p657
F0.014954805374145508
sS'exec_cq'
p658
I12
sS'total_cq'
p659
I12
sa(dp660
g655
I7
sg656
F4.696846008300781e-05
sg657
F0.00014829635620117188
sg658
I9
sg659
I9
sa(dp661
g655
I6
sg656
F3.218650817871094e-05
sg657
F6.580352783203125e-05
sg658
I8
sg659
I8
sasS'total_cqs'
p662
I12
ssI64
(dp663
S'iters'
p664
I3
sS'meta'
p665
(lp666
(dp667
S'objective'
p668
I4
sS'query_time'
p669
F0.11609101295471191
sS'comp_time'
p670
F0.01922917366027832
sS'exec_cq'
p671
I12
sS'total_cq'
p672
I12
sa(dp673
g668
I0
sg669
F0.00010704994201660156
sg670
F0.0005102157592773438
sg671
I4
sg672
I4
sa(dp674
g668
I0
sg669
F2.5987625122070312e-05
sg670
F0.00010609626770019531
sg671
I2
sg672
I2
sasS'total_cqs'
p675
I12
ssI65
(dp676
S'iters'
p677
I4
sS'meta'
p678
(lp679
(dp680
S'objective'
p681
I13
sS'query_time'
p682
F0.8073160648345947
sS'comp_time'
p683
F0.05208253860473633
sS'exec_cq'
p684
I27
sS'total_cq'
p685
I27
sa(dp686
g681
I1
sg682
F0.2006521224975586
sg683
F0.00331878662109375
sg684
I7
sg685
I7
sa(dp687
g681
I0
sg682
F0.000553131103515625
sg683
F0.0012917518615722656
sg684
I4
sg685
I4
sa(dp688
g681
I0
sg682
F0.0001201629638671875
sg683
F0.00026488304138183594
sg684
I2
sg685
I2
sasS'total_cqs'
p689
I27
ssI67
(dp690
S'iters'
p691
I2
sS'meta'
p692
(lp693
(dp694
S'objective'
p695
I31
sS'query_time'
p696
F0.9526169300079346
sS'comp_time'
p697
F0.15926003456115723
sS'exec_cq'
p698
I35
sS'total_cq'
p699
I35
sa(dp700
g695
I0
sg696
F0.001522064208984375
sg697
F0.0023169517517089844
sg698
I2
sg699
I2
sasS'total_cqs'
p701
I35
ssI69
(dp702
S'iters'
p703
I1
sS'meta'
p704
(lp705
(dp706
S'objective'
p707
I49
sS'query_time'
p708
F0.16397690773010254
sS'comp_time'
p709
F0.1220860481262207
sS'exec_cq'
p710
I51
sS'total_cq'
p711
I51
sasS'total_cqs'
p712
I51
ssI70
(dp713
S'iters'
p714
I1
sS'meta'
p715
(lp716
(dp717
S'objective'
p718
I4
sS'query_time'
p719
F0.019469022750854492
sS'comp_time'
p720
F0.0032639503479003906
sS'exec_cq'
p721
I6
sS'total_cq'
p722
I6
sasS'total_cqs'
p723
I6
ssI71
(dp724
S'iters'
p725
I6
sS'meta'
p726
(lp727
(dp728
S'objective'
p729
I77
sS'query_time'
p730
F0.3199470043182373
sS'comp_time'
p731
F0.1980149745941162
sS'exec_cq'
p732
I85
sS'total_cq'
p733
I85
sa(dp734
g729
I73
sg730
F0.0003249645233154297
sg731
F0.0012059211730957031
sg732
I81
sg733
I81
sa(dp735
g729
I71
sg730
F0.0003039836883544922
sg731
F0.0009920597076416016
sg732
I77
sg733
I77
sa(dp736
g729
I68
sg730
F0.00025081634521484375
sg731
F0.0008456707000732422
sg732
I74
sg733
I74
sa(dp737
g729
I65
sg730
F0.0002422332763671875
sg731
F0.0006532669067382812
sg732
I71
sg733
I71
sa(dp738
g729
I1
sg730
F0.002050161361694336
sg731
F0.0022635459899902344
sg732
I3
sg733
I3
sasS'total_cqs'
p739
I85
ssI72
(dp740
S'iters'
p741
I3
sS'meta'
p742
(lp743
(dp744
S'objective'
p745
I2
sS'query_time'
p746
F0.366178035736084
sS'comp_time'
p747
F0.003980159759521484
sS'exec_cq'
p748
I8
sS'total_cq'
p749
I8
sa(dp750
g745
I1
sg746
F8.320808410644531e-05
sg747
F0.0001506805419921875
sg748
I4
sg749
I5
sa(dp751
g745
I1
sg746
F1.8835067749023438e-05
sg747
F3.2901763916015625e-05
sg748
I2
sg749
I3
sasS'total_cqs'
p752
I8
ssI75
(dp753
S'iters'
p754
I4
sS'meta'
p755
(lp756
(dp757
S'objective'
p758
I3
sS'query_time'
p759
F0.012528181076049805
sS'comp_time'
p760
F0.001645803451538086
sS'exec_cq'
p761
I5
sS'total_cq'
p762
I5
sa(dp763
g758
I2
sg759
F2.5033950805664062e-05
sg760
F0.0001201629638671875
sg761
I4
sg762
I4
sa(dp764
g758
I1
sg759
F1.8835067749023438e-05
sg760
F9.012222290039062e-05
sg761
I3
sg762
I3
sa(dp765
g758
I0
sg759
F1.5020370483398438e-05
sg760
F6.914138793945312e-05
sg761
I2
sg762
I2
sasS'total_cqs'
p766
I5
ssI76
(dp767
S'iters'
p768
I1
sS'meta'
p769
(lp770
(dp771
S'objective'
p772
I0
sS'query_time'
p773
F0.014233827590942383
sS'comp_time'
p774
F0.0008549690246582031
sS'exec_cq'
p775
I2
sS'total_cq'
p776
I2
sasS'total_cqs'
p777
I2
ssI103
(dp778
S'iters'
p779
I2
sS'meta'
p780
(lp781
(dp782
S'objective'
p783
I10
sS'query_time'
p784
F0.05978512763977051
sS'comp_time'
p785
F0.024164915084838867
sS'exec_cq'
p786
I12
sS'total_cq'
p787
I12
sa(dp788
g783
I9
sg784
F4.9114227294921875e-05
sg785
F0.00011301040649414062
sg786
I11
sg787
I11
sasS'total_cqs'
p789
I12
ssI104
(dp790
S'iters'
p791
I2
sS'meta'
p792
(lp793
(dp794
S'objective'
p795
I0
sS'query_time'
p796
F1.3659510612487793
sS'comp_time'
p797
F0.11159038543701172
sS'exec_cq'
p798
I4
sS'total_cq'
p799
I4
sa(dp800
g795
I0
sg796
F0.013406991958618164
sg797
F0.023070812225341797
sg798
I2
sg799
I2
sasS'total_cqs'
p801
I4
ssI106
(dp802
S'iters'
p803
I1
sS'meta'
p804
(lp805
(dp806
S'objective'
p807
I2
sS'query_time'
p808
F0.023466110229492188
sS'comp_time'
p809
F0.002522706985473633
sS'exec_cq'
p810
I4
sS'total_cq'
p811
I4
sasS'total_cqs'
p812
I4
ssI107
(dp813
S'iters'
p814
I2
sS'meta'
p815
(lp816
(dp817
S'objective'
p818
I10
sS'query_time'
p819
F0.09853792190551758
sS'comp_time'
p820
F0.020557880401611328
sS'exec_cq'
p821
I16
sS'total_cq'
p822
I16
sa(dp823
g818
I1
sg819
F0.006930112838745117
sg820
F0.00035881996154785156
sg821
I3
sg822
I3
sasS'total_cqs'
p824
I16
ss.