(dp0
I1
(dp1
S'iters'
p2
I2
sS'meta'
p3
(lp4
(dp5
S'objective'
p6
I38
sS'query_time'
p7
F0.03155398368835449
sS'comp_time'
p8
F0.00021696090698242188
sS'exec_cq'
p9
I12
sS'total_cq'
p10
I12
sa(dp11
g6
I38
sg7
F4.9114227294921875e-05
sg8
F7.414817810058594e-05
sg9
I10
sg10
I10
sasS'total_cqs'
p12
I12
ssI2
(dp13
S'iters'
p14
I5
sS'meta'
p15
(lp16
(dp17
S'objective'
p18
I270
sS'query_time'
p19
F0.14201712608337402
sS'comp_time'
p20
F0.0013420581817626953
sS'exec_cq'
p21
I27
sS'total_cq'
p22
I27
sa(dp23
g18
I224
sg19
F0.00016999244689941406
sg20
F0.0005230903625488281
sg21
I24
sg22
I24
sa(dp24
g18
I202
sg19
F0.00011014938354492188
sg20
F0.0003218650817871094
sg21
I21
sg22
I21
sa(dp25
g18
I194
sg19
F0.00010180473327636719
sg20
F0.0003218650817871094
sg21
I19
sg22
I19
sa(dp26
g18
I172
sg19
F0.00019502639770507812
sg20
F0.0002999305725097656
sg21
I17
sg22
I17
sasS'total_cqs'
p27
I27
ssI3
(dp28
S'iters'
p29
I4
sS'meta'
p30
(lp31
(dp32
S'objective'
p33
I422
sS'query_time'
p34
F157.48492217063904
sS'comp_time'
p35
F1.9395780563354492
sS'exec_cq'
p36
I43
sS'total_cq'
p37
I43
sa(dp38
g33
I42
sg34
F0.07515978813171387
sg35
F0.6141040325164795
sg36
I29
sg37
I29
sa(dp39
g33
I7
sg34
F0.12183403968811035
sg35
F0.2815840244293213
sg36
I13
sg37
I13
sa(dp40
g33
I110
sg34
F5.793571472167969e-05
sg35
F0.004312753677368164
sg36
I7
sg37
I7
sasS'total_cqs'
p41
I43
ssI4
(dp42
S'iters'
p43
I2
sS'meta'
p44
(lp45
(dp46
S'objective'
p47
I44
sS'query_time'
p48
F4.046574115753174
sS'comp_time'
p49
F0.390186071395874
sS'exec_cq'
p50
I11
sS'total_cq'
p51
I11
sa(dp52
g47
I9
sg48
F0.11433696746826172
sg49
F0.43654298782348633
sg50
I2
sg51
I2
sasS'total_cqs'
p53
I11
ssI5
(dp54
S'iters'
p55
I3
sS'meta'
p56
(lp57
(dp58
S'objective'
p59
I0
sS'query_time'
p60
F27.109395027160645
sS'comp_time'
p61
F2.211932897567749
sS'exec_cq'
p62
I8
sS'total_cq'
p63
I8
sa(dp64
g59
I0
sg60
F0.009570121765136719
sg61
F0.042912960052490234
sg62
I4
sg63
I4
sa(dp65
g59
I5
sg60
F0.006830930709838867
sg61
F0.034303903579711914
sg62
I2
sg63
I2
sasS'total_cqs'
p66
I8
ssI6
(dp67
S'iters'
p68
I3
sS'meta'
p69
(lp70
(dp71
S'objective'
p72
I65
sS'query_time'
p73
F29.956307888031006
sS'comp_time'
p74
F2.153034210205078
sS'exec_cq'
p75
I18
sS'total_cq'
p76
I18
sa(dp77
g72
I1
sg73
F0.5445570945739746
sg74
F2.0946907997131348
sg75
I7
sg76
I7
sa(dp78
g72
I3
sg73
F0.01588606834411621
sg74
F0.06980609893798828
sg75
I3
sg76
I3
sasS'total_cqs'
p79
I18
ssI7
(dp80
S'iters'
p81
I3
sS'meta'
p82
(lp83
(dp84
S'objective'
p85
I1
sS'query_time'
p86
F10.051049947738647
sS'comp_time'
p87
F0.8968310356140137
sS'exec_cq'
p88
I9
sS'total_cq'
p89
I9
sa(dp90
g85
I0
sg86
F0.005408048629760742
sg87
F0.016504287719726562
sg88
I4
sg89
I4
sa(dp91
g85
I5
sg86
F0.002235889434814453
sg87
F0.01309823989868164
sg88
I2
sg89
I2
sasS'total_cqs'
p92
I9
ssI8
(dp93
S'iters'
p94
I3
sS'meta'
p95
(lp96
(dp97
S'objective'
p98
I254
sS'query_time'
p99
F0.18276190757751465
sS'comp_time'
p100
F0.0012869834899902344
sS'exec_cq'
p101
I27
sS'total_cq'
p102
I27
sa(dp103
g98
I246
sg99
F0.00013303756713867188
sg100
F0.0003170967102050781
sg101
I22
sg102
I22
sa(dp104
g98
I237
sg99
F6.699562072753906e-05
sg100
F9.012222290039062e-05
sg101
I19
sg102
I19
sasS'total_cqs'
p105
I27
ssI9
(dp106
S'iters'
p107
I3
sS'meta'
p108
(lp109
(dp110
S'objective'
p111
I2
sS'query_time'
p112
F0.039617061614990234
sS'comp_time'
p113
F0.0002510547637939453
sS'exec_cq'
p114
I7
sS'total_cq'
p115
I7
sa(dp116
g111
I3
sg112
F2.7179718017578125e-05
sg113
F5.1975250244140625e-05
sg114
I4
sg115
I4
sa(dp117
g111
I6
sg112
F0.0010709762573242188
sg113
F5.602836608886719e-05
sg114
I2
sg115
I2
sasS'total_cqs'
p118
I7
ssI10
(dp119
S'iters'
p120
I5
sS'meta'
p121
(lp122
(dp123
S'objective'
p124
I480
sS'query_time'
p125
F0.3859999179840088
sS'comp_time'
p126
F0.007421970367431641
sS'exec_cq'
p127
I51
sS'total_cq'
p128
I51
sa(dp129
g124
I275
sg125
F0.00040602684020996094
sg126
F0.0014078617095947266
sg127
I37
sg128
I37
sa(dp130
g124
I6
sg125
F0.0015349388122558594
sg126
F0.0004928112030029297
sg127
I12
sg128
I12
sa(dp131
g124
I4
sg125
F6.508827209472656e-05
sg126
F0.00023698806762695312
sg127
I6
sg128
I6
sa(dp132
g124
I2
sg125
F2.193450927734375e-05
sg126
F7.295608520507812e-05
sg127
I3
sg128
I3
sasS'total_cqs'
p133
I51
ssI11
(dp134
S'iters'
p135
I5
sS'meta'
p136
(lp137
(dp138
S'objective'
p139
I1030
sS'query_time'
p140
F0.6064319610595703
sS'comp_time'
p141
F0.014500856399536133
sS'exec_cq'
p142
I63
sS'total_cq'
p143
I63
sa(dp144
g139
I1037
sg140
F0.0008947849273681641
sg141
F0.0036001205444335938
sg142
I47
sg143
I47
sa(dp145
g139
I31
sg140
F0.0013239383697509766
sg141
F0.000820159912109375
sg142
I9
sg143
I9
sa(dp146
g139
I6
sg140
F2.5033950805664062e-05
sg141
F6.699562072753906e-05
sg142
I4
sg143
I4
sa(dp147
g139
I48
sg140
F1.2874603271484375e-05
sg141
F4.315376281738281e-05
sg142
I2
sg143
I2
sasS'total_cqs'
p148
I63
ssI12
(dp149
S'iters'
p150
I5
sS'meta'
p151
(lp152
(dp153
S'objective'
p154
I635
sS'query_time'
p155
F0.35893702507019043
sS'comp_time'
p156
F0.008079051971435547
sS'exec_cq'
p157
I50
sS'total_cq'
p158
I50
sa(dp159
g154
I441
sg155
F0.0007011890411376953
sg156
F0.0017609596252441406
sg157
I33
sg158
I33
sa(dp160
g154
I3
sg155
F0.002229928970336914
sg156
F0.0013751983642578125
sg157
I8
sg158
I8
sa(dp161
g154
I6
sg155
F0.00015211105346679688
sg156
F0.000804901123046875
sg157
I4
sg158
I4
sa(dp162
g154
I16
sg155
F0.0001270771026611328
sg156
F0.0007238388061523438
sg157
I2
sg158
I2
sasS'total_cqs'
p163
I50
ssI13
(dp164
S'iters'
p165
I4
sS'meta'
p166
(lp167
(dp168
S'objective'
p169
I44
sS'query_time'
p170
F0.15026402473449707
sS'comp_time'
p171
F0.000476837158203125
sS'exec_cq'
p172
I20
sS'total_cq'
p173
I20
sa(dp174
g169
I19
sg170
F9.512901306152344e-05
sg171
F0.00013113021850585938
sg172
I14
sg173
I14
sa(dp175
g169
I33
sg170
F4.601478576660156e-05
sg171
F7.510185241699219e-05
sg172
I9
sg173
I9
sa(dp176
g169
I12
sg170
F0.0017628669738769531
sg171
F0.00017189979553222656
sg172
I2
sg173
I2
sasS'total_cqs'
p177
I20
ssI14
(dp178
S'iters'
p179
I3
sS'meta'
p180
(lp181
(dp182
S'objective'
p183
I1
sS'query_time'
p184
F26.682801008224487
sS'comp_time'
p185
F1.130167007446289
sS'exec_cq'
p186
I9
sS'total_cq'
p187
I9
sa(dp188
g183
I0
sg184
F0.008630037307739258
sg185
F0.03435492515563965
sg186
I5
sg187
I5
sa(dp189
g183
I5
sg184
F0.00486302375793457
sg185
F0.09885478019714355
sg186
I2
sg187
I2
sasS'total_cqs'
p190
I9
ssI15
(dp191
S'iters'
p192
I3
sS'meta'
p193
(lp194
(dp195
S'objective'
p196
I4
sS'query_time'
p197
F3.1183111667633057
sS'comp_time'
p198
F0.1516399383544922
sS'exec_cq'
p199
I11
sS'total_cq'
p200
I11
sa(dp201
g196
I1
sg197
F0.03727293014526367
sg198
F0.14776277542114258
sg199
I5
sg200
I5
sa(dp202
g196
I5
sg197
F0.022714853286743164
sg198
F0.13962697982788086
sg199
I3
sg200
I3
sasS'total_cqs'
p203
I11
ssI16
(dp204
S'iters'
p205
I1
sS'meta'
p206
(lp207
(dp208
S'objective'
p209
I22
sS'query_time'
p210
F0.019906044006347656
sS'comp_time'
p211
F0.0001270771026611328
sS'exec_cq'
p212
I8
sS'total_cq'
p213
I8
sasS'total_cqs'
p214
I8
ssI17
(dp215
S'iters'
p216
I3
sS'meta'
p217
(lp218
(dp219
S'objective'
p220
I0
sS'query_time'
p221
F0.9095139503479004
sS'comp_time'
p222
F0.018398761749267578
sS'exec_cq'
p223
I11
sS'total_cq'
p224
I11
sa(dp225
g220
I1
sg221
F0.0053310394287109375
sg222
F0.019215106964111328
sg223
I6
sg224
I6
sa(dp226
g220
I4
sg221
F0.0002148151397705078
sg222
F0.0009148120880126953
sg223
I3
sg224
I3
sasS'total_cqs'
p227
I11
ssI18
(dp228
S'iters'
p229
I2
sS'meta'
p230
(lp231
(dp232
S'objective'
p233
I26
sS'query_time'
p234
F0.24160504341125488
sS'comp_time'
p235
F0.0041348934173583984
sS'exec_cq'
p236
I11
sS'total_cq'
p237
I11
sa(dp238
g233
I26
sg234
F0.00024199485778808594
sg235
F0.0013651847839355469
sg236
I8
sg237
I8
sasS'total_cqs'
p239
I11
ssI19
(dp240
S'iters'
p241
I0
sS'meta'
p242
(lp243
sS'total_cqs'
p244
I1
ssI20
(dp245
S'iters'
p246
I0
sS'meta'
p247
(lp248
sS'total_cqs'
p249
I1
ssI21
(dp250
S'iters'
p251
I0
sS'meta'
p252
(lp253
sS'total_cqs'
p254
I1
ssI22
(dp255
S'iters'
p256
I1
sS'meta'
p257
(lp258
(dp259
S'objective'
p260
I141
sS'query_time'
p261
F0.0511929988861084
sS'comp_time'
p262
F0.0001800060272216797
sS'exec_cq'
p263
I18
sS'total_cq'
p264
I18
sasS'total_cqs'
p265
I18
ssI23
(dp266
S'iters'
p267
I2
sS'meta'
p268
(lp269
(dp270
S'objective'
p271
I82
sS'query_time'
p272
F0.05434989929199219
sS'comp_time'
p273
F0.0006439685821533203
sS'exec_cq'
p274
I16
sS'total_cq'
p275
I16
sa(dp276
g271
I83
sg272
F0.0001010894775390625
sg273
F0.0003249645233154297
sg274
I14
sg275
I14
sasS'total_cqs'
p277
I16
ssI24
(dp278
S'iters'
p279
I0
sS'meta'
p280
(lp281
sS'total_cqs'
p282
I1
ssI25
(dp283
S'iters'
p284
I0
sS'meta'
p285
(lp286
sS'total_cqs'
p287
I1
ssI26
(dp288
S'iters'
p289
I1
sS'meta'
p290
(lp291
(dp292
S'objective'
p293
I837
sS'query_time'
p294
F0.13063693046569824
sS'comp_time'
p295
F0.0002129077911376953
sS'exec_cq'
p296
I42
sS'total_cq'
p297
I42
sasS'total_cqs'
p298
I42
ssI27
(dp299
S'iters'
p300
I3
sS'meta'
p301
(lp302
(dp303
S'objective'
p304
I315
sS'query_time'
p305
F17.170176029205322
sS'comp_time'
p306
F1.8919448852539062
sS'exec_cq'
p307
I30
sS'total_cq'
p308
I30
sa(dp309
g304
I1
sg305
F0.37231898307800293
sg306
F1.9529070854187012
sg307
I5
sg308
I5
sa(dp310
g304
I10
sg305
F0.010662078857421875
sg306
F0.04846978187561035
sg307
I2
sg308
I2
sasS'total_cqs'
p311
I30
ssI28
(dp312
S'iters'
p313
I0
sS'meta'
p314
(lp315
sS'total_cqs'
p316
I1
ssI29
(dp317
S'iters'
p318
I5
sS'meta'
p319
(lp320
(dp321
S'objective'
p322
I333
sS'query_time'
p323
F133.8808879852295
sS'comp_time'
p324
F13.386010885238647
sS'exec_cq'
p325
I49
sS'total_cq'
p326
I49
sa(dp327
g322
I8
sg323
F0.021214962005615234
sg324
F0.046920061111450195
sg325
I17
sg326
I17
sa(dp328
g322
I1
sg323
F0.6023249626159668
sg324
F0.053143978118896484
sg325
I9
sg326
I9
sa(dp329
g322
I23
sg323
F0.005630016326904297
sg324
F0.025911808013916016
sg325
I4
sg326
I4
sa(dp330
g322
I8
sg323
F0.00457310676574707
sg324
F0.025691986083984375
sg325
I3
sg326
I3
sasS'total_cqs'
p331
I49
ssI30
(dp332
S'iters'
p333
I1
sS'meta'
p334
(lp335
(dp336
S'objective'
p337
I1
sS'query_time'
p338
F0.6871111392974854
sS'comp_time'
p339
F0.02461099624633789
sS'exec_cq'
p340
I2
sS'total_cq'
p341
I2
sasS'total_cqs'
p342
I2
ssI31
(dp343
S'iters'
p344
I0
sS'meta'
p345
(lp346
sS'total_cqs'
p347
I1
ssI32
(dp348
S'iters'
p349
I1
sS'meta'
p350
(lp351
(dp352
S'objective'
p353
I1
sS'query_time'
p354
F0.008366823196411133
sS'comp_time'
p355
F0.00024175643920898438
sS'exec_cq'
p356
I2
sS'total_cq'
p357
I2
sasS'total_cqs'
p358
I2
ssI33
(dp359
S'iters'
p360
I4
sS'meta'
p361
(lp362
(dp363
S'objective'
p364
I3906
sS'query_time'
p365
F13.749927997589111
sS'comp_time'
p366
F0.12508392333984375
sS'exec_cq'
p367
I103
sS'total_cq'
p368
I103
sa(dp369
g364
I17
sg365
F0.007175922393798828
sg366
F0.03909802436828613
sg367
I16
sg368
I16
sa(dp370
g364
I8
sg365
F0.0029518604278564453
sg366
F0.010163068771362305
sg367
I8
sg368
I8
sa(dp371
g364
I23
sg365
F0.000370025634765625
sg366
F0.0024111270904541016
sg367
I4
sg368
I4
sasS'total_cqs'
p372
I103
ssI34
(dp373
S'iters'
p374
I1
sS'meta'
p375
(lp376
(dp377
S'objective'
p378
I1
sS'query_time'
p379
F0.015149116516113281
sS'comp_time'
p380
F0.00047016143798828125
sS'exec_cq'
p381
I2
sS'total_cq'
p382
I2
sasS'total_cqs'
p383
I2
ssI35
(dp384
S'iters'
p385
I10
sS'meta'
p386
(lp387
(dp388
S'objective'
p389
I2361
sS'query_time'
p390
F46.28298592567444
sS'comp_time'
p391
F3.9176077842712402
sS'exec_cq'
p392
I70
sS'total_cq'
p393
I70
sa(dp394
g389
I2313
sg390
F1.058556079864502
sg391
F4.38368034362793
sg392
I69
sg393
I69
sa(dp395
g389
I2272
sg390
F0.8727819919586182
sg391
F3.138050079345703
sg392
I68
sg393
I68
sa(dp396
g389
I2252
sg390
F0.8884470462799072
sg391
F3.3818018436431885
sg392
I67
sg393
I67
sa(dp397
g389
I2084
sg390
F0.000576019287109375
sg391
F0.04477691650390625
sg392
I66
sg393
I66
sa(dp398
g389
I2149
sg390
F0.0004391670227050781
sg391
F0.04534006118774414
sg392
I63
sg393
I63
sa(dp399
g389
I1917
sg390
F0.26611995697021484
sg391
F0.24854183197021484
sg392
I62
sg393
I62
sa(dp400
g389
I1616
sg390
F0.23849725723266602
sg391
F0.2195730209350586
sg392
I59
sg393
I59
sa(dp401
g389
I75
sg390
F0.07492589950561523
sg391
F0.04688096046447754
sg392
I4
sg393
I4
sa(dp402
g389
I36
sg390
F0.034819841384887695
sg391
F0.033798933029174805
sg392
I3
sg393
I3
sasS'total_cqs'
p403
I70
ssI36
(dp404
S'iters'
p405
I3
sS'meta'
p406
(lp407
(dp408
S'objective'
p409
I385
sS'query_time'
p410
F0.8069901466369629
sS'comp_time'
p411
F0.028829097747802734
sS'exec_cq'
p412
I33
sS'total_cq'
p413
I33
sa(dp414
g409
I335
sg410
F0.004449129104614258
sg411
F0.021884918212890625
sg412
I29
sg413
I29
sa(dp415
g409
I352
sg410
F0.0012080669403076172
sg411
F0.007306814193725586
sg412
I25
sg413
I25
sasS'total_cqs'
p416
I33
ssI37
(dp417
S'iters'
p418
I1
sS'meta'
p419
(lp420
(dp421
S'objective'
p422
I1
sS'query_time'
p423
F0.009929180145263672
sS'comp_time'
p424
F0.00031304359436035156
sS'exec_cq'
p425
I2
sS'total_cq'
p426
I2
sasS'total_cqs'
p427
I2
ssI38
(dp428
S'iters'
p429
I2
sS'meta'
p430
(lp431
(dp432
S'objective'
p433
I0
sS'query_time'
p434
F0.02451491355895996
sS'comp_time'
p435
F0.00047898292541503906
sS'exec_cq'
p436
I4
sS'total_cq'
p437
I4
sa(dp438
g433
I3
sg434
F8.20159912109375e-05
sg435
F0.0003237724304199219
sg436
I2
sg437
I2
sasS'total_cqs'
p439
I4
ssI39
(dp440
S'iters'
p441
I2
sS'meta'
p442
(lp443
(dp444
S'objective'
p445
I732
sS'query_time'
p446
F0.1670539379119873
sS'comp_time'
p447
F0.0014519691467285156
sS'exec_cq'
p448
I44
sS'total_cq'
p449
I44
sa(dp450
g445
I793
sg446
F0.0002608299255371094
sg447
F0.004565000534057617
sg448
I37
sg449
I37
sasS'total_cqs'
p451
I44
ssI40
(dp452
S'iters'
p453
I1
sS'meta'
p454
(lp455
(dp456
S'objective'
p457
I14
sS'query_time'
p458
F0.03240013122558594
sS'comp_time'
p459
F0.00010204315185546875
sS'exec_cq'
p460
I7
sS'total_cq'
p461
I7
sasS'total_cqs'
p462
I7
ssI41
(dp463
S'iters'
p464
I1
sS'meta'
p465
(lp466
(dp467
S'objective'
p468
I58
sS'query_time'
p469
F0.07836008071899414
sS'comp_time'
p470
F0.00014209747314453125
sS'exec_cq'
p471
I12
sS'total_cq'
p472
I12
sasS'total_cqs'
p473
I12
ssI42
(dp474
S'iters'
p475
I1
sS'meta'
p476
(lp477
(dp478
S'objective'
p479
I797
sS'query_time'
p480
F0.14356493949890137
sS'comp_time'
p481
F0.00021910667419433594
sS'exec_cq'
p482
I41
sS'total_cq'
p483
I41
sasS'total_cqs'
p484
I41
ssI43
(dp485
S'iters'
p486
I1
sS'meta'
p487
(lp488
(dp489
S'objective'
p490
I14
sS'query_time'
p491
F0.02817392349243164
sS'comp_time'
p492
F0.00011324882507324219
sS'exec_cq'
p493
I7
sS'total_cq'
p494
I7
sasS'total_cqs'
p495
I7
ssI44
(dp496
S'iters'
p497
I4
sS'meta'
p498
(lp499
(dp500
S'objective'
p501
I788
sS'query_time'
p502
F0.19307589530944824
sS'comp_time'
p503
F0.001088857650756836
sS'exec_cq'
p504
I47
sS'total_cq'
p505
I47
sa(dp506
g501
I796
sg502
F0.0002980232238769531
sg503
F0.0009272098541259766
sg504
I40
sg505
I40
sa(dp507
g501
I17
sg502
F0.0013871192932128906
sg503
F0.0007081031799316406
sg504
I3
sg505
I3
sa(dp508
g501
I25
sg502
F0.00012302398681640625
sg503
F0.00426030158996582
sg504
I2
sg505
I2
sasS'total_cqs'
p509
I47
ssI45
(dp510
S'iters'
p511
I0
sS'meta'
p512
(lp513
sS'total_cqs'
p514
I1
ssI46
(dp515
S'iters'
p516
I1
sS'meta'
p517
(lp518
(dp519
S'objective'
p520
I9
sS'query_time'
p521
F0.01841592788696289
sS'comp_time'
p522
F0.0002529621124267578
sS'exec_cq'
p523
I6
sS'total_cq'
p524
I6
sasS'total_cqs'
p525
I6
ssI47
(dp526
S'iters'
p527
I1
sS'meta'
p528
(lp529
(dp530
S'objective'
p531
I1
sS'query_time'
p532
F0.014523983001708984
sS'comp_time'
p533
F0.0002880096435546875
sS'exec_cq'
p534
I2
sS'total_cq'
p535
I2
sasS'total_cqs'
p536
I2
ssI48
(dp537
S'iters'
p538
I0
sS'meta'
p539
(lp540
sS'total_cqs'
p541
I1
ssI49
(dp542
S'iters'
p543
I0
sS'meta'
p544
(lp545
sS'total_cqs'
p546
I1
ssI50
(dp547
S'iters'
p548
I1
sS'meta'
p549
(lp550
(dp551
S'objective'
p552
I5
sS'query_time'
p553
F0.013866901397705078
sS'comp_time'
p554
F0.00014400482177734375
sS'exec_cq'
p555
I5
sS'total_cq'
p556
I5
sasS'total_cqs'
p557
I5
ssI51
(dp558
S'iters'
p559
I1
sS'meta'
p560
(lp561
(dp562
S'objective'
p563
I1
sS'query_time'
p564
F0.010045051574707031
sS'comp_time'
p565
F0.00017213821411132812
sS'exec_cq'
p566
I2
sS'total_cq'
p567
I2
sasS'total_cqs'
p568
I2
ssI52
(dp569
S'iters'
p570
I1
sS'meta'
p571
(lp572
(dp573
S'objective'
p574
I1
sS'query_time'
p575
F0.009080886840820312
sS'comp_time'
p576
F0.0002067089080810547
sS'exec_cq'
p577
I2
sS'total_cq'
p578
I2
sasS'total_cqs'
p579
I2
ssI53
(dp580
S'iters'
p581
I1
sS'meta'
p582
(lp583
(dp584
S'objective'
p585
I2
sS'query_time'
p586
F0.0265350341796875
sS'comp_time'
p587
F0.0005738735198974609
sS'exec_cq'
p588
I4
sS'total_cq'
p589
I4
sasS'total_cqs'
p590
I4
ssI54
(dp591
S'iters'
p592
I2
sS'meta'
p593
(lp594
(dp595
S'objective'
p596
I0
sS'query_time'
p597
F0.011771917343139648
sS'comp_time'
p598
F0.00023412704467773438
sS'exec_cq'
p599
I3
sS'total_cq'
p600
I3
sa(dp601
g596
I1
sg597
F3.790855407714844e-05
sg598
F0.00019311904907226562
sg599
I2
sg600
I2
sasS'total_cqs'
p602
I3
ssI55
(dp603
S'iters'
p604
I4
sS'meta'
p605
(lp606
(dp607
S'objective'
p608
I4805
sS'query_time'
p609
F2.3823800086975098
sS'comp_time'
p610
F0.03269600868225098
sS'exec_cq'
p611
I109
sS'total_cq'
p612
I109
sa(dp613
g608
I15
sg609
F0.006247997283935547
sg610
F0.08466696739196777
sg611
I10
sg612
I10
sa(dp614
g608
I54
sg609
F0.0036771297454833984
sg610
F0.013881206512451172
sg611
I4
sg612
I4
sa(dp615
g608
I48
sg609
F0.00017309188842773438
sg610
F0.00066375732421875
sg611
I2
sg612
I2
sasS'total_cqs'
p616
I109
ssI56
(dp617
S'iters'
p618
I5
sS'meta'
p619
(lp620
(dp621
S'objective'
p622
I1642
sS'query_time'
p623
F3.333226203918457
sS'comp_time'
p624
F0.14324092864990234
sS'exec_cq'
p625
I76
sS'total_cq'
p626
I76
sa(dp627
g622
I86
sg623
F0.0051500797271728516
sg624
F0.009863138198852539
sg625
I16
sg626
I16
sa(dp628
g622
I8
sg623
F0.0023500919342041016
sg624
F0.006663322448730469
sg625
I8
sg626
I8
sa(dp629
g622
I38
sg623
F0.0006759166717529297
sg624
F0.003598928451538086
sg625
I3
sg626
I3
sa(dp630
g622
I4
sg623
F0.0005660057067871094
sg624
F0.0030472278594970703
sg625
I2
sg626
I2
sasS'total_cqs'
p631
I76
ssI57
(dp632
S'iters'
p633
I5
sS'meta'
p634
(lp635
(dp636
S'objective'
p637
I26
sS'query_time'
p638
F67.56729698181152
sS'comp_time'
p639
F3.455848217010498
sS'exec_cq'
p640
I51
sS'total_cq'
p641
I51
sa(dp642
g637
I28
sg638
F0.014208078384399414
sg639
F0.02793598175048828
sg640
I27
sg641
I27
sa(dp643
g637
I2
sg638
F0.0022449493408203125
sg639
F0.0059239864349365234
sg640
I12
sg641
I12
sa(dp644
g637
I7
sg638
F0.0014379024505615234
sg639
F0.004025936126708984
sg640
I6
sg641
I6
sa(dp645
g637
I4
sg638
F0.0006501674652099609
sg639
F0.0029528141021728516
sg640
I2
sg641
I2
sasS'total_cqs'
p646
I51
ssI58
(dp647
S'iters'
p648
I8
sS'meta'
p649
(lp650
(dp651
S'objective'
p652
I84075
sS'query_time'
p653
F290.90897393226624
sS'comp_time'
p654
F16.840044260025024
sS'exec_cq'
p655
I486
sS'total_cq'
p656
I486
sa(dp657
g652
I9417
sg653
F0.03576087951660156
sg654
F0.17064213752746582
sg655
I64
sg656
I64
sa(dp658
g652
I3861
sg653
F0.026468992233276367
sg654
F0.17654776573181152
sg655
I52
sg656
I52
sa(dp659
g652
I460
sg653
F0.014618158340454102
sg654
F0.8772449493408203
sg655
I32
sg656
I32
sa(dp660
g652
I506
sg653
F0.008691072463989258
sg654
F0.04105687141418457
sg655
I15
sg656
I15
sa(dp661
g652
I22
sg653
F0.00510096549987793
sg654
F0.03508901596069336
sg655
I7
sg656
I7
sa(dp662
g652
I14
sg653
F0.0017290115356445312
sg654
F0.026209115982055664
sg655
I4
sg656
I4
sa(dp663
g652
I117
sg653
F0.0013079643249511719
sg654
F0.006255626678466797
sg655
I2
sg656
I2
sasS'total_cqs'
p664
I486
ssI59
(dp665
S'iters'
p666
I2
sS'meta'
p667
(lp668
(dp669
S'objective'
p670
I2
sS'query_time'
p671
F0.05088305473327637
sS'comp_time'
p672
F0.0046350955963134766
sS'exec_cq'
p673
I7
sS'total_cq'
p674
I7
sa(dp675
g670
I1
sg671
F0.00017309188842773438
sg672
F0.0008881092071533203
sg673
I2
sg674
I2
sasS'total_cqs'
p676
I7
ssI60
(dp677
S'iters'
p678
I1
sS'meta'
p679
(lp680
(dp681
S'objective'
p682
I5
sS'query_time'
p683
F0.021591901779174805
sS'comp_time'
p684
F0.00032711029052734375
sS'exec_cq'
p685
I5
sS'total_cq'
p686
I5
sasS'total_cqs'
p687
I5
ssI61
(dp688
S'iters'
p689
I0
sS'meta'
p690
(lp691
sS'total_cqs'
p692
I1
ssI62
(dp693
S'iters'
p694
I1
sS'meta'
p695
(lp696
(dp697
S'objective'
p698
I58
sS'query_time'
p699
F0.03413200378417969
sS'comp_time'
p700
F0.0002276897430419922
sS'exec_cq'
p701
I12
sS'total_cq'
p702
I12
sasS'total_cqs'
p703
I12
ssI63
(dp704
S'iters'
p705
I0
sS'meta'
p706
(lp707
sS'total_cqs'
p708
I1
ssI64
(dp709
S'iters'
p710
I3
sS'meta'
p711
(lp712
(dp713
S'objective'
p714
I20
sS'query_time'
p715
F0.14446711540222168
sS'comp_time'
p716
F0.0030710697174072266
sS'exec_cq'
p717
I12
sS'total_cq'
p718
I12
sa(dp719
g714
I1
sg715
F9.799003601074219e-05
sg716
F0.00037479400634765625
sg717
I4
sg718
I4
sa(dp720
g714
I6
sg715
F2.09808349609375e-05
sg716
F9.274482727050781e-05
sg717
I2
sg718
I2
sasS'total_cqs'
p721
I12
ssI65
(dp722
S'iters'
p723
I4
sS'meta'
p724
(lp725
(dp726
S'objective'
p727
I160
sS'query_time'
p728
F0.8150100708007812
sS'comp_time'
p729
F0.044801950454711914
sS'exec_cq'
p730
I27
sS'total_cq'
p731
I27
sa(dp732
g727
I5
sg728
F0.0016970634460449219
sg729
F0.005220890045166016
sg730
I7
sg731
I7
sa(dp733
g727
I9
sg728
F0.0006961822509765625
sg729
F0.002958059310913086
sg730
I4
sg731
I4
sa(dp734
g727
I20
sg728
F0.00023889541625976562
sg729
F0.0015811920166015625
sg730
I2
sg731
I2
sasS'total_cqs'
p735
I27
ssI66
(dp736
S'iters'
p737
I0
sS'meta'
p738
(lp739
sS'total_cqs'
p740
I1
ssI67
(dp741
S'iters'
p742
I2
sS'meta'
p743
(lp744
(dp745
S'objective'
p746
I546
sS'query_time'
p747
F1.3524889945983887
sS'comp_time'
p748
F0.007765054702758789
sS'exec_cq'
p749
I35
sS'total_cq'
p750
I35
sa(dp751
g746
I14
sg747
F0.0013201236724853516
sg748
F0.006288766860961914
sg749
I2
sg750
I2
sasS'total_cqs'
p752
I35
ssI68
(dp753
S'iters'
p754
I0
sS'meta'
p755
(lp756
sS'total_cqs'
p757
I1
ssI69
(dp758
S'iters'
p759
I1
sS'meta'
p760
(lp761
(dp762
S'objective'
p763
I1246
sS'query_time'
p764
F0.20154786109924316
sS'comp_time'
p765
F0.00027370452880859375
sS'exec_cq'
p766
I51
sS'total_cq'
p767
I51
sasS'total_cqs'
p768
I51
ssI70
(dp769
S'iters'
p770
I1
sS'meta'
p771
(lp772
(dp773
S'objective'
p774
I9
sS'query_time'
p775
F0.019351959228515625
sS'comp_time'
p776
F0.00021219253540039062
sS'exec_cq'
p777
I6
sS'total_cq'
p778
I6
sasS'total_cqs'
p779
I6
ssI71
(dp780
S'iters'
p781
I3
sS'meta'
p782
(lp783
(dp784
S'objective'
p785
I3277
sS'query_time'
p786
F0.395449161529541
sS'comp_time'
p787
F0.004971027374267578
sS'exec_cq'
p788
I85
sS'total_cq'
p789
I85
sa(dp790
g785
I3212
sg786
F0.00033783912658691406
sg787
F0.0006530284881591797
sg788
I82
sg789
I82
sa(dp791
g785
I3
sg786
F0.0018260478973388672
sg787
F0.00015997886657714844
sg788
I3
sg789
I3
sasS'total_cqs'
p792
I85
ssI72
(dp793
S'iters'
p794
I3
sS'meta'
p795
(lp796
(dp797
S'objective'
p798
I12
sS'query_time'
p799
F0.3892250061035156
sS'comp_time'
p800
F0.002650022506713867
sS'exec_cq'
p801
I8
sS'total_cq'
p802
I8
sa(dp803
g798
I0
sg799
F0.0003581047058105469
sg800
F0.0022101402282714844
sg801
I6
sg802
I6
sa(dp804
g798
I2
sg799
F4.00543212890625e-05
sg800
F0.0001499652862548828
sg801
I3
sg802
I3
sasS'total_cqs'
p805
I8
ssI73
(dp806
S'iters'
p807
I0
sS'meta'
p808
(lp809
sS'total_cqs'
p810
I1
ssI74
(dp811
S'iters'
p812
I0
sS'meta'
p813
(lp814
sS'total_cqs'
p815
I1
ssI75
(dp816
S'iters'
p817
I1
sS'meta'
p818
(lp819
(dp820
S'objective'
p821
I5
sS'query_time'
p822
F0.014741897583007812
sS'comp_time'
p823
F0.0001010894775390625
sS'exec_cq'
p824
I5
sS'total_cq'
p825
I5
sasS'total_cqs'
p826
I5
ssI76
(dp827
S'iters'
p828
I1
sS'meta'
p829
(lp830
(dp831
S'objective'
p832
I1
sS'query_time'
p833
F0.01368403434753418
sS'comp_time'
p834
F0.00033211708068847656
sS'exec_cq'
p835
I2
sS'total_cq'
p836
I2
sasS'total_cqs'
p837
I2
ssI77
(dp838
S'iters'
p839
I0
sS'meta'
p840
(lp841
sS'total_cqs'
p842
I1
ssI78
(dp843
S'iters'
p844
I0
sS'meta'
p845
(lp846
sS'total_cqs'
p847
I1
ssI103
(dp848
S'iters'
p849
I1
sS'meta'
p850
(lp851
(dp852
S'objective'
p853
I58
sS'query_time'
p854
F0.09490394592285156
sS'comp_time'
p855
F0.0001728534698486328
sS'exec_cq'
p856
I12
sS'total_cq'
p857
I12
sasS'total_cqs'
p858
I12
ssI104
(dp859
S'iters'
p860
I2
sS'meta'
p861
(lp862
(dp863
S'objective'
p864
I0
sS'query_time'
p865
F1.539064884185791
sS'comp_time'
p866
F0.10393810272216797
sS'exec_cq'
p867
I4
sS'total_cq'
p868
I4
sa(dp869
g864
I3
sg865
F0.020527124404907227
sg866
F0.1138620376586914
sg867
I2
sg868
I2
sasS'total_cqs'
p870
I4
ssI105
(dp871
S'iters'
p872
I0
sS'meta'
p873
(lp874
sS'total_cqs'
p875
I1
ssI106
(dp876
S'iters'
p877
I1
sS'meta'
p878
(lp879
(dp880
S'objective'
p881
I2
sS'query_time'
p882
F0.029439926147460938
sS'comp_time'
p883
F0.00010275840759277344
sS'exec_cq'
p884
I4
sS'total_cq'
p885
I4
sasS'total_cqs'
p886
I4
ssI107
(dp887
S'iters'
p888
I2
sS'meta'
p889
(lp890
(dp891
S'objective'
p892
I98
sS'query_time'
p893
F0.10270214080810547
sS'comp_time'
p894
F0.00018310546875
sS'exec_cq'
p895
I16
sS'total_cq'
p896
I16
sa(dp897
g892
I7
sg893
F0.00716400146484375
sg894
F0.00012111663818359375
sg895
I3
sg896
I3
sasS'total_cqs'
p898
I16
ssI108
(dp899
S'iters'
p900
I0
sS'meta'
p901
(lp902
sS'total_cqs'
p903
I1
ss.