(dp0
I1
(dp1
S'iters'
p2
I3
sS'meta'
p3
(lp4
(dp5
S'error_cq'
p6
I0
sS'query_time'
p7
F0.03225302696228027
sS'dist'
p8
F3.333333333333333
sS'exec_cq'
p9
I12
sS'comp_time'
p10
F0.0068585872650146484
sS'parse_time'
p11
F0.004932880401611328
sS'total_cq'
p12
I12
sS'timeout_cq'
p13
I0
sS'valid_cq'
p14
I5
sa(dp15
g6
I0
sg7
F0.0007519721984863281
sg8
F1.8
sg9
I10
sg10
F0.00627899169921875
sg11
F0.0019390583038330078
sg12
I10
sg13
I0
sg14
I3
sa(dp16
g6
I0
sg7
F0.0013151168823242188
sg8
F1.7777777777777777
sg9
I9
sg10
F0.002872943878173828
sg11
F0.0019500255584716797
sg12
I9
sg13
I0
sg14
I2
sasS'total_cqs'
p17
I12
ssI2
(dp18
g2
I4
sg3
(lp19
(dp20
g6
I0
sg7
F16.072219848632812
sg8
F6.857142857142858
sg9
I14
sg10
F1.2853803634643555
sg11
F0.002087116241455078
sg12
I28
sg13
I0
sg14
I8
sa(dp21
g6
I0
sg7
F16.07940697669983
sg8
F5.25
sg9
I14
sg10
F0.9524922370910645
sg11
F0.0026428699493408203
sg12
I24
sg13
I0
sg14
I8
sa(dp22
g6
I0
sg7
F3.125670909881592
sg8
F3.6190476190476186
sg9
I11
sg10
F0.9452364444732666
sg11
F0.0019659996032714844
sg12
I21
sg13
I0
sg14
I5
sa(dp23
g6
I0
sg7
F2.8752660751342773
sg8
F3.578947368421052
sg9
I10
sg10
F0.9385411739349365
sg11
F0.002023935317993164
sg12
I19
sg13
I0
sg14
I4
sasg17
I28
ssI3
(dp24
g2
I4
sg3
(lp25
(dp26
g6
I0
sg7
F272.99186182022095
sg8
F14.232558139534884
sg9
I16
sg10
F0.3158090114593506
sg11
F0.001947164535522461
sg12
I43
sg13
I7
sg14
I9
sa(dp27
g6
I0
sg7
F244.23859786987305
sg8
F14.117647058823529
sg9
I14
sg10
F19.74198007583618
sg11
F0.00191497802734375
sg12
I34
sg13
I4
sg14
I10
sa(dp28
g6
I0
sg7
F0.46564292907714844
sg8
F10.666666666666668
sg9
I9
sg10
F0.037030935287475586
sg11
F0.0019838809967041016
sg12
I24
sg13
I0
sg14
I8
sa(dp29
g6
I0
sg7
F11.300329208374023
sg8
F1.875
sg9
I16
sg10
F0.00998067855834961
sg11
F0.0022170543670654297
sg12
I16
sg13
I11
sg14
I1
sasg17
I43
ssI4
(dp30
g2
I2
sg3
(lp31
(dp32
g6
I0
sg7
F3.4986979961395264
sg8
F3.2727272727272725
sg9
I11
sg10
F0.6137890815734863
sg11
F0.001973867416381836
sg12
I11
sg13
I0
sg14
I2
sa(dp33
g6
I0
sg7
F3.290818929672241
sg8
F1.0
sg9
I2
sg10
F0.6295130252838135
sg11
F0.0022110939025878906
sg12
I2
sg13
I0
sg14
I2
sasg17
I11
ssI5
(dp34
g2
I3
sg3
(lp35
(dp36
g6
I0
sg7
F26.366059064865112
sg8
F4.0
sg9
I8
sg10
F1.887037992477417
sg11
F0.0019850730895996094
sg12
I8
sg13
I0
sg14
I8
sa(dp37
g6
I0
sg7
F0.016126155853271484
sg8
F2.0
sg9
I4
sg10
F0.0667731761932373
sg11
F0.001984119415283203
sg12
I4
sg13
I0
sg14
I4
sa(dp38
g6
I0
sg7
F0.5969278812408447
sg8
F1.0
sg9
I2
sg10
F0.038770198822021484
sg11
F0.002146005630493164
sg12
I2
sg13
I0
sg14
I2
sasg17
I8
ssI6
(dp39
g2
Nsg3
(lp40
(dp41
g6
I0
sg7
F0.015861988067626953
sg8
I0
sg9
I18
sg10
F0.01635456085205078
sg11
F0.002084016799926758
sg12
I18
sg13
I0
sg14
I0
sasg17
I18
ssI7
(dp42
g2
I3
sg3
(lp43
(dp44
g6
I0
sg7
F9.2704439163208
sg8
F4.444444444444445
sg9
I9
sg10
F0.9874498844146729
sg11
F0.002290964126586914
sg12
I9
sg13
I0
sg14
I9
sa(dp45
g6
I0
sg7
F0.016322851181030273
sg8
F2.4000000000000004
sg9
I5
sg10
F0.3509039878845215
sg11
F0.0022499561309814453
sg12
I5
sg13
I0
sg14
I5
sa(dp46
g6
I0
sg7
F0.00793910026550293
sg8
F1.3333333333333335
sg9
I3
sg10
F0.058614253997802734
sg11
F0.002048969268798828
sg12
I3
sg13
I0
sg14
I3
sasg17
I9
ssI8
(dp47
g2
I3
sg3
(lp48
(dp49
g6
I0
sg7
F15.966717958450317
sg8
F5.357142857142858
sg9
I14
sg10
F0.9534759521484375
sg11
F0.0021619796752929688
sg12
I28
sg13
I0
sg14
I6
sa(dp50
g6
I0
sg7
F16.633373022079468
sg8
F8.0
sg9
I14
sg10
F0.9549064636230469
sg11
F0.002007007598876953
sg12
I25
sg13
I0
sg14
I6
sa(dp51
g6
I0
sg7
F3.0748438835144043
sg8
F3.6
sg9
I11
sg10
F0.9607021808624268
sg11
F0.0019271373748779297
sg12
I20
sg13
I0
sg14
I3
sasg17
I28
ssI9
(dp52
g2
I3
sg3
(lp53
(dp54
g6
I0
sg7
F0.06466197967529297
sg8
F3.4285714285714284
sg9
I7
sg10
F0.002880096435546875
sg11
F0.001918792724609375
sg12
I7
sg13
I0
sg14
I6
sa(dp55
g6
I0
sg7
F0.0041790008544921875
sg8
F2.0
sg9
I4
sg10
F0.0021691322326660156
sg11
F0.00203704833984375
sg12
I4
sg13
I0
sg14
I3
sa(dp56
g6
I0
sg7
F0.007673025131225586
sg8
F1.0
sg9
I2
sg10
F0.0005948543548583984
sg11
F0.001973867416381836
sg12
I2
sg13
I0
sg14
I2
sasg17
I7
ssI10
(dp57
g2
I5
sg3
(lp58
(dp59
g6
I0
sg7
F13.24432897567749
sg8
F20.74074074074074
sg9
I28
sg10
F0.7078442573547363
sg11
F0.0017321109771728516
sg12
I54
sg13
I0
sg14
I21
sa(dp60
g6
I0
sg7
F11.373615980148315
sg8
F18.75
sg9
I26
sg10
F0.5682978630065918
sg11
F0.0020170211791992188
sg12
I40
sg13
I0
sg14
I19
sa(dp61
g6
I0
sg7
F1.722499132156372
sg8
F7.466666666666667
sg9
I15
sg10
F0.268460750579834
sg11
F0.002753019332885742
sg12
I15
sg13
I0
sg14
I15
sa(dp62
g6
I0
sg7
F0.9099600315093994
sg8
F3.75
sg9
I8
sg10
F0.2533857822418213
sg11
F0.001069784164428711
sg12
I8
sg13
I0
sg14
I8
sa(dp63
g6
I0
sg7
F0.6093170642852783
sg8
F1.6
sg9
I5
sg10
F0.2463068962097168
sg11
F0.0021820068359375
sg12
I5
sg13
I0
sg14
I5
sasg17
I54
ssI11
(dp64
g2
Nsg3
(lp65
(dp66
g6
I0
sg7
F31.767974853515625
sg8
F10.90909090909091
sg9
I66
sg10
F0.42233800888061523
sg11
F0.002660036087036133
sg12
I66
sg13
I0
sg14
I8
sa(dp67
g6
I0
sg7
F7.008702039718628
sg8
F1.9666666666666666
sg9
I60
sg10
F0.41432809829711914
sg11
F0.002929210662841797
sg12
I60
sg13
I0
sg14
I2
sa(dp68
g6
I0
sg7
F6.519405841827393
sg8
F1.9661016949152543
sg9
I59
sg10
F0.7775557041168213
sg11
F0.0027709007263183594
sg12
I59
sg13
I0
sg14
I1
sa(dp69
g6
I0
sg7
F6.439967155456543
sg8
I0
sg9
I58
sg10
F0.3831787109375
sg11
F0.002753019332885742
sg12
I58
sg13
I0
sg14
I0
sasg17
I66
ssI12
(dp70
g2
I5
sg3
(lp71
(dp72
g6
I0
sg7
F3.970703125
sg8
F23.094339622641513
sg9
I28
sg10
F0.5845122337341309
sg11
F0.002596139907836914
sg12
I53
sg13
I0
sg14
I21
sa(dp73
g6
I0
sg7
F2.9793338775634766
sg8
F15.277777777777779
sg9
I25
sg10
F0.5526831150054932
sg11
F0.0024361610412597656
sg12
I36
sg13
I0
sg14
I18
sa(dp74
g6
I0
sg7
F1.2545671463012695
sg8
F5.454545454545454
sg9
I11
sg10
F0.2640950679779053
sg11
F0.0020799636840820312
sg12
I11
sg13
I0
sg14
I11
sa(dp75
g6
I0
sg7
F0.7214069366455078
sg8
F1.6666666666666665
sg9
I6
sg10
F0.2548658847808838
sg11
F0.0019190311431884766
sg12
I6
sg13
I0
sg14
I6
sa(dp76
g6
I0
sg7
F0.6276681423187256
sg8
F1.6
sg9
I5
sg10
F0.24854683876037598
sg11
F0.001889944076538086
sg12
I5
sg13
I0
sg14
I5
sasg17
I53
ssI13
(dp77
g2
I3
sg3
(lp78
(dp79
g6
I0
sg7
F10.511198043823242
sg8
F11.478260869565219
sg9
I23
sg10
F0.264495849609375
sg11
F0.0018000602722167969
sg12
I23
sg13
I0
sg14
I16
sa(dp80
g6
I0
sg7
F1.396946907043457
sg8
F5.833333333333333
sg9
I12
sg10
F0.26918721199035645
sg11
F0.002841949462890625
sg12
I12
sg13
I0
sg14
I5
sa(dp81
g6
I0
sg7
F2.3264951705932617
sg8
F1.6
sg9
I5
sg10
F0.3131392002105713
sg11
F0.0019350051879882812
sg12
I5
sg13
I0
sg14
I5
sasg17
I23
ssI14
(dp82
g2
Nsg3
(lp83
(dp84
g6
I0
sg7
F0.016038894653320312
sg8
I0
sg9
I9
sg10
F0.003444194793701172
sg11
F0.0020689964294433594
sg12
I9
sg13
I0
sg14
I0
sasg17
I9
ssI15
(dp85
g2
I3
sg3
(lp86
(dp87
g6
I0
sg7
F2.926009178161621
sg8
F5.454545454545455
sg9
I11
sg10
F0.13438630104064941
sg11
F0.0021529197692871094
sg12
I11
sg13
I0
sg14
I9
sa(dp88
g6
I0
sg7
F2.342264175415039
sg8
F3.0
sg9
I6
sg10
F0.4440732002258301
sg11
F0.002071857452392578
sg12
I6
sg13
I0
sg14
I6
sa(dp89
g6
I0
sg7
F0.2152118682861328
sg8
F1.3333333333333335
sg9
I3
sg10
F0.014616012573242188
sg11
F0.0021369457244873047
sg12
I3
sg13
I0
sg14
I3
sasg17
I11
ssI16
(dp90
g2
Nsg3
(lp91
(dp92
g6
I0
sg7
F0.1144411563873291
sg8
I0
sg9
I8
sg10
F0.0031480789184570312
sg11
F0.0007739067077636719
sg12
I8
sg13
I0
sg14
I0
sasg17
I8
ssI17
(dp93
g2
I3
sg3
(lp94
(dp95
g6
I0
sg7
F0.6173810958862305
sg8
F5.454545454545455
sg9
I11
sg10
F0.03143715858459473
sg11
F0.0021810531616210938
sg12
I11
sg13
I0
sg14
I9
sa(dp96
g6
I0
sg7
F0.6672999858856201
sg8
F3.0
sg9
I6
sg10
F0.036344289779663086
sg11
F0.0021009445190429688
sg12
I6
sg13
I0
sg14
I6
sa(dp97
g6
I0
sg7
F0.12166500091552734
sg8
F1.3333333333333335
sg9
I3
sg10
F0.008509397506713867
sg11
F0.0008380413055419922
sg12
I3
sg13
I0
sg14
I3
sasg17
I11
ssI18
(dp98
g2
I3
sg3
(lp99
(dp100
g6
I0
sg7
F10.096096754074097
sg8
F1.8181818181818183
sg9
I16
sg10
F1.1052119731903076
sg11
F0.0021369457244873047
sg12
I11
sg13
I0
sg14
I4
sa(dp101
g6
I0
sg7
F8.966064929962158
sg8
F1.8
sg9
I14
sg10
F1.3504548072814941
sg11
F0.0012438297271728516
sg12
I10
sg13
I0
sg14
I3
sa(dp102
g6
I0
sg7
F2.411895990371704
sg8
F1.7777777777777777
sg9
I10
sg10
F0.9008989334106445
sg11
F0.0022568702697753906
sg12
I9
sg13
I0
sg14
I1
sasg17
I11
ssI19
(dp103
g2
I0
sg3
(lp104
sg17
I1
ssI20
(dp105
g2
I0
sg3
(lp106
sg17
I1
ssI21
(dp107
g2
I0
sg3
(lp108
sg17
I1
ssI22
(dp109
g2
I1
sg3
(lp110
(dp111
g6
I0
sg7
F0.03234100341796875
sg8
F1.8888888888888888
sg9
I18
sg10
F0.01759648323059082
sg11
F0.0019369125366210938
sg12
I18
sg13
I0
sg14
I1
sasg17
I18
ssI23
(dp112
g2
Nsg3
(lp113
(dp114
g6
I0
sg7
F0.19935202598571777
sg8
F3.5
sg9
I16
sg10
F0.0372471809387207
sg11
F0.0019021034240722656
sg12
I16
sg13
I0
sg14
I3
sa(dp115
g6
I0
sg7
F0.02195000648498535
sg8
F1.8571428571428572
sg9
I14
sg10
F0.01851630210876465
sg11
F0.0021209716796875
sg12
I14
sg13
I0
sg14
I1
sa(dp116
g6
I0
sg7
F0.019585132598876953
sg8
I0
sg9
I13
sg10
F0.014677047729492188
sg11
F0.001789093017578125
sg12
I13
sg13
I0
sg14
I0
sasg17
I16
ssI24
(dp117
g2
I0
sg3
(lp118
sg17
I1
ssI25
(dp119
g2
I0
sg3
(lp120
sg17
I1
ssI26
(dp121
g2
I1
sg3
(lp122
(dp123
g6
I0
sg7
F0.466418981552124
sg8
F1.9523809523809523
sg9
I42
sg10
F0.0920109748840332
sg11
F0.0023941993713378906
sg12
I42
sg13
I0
sg14
I1
sasg17
I42
ssI27
(dp124
g2
I3
sg3
(lp125
(dp126
g6
I0
sg7
F8.573577165603638
sg8
F8.333333333333332
sg9
I30
sg10
F0.1131887435913086
sg11
F0.0018150806427001953
sg12
I30
sg13
I0
sg14
I7
sa(dp127
g6
I0
sg7
F0.5438969135284424
sg8
F2.4000000000000004
sg9
I5
sg10
F0.07439684867858887
sg11
F0.0023691654205322266
sg12
I5
sg13
I0
sg14
I5
sa(dp128
g6
I0
sg7
F0.08065390586853027
sg8
F1.3333333333333335
sg9
I3
sg10
F0.041373252868652344
sg11
F0.0018310546875
sg12
I3
sg13
I0
sg14
I3
sasg17
I30
ssI28
(dp129
g2
I0
sg3
(lp130
sg17
I1
ssI29
(dp131
g2
I6
sg3
(lp132
(dp133
g6
I0
sg7
F18.203614950180054
sg8
F22.204081632653065
sg9
I35
sg10
F0.7663078308105469
sg11
F0.0017719268798828125
sg12
I49
sg13
I0
sg14
I32
sa(dp134
g6
I0
sg7
F11.770166873931885
sg8
F8.470588235294118
sg9
I17
sg10
F0.1654219627380371
sg11
F0.0019338130950927734
sg12
I17
sg13
I0
sg14
I17
sa(dp135
g6
I0
sg7
F0.07062196731567383
sg8
F4.444444444444445
sg9
I9
sg10
F0.5069537162780762
sg11
F0.0011479854583740234
sg12
I9
sg13
I0
sg14
I9
sa(dp136
g6
I0
sg7
F0.035768985748291016
sg8
F2.4000000000000004
sg9
I5
sg10
F0.03881573677062988
sg11
F0.0023450851440429688
sg12
I5
sg13
I0
sg14
I5
sa(dp137
g6
I0
sg7
F4.027414083480835
sg8
F1.3333333333333335
sg9
I3
sg10
F0.03473997116088867
sg11
F0.002022981643676758
sg12
I3
sg13
I0
sg14
I3
sa(dp138
g6
I0
sg7
F1.3722419738769531
sg8
F1.0
sg9
I2
sg10
F0.019587278366088867
sg11
F0.0019359588623046875
sg12
I2
sg13
I0
sg14
I2
sasg17
I49
ssI30
(dp139
g2
I1
sg3
(lp140
(dp141
g6
I0
sg7
F0.5262758731842041
sg8
F1.0
sg9
I2
sg10
F0.03822588920593262
sg11
F0.0020189285278320312
sg12
I2
sg13
I0
sg14
I2
sasg17
I2
ssI31
(dp142
g2
I0
sg3
(lp143
sg17
I1
ssI32
(dp144
g2
I1
sg3
(lp145
(dp146
g6
I0
sg7
F0.015832185745239258
sg8
F1.0
sg9
I2
sg10
F0.0014231204986572266
sg11
F0.002022981643676758
sg12
I2
sg13
I0
sg14
I2
sasg17
I2
ssI33
(dp147
g2
I5
sg3
(lp148
(dp149
g6
I0
sg7
F10.576096057891846
sg8
F27.029126213592235
sg9
I103
sg10
F1.010814905166626
sg11
F0.0018990039825439453
sg12
I103
sg13
I0
sg14
I40
sa(dp150
g6
I0
sg7
F3.9784181118011475
sg8
F8.0
sg9
I16
sg10
F0.048645973205566406
sg11
F0.002418041229248047
sg12
I16
sg13
I0
sg14
I16
sa(dp151
g6
I0
sg7
F0.033123016357421875
sg8
F4.0
sg9
I8
sg10
F0.025283098220825195
sg11
F0.0019788742065429688
sg12
I8
sg13
I0
sg14
I8
sa(dp152
g6
I0
sg7
F0.01607990264892578
sg8
F2.0
sg9
I4
sg10
F0.008394002914428711
sg11
F0.0018129348754882812
sg12
I4
sg13
I0
sg14
I4
sa(dp153
g6
I0
sg7
F0.5674910545349121
sg8
F1.0
sg9
I2
sg10
F0.010377883911132812
sg11
F0.0018169879913330078
sg12
I2
sg13
I0
sg14
I2
sasg17
I103
ssI34
(dp154
g2
I1
sg3
(lp155
(dp156
g6
I0
sg7
F0.06576395034790039
sg8
F1.0
sg9
I2
sg10
F0.006011247634887695
sg11
F0.0020689964294433594
sg12
I2
sg13
I0
sg14
I2
sasg17
I2
ssI35
(dp157
g2
I5
sg3
(lp158
(dp159
g6
I0
sg7
F14.37985610961914
sg8
F24.685714285714283
sg9
I50
sg10
F0.31549906730651855
sg11
F0.0017108917236328125
sg12
I70
sg13
I0
sg14
I30
sa(dp160
g6
I0
sg7
F8.545629978179932
sg8
F7.875
sg9
I16
sg10
F0.03419995307922363
sg11
F0.0021209716796875
sg12
I16
sg13
I0
sg14
I16
sa(dp161
g6
I0
sg7
F0.03517580032348633
sg8
F3.428571428571429
sg9
I7
sg10
F0.018906116485595703
sg11
F0.002218008041381836
sg12
I7
sg13
I0
sg14
I7
sa(dp162
g6
I0
sg7
F2.3222320079803467
sg8
F2.0
sg9
I4
sg10
F0.018239974975585938
sg11
F0.0018448829650878906
sg12
I4
sg13
I0
sg14
I4
sa(dp163
g6
I0
sg7
F0.7237780094146729
sg8
F1.0
sg9
I2
sg10
F0.007971763610839844
sg11
F0.00180816650390625
sg12
I2
sg13
I0
sg14
I2
sasg17
I70
ssI36
(dp164
g2
Nsg3
(lp165
(dp166
g6
I0
sg7
F0.0636739730834961
sg8
I0
sg9
I43
sg10
F0.4508976936340332
sg11
F0.0022478103637695312
sg12
I33
sg13
I0
sg14
I0
sasg17
I33
ssI37
(dp167
g2
Nsg3
(lp168
(dp169
g6
I0
sg7
F0.0037298202514648438
sg8
I0
sg9
I2
sg10
F0.00039505958557128906
sg11
F0.001986980438232422
sg12
I2
sg13
I0
sg14
I0
sasg17
I2
ssI38
(dp170
g2
Nsg3
(lp171
(dp172
g6
I0
sg7
F0.00380706787109375
sg8
I0
sg9
I4
sg10
F0.0010738372802734375
sg11
F0.0019750595092773438
sg12
I4
sg13
I0
sg14
I0
sasg17
I4
ssI39
(dp173
g2
I2
sg3
(lp174
(dp175
g6
I0
sg7
F1.1456348896026611
sg8
F11.772727272727273
sg9
I44
sg10
F0.06864714622497559
sg11
F0.0018742084503173828
sg12
I44
sg13
I0
sg14
I8
sa(dp176
g6
I0
sg7
F0.16883206367492676
sg8
F1.945945945945946
sg9
I37
sg10
F0.04894828796386719
sg11
F0.0019409656524658203
sg12
I37
sg13
I0
sg14
I1
sasg17
I44
ssI40
(dp177
g2
Nsg3
(lp178
(dp179
g6
I0
sg7
F0.01616501808166504
sg8
I0
sg9
I7
sg10
F0.0029921531677246094
sg11
F0.0020089149475097656
sg12
I7
sg13
I0
sg14
I0
sasg17
I7
ssI41
(dp180
g2
Nsg3
(lp181
(dp182
g6
I0
sg7
F0.01612710952758789
sg8
I0
sg9
I12
sg10
F0.006645917892456055
sg11
F0.0019822120666503906
sg12
I12
sg13
I0
sg14
I0
sasg17
I12
ssI42
(dp183
g2
I3
sg3
(lp184
(dp185
g6
I0
sg7
F0.5212998390197754
sg8
F1.951219512195122
sg9
I51
sg10
F0.07375836372375488
sg11
F0.0009298324584960938
sg12
I41
sg13
I0
sg14
I3
sa(dp186
g6
I0
sg7
F0.09146881103515625
sg8
F1.9500000000000002
sg9
I49
sg10
F0.07273077964782715
sg11
F0.0018727779388427734
sg12
I40
sg13
I0
sg14
I2
sa(dp187
g6
I0
sg7
F0.08461117744445801
sg8
F1.9487179487179487
sg9
I48
sg10
F0.07122015953063965
sg11
F0.0018038749694824219
sg12
I39
sg13
I0
sg14
I1
sasg17
I41
ssI43
(dp188
g2
Nsg3
(lp189
(dp190
g6
I0
sg7
F0.016047954559326172
sg8
I0
sg9
I7
sg10
F0.0036873817443847656
sg11
F0.002009868621826172
sg12
I7
sg13
I0
sg14
I0
sasg17
I7
ssI44
(dp191
g2
Nsg3
(lp192
(dp193
g6
I0
sg7
F0.16449499130249023
sg8
I0
sg9
I47
sg10
F0.0684061050415039
sg11
F0.0017201900482177734
sg12
I47
sg13
I0
sg14
I0
sasg17
I47
ssI45
(dp194
g2
I0
sg3
(lp195
sg17
I1
ssI46
(dp196
g2
Nsg3
(lp197
(dp198
g6
I0
sg7
F0.28135108947753906
sg8
I0
sg9
I6
sg10
F0.015584230422973633
sg11
F0.0018200874328613281
sg12
I6
sg13
I0
sg14
I0
sasg17
I6
ssI47
(dp199
g2
Nsg3
(lp200
(dp201
g6
I0
sg7
F0.0036950111389160156
sg8
I0
sg9
I2
sg10
F0.0004050731658935547
sg11
F0.0019028186798095703
sg12
I2
sg13
I0
sg14
I0
sasg17
I2
ssI48
(dp202
g2
I0
sg3
(lp203
sg17
I1
ssI49
(dp204
g2
I0
sg3
(lp205
sg17
I1
ssI50
(dp206
g2
I3
sg3
(lp207
(dp208
g6
I0
sg7
F0.007665872573852539
sg8
F1.6
sg9
I5
sg10
F0.0011129379272460938
sg11
F0.001889944076538086
sg12
I5
sg13
I0
sg14
I5
sa(dp209
g6
I0
sg7
F0.0014269351959228516
sg8
F1.5
sg9
I4
sg10
F0.0009074211120605469
sg11
F0.00189208984375
sg12
I4
sg13
I0
sg14
I4
sa(dp210
g6
I0
sg7
F0.0012590885162353516
sg8
F1.3333333333333335
sg9
I3
sg10
F0.0007243156433105469
sg11
F0.0017561912536621094
sg12
I3
sg13
I0
sg14
I3
sasg17
I5
ssI51
(dp211
g2
I1
sg3
(lp212
(dp213
g6
I0
sg7
F0.017654895782470703
sg8
F1.0
sg9
I2
sg10
F0.0013661384582519531
sg11
F0.0017590522766113281
sg12
I2
sg13
I0
sg14
I2
sasg17
I2
ssI52
(dp214
g2
I1
sg3
(lp215
(dp216
g6
I0
sg7
F0.0016109943389892578
sg8
F1.0
sg9
I2
sg10
F0.0010650157928466797
sg11
F0.0019898414611816406
sg12
I2
sg13
I0
sg14
I2
sasg17
I2
ssI53
(dp217
g2
Nsg3
(lp218
(dp219
g6
I0
sg7
F0.0035071372985839844
sg8
I0
sg9
I4
sg10
F0.0011188983917236328
sg11
F0.0017809867858886719
sg12
I4
sg13
I0
sg14
I0
sasg17
I4
ssI54
(dp220
g2
Nsg3
(lp221
(dp222
g6
I0
sg7
F0.003523111343383789
sg8
I0
sg9
I3
sg10
F0.0006959438323974609
sg11
F0.0017018318176269531
sg12
I3
sg13
I0
sg14
I0
sasg17
I3
ssI55
(dp223
g2
Nsg3
(lp224
(dp225
g6
I0
sg7
F0.11462593078613281
sg8
I0
sg9
I109
sg10
F0.9659547805786133
sg11
F0.002657175064086914
sg12
I109
sg13
I0
sg14
I0
sasg17
I109
ssI56
(dp226
g2
Nsg3
(lp227
(dp228
g6
I0
sg7
F0.08062934875488281
sg8
I0
sg9
I76
sg10
F0.291553258895874
sg11
F0.004583120346069336
sg12
I76
sg13
I0
sg14
I0
sasg17
I76
ssI57
(dp229
g2
Nsg3
(lp230
(dp231
g6
I0
sg7
F0.07256913185119629
sg8
I0
sg9
I51
sg10
F0.13152813911437988
sg11
F0.0019040107727050781
sg12
I51
sg13
I0
sg14
I0
sasg17
I51
ssI58
(dp232
g2
I7
sg3
(lp233
(dp234
g6
I0
sg7
F104.33449602127075
sg8
F122.66666666666666
sg9
I348
sg10
F28.96315312385559
sg11
F0.0041730403900146484
sg12
I486
sg13
I0
sg14
I162
sa(dp235
g6
I0
sg7
F0.0731198787689209
sg8
F52.21256038647343
sg9
I276
sg10
F16.849820137023926
sg11
F0.00589299201965332
sg12
I414
sg13
I0
sg14
I90
sa(dp236
g6
I0
sg7
F51.26979088783264
sg8
F14.0
sg9
I28
sg10
F0.09060192108154297
sg11
F0.0020749568939208984
sg12
I28
sg13
I0
sg14
I28
sa(dp237
g6
I0
sg7
F0.0656881332397461
sg8
F7.0
sg9
I14
sg10
F0.03994011878967285
sg11
F0.0019559860229492188
sg12
I14
sg13
I0
sg14
I14
sa(dp238
g6
I0
sg7
F18.189712047576904
sg8
F3.428571428571429
sg9
I7
sg10
F0.030244827270507812
sg11
F0.002043008804321289
sg12
I7
sg13
I0
sg14
I7
sa(dp239
g6
I0
sg7
F16.23796510696411
sg8
F2.0
sg9
I4
sg10
F0.03167104721069336
sg11
F0.0018768310546875
sg12
I4
sg13
I0
sg14
I4
sa(dp240
g6
I0
sg7
F3.526839017868042
sg8
F1.0
sg9
I2
sg10
F0.011578559875488281
sg11
F0.002351999282836914
sg12
I2
sg13
I0
sg14
I2
sasg17
I486
ssI59
(dp241
g2
I2
sg3
(lp242
(dp243
g6
I0
sg7
F0.06488990783691406
sg8
F2.8571428571428568
sg9
I7
sg10
F0.005537271499633789
sg11
F0.0020079612731933594
sg12
I7
sg13
I0
sg14
I2
sa(dp244
g6
I0
sg7
F0.06421709060668945
sg8
F1.0
sg9
I2
sg10
F0.00186920166015625
sg11
F0.0020208358764648438
sg12
I2
sg13
I0
sg14
I2
sasg17
I7
ssI60
(dp245
g2
Nsg3
(lp246
(dp247
g6
I0
sg7
F0.027516841888427734
sg8
F1.6
sg9
I6
sg10
F0.0029304027557373047
sg11
F0.001920938491821289
sg12
I5
sg13
I0
sg14
I3
sa(dp248
g6
I0
sg7
F0.0669698715209961
sg8
I0
sg9
I5
sg10
F0.004384040832519531
sg11
F0.0021529197692871094
sg12
I4
sg13
I0
sg14
I0
sasg17
I5
ssI61
(dp249
g2
I0
sg3
(lp250
sg17
I1
ssI62
(dp251
g2
I3
sg3
(lp252
(dp253
g6
I0
sg7
F0.032206058502197266
sg8
F4.5
sg9
I12
sg10
F0.007227897644042969
sg11
F0.0018091201782226562
sg12
I12
sg13
I0
sg14
I4
sa(dp254
g6
I0
sg7
F0.001680135726928711
sg8
F1.7777777777777777
sg9
I9
sg10
F0.006335020065307617
sg11
F0.0019118785858154297
sg12
I9
sg13
I0
sg14
I1
sa(dp255
g6
I0
sg7
F0.015872955322265625
sg8
F1.75
sg9
I8
sg10
F0.0028362274169921875
sg11
F0.00191497802734375
sg12
I8
sg13
I0
sg14
I1
sasg17
I12
ssI63
(dp256
g2
I0
sg3
(lp257
sg17
I1
ssI64
(dp258
g2
Nsg3
(lp259
(dp260
g6
I0
sg7
F0.12131786346435547
sg8
F5.333333333333334
sg9
I12
sg10
F0.015023231506347656
sg11
F0.001817941665649414
sg12
I12
sg13
I0
sg14
I9
sa(dp261
g6
I0
sg7
F0.007566928863525391
sg8
I0
sg9
I4
sg10
F0.0013229846954345703
sg11
F0.0020780563354492188
sg12
I4
sg13
I0
sg14
I0
sasg17
I12
ssI65
(dp262
g2
Nsg3
(lp263
(dp264
g6
I0
sg7
F0.9169321060180664
sg8
F1.925925925925926
sg9
I27
sg10
F0.03226065635681152
sg11
F0.002079010009765625
sg12
I27
sg13
I0
sg14
I1
sa(dp265
g6
I0
sg7
F0.003679037094116211
sg8
I0
sg9
I26
sg10
F0.03277230262756348
sg11
F0.0019931793212890625
sg12
I26
sg13
I0
sg14
I0
sasg17
I27
ssI66
(dp266
g2
I0
sg3
(lp267
sg17
I1
ssI67
(dp268
g2
Nsg3
(lp269
(dp270
g6
I0
sg7
F0.032109975814819336
sg8
I0
sg9
I35
sg10
F0.06487488746643066
sg11
F0.0017659664154052734
sg12
I35
sg13
I0
sg14
I0
sasg17
I35
ssI68
(dp271
g2
I0
sg3
(lp272
sg17
I1
ssI69
(dp273
g2
Nsg3
(lp274
(dp275
g6
I0
sg7
F1.284977912902832
sg8
I0
sg9
I51
sg10
F0.12691307067871094
sg11
F0.0016870498657226562
sg12
I51
sg13
I0
sg14
I0
sasg17
I51
ssI70
(dp276
g2
Nsg3
(lp277
(dp278
g6
I0
sg7
F0.015867948532104492
sg8
I0
sg9
I6
sg10
F0.005081892013549805
sg11
F0.002103090286254883
sg12
I6
sg13
I0
sg14
I0
sasg17
I6
ssI71
(dp279
g2
Nsg3
(lp280
(dp281
g6
I0
sg7
F0.13774609565734863
sg8
I0
sg9
I85
sg10
F0.38417577743530273
sg11
F0.002618074417114258
sg12
I85
sg13
I0
sg14
I0
sasg17
I85
ssI72
(dp282
g2
Nsg3
(lp283
(dp284
g6
I0
sg7
F0.03259992599487305
sg8
F3.0
sg9
I4
sg10
F0.008368968963623047
sg11
F0.0022928714752197266
sg12
I8
sg13
I0
sg14
I4
sa(dp285
g6
I0
sg7
F0.21820998191833496
sg8
F2.666666666666667
sg9
I6
sg10
F0.004532814025878906
sg11
F0.002148866653442383
sg12
I6
sg13
I0
sg14
I3
sa(dp286
g6
I0
sg7
F0.008517026901245117
sg8
F1.5
sg9
I4
sg10
F0.004441022872924805
sg11
F0.002023935317993164
sg12
I4
sg13
I0
sg14
I1
sa(dp287
g6
I0
sg7
F0.00842905044555664
sg8
I0
sg9
I3
sg10
F0.0022377967834472656
sg11
F0.0019237995147705078
sg12
I3
sg13
I0
sg14
I0
sasg17
I8
ssI73
(dp288
g2
I0
sg3
(lp289
sg17
I1
ssI74
(dp290
g2
I0
sg3
(lp291
sg17
I1
ssI75
(dp292
g2
I3
sg3
(lp293
(dp294
g6
I0
sg7
F0.007838964462280273
sg8
F1.6
sg9
I5
sg10
F0.0010449886322021484
sg11
F0.0017910003662109375
sg12
I5
sg13
I0
sg14
I5
sa(dp295
g6
I0
sg7
F0.00121307373046875
sg8
F1.5
sg9
I4
sg10
F0.0010259151458740234
sg11
F0.0019922256469726562
sg12
I4
sg13
I0
sg14
I4
sa(dp296
g6
I0
sg7
F0.0011920928955078125
sg8
F1.3333333333333335
sg9
I3
sg10
F0.0006873607635498047
sg11
F0.002012968063354492
sg12
I3
sg13
I0
sg14
I3
sasg17
I5
ssI76
(dp297
g2
I1
sg3
(lp298
(dp299
g6
I0
sg7
F0.015943050384521484
sg8
F1.0
sg9
I2
sg10
F0.0011229515075683594
sg11
F0.0018520355224609375
sg12
I2
sg13
I0
sg14
I2
sasg17
I2
ssI77
(dp300
g2
I0
sg3
(lp301
sg17
I1
ssI78
(dp302
g2
I0
sg3
(lp303
sg17
I1
ssI103
(dp304
g2
Nsg3
(lp305
(dp306
g6
I0
sg7
F0.016176939010620117
sg8
I0
sg9
I12
sg10
F0.007865190505981445
sg11
F0.0018391609191894531
sg12
I12
sg13
I0
sg14
I0
sasg17
I12
ssI104
(dp307
g2
Nsg3
(lp308
(dp309
g6
I0
sg7
F0.0036499500274658203
sg8
I0
sg9
I4
sg10
F0.0008900165557861328
sg11
F0.0018460750579833984
sg12
I4
sg13
I0
sg14
I0
sasg17
I4
ssI105
(dp310
g2
I0
sg3
(lp311
sg17
I1
ssI106
(dp312
g2
Nsg3
(lp313
(dp314
g6
I0
sg7
F0.007722139358520508
sg8
I0
sg9
I4
sg10
F0.001069784164428711
sg11
F0.0018889904022216797
sg12
I4
sg13
I0
sg14
I0
sasg17
I4
ssI107
(dp315
g2
Nsg3
(lp316
(dp317
g6
I0
sg7
F0.031976938247680664
sg8
I0
sg9
I16
sg10
F0.014559030532836914
sg11
F0.002187013626098633
sg12
I16
sg13
I0
sg14
I0
sasg17
I16
ssI108
(dp318
g2
I0
sg3
(lp319
sg17
I1
ss.