(dp0
I1
(dp1
S'iters'
p2
I2
sS'meta'
p3
(lp4
(dp5
S'objective'
p6
I46
sS'query_time'
p7
F0.053543806076049805
sS'comp_time'
p8
F0.017241239547729492
sS'exec_cq'
p9
I12
sS'total_cq'
p10
I12
sa(dp11
g6
I38
sg7
F6.29425048828125e-05
sg8
F0.00017404556274414062
sg9
I10
sg10
I10
sasS'total_cqs'
p12
I12
ssI2
(dp13
S'iters'
p14
I5
sS'meta'
p15
(lp16
(dp17
S'objective'
p18
I278
sS'query_time'
p19
F0.18679404258728027
sS'comp_time'
p20
F0.03634333610534668
sS'exec_cq'
p21
I27
sS'total_cq'
p22
I27
sa(dp23
g18
I236
sg19
F0.00021910667419433594
sg20
F0.0009491443634033203
sg21
I24
sg22
I24
sa(dp24
g18
I212
sg19
F0.0001430511474609375
sg20
F0.0005376338958740234
sg21
I21
sg22
I21
sa(dp25
g18
I183
sg19
F0.00016570091247558594
sg20
F0.0004458427429199219
sg21
I19
sg22
I19
sa(dp26
g18
I161
sg19
F0.00015497207641601562
sg20
F0.00041985511779785156
sg21
I17
sg22
I17
sasS'total_cqs'
p27
I27
ssI3
(dp28
S'iters'
p29
I4
sS'meta'
p30
(lp31
(dp32
S'objective'
p33
I640
sS'query_time'
p34
F232.39914989471436
sS'comp_time'
p35
F2.494534492492676
sS'exec_cq'
p36
I39
sS'total_cq'
p37
I43
sa(dp38
g33
I523
sg34
F0.6589639186859131
sg35
F2.2986838817596436
sg36
I31
sg37
I35
sa(dp39
g33
I550
sg34
F12.01715612411499
sg35
F0.4505801200866699
sg36
I28
sg37
I28
sa(dp40
g33
I518
sg34
F0.014651060104370117
sg35
F0.00017118453979492188
sg36
I25
sg37
I25
sasS'total_cqs'
p41
I43
ssI4
(dp42
S'iters'
p43
I2
sS'meta'
p44
(lp45
(dp46
S'objective'
p47
I36
sS'query_time'
p48
F4.947911024093628
sS'comp_time'
p49
F0.32670021057128906
sS'exec_cq'
p50
I11
sS'total_cq'
p51
I11
sa(dp52
g47
I7
sg48
F0.1666262149810791
sg49
F0.25406599044799805
sg50
I2
sg51
I2
sasS'total_cqs'
p53
I11
ssI5
(dp54
S'iters'
p55
I2
sS'meta'
p56
(lp57
(dp58
S'objective'
p59
I0
sS'query_time'
p60
F34.750061988830566
sS'comp_time'
p61
F2.20247483253479
sS'exec_cq'
p62
I8
sS'total_cq'
p63
I8
sa(dp64
g59
I2
sg60
F0.09801411628723145
sg61
F0.5082066059112549
sg62
I3
sg63
I3
sasS'total_cqs'
p65
I8
ssI6
(dp66
S'iters'
p67
I3
sS'meta'
p68
(lp69
(dp70
S'objective'
p71
I33
sS'query_time'
p72
F38.189204931259155
sS'comp_time'
p73
F1.9159901142120361
sS'exec_cq'
p74
I18
sS'total_cq'
p75
I18
sa(dp76
g71
I1
sg72
F0.782850980758667
sg73
F1.650663137435913
sg74
I7
sg75
I7
sa(dp77
g71
I2
sg72
F0.13797903060913086
sg73
F0.02651524543762207
sg74
I2
sg75
I2
sasS'total_cqs'
p78
I18
ssI7
(dp79
S'iters'
p80
I3
sS'meta'
p81
(lp82
(dp83
S'objective'
p84
I1
sS'query_time'
p85
F12.579412937164307
sS'comp_time'
p86
F2.7987327575683594
sS'exec_cq'
p87
I9
sS'total_cq'
p88
I9
sa(dp89
g84
I0
sg85
F0.20566391944885254
sg86
F0.38118839263916016
sg87
I4
sg88
I4
sa(dp90
g84
I7
sg85
F0.05574679374694824
sg86
F0.2479538917541504
sg87
I2
sg88
I2
sasS'total_cqs'
p91
I9
ssI8
(dp92
S'iters'
p93
I3
sS'meta'
p94
(lp95
(dp96
S'objective'
p97
I280
sS'query_time'
p98
F0.1701068878173828
sS'comp_time'
p99
F0.029664039611816406
sS'exec_cq'
p100
I27
sS'total_cq'
p101
I27
sa(dp102
g97
I271
sg98
F0.00017309188842773438
sg99
F0.0007328987121582031
sg100
I24
sg101
I24
sa(dp103
g97
I246
sg98
F7.104873657226562e-05
sg99
F0.00022101402282714844
sg100
I19
sg101
I19
sasS'total_cqs'
p104
I27
ssI9
(dp105
S'iters'
p106
I3
sS'meta'
p107
(lp108
(dp109
S'objective'
p110
I8
sS'query_time'
p111
F0.05072307586669922
sS'comp_time'
p112
F0.006902217864990234
sS'exec_cq'
p113
I7
sS'total_cq'
p114
I7
sa(dp115
g110
I2
sg111
F0.001177072525024414
sg112
F0.0006251335144042969
sg113
I5
sg114
I5
sa(dp116
g110
I6
sg111
F2.002716064453125e-05
sg112
F0.000110626220703125
sg113
I2
sg114
I2
sasS'total_cqs'
p117
I7
ssI10
(dp118
S'iters'
p119
I5
sS'meta'
p120
(lp121
(dp122
S'objective'
p123
I652
sS'query_time'
p124
F0.4666001796722412
sS'comp_time'
p125
F0.08594512939453125
sS'exec_cq'
p126
I51
sS'total_cq'
p127
I51
sa(dp128
g123
I367
sg124
F0.0005950927734375
sg125
F0.0025649070739746094
sg126
I28
sg127
I39
sa(dp129
g123
I474
sg124
F0.00024819374084472656
sg125
F0.001322031021118164
sg126
I25
sg127
I25
sa(dp130
g123
I420
sg124
F0.00010704994201660156
sg125
F0.00043129920959472656
sg126
I21
sg127
I21
sa(dp131
g123
I24
sg124
F0.0011610984802246094
sg125
F0.00035381317138671875
sg126
I3
sg127
I3
sasS'total_cqs'
p132
I51
ssI11
(dp133
S'iters'
p134
I4
sS'meta'
p135
(lp136
(dp137
S'objective'
p138
I1034
sS'query_time'
p139
F0.5511441230773926
sS'comp_time'
p140
F0.1813509464263916
sS'exec_cq'
p141
I63
sS'total_cq'
p142
I63
sa(dp143
g138
I1057
sg139
F0.0014050006866455078
sg140
F0.005007266998291016
sg141
I47
sg142
I47
sa(dp144
g138
I6
sg139
F0.0021991729736328125
sg140
F0.0026047229766845703
sg141
I9
sg142
I9
sa(dp145
g138
I6
sg139
F3.981590270996094e-05
sg140
F0.0002739429473876953
sg141
I4
sg142
I4
sasS'total_cqs'
p146
I63
ssI12
(dp147
S'iters'
p148
I5
sS'meta'
p149
(lp150
(dp151
S'objective'
p152
I321
sS'query_time'
p153
F0.3888661861419678
sS'comp_time'
p154
F0.0815117359161377
sS'exec_cq'
p155
I50
sS'total_cq'
p156
I50
sa(dp157
g152
I460
sg153
F0.00045990943908691406
sg154
F0.003179311752319336
sg155
I33
sg156
I33
sa(dp158
g152
I455
sg153
F0.00014901161193847656
sg154
F0.0007297992706298828
sg155
I26
sg156
I26
sa(dp159
g152
I386
sg153
F0.00021505355834960938
sg154
F0.0005779266357421875
sg155
I23
sg156
I23
sa(dp160
g152
I22
sg153
F0.002287149429321289
sg154
F0.0005679130554199219
sg155
I4
sg156
I4
sasS'total_cqs'
p161
I50
ssI13
(dp162
S'iters'
p163
I3
sS'meta'
p164
(lp165
(dp166
S'objective'
p167
I24
sS'query_time'
p168
F0.15219712257385254
sS'comp_time'
p169
F0.03550291061401367
sS'exec_cq'
p170
I20
sS'total_cq'
p171
I20
sa(dp172
g167
I27
sg168
F5.507469177246094e-05
sg169
F0.00039124488830566406
sg170
I9
sg171
I9
sa(dp173
g167
I7
sg168
F0.0015540122985839844
sg169
F0.0001518726348876953
sg170
I2
sg171
I2
sasS'total_cqs'
p174
I20
ssI14
(dp175
S'iters'
p176
I3
sS'meta'
p177
(lp178
(dp179
S'objective'
p180
I1
sS'query_time'
p181
F33.92130398750305
sS'comp_time'
p182
F1.791111946105957
sS'exec_cq'
p183
I9
sS'total_cq'
p184
I9
sa(dp185
g180
I2
sg181
F0.4198310375213623
sg182
F0.5693976879119873
sg183
I4
sg184
I4
sa(dp186
g180
I6
sg181
F0.1840071678161621
sg182
F0.42058777809143066
sg183
I2
sg184
I2
sasS'total_cqs'
p187
I9
ssI15
(dp188
S'iters'
p189
I3
sS'meta'
p190
(lp191
(dp192
S'objective'
p193
I2
sS'query_time'
p194
F3.9112889766693115
sS'comp_time'
p195
F0.1618342399597168
sS'exec_cq'
p196
I11
sS'total_cq'
p197
I11
sa(dp198
g193
I2
sg194
F0.15077996253967285
sg195
F0.03062891960144043
sg196
I5
sg197
I5
sa(dp199
g193
I4
sg194
F0.0010929107666015625
sg195
F0.0013098716735839844
sg196
I2
sg197
I2
sasS'total_cqs'
p200
I11
ssI16
(dp201
S'iters'
p202
I1
sS'meta'
p203
(lp204
(dp205
S'objective'
p206
I20
sS'query_time'
p207
F0.0279080867767334
sS'comp_time'
p208
F0.003804922103881836
sS'exec_cq'
p209
I8
sS'total_cq'
p210
I8
sasS'total_cqs'
p211
I8
ssI17
(dp212
S'iters'
p213
I2
sS'meta'
p214
(lp215
(dp216
S'objective'
p217
I0
sS'query_time'
p218
F0.8640339374542236
sS'comp_time'
p219
F0.02873396873474121
sS'exec_cq'
p220
I11
sS'total_cq'
p221
I11
sa(dp222
g217
I11
sg218
F0.00015997886657714844
sg219
F0.0005130767822265625
sg220
I5
sg221
I5
sasS'total_cqs'
p223
I11
ssI18
(dp224
S'iters'
p225
I2
sS'meta'
p226
(lp227
(dp228
S'objective'
p229
I18
sS'query_time'
p230
F0.2252671718597412
sS'comp_time'
p231
F0.023863792419433594
sS'exec_cq'
p232
I11
sS'total_cq'
p233
I11
sa(dp234
g229
I20
sg230
F0.00020503997802734375
sg231
F0.0003972053527832031
sg232
I7
sg233
I8
sasS'total_cqs'
p235
I11
ssI19
(dp236
S'iters'
p237
I0
sS'meta'
p238
(lp239
sS'total_cqs'
p240
I1
ssI20
(dp241
S'iters'
p242
I0
sS'meta'
p243
(lp244
sS'total_cqs'
p245
I1
ssI21
(dp246
S'iters'
p247
I0
sS'meta'
p248
(lp249
sS'total_cqs'
p250
I1
ssI22
(dp251
S'iters'
p252
I1
sS'meta'
p253
(lp254
(dp255
S'objective'
p256
I135
sS'query_time'
p257
F0.052677154541015625
sS'comp_time'
p258
F0.0273439884185791
sS'exec_cq'
p259
I18
sS'total_cq'
p260
I18
sasS'total_cqs'
p261
I18
ssI23
(dp262
S'iters'
p263
I2
sS'meta'
p264
(lp265
(dp266
S'objective'
p267
I92
sS'query_time'
p268
F0.0628659725189209
sS'comp_time'
p269
F0.02629375457763672
sS'exec_cq'
p270
I16
sS'total_cq'
p271
I16
sa(dp272
g267
I82
sg268
F0.00010824203491210938
sg269
F0.00021982192993164062
sg270
I14
sg271
I14
sasS'total_cqs'
p273
I16
ssI24
(dp274
S'iters'
p275
I0
sS'meta'
p276
(lp277
sS'total_cqs'
p278
I1
ssI25
(dp279
S'iters'
p280
I0
sS'meta'
p281
(lp282
sS'total_cqs'
p283
I1
ssI26
(dp284
S'iters'
p285
I1
sS'meta'
p286
(lp287
(dp288
S'objective'
p289
I819
sS'query_time'
p290
F0.15098214149475098
sS'comp_time'
p291
F0.11685824394226074
sS'exec_cq'
p292
I42
sS'total_cq'
p293
I42
sasS'total_cqs'
p294
I42
ssI27
(dp295
S'iters'
p296
I3
sS'meta'
p297
(lp298
(dp299
S'objective'
p300
I269
sS'query_time'
p301
F23.353368043899536
sS'comp_time'
p302
F1.6986048221588135
sS'exec_cq'
p303
I30
sS'total_cq'
p304
I30
sa(dp305
g300
I8
sg301
F0.5101699829101562
sg302
F1.5129988193511963
sg303
I5
sg304
I5
sa(dp306
g300
I15
sg301
F0.4577338695526123
sg302
F0.9726135730743408
sg303
I2
sg304
I2
sasS'total_cqs'
p307
I30
ssI28
(dp308
S'iters'
p309
I0
sS'meta'
p310
(lp311
sS'total_cqs'
p312
I1
ssI29
(dp313
S'iters'
p314
I5
sS'meta'
p315
(lp316
(dp317
S'objective'
p318
I297
sS'query_time'
p319
F29.263813972473145
sS'comp_time'
p320
F0.34664487838745117
sS'exec_cq'
p321
I35
sS'total_cq'
p322
I49
sa(dp323
g318
I64
sg319
F0.024729013442993164
sg320
F0.04241824150085449
sg321
I17
sg322
I17
sa(dp324
g318
I8
sg319
F0.001589059829711914
sg320
F0.0034449100494384766
sg321
I9
sg322
I9
sa(dp325
g318
I0
sg319
F0.0007650852203369141
sg320
F0.0018498897552490234
sg321
I4
sg322
I4
sa(dp326
g318
I30
sg319
F0.0005939006805419922
sg320
F0.00092315673828125
sg321
I2
sg322
I2
sasS'total_cqs'
p327
I49
ssI30
(dp328
S'iters'
p329
I1
sS'meta'
p330
(lp331
(dp332
S'objective'
p333
I1
sS'query_time'
p334
F0.6599678993225098
sS'comp_time'
p335
F0.01513671875
sS'exec_cq'
p336
I2
sS'total_cq'
p337
I2
sasS'total_cqs'
p338
I2
ssI31
(dp339
S'iters'
p340
I0
sS'meta'
p341
(lp342
sS'total_cqs'
p343
I1
ssI32
(dp344
S'iters'
p345
I1
sS'meta'
p346
(lp347
(dp348
S'objective'
p349
I1
sS'query_time'
p350
F0.01314401626586914
sS'comp_time'
p351
F0.003366231918334961
sS'exec_cq'
p352
I2
sS'total_cq'
p353
I2
sasS'total_cqs'
p354
I2
ssI33
(dp355
S'iters'
p356
I4
sS'meta'
p357
(lp358
(dp359
S'objective'
p360
I3656
sS'query_time'
p361
F18.556815147399902
sS'comp_time'
p362
F0.8866691589355469
sS'exec_cq'
p363
I103
sS'total_cq'
p364
I103
sa(dp365
g360
I6
sg361
F0.009038925170898438
sg362
F0.049286603927612305
sg363
I16
sg364
I16
sa(dp366
g360
I2
sg361
F0.0012028217315673828
sg362
F0.00614476203918457
sg363
I7
sg364
I7
sa(dp367
g360
I9
sg361
F0.0004649162292480469
sg362
F0.0009818077087402344
sg363
I3
sg364
I3
sasS'total_cqs'
p368
I103
ssI34
(dp369
S'iters'
p370
I1
sS'meta'
p371
(lp372
(dp373
S'objective'
p374
I1
sS'query_time'
p375
F0.022969961166381836
sS'comp_time'
p376
F0.001878976821899414
sS'exec_cq'
p377
I2
sS'total_cq'
p378
I2
sasS'total_cqs'
p379
I2
ssI35
(dp380
S'iters'
p381
I4
sS'meta'
p382
(lp383
(dp384
S'objective'
p385
I1259
sS'query_time'
p386
F71.72454309463501
sS'comp_time'
p387
F2.3662359714508057
sS'exec_cq'
p388
I70
sS'total_cq'
p389
I70
sa(dp390
g385
I155
sg386
F0.004687070846557617
sg387
F0.01576995849609375
sg388
I16
sg389
I16
sa(dp391
g385
I32
sg386
F0.0023708343505859375
sg387
F0.008967876434326172
sg388
I10
sg389
I10
sa(dp392
g385
I36
sg386
F0.0010781288146972656
sg387
F0.0018138885498046875
sg388
I4
sg389
I4
sasS'total_cqs'
p393
I70
ssI36
(dp394
S'iters'
p395
I3
sS'meta'
p396
(lp397
(dp398
S'objective'
p399
I459
sS'query_time'
p400
F0.8155250549316406
sS'comp_time'
p401
F0.14670157432556152
sS'exec_cq'
p402
I33
sS'total_cq'
p403
I33
sa(dp404
g399
I438
sg400
F0.008265018463134766
sg401
F0.01741957664489746
sg402
I29
sg403
I29
sa(dp405
g399
I408
sg400
F0.0025250911712646484
sg401
F0.0034918785095214844
sg402
I25
sg403
I25
sasS'total_cqs'
p406
I33
ssI37
(dp407
S'iters'
p408
I1
sS'meta'
p409
(lp410
(dp411
S'objective'
p412
I1
sS'query_time'
p413
F0.008946895599365234
sS'comp_time'
p414
F0.0011014938354492188
sS'exec_cq'
p415
I2
sS'total_cq'
p416
I2
sasS'total_cqs'
p417
I2
ssI38
(dp418
S'iters'
p419
I2
sS'meta'
p420
(lp421
(dp422
S'objective'
p423
I0
sS'query_time'
p424
F0.02489495277404785
sS'comp_time'
p425
F0.0024728775024414062
sS'exec_cq'
p426
I4
sS'total_cq'
p427
I4
sa(dp428
g423
I3
sg424
F8.0108642578125e-05
sg425
F0.000186920166015625
sg426
I2
sg427
I2
sasS'total_cqs'
p429
I4
ssI39
(dp430
S'iters'
p431
I2
sS'meta'
p432
(lp433
(dp434
S'objective'
p435
I680
sS'query_time'
p436
F0.2164309024810791
sS'comp_time'
p437
F0.1427311897277832
sS'exec_cq'
p438
I44
sS'total_cq'
p439
I44
sa(dp440
g435
I747
sg436
F0.0003139972686767578
sg437
F0.0020830631256103516
sg438
I37
sg439
I37
sasS'total_cqs'
p441
I44
ssI40
(dp442
S'iters'
p443
I1
sS'meta'
p444
(lp445
(dp446
S'objective'
p447
I14
sS'query_time'
p448
F0.031826019287109375
sS'comp_time'
p449
F0.006331205368041992
sS'exec_cq'
p450
I7
sS'total_cq'
p451
I7
sasS'total_cqs'
p452
I7
ssI41
(dp453
S'iters'
p454
I1
sS'meta'
p455
(lp456
(dp457
S'objective'
p458
I54
sS'query_time'
p459
F0.09430789947509766
sS'comp_time'
p460
F0.021109819412231445
sS'exec_cq'
p461
I12
sS'total_cq'
p462
I12
sasS'total_cqs'
p463
I12
ssI42
(dp464
S'iters'
p465
I1
sS'meta'
p466
(lp467
(dp468
S'objective'
p469
I779
sS'query_time'
p470
F0.1087639331817627
sS'comp_time'
p471
F0.13962340354919434
sS'exec_cq'
p472
I41
sS'total_cq'
p473
I41
sasS'total_cqs'
p474
I41
ssI43
(dp475
S'iters'
p476
I1
sS'meta'
p477
(lp478
(dp479
S'objective'
p480
I14
sS'query_time'
p481
F0.04578089714050293
sS'comp_time'
p482
F0.006670951843261719
sS'exec_cq'
p483
I7
sS'total_cq'
p484
I7
sasS'total_cqs'
p485
I7
ssI44
(dp486
S'iters'
p487
I4
sS'meta'
p488
(lp489
(dp490
S'objective'
p491
I662
sS'query_time'
p492
F0.39652013778686523
sS'comp_time'
p493
F0.10633373260498047
sS'exec_cq'
p494
I47
sS'total_cq'
p495
I47
sa(dp496
g491
I641
sg492
F0.00031685829162597656
sg493
F0.001016855239868164
sg494
I40
sg495
I40
sa(dp497
g491
I45
sg492
F0.004029989242553711
sg493
F0.0013666152954101562
sg494
I3
sg495
I3
sa(dp498
g491
I8
sg492
F0.00011301040649414062
sg493
F0.00023412704467773438
sg494
I2
sg495
I2
sasS'total_cqs'
p499
I47
ssI45
(dp500
S'iters'
p501
I0
sS'meta'
p502
(lp503
sS'total_cqs'
p504
I1
ssI46
(dp505
S'iters'
p506
I1
sS'meta'
p507
(lp508
(dp509
S'objective'
p510
I9
sS'query_time'
p511
F0.0252530574798584
sS'comp_time'
p512
F0.003487110137939453
sS'exec_cq'
p513
I4
sS'total_cq'
p514
I6
sasS'total_cqs'
p515
I6
ssI47
(dp516
S'iters'
p517
I1
sS'meta'
p518
(lp519
(dp520
S'objective'
p521
I1
sS'query_time'
p522
F0.016061067581176758
sS'comp_time'
p523
F0.00116729736328125
sS'exec_cq'
p524
I2
sS'total_cq'
p525
I2
sasS'total_cqs'
p526
I2
ssI48
(dp527
S'iters'
p528
I0
sS'meta'
p529
(lp530
sS'total_cqs'
p531
I1
ssI49
(dp532
S'iters'
p533
I0
sS'meta'
p534
(lp535
sS'total_cqs'
p536
I1
ssI50
(dp537
S'iters'
p538
I1
sS'meta'
p539
(lp540
(dp541
S'objective'
p542
I5
sS'query_time'
p543
F0.025023937225341797
sS'comp_time'
p544
F0.002577066421508789
sS'exec_cq'
p545
I5
sS'total_cq'
p546
I5
sasS'total_cqs'
p547
I5
ssI51
(dp548
S'iters'
p549
I1
sS'meta'
p550
(lp551
(dp552
S'objective'
p553
I1
sS'query_time'
p554
F0.013646125793457031
sS'comp_time'
p555
F0.0009777545928955078
sS'exec_cq'
p556
I2
sS'total_cq'
p557
I2
sasS'total_cqs'
p558
I2
ssI52
(dp559
S'iters'
p560
I1
sS'meta'
p561
(lp562
(dp563
S'objective'
p564
I1
sS'query_time'
p565
F0.008355140686035156
sS'comp_time'
p566
F0.00096893310546875
sS'exec_cq'
p567
I2
sS'total_cq'
p568
I2
sasS'total_cqs'
p569
I2
ssI53
(dp570
S'iters'
p571
I1
sS'meta'
p572
(lp573
(dp574
S'objective'
p575
I2
sS'query_time'
p576
F0.019446849822998047
sS'comp_time'
p577
F0.002379894256591797
sS'exec_cq'
p578
I4
sS'total_cq'
p579
I4
sasS'total_cqs'
p580
I4
ssI54
(dp581
S'iters'
p582
I1
sS'meta'
p583
(lp584
(dp585
S'objective'
p586
I0
sS'query_time'
p587
F0.06211400032043457
sS'comp_time'
p588
F0.0017554759979248047
sS'exec_cq'
p589
I3
sS'total_cq'
p590
I3
sasS'total_cqs'
p591
I3
ssI55
(dp592
S'iters'
p593
I4
sS'meta'
p594
(lp595
(dp596
S'objective'
p597
I4601
sS'query_time'
p598
F2.367689847946167
sS'comp_time'
p599
F0.610637903213501
sS'exec_cq'
p600
I109
sS'total_cq'
p601
I109
sa(dp602
g597
I4596
sg598
F0.0009179115295410156
sg599
F0.004040956497192383
sg600
I97
sg601
I97
sa(dp603
g597
I4263
sg598
F0.000431060791015625
sg599
F0.0015780925750732422
sg600
I91
sg601
I91
sa(dp604
g597
I4387
sg598
F0.0003960132598876953
sg599
F0.0012545585632324219
sg600
I87
sg601
I87
sasS'total_cqs'
p605
I109
ssI56
(dp606
S'iters'
p607
I4
sS'meta'
p608
(lp609
(dp610
S'objective'
p611
I1660
sS'query_time'
p612
F1.9033620357513428
sS'comp_time'
p613
F0.22324848175048828
sS'exec_cq'
p614
I67
sS'total_cq'
p615
I76
sa(dp616
g611
I11
sg612
F0.0070400238037109375
sg613
F0.06720471382141113
sg614
I16
sg615
I16
sa(dp617
g611
I22
sg612
F0.0006601810455322266
sg613
F0.0026602745056152344
sg614
I7
sg615
I7
sa(dp618
g611
I2
sg612
F0.0003809928894042969
sg613
F0.0009748935699462891
sg614
I4
sg615
I4
sasS'total_cqs'
p619
I76
ssI57
(dp620
S'iters'
p621
I5
sS'meta'
p622
(lp623
(dp624
S'objective'
p625
I346
sS'query_time'
p626
F25.836967945098877
sS'comp_time'
p627
F0.16052627563476562
sS'exec_cq'
p628
I45
sS'total_cq'
p629
I51
sa(dp630
g625
I80
sg626
F0.022053003311157227
sg627
F0.044257402420043945
sg628
I31
sg629
I31
sa(dp631
g625
I24
sg626
F0.002552032470703125
sg627
F0.004101276397705078
sg628
I13
sg629
I13
sa(dp632
g625
I5
sg626
F0.001461029052734375
sg627
F0.0031561851501464844
sg628
I6
sg629
I6
sa(dp633
g625
I11
sg626
F0.0002300739288330078
sg627
F0.000476837158203125
sg628
I3
sg629
I3
sasS'total_cqs'
p634
I51
ssI58
(dp635
S'iters'
p636
I6
sS'meta'
p637
(lp638
(dp639
S'objective'
p640
I81839
sS'query_time'
p641
F333.2140111923218
sS'comp_time'
p642
F23.784088134765625
sS'exec_cq'
p643
I486
sS'total_cq'
p644
I486
sa(dp645
g640
I85476
sg641
F5.55481481552124
sg642
F9.442065715789795
sg643
I414
sg644
I414
sa(dp646
g640
I15
sg641
F0.016337871551513672
sg642
F0.2231287956237793
sg643
I28
sg644
I28
sa(dp647
g640
I64
sg641
F0.008448123931884766
sg642
F0.4201517105102539
sg643
I14
sg644
I14
sa(dp648
g640
I33
sg641
F0.0020890235900878906
sg642
F0.0031321048736572266
sg643
I6
sg644
I6
sa(dp649
g640
I93
sg641
F0.0004100799560546875
sg642
F0.0006153583526611328
sg643
I2
sg644
I2
sasS'total_cqs'
p650
I486
ssI59
(dp651
S'iters'
p652
I2
sS'meta'
p653
(lp654
(dp655
S'objective'
p656
I12
sS'query_time'
p657
F0.06222987174987793
sS'comp_time'
p658
F0.006256103515625
sS'exec_cq'
p659
I7
sS'total_cq'
p660
I7
sa(dp661
g656
I6
sg657
F0.0001709461212158203
sg658
F0.0003802776336669922
sg659
I2
sg660
I2
sasS'total_cqs'
p662
I7
ssI60
(dp663
S'iters'
p664
I1
sS'meta'
p665
(lp666
(dp667
S'objective'
p668
I5
sS'query_time'
p669
F0.0474400520324707
sS'comp_time'
p670
F0.005120038986206055
sS'exec_cq'
p671
I3
sS'total_cq'
p672
I5
sasS'total_cqs'
p673
I5
ssI61
(dp674
S'iters'
p675
I0
sS'meta'
p676
(lp677
sS'total_cqs'
p678
I1
ssI62
(dp679
S'iters'
p680
I2
sS'meta'
p681
(lp682
(dp683
S'objective'
p684
I46
sS'query_time'
p685
F0.030083894729614258
sS'comp_time'
p686
F0.017962217330932617
sS'exec_cq'
p687
I12
sS'total_cq'
p688
I12
sa(dp689
g684
I38
sg685
F6.008148193359375e-05
sg686
F0.00019502639770507812
sg687
I9
sg688
I9
sasS'total_cqs'
p690
I12
ssI63
(dp691
S'iters'
p692
I0
sS'meta'
p693
(lp694
sS'total_cqs'
p695
I1
ssI64
(dp696
S'iters'
p697
I2
sS'meta'
p698
(lp699
(dp700
S'objective'
p701
I28
sS'query_time'
p702
F0.14879179000854492
sS'comp_time'
p703
F0.17485427856445312
sS'exec_cq'
p704
I12
sS'total_cq'
p705
I12
sa(dp706
g701
I1
sg702
F0.000125885009765625
sg703
F0.0004868507385253906
sg704
I4
sg705
I4
sasS'total_cqs'
p707
I12
ssI65
(dp708
S'iters'
p709
I3
sS'meta'
p710
(lp711
(dp712
S'objective'
p713
I166
sS'query_time'
p714
F0.8245058059692383
sS'comp_time'
p715
F0.11910295486450195
sS'exec_cq'
p716
I27
sS'total_cq'
p717
I27
sa(dp718
g713
I2
sg714
F0.001538991928100586
sg715
F0.002577066421508789
sg716
I7
sg717
I7
sa(dp719
g713
I2
sg714
F0.00032210350036621094
sg715
F0.0006749629974365234
sg716
I3
sg717
I3
sasS'total_cqs'
p720
I27
ssI66
(dp721
S'iters'
p722
I0
sS'meta'
p723
(lp724
sS'total_cqs'
p725
I1
ssI67
(dp726
S'iters'
p727
I2
sS'meta'
p728
(lp729
(dp730
S'objective'
p731
I522
sS'query_time'
p732
F1.057614803314209
sS'comp_time'
p733
F0.08682775497436523
sS'exec_cq'
p734
I35
sS'total_cq'
p735
I35
sa(dp736
g731
I16
sg732
F0.0011410713195800781
sg733
F0.002648591995239258
sg734
I2
sg735
I2
sasS'total_cqs'
p737
I35
ssI68
(dp738
S'iters'
p739
I0
sS'meta'
p740
(lp741
sS'total_cqs'
p742
I1
ssI69
(dp743
S'iters'
p744
I1
sS'meta'
p745
(lp746
(dp747
S'objective'
p748
I1224
sS'query_time'
p749
F0.18431615829467773
sS'comp_time'
p750
F0.3427155017852783
sS'exec_cq'
p751
I51
sS'total_cq'
p752
I51
sasS'total_cqs'
p753
I51
ssI70
(dp754
S'iters'
p755
I1
sS'meta'
p756
(lp757
(dp758
S'objective'
p759
I9
sS'query_time'
p760
F0.019782066345214844
sS'comp_time'
p761
F0.003093242645263672
sS'exec_cq'
p762
I6
sS'total_cq'
p763
I6
sasS'total_cqs'
p764
I6
ssI71
(dp765
S'iters'
p766
I5
sS'meta'
p767
(lp768
(dp769
S'objective'
p770
I3139
sS'query_time'
p771
F0.313978910446167
sS'comp_time'
p772
F0.4420762062072754
sS'exec_cq'
p773
I85
sS'total_cq'
p774
I85
sa(dp775
g770
I3055
sg771
F0.00036215782165527344
sg772
F0.001344919204711914
sg773
I81
sg774
I81
sa(dp776
g770
I2884
sg771
F0.00027489662170410156
sg772
F0.0008957386016845703
sg773
I78
sg774
I78
sa(dp777
g770
I2799
sg771
F0.0002541542053222656
sg772
F0.0009310245513916016
sg773
I74
sg774
I74
sa(dp778
g770
I42
sg771
F0.002206087112426758
sg772
F0.0028450489044189453
sg773
I3
sg774
I3
sasS'total_cqs'
p779
I85
ssI72
(dp780
S'iters'
p781
I3
sS'meta'
p782
(lp783
(dp784
S'objective'
p785
I14
sS'query_time'
p786
F0.45705699920654297
sS'comp_time'
p787
F0.005165815353393555
sS'exec_cq'
p788
I8
sS'total_cq'
p789
I8
sa(dp790
g785
I7
sg786
F0.0003948211669921875
sg787
F0.0011453628540039062
sg788
I4
sg789
I6
sa(dp791
g785
I0
sg786
F1.811981201171875e-05
sg787
F3.886222839355469e-05
sg788
I2
sg789
I3
sasS'total_cqs'
p792
I8
ssI73
(dp793
S'iters'
p794
I0
sS'meta'
p795
(lp796
sS'total_cqs'
p797
I1
ssI74
(dp798
S'iters'
p799
I0
sS'meta'
p800
(lp801
sS'total_cqs'
p802
I1
ssI75
(dp803
S'iters'
p804
I1
sS'meta'
p805
(lp806
(dp807
S'objective'
p808
I5
sS'query_time'
p809
F0.02151012420654297
sS'comp_time'
p810
F0.002476930618286133
sS'exec_cq'
p811
I5
sS'total_cq'
p812
I5
sasS'total_cqs'
p813
I5
ssI76
(dp814
S'iters'
p815
I1
sS'meta'
p816
(lp817
(dp818
S'objective'
p819
I1
sS'query_time'
p820
F0.010905981063842773
sS'comp_time'
p821
F0.0009171962738037109
sS'exec_cq'
p822
I2
sS'total_cq'
p823
I2
sasS'total_cqs'
p824
I2
ssI77
(dp825
S'iters'
p826
I0
sS'meta'
p827
(lp828
sS'total_cqs'
p829
I1
ssI78
(dp830
S'iters'
p831
I0
sS'meta'
p832
(lp833
sS'total_cqs'
p834
I1
ssI103
(dp835
S'iters'
p836
I1
sS'meta'
p837
(lp838
(dp839
S'objective'
p840
I54
sS'query_time'
p841
F0.05606794357299805
sS'comp_time'
p842
F0.024161100387573242
sS'exec_cq'
p843
I12
sS'total_cq'
p844
I12
sasS'total_cqs'
p845
I12
ssI104
(dp846
S'iters'
p847
I2
sS'meta'
p848
(lp849
(dp850
S'objective'
p851
I0
sS'query_time'
p852
F1.4700229167938232
sS'comp_time'
p853
F0.04427790641784668
sS'exec_cq'
p854
I4
sS'total_cq'
p855
I4
sa(dp856
g851
I3
sg852
F0.011654138565063477
sg853
F0.10330390930175781
sg854
I2
sg855
I2
sasS'total_cqs'
p857
I4
ssI105
(dp858
S'iters'
p859
I0
sS'meta'
p860
(lp861
sS'total_cqs'
p862
I1
ssI106
(dp863
S'iters'
p864
I1
sS'meta'
p865
(lp866
(dp867
S'objective'
p868
I2
sS'query_time'
p869
F0.019889116287231445
sS'comp_time'
p870
F0.0018558502197265625
sS'exec_cq'
p871
I4
sS'total_cq'
p872
I4
sasS'total_cqs'
p873
I4
ssI107
(dp874
S'iters'
p875
I2
sS'meta'
p876
(lp877
(dp878
S'objective'
p879
I78
sS'query_time'
p880
F0.07639694213867188
sS'comp_time'
p881
F0.02498602867126465
sS'exec_cq'
p882
I16
sS'total_cq'
p883
I16
sa(dp884
g879
I3
sg880
F0.005295991897583008
sg881
F0.0003972053527832031
sg882
I3
sg883
I3
sasS'total_cqs'
p885
I16
ssI108
(dp886
S'iters'
p887
I0
sS'meta'
p888
(lp889
sS'total_cqs'
p890
I1
ss.