(dp0
I1
(dp1
S'iters'
p2
I4
sS'meta'
p3
(lp4
(dp5
S'objective'
p6
I48
sS'query_time'
p7
F0.05393409729003906
sS'comp_time'
p8
F0.01793694496154785
sS'exec_cq'
p9
I12
sS'total_cq'
p10
I12
sa(dp11
g6
I41
sg7
F4.1961669921875e-05
sg8
F0.00015497207641601562
sg9
I10
sg10
I10
sa(dp12
g6
I42
sg7
F3.695487976074219e-05
sg8
F9.703636169433594e-05
sg9
I9
sg10
I9
sa(dp13
g6
I45
sg7
F3.0994415283203125e-05
sg8
F7.271766662597656e-05
sg9
I8
sg10
I8
sasS'total_cqs'
p14
I12
ssI2
(dp15
S'iters'
p16
I8
sS'meta'
p17
(lp18
(dp19
S'objective'
p20
I242
sS'query_time'
p21
F0.16045594215393066
sS'comp_time'
p22
F0.03539729118347168
sS'exec_cq'
p23
I27
sS'total_cq'
p24
I27
sa(dp25
g20
I210
sg21
F0.0002601146697998047
sg22
F0.0009036064147949219
sg23
I24
sg24
I24
sa(dp26
g20
I208
sg21
F0.0001227855682373047
sg22
F0.0005471706390380859
sg23
I21
sg24
I21
sa(dp27
g20
I192
sg21
F0.00010609626770019531
sg22
F0.0003139972686767578
sg23
I19
sg24
I19
sa(dp28
g20
I173
sg21
F7.724761962890625e-05
sg22
F0.00027108192443847656
sg23
I18
sg24
I18
sa(dp29
g20
I163
sg21
F6.628036499023438e-05
sg22
F0.00017189979553222656
sg23
I16
sg24
I16
sa(dp30
g20
I150
sg21
F6.699562072753906e-05
sg22
F0.00011873245239257812
sg23
I15
sg24
I15
sa(dp31
g20
I162
sg21
F5.4836273193359375e-05
sg22
F9.584426879882812e-05
sg23
I13
sg24
I13
sasS'total_cqs'
p32
I27
ssI3
(dp33
S'iters'
p34
I4
sS'meta'
p35
(lp36
(dp37
S'objective'
p38
I570
sS'query_time'
p39
F226.38490200042725
sS'comp_time'
p40
F2.3112008571624756
sS'exec_cq'
p41
I39
sS'total_cq'
p42
I43
sa(dp43
g38
I540
sg39
F0.2034597396850586
sg40
F0.2728707790374756
sg41
I32
sg42
I36
sa(dp44
g38
I551
sg39
F12.239065170288086
sg40
F0.595529317855835
sg41
I28
sg42
I28
sa(dp45
g38
I598
sg39
F0.012128353118896484
sg40
F0.00024700164794921875
sg41
I25
sg42
I25
sasS'total_cqs'
p46
I43
ssI4
(dp47
S'iters'
p48
I2
sS'meta'
p49
(lp50
(dp51
S'objective'
p52
I50
sS'query_time'
p53
F4.732980012893677
sS'comp_time'
p54
F0.5054507255554199
sS'exec_cq'
p55
I11
sS'total_cq'
p56
I11
sa(dp57
g52
I6
sg53
F0.2633631229400635
sg54
F0.37804293632507324
sg55
I2
sg56
I2
sasS'total_cqs'
p58
I11
ssI5
(dp59
S'iters'
p60
I3
sS'meta'
p61
(lp62
(dp63
S'objective'
p64
I0
sS'query_time'
p65
F31.433085918426514
sS'comp_time'
p66
F2.9033825397491455
sS'exec_cq'
p67
I8
sS'total_cq'
p68
I8
sa(dp69
g64
I0
sg65
F0.41681909561157227
sg66
F1.254521369934082
sg67
I4
sg68
I4
sa(dp70
g64
I7
sg65
F0.18404603004455566
sg66
F0.4515082836151123
sg67
I2
sg68
I2
sasS'total_cqs'
p71
I8
ssI6
(dp72
S'iters'
p73
I4
sS'meta'
p74
(lp75
(dp76
S'objective'
p77
I23
sS'query_time'
p78
F34.85879707336426
sS'comp_time'
p79
F1.5612890720367432
sS'exec_cq'
p80
I18
sS'total_cq'
p81
I18
sa(dp82
g77
I0
sg78
F0.6698207855224609
sg79
F2.3300130367279053
sg80
I7
sg81
I7
sa(dp83
g77
I1
sg78
F0.42053890228271484
sg79
F1.1670036315917969
sg80
I4
sg81
I4
sa(dp84
g77
I16
sg78
F0.23083114624023438
sg79
F0.5117533206939697
sg80
I2
sg81
I2
sasS'total_cqs'
p85
I18
ssI7
(dp86
S'iters'
p87
I5
sS'meta'
p88
(lp89
(dp90
S'objective'
p91
I1
sS'query_time'
p92
F13.350718975067139
sS'comp_time'
p93
F4.705519437789917
sS'exec_cq'
p94
I9
sS'total_cq'
p95
I9
sa(dp96
g91
I0
sg92
F0.025527000427246094
sg93
F0.06613564491271973
sg94
I6
sg95
I6
sa(dp97
g91
I1
sg92
F0.10067605972290039
sg93
F0.01663494110107422
sg94
I4
sg95
I4
sa(dp98
g91
I0
sg92
F0.007605075836181641
sg93
F0.015831708908081055
sg94
I3
sg95
I3
sa(dp99
g91
I1
sg92
F0.0028557777404785156
sg93
F0.0040760040283203125
sg94
I2
sg95
I2
sasS'total_cqs'
p100
I9
ssI8
(dp101
S'iters'
p102
I5
sS'meta'
p103
(lp104
(dp105
S'objective'
p106
I216
sS'query_time'
p107
F0.14455318450927734
sS'comp_time'
p108
F0.03404879570007324
sS'exec_cq'
p109
I27
sS'total_cq'
p110
I27
sa(dp111
g106
I215
sg107
F0.0002219676971435547
sg108
F0.0007615089416503906
sg109
I22
sg110
I22
sa(dp112
g106
I204
sg107
F0.00010776519775390625
sg108
F0.0002796649932861328
sg109
I19
sg110
I19
sa(dp113
g106
I194
sg107
F9.703636169433594e-05
sg108
F0.00017571449279785156
sg109
I18
sg110
I18
sa(dp114
g106
I210
sg107
F9.012222290039062e-05
sg108
F0.0001163482666015625
sg109
I17
sg110
I17
sasS'total_cqs'
p115
I27
ssI9
(dp116
S'iters'
p117
I3
sS'meta'
p118
(lp119
(dp120
S'objective'
p121
I4
sS'query_time'
p122
F0.04423403739929199
sS'comp_time'
p123
F0.005616664886474609
sS'exec_cq'
p124
I7
sS'total_cq'
p125
I7
sa(dp126
g121
I2
sg122
F3.695487976074219e-05
sg123
F0.0001857280731201172
sg124
I4
sg125
I4
sa(dp127
g121
I5
sg122
F0.0011839866638183594
sg123
F0.00010514259338378906
sg124
I2
sg125
I2
sasS'total_cqs'
p128
I7
ssI10
(dp129
S'iters'
p130
I7
sS'meta'
p131
(lp132
(dp133
S'objective'
p134
I360
sS'query_time'
p135
F0.331129789352417
sS'comp_time'
p136
F0.10552597045898438
sS'exec_cq'
p137
I51
sS'total_cq'
p138
I51
sa(dp139
g134
I165
sg135
F0.0002930164337158203
sg136
F0.0028476715087890625
sg137
I23
sg138
I37
sa(dp140
g134
I284
sg135
F0.00025582313537597656
sg136
F0.0012755393981933594
sg137
I25
sg138
I25
sa(dp141
g134
I300
sg135
F0.00010991096496582031
sg136
F0.00033211708068847656
sg137
I21
sg138
I21
sa(dp142
g134
I275
sg135
F9.202957153320312e-05
sg136
F0.00029087066650390625
sg137
I20
sg138
I20
sa(dp143
g134
I32
sg135
F0.0013878345489501953
sg136
F0.0003771781921386719
sg137
I3
sg138
I3
sa(dp144
g134
I32
sg135
F1.9073486328125e-05
sg136
F8.96453857421875e-05
sg137
I2
sg138
I2
sasS'total_cqs'
p145
I51
ssI11
(dp146
S'iters'
p147
I6
sS'meta'
p148
(lp149
(dp150
S'objective'
p151
I1092
sS'query_time'
p152
F0.6498069763183594
sS'comp_time'
p153
F0.1562511920928955
sS'exec_cq'
p154
I63
sS'total_cq'
p155
I63
sa(dp156
g151
I866
sg152
F0.0012369155883789062
sg153
F0.004760026931762695
sg154
I47
sg155
I47
sa(dp157
g151
I0
sg152
F0.0019948482513427734
sg153
F0.0023965835571289062
sg154
I9
sg155
I9
sa(dp158
g151
I6
sg152
F5.602836608886719e-05
sg153
F0.0003883838653564453
sg154
I6
sg155
I6
sa(dp159
g151
I65
sg152
F3.409385681152344e-05
sg153
F0.00015091896057128906
sg154
I4
sg155
I4
sa(dp160
g151
I10
sg152
F1.6927719116210938e-05
sg153
F9.703636169433594e-05
sg154
I2
sg155
I2
sasS'total_cqs'
p161
I63
ssI12
(dp162
S'iters'
p163
I7
sS'meta'
p164
(lp165
(dp166
S'objective'
p167
I339
sS'query_time'
p168
F0.3786039352416992
sS'comp_time'
p169
F0.08570003509521484
sS'exec_cq'
p170
I50
sS'total_cq'
p171
I50
sa(dp172
g167
I341
sg168
F0.0005218982696533203
sg169
F0.0029554367065429688
sg170
I33
sg171
I33
sa(dp173
g167
I314
sg168
F0.0001709461212158203
sg169
F0.0008025169372558594
sg170
I26
sg171
I26
sa(dp174
g167
I322
sg168
F0.00020194053649902344
sg169
F0.0006937980651855469
sg170
I23
sg171
I23
sa(dp175
g167
I7
sg168
F0.0015649795532226562
sg169
F0.0005769729614257812
sg170
I5
sg171
I5
sa(dp176
g167
I15
sg168
F4.00543212890625e-05
sg169
F0.00015592575073242188
sg170
I4
sg171
I4
sa(dp177
g167
I4
sg168
F2.4080276489257812e-05
sg169
F0.0001201629638671875
sg170
I2
sg171
I2
sasS'total_cqs'
p178
I50
ssI13
(dp179
S'iters'
p180
I5
sS'meta'
p181
(lp182
(dp183
S'objective'
p184
I38
sS'query_time'
p185
F0.17792606353759766
sS'comp_time'
p186
F0.05407595634460449
sS'exec_cq'
p187
I20
sS'total_cq'
p188
I20
sa(dp189
g184
I6
sg185
F0.0001239776611328125
sg186
F0.0006430149078369141
sg187
I14
sg188
I14
sa(dp190
g184
I15
sg185
F0.0017161369323730469
sg186
F0.00042819976806640625
sg187
I5
sg188
I5
sa(dp191
g184
I2
sg185
F2.384185791015625e-05
sg186
F0.0001628398895263672
sg187
I3
sg188
I3
sa(dp192
g184
I10
sg185
F1.5974044799804688e-05
sg186
F8.511543273925781e-05
sg187
I2
sg188
I2
sasS'total_cqs'
p193
I20
ssI14
(dp194
S'iters'
p195
I4
sS'meta'
p196
(lp197
(dp198
S'objective'
p199
I1
sS'query_time'
p200
F30.94913387298584
sS'comp_time'
p201
F1.1166129112243652
sS'exec_cq'
p202
I9
sS'total_cq'
p203
I9
sa(dp204
g199
I1
sg200
F0.30133605003356934
sg201
F0.5529391765594482
sg202
I5
sg203
I5
sa(dp205
g199
I5
sg200
F0.2954111099243164
sg201
F0.5114238262176514
sg202
I3
sg203
I3
sa(dp206
g199
I1
sg200
F0.16628408432006836
sg201
F0.27275609970092773
sg202
I2
sg203
I2
sasS'total_cqs'
p207
I9
ssI15
(dp208
S'iters'
p209
I4
sS'meta'
p210
(lp211
(dp212
S'objective'
p213
I0
sS'query_time'
p214
F3.6621029376983643
sS'comp_time'
p215
F0.12199020385742188
sS'exec_cq'
p216
I11
sS'total_cq'
p217
I11
sa(dp218
g213
I1
sg214
F0.0425870418548584
sg215
F0.14786267280578613
sg216
I5
sg217
I5
sa(dp219
g213
I6
sg214
F0.026681900024414062
sg215
F0.03027963638305664
sg216
I3
sg217
I3
sa(dp220
g213
I3
sg214
F0.014072895050048828
sg215
F0.11713504791259766
sg216
I2
sg217
I2
sasS'total_cqs'
p221
I11
ssI16
(dp222
S'iters'
p223
I1
sS'meta'
p224
(lp225
(dp226
S'objective'
p227
I34
sS'query_time'
p228
F0.019418001174926758
sS'comp_time'
p229
F0.004347801208496094
sS'exec_cq'
p230
I8
sS'total_cq'
p231
I8
sasS'total_cqs'
p232
I8
ssI17
(dp233
S'iters'
p234
I5
sS'meta'
p235
(lp236
(dp237
S'objective'
p238
I2
sS'query_time'
p239
F0.9920451641082764
sS'comp_time'
p240
F0.04822993278503418
sS'exec_cq'
p241
I11
sS'total_cq'
p242
I11
sa(dp243
g238
I0
sg239
F0.009218931198120117
sg240
F0.057984113693237305
sg241
I7
sg242
I7
sa(dp244
g238
I2
sg239
F0.00689387321472168
sg240
F0.006506204605102539
sg241
I4
sg242
I4
sa(dp245
g238
I1
sg239
F0.0028018951416015625
sg240
F0.005392551422119141
sg241
I3
sg242
I3
sa(dp246
g238
I1
sg239
F0.08949089050292969
sg240
F0.003434419631958008
sg241
I2
sg242
I2
sasS'total_cqs'
p247
I11
ssI18
(dp248
S'iters'
p249
I4
sS'meta'
p250
(lp251
(dp252
S'objective'
p253
I34
sS'query_time'
p254
F0.20049095153808594
sS'comp_time'
p255
F0.027349233627319336
sS'exec_cq'
p256
I11
sS'total_cq'
p257
I11
sa(dp258
g253
I32
sg254
F0.00023102760314941406
sg255
F0.0004749298095703125
sg256
I8
sg257
I8
sa(dp259
g253
I27
sg254
F0.00018906593322753906
sg255
F0.00038504600524902344
sg256
I7
sg257
I7
sa(dp260
g253
I32
sg254
F3.504753112792969e-05
sg255
F7.128715515136719e-05
sg256
I6
sg257
I6
sasS'total_cqs'
p261
I11
ssI22
(dp262
S'iters'
p263
I1
sS'meta'
p264
(lp265
(dp266
S'objective'
p267
I169
sS'query_time'
p268
F0.05873608589172363
sS'comp_time'
p269
F0.02794337272644043
sS'exec_cq'
p270
I18
sS'total_cq'
p271
I18
sasS'total_cqs'
p272
I18
ssI23
(dp273
S'iters'
p274
I3
sS'meta'
p275
(lp276
(dp277
S'objective'
p278
I110
sS'query_time'
p279
F0.07467317581176758
sS'comp_time'
p280
F0.024229049682617188
sS'exec_cq'
p281
I16
sS'total_cq'
p282
I16
sa(dp283
g278
I119
sg279
F0.00010514259338378906
sg280
F0.00021791458129882812
sg281
I14
sg282
I14
sa(dp284
g278
I119
sg279
F5.602836608886719e-05
sg280
F8.606910705566406e-05
sg281
I13
sg282
I13
sasS'total_cqs'
p285
I16
ssI26
(dp286
S'iters'
p287
I1
sS'meta'
p288
(lp289
(dp290
S'objective'
p291
I901
sS'query_time'
p292
F0.13007092475891113
sS'comp_time'
p293
F0.09566569328308105
sS'exec_cq'
p294
I42
sS'total_cq'
p295
I42
sasS'total_cqs'
p296
I42
ssI27
(dp297
S'iters'
p298
I4
sS'meta'
p299
(lp300
(dp301
S'objective'
p302
I323
sS'query_time'
p303
F21.398328065872192
sS'comp_time'
p304
F1.4831907749176025
sS'exec_cq'
p305
I30
sS'total_cq'
p306
I30
sa(dp307
g302
I3
sg303
F0.532689094543457
sg304
F1.969024419784546
sg305
I5
sg306
I5
sa(dp308
g302
I18
sg303
F0.4050021171569824
sg304
F0.8577003479003906
sg305
I3
sg306
I3
sa(dp309
g302
I6
sg303
F0.010754108428955078
sg304
F0.11835002899169922
sg305
I2
sg306
I2
sasS'total_cqs'
p310
I30
ssI29
(dp311
S'iters'
p312
I6
sS'meta'
p313
(lp314
(dp315
S'objective'
p316
I333
sS'query_time'
p317
F26.005162954330444
sS'comp_time'
p318
F0.327451229095459
sS'exec_cq'
p319
I35
sS'total_cq'
p320
I49
sa(dp321
g316
I36
sg317
F0.02374100685119629
sg318
F0.03965497016906738
sg319
I17
sg320
I17
sa(dp322
g316
I3
sg317
F0.0015439987182617188
sg318
F0.0024483203887939453
sg319
I9
sg320
I9
sa(dp323
g316
I6
sg317
F0.0007100105285644531
sg318
F0.0031914710998535156
sg319
I5
sg320
I5
sa(dp324
g316
I35
sg317
F0.0006101131439208984
sg318
F0.0009961128234863281
sg319
I3
sg320
I3
sa(dp325
g316
I5
sg317
F0.000579833984375
sg318
F0.0008752346038818359
sg319
I2
sg320
I2
sasS'total_cqs'
p326
I49
ssI30
(dp327
S'iters'
p328
I1
sS'meta'
p329
(lp330
(dp331
S'objective'
p332
I1
sS'query_time'
p333
F0.7832450866699219
sS'comp_time'
p334
F0.012596607208251953
sS'exec_cq'
p335
I2
sS'total_cq'
p336
I2
sasS'total_cqs'
p337
I2
ssI32
(dp338
S'iters'
p339
I1
sS'meta'
p340
(lp341
(dp342
S'objective'
p343
I1
sS'query_time'
p344
F0.0244138240814209
sS'comp_time'
p345
F0.0017392635345458984
sS'exec_cq'
p346
I2
sS'total_cq'
p347
I2
sasS'total_cqs'
p348
I2
ssI33
(dp349
S'iters'
p350
I6
sS'meta'
p351
(lp352
(dp353
S'objective'
p354
I3570
sS'query_time'
p355
F16.042609930038452
sS'comp_time'
p356
F1.0776641368865967
sS'exec_cq'
p357
I103
sS'total_cq'
p358
I103
sa(dp359
g354
I23
sg355
F0.008430957794189453
sg356
F0.0644228458404541
sg357
I16
sg358
I16
sa(dp360
g354
I33
sg355
F0.0035848617553710938
sg356
F0.02764892578125
sg357
I8
sg358
I8
sa(dp361
g354
I16
sg355
F0.0015091896057128906
sg356
F0.003620147705078125
sg357
I5
sg358
I5
sa(dp362
g354
I57
sg355
F0.0005021095275878906
sg356
F0.0009987354278564453
sg357
I3
sg358
I3
sa(dp363
g354
I24
sg355
F0.0003001689910888672
sg356
F0.0005757808685302734
sg357
I2
sg358
I2
sasS'total_cqs'
p364
I103
ssI34
(dp365
S'iters'
p366
I1
sS'meta'
p367
(lp368
(dp369
S'objective'
p370
I1
sS'query_time'
p371
F0.020035982131958008
sS'comp_time'
p372
F0.0024220943450927734
sS'exec_cq'
p373
I2
sS'total_cq'
p374
I2
sasS'total_cqs'
p375
I2
ssI35
(dp376
S'iters'
p377
I7
sS'meta'
p378
(lp379
(dp380
S'objective'
p381
I1351
sS'query_time'
p382
F69.39923095703125
sS'comp_time'
p383
F2.350468873977661
sS'exec_cq'
p384
I70
sS'total_cq'
p385
I70
sa(dp386
g381
I11
sg382
F0.004689931869506836
sg383
F0.020176172256469727
sg384
I16
sg385
I16
sa(dp387
g381
I30
sg382
F0.0021321773529052734
sg383
F0.004576921463012695
sg384
I10
sg385
I10
sa(dp388
g381
I26
sg382
F0.0005600452423095703
sg383
F0.001936197280883789
sg384
I6
sg385
I6
sa(dp389
g381
I31
sg382
F0.0002899169921875
sg383
F0.0005688667297363281
sg384
I4
sg385
I4
sa(dp390
g381
I10
sg382
F0.0001499652862548828
sg383
F0.0003581047058105469
sg384
I3
sg385
I3
sa(dp391
g381
I4
sg382
F0.0001418590545654297
sg383
F0.00030303001403808594
sg384
I2
sg385
I2
sasS'total_cqs'
p392
I70
ssI36
(dp393
S'iters'
p394
I5
sS'meta'
p395
(lp396
(dp397
S'objective'
p398
I403
sS'query_time'
p399
F0.8886470794677734
sS'comp_time'
p400
F0.08920407295227051
sS'exec_cq'
p401
I33
sS'total_cq'
p402
I33
sa(dp403
g398
I372
sg399
F0.0026869773864746094
sg400
F0.006680727005004883
sg401
I29
sg402
I29
sa(dp404
g398
I407
sg399
F0.0018968582153320312
sg400
F0.0036420822143554688
sg401
I25
sg402
I25
sa(dp405
g398
I411
sg399
F0.00042319297790527344
sg400
F0.00047588348388671875
sg401
I24
sg402
I24
sa(dp406
g398
I412
sg399
F0.00011110305786132812
sg400
F0.00021982192993164062
sg401
I23
sg402
I23
sasS'total_cqs'
p407
I33
ssI37
(dp408
S'iters'
p409
I1
sS'meta'
p410
(lp411
(dp412
S'objective'
p413
I1
sS'query_time'
p414
F0.013387918472290039
sS'comp_time'
p415
F0.004883289337158203
sS'exec_cq'
p416
I2
sS'total_cq'
p417
I2
sasS'total_cqs'
p418
I2
ssI38
(dp419
S'iters'
p420
I2
sS'meta'
p421
(lp422
(dp423
S'objective'
p424
I0
sS'query_time'
p425
F0.047985076904296875
sS'comp_time'
p426
F0.002866506576538086
sS'exec_cq'
p427
I4
sS'total_cq'
p428
I4
sa(dp429
g424
I3
sg425
F7.414817810058594e-05
sg426
F0.00017786026000976562
sg427
I2
sg428
I2
sasS'total_cqs'
p430
I4
ssI39
(dp431
S'iters'
p432
I2
sS'meta'
p433
(lp434
(dp435
S'objective'
p436
I642
sS'query_time'
p437
F0.20826005935668945
sS'comp_time'
p438
F0.08419919013977051
sS'exec_cq'
p439
I44
sS'total_cq'
p440
I44
sa(dp441
g436
I814
sg437
F0.00048089027404785156
sg438
F0.0010502338409423828
sg439
I37
sg440
I37
sasS'total_cqs'
p442
I44
ssI40
(dp443
S'iters'
p444
I1
sS'meta'
p445
(lp446
(dp447
S'objective'
p448
I26
sS'query_time'
p449
F0.03264212608337402
sS'comp_time'
p450
F0.006067991256713867
sS'exec_cq'
p451
I7
sS'total_cq'
p452
I7
sasS'total_cqs'
p453
I7
ssI41
(dp454
S'iters'
p455
I2
sS'meta'
p456
(lp457
(dp458
S'objective'
p459
I62
sS'query_time'
p460
F0.15407705307006836
sS'comp_time'
p461
F0.016458511352539062
sS'exec_cq'
p462
I12
sS'total_cq'
p463
I12
sa(dp464
g459
I68
sg460
F6.794929504394531e-05
sg461
F0.00011992454528808594
sg462
I11
sg463
I11
sasS'total_cqs'
p465
I12
ssI42
(dp466
S'iters'
p467
I4
sS'meta'
p468
(lp469
(dp470
S'objective'
p471
I827
sS'query_time'
p472
F0.10546302795410156
sS'comp_time'
p473
F0.07045125961303711
sS'exec_cq'
p474
I41
sS'total_cq'
p475
I41
sa(dp476
g471
I812
sg472
F0.00019288063049316406
sg473
F0.0002601146697998047
sg474
I40
sg475
I40
sa(dp477
g471
I822
sg472
F0.00017404556274414062
sg473
F0.00018453598022460938
sg474
I39
sg475
I39
sa(dp478
g471
I823
sg472
F0.00016689300537109375
sg473
F0.0001399517059326172
sg474
I38
sg475
I38
sasS'total_cqs'
p479
I41
ssI43
(dp480
S'iters'
p481
I1
sS'meta'
p482
(lp483
(dp484
S'objective'
p485
I26
sS'query_time'
p486
F0.026484966278076172
sS'comp_time'
p487
F0.0057070255279541016
sS'exec_cq'
p488
I7
sS'total_cq'
p489
I7
sasS'total_cqs'
p490
I7
ssI44
(dp491
S'iters'
p492
I4
sS'meta'
p493
(lp494
(dp495
S'objective'
p496
I774
sS'query_time'
p497
F0.14320898056030273
sS'comp_time'
p498
F0.16430377960205078
sS'exec_cq'
p499
I47
sS'total_cq'
p500
I47
sa(dp501
g496
I795
sg497
F0.0002830028533935547
sg498
F0.0009846687316894531
sg499
I40
sg500
I40
sa(dp502
g496
I14
sg497
F0.0013430118560791016
sg498
F0.0013382434844970703
sg499
I3
sg500
I3
sa(dp503
g496
I30
sg497
F2.5987625122070312e-05
sg498
F0.00010514259338378906
sg499
I2
sg500
I2
sasS'total_cqs'
p504
I47
ssI46
(dp505
S'iters'
p506
I3
sS'meta'
p507
(lp508
(dp509
S'objective'
p510
I9
sS'query_time'
p511
F0.017131805419921875
sS'comp_time'
p512
F0.0019598007202148438
sS'exec_cq'
p513
I6
sS'total_cq'
p514
I6
sa(dp515
g510
I5
sg511
F3.910064697265625e-05
sg512
F0.0001010894775390625
sg513
I5
sg514
I5
sa(dp516
g510
I8
sg511
F2.4080276489257812e-05
sg512
F5.817413330078125e-05
sg513
I4
sg514
I4
sasS'total_cqs'
p517
I6
ssI47
(dp518
S'iters'
p519
I1
sS'meta'
p520
(lp521
(dp522
S'objective'
p523
I1
sS'query_time'
p524
F0.008800983428955078
sS'comp_time'
p525
F0.001276254653930664
sS'exec_cq'
p526
I2
sS'total_cq'
p527
I2
sasS'total_cqs'
p528
I2
ssI50
(dp529
S'iters'
p530
I4
sS'meta'
p531
(lp532
(dp533
S'objective'
p534
I5
sS'query_time'
p535
F0.043917179107666016
sS'comp_time'
p536
F0.002341032028198242
sS'exec_cq'
p537
I5
sS'total_cq'
p538
I5
sa(dp539
g534
I2
sg535
F4.00543212890625e-05
sg536
F0.0001671314239501953
sg537
I4
sg538
I4
sa(dp540
g534
I0
sg535
F2.5033950805664062e-05
sg536
F0.00011181831359863281
sg537
I3
sg538
I3
sa(dp541
g534
I1
sg535
F2.002716064453125e-05
sg536
F9.202957153320312e-05
sg537
I2
sg538
I2
sasS'total_cqs'
p542
I5
ssI51
(dp543
S'iters'
p544
I1
sS'meta'
p545
(lp546
(dp547
S'objective'
p548
I1
sS'query_time'
p549
F0.008027791976928711
sS'comp_time'
p550
F0.0010294914245605469
sS'exec_cq'
p551
I2
sS'total_cq'
p552
I2
sasS'total_cqs'
p553
I2
ssI52
(dp554
S'iters'
p555
I1
sS'meta'
p556
(lp557
(dp558
S'objective'
p559
I1
sS'query_time'
p560
F0.008517026901245117
sS'comp_time'
p561
F0.001033782958984375
sS'exec_cq'
p562
I2
sS'total_cq'
p563
I2
sasS'total_cqs'
p564
I2
ssI53
(dp565
S'iters'
p566
I2
sS'meta'
p567
(lp568
(dp569
S'objective'
p570
I2
sS'query_time'
p571
F0.019694089889526367
sS'comp_time'
p572
F0.002828359603881836
sS'exec_cq'
p573
I4
sS'total_cq'
p574
I4
sa(dp575
g570
I2
sg571
F0.00010800361633300781
sg572
F0.00021529197692871094
sg573
I2
sg574
I2
sasS'total_cqs'
p576
I4
ssI54
(dp577
S'iters'
p578
I2
sS'meta'
p579
(lp580
(dp581
S'objective'
p582
I0
sS'query_time'
p583
F0.014889001846313477
sS'comp_time'
p584
F0.006013154983520508
sS'exec_cq'
p585
I3
sS'total_cq'
p586
I3
sa(dp587
g582
I1
sg583
F4.792213439941406e-05
sg584
F0.00013399124145507812
sg585
I2
sg586
I2
sasS'total_cqs'
p588
I3
ssI55
(dp589
S'iters'
p590
I9
sS'meta'
p591
(lp592
(dp593
S'objective'
p594
I4715
sS'query_time'
p595
F2.1757278442382812
sS'comp_time'
p596
F0.6394858360290527
sS'exec_cq'
p597
I109
sS'total_cq'
p598
I109
sa(dp599
g594
I4669
sg595
F0.000988006591796875
sg596
F0.00417637825012207
sg597
I97
sg598
I97
sa(dp600
g594
I4552
sg595
F0.0004119873046875
sg596
F0.001560211181640625
sg597
I91
sg598
I91
sa(dp601
g594
I4454
sg595
F0.00042891502380371094
sg596
F0.0013308525085449219
sg597
I87
sg598
I87
sa(dp602
g594
I4338
sg595
F0.00037598609924316406
sg596
F0.0009720325469970703
sg597
I85
sg598
I85
sa(dp603
g594
I4244
sg595
F0.0003349781036376953
sg596
F0.0007560253143310547
sg597
I83
sg598
I83
sa(dp604
g594
I4275
sg595
F0.0003249645233154297
sg596
F0.0005331039428710938
sg597
I81
sg598
I81
sa(dp605
g594
I4252
sg595
F0.0003159046173095703
sg596
F0.0003840923309326172
sg597
I80
sg598
I80
sa(dp606
g594
I4283
sg595
F0.00034809112548828125
sg596
F0.0003662109375
sg597
I79
sg598
I79
sasS'total_cqs'
p607
I109
ssI56
(dp608
S'iters'
p609
I5
sS'meta'
p610
(lp611
(dp612
S'objective'
p613
I1702
sS'query_time'
p614
F1.6446459293365479
sS'comp_time'
p615
F0.40384936332702637
sS'exec_cq'
p616
I67
sS'total_cq'
p617
I76
sa(dp618
g613
I46
sg614
F0.0057108402252197266
sg615
F0.08713817596435547
sg616
I16
sg617
I16
sa(dp619
g613
I25
sg614
F0.0026378631591796875
sg615
F0.008081912994384766
sg616
I9
sg617
I9
sa(dp620
g613
I21
sg614
F0.0004169940948486328
sg615
F0.000946044921875
sg616
I3
sg617
I3
sa(dp621
g613
I52
sg614
F0.00029587745666503906
sg615
F0.0005519390106201172
sg616
I2
sg617
I2
sasS'total_cqs'
p622
I76
ssI57
(dp623
S'iters'
p624
I7
sS'meta'
p625
(lp626
(dp627
S'objective'
p628
I274
sS'query_time'
p629
F22.592734813690186
sS'comp_time'
p630
F0.2142043113708496
sS'exec_cq'
p631
I45
sS'total_cq'
p632
I51
sa(dp633
g628
I28
sg629
F0.04534196853637695
sg630
F0.05041980743408203
sg631
I31
sg632
I31
sa(dp634
g628
I20
sg629
F0.013293027877807617
sg630
F0.43021130561828613
sg631
I13
sg632
I13
sa(dp635
g628
I1
sg629
F0.006194114685058594
sg630
F0.006643533706665039
sg631
I7
sg632
I7
sa(dp636
g628
I10
sg629
F0.004062175750732422
sg630
F0.013962507247924805
sg631
I5
sg632
I5
sa(dp637
g628
I1
sg629
F0.002680063247680664
sg630
F0.003679990768432617
sg631
I4
sg632
I4
sa(dp638
g628
I18
sg629
F0.0013611316680908203
sg630
F0.0020241737365722656
sg631
I2
sg632
I2
sasS'total_cqs'
p639
I51
ssI58
(dp640
S'iters'
p641
I7
sS'meta'
p642
(lp643
(dp644
S'objective'
p645
I83585
sS'query_time'
p646
F325.2701437473297
sS'comp_time'
p647
F27.157819747924805
sS'exec_cq'
p648
I486
sS'total_cq'
p649
I486
sa(dp650
g645
I87253
sg646
F6.660672187805176
sg647
F9.38911747932434
sg648
I414
sg649
I414
sa(dp651
g645
I9
sg646
F0.016476154327392578
sg647
F0.3487532138824463
sg648
I28
sg649
I28
sa(dp652
g645
I20
sg646
F0.0030629634857177734
sg647
F0.11327886581420898
sg648
I16
sg649
I16
sa(dp653
g645
I106
sg646
F0.0008749961853027344
sg647
F0.004396915435791016
sg648
I9
sg649
I9
sa(dp654
g645
I36
sg646
F0.0005230903625488281
sg647
F0.0022788047790527344
sg648
I5
sg649
I5
sa(dp655
g645
I385
sg646
F0.00021696090698242188
sg647
F0.00037384033203125
sg648
I2
sg649
I2
sasS'total_cqs'
p656
I486
ssI59
(dp657
S'iters'
p658
I2
sS'meta'
p659
(lp660
(dp661
S'objective'
p662
I20
sS'query_time'
p663
F0.046122074127197266
sS'comp_time'
p664
F0.006094932556152344
sS'exec_cq'
p665
I7
sS'total_cq'
p666
I7
sa(dp667
g662
I2
sg663
F0.00014901161193847656
sg664
F0.0003609657287597656
sg665
I2
sg666
I2
sasS'total_cqs'
p668
I7
ssI60
(dp669
S'iters'
p670
I4
sS'meta'
p671
(lp672
(dp673
S'objective'
p674
I5
sS'query_time'
p675
F0.0186920166015625
sS'comp_time'
p676
F0.003391742706298828
sS'exec_cq'
p677
I4
sS'total_cq'
p678
I5
sa(dp679
g674
I2
sg675
F5.2928924560546875e-05
sg676
F0.00016021728515625
sg677
I3
sg678
I4
sa(dp680
g674
I0
sg675
F4.1961669921875e-05
sg676
F4.792213439941406e-05
sg677
I1
sg678
I3
sa(dp681
g674
I1
sg675
F1.0013580322265625e-05
sg676
F2.4080276489257812e-05
sg677
I1
sg678
I2
sasS'total_cqs'
p682
I5
ssI62
(dp683
S'iters'
p684
I3
sS'meta'
p685
(lp686
(dp687
S'objective'
p688
I42
sS'query_time'
p689
F0.031577110290527344
sS'comp_time'
p690
F0.019697904586791992
sS'exec_cq'
p691
I12
sS'total_cq'
p692
I12
sa(dp693
g688
I52
sg689
F5.1021575927734375e-05
sg690
F0.00015997886657714844
sg691
I9
sg692
I9
sa(dp694
g688
I54
sg689
F3.1948089599609375e-05
sg690
F7.104873657226562e-05
sg691
I8
sg692
I8
sasS'total_cqs'
p695
I12
ssI64
(dp696
S'iters'
p697
I4
sS'meta'
p698
(lp699
(dp700
S'objective'
p701
I30
sS'query_time'
p702
F0.11456799507141113
sS'comp_time'
p703
F0.015960216522216797
sS'exec_cq'
p704
I12
sS'total_cq'
p705
I12
sa(dp706
g701
I0
sg702
F0.0009999275207519531
sg703
F0.0006327629089355469
sg704
I4
sg705
I4
sa(dp707
g701
I4
sg702
F8.606910705566406e-05
sg703
F0.0002677440643310547
sg704
I3
sg705
I3
sa(dp708
g701
I2
sg702
F6.008148193359375e-05
sg703
F0.0001423358917236328
sg704
I2
sg705
I2
sasS'total_cqs'
p709
I12
ssI65
(dp710
S'iters'
p711
I6
sS'meta'
p712
(lp713
(dp714
S'objective'
p715
I212
sS'query_time'
p716
F0.8375468254089355
sS'comp_time'
p717
F0.14684748649597168
sS'exec_cq'
p718
I27
sS'total_cq'
p719
I27
sa(dp720
g715
I11
sg716
F0.0012760162353515625
sg717
F0.002190113067626953
sg718
I7
sg719
I7
sa(dp721
g715
I12
sg716
F0.0006859302520751953
sg717
F0.0012640953063964844
sg718
I5
sg719
I5
sa(dp722
g715
I0
sg716
F0.0005941390991210938
sg717
F0.0010876655578613281
sg718
I4
sg719
I4
sa(dp723
g715
I0
sg716
F0.0002830028533935547
sg717
F0.0006020069122314453
sg718
I3
sg719
I3
sa(dp724
g715
I1
sg716
F0.00021696090698242188
sg717
F0.00047278404235839844
sg718
I2
sg719
I2
sasS'total_cqs'
p725
I27
ssI67
(dp726
S'iters'
p727
I2
sS'meta'
p728
(lp729
(dp730
S'objective'
p731
I570
sS'query_time'
p732
F0.9655799865722656
sS'comp_time'
p733
F0.06902742385864258
sS'exec_cq'
p734
I35
sS'total_cq'
p735
I35
sa(dp736
g731
I28
sg732
F0.0014600753784179688
sg733
F0.0032379627227783203
sg734
I2
sg735
I2
sasS'total_cqs'
p737
I35
ssI69
(dp738
S'iters'
p739
I1
sS'meta'
p740
(lp741
(dp742
S'objective'
p743
I1324
sS'query_time'
p744
F0.16056489944458008
sS'comp_time'
p745
F0.09974288940429688
sS'exec_cq'
p746
I51
sS'total_cq'
p747
I51
sasS'total_cqs'
p748
I51
ssI70
(dp749
S'iters'
p750
I4
sS'meta'
p751
(lp752
(dp753
S'objective'
p754
I11
sS'query_time'
p755
F0.02190709114074707
sS'comp_time'
p756
F0.002476930618286133
sS'exec_cq'
p757
I6
sS'total_cq'
p758
I6
sa(dp759
g754
I10
sg755
F4.38690185546875e-05
sg756
F0.00012803077697753906
sg757
I5
sg758
I5
sa(dp760
g754
I9
sg755
F3.1948089599609375e-05
sg756
F9.107589721679688e-05
sg757
I4
sg758
I4
sa(dp761
g754
I9
sg755
F2.6941299438476562e-05
sg756
F6.937980651855469e-05
sg757
I3
sg758
I3
sasS'total_cqs'
p762
I6
ssI71
(dp763
S'iters'
p764
I8
sS'meta'
p765
(lp766
(dp767
S'objective'
p768
I3067
sS'query_time'
p769
F0.29195427894592285
sS'comp_time'
p770
F0.17917418479919434
sS'exec_cq'
p771
I85
sS'total_cq'
p772
I85
sa(dp773
g768
I3063
sg769
F0.0003600120544433594
sg770
F0.0013320446014404297
sg771
I81
sg772
I81
sa(dp774
g768
I2956
sg769
F0.0002739429473876953
sg770
F0.0009932518005371094
sg771
I77
sg772
I77
sa(dp775
g768
I2876
sg769
F0.0002739429473876953
sg770
F0.0008947849273681641
sg771
I74
sg772
I74
sa(dp776
g768
I2804
sg769
F0.00023794174194335938
sg770
F0.0006246566772460938
sg771
I71
sg772
I71
sa(dp777
g768
I2744
sg769
F0.00024008750915527344
sg770
F0.0005950927734375
sg771
I69
sg772
I69
sa(dp778
g768
I50
sg769
F0.0019719600677490234
sg770
F0.0021088123321533203
sg771
I3
sg772
I3
sa(dp779
g768
I10
sg769
F0.002622842788696289
sg770
F0.00011134147644042969
sg771
I2
sg772
I2
sasS'total_cqs'
p780
I85
ssI72
(dp781
S'iters'
p782
I5
sS'meta'
p783
(lp784
(dp785
S'objective'
p786
I6
sS'query_time'
p787
F0.02971196174621582
sS'comp_time'
p788
F0.0036687850952148438
sS'exec_cq'
p789
I4
sS'total_cq'
p790
I8
sa(dp791
g786
I1
sg787
F6.508827209472656e-05
sg788
F6.008148193359375e-05
sg789
I2
sg790
I6
sa(dp792
g786
I2
sg787
F0.314572811126709
sg788
F0.0016705989837646484
sg789
I4
sg790
I4
sa(dp793
g786
I0
sg787
F0.00033402442932128906
sg788
F0.0005850791931152344
sg789
I3
sg790
I3
sa(dp794
g786
I1
sg787
F0.0002989768981933594
sg788
F0.0005805492401123047
sg789
I2
sg790
I2
sasS'total_cqs'
p795
I8
ssI75
(dp796
S'iters'
p797
I4
sS'meta'
p798
(lp799
(dp800
S'objective'
p801
I5
sS'query_time'
p802
F0.012686014175415039
sS'comp_time'
p803
F0.001718759536743164
sS'exec_cq'
p804
I5
sS'total_cq'
p805
I5
sa(dp806
g801
I2
sg802
F2.4080276489257812e-05
sg803
F0.00010609626770019531
sg804
I4
sg805
I4
sa(dp807
g801
I0
sg802
F1.5974044799804688e-05
sg803
F7.43865966796875e-05
sg804
I3
sg805
I3
sa(dp808
g801
I1
sg802
F1.3113021850585938e-05
sg803
F6.103515625e-05
sg804
I2
sg805
I2
sasS'total_cqs'
p809
I5
ssI76
(dp810
S'iters'
p811
I1
sS'meta'
p812
(lp813
(dp814
S'objective'
p815
I1
sS'query_time'
p816
F0.015861988067626953
sS'comp_time'
p817
F0.0018932819366455078
sS'exec_cq'
p818
I2
sS'total_cq'
p819
I2
sasS'total_cqs'
p820
I2
ssI103
(dp821
S'iters'
p822
I2
sS'meta'
p823
(lp824
(dp825
S'objective'
p826
I62
sS'query_time'
p827
F0.06223917007446289
sS'comp_time'
p828
F0.01564335823059082
sS'exec_cq'
p829
I12
sS'total_cq'
p830
I12
sa(dp831
g826
I68
sg827
F4.482269287109375e-05
sg828
F9.417533874511719e-05
sg829
I11
sg830
I11
sasS'total_cqs'
p832
I12
ssI104
(dp833
S'iters'
p834
I2
sS'meta'
p835
(lp836
(dp837
S'objective'
p838
I0
sS'query_time'
p839
F1.4290730953216553
sS'comp_time'
p840
F0.11527872085571289
sS'exec_cq'
p841
I4
sS'total_cq'
p842
I4
sa(dp843
g838
I3
sg839
F0.012433052062988281
sg840
F0.021609783172607422
sg841
I2
sg842
I2
sasS'total_cqs'
p844
I4
ssI106
(dp845
S'iters'
p846
I1
sS'meta'
p847
(lp848
(dp849
S'objective'
p850
I8
sS'query_time'
p851
F0.01646900177001953
sS'comp_time'
p852
F0.002415895462036133
sS'exec_cq'
p853
I4
sS'total_cq'
p854
I4
sasS'total_cqs'
p855
I4
ssI107
(dp856
S'iters'
p857
I2
sS'meta'
p858
(lp859
(dp860
S'objective'
p861
I96
sS'query_time'
p862
F0.0765829086303711
sS'comp_time'
p863
F0.11437726020812988
sS'exec_cq'
p864
I16
sS'total_cq'
p865
I16
sa(dp866
g861
I18
sg862
F0.005131959915161133
sg863
F0.0003619194030761719
sg864
I3
sg865
I3
sasS'total_cqs'
p867
I16
ss.