(dp0
I1
(dp1
S'iters'
p2
I3
sS'meta'
p3
(lp4
(dp5
S'objective'
p6
I56
sS'query_time'
p7
F0.07396101951599121
sS'comp_time'
p8
F0.00021409988403320312
sS'exec_cq'
p9
I12
sS'total_cq'
p10
I12
sa(dp11
g6
I49
sg7
F5.698204040527344e-05
sg8
F9.512901306152344e-05
sg9
I11
sg10
I11
sa(dp12
g6
I50
sg7
F2.8133392333984375e-05
sg8
F5.4836273193359375e-05
sg9
I9
sg10
I9
sasS'total_cqs'
p13
I12
ssI2
(dp14
S'iters'
p15
I7
sS'meta'
p16
(lp17
(dp18
S'objective'
p19
I266
sS'query_time'
p20
F0.18891310691833496
sS'comp_time'
p21
F0.0012941360473632812
sS'exec_cq'
p22
I27
sS'total_cq'
p23
I27
sa(dp24
g19
I216
sg20
F0.0001800060272216797
sg21
F0.0005679130554199219
sg22
I23
sg23
I23
sa(dp25
g19
I195
sg20
F0.0001399517059326172
sg21
F0.0004458427429199219
sg22
I20
sg23
I20
sa(dp26
g19
I198
sg20
F0.00013208389282226562
sg21
F0.0004038810729980469
sg22
I18
sg23
I18
sa(dp27
g19
I189
sg20
F0.000102996826171875
sg21
F0.0003349781036376953
sg22
I17
sg23
I17
sa(dp28
g19
I178
sg20
F6.4849853515625e-05
sg21
F0.00014281272888183594
sg22
I15
sg23
I15
sa(dp29
g19
I174
sg20
F6.198883056640625e-05
sg21
F0.0001270771026611328
sg22
I14
sg23
I14
sasS'total_cqs'
p30
I27
ssI3
(dp31
S'iters'
p32
I4
sS'meta'
p33
(lp34
(dp35
S'objective'
p36
I242
sS'query_time'
p37
F159.37823510169983
sS'comp_time'
p38
F1.6042163372039795
sS'exec_cq'
p39
I43
sS'total_cq'
p40
I43
sa(dp41
g36
I30
sg37
F0.3433818817138672
sg38
F1.3269331455230713
sg39
I27
sg40
I27
sa(dp42
g36
I46
sg37
F0.0637509822845459
sg38
F0.45259904861450195
sg39
I13
sg40
I13
sa(dp43
g36
I140
sg37
F5.507469177246094e-05
sg38
F0.0035657882690429688
sg39
I7
sg40
I7
sasS'total_cqs'
p44
I43
ssI4
(dp45
S'iters'
p46
I2
sS'meta'
p47
(lp48
(dp49
S'objective'
p50
I40
sS'query_time'
p51
F3.8413891792297363
sS'comp_time'
p52
F0.3638191223144531
sS'exec_cq'
p53
I11
sS'total_cq'
p54
I11
sa(dp55
g50
I5
sg51
F0.15004181861877441
sg52
F0.44800305366516113
sg53
I2
sg54
I2
sasS'total_cqs'
p56
I11
ssI5
(dp57
S'iters'
p58
I4
sS'meta'
p59
(lp60
(dp61
S'objective'
p62
I0
sS'query_time'
p63
F27.017539978027344
sS'comp_time'
p64
F2.206027030944824
sS'exec_cq'
p65
I8
sS'total_cq'
p66
I8
sa(dp67
g62
I2
sg63
F0.3274068832397461
sg64
F1.068099021911621
sg65
I4
sg66
I4
sa(dp68
g62
I0
sg63
F0.28238606452941895
sg64
F1.0318949222564697
sg65
I3
sg66
I3
sa(dp69
g62
I1
sg63
F0.17341899871826172
sg64
F0.6584250926971436
sg65
I2
sg66
I2
sasS'total_cqs'
p70
I8
ssI6
(dp71
S'iters'
p72
I4
sS'meta'
p73
(lp74
(dp75
S'objective'
p76
I67
sS'query_time'
p77
F29.98250412940979
sS'comp_time'
p78
F2.7927799224853516
sS'exec_cq'
p79
I18
sS'total_cq'
p80
I18
sa(dp81
g76
I0
sg77
F0.6900129318237305
sg78
F2.8728511333465576
sg79
I7
sg80
I7
sa(dp82
g76
I0
sg77
F0.5712170600891113
sg78
F2.1104400157928467
sg79
I5
sg80
I5
sa(dp83
g76
I1
sg77
F0.09444999694824219
sg78
F0.8755898475646973
sg79
I2
sg80
I2
sasS'total_cqs'
p84
I18
ssI7
(dp85
S'iters'
p86
I3
sS'meta'
p87
(lp88
(dp89
S'objective'
p90
I1
sS'query_time'
p91
F10.068071842193604
sS'comp_time'
p92
F0.8920400142669678
sS'exec_cq'
p93
I9
sS'total_cq'
p94
I9
sa(dp95
g90
I1
sg91
F0.0040130615234375
sg92
F0.01585984230041504
sg93
I4
sg94
I4
sa(dp96
g90
I3
sg91
F0.0022020339965820312
sg92
F0.013052940368652344
sg93
I2
sg94
I2
sasS'total_cqs'
p97
I9
ssI8
(dp98
S'iters'
p99
I5
sS'meta'
p100
(lp101
(dp102
S'objective'
p103
I256
sS'query_time'
p104
F0.17416119575500488
sS'comp_time'
p105
F0.001104116439819336
sS'exec_cq'
p106
I27
sS'total_cq'
p107
I27
sa(dp108
g103
I227
sg104
F0.00012493133544921875
sg105
F0.0003120899200439453
sg106
I22
sg107
I22
sa(dp109
g103
I238
sg104
F6.318092346191406e-05
sg105
F8.797645568847656e-05
sg106
I19
sg107
I19
sa(dp110
g103
I229
sg104
F5.984306335449219e-05
sg105
F7.104873657226562e-05
sg106
I18
sg107
I18
sa(dp111
g103
I226
sg104
F5.2928924560546875e-05
sg105
F5.316734313964844e-05
sg106
I17
sg107
I17
sasS'total_cqs'
p112
I27
ssI9
(dp113
S'iters'
p114
I3
sS'meta'
p115
(lp116
(dp117
S'objective'
p118
I2
sS'query_time'
p119
F0.055177927017211914
sS'comp_time'
p120
F0.0002617835998535156
sS'exec_cq'
p121
I7
sS'total_cq'
p122
I7
sa(dp123
g118
I3
sg119
F3.1948089599609375e-05
sg120
F6.508827209472656e-05
sg121
I4
sg122
I4
sa(dp124
g118
I1
sg119
F1.6927719116210938e-05
sg120
F5.078315734863281e-05
sg121
I2
sg122
I2
sasS'total_cqs'
p125
I7
ssI10
(dp126
S'iters'
p127
I6
sS'meta'
p128
(lp129
(dp130
S'objective'
p131
I506
sS'query_time'
p132
F0.4005699157714844
sS'comp_time'
p133
F0.007117033004760742
sS'exec_cq'
p134
I51
sS'total_cq'
p135
I51
sa(dp136
g131
I300
sg132
F0.00042700767517089844
sg133
F0.0014078617095947266
sg134
I37
sg135
I37
sa(dp137
g131
I394
sg132
F0.0001850128173828125
sg133
F0.0006487369537353516
sg134
I25
sg135
I25
sa(dp138
g131
I367
sg132
F8.702278137207031e-05
sg133
F0.00017404556274414062
sg134
I21
sg135
I21
sa(dp139
g131
I318
sg132
F8.0108642578125e-05
sg133
F0.00014495849609375
sg134
I19
sg135
I19
sa(dp140
g131
I30
sg132
F0.001116037368774414
sg133
F9.703636169433594e-05
sg134
I3
sg135
I3
sasS'total_cqs'
p141
I51
ssI11
(dp142
S'iters'
p143
I7
sS'meta'
p144
(lp145
(dp146
S'objective'
p147
I816
sS'query_time'
p148
F0.6546831130981445
sS'comp_time'
p149
F0.014261960983276367
sS'exec_cq'
p150
I63
sS'total_cq'
p151
I63
sa(dp152
g147
I936
sg148
F0.0010528564453125
sg149
F0.004205226898193359
sg150
I47
sg151
I47
sa(dp153
g147
I16
sg148
F0.0014231204986572266
sg149
F0.0009500980377197266
sg150
I9
sg151
I9
sa(dp154
g147
I18
sg148
F7.605552673339844e-05
sg149
F0.0003390312194824219
sg150
I6
sg151
I6
sa(dp155
g147
I5
sg148
F3.0040740966796875e-05
sg149
F0.000102996826171875
sg150
I4
sg151
I4
sa(dp156
g147
I3
sg148
F1.9073486328125e-05
sg149
F6.413459777832031e-05
sg150
I3
sg151
I3
sa(dp157
g147
I13
sg148
F1.5020370483398438e-05
sg149
F5.269050598144531e-05
sg150
I2
sg151
I2
sasS'total_cqs'
p158
I63
ssI12
(dp159
S'iters'
p160
I5
sS'meta'
p161
(lp162
(dp163
S'objective'
p164
I599
sS'query_time'
p165
F0.3955090045928955
sS'comp_time'
p166
F0.006183147430419922
sS'exec_cq'
p167
I50
sS'total_cq'
p168
I50
sa(dp169
g164
I521
sg165
F0.0004558563232421875
sg166
F0.0017368793487548828
sg167
I33
sg168
I33
sa(dp170
g164
I8
sg165
F0.0017750263214111328
sg166
F0.0013058185577392578
sg167
I8
sg168
I8
sa(dp171
g164
I38
sg165
F4.410743713378906e-05
sg166
F0.00013184547424316406
sg167
I5
sg168
I5
sa(dp172
g164
I7
sg165
F2.5987625122070312e-05
sg166
F0.00010395050048828125
sg167
I3
sg168
I3
sasS'total_cqs'
p173
I50
ssI13
(dp174
S'iters'
p175
I4
sS'meta'
p176
(lp177
(dp178
S'objective'
p179
I0
sS'query_time'
p180
F0.1857309341430664
sS'comp_time'
p181
F0.0003960132598876953
sS'exec_cq'
p182
I20
sS'total_cq'
p183
I20
sa(dp184
g179
I5
sg180
F0.0013248920440673828
sg181
F0.00028395652770996094
sg182
I11
sg183
I11
sa(dp185
g179
I3
sg180
F4.696846008300781e-05
sg181
F0.00011301040649414062
sg182
I6
sg183
I6
sa(dp186
g179
I14
sg180
F1.5974044799804688e-05
sg181
F5.2928924560546875e-05
sg182
I2
sg183
I2
sasS'total_cqs'
p187
I20
ssI14
(dp188
S'iters'
p189
I3
sS'meta'
p190
(lp191
(dp192
S'objective'
p193
I1
sS'query_time'
p194
F27.271625995635986
sS'comp_time'
p195
F0.916546106338501
sS'exec_cq'
p196
I9
sS'total_cq'
p197
I9
sa(dp198
g193
I4
sg194
F0.1458439826965332
sg195
F0.5266940593719482
sg196
I4
sg197
I4
sa(dp199
g193
I1
sg194
F0.13255810737609863
sg195
F0.5265860557556152
sg196
I2
sg197
I2
sasS'total_cqs'
p200
I9
ssI15
(dp201
S'iters'
p202
I4
sS'meta'
p203
(lp204
(dp205
S'objective'
p206
I2
sS'query_time'
p207
F2.9512250423431396
sS'comp_time'
p208
F0.1479649543762207
sS'exec_cq'
p209
I11
sS'total_cq'
p210
I11
sa(dp211
g206
I2
sg207
F0.0298309326171875
sg208
F0.12847113609313965
sg209
I6
sg210
I6
sa(dp212
g206
I0
sg207
F0.008836030960083008
sg208
F0.06052088737487793
sg209
I4
sg210
I4
sa(dp213
g206
I1
sg207
F0.008069992065429688
sg208
F0.03739285469055176
sg209
I3
sg210
I3
sasS'total_cqs'
p214
I11
ssI16
(dp215
S'iters'
p216
I1
sS'meta'
p217
(lp218
(dp219
S'objective'
p220
I30
sS'query_time'
p221
F0.03133893013000488
sS'comp_time'
p222
F0.00013113021850585938
sS'exec_cq'
p223
I8
sS'total_cq'
p224
I8
sasS'total_cqs'
p225
I8
ssI17
(dp226
S'iters'
p227
I4
sS'meta'
p228
(lp229
(dp230
S'objective'
p231
I2
sS'query_time'
p232
F0.8529970645904541
sS'comp_time'
p233
F0.023833036422729492
sS'exec_cq'
p234
I11
sS'total_cq'
p235
I11
sa(dp236
g231
I0
sg232
F0.008191108703613281
sg233
F0.024951696395874023
sg234
I7
sg235
I7
sa(dp237
g231
I2
sg232
F0.0025441646575927734
sg233
F0.009396076202392578
sg234
I4
sg235
I4
sa(dp238
g231
I1
sg232
F0.001474142074584961
sg233
F0.008451223373413086
sg234
I3
sg235
I3
sasS'total_cqs'
p239
I11
ssI18
(dp240
S'iters'
p241
I4
sS'meta'
p242
(lp243
(dp244
S'objective'
p245
I22
sS'query_time'
p246
F0.21789097785949707
sS'comp_time'
p247
F0.005161285400390625
sS'exec_cq'
p248
I11
sS'total_cq'
p249
I11
sa(dp250
g245
I32
sg246
F0.00029087066650390625
sg247
F0.0012478828430175781
sg248
I8
sg249
I8
sa(dp251
g245
I28
sg246
F7.104873657226562e-05
sg247
F0.0002949237823486328
sg248
I7
sg249
I7
sa(dp252
g245
I25
sg246
F4.00543212890625e-05
sg247
F0.00086212158203125
sg248
I6
sg249
I6
sasS'total_cqs'
p253
I11
ssI19
(dp254
S'iters'
p255
I0
sS'meta'
p256
(lp257
sS'total_cqs'
p258
I1
ssI20
(dp259
S'iters'
p260
I0
sS'meta'
p261
(lp262
sS'total_cqs'
p263
I1
ssI21
(dp264
S'iters'
p265
I0
sS'meta'
p266
(lp267
sS'total_cqs'
p268
I1
ssI22
(dp269
S'iters'
p270
I1
sS'meta'
p271
(lp272
(dp273
S'objective'
p274
I159
sS'query_time'
p275
F0.06065106391906738
sS'comp_time'
p276
F0.0002090930938720703
sS'exec_cq'
p277
I18
sS'total_cq'
p278
I18
sasS'total_cqs'
p279
I18
ssI23
(dp280
S'iters'
p281
I3
sS'meta'
p282
(lp283
(dp284
S'objective'
p285
I116
sS'query_time'
p286
F0.07974791526794434
sS'comp_time'
p287
F0.0006768703460693359
sS'exec_cq'
p288
I16
sS'total_cq'
p289
I16
sa(dp290
g285
I108
sg286
F8.392333984375e-05
sg287
F0.0002319812774658203
sg288
I14
sg289
I14
sa(dp291
g285
I107
sg286
F4.601478576660156e-05
sg287
F5.3882598876953125e-05
sg288
I13
sg289
I13
sasS'total_cqs'
p292
I16
ssI24
(dp293
S'iters'
p294
I0
sS'meta'
p295
(lp296
sS'total_cqs'
p297
I1
ssI25
(dp298
S'iters'
p299
I0
sS'meta'
p300
(lp301
sS'total_cqs'
p302
I1
ssI26
(dp303
S'iters'
p304
I1
sS'meta'
p305
(lp306
(dp307
S'objective'
p308
I879
sS'query_time'
p309
F0.22615408897399902
sS'comp_time'
p310
F0.0001900196075439453
sS'exec_cq'
p311
I42
sS'total_cq'
p312
I42
sasS'total_cqs'
p313
I42
ssI27
(dp314
S'iters'
p315
I4
sS'meta'
p316
(lp317
(dp318
S'objective'
p319
I299
sS'query_time'
p320
F17.531659841537476
sS'comp_time'
p321
F1.8647706508636475
sS'exec_cq'
p322
I30
sS'total_cq'
p323
I30
sa(dp324
g319
I3
sg320
F0.46485209465026855
sg321
F2.3782949447631836
sg322
I5
sg323
I5
sa(dp325
g319
I10
sg320
F0.0783538818359375
sg321
F0.6130328178405762
sg322
I3
sg323
I3
sa(dp326
g319
I3
sg320
F0.13775396347045898
sg321
F0.3952651023864746
sg322
I2
sg323
I2
sasS'total_cqs'
p327
I30
ssI28
(dp328
S'iters'
p329
I0
sS'meta'
p330
(lp331
sS'total_cqs'
p332
I1
ssI29
(dp333
S'iters'
p334
I5
sS'meta'
p335
(lp336
(dp337
S'objective'
p338
I451
sS'query_time'
p339
F134.7224941253662
sS'comp_time'
p340
F13.475726127624512
sS'exec_cq'
p341
I49
sS'total_cq'
p342
I49
sa(dp343
g338
I13
sg339
F0.0212709903717041
sg340
F0.046154022216796875
sg341
I17
sg342
I17
sa(dp344
g338
I6
sg339
F0.0013909339904785156
sg340
F0.0050618648529052734
sg341
I9
sg342
I9
sa(dp345
g338
I13
sg339
F0.0005810260772705078
sg340
F0.003047943115234375
sg341
I3
sg342
I3
sa(dp346
g338
I27
sg339
F0.0005729198455810547
sg340
F0.003197908401489258
sg341
I2
sg342
I2
sasS'total_cqs'
p347
I49
ssI30
(dp348
S'iters'
p349
I1
sS'meta'
p350
(lp351
(dp352
S'objective'
p353
I1
sS'query_time'
p354
F0.6838209629058838
sS'comp_time'
p355
F0.02460193634033203
sS'exec_cq'
p356
I2
sS'total_cq'
p357
I2
sasS'total_cqs'
p358
I2
ssI31
(dp359
S'iters'
p360
I0
sS'meta'
p361
(lp362
sS'total_cqs'
p363
I1
ssI32
(dp364
S'iters'
p365
I1
sS'meta'
p366
(lp367
(dp368
S'objective'
p369
I1
sS'query_time'
p370
F0.010441064834594727
sS'comp_time'
p371
F0.00023794174194335938
sS'exec_cq'
p372
I2
sS'total_cq'
p373
I2
sasS'total_cqs'
p374
I2
ssI33
(dp375
S'iters'
p376
I5
sS'meta'
p377
(lp378
(dp379
S'objective'
p380
I3692
sS'query_time'
p381
F14.218969106674194
sS'comp_time'
p382
F0.12978291511535645
sS'exec_cq'
p383
I103
sS'total_cq'
p384
I103
sa(dp385
g380
I14
sg381
F0.008008003234863281
sg382
F0.041055917739868164
sg383
I16
sg384
I16
sa(dp386
g380
I1
sg381
F0.004188060760498047
sg382
F0.013954877853393555
sg383
I11
sg384
I11
sa(dp387
g380
I14
sg381
F0.0002491474151611328
sg382
F0.0010039806365966797
sg383
I4
sg384
I4
sa(dp388
g380
I59
sg381
F8.606910705566406e-05
sg382
F0.00041413307189941406
sg383
I2
sg384
I2
sasS'total_cqs'
p389
I103
ssI34
(dp390
S'iters'
p391
I1
sS'meta'
p392
(lp393
(dp394
S'objective'
p395
I1
sS'query_time'
p396
F0.017117023468017578
sS'comp_time'
p397
F0.0005769729614257812
sS'exec_cq'
p398
I2
sS'total_cq'
p399
I2
sasS'total_cqs'
p400
I2
ssI35
(dp401
S'iters'
p402
I17
sS'meta'
p403
(lp404
(dp405
S'objective'
p406
I2367
sS'query_time'
p407
F49.90580487251282
sS'comp_time'
p408
F3.9900858402252197
sS'exec_cq'
p409
I70
sS'total_cq'
p410
I70
sa(dp411
g406
I2310
sg407
F0.9416260719299316
sg408
F3.582373857498169
sg409
I69
sg410
I69
sa(dp412
g406
I2266
sg407
F0.9294919967651367
sg408
F3.3332700729370117
sg409
I68
sg410
I68
sa(dp413
g406
I2223
sg407
F0.8381631374359131
sg408
F3.254722833633423
sg409
I67
sg410
I67
sa(dp414
g406
I2208
sg407
F0.854546070098877
sg408
F3.3611161708831787
sg409
I66
sg410
I66
sa(dp415
g406
I2061
sg407
F0.00022101402282714844
sg408
F0.051503896713256836
sg409
I65
sg410
I65
sa(dp416
g406
I2010
sg407
F0.06002092361450195
sg408
F0.05038714408874512
sg409
I62
sg410
I62
sa(dp417
g406
I1942
sg407
F0.04220008850097656
sg408
F0.032254934310913086
sg409
I61
sg410
I61
sa(dp418
g406
I1767
sg407
F0.2768571376800537
sg408
F0.22971820831298828
sg409
I60
sg410
I60
sa(dp419
g406
I1459
sg407
F0.21166300773620605
sg408
F0.1891770362854004
sg409
I58
sg410
I58
sa(dp420
g406
I1546
sg407
F0.1838669776916504
sg408
F0.17366528511047363
sg409
I54
sg410
I54
sa(dp421
g406
I1402
sg407
F0.05726194381713867
sg408
F0.04967308044433594
sg409
I53
sg410
I53
sa(dp422
g406
I1386
sg407
F0.042543888092041016
sg408
F0.04193305969238281
sg409
I51
sg410
I51
sa(dp423
g406
I1322
sg407
F0.17493414878845215
sg408
F0.17180800437927246
sg409
I50
sg410
I50
sa(dp424
g406
I1278
sg407
F0.20307207107543945
sg408
F0.18412184715270996
sg409
I48
sg410
I48
sa(dp425
g406
I1189
sg407
F0.1690196990966797
sg408
F0.136016845703125
sg409
I47
sg410
I47
sa(dp426
g406
I33
sg407
F0.18706727027893066
sg408
F0.011739969253540039
sg409
I2
sg410
I2
sasS'total_cqs'
p427
I70
ssI36
(dp428
S'iters'
p429
I5
sS'meta'
p430
(lp431
(dp432
S'objective'
p433
I397
sS'query_time'
p434
F0.8328731060028076
sS'comp_time'
p435
F0.028666973114013672
sS'exec_cq'
p436
I33
sS'total_cq'
p437
I33
sa(dp438
g433
I417
sg434
F0.0027170181274414062
sg435
F0.011873006820678711
sg436
I29
sg437
I29
sa(dp439
g433
I390
sg434
F0.0016660690307617188
sg435
F0.008090972900390625
sg436
I25
sg437
I25
sa(dp440
g433
I393
sg434
F0.0011310577392578125
sg435
F0.006670236587524414
sg436
I24
sg437
I24
sa(dp441
g433
I386
sg434
F0.00013899803161621094
sg435
F0.00031304359436035156
sg436
I23
sg437
I23
sasS'total_cqs'
p442
I33
ssI37
(dp443
S'iters'
p444
I1
sS'meta'
p445
(lp446
(dp447
S'objective'
p448
I1
sS'query_time'
p449
F0.013175010681152344
sS'comp_time'
p450
F0.00033211708068847656
sS'exec_cq'
p451
I2
sS'total_cq'
p452
I2
sasS'total_cqs'
p453
I2
ssI38
(dp454
S'iters'
p455
I2
sS'meta'
p456
(lp457
(dp458
S'objective'
p459
I0
sS'query_time'
p460
F0.029862165451049805
sS'comp_time'
p461
F0.00061798095703125
sS'exec_cq'
p462
I4
sS'total_cq'
p463
I4
sa(dp464
g459
I1
sg460
F0.00010585784912109375
sg461
F0.0003757476806640625
sg462
I2
sg463
I2
sasS'total_cqs'
p465
I4
ssI39
(dp466
S'iters'
p467
I2
sS'meta'
p468
(lp469
(dp470
S'objective'
p471
I666
sS'query_time'
p472
F0.1837019920349121
sS'comp_time'
p473
F0.0017468929290771484
sS'exec_cq'
p474
I44
sS'total_cq'
p475
I44
sa(dp476
g471
I804
sg472
F0.0002961158752441406
sg473
F0.0013689994812011719
sg474
I37
sg475
I37
sasS'total_cqs'
p477
I44
ssI40
(dp478
S'iters'
p479
I1
sS'meta'
p480
(lp481
(dp482
S'objective'
p483
I22
sS'query_time'
p484
F0.03976011276245117
sS'comp_time'
p485
F8.392333984375e-05
sS'exec_cq'
p486
I7
sS'total_cq'
p487
I7
sasS'total_cqs'
p488
I7
ssI41
(dp489
S'iters'
p490
I1
sS'meta'
p491
(lp492
(dp493
S'objective'
p494
I70
sS'query_time'
p495
F0.07902407646179199
sS'comp_time'
p496
F0.00014090538024902344
sS'exec_cq'
p497
I12
sS'total_cq'
p498
I12
sasS'total_cqs'
p499
I12
ssI42
(dp500
S'iters'
p501
I3
sS'meta'
p502
(lp503
(dp504
S'objective'
p505
I825
sS'query_time'
p506
F0.1346268653869629
sS'comp_time'
p507
F0.00018405914306640625
sS'exec_cq'
p508
I41
sS'total_cq'
p509
I41
sa(dp510
g505
I815
sg506
F0.0001430511474609375
sg507
F0.000102996826171875
sg508
I40
sg509
I40
sa(dp511
g505
I805
sg506
F0.00013494491577148438
sg507
F8.893013000488281e-05
sg508
I39
sg509
I39
sasS'total_cqs'
p512
I41
ssI43
(dp513
S'iters'
p514
I1
sS'meta'
p515
(lp516
(dp517
S'objective'
p518
I22
sS'query_time'
p519
F0.03500199317932129
sS'comp_time'
p520
F0.0001201629638671875
sS'exec_cq'
p521
I7
sS'total_cq'
p522
I7
sasS'total_cqs'
p523
I7
ssI44
(dp524
S'iters'
p525
I4
sS'meta'
p526
(lp527
(dp528
S'objective'
p529
I760
sS'query_time'
p530
F0.1633760929107666
sS'comp_time'
p531
F0.0010309219360351562
sS'exec_cq'
p532
I47
sS'total_cq'
p533
I47
sa(dp534
g529
I808
sg530
F0.0002880096435546875
sg531
F0.004539966583251953
sg532
I40
sg533
I40
sa(dp535
g529
I10
sg530
F0.0020210742950439453
sg531
F0.0006821155548095703
sg532
I3
sg533
I3
sa(dp536
g529
I3
sg530
F3.1948089599609375e-05
sg531
F0.00012493133544921875
sg532
I2
sg533
I2
sasS'total_cqs'
p537
I47
ssI45
(dp538
S'iters'
p539
I0
sS'meta'
p540
(lp541
sS'total_cqs'
p542
I1
ssI46
(dp543
S'iters'
p544
I2
sS'meta'
p545
(lp546
(dp547
S'objective'
p548
I9
sS'query_time'
p549
F0.02690601348876953
sS'comp_time'
p550
F0.0002961158752441406
sS'exec_cq'
p551
I6
sS'total_cq'
p552
I6
sa(dp553
g548
I9
sg549
F3.0040740966796875e-05
sg550
F5.412101745605469e-05
sg551
I5
sg552
I5
sasS'total_cqs'
p554
I6
ssI47
(dp555
S'iters'
p556
I1
sS'meta'
p557
(lp558
(dp559
S'objective'
p560
I1
sS'query_time'
p561
F0.009701967239379883
sS'comp_time'
p562
F0.0002911090850830078
sS'exec_cq'
p563
I2
sS'total_cq'
p564
I2
sasS'total_cqs'
p565
I2
ssI48
(dp566
S'iters'
p567
I0
sS'meta'
p568
(lp569
sS'total_cqs'
p570
I1
ssI49
(dp571
S'iters'
p572
I0
sS'meta'
p573
(lp574
sS'total_cqs'
p575
I1
ssI50
(dp576
S'iters'
p577
I3
sS'meta'
p578
(lp579
(dp580
S'objective'
p581
I5
sS'query_time'
p582
F0.018013954162597656
sS'comp_time'
p583
F0.0001537799835205078
sS'exec_cq'
p584
I5
sS'total_cq'
p585
I5
sa(dp586
g581
I2
sg582
F3.2901763916015625e-05
sg583
F9.179115295410156e-05
sg584
I4
sg585
I4
sa(dp587
g581
I0
sg582
F2.288818359375e-05
sg583
F7.987022399902344e-05
sg584
I3
sg585
I3
sasS'total_cqs'
p588
I5
ssI51
(dp589
S'iters'
p590
I1
sS'meta'
p591
(lp592
(dp593
S'objective'
p594
I1
sS'query_time'
p595
F0.007411956787109375
sS'comp_time'
p596
F0.0001571178436279297
sS'exec_cq'
p597
I2
sS'total_cq'
p598
I2
sasS'total_cqs'
p599
I2
ssI52
(dp600
S'iters'
p601
I1
sS'meta'
p602
(lp603
(dp604
S'objective'
p605
I1
sS'query_time'
p606
F0.011540889739990234
sS'comp_time'
p607
F0.00022482872009277344
sS'exec_cq'
p608
I2
sS'total_cq'
p609
I2
sasS'total_cqs'
p610
I2
ssI53
(dp611
S'iters'
p612
I2
sS'meta'
p613
(lp614
(dp615
S'objective'
p616
I2
sS'query_time'
p617
F0.01966094970703125
sS'comp_time'
p618
F0.0006768703460693359
sS'exec_cq'
p619
I4
sS'total_cq'
p620
I4
sa(dp621
g616
I2
sg617
F8.320808410644531e-05
sg618
F0.00035691261291503906
sg619
I3
sg620
I3
sasS'total_cqs'
p622
I4
ssI54
(dp623
S'iters'
p624
I2
sS'meta'
p625
(lp626
(dp627
S'objective'
p628
I0
sS'query_time'
p629
F0.011917829513549805
sS'comp_time'
p630
F0.00030803680419921875
sS'exec_cq'
p631
I3
sS'total_cq'
p632
I3
sa(dp633
g628
I1
sg629
F4.506111145019531e-05
sg630
F0.00021719932556152344
sg631
I2
sg632
I2
sasS'total_cqs'
p634
I3
ssI55
(dp635
S'iters'
p636
I9
sS'meta'
p637
(lp638
(dp639
S'objective'
p640
I4869
sS'query_time'
p641
F2.488204002380371
sS'comp_time'
p642
F0.04055213928222656
sS'exec_cq'
p643
I109
sS'total_cq'
p644
I109
sa(dp645
g640
I4798
sg641
F0.0013279914855957031
sg642
F0.0024406909942626953
sg643
I97
sg644
I97
sa(dp646
g640
I4817
sg641
F0.0004138946533203125
sg642
F0.0010519027709960938
sg643
I91
sg644
I91
sa(dp647
g640
I4668
sg641
F0.0003809928894042969
sg642
F0.0009350776672363281
sg643
I89
sg644
I89
sa(dp648
g640
I4609
sg641
F0.00036597251892089844
sg642
F0.0010302066802978516
sg643
I87
sg644
I87
sa(dp649
g640
I4519
sg641
F0.000370025634765625
sg642
F0.0006868839263916016
sg643
I85
sg644
I85
sa(dp650
g640
I4426
sg641
F0.00032901763916015625
sg642
F0.0005629062652587891
sg643
I84
sg644
I84
sa(dp651
g640
I4397
sg641
F0.00030803680419921875
sg642
F0.0005218982696533203
sg643
I80
sg644
I80
sa(dp652
g640
I4401
sg641
F0.0003008842468261719
sg642
F0.00048613548278808594
sg643
I79
sg644
I79
sasS'total_cqs'
p653
I109
ssI56
(dp654
S'iters'
p655
I6
sS'meta'
p656
(lp657
(dp658
S'objective'
p659
I1596
sS'query_time'
p660
F3.3748250007629395
sS'comp_time'
p661
F0.1477210521697998
sS'exec_cq'
p662
I76
sS'total_cq'
p663
I76
sa(dp664
g659
I53
sg660
F0.00488591194152832
sg661
F0.009569168090820312
sg662
I16
sg663
I16
sa(dp665
g659
I3
sg660
F0.002434968948364258
sg661
F0.006667137145996094
sg662
I8
sg663
I8
sa(dp666
g659
I9
sg660
F0.0011539459228515625
sg661
F0.004010915756225586
sg662
I5
sg663
I5
sa(dp667
g659
I44
sg660
F0.0002689361572265625
sg661
F0.0017199516296386719
sg662
I3
sg663
I3
sa(dp668
g659
I19
sg660
F0.0002129077911376953
sg661
F0.0011243820190429688
sg662
I2
sg663
I2
sasS'total_cqs'
p669
I76
ssI57
(dp670
S'iters'
p671
I6
sS'meta'
p672
(lp673
(dp674
S'objective'
p675
I54
sS'query_time'
p676
F67.80211114883423
sS'comp_time'
p677
F3.439727783203125
sS'exec_cq'
p678
I51
sS'total_cq'
p679
I51
sa(dp680
g675
I36
sg676
F0.013686180114746094
sg677
F0.028531789779663086
sg678
I27
sg679
I27
sa(dp681
g675
I17
sg676
F0.0021431446075439453
sg677
F0.0055658817291259766
sg678
I13
sg679
I13
sa(dp682
g675
I1
sg676
F0.0014650821685791016
sg677
F0.004026651382446289
sg678
I6
sg679
I6
sa(dp683
g675
I11
sg676
F0.00023508071899414062
sg677
F0.0010898113250732422
sg678
I3
sg679
I3
sa(dp684
g675
I5
sg676
F0.0001671314239501953
sg677
F0.0011050701141357422
sg678
I2
sg679
I2
sasS'total_cqs'
p685
I51
ssI58
(dp686
S'iters'
p687
I7
sS'meta'
p688
(lp689
(dp690
S'objective'
p691
I92001
sS'query_time'
p692
F287.90629506111145
sS'comp_time'
p693
F16.546943187713623
sS'exec_cq'
p694
I486
sS'total_cq'
p695
I486
sa(dp696
g691
I8604
sg692
F0.03452610969543457
sg693
F0.17279291152954102
sg694
I64
sg695
I64
sa(dp697
g691
I7355
sg692
F0.029052019119262695
sg693
F0.8441250324249268
sg694
I52
sg695
I52
sa(dp698
g691
I46
sg692
F0.02120494842529297
sg693
F0.0648641586303711
sg694
I16
sg695
I16
sa(dp699
g691
I20
sg692
F0.005773067474365234
sg693
F0.020734071731567383
sg694
I9
sg695
I9
sa(dp700
g691
I9
sg692
F0.002122163772583008
sg693
F0.009891033172607422
sg694
I4
sg695
I4
sa(dp701
g691
I20
sg692
F0.00024509429931640625
sg693
F0.001306772232055664
sg694
I2
sg695
I2
sasS'total_cqs'
p702
I486
ssI59
(dp703
S'iters'
p704
I2
sS'meta'
p705
(lp706
(dp707
S'objective'
p708
I20
sS'query_time'
p709
F0.060571908950805664
sS'comp_time'
p710
F0.0009591579437255859
sS'exec_cq'
p711
I7
sS'total_cq'
p712
I7
sa(dp713
g708
I2
sg709
F0.0001621246337890625
sg710
F0.0008311271667480469
sg711
I2
sg712
I2
sasS'total_cqs'
p714
I7
ssI60
(dp715
S'iters'
p716
I3
sS'meta'
p717
(lp718
(dp719
S'objective'
p720
I5
sS'query_time'
p721
F0.021854162216186523
sS'comp_time'
p722
F0.0003559589385986328
sS'exec_cq'
p723
I5
sS'total_cq'
p724
I5
sa(dp725
g720
I2
sg721
F3.0994415283203125e-05
sg722
F8.082389831542969e-05
sg723
I4
sg724
I4
sa(dp726
g720
I0
sg721
F2.002716064453125e-05
sg722
F5.2928924560546875e-05
sg723
I3
sg724
I3
sasS'total_cqs'
p727
I5
ssI61
(dp728
S'iters'
p729
I0
sS'meta'
p730
(lp731
sS'total_cqs'
p732
I1
ssI62
(dp733
S'iters'
p734
I3
sS'meta'
p735
(lp736
(dp737
S'objective'
p738
I16
sS'query_time'
p739
F0.03295016288757324
sS'comp_time'
p740
F0.000225067138671875
sS'exec_cq'
p741
I12
sS'total_cq'
p742
I12
sa(dp743
g738
I31
sg739
F5.1975250244140625e-05
sg740
F7.295608520507812e-05
sg741
I9
sg742
I9
sa(dp744
g738
I31
sg739
F4.00543212890625e-05
sg740
F7.581710815429688e-05
sg741
I8
sg742
I8
sasS'total_cqs'
p745
I12
ssI63
(dp746
S'iters'
p747
I0
sS'meta'
p748
(lp749
sS'total_cqs'
p750
I1
ssI64
(dp751
S'iters'
p752
I3
sS'meta'
p753
(lp754
(dp755
S'objective'
p756
I18
sS'query_time'
p757
F0.13060808181762695
sS'comp_time'
p758
F0.0032300949096679688
sS'exec_cq'
p759
I12
sS'total_cq'
p760
I12
sa(dp761
g756
I2
sg757
F0.0001010894775390625
sg758
F0.00034499168395996094
sg759
I4
sg760
I4
sa(dp762
g756
I8
sg757
F4.220008850097656e-05
sg758
F0.0001690387725830078
sg759
I2
sg760
I2
sasS'total_cqs'
p763
I12
ssI65
(dp764
S'iters'
p765
I4
sS'meta'
p766
(lp767
(dp768
S'objective'
p769
I142
sS'query_time'
p770
F0.7799339294433594
sS'comp_time'
p771
F0.03349590301513672
sS'exec_cq'
p772
I27
sS'total_cq'
p773
I27
sa(dp774
g769
I2
sg770
F0.0011990070343017578
sg771
F0.004319906234741211
sg772
I7
sg773
I7
sa(dp775
g769
I0
sg770
F0.0005559921264648438
sg771
F0.0023741722106933594
sg772
I4
sg773
I4
sa(dp776
g769
I13
sg770
F0.00013017654418945312
sg771
F0.0007619857788085938
sg772
I2
sg773
I2
sasS'total_cqs'
p777
I27
ssI66
(dp778
S'iters'
p779
I0
sS'meta'
p780
(lp781
sS'total_cqs'
p782
I1
ssI67
(dp783
S'iters'
p784
I2
sS'meta'
p785
(lp786
(dp787
S'objective'
p788
I558
sS'query_time'
p789
F1.3966350555419922
sS'comp_time'
p790
F0.007689952850341797
sS'exec_cq'
p791
I35
sS'total_cq'
p792
I35
sa(dp793
g788
I16
sg789
F0.0014450550079345703
sg790
F0.0062198638916015625
sg791
I2
sg792
I2
sasS'total_cqs'
p794
I35
ssI68
(dp795
S'iters'
p796
I0
sS'meta'
p797
(lp798
sS'total_cqs'
p799
I1
ssI69
(dp800
S'iters'
p801
I1
sS'meta'
p802
(lp803
(dp804
S'objective'
p805
I1298
sS'query_time'
p806
F0.2186110019683838
sS'comp_time'
p807
F0.0002429485321044922
sS'exec_cq'
p808
I51
sS'total_cq'
p809
I51
sasS'total_cqs'
p810
I51
ssI70
(dp811
S'iters'
p812
I2
sS'meta'
p813
(lp814
(dp815
S'objective'
p816
I11
sS'query_time'
p817
F0.019877910614013672
sS'comp_time'
p818
F0.00024390220642089844
sS'exec_cq'
p819
I6
sS'total_cq'
p820
I6
sa(dp821
g816
I10
sg817
F4.696846008300781e-05
sg818
F0.0001590251922607422
sg819
I5
sg820
I5
sasS'total_cqs'
p822
I6
ssI71
(dp823
S'iters'
p824
I6
sS'meta'
p825
(lp826
(dp827
S'objective'
p828
I3143
sS'query_time'
p829
F0.4509258270263672
sS'comp_time'
p830
F0.0052280426025390625
sS'exec_cq'
p831
I85
sS'total_cq'
p832
I85
sa(dp833
g828
I3089
sg829
F0.0003161430358886719
sg830
F0.0006220340728759766
sg831
I81
sg832
I81
sa(dp834
g828
I2966
sg829
F0.00027298927307128906
sg830
F0.0005311965942382812
sg831
I78
sg832
I78
sa(dp835
g828
I2845
sg829
F0.0002620220184326172
sg830
F0.00041794776916503906
sg831
I75
sg832
I75
sa(dp836
g828
I24
sg829
F0.0021088123321533203
sg830
F0.0001800060272216797
sg831
I3
sg832
I3
sa(dp837
g828
I7
sg829
F0.0037641525268554688
sg830
F0.00015997886657714844
sg831
I2
sg832
I2
sasS'total_cqs'
p838
I85
ssI72
(dp839
S'iters'
p840
I3
sS'meta'
p841
(lp842
(dp843
S'objective'
p844
I10
sS'query_time'
p845
F0.4141409397125244
sS'comp_time'
p846
F0.005319118499755859
sS'exec_cq'
p847
I8
sS'total_cq'
p848
I8
sa(dp849
g844
I1
sg845
F8.988380432128906e-05
sg846
F0.00028014183044433594
sg847
I5
sg848
I5
sa(dp850
g844
I6
sg845
F7.510185241699219e-05
sg846
F0.0002651214599609375
sg847
I3
sg848
I3
sasS'total_cqs'
p851
I8
ssI73
(dp852
S'iters'
p853
I0
sS'meta'
p854
(lp855
sS'total_cqs'
p856
I1
ssI74
(dp857
S'iters'
p858
I0
sS'meta'
p859
(lp860
sS'total_cqs'
p861
I1
ssI75
(dp862
S'iters'
p863
I3
sS'meta'
p864
(lp865
(dp866
S'objective'
p867
I5
sS'query_time'
p868
F0.033509016036987305
sS'comp_time'
p869
F0.00011515617370605469
sS'exec_cq'
p870
I5
sS'total_cq'
p871
I5
sa(dp872
g867
I2
sg868
F2.7894973754882812e-05
sg869
F9.202957153320312e-05
sg870
I4
sg871
I4
sa(dp873
g867
I0
sg868
F2.09808349609375e-05
sg869
F6.198883056640625e-05
sg870
I3
sg871
I3
sasS'total_cqs'
p874
I5
ssI76
(dp875
S'iters'
p876
I1
sS'meta'
p877
(lp878
(dp879
S'objective'
p880
I1
sS'query_time'
p881
F0.018939971923828125
sS'comp_time'
p882
F0.000316619873046875
sS'exec_cq'
p883
I2
sS'total_cq'
p884
I2
sasS'total_cqs'
p885
I2
ssI77
(dp886
S'iters'
p887
I0
sS'meta'
p888
(lp889
sS'total_cqs'
p890
I1
ssI78
(dp891
S'iters'
p892
I0
sS'meta'
p893
(lp894
sS'total_cqs'
p895
I1
ssI103
(dp896
S'iters'
p897
I2
sS'meta'
p898
(lp899
(dp900
S'objective'
p901
I60
sS'query_time'
p902
F0.08465385437011719
sS'comp_time'
p903
F0.00016188621520996094
sS'exec_cq'
p904
I12
sS'total_cq'
p905
I12
sa(dp906
g901
I61
sg902
F6.008148193359375e-05
sg903
F0.00011014938354492188
sg904
I11
sg905
I11
sasS'total_cqs'
p907
I12
ssI104
(dp908
S'iters'
p909
I3
sS'meta'
p910
(lp911
(dp912
S'objective'
p913
I2
sS'query_time'
p914
F1.6198968887329102
sS'comp_time'
p915
F0.08436822891235352
sS'exec_cq'
p916
I4
sS'total_cq'
p917
I4
sa(dp918
g913
I0
sg914
F0.010909080505371094
sg915
F0.13672804832458496
sg916
I3
sg917
I3
sa(dp919
g913
I1
sg914
F0.009479045867919922
sg915
F0.07263398170471191
sg916
I2
sg917
I2
sasS'total_cqs'
p920
I4
ssI105
(dp921
S'iters'
p922
I0
sS'meta'
p923
(lp924
sS'total_cqs'
p925
I1
ssI106
(dp926
S'iters'
p927
I1
sS'meta'
p928
(lp929
(dp930
S'objective'
p931
I6
sS'query_time'
p932
F0.02417898178100586
sS'comp_time'
p933
F0.00012421607971191406
sS'exec_cq'
p934
I4
sS'total_cq'
p935
I4
sasS'total_cqs'
p936
I4
ssI107
(dp937
S'iters'
p938
I2
sS'meta'
p939
(lp940
(dp941
S'objective'
p942
I96
sS'query_time'
p943
F0.15279412269592285
sS'comp_time'
p944
F0.00017714500427246094
sS'exec_cq'
p945
I16
sS'total_cq'
p946
I16
sa(dp947
g942
I10
sg943
F0.006766080856323242
sg944
F0.00010204315185546875
sg945
I3
sg946
I3
sasS'total_cqs'
p948
I16
ssI108
(dp949
S'iters'
p950
I0
sS'meta'
p951
(lp952
sS'total_cqs'
p953
I1
ss.