(dp0
I1
(dp1
S'iters'
p2
I3
sS'meta'
p3
(lp4
(dp5
S'objective'
p6
I54
sS'query_time'
p7
F0.04747486114501953
sS'comp_time'
p8
F0.02278923988342285
sS'exec_cq'
p9
I12
sS'total_cq'
p10
I12
sa(dp11
g6
I50
sg7
F6.890296936035156e-05
sg8
F0.0001919269561767578
sg9
I10
sg10
I10
sa(dp12
g6
I44
sg7
F7.009506225585938e-05
sg8
F0.00016188621520996094
sg9
I9
sg10
I9
sasS'total_cqs'
p13
I12
ssI2
(dp14
S'iters'
p15
I6
sS'meta'
p16
(lp17
(dp18
S'objective'
p19
I250
sS'query_time'
p20
F0.1228170394897461
sS'comp_time'
p21
F0.028362035751342773
sS'exec_cq'
p22
I27
sS'total_cq'
p23
I27
sa(dp24
g19
I198
sg20
F0.00015807151794433594
sg21
F0.0006902217864990234
sg22
I24
sg23
I24
sa(dp25
g19
I198
sg20
F0.00011420249938964844
sg21
F0.0004482269287109375
sg22
I21
sg23
I21
sa(dp26
g19
I187
sg20
F7.987022399902344e-05
sg21
F0.00033926963806152344
sg22
I19
sg23
I19
sa(dp27
g19
I169
sg20
F9.179115295410156e-05
sg21
F0.00026297569274902344
sg22
I17
sg23
I17
sa(dp28
g19
I158
sg20
F9.918212890625e-05
sg21
F0.0001537799835205078
sg22
I16
sg23
I16
sasS'total_cqs'
p29
I27
ssI3
(dp30
S'iters'
p31
I4
sS'meta'
p32
(lp33
(dp34
S'objective'
p35
I566
sS'query_time'
p36
F186.7859010696411
sS'comp_time'
p37
F0.9302642345428467
sS'exec_cq'
p38
I30
sS'total_cq'
p39
I43
sa(dp40
g35
I470
sg36
F43.74304795265198
sg37
F2.0862560272216797
sg38
I31
sg39
I35
sa(dp41
g35
I477
sg36
F12.647369623184204
sg37
F0.47658371925354004
sg38
I28
sg39
I28
sa(dp42
g35
I499
sg36
F0.00022673606872558594
sg37
F0.00028228759765625
sg38
I25
sg39
I25
sasS'total_cqs'
p43
I43
ssI4
(dp44
S'iters'
p45
I2
sS'meta'
p46
(lp47
(dp48
S'objective'
p49
I32
sS'query_time'
p50
F5.231798887252808
sS'comp_time'
p51
F0.45598793029785156
sS'exec_cq'
p52
I11
sS'total_cq'
p53
I11
sa(dp54
g49
I3
sg50
F0.19753599166870117
sg51
F0.2672748565673828
sg52
I2
sg53
I2
sasS'total_cqs'
p55
I11
ssI5
(dp56
S'iters'
p57
I3
sS'meta'
p58
(lp59
(dp60
S'objective'
p61
I0
sS'query_time'
p62
F32.66557478904724
sS'comp_time'
p63
F1.3664207458496094
sS'exec_cq'
p64
I8
sS'total_cq'
p65
I8
sa(dp66
g61
I0
sg62
F0.41277599334716797
sg63
F1.6812045574188232
sg64
I4
sg65
I4
sa(dp67
g61
I1
sg62
F0.007749080657958984
sg63
F0.01578068733215332
sg64
I2
sg65
I2
sasS'total_cqs'
p68
I8
ssI6
(dp69
S'iters'
p70
I4
sS'meta'
p71
(lp72
(dp73
S'objective'
p74
I5
sS'query_time'
p75
F34.56472206115723
sS'comp_time'
p76
F1.567070722579956
sS'exec_cq'
p77
I18
sS'total_cq'
p78
I18
sa(dp79
g74
I1
sg75
F0.6680831909179688
sg76
F3.3715178966522217
sg77
I7
sg78
I7
sa(dp80
g74
I8
sg75
F0.40404415130615234
sg76
F0.8879892826080322
sg77
I3
sg78
I3
sa(dp81
g74
I5
sg75
F0.013473987579345703
sg76
F0.024812698364257812
sg77
I2
sg78
I2
sasS'total_cqs'
p82
I18
ssI7
(dp83
S'iters'
p84
I3
sS'meta'
p85
(lp86
(dp87
S'objective'
p88
I1
sS'query_time'
p89
F12.597289800643921
sS'comp_time'
p90
F1.2599143981933594
sS'exec_cq'
p91
I9
sS'total_cq'
p92
I9
sa(dp93
g88
I0
sg89
F0.4656040668487549
sg90
F0.7404160499572754
sg91
I5
sg92
I5
sa(dp94
g88
I1
sg89
F0.25173401832580566
sg90
F0.44001317024230957
sg91
I3
sg92
I3
sasS'total_cqs'
p95
I9
ssI8
(dp96
S'iters'
p97
I3
sS'meta'
p98
(lp99
(dp100
S'objective'
p101
I216
sS'query_time'
p102
F0.19218802452087402
sS'comp_time'
p103
F0.03211212158203125
sS'exec_cq'
p104
I27
sS'total_cq'
p105
I27
sa(dp106
g101
I221
sg102
F0.00018215179443359375
sg103
F0.0005161762237548828
sg104
I22
sg105
I22
sa(dp107
g101
I8
sg102
F0.0016798973083496094
sg103
F0.0003962516784667969
sg104
I2
sg105
I2
sasS'total_cqs'
p108
I27
ssI9
(dp109
S'iters'
p110
I3
sS'meta'
p111
(lp112
(dp113
S'objective'
p114
I6
sS'query_time'
p115
F0.060842037200927734
sS'comp_time'
p116
F0.004982709884643555
sS'exec_cq'
p117
I7
sS'total_cq'
p118
I7
sa(dp119
g114
I3
sg115
F3.409385681152344e-05
sg116
F0.00023174285888671875
sg117
I4
sg118
I4
sa(dp120
g114
I3
sg115
F1.6927719116210938e-05
sg116
F8.273124694824219e-05
sg117
I2
sg118
I2
sasS'total_cqs'
p121
I7
ssI10
(dp122
S'iters'
p123
I5
sS'meta'
p124
(lp125
(dp126
S'objective'
p127
I584
sS'query_time'
p128
F0.4194939136505127
sS'comp_time'
p129
F0.11095070838928223
sS'exec_cq'
p130
I51
sS'total_cq'
p131
I51
sa(dp132
g127
I375
sg128
F0.0005042552947998047
sg129
F0.0032863616943359375
sg130
I37
sg131
I37
sa(dp133
g127
I2
sg128
F0.0033888816833496094
sg129
F0.005969524383544922
sg130
I12
sg131
I12
sa(dp134
g127
I12
sg128
F4.601478576660156e-05
sg129
F0.0004062652587890625
sg130
I5
sg131
I5
sa(dp135
g127
I12
sg128
F1.6927719116210938e-05
sg129
F0.00012183189392089844
sg130
I2
sg131
I2
sasS'total_cqs'
p136
I51
ssI11
(dp137
S'iters'
p138
I6
sS'meta'
p139
(lp140
(dp141
S'objective'
p142
I838
sS'query_time'
p143
F0.5718450546264648
sS'comp_time'
p144
F0.17845678329467773
sS'exec_cq'
p145
I63
sS'total_cq'
p146
I63
sa(dp147
g142
I771
sg143
F0.0014829635620117188
sg144
F0.006941080093383789
sg145
I47
sg146
I47
sa(dp148
g142
I713
sg143
F0.0017709732055664062
sg144
F0.0031828880310058594
sg145
I40
sg146
I40
sa(dp149
g142
I23
sg143
F0.0023508071899414062
sg144
F0.001516103744506836
sg145
I6
sg146
I6
sa(dp150
g142
I40
sg143
F5.0067901611328125e-05
sg144
F0.000339508056640625
sg145
I4
sg146
I4
sa(dp151
g142
I8
sg143
F1.5020370483398438e-05
sg144
F9.417533874511719e-05
sg145
I2
sg146
I2
sasS'total_cqs'
p152
I63
ssI12
(dp153
S'iters'
p154
I5
sS'meta'
p155
(lp156
(dp157
S'objective'
p158
I483
sS'query_time'
p159
F0.5076570510864258
sS'comp_time'
p160
F0.07948017120361328
sS'exec_cq'
p161
I50
sS'total_cq'
p162
I50
sa(dp163
g158
I529
sg159
F0.00047087669372558594
sg160
F0.0026617050170898438
sg161
I33
sg162
I33
sa(dp164
g158
I1
sg159
F0.0013098716735839844
sg160
F0.0014128684997558594
sg161
I8
sg162
I8
sa(dp165
g158
I3
sg159
F2.5987625122070312e-05
sg160
F0.0001537799835205078
sg161
I3
sg162
I3
sa(dp166
g158
I7
sg159
F1.5974044799804688e-05
sg160
F8.225440979003906e-05
sg161
I2
sg162
I2
sasS'total_cqs'
p167
I50
ssI13
(dp168
S'iters'
p169
I3
sS'meta'
p170
(lp171
(dp172
S'objective'
p173
I18
sS'query_time'
p174
F0.14066410064697266
sS'comp_time'
p175
F0.02833700180053711
sS'exec_cq'
p176
I20
sS'total_cq'
p177
I20
sa(dp178
g173
I66
sg174
F8.511543273925781e-05
sg175
F0.0005171298980712891
sg176
I9
sg177
I9
sa(dp179
g173
I7
sg174
F0.0016181468963623047
sg175
F0.0002701282501220703
sg176
I2
sg177
I2
sasS'total_cqs'
p180
I20
ssI14
(dp181
S'iters'
p182
I3
sS'meta'
p183
(lp184
(dp185
S'objective'
p186
I1
sS'query_time'
p187
F32.53872108459473
sS'comp_time'
p188
F1.0430381298065186
sS'exec_cq'
p189
I9
sS'total_cq'
p190
I9
sa(dp191
g186
I4
sg187
F0.2840731143951416
sg188
F0.7482669353485107
sg189
I3
sg190
I3
sa(dp192
g186
I1
sg187
F0.08550715446472168
sg188
F0.7800540924072266
sg189
I2
sg190
I2
sasS'total_cqs'
p193
I9
ssI15
(dp194
S'iters'
p195
I3
sS'meta'
p196
(lp197
(dp198
S'objective'
p199
I0
sS'query_time'
p200
F3.8746609687805176
sS'comp_time'
p201
F0.15741491317749023
sS'exec_cq'
p202
I11
sS'total_cq'
p203
I11
sa(dp204
g199
I3
sg200
F0.0013508796691894531
sg201
F0.0022127628326416016
sg202
I7
sg203
I7
sa(dp205
g199
I4
sg200
F0.0004520416259765625
sg201
F0.0009429454803466797
sg202
I2
sg203
I2
sasS'total_cqs'
p206
I11
ssI16
(dp207
S'iters'
p208
I1
sS'meta'
p209
(lp210
(dp211
S'objective'
p212
I26
sS'query_time'
p213
F0.031893014907836914
sS'comp_time'
p214
F0.0035958290100097656
sS'exec_cq'
p215
I8
sS'total_cq'
p216
I8
sasS'total_cqs'
p217
I8
ssI17
(dp218
S'iters'
p219
I4
sS'meta'
p220
(lp221
(dp222
S'objective'
p223
I0
sS'query_time'
p224
F1.1446900367736816
sS'comp_time'
p225
F0.03863835334777832
sS'exec_cq'
p226
I11
sS'total_cq'
p227
I11
sa(dp228
g223
I1
sg224
F0.008567094802856445
sg225
F0.011789083480834961
sg226
I6
sg227
I6
sa(dp229
g223
I1
sg224
F0.0023839473724365234
sg225
F0.0029931068420410156
sg226
I3
sg227
I3
sa(dp230
g223
I5
sg224
F0.0020580291748046875
sg225
F0.0030128955841064453
sg226
I2
sg227
I2
sasS'total_cqs'
p231
I11
ssI18
(dp232
S'iters'
p233
I2
sS'meta'
p234
(lp235
(dp236
S'objective'
p237
I40
sS'query_time'
p238
F0.21112489700317383
sS'comp_time'
p239
F0.022800207138061523
sS'exec_cq'
p240
I11
sS'total_cq'
p241
I11
sa(dp242
g237
I39
sg238
F0.00026988983154296875
sg239
F0.0005929470062255859
sg240
I9
sg241
I9
sasS'total_cqs'
p243
I11
ssI22
(dp244
S'iters'
p245
I1
sS'meta'
p246
(lp247
(dp248
S'objective'
p249
I151
sS'query_time'
p250
F0.07697796821594238
sS'comp_time'
p251
F0.035980939865112305
sS'exec_cq'
p252
I18
sS'total_cq'
p253
I18
sasS'total_cqs'
p254
I18
ssI23
(dp255
S'iters'
p256
I3
sS'meta'
p257
(lp258
(dp259
S'objective'
p260
I84
sS'query_time'
p261
F0.1359250545501709
sS'comp_time'
p262
F0.024129867553710938
sS'exec_cq'
p263
I16
sS'total_cq'
p264
I16
sa(dp265
g260
I78
sg261
F0.00011086463928222656
sg262
F0.00023484230041503906
sg263
I14
sg264
I14
sa(dp266
g260
I76
sg261
F7.200241088867188e-05
sg262
F0.00010156631469726562
sg263
I13
sg264
I13
sasS'total_cqs'
p267
I16
ssI26
(dp268
S'iters'
p269
I1
sS'meta'
p270
(lp271
(dp272
S'objective'
p273
I859
sS'query_time'
p274
F0.1611309051513672
sS'comp_time'
p275
F0.10886383056640625
sS'exec_cq'
p276
I42
sS'total_cq'
p277
I42
sasS'total_cqs'
p278
I42
ssI27
(dp279
S'iters'
p280
I3
sS'meta'
p281
(lp282
(dp283
S'objective'
p284
I323
sS'query_time'
p285
F21.466919898986816
sS'comp_time'
p286
F1.3898530006408691
sS'exec_cq'
p287
I30
sS'total_cq'
p288
I30
sa(dp289
g284
I328
sg285
F0.29579591751098633
sg286
F0.9968979358673096
sg287
I27
sg288
I27
sa(dp290
g284
I1
sg285
F0.4422030448913574
sg286
F0.9707567691802979
sg287
I4
sg288
I4
sasS'total_cqs'
p291
I30
ssI29
(dp292
S'iters'
p293
I5
sS'meta'
p294
(lp295
(dp296
S'objective'
p297
I357
sS'query_time'
p298
F28.62915802001953
sS'comp_time'
p299
F0.44467997550964355
sS'exec_cq'
p300
I35
sS'total_cq'
p301
I49
sa(dp302
g297
I6
sg298
F0.08027911186218262
sg299
F2.136958122253418
sg300
I16
sg301
I16
sa(dp303
g297
I0
sg298
F0.021177053451538086
sg299
F0.032089948654174805
sg300
I9
sg301
I9
sa(dp304
g297
I3
sg298
F0.005619049072265625
sg299
F0.015429019927978516
sg300
I5
sg301
I5
sa(dp305
g297
I0
sg298
F0.0016701221466064453
sg299
F0.0022313594818115234
sg300
I3
sg301
I3
sasS'total_cqs'
p306
I49
ssI30
(dp307
S'iters'
p308
I1
sS'meta'
p309
(lp310
(dp311
S'objective'
p312
I1
sS'query_time'
p313
F0.6282100677490234
sS'comp_time'
p314
F0.011900186538696289
sS'exec_cq'
p315
I2
sS'total_cq'
p316
I2
sasS'total_cqs'
p317
I2
ssI32
(dp318
S'iters'
p319
I1
sS'meta'
p320
(lp321
(dp322
S'objective'
p323
I1
sS'query_time'
p324
F0.02099895477294922
sS'comp_time'
p325
F0.0018095970153808594
sS'exec_cq'
p326
I2
sS'total_cq'
p327
I2
sasS'total_cqs'
p328
I2
ssI33
(dp329
S'iters'
p330
I5
sS'meta'
p331
(lp332
(dp333
S'objective'
p334
I3306
sS'query_time'
p335
F17.97290802001953
sS'comp_time'
p336
F0.8947889804840088
sS'exec_cq'
p337
I103
sS'total_cq'
p338
I103
sa(dp339
g334
I3
sg335
F0.008509159088134766
sg336
F0.054952383041381836
sg337
I16
sg338
I16
sa(dp340
g334
I8
sg335
F0.003766775131225586
sg336
F0.01874399185180664
sg337
I8
sg338
I8
sa(dp341
g334
I37
sg335
F0.0007700920104980469
sg336
F0.0012021064758300781
sg337
I4
sg338
I4
sa(dp342
g334
I2
sg335
F0.00014281272888183594
sg336
F0.00037217140197753906
sg337
I2
sg338
I2
sasS'total_cqs'
p343
I103
ssI34
(dp344
S'iters'
p345
I1
sS'meta'
p346
(lp347
(dp348
S'objective'
p349
I1
sS'query_time'
p350
F0.022843122482299805
sS'comp_time'
p351
F0.0016469955444335938
sS'exec_cq'
p352
I2
sS'total_cq'
p353
I2
sasS'total_cqs'
p354
I2
ssI35
(dp355
S'iters'
p356
I5
sS'meta'
p357
(lp358
(dp359
S'objective'
p360
I1315
sS'query_time'
p361
F70.59835410118103
sS'comp_time'
p362
F2.326533794403076
sS'exec_cq'
p363
I70
sS'total_cq'
p364
I70
sa(dp365
g360
I29
sg361
F0.004637002944946289
sg362
F0.018923521041870117
sg363
I16
sg364
I16
sa(dp366
g360
I19
sg361
F0.002084970474243164
sg362
F0.0025501251220703125
sg363
I10
sg364
I10
sa(dp367
g360
I1
sg361
F0.0016279220581054688
sg362
F0.0021359920501708984
sg363
I6
sg364
I6
sa(dp368
g360
I9
sg361
F0.0004057884216308594
sg362
F0.0007746219635009766
sg363
I2
sg364
I2
sasS'total_cqs'
p369
I70
ssI36
(dp370
S'iters'
p371
I4
sS'meta'
p372
(lp373
(dp374
S'objective'
p375
I371
sS'query_time'
p376
F0.8534960746765137
sS'comp_time'
p377
F0.10369110107421875
sS'exec_cq'
p378
I33
sS'total_cq'
p379
I33
sa(dp380
g375
I318
sg376
F0.004464864730834961
sg377
F0.008147239685058594
sg378
I29
sg379
I29
sa(dp381
g375
I354
sg376
F0.0038809776306152344
sg377
F0.005765676498413086
sg378
I25
sg379
I25
sa(dp382
g375
I337
sg376
F0.00021314620971679688
sg377
F0.0004189014434814453
sg378
I23
sg379
I24
sasS'total_cqs'
p383
I33
ssI37
(dp384
S'iters'
p385
I1
sS'meta'
p386
(lp387
(dp388
S'objective'
p389
I1
sS'query_time'
p390
F0.009305000305175781
sS'comp_time'
p391
F0.0020172595977783203
sS'exec_cq'
p392
I2
sS'total_cq'
p393
I2
sasS'total_cqs'
p394
I2
ssI38
(dp395
S'iters'
p396
I2
sS'meta'
p397
(lp398
(dp399
S'objective'
p400
I0
sS'query_time'
p401
F0.0260770320892334
sS'comp_time'
p402
F0.0031845569610595703
sS'exec_cq'
p403
I4
sS'total_cq'
p404
I4
sa(dp405
g400
I1
sg401
F0.00010204315185546875
sg402
F0.00026702880859375
sg403
I2
sg404
I2
sasS'total_cqs'
p406
I4
ssI39
(dp407
S'iters'
p408
I2
sS'meta'
p409
(lp410
(dp411
S'objective'
p412
I714
sS'query_time'
p413
F0.18207597732543945
sS'comp_time'
p414
F0.08936119079589844
sS'exec_cq'
p415
I44
sS'total_cq'
p416
I44
sa(dp417
g412
I806
sg413
F0.0005362033843994141
sg414
F0.0008780956268310547
sg415
I37
sg416
I37
sasS'total_cqs'
p418
I44
ssI40
(dp419
S'iters'
p420
I1
sS'meta'
p421
(lp422
(dp423
S'objective'
p424
I18
sS'query_time'
p425
F0.04995107650756836
sS'comp_time'
p426
F0.009053230285644531
sS'exec_cq'
p427
I7
sS'total_cq'
p428
I7
sasS'total_cqs'
p429
I7
ssI41
(dp430
S'iters'
p431
I1
sS'meta'
p432
(lp433
(dp434
S'objective'
p435
I64
sS'query_time'
p436
F0.07399177551269531
sS'comp_time'
p437
F0.016170978546142578
sS'exec_cq'
p438
I12
sS'total_cq'
p439
I12
sasS'total_cqs'
p440
I12
ssI42
(dp441
S'iters'
p442
I3
sS'meta'
p443
(lp444
(dp445
S'objective'
p446
I789
sS'query_time'
p447
F0.16602611541748047
sS'comp_time'
p448
F0.0794215202331543
sS'exec_cq'
p449
I41
sS'total_cq'
p450
I41
sa(dp451
g446
I767
sg447
F0.00021910667419433594
sg448
F0.00030422210693359375
sg449
I40
sg450
I40
sa(dp452
g446
I752
sg447
F0.00018596649169921875
sg448
F0.0002429485321044922
sg449
I39
sg450
I39
sasS'total_cqs'
p453
I41
ssI43
(dp454
S'iters'
p455
I1
sS'meta'
p456
(lp457
(dp458
S'objective'
p459
I18
sS'query_time'
p460
F0.02346491813659668
sS'comp_time'
p461
F0.005612850189208984
sS'exec_cq'
p462
I7
sS'total_cq'
p463
I7
sasS'total_cqs'
p464
I7
ssI44
(dp465
S'iters'
p466
I4
sS'meta'
p467
(lp468
(dp469
S'objective'
p470
I776
sS'query_time'
p471
F0.1749401092529297
sS'comp_time'
p472
F0.15714573860168457
sS'exec_cq'
p473
I47
sS'total_cq'
p474
I47
sa(dp475
g470
I816
sg471
F0.0004279613494873047
sg472
F0.0013060569763183594
sg473
I40
sg474
I40
sa(dp476
g470
I2
sg471
F0.016312122344970703
sg472
F0.0015232563018798828
sg473
I3
sg474
I3
sa(dp477
g470
I15
sg471
F2.384185791015625e-05
sg472
F9.393692016601562e-05
sg473
I2
sg474
I2
sasS'total_cqs'
p478
I47
ssI46
(dp479
S'iters'
p480
I1
sS'meta'
p481
(lp482
(dp483
S'objective'
p484
I13
sS'query_time'
p485
F0.02436232566833496
sS'comp_time'
p486
F0.0027723312377929688
sS'exec_cq'
p487
I6
sS'total_cq'
p488
I6
sasS'total_cqs'
p489
I6
ssI47
(dp490
S'iters'
p491
I1
sS'meta'
p492
(lp493
(dp494
S'objective'
p495
I1
sS'query_time'
p496
F0.014734029769897461
sS'comp_time'
p497
F0.001055002212524414
sS'exec_cq'
p498
I2
sS'total_cq'
p499
I2
sasS'total_cqs'
p500
I2
ssI50
(dp501
S'iters'
p502
I2
sS'meta'
p503
(lp504
(dp505
S'objective'
p506
I5
sS'query_time'
p507
F0.014401912689208984
sS'comp_time'
p508
F0.0023229122161865234
sS'exec_cq'
p509
I5
sS'total_cq'
p510
I5
sa(dp511
g506
I2
sg507
F3.910064697265625e-05
sg508
F0.00018525123596191406
sg509
I4
sg510
I4
sasS'total_cqs'
p512
I5
ssI51
(dp513
S'iters'
p514
I1
sS'meta'
p515
(lp516
(dp517
S'objective'
p518
I1
sS'query_time'
p519
F0.03249311447143555
sS'comp_time'
p520
F0.001840829849243164
sS'exec_cq'
p521
I2
sS'total_cq'
p522
I2
sasS'total_cqs'
p523
I2
ssI52
(dp524
S'iters'
p525
I1
sS'meta'
p526
(lp527
(dp528
S'objective'
p529
I1
sS'query_time'
p530
F0.01494598388671875
sS'comp_time'
p531
F0.001485586166381836
sS'exec_cq'
p532
I2
sS'total_cq'
p533
I2
sasS'total_cqs'
p534
I2
ssI53
(dp535
S'iters'
p536
I2
sS'meta'
p537
(lp538
(dp539
S'objective'
p540
I2
sS'query_time'
p541
F0.018713951110839844
sS'comp_time'
p542
F0.002483367919921875
sS'exec_cq'
p543
I4
sS'total_cq'
p544
I4
sa(dp545
g540
I0
sg541
F7.82012939453125e-05
sg542
F0.00021982192993164062
sg543
I3
sg544
I3
sasS'total_cqs'
p546
I4
ssI54
(dp547
S'iters'
p548
I1
sS'meta'
p549
(lp550
(dp551
S'objective'
p552
I0
sS'query_time'
p553
F0.013438940048217773
sS'comp_time'
p554
F0.0015988349914550781
sS'exec_cq'
p555
I3
sS'total_cq'
p556
I3
sasS'total_cqs'
p557
I3
ssI55
(dp558
S'iters'
p559
I8
sS'meta'
p560
(lp561
(dp562
S'objective'
p563
I4815
sS'query_time'
p564
F2.255185127258301
sS'comp_time'
p565
F0.737480878829956
sS'exec_cq'
p566
I109
sS'total_cq'
p567
I109
sa(dp568
g563
I4863
sg564
F0.0010061264038085938
sg565
F0.0037119388580322266
sg566
I97
sg567
I97
sa(dp569
g563
I4618
sg564
F0.0007221698760986328
sg565
F0.003052949905395508
sg566
I93
sg567
I93
sa(dp570
g563
I4612
sg564
F0.00039887428283691406
sg565
F0.0015532970428466797
sg566
I87
sg567
I87
sa(dp571
g563
I4564
sg564
F0.00035500526428222656
sg565
F0.0008425712585449219
sg566
I85
sg567
I85
sa(dp572
g563
I4488
sg564
F0.00037479400634765625
sg565
F0.0007228851318359375
sg566
I83
sg567
I83
sa(dp573
g563
I4425
sg564
F0.0003619194030761719
sg565
F0.0006632804870605469
sg566
I82
sg567
I82
sa(dp574
g563
I4386
sg564
F0.00031304359436035156
sg565
F0.0005097389221191406
sg566
I80
sg567
I80
sasS'total_cqs'
p575
I109
ssI56
(dp576
S'iters'
p577
I5
sS'meta'
p578
(lp579
(dp580
S'objective'
p581
I1734
sS'query_time'
p582
F1.5653069019317627
sS'comp_time'
p583
F0.23336434364318848
sS'exec_cq'
p584
I67
sS'total_cq'
p585
I76
sa(dp586
g581
I2
sg582
F0.14434504508972168
sg583
F0.05335855484008789
sg584
I16
sg585
I16
sa(dp587
g581
I15
sg582
F0.0023620128631591797
sg583
F0.0063707828521728516
sg584
I8
sg585
I8
sa(dp588
g581
I12
sg582
F0.0016851425170898438
sg583
F0.0035588741302490234
sg584
I5
sg585
I5
sa(dp589
g581
I13
sg582
F0.0007729530334472656
sg583
F0.001310586929321289
sg584
I3
sg585
I3
sasS'total_cqs'
p590
I76
ssI57
(dp591
S'iters'
p592
I6
sS'meta'
p593
(lp594
(dp595
S'objective'
p596
I280
sS'query_time'
p597
F25.656257152557373
sS'comp_time'
p598
F0.1680912971496582
sS'exec_cq'
p599
I45
sS'total_cq'
p600
I51
sa(dp601
g596
I43
sg597
F0.003098011016845703
sg598
F0.0066661834716796875
sg599
I27
sg600
I33
sa(dp602
g596
I2
sg597
F0.0029180049896240234
sg598
F0.04004096984863281
sg599
I13
sg600
I13
sa(dp603
g596
I5
sg597
F0.0015239715576171875
sg598
F0.009999275207519531
sg599
I6
sg600
I6
sa(dp604
g596
I7
sg597
F0.0008921623229980469
sg598
F0.000881195068359375
sg599
I3
sg600
I3
sa(dp605
g596
I2
sg597
F0.0004658699035644531
sg598
F0.0005958080291748047
sg599
I2
sg600
I2
sasS'total_cqs'
p606
I51
ssI58
(dp607
S'iters'
p608
I7
sS'meta'
p609
(lp610
(dp611
S'objective'
p612
I83233
sS'query_time'
p613
F327.9554851055145
sS'comp_time'
p614
F27.325373888015747
sS'exec_cq'
p615
I486
sS'total_cq'
p616
I486
sa(dp617
g612
I87523
sg613
F5.4732630252838135
sg614
F9.293956279754639
sg615
I414
sg616
I414
sa(dp618
g612
I156
sg613
F0.016777992248535156
sg614
F0.1927034854888916
sg615
I28
sg616
I28
sa(dp619
g612
I4
sg613
F0.012181997299194336
sg614
F1.1997101306915283
sg615
I15
sg616
I15
sa(dp620
g612
I83
sg613
F0.0031321048736572266
sg614
F0.028885841369628906
sg615
I8
sg616
I8
sa(dp621
g612
I20
sg613
F0.0009729862213134766
sg614
F0.001413106918334961
sg615
I4
sg616
I4
sa(dp622
g612
I75
sg613
F0.0002760887145996094
sg614
F0.0004417896270751953
sg615
I2
sg616
I2
sasS'total_cqs'
p623
I486
ssI59
(dp624
S'iters'
p625
I2
sS'meta'
p626
(lp627
(dp628
S'objective'
p629
I6
sS'query_time'
p630
F0.04952502250671387
sS'comp_time'
p631
F0.004536151885986328
sS'exec_cq'
p632
I7
sS'total_cq'
p633
I7
sa(dp634
g629
I1
sg630
F0.00014901161193847656
sg631
F0.00034546852111816406
sg632
I2
sg633
I2
sasS'total_cqs'
p635
I7
ssI60
(dp636
S'iters'
p637
I2
sS'meta'
p638
(lp639
(dp640
S'objective'
p641
I5
sS'query_time'
p642
F0.01831221580505371
sS'comp_time'
p643
F0.0031881332397460938
sS'exec_cq'
p644
I4
sS'total_cq'
p645
I5
sa(dp646
g641
I2
sg642
F2.002716064453125e-05
sg643
F9.655952453613281e-05
sg644
I2
sg645
I4
sasS'total_cqs'
p647
I5
ssI62
(dp648
S'iters'
p649
I2
sS'meta'
p650
(lp651
(dp652
S'objective'
p653
I18
sS'query_time'
p654
F0.03908991813659668
sS'comp_time'
p655
F0.02331089973449707
sS'exec_cq'
p656
I12
sS'total_cq'
p657
I12
sa(dp658
g653
I34
sg654
F5.412101745605469e-05
sg655
F0.000179290771484375
sg656
I9
sg657
I9
sasS'total_cqs'
p659
I12
ssI64
(dp660
S'iters'
p661
I3
sS'meta'
p662
(lp663
(dp664
S'objective'
p665
I16
sS'query_time'
p666
F0.11465692520141602
sS'comp_time'
p667
F0.01896214485168457
sS'exec_cq'
p668
I12
sS'total_cq'
p669
I12
sa(dp670
g665
I1
sg666
F0.0002219676971435547
sg667
F0.000865936279296875
sg668
I4
sg669
I4
sa(dp671
g665
I2
sg666
F4.38690185546875e-05
sg667
F0.00011944770812988281
sg668
I2
sg669
I2
sasS'total_cqs'
p672
I12
ssI65
(dp673
S'iters'
p674
I4
sS'meta'
p675
(lp676
(dp677
S'objective'
p678
I144
sS'query_time'
p679
F0.8693740367889404
sS'comp_time'
p680
F0.0612032413482666
sS'exec_cq'
p681
I27
sS'total_cq'
p682
I27
sa(dp683
g678
I1
sg679
F0.0020368099212646484
sg680
F0.0031843185424804688
sg681
I7
sg682
I7
sa(dp684
g678
I6
sg679
F0.0008351802825927734
sg680
F0.0012891292572021484
sg681
I4
sg682
I4
sa(dp685
g678
I2
sg679
F0.0006530284881591797
sg680
F0.0010590553283691406
sg681
I3
sg682
I3
sasS'total_cqs'
p686
I27
ssI67
(dp687
S'iters'
p688
I2
sS'meta'
p689
(lp690
(dp691
S'objective'
p692
I572
sS'query_time'
p693
F1.0465831756591797
sS'comp_time'
p694
F0.14976882934570312
sS'exec_cq'
p695
I35
sS'total_cq'
p696
I35
sa(dp697
g692
I9
sg693
F0.00191497802734375
sg694
F0.0029680728912353516
sg695
I2
sg696
I2
sasS'total_cqs'
p698
I35
ssI69
(dp699
S'iters'
p700
I1
sS'meta'
p701
(lp702
(dp703
S'objective'
p704
I1272
sS'query_time'
p705
F0.17351698875427246
sS'comp_time'
p706
F0.09956884384155273
sS'exec_cq'
p707
I51
sS'total_cq'
p708
I51
sasS'total_cqs'
p709
I51
ssI70
(dp710
S'iters'
p711
I3
sS'meta'
p712
(lp713
(dp714
S'objective'
p715
I9
sS'query_time'
p716
F0.020125865936279297
sS'comp_time'
p717
F0.0025451183319091797
sS'exec_cq'
p718
I6
sS'total_cq'
p719
I6
sa(dp720
g715
I5
sg716
F6.794929504394531e-05
sg717
F0.00016617774963378906
sg718
I5
sg719
I5
sa(dp721
g715
I2
sg716
F3.4809112548828125e-05
sg717
F0.0001049041748046875
sg718
I4
sg719
I4
sasS'total_cqs'
p722
I6
ssI71
(dp723
S'iters'
p724
I6
sS'meta'
p725
(lp726
(dp727
S'objective'
p728
I3249
sS'query_time'
p729
F0.35172605514526367
sS'comp_time'
p730
F0.3274827003479004
sS'exec_cq'
p731
I85
sS'total_cq'
p732
I85
sa(dp733
g728
I3174
sg729
F0.00046706199645996094
sg730
F0.001661062240600586
sg731
I81
sg732
I81
sa(dp734
g728
I3049
sg729
F0.00030112266540527344
sg730
F0.0010216236114501953
sg731
I78
sg732
I78
sa(dp735
g728
I2977
sg729
F0.0002760887145996094
sg730
F0.0008742809295654297
sg731
I75
sg732
I75
sa(dp736
g728
I2899
sg729
F0.0002651214599609375
sg730
F0.0007700920104980469
sg731
I73
sg732
I73
sa(dp737
g728
I2
sg729
F0.0021958351135253906
sg730
F0.003205537796020508
sg731
I3
sg732
I3
sasS'total_cqs'
p738
I85
ssI72
(dp739
S'iters'
p740
I3
sS'meta'
p741
(lp742
(dp743
S'objective'
p744
I10
sS'query_time'
p745
F0.26091694831848145
sS'comp_time'
p746
F0.004495143890380859
sS'exec_cq'
p747
I8
sS'total_cq'
p748
I8
sa(dp749
g744
I1
sg745
F0.0002582073211669922
sg746
F0.0008208751678466797
sg747
I4
sg748
I6
sa(dp750
g744
I1
sg745
F1.3113021850585938e-05
sg746
F3.0994415283203125e-05
sg747
I2
sg748
I3
sasS'total_cqs'
p751
I8
ssI75
(dp752
S'iters'
p753
I2
sS'meta'
p754
(lp755
(dp756
S'objective'
p757
I5
sS'query_time'
p758
F0.012269973754882812
sS'comp_time'
p759
F0.0016782283782958984
sS'exec_cq'
p760
I5
sS'total_cq'
p761
I5
sa(dp762
g757
I2
sg758
F2.9087066650390625e-05
sg759
F0.000141143798828125
sg760
I4
sg761
I4
sasS'total_cqs'
p763
I5
ssI76
(dp764
S'iters'
p765
I1
sS'meta'
p766
(lp767
(dp768
S'objective'
p769
I1
sS'query_time'
p770
F0.017570018768310547
sS'comp_time'
p771
F0.0012927055358886719
sS'exec_cq'
p772
I2
sS'total_cq'
p773
I2
sasS'total_cqs'
p774
I2
ssI103
(dp775
S'iters'
p776
I1
sS'meta'
p777
(lp778
(dp779
S'objective'
p780
I64
sS'query_time'
p781
F0.06527400016784668
sS'comp_time'
p782
F0.015560150146484375
sS'exec_cq'
p783
I12
sS'total_cq'
p784
I12
sasS'total_cqs'
p785
I12
ssI104
(dp786
S'iters'
p787
I2
sS'meta'
p788
(lp789
(dp790
S'objective'
p791
I0
sS'query_time'
p792
F1.329887866973877
sS'comp_time'
p793
F0.13205409049987793
sS'exec_cq'
p794
I4
sS'total_cq'
p795
I4
sa(dp796
g791
I1
sg792
F0.011871814727783203
sg793
F0.019887447357177734
sg794
I2
sg795
I2
sasS'total_cqs'
p797
I4
ssI106
(dp798
S'iters'
p799
I1
sS'meta'
p800
(lp801
(dp802
S'objective'
p803
I4
sS'query_time'
p804
F0.024158954620361328
sS'comp_time'
p805
F0.0020248889923095703
sS'exec_cq'
p806
I4
sS'total_cq'
p807
I4
sasS'total_cqs'
p808
I4
ssI107
(dp809
S'iters'
p810
I2
sS'meta'
p811
(lp812
(dp813
S'objective'
p814
I106
sS'query_time'
p815
F0.07642388343811035
sS'comp_time'
p816
F0.019392967224121094
sS'exec_cq'
p817
I16
sS'total_cq'
p818
I16
sa(dp819
g814
I3
sg815
F0.00521397590637207
sg816
F0.00030112266540527344
sg817
I3
sg818
I3
sasS'total_cqs'
p820
I16
ss.