(dp0
I1
(dp1
S'iters'
p2
I2
sS'meta'
p3
(lp4
(dp5
S'objective'
p6
I48
sS'query_time'
p7
F0.17979788780212402
sS'comp_time'
p8
F0.00027489662170410156
sS'exec_cq'
p9
I12
sS'total_cq'
p10
I12
sa(dp11
g6
I39
sg7
F6.580352783203125e-05
sg8
F0.00010895729064941406
sg9
I10
sg10
I10
sasS'total_cqs'
p12
I12
ssI2
(dp13
S'iters'
p14
I3
sS'meta'
p15
(lp16
(dp17
S'objective'
p18
I286
sS'query_time'
p19
F0.7114880084991455
sS'comp_time'
p20
F0.001435995101928711
sS'exec_cq'
p21
I27
sS'total_cq'
p22
I27
sa(dp23
g18
I262
sg19
F0.00020313262939453125
sg20
F0.0006749629974365234
sg21
I23
sg22
I23
sa(dp24
g18
I243
sg19
F0.0001690387725830078
sg20
F0.0004570484161376953
sg21
I20
sg22
I20
sasS'total_cqs'
p25
I27
ssI3
(dp26
S'iters'
p27
I3
sS'meta'
p28
(lp29
(dp30
S'objective'
p31
I316
sS'query_time'
p32
F178.28047895431519
sS'comp_time'
p33
F1.6531238555908203
sS'exec_cq'
p34
I43
sS'total_cq'
p35
I43
sa(dp36
g31
I29
sg32
F0.3418419361114502
sg33
F1.3858909606933594
sg34
I27
sg35
I27
sa(dp37
g31
I215
sg32
F0.042868852615356445
sg33
F0.35643482208251953
sg34
I13
sg35
I13
sasS'total_cqs'
p38
I43
ssI4
(dp39
S'iters'
p40
I2
sS'meta'
p41
(lp42
(dp43
S'objective'
p44
I34
sS'query_time'
p45
F5.681489944458008
sS'comp_time'
p46
F0.35462093353271484
sS'exec_cq'
p47
I11
sS'total_cq'
p48
I11
sa(dp49
g44
I6
sg45
F0.09847497940063477
sg46
F0.37266016006469727
sg47
I2
sg48
I2
sasS'total_cqs'
p50
I11
ssI5
(dp51
S'iters'
p52
I3
sS'meta'
p53
(lp54
(dp55
S'objective'
p56
I0
sS'query_time'
p57
F45.491594076156616
sS'comp_time'
p58
F2.50970196723938
sS'exec_cq'
p59
I8
sS'total_cq'
p60
I8
sa(dp61
g56
I0
sg57
F0.09734678268432617
sg58
F0.886192798614502
sg59
I4
sg60
I4
sa(dp62
g56
I7
sg57
F0.007682085037231445
sg58
F0.0335841178894043
sg59
I2
sg60
I2
sasS'total_cqs'
p63
I8
ssI6
(dp64
S'iters'
p65
I3
sS'meta'
p66
(lp67
(dp68
S'objective'
p69
I75
sS'query_time'
p70
F21.340837955474854
sS'comp_time'
p71
F0.04426407814025879
sS'exec_cq'
p72
I18
sS'total_cq'
p73
I18
sa(dp74
g69
I14
sg70
F0.004897117614746094
sg71
F0.047177791595458984
sg72
I3
sg73
I3
sa(dp75
g69
I5
sg70
F0.005715847015380859
sg71
F0.028851032257080078
sg72
I2
sg73
I2
sasS'total_cqs'
p76
I18
ssI7
(dp77
S'iters'
p78
I3
sS'meta'
p79
(lp80
(dp81
S'objective'
p82
I1
sS'query_time'
p83
F26.95020818710327
sS'comp_time'
p84
F0.8748493194580078
sS'exec_cq'
p85
I9
sS'total_cq'
p86
I9
sa(dp87
g82
I0
sg83
F0.14479398727416992
sg84
F0.3425569534301758
sg85
I4
sg86
I4
sa(dp88
g82
I7
sg83
F0.017446041107177734
sg84
F0.12582111358642578
sg85
I2
sg86
I2
sasS'total_cqs'
p89
I9
ssI8
(dp90
S'iters'
p91
I3
sS'meta'
p92
(lp93
(dp94
S'objective'
p95
I238
sS'query_time'
p96
F0.8732531070709229
sS'comp_time'
p97
F0.001535177230834961
sS'exec_cq'
p98
I27
sS'total_cq'
p99
I27
sa(dp100
g95
I244
sg96
F0.00021791458129882812
sg97
F0.00046515464782714844
sg98
I22
sg99
I22
sa(dp101
g95
I222
sg96
F8.58306884765625e-05
sg97
F0.00013136863708496094
sg98
I19
sg99
I19
sasS'total_cqs'
p102
I27
ssI9
(dp103
S'iters'
p104
I3
sS'meta'
p105
(lp106
(dp107
S'objective'
p108
I2
sS'query_time'
p109
F0.6632390022277832
sS'comp_time'
p110
F0.0003750324249267578
sS'exec_cq'
p111
I7
sS'total_cq'
p112
I7
sa(dp113
g108
I5
sg109
F3.0994415283203125e-05
sg110
F8.416175842285156e-05
sg111
I4
sg112
I4
sa(dp114
g108
I5
sg109
F0.0071299076080322266
sg110
F7.891654968261719e-05
sg111
I2
sg112
I2
sasS'total_cqs'
p115
I7
ssI10
(dp116
S'iters'
p117
I4
sS'meta'
p118
(lp119
(dp120
S'objective'
p121
I678
sS'query_time'
p122
F1.8915910720825195
sS'comp_time'
p123
F0.00802302360534668
sS'exec_cq'
p124
I51
sS'total_cq'
p125
I51
sa(dp126
g121
I452
sg122
F0.0004718303680419922
sg123
F0.0017631053924560547
sg124
I39
sg125
I39
sa(dp127
g121
I507
sg122
F0.0002110004425048828
sg123
F0.0007069110870361328
sg124
I25
sg125
I25
sa(dp128
g121
I8
sg122
F0.00598597526550293
sg123
F0.00017595291137695312
sg124
I3
sg125
I3
sasS'total_cqs'
p129
I51
ssI11
(dp130
S'iters'
p131
I5
sS'meta'
p132
(lp133
(dp134
S'objective'
p135
I974
sS'query_time'
p136
F1.9114599227905273
sS'comp_time'
p137
F0.015109777450561523
sS'exec_cq'
p138
I63
sS'total_cq'
p139
I63
sa(dp140
g135
I825
sg136
F0.0008831024169921875
sg137
F0.00339508056640625
sg138
I47
sg139
I47
sa(dp141
g135
I29
sg136
F0.030501842498779297
sg137
F0.0016431808471679688
sg138
I9
sg139
I9
sa(dp142
g135
I1
sg136
F0.0002300739288330078
sg137
F0.0012090206146240234
sg138
I5
sg139
I5
sa(dp143
g135
I50
sg136
F2.193450927734375e-05
sg137
F7.104873657226562e-05
sg138
I2
sg139
I2
sasS'total_cqs'
p144
I63
ssI12
(dp145
S'iters'
p146
I5
sS'meta'
p147
(lp148
(dp149
S'objective'
p150
I429
sS'query_time'
p151
F1.8981850147247314
sS'comp_time'
p152
F0.009160041809082031
sS'exec_cq'
p153
I50
sS'total_cq'
p154
I50
sa(dp155
g150
I340
sg151
F0.0006570816040039062
sg152
F0.002293109893798828
sg153
I33
sg154
I33
sa(dp156
g150
I10
sg151
F0.005758047103881836
sg152
F0.0021448135375976562
sg153
I8
sg154
I8
sa(dp157
g150
I15
sg151
F0.0002110004425048828
sg152
F0.0011467933654785156
sg153
I4
sg154
I4
sa(dp158
g150
I46
sg151
F3.600120544433594e-05
sg152
F0.00012111663818359375
sg153
I2
sg154
I2
sasS'total_cqs'
p159
I50
ssI13
(dp160
S'iters'
p161
I4
sS'meta'
p162
(lp163
(dp164
S'objective'
p165
I16
sS'query_time'
p166
F1.4364049434661865
sS'comp_time'
p167
F0.0006108283996582031
sS'exec_cq'
p168
I20
sS'total_cq'
p169
I20
sa(dp170
g165
I5
sg166
F0.0022881031036376953
sg167
F0.0003829002380371094
sg168
I11
sg169
I11
sa(dp171
g165
I17
sg166
F5.698204040527344e-05
sg167
F9.417533874511719e-05
sg168
I5
sg169
I5
sa(dp172
g165
I19
sg166
F1.5974044799804688e-05
sg167
F6.389617919921875e-05
sg168
I2
sg169
I2
sasS'total_cqs'
p173
I20
ssI14
(dp174
S'iters'
p175
I3
sS'meta'
p176
(lp177
(dp178
S'objective'
p179
I11
sS'query_time'
p180
F21.142998933792114
sS'comp_time'
p181
F0.03857016563415527
sS'exec_cq'
p182
I9
sS'total_cq'
p183
I9
sa(dp184
g179
I12
sg180
F0.004377126693725586
sg181
F0.02659773826599121
sg182
I5
sg183
I5
sa(dp185
g179
I2
sg180
F0.019461870193481445
sg181
F0.041033029556274414
sg182
I4
sg183
I4
sasS'total_cqs'
p186
I9
ssI15
(dp187
S'iters'
p188
I3
sS'meta'
p189
(lp190
(dp191
S'objective'
p192
I0
sS'query_time'
p193
F11.353042125701904
sS'comp_time'
p194
F0.12231063842773438
sS'exec_cq'
p195
I11
sS'total_cq'
p196
I11
sa(dp197
g192
I1
sg193
F0.028779983520507812
sg194
F0.12237405776977539
sg195
I4
sg196
I4
sa(dp198
g192
I6
sg193
F0.00926518440246582
sg194
F0.06934976577758789
sg195
I2
sg196
I2
sasS'total_cqs'
p199
I11
ssI16
(dp200
S'iters'
p201
I1
sS'meta'
p202
(lp203
(dp204
S'objective'
p205
I20
sS'query_time'
p206
F0.02230095863342285
sS'comp_time'
p207
F0.0001361370086669922
sS'exec_cq'
p208
I8
sS'total_cq'
p209
I8
sasS'total_cqs'
p210
I8
ssI17
(dp211
S'iters'
p212
I3
sS'meta'
p213
(lp214
(dp215
S'objective'
p216
I4
sS'query_time'
p217
F3.8892221450805664
sS'comp_time'
p218
F0.021852970123291016
sS'exec_cq'
p219
I11
sS'total_cq'
p220
I11
sa(dp221
g216
I1
sg217
F0.0021429061889648438
sg218
F0.00988006591796875
sg219
I4
sg220
I4
sa(dp222
g216
I7
sg217
F0.0016720294952392578
sg218
F0.008411884307861328
sg219
I2
sg220
I2
sasS'total_cqs'
p223
I11
ssI18
(dp224
S'iters'
p225
I2
sS'meta'
p226
(lp227
(dp228
S'objective'
p229
I24
sS'query_time'
p230
F2.9040870666503906
sS'comp_time'
p231
F0.004349231719970703
sS'exec_cq'
p232
I11
sS'total_cq'
p233
I11
sa(dp234
g229
I23
sg230
F0.00023818016052246094
sg231
F0.0011627674102783203
sg232
I8
sg233
I8
sasS'total_cqs'
p235
I11
ssI22
(dp236
S'iters'
p237
I1
sS'meta'
p238
(lp239
(dp240
S'objective'
p241
I135
sS'query_time'
p242
F0.20577692985534668
sS'comp_time'
p243
F0.0002200603485107422
sS'exec_cq'
p244
I18
sS'total_cq'
p245
I18
sasS'total_cqs'
p246
I18
ssI23
(dp247
S'iters'
p248
I2
sS'meta'
p249
(lp250
(dp251
S'objective'
p252
I88
sS'query_time'
p253
F0.23138093948364258
sS'comp_time'
p254
F0.0006959438323974609
sS'exec_cq'
p255
I16
sS'total_cq'
p256
I16
sa(dp257
g252
I80
sg253
F0.00010514259338378906
sg254
F0.00024771690368652344
sg255
I14
sg256
I14
sasS'total_cqs'
p258
I16
ssI26
(dp259
S'iters'
p260
I1
sS'meta'
p261
(lp262
(dp263
S'objective'
p264
I819
sS'query_time'
p265
F0.597985029220581
sS'comp_time'
p266
F0.00021910667419433594
sS'exec_cq'
p267
I42
sS'total_cq'
p268
I42
sasS'total_cqs'
p269
I42
ssI27
(dp270
S'iters'
p271
I5
sS'meta'
p272
(lp273
(dp274
S'objective'
p275
I395
sS'query_time'
p276
F22.277075052261353
sS'comp_time'
p277
F0.7661750316619873
sS'exec_cq'
p278
I30
sS'total_cq'
p279
I30
sa(dp280
g275
I380
sg276
F0.0010669231414794922
sg277
F0.5806899070739746
sg278
I28
sg279
I28
sa(dp281
g275
I363
sg276
F0.00017690658569335938
sg277
F0.5407369136810303
sg278
I27
sg279
I27
sa(dp282
g275
I322
sg276
F0.21542906761169434
sg277
F0.005967855453491211
sg278
I26
sg279
I26
sa(dp283
g275
I29
sg276
F0.49531078338623047
sg277
F0.27704715728759766
sg278
I2
sg279
I2
sasS'total_cqs'
p284
I30
ssI29
(dp285
S'iters'
p286
I5
sS'meta'
p287
(lp288
(dp289
S'objective'
p290
I339
sS'query_time'
p291
F149.29963493347168
sS'comp_time'
p292
F13.44706106185913
sS'exec_cq'
p293
I49
sS'total_cq'
p294
I49
sa(dp295
g290
I7
sg291
F0.019917964935302734
sg292
F0.046000003814697266
sg293
I17
sg294
I17
sa(dp296
g290
I16
sg291
F0.5972120761871338
sg292
F0.053459882736206055
sg293
I9
sg294
I9
sa(dp297
g290
I3
sg291
F0.0059719085693359375
sg292
F0.026261091232299805
sg293
I5
sg294
I5
sa(dp298
g290
I38
sg291
F0.001558065414428711
sg292
F0.007170200347900391
sg293
I2
sg294
I2
sasS'total_cqs'
p299
I49
ssI30
(dp300
S'iters'
p301
I1
sS'meta'
p302
(lp303
(dp304
S'objective'
p305
I1
sS'query_time'
p306
F2.9695239067077637
sS'comp_time'
p307
F0.023842334747314453
sS'exec_cq'
p308
I2
sS'total_cq'
p309
I2
sasS'total_cqs'
p310
I2
ssI32
(dp311
S'iters'
p312
I1
sS'meta'
p313
(lp314
(dp315
S'objective'
p316
I1
sS'query_time'
p317
F0.019231081008911133
sS'comp_time'
p318
F0.0002701282501220703
sS'exec_cq'
p319
I2
sS'total_cq'
p320
I2
sasS'total_cqs'
p321
I2
ssI33
(dp322
S'iters'
p323
I1
sS'meta'
p324
(lp325
(dp326
S'objective'
p327
I5150
sS'query_time'
p328
F21.670514822006226
sS'comp_time'
p329
F0.7930967807769775
sS'exec_cq'
p330
I103
sS'total_cq'
p331
I103
sasS'total_cqs'
p332
I103
ssI34
(dp333
S'iters'
p334
I1
sS'meta'
p335
(lp336
(dp337
S'objective'
p338
I1
sS'query_time'
p339
F0.03514504432678223
sS'comp_time'
p340
F0.0008800029754638672
sS'exec_cq'
p341
I2
sS'total_cq'
p342
I2
sasS'total_cqs'
p343
I2
ssI35
(dp344
S'iters'
p345
I4
sS'meta'
p346
(lp347
(dp348
S'objective'
p349
I2423
sS'query_time'
p350
F20.328901052474976
sS'comp_time'
p351
F0.10763120651245117
sS'exec_cq'
p352
I70
sS'total_cq'
p353
I70
sa(dp354
g349
I2440
sg350
F0.0003829002380371094
sg351
F0.07960820198059082
sg352
I69
sg353
I69
sa(dp355
g349
I2229
sg350
F0.35678601264953613
sg351
F0.36020493507385254
sg352
I68
sg353
I68
sa(dp356
g349
I31
sg350
F0.03978276252746582
sg351
F0.008803844451904297
sg352
I2
sg353
I2
sasS'total_cqs'
p357
I70
ssI36
(dp358
S'iters'
p359
I3
sS'meta'
p360
(lp361
(dp362
S'objective'
p363
I411
sS'query_time'
p364
F3.4873850345611572
sS'comp_time'
p365
F0.028818130493164062
sS'exec_cq'
p366
I33
sS'total_cq'
p367
I33
sa(dp368
g363
I344
sg364
F0.0047681331634521484
sg365
F0.01932692527770996
sg366
I29
sg367
I29
sa(dp369
g363
I349
sg364
F0.0012731552124023438
sg365
F0.006510019302368164
sg366
I25
sg367
I25
sasS'total_cqs'
p370
I33
ssI37
(dp371
S'iters'
p372
I1
sS'meta'
p373
(lp374
(dp375
S'objective'
p376
I1
sS'query_time'
p377
F0.012204885482788086
sS'comp_time'
p378
F0.000308990478515625
sS'exec_cq'
p379
I2
sS'total_cq'
p380
I2
sasS'total_cqs'
p381
I2
ssI38
(dp382
S'iters'
p383
I2
sS'meta'
p384
(lp385
(dp386
S'objective'
p387
I0
sS'query_time'
p388
F0.06389784812927246
sS'comp_time'
p389
F0.0007319450378417969
sS'exec_cq'
p390
I4
sS'total_cq'
p391
I4
sa(dp392
g387
I3
sg388
F8.392333984375e-05
sg389
F0.00042891502380371094
sg390
I2
sg391
I2
sasS'total_cqs'
p393
I4
ssI39
(dp394
S'iters'
p395
I2
sS'meta'
p396
(lp397
(dp398
S'objective'
p399
I654
sS'query_time'
p400
F0.9013669490814209
sS'comp_time'
p401
F0.0019032955169677734
sS'exec_cq'
p402
I44
sS'total_cq'
p403
I44
sa(dp404
g399
I734
sg400
F0.00038695335388183594
sg401
F0.0014903545379638672
sg402
I37
sg403
I37
sasS'total_cqs'
p405
I44
ssI40
(dp406
S'iters'
p407
I1
sS'meta'
p408
(lp409
(dp410
S'objective'
p411
I14
sS'query_time'
p412
F0.4177069664001465
sS'comp_time'
p413
F0.00012683868408203125
sS'exec_cq'
p414
I7
sS'total_cq'
p415
I7
sasS'total_cqs'
p416
I7
ssI41
(dp417
S'iters'
p418
I1
sS'meta'
p419
(lp420
(dp421
S'objective'
p422
I54
sS'query_time'
p423
F0.22799992561340332
sS'comp_time'
p424
F0.0001850128173828125
sS'exec_cq'
p425
I12
sS'total_cq'
p426
I12
sasS'total_cqs'
p427
I12
ssI42
(dp428
S'iters'
p429
I1
sS'meta'
p430
(lp431
(dp432
S'objective'
p433
I779
sS'query_time'
p434
F0.5351169109344482
sS'comp_time'
p435
F0.00023293495178222656
sS'exec_cq'
p436
I41
sS'total_cq'
p437
I41
sasS'total_cqs'
p438
I41
ssI43
(dp439
S'iters'
p440
I1
sS'meta'
p441
(lp442
(dp443
S'objective'
p444
I14
sS'query_time'
p445
F0.21960020065307617
sS'comp_time'
p446
F0.00011897087097167969
sS'exec_cq'
p447
I7
sS'total_cq'
p448
I7
sasS'total_cqs'
p449
I7
ssI44
(dp450
S'iters'
p451
I4
sS'meta'
p452
(lp453
(dp454
S'objective'
p455
I744
sS'query_time'
p456
F0.7125301361083984
sS'comp_time'
p457
F0.0013370513916015625
sS'exec_cq'
p458
I47
sS'total_cq'
p459
I47
sa(dp460
g455
I760
sg456
F0.00026702880859375
sg457
F0.0008742809295654297
sg458
I40
sg459
I40
sa(dp461
g455
I18
sg456
F0.0016009807586669922
sg457
F0.0007429122924804688
sg458
I3
sg459
I3
sa(dp462
g455
I41
sg456
F0.0001010894775390625
sg457
F0.004694938659667969
sg458
I2
sg459
I2
sasS'total_cqs'
p463
I47
ssI46
(dp464
S'iters'
p465
I1
sS'meta'
p466
(lp467
(dp468
S'objective'
p469
I9
sS'query_time'
p470
F0.12535405158996582
sS'comp_time'
p471
F0.0006048679351806641
sS'exec_cq'
p472
I6
sS'total_cq'
p473
I6
sasS'total_cqs'
p474
I6
ssI47
(dp475
S'iters'
p476
I1
sS'meta'
p477
(lp478
(dp479
S'objective'
p480
I1
sS'query_time'
p481
F0.03545999526977539
sS'comp_time'
p482
F0.00030422210693359375
sS'exec_cq'
p483
I2
sS'total_cq'
p484
I2
sasS'total_cqs'
p485
I2
ssI50
(dp486
S'iters'
p487
I1
sS'meta'
p488
(lp489
(dp490
S'objective'
p491
I5
sS'query_time'
p492
F0.06637001037597656
sS'comp_time'
p493
F0.0001709461212158203
sS'exec_cq'
p494
I5
sS'total_cq'
p495
I5
sasS'total_cqs'
p496
I5
ssI51
(dp497
S'iters'
p498
I1
sS'meta'
p499
(lp500
(dp501
S'objective'
p502
I1
sS'query_time'
p503
F0.0457150936126709
sS'comp_time'
p504
F0.0002307891845703125
sS'exec_cq'
p505
I2
sS'total_cq'
p506
I2
sasS'total_cqs'
p507
I2
ssI52
(dp508
S'iters'
p509
I1
sS'meta'
p510
(lp511
(dp512
S'objective'
p513
I1
sS'query_time'
p514
F0.04522514343261719
sS'comp_time'
p515
F0.00019693374633789062
sS'exec_cq'
p516
I2
sS'total_cq'
p517
I2
sasS'total_cqs'
p518
I2
ssI53
(dp519
S'iters'
p520
I1
sS'meta'
p521
(lp522
(dp523
S'objective'
p524
I2
sS'query_time'
p525
F0.08133077621459961
sS'comp_time'
p526
F0.0005888938903808594
sS'exec_cq'
p527
I4
sS'total_cq'
p528
I4
sasS'total_cqs'
p529
I4
ssI54
(dp530
S'iters'
p531
I1
sS'meta'
p532
(lp533
(dp534
S'objective'
p535
I0
sS'query_time'
p536
F0.07313799858093262
sS'comp_time'
p537
F0.00036406517028808594
sS'exec_cq'
p538
I3
sS'total_cq'
p539
I3
sasS'total_cqs'
p540
I3
ssI55
(dp541
S'iters'
p542
I5
sS'meta'
p543
(lp544
(dp545
S'objective'
p546
I4813
sS'query_time'
p547
F14.234771966934204
sS'comp_time'
p548
F0.036184072494506836
sS'exec_cq'
p549
I109
sS'total_cq'
p550
I109
sa(dp551
g546
I4648
sg547
F0.0007619857788085938
sg548
F0.0015289783477783203
sg549
I97
sg550
I97
sa(dp552
g546
I4674
sg547
F0.00028395652770996094
sg548
F0.0007500648498535156
sg549
I91
sg550
I91
sa(dp553
g546
I4564
sg547
F0.00026106834411621094
sg548
F0.0006999969482421875
sg549
I87
sg550
I87
sa(dp554
g546
I4489
sg547
F0.00025081634521484375
sg548
F0.000743865966796875
sg549
I85
sg550
I85
sasS'total_cqs'
p555
I109
ssI56
(dp556
S'iters'
p557
I4
sS'meta'
p558
(lp559
(dp560
S'objective'
p561
I1624
sS'query_time'
p562
F18.335417985916138
sS'comp_time'
p563
F0.16038012504577637
sS'exec_cq'
p564
I76
sS'total_cq'
p565
I76
sa(dp566
g561
I15
sg562
F0.006170988082885742
sg563
F0.010452985763549805
sg564
I16
sg565
I16
sa(dp567
g561
I12
sg562
F0.0010831356048583984
sg563
F0.004904747009277344
sg564
I6
sg565
I6
sa(dp568
g561
I1
sg562
F0.0007150173187255859
sg563
F0.0036771297454833984
sg564
I3
sg565
I3
sasS'total_cqs'
p569
I76
ssI57
(dp570
S'iters'
p571
I5
sS'meta'
p572
(lp573
(dp574
S'objective'
p575
I96
sS'query_time'
p576
F85.22612714767456
sS'comp_time'
p577
F3.584282875061035
sS'exec_cq'
p578
I51
sS'total_cq'
p579
I51
sa(dp580
g575
I1
sg576
F0.01509404182434082
sg577
F0.027988195419311523
sg578
I27
sg579
I27
sa(dp581
g575
I3
sg576
F0.009294986724853516
sg577
F0.20657801628112793
sg578
I11
sg579
I11
sa(dp582
g575
I1
sg576
F0.0053288936614990234
sg577
F0.015563011169433594
sg578
I7
sg579
I7
sa(dp583
g575
I12
sg576
F0.0006930828094482422
sg577
F0.002898693084716797
sg578
I3
sg579
I3
sasS'total_cqs'
p584
I51
ssI58
(dp585
S'iters'
p586
I6
sS'meta'
p587
(lp588
(dp589
S'objective'
p590
I116881
sS'query_time'
p591
F22.112563133239746
sS'comp_time'
p592
F0.43200206756591797
sS'exec_cq'
p593
I486
sS'total_cq'
p594
I486
sa(dp595
g590
I116659
sg591
F0.002067089080810547
sg592
F0.9744248390197754
sg593
I484
sg594
I484
sa(dp596
g590
I116403
sg591
F0.0019459724426269531
sg592
F0.45977020263671875
sg593
I483
sg594
I483
sa(dp597
g590
I116163
sg591
F0.001920938491821289
sg592
F0.4320042133331299
sg593
I481
sg594
I481
sa(dp598
g590
I110784
sg591
F2.2304162979125977
sg592
F2.084773063659668
sg593
I480
sg594
I480
sa(dp599
g590
I1869
sg591
F0.1331491470336914
sg592
F0.10911798477172852
sg593
I12
sg594
I12
sasS'total_cqs'
p600
I486
ssI59
(dp601
S'iters'
p602
I2
sS'meta'
p603
(lp604
(dp605
S'objective'
p606
I4
sS'query_time'
p607
F0.3247411251068115
sS'comp_time'
p608
F0.0008769035339355469
sS'exec_cq'
p609
I7
sS'total_cq'
p610
I7
sa(dp611
g606
I2
sg607
F0.00016117095947265625
sg608
F0.0008022785186767578
sg609
I2
sg610
I2
sasS'total_cqs'
p612
I7
ssI60
(dp613
S'iters'
p614
I1
sS'meta'
p615
(lp616
(dp617
S'objective'
p618
I5
sS'query_time'
p619
F0.1901841163635254
sS'comp_time'
p620
F0.00034618377685546875
sS'exec_cq'
p621
I5
sS'total_cq'
p622
I5
sasS'total_cqs'
p623
I5
ssI62
(dp624
S'iters'
p625
I2
sS'meta'
p626
(lp627
(dp628
S'objective'
p629
I46
sS'query_time'
p630
F0.14716386795043945
sS'comp_time'
p631
F0.0001690387725830078
sS'exec_cq'
p632
I12
sS'total_cq'
p633
I12
sa(dp634
g629
I38
sg630
F3.4809112548828125e-05
sg631
F5.1021575927734375e-05
sg632
I9
sg633
I9
sasS'total_cqs'
p635
I12
ssI64
(dp636
S'iters'
p637
I3
sS'meta'
p638
(lp639
(dp640
S'objective'
p641
I6
sS'query_time'
p642
F1.0657880306243896
sS'comp_time'
p643
F0.007733821868896484
sS'exec_cq'
p644
I12
sS'total_cq'
p645
I12
sa(dp646
g641
I4
sg642
F9.083747863769531e-05
sg643
F0.0003879070281982422
sg644
I4
sg645
I4
sa(dp647
g641
I4
sg642
F2.384185791015625e-05
sg643
F9.679794311523438e-05
sg644
I2
sg645
I2
sasS'total_cqs'
p648
I12
ssI65
(dp649
S'iters'
p650
I3
sS'meta'
p651
(lp652
(dp653
S'objective'
p654
I150
sS'query_time'
p655
F3.300014019012451
sS'comp_time'
p656
F0.04281783103942871
sS'exec_cq'
p657
I27
sS'total_cq'
p658
I27
sa(dp659
g654
I0
sg655
F0.0014100074768066406
sg656
F0.004400968551635742
sg657
I7
sg658
I7
sa(dp660
g654
I3
sg655
F0.00015616416931152344
sg656
F0.0007512569427490234
sg657
I3
sg658
I3
sasS'total_cqs'
p661
I27
ssI67
(dp662
S'iters'
p663
I2
sS'meta'
p664
(lp665
(dp666
S'objective'
p667
I518
sS'query_time'
p668
F4.649280071258545
sS'comp_time'
p669
F0.009434938430786133
sS'exec_cq'
p670
I35
sS'total_cq'
p671
I35
sa(dp672
g667
I14
sg668
F0.0010218620300292969
sg669
F0.0051538944244384766
sg670
I2
sg671
I2
sasS'total_cqs'
p673
I35
ssI69
(dp674
S'iters'
p675
I1
sS'meta'
p676
(lp677
(dp678
S'objective'
p679
I1224
sS'query_time'
p680
F1.9102990627288818
sS'comp_time'
p681
F0.00032711029052734375
sS'exec_cq'
p682
I51
sS'total_cq'
p683
I51
sasS'total_cqs'
p684
I51
ssI70
(dp685
S'iters'
p686
I1
sS'meta'
p687
(lp688
(dp689
S'objective'
p690
I9
sS'query_time'
p691
F0.13786697387695312
sS'comp_time'
p692
F0.0002810955047607422
sS'exec_cq'
p693
I6
sS'total_cq'
p694
I6
sasS'total_cqs'
p695
I6
ssI71
(dp696
S'iters'
p697
I6
sS'meta'
p698
(lp699
(dp700
S'objective'
p701
I3285
sS'query_time'
p702
F1.5315439701080322
sS'comp_time'
p703
F0.001397848129272461
sS'exec_cq'
p704
I85
sS'total_cq'
p705
I85
sa(dp706
g701
I3102
sg702
F0.0005688667297363281
sg703
F0.0011250972747802734
sg704
I81
sg705
I81
sa(dp707
g701
I3002
sg702
F0.0004630088806152344
sg703
F0.0009429454803466797
sg704
I77
sg705
I77
sa(dp708
g701
I2932
sg702
F0.00047016143798828125
sg703
F0.00037169456481933594
sg704
I74
sg705
I74
sa(dp709
g701
I2844
sg702
F0.000186920166015625
sg703
F0.0002810955047607422
sg704
I71
sg705
I71
sa(dp710
g701
I73
sg702
F0.009160995483398438
sg703
F0.00023102760314941406
sg704
I3
sg705
I3
sasS'total_cqs'
p711
I85
ssI72
(dp712
S'iters'
p713
I3
sS'meta'
p714
(lp715
(dp716
S'objective'
p717
I16
sS'query_time'
p718
F1.8478999137878418
sS'comp_time'
p719
F0.0023670196533203125
sS'exec_cq'
p720
I8
sS'total_cq'
p721
I8
sa(dp722
g717
I8
sg718
F0.0001399517059326172
sg719
F0.0004119873046875
sg720
I5
sg721
I5
sa(dp723
g717
I1
sg718
F5.3882598876953125e-05
sg719
F0.0002110004425048828
sg720
I3
sg721
I3
sasS'total_cqs'
p724
I8
ssI75
(dp725
S'iters'
p726
I1
sS'meta'
p727
(lp728
(dp729
S'objective'
p730
I5
sS'query_time'
p731
F0.047395944595336914
sS'comp_time'
p732
F0.00014281272888183594
sS'exec_cq'
p733
I5
sS'total_cq'
p734
I5
sasS'total_cqs'
p735
I5
ssI76
(dp736
S'iters'
p737
I1
sS'meta'
p738
(lp739
(dp740
S'objective'
p741
I1
sS'query_time'
p742
F0.08662986755371094
sS'comp_time'
p743
F0.0004851818084716797
sS'exec_cq'
p744
I2
sS'total_cq'
p745
I2
sasS'total_cqs'
p746
I2
ssI103
(dp747
S'iters'
p748
I1
sS'meta'
p749
(lp750
(dp751
S'objective'
p752
I54
sS'query_time'
p753
F1.4232940673828125
sS'comp_time'
p754
F0.000202178955078125
sS'exec_cq'
p755
I12
sS'total_cq'
p756
I12
sasS'total_cqs'
p757
I12
ssI104
(dp758
S'iters'
p759
I1
sS'meta'
p760
(lp761
(dp762
S'objective'
p763
I2
sS'query_time'
p764
F5.942087888717651
sS'comp_time'
p765
F0.10565400123596191
sS'exec_cq'
p766
I4
sS'total_cq'
p767
I4
sasS'total_cqs'
p768
I4
ssI106
(dp769
S'iters'
p770
I1
sS'meta'
p771
(lp772
(dp773
S'objective'
p774
I2
sS'query_time'
p775
F0.11651110649108887
sS'comp_time'
p776
F9.894371032714844e-05
sS'exec_cq'
p777
I4
sS'total_cq'
p778
I4
sasS'total_cqs'
p779
I4
ssI107
(dp780
S'iters'
p781
I2
sS'meta'
p782
(lp783
(dp784
S'objective'
p785
I74
sS'query_time'
p786
F1.1978411674499512
sS'comp_time'
p787
F0.0002269744873046875
sS'exec_cq'
p788
I16
sS'total_cq'
p789
I16
sa(dp790
g785
I1
sg786
F0.022437095642089844
sg787
F0.00016999244689941406
sg788
I3
sg789
I3
sasS'total_cqs'
p791
I16
ss.