(dp0
I1
(dp1
S'iters'
p2
I4
sS'meta'
p3
(lp4
(dp5
S'objective'
p6
I44
sS'query_time'
p7
F0.17330288887023926
sS'comp_time'
p8
F0.020123004913330078
sS'exec_cq'
p9
I12
sS'total_cq'
p10
I12
sa(dp11
g6
I41
sg7
F5.1975250244140625e-05
sg8
F0.0001537799835205078
sg9
I10
sg10
I10
sa(dp12
g6
I37
sg7
F4.1961669921875e-05
sg8
F0.00010132789611816406
sg9
I9
sg10
I9
sa(dp13
g6
I42
sg7
F4.100799560546875e-05
sg8
F7.82012939453125e-05
sg9
I8
sg10
I8
sasS'total_cqs'
p14
I12
ssI2
(dp15
S'iters'
p16
I8
sS'meta'
p17
(lp18
(dp19
S'objective'
p20
I252
sS'query_time'
p21
F0.1952981948852539
sS'comp_time'
p22
F0.031993865966796875
sS'exec_cq'
p23
I27
sS'total_cq'
p24
I27
sa(dp25
g20
I239
sg21
F0.00021004676818847656
sg22
F0.0007960796356201172
sg23
I24
sg24
I24
sa(dp26
g20
I203
sg21
F0.0001609325408935547
sg22
F0.0007131099700927734
sg23
I22
sg24
I22
sa(dp27
g20
I184
sg21
F0.00013589859008789062
sg22
F0.0005054473876953125
sg23
I19
sg24
I19
sa(dp28
g20
I196
sg21
F0.00011301040649414062
sg22
F0.0003829002380371094
sg23
I17
sg24
I17
sa(dp29
g20
I196
sg21
F8.082389831542969e-05
sg22
F0.00016999244689941406
sg23
I15
sg24
I15
sa(dp30
g20
I196
sg21
F5.984306335449219e-05
sg22
F0.000110626220703125
sg23
I14
sg24
I14
sa(dp31
g20
I196
sg21
F4.887580871582031e-05
sg22
F7.367134094238281e-05
sg23
I13
sg24
I13
sasS'total_cqs'
p32
I27
ssI3
(dp33
S'iters'
p34
I4
sS'meta'
p35
(lp36
(dp37
S'objective'
p38
I560
sS'query_time'
p39
F186.29226303100586
sS'comp_time'
p40
F1.0969958305358887
sS'exec_cq'
p41
I30
sS'total_cq'
p42
I43
sa(dp43
g38
I573
sg39
F43.83667731285095
sg40
F1.8877079486846924
sg41
I31
sg42
I35
sa(dp44
g38
I609
sg39
F12.643851041793823
sg40
F0.3996460437774658
sg41
I28
sg42
I28
sa(dp45
g38
I634
sg39
F0.00030159950256347656
sg40
F0.00013589859008789062
sg41
I25
sg42
I25
sasS'total_cqs'
p46
I43
ssI4
(dp47
S'iters'
p48
I2
sS'meta'
p49
(lp50
(dp51
S'objective'
p52
I58
sS'query_time'
p53
F4.839219093322754
sS'comp_time'
p54
F0.36331605911254883
sS'exec_cq'
p55
I11
sS'total_cq'
p56
I11
sa(dp57
g52
I2
sg53
F0.16729092597961426
sg54
F0.24976706504821777
sg55
I2
sg56
I2
sasS'total_cqs'
p58
I11
ssI5
(dp59
S'iters'
p60
I4
sS'meta'
p61
(lp62
(dp63
S'objective'
p64
I0
sS'query_time'
p65
F32.34863901138306
sS'comp_time'
p66
F5.885722637176514
sS'exec_cq'
p67
I8
sS'total_cq'
p68
I8
sa(dp69
g64
I0
sg65
F0.3335580825805664
sg66
F0.5909948348999023
sg67
I5
sg68
I5
sa(dp70
g64
I3
sg65
F0.010496854782104492
sg66
F0.12253618240356445
sg67
I3
sg68
I3
sa(dp71
g64
I1
sg65
F0.007319927215576172
sg66
F0.014385700225830078
sg67
I2
sg68
I2
sasS'total_cqs'
p72
I8
ssI6
(dp73
S'iters'
p74
I5
sS'meta'
p75
(lp76
(dp77
S'objective'
p78
I57
sS'query_time'
p79
F34.47896695137024
sS'comp_time'
p80
F1.5052049160003662
sS'exec_cq'
p81
I18
sS'total_cq'
p82
I18
sa(dp83
g78
I1
sg79
F0.9891290664672852
sg80
F4.683249235153198
sg81
I7
sg82
I7
sa(dp84
g78
I4
sg79
F0.284945011138916
sg80
F0.6726338863372803
sg81
I4
sg82
I4
sa(dp85
g78
I4
sg79
F0.26777005195617676
sg80
F0.6827611923217773
sg81
I3
sg82
I3
sa(dp86
g78
I2
sg79
F0.014843940734863281
sg80
F0.18663930892944336
sg81
I2
sg82
I2
sasS'total_cqs'
p87
I18
ssI7
(dp88
S'iters'
p89
I4
sS'meta'
p90
(lp91
(dp92
S'objective'
p93
I1
sS'query_time'
p94
F12.39195203781128
sS'comp_time'
p95
F5.928590297698975
sS'exec_cq'
p96
I9
sS'total_cq'
p97
I9
sa(dp98
g93
I0
sg94
F0.03394508361816406
sg95
F0.07518625259399414
sg96
I5
sg97
I5
sa(dp99
g93
I5
sg94
F0.29249000549316406
sg95
F0.07674193382263184
sg96
I3
sg97
I3
sa(dp100
g93
I1
sg94
F0.01967906951904297
sg95
F0.3117680549621582
sg96
I2
sg97
I2
sasS'total_cqs'
p101
I9
ssI8
(dp102
S'iters'
p103
I5
sS'meta'
p104
(lp105
(dp106
S'objective'
p107
I260
sS'query_time'
p108
F0.21196818351745605
sS'comp_time'
p109
F0.03027176856994629
sS'exec_cq'
p110
I27
sS'total_cq'
p111
I27
sa(dp112
g107
I203
sg108
F0.00020503997802734375
sg109
F0.0007867813110351562
sg110
I24
sg111
I24
sa(dp113
g107
I225
sg108
F8.106231689453125e-05
sg109
F0.0002391338348388672
sg110
I19
sg111
I19
sa(dp114
g107
I221
sg108
F6.890296936035156e-05
sg109
F0.000125885009765625
sg110
I18
sg111
I18
sa(dp115
g107
I230
sg108
F7.319450378417969e-05
sg109
F9.608268737792969e-05
sg110
I17
sg111
I17
sasS'total_cqs'
p116
I27
ssI9
(dp117
S'iters'
p118
I4
sS'meta'
p119
(lp120
(dp121
S'objective'
p122
I4
sS'query_time'
p123
F0.053771018981933594
sS'comp_time'
p124
F0.005704164505004883
sS'exec_cq'
p125
I7
sS'total_cq'
p126
I7
sa(dp127
g122
I2
sg123
F4.982948303222656e-05
sg124
F0.00031495094299316406
sg125
I5
sg126
I5
sa(dp128
g122
I1
sg123
F0.0014300346374511719
sg124
F0.0001964569091796875
sg125
I3
sg126
I3
sa(dp129
g122
I1
sg123
F2.002716064453125e-05
sg124
F9.393692016601562e-05
sg125
I2
sg126
I2
sasS'total_cqs'
p130
I7
ssI10
(dp131
S'iters'
p132
I6
sS'meta'
p133
(lp134
(dp135
S'objective'
p136
I596
sS'query_time'
p137
F0.3378028869628906
sS'comp_time'
p138
F0.10088706016540527
sS'exec_cq'
p139
I51
sS'total_cq'
p140
I51
sa(dp141
g136
I459
sg137
F0.00049591064453125
sg138
F0.002987384796142578
sg139
I37
sg140
I37
sa(dp142
g136
I7
sg137
F0.0019979476928710938
sg138
F0.009677648544311523
sg139
I12
sg140
I12
sa(dp143
g136
I13
sg137
F0.00011587142944335938
sg138
F0.0010790824890136719
sg139
I8
sg140
I8
sa(dp144
g136
I5
sg137
F5.3882598876953125e-05
sg138
F0.0004000663757324219
sg139
I4
sg140
I4
sa(dp145
g136
I36
sg137
F1.811981201171875e-05
sg138
F9.799003601074219e-05
sg139
I2
sg140
I2
sasS'total_cqs'
p146
I51
ssI11
(dp147
S'iters'
p148
I7
sS'meta'
p149
(lp150
(dp151
S'objective'
p152
I1096
sS'query_time'
p153
F0.6092429161071777
sS'comp_time'
p154
F0.16808605194091797
sS'exec_cq'
p155
I63
sS'total_cq'
p156
I63
sa(dp157
g152
I1068
sg153
F0.0012180805206298828
sg154
F0.00483393669128418
sg155
I47
sg156
I47
sa(dp158
g152
I6
sg153
F0.001811981201171875
sg154
F0.003498077392578125
sg155
I9
sg156
I9
sa(dp159
g152
I35
sg153
F4.696846008300781e-05
sg154
F0.0004589557647705078
sg155
I6
sg156
I6
sa(dp160
g152
I18
sg153
F3.0994415283203125e-05
sg154
F0.0001895427703857422
sg155
I4
sg156
I4
sa(dp161
g152
I8
sg153
F2.002716064453125e-05
sg154
F0.00010395050048828125
sg155
I3
sg156
I3
sa(dp162
g152
I9
sg153
F1.6927719116210938e-05
sg154
F8.869171142578125e-05
sg155
I2
sg156
I2
sasS'total_cqs'
p163
I63
ssI12
(dp164
S'iters'
p165
I6
sS'meta'
p166
(lp167
(dp168
S'objective'
p169
I305
sS'query_time'
p170
F0.18448114395141602
sS'comp_time'
p171
F0.07565951347351074
sS'exec_cq'
p172
I28
sS'total_cq'
p173
I50
sa(dp174
g169
I350
sg170
F0.16233110427856445
sg171
F0.0037178993225097656
sg172
I33
sg173
I33
sa(dp175
g169
I402
sg170
F0.0001780986785888672
sg171
F0.0007975101470947266
sg172
I26
sg173
I26
sa(dp176
g169
I370
sg170
F0.0001380443572998047
sg171
F0.0004909038543701172
sg172
I23
sg173
I23
sa(dp177
g169
I10
sg170
F0.0013730525970458984
sg171
F0.00043201446533203125
sg172
I4
sg173
I4
sa(dp178
g169
I22
sg170
F1.7881393432617188e-05
sg171
F8.988380432128906e-05
sg172
I2
sg173
I2
sasS'total_cqs'
p179
I50
ssI13
(dp180
S'iters'
p181
I6
sS'meta'
p182
(lp183
(dp184
S'objective'
p185
I2
sS'query_time'
p186
F0.17417216300964355
sS'comp_time'
p187
F0.02860093116760254
sS'exec_cq'
p188
I20
sS'total_cq'
p189
I20
sa(dp190
g185
I16
sg186
F0.003223896026611328
sg187
F0.009674072265625
sg188
I11
sg189
I11
sa(dp191
g185
I4
sg186
F4.792213439941406e-05
sg187
F0.0004134178161621094
sg188
I6
sg189
I6
sa(dp192
g185
I12
sg186
F3.314018249511719e-05
sg187
F0.0001990795135498047
sg188
I4
sg189
I4
sa(dp193
g185
I0
sg186
F2.4080276489257812e-05
sg187
F0.0001201629638671875
sg188
I3
sg189
I3
sa(dp194
g185
I1
sg186
F1.5974044799804688e-05
sg187
F8.392333984375e-05
sg188
I2
sg189
I2
sasS'total_cqs'
p195
I20
ssI14
(dp196
S'iters'
p197
I4
sS'meta'
p198
(lp199
(dp200
S'objective'
p201
I1
sS'query_time'
p202
F30.88639211654663
sS'comp_time'
p203
F0.9507076740264893
sS'exec_cq'
p204
I9
sS'total_cq'
p205
I9
sa(dp206
g201
I0
sg202
F0.1205148696899414
sg203
F0.7611539363861084
sg204
I5
sg205
I5
sa(dp207
g201
I1
sg202
F0.23689794540405273
sg203
F0.33438897132873535
sg204
I3
sg205
I3
sa(dp208
g201
I3
sg202
F0.2280740737915039
sg203
F0.3759148120880127
sg204
I2
sg205
I2
sasS'total_cqs'
p209
I9
ssI15
(dp210
S'iters'
p211
I5
sS'meta'
p212
(lp213
(dp214
S'objective'
p215
I10
sS'query_time'
p216
F3.740086078643799
sS'comp_time'
p217
F0.07793807983398438
sS'exec_cq'
p218
I11
sS'total_cq'
p219
I11
sa(dp220
g215
I16
sg216
F0.012107133865356445
sg217
F0.021538972854614258
sg218
I6
sg219
I6
sa(dp221
g215
I9
sg216
F0.011584997177124023
sg217
F0.11437797546386719
sg218
I5
sg219
I5
sa(dp222
g215
I10
sg216
F0.010672807693481445
sg217
F0.02989816665649414
sg218
I4
sg219
I4
sa(dp223
g215
I2
sg216
F0.011991024017333984
sg217
F0.023561954498291016
sg218
I2
sg219
I2
sasS'total_cqs'
p224
I11
ssI16
(dp225
S'iters'
p226
I1
sS'meta'
p227
(lp228
(dp229
S'objective'
p230
I34
sS'query_time'
p231
F0.021174907684326172
sS'comp_time'
p232
F0.005074977874755859
sS'exec_cq'
p233
I8
sS'total_cq'
p234
I8
sasS'total_cqs'
p235
I8
ssI17
(dp236
S'iters'
p237
I4
sS'meta'
p238
(lp239
(dp240
S'objective'
p241
I0
sS'query_time'
p242
F0.8738291263580322
sS'comp_time'
p243
F0.05352902412414551
sS'exec_cq'
p244
I11
sS'total_cq'
p245
I11
sa(dp246
g241
I15
sg242
F0.0001900196075439453
sg243
F0.000530242919921875
sg244
I6
sg245
I6
sa(dp247
g241
I6
sg242
F0.00014901161193847656
sg243
F0.0005021095275878906
sg244
I5
sg245
I5
sa(dp248
g241
I7
sg242
F0.0001430511474609375
sg243
F0.00028705596923828125
sg244
I2
sg245
I2
sasS'total_cqs'
p249
I11
ssI18
(dp250
S'iters'
p251
I4
sS'meta'
p252
(lp253
(dp254
S'objective'
p255
I22
sS'query_time'
p256
F0.21849298477172852
sS'comp_time'
p257
F0.02688741683959961
sS'exec_cq'
p258
I11
sS'total_cq'
p259
I11
sa(dp260
g255
I30
sg256
F0.00028395652770996094
sg257
F0.0008180141448974609
sg258
I8
sg259
I8
sa(dp261
g255
I25
sg256
F8.392333984375e-05
sg257
F0.00010061264038085938
sg258
I7
sg259
I7
sa(dp262
g255
I29
sg256
F3.1948089599609375e-05
sg257
F6.318092346191406e-05
sg258
I6
sg259
I6
sasS'total_cqs'
p263
I11
ssI22
(dp264
S'iters'
p265
I1
sS'meta'
p266
(lp267
(dp268
S'objective'
p269
I169
sS'query_time'
p270
F0.06389093399047852
sS'comp_time'
p271
F0.03206276893615723
sS'exec_cq'
p272
I18
sS'total_cq'
p273
I18
sasS'total_cqs'
p274
I18
ssI23
(dp275
S'iters'
p276
I3
sS'meta'
p277
(lp278
(dp279
S'objective'
p280
I84
sS'query_time'
p281
F0.05279088020324707
sS'comp_time'
p282
F0.026005029678344727
sS'exec_cq'
p283
I16
sS'total_cq'
p284
I16
sa(dp285
g280
I104
sg281
F9.393692016601562e-05
sg282
F0.00018906593322753906
sg283
I14
sg284
I14
sa(dp286
g280
I105
sg281
F5.269050598144531e-05
sg282
F7.390975952148438e-05
sg283
I13
sg284
I13
sasS'total_cqs'
p287
I16
ssI26
(dp288
S'iters'
p289
I1
sS'meta'
p290
(lp291
(dp292
S'objective'
p293
I901
sS'query_time'
p294
F0.14780402183532715
sS'comp_time'
p295
F0.10513520240783691
sS'exec_cq'
p296
I42
sS'total_cq'
p297
I42
sasS'total_cqs'
p298
I42
ssI27
(dp299
S'iters'
p300
I4
sS'meta'
p301
(lp302
(dp303
S'objective'
p304
I299
sS'query_time'
p305
F21.82340693473816
sS'comp_time'
p306
F1.5645029544830322
sS'exec_cq'
p307
I30
sS'total_cq'
p308
I30
sa(dp309
g304
I3
sg305
F0.3769831657409668
sg306
F1.509078025817871
sg307
I5
sg308
I5
sa(dp310
g304
I20
sg305
F0.1841869354248047
sg306
F0.2831077575683594
sg307
I3
sg308
I3
sa(dp311
g304
I8
sg305
F0.16484618186950684
sg306
F0.3033921718597412
sg307
I2
sg308
I2
sasS'total_cqs'
p312
I30
ssI29
(dp313
S'iters'
p314
I7
sS'meta'
p315
(lp316
(dp317
S'objective'
p318
I331
sS'query_time'
p319
F26.297852039337158
sS'comp_time'
p320
F0.4102818965911865
sS'exec_cq'
p321
I35
sS'total_cq'
p322
I49
sa(dp323
g318
I33
sg319
F0.051177978515625
sg320
F0.42813944816589355
sg321
I17
sg322
I17
sa(dp324
g318
I1
sg319
F0.006982088088989258
sg320
F0.021697998046875
sg321
I11
sg322
I11
sa(dp325
g318
I1
sg319
F0.005795955657958984
sg320
F0.01134347915649414
sg321
I7
sg322
I7
sa(dp326
g318
I28
sg319
F0.0010170936584472656
sg320
F0.0014832019805908203
sg321
I4
sg322
I4
sa(dp327
g318
I4
sg319
F0.0007410049438476562
sg320
F0.001199960708618164
sg321
I3
sg322
I3
sa(dp328
g318
I2
sg319
F0.0006098747253417969
sg320
F0.0009601116180419922
sg321
I2
sg322
I2
sasS'total_cqs'
p329
I49
ssI30
(dp330
S'iters'
p331
I1
sS'meta'
p332
(lp333
(dp334
S'objective'
p335
I1
sS'query_time'
p336
F0.7167930603027344
sS'comp_time'
p337
F0.012205123901367188
sS'exec_cq'
p338
I2
sS'total_cq'
p339
I2
sasS'total_cqs'
p340
I2
ssI32
(dp341
S'iters'
p342
I1
sS'meta'
p343
(lp344
(dp345
S'objective'
p346
I1
sS'query_time'
p347
F0.016002178192138672
sS'comp_time'
p348
F0.0019259452819824219
sS'exec_cq'
p349
I2
sS'total_cq'
p350
I2
sasS'total_cqs'
p351
I2
ssI33
(dp352
S'iters'
p353
I8
sS'meta'
p354
(lp355
(dp356
S'objective'
p357
I3846
sS'query_time'
p358
F16.45353412628174
sS'comp_time'
p359
F0.9588029384613037
sS'exec_cq'
p360
I103
sS'total_cq'
p361
I103
sa(dp362
g357
I13
sg358
F0.010890007019042969
sg359
F0.1154017448425293
sg360
I16
sg361
I16
sa(dp363
g357
I5
sg358
F0.006396055221557617
sg359
F0.027492046356201172
sg360
I10
sg361
I10
sa(dp364
g357
I3
sg358
F0.003384828567504883
sg359
F0.00509333610534668
sg360
I7
sg361
I7
sa(dp365
g357
I20
sg358
F0.0014541149139404297
sg359
F0.0028524398803710938
sg360
I5
sg361
I5
sa(dp366
g357
I3
sg358
F0.0008471012115478516
sg359
F0.0012450218200683594
sg360
I4
sg361
I4
sa(dp367
g357
I10
sg358
F0.0006849765777587891
sg359
F0.0014629364013671875
sg360
I3
sg361
I3
sa(dp368
g357
I1
sg358
F0.00041103363037109375
sg359
F0.0007550716400146484
sg360
I2
sg361
I2
sasS'total_cqs'
p369
I103
ssI34
(dp370
S'iters'
p371
I1
sS'meta'
p372
(lp373
(dp374
S'objective'
p375
I1
sS'query_time'
p376
F0.02672100067138672
sS'comp_time'
p377
F0.0021529197692871094
sS'exec_cq'
p378
I2
sS'total_cq'
p379
I2
sasS'total_cqs'
p380
I2
ssI35
(dp381
S'iters'
p382
I7
sS'meta'
p383
(lp384
(dp385
S'objective'
p386
I1427
sS'query_time'
p387
F70.33102202415466
sS'comp_time'
p388
F2.3166139125823975
sS'exec_cq'
p389
I70
sS'total_cq'
p390
I70
sa(dp391
g386
I55
sg387
F0.004353046417236328
sg388
F0.01590418815612793
sg389
I16
sg390
I16
sa(dp392
g386
I10
sg387
F0.002371072769165039
sg388
F0.010181188583374023
sg389
I10
sg390
I10
sa(dp393
g386
I1
sg387
F0.0009660720825195312
sg388
F0.0022711753845214844
sg389
I7
sg390
I7
sa(dp394
g386
I16
sg387
F0.0005679130554199219
sg388
F0.000990152359008789
sg389
I4
sg390
I4
sa(dp395
g386
I10
sg387
F0.0002570152282714844
sg388
F0.0005729198455810547
sg389
I3
sg390
I3
sa(dp396
g386
I8
sg387
F0.0002510547637939453
sg388
F0.0004851818084716797
sg389
I2
sg390
I2
sasS'total_cqs'
p397
I70
ssI36
(dp398
S'iters'
p399
I5
sS'meta'
p400
(lp401
(dp402
S'objective'
p403
I407
sS'query_time'
p404
F0.8427319526672363
sS'comp_time'
p405
F0.07838892936706543
sS'exec_cq'
p406
I33
sS'total_cq'
p407
I33
sa(dp408
g403
I352
sg404
F0.008144855499267578
sg405
F0.015836000442504883
sg406
I29
sg407
I29
sa(dp409
g403
I368
sg404
F0.0025780200958251953
sg405
F0.003826141357421875
sg406
I25
sg407
I25
sa(dp410
g403
I375
sg404
F0.0013761520385742188
sg405
F0.001789093017578125
sg406
I24
sg407
I24
sa(dp411
g403
I382
sg404
F0.0001277923583984375
sg405
F0.0002598762512207031
sg406
I23
sg407
I23
sasS'total_cqs'
p412
I33
ssI37
(dp413
S'iters'
p414
I1
sS'meta'
p415
(lp416
(dp417
S'objective'
p418
I1
sS'query_time'
p419
F0.009036064147949219
sS'comp_time'
p420
F0.0018413066864013672
sS'exec_cq'
p421
I2
sS'total_cq'
p422
I2
sasS'total_cqs'
p423
I2
ssI38
(dp424
S'iters'
p425
I2
sS'meta'
p426
(lp427
(dp428
S'objective'
p429
I0
sS'query_time'
p430
F0.026111841201782227
sS'comp_time'
p431
F0.002638578414916992
sS'exec_cq'
p432
I4
sS'total_cq'
p433
I4
sa(dp434
g429
I3
sg430
F9.107589721679688e-05
sg431
F0.00028395652770996094
sg432
I2
sg433
I2
sasS'total_cqs'
p435
I4
ssI39
(dp436
S'iters'
p437
I2
sS'meta'
p438
(lp439
(dp440
S'objective'
p441
I698
sS'query_time'
p442
F0.1484370231628418
sS'comp_time'
p443
F0.09064817428588867
sS'exec_cq'
p444
I44
sS'total_cq'
p445
I44
sa(dp446
g441
I842
sg442
F0.00030303001403808594
sg443
F0.0009136199951171875
sg444
I37
sg445
I37
sasS'total_cqs'
p447
I44
ssI40
(dp448
S'iters'
p449
I1
sS'meta'
p450
(lp451
(dp452
S'objective'
p453
I26
sS'query_time'
p454
F0.03626608848571777
sS'comp_time'
p455
F0.006224155426025391
sS'exec_cq'
p456
I7
sS'total_cq'
p457
I7
sasS'total_cqs'
p458
I7
ssI41
(dp459
S'iters'
p460
I2
sS'meta'
p461
(lp462
(dp463
S'objective'
p464
I54
sS'query_time'
p465
F0.06995797157287598
sS'comp_time'
p466
F0.01781010627746582
sS'exec_cq'
p467
I12
sS'total_cq'
p468
I12
sa(dp469
g464
I64
sg465
F5.817413330078125e-05
sg466
F9.512901306152344e-05
sg467
I11
sg468
I11
sasS'total_cqs'
p470
I12
ssI42
(dp471
S'iters'
p472
I4
sS'meta'
p473
(lp474
(dp475
S'objective'
p476
I827
sS'query_time'
p477
F0.1098630428314209
sS'comp_time'
p478
F0.16375064849853516
sS'exec_cq'
p479
I41
sS'total_cq'
p480
I41
sa(dp481
g476
I818
sg477
F0.0001957416534423828
sg478
F0.0002715587615966797
sg479
I40
sg480
I40
sa(dp482
g476
I811
sg477
F0.00015592575073242188
sg478
F0.00016498565673828125
sg479
I39
sg480
I39
sa(dp483
g476
I819
sg477
F0.00014781951904296875
sg478
F0.00013136863708496094
sg479
I38
sg480
I38
sasS'total_cqs'
p484
I41
ssI43
(dp485
S'iters'
p486
I1
sS'meta'
p487
(lp488
(dp489
S'objective'
p490
I26
sS'query_time'
p491
F0.03755497932434082
sS'comp_time'
p492
F0.005912303924560547
sS'exec_cq'
p493
I7
sS'total_cq'
p494
I7
sasS'total_cqs'
p495
I7
ssI44
(dp496
S'iters'
p497
I4
sS'meta'
p498
(lp499
(dp500
S'objective'
p501
I802
sS'query_time'
p502
F0.18151092529296875
sS'comp_time'
p503
F0.17856597900390625
sS'exec_cq'
p504
I47
sS'total_cq'
p505
I47
sa(dp506
g501
I873
sg502
F0.00032711029052734375
sg503
F0.001199960708618164
sg504
I40
sg505
I40
sa(dp507
g501
I36
sg502
F0.0012888908386230469
sg503
F0.0014808177947998047
sg504
I3
sg505
I3
sa(dp508
g501
I3
sg502
F2.5033950805664062e-05
sg503
F0.00010466575622558594
sg504
I2
sg505
I2
sasS'total_cqs'
p509
I47
ssI46
(dp510
S'iters'
p511
I3
sS'meta'
p512
(lp513
(dp514
S'objective'
p515
I9
sS'query_time'
p516
F0.023799657821655273
sS'comp_time'
p517
F0.0027179718017578125
sS'exec_cq'
p518
I6
sS'total_cq'
p519
I6
sa(dp520
g515
I11
sg516
F5.5789947509765625e-05
sg517
F0.00014591217041015625
sg518
I5
sg519
I5
sa(dp521
g515
I11
sg516
F2.5987625122070312e-05
sg517
F5.8650970458984375e-05
sg518
I4
sg519
I4
sasS'total_cqs'
p522
I6
ssI47
(dp523
S'iters'
p524
I1
sS'meta'
p525
(lp526
(dp527
S'objective'
p528
I1
sS'query_time'
p529
F0.012489080429077148
sS'comp_time'
p530
F0.0011131763458251953
sS'exec_cq'
p531
I2
sS'total_cq'
p532
I2
sasS'total_cqs'
p533
I2
ssI50
(dp534
S'iters'
p535
I4
sS'meta'
p536
(lp537
(dp538
S'objective'
p539
I5
sS'query_time'
p540
F0.020687103271484375
sS'comp_time'
p541
F0.0023670196533203125
sS'exec_cq'
p542
I5
sS'total_cq'
p543
I5
sa(dp544
g539
I2
sg540
F3.600120544433594e-05
sg541
F0.00014519691467285156
sg542
I4
sg543
I4
sa(dp545
g539
I0
sg540
F2.09808349609375e-05
sg541
F9.870529174804688e-05
sg542
I3
sg543
I3
sa(dp546
g539
I1
sg540
F1.71661376953125e-05
sg541
F8.225440979003906e-05
sg542
I2
sg543
I2
sasS'total_cqs'
p547
I5
ssI51
(dp548
S'iters'
p549
I1
sS'meta'
p550
(lp551
(dp552
S'objective'
p553
I1
sS'query_time'
p554
F0.008466005325317383
sS'comp_time'
p555
F0.0010972023010253906
sS'exec_cq'
p556
I2
sS'total_cq'
p557
I2
sasS'total_cqs'
p558
I2
ssI52
(dp559
S'iters'
p560
I1
sS'meta'
p561
(lp562
(dp563
S'objective'
p564
I1
sS'query_time'
p565
F0.009690999984741211
sS'comp_time'
p566
F0.0013849735260009766
sS'exec_cq'
p567
I2
sS'total_cq'
p568
I2
sasS'total_cqs'
p569
I2
ssI53
(dp570
S'iters'
p571
I3
sS'meta'
p572
(lp573
(dp574
S'objective'
p575
I2
sS'query_time'
p576
F0.019297122955322266
sS'comp_time'
p577
F0.002692699432373047
sS'exec_cq'
p578
I4
sS'total_cq'
p579
I4
sa(dp580
g575
I0
sg576
F9.799003601074219e-05
sg577
F0.0003597736358642578
sg578
I3
sg579
I3
sa(dp581
g575
I1
sg576
F9.202957153320312e-05
sg577
F0.00020003318786621094
sg578
I2
sg579
I2
sasS'total_cqs'
p582
I4
ssI54
(dp583
S'iters'
p584
I2
sS'meta'
p585
(lp586
(dp587
S'objective'
p588
I0
sS'query_time'
p589
F0.0197751522064209
sS'comp_time'
p590
F0.002931356430053711
sS'exec_cq'
p591
I3
sS'total_cq'
p592
I3
sa(dp593
g588
I1
sg589
F5.793571472167969e-05
sg590
F0.0001571178436279297
sg591
I2
sg592
I2
sasS'total_cqs'
p594
I3
ssI55
(dp595
S'iters'
p596
I9
sS'meta'
p597
(lp598
(dp599
S'objective'
p600
I4475
sS'query_time'
p601
F2.4644248485565186
sS'comp_time'
p602
F0.7455339431762695
sS'exec_cq'
p603
I109
sS'total_cq'
p604
I109
sa(dp605
g600
I4705
sg601
F0.0009200572967529297
sg602
F0.004209041595458984
sg603
I97
sg604
I97
sa(dp606
g600
I4640
sg601
F0.0004489421844482422
sg602
F0.0015680789947509766
sg603
I91
sg604
I91
sa(dp607
g600
I4511
sg601
F0.0003960132598876953
sg602
F0.0012369155883789062
sg603
I87
sg604
I87
sa(dp608
g600
I4450
sg601
F0.00037097930908203125
sg602
F0.0009105205535888672
sg603
I85
sg604
I85
sa(dp609
g600
I4400
sg601
F0.0004031658172607422
sg602
F0.0007672309875488281
sg603
I84
sg604
I84
sa(dp610
g600
I4329
sg601
F0.0003609657287597656
sg602
F0.0007202625274658203
sg603
I83
sg604
I83
sa(dp611
g600
I4335
sg601
F0.0003418922424316406
sg602
F0.0007035732269287109
sg603
I81
sg604
I81
sa(dp612
g600
I4367
sg601
F0.0003108978271484375
sg602
F0.0004668235778808594
sg603
I79
sg604
I79
sasS'total_cqs'
p613
I109
ssI56
(dp614
S'iters'
p615
I6
sS'meta'
p616
(lp617
(dp618
S'objective'
p619
I1768
sS'query_time'
p620
F1.5812170505523682
sS'comp_time'
p621
F0.3653273582458496
sS'exec_cq'
p622
I67
sS'total_cq'
p623
I76
sa(dp624
g619
I39
sg620
F0.009119033813476562
sg621
F0.1043093204498291
sg622
I16
sg623
I16
sa(dp625
g619
I21
sg620
F0.0038590431213378906
sg621
F0.011533498764038086
sg622
I9
sg623
I9
sa(dp626
g619
I21
sg620
F0.0005409717559814453
sg621
F0.00168609619140625
sg622
I5
sg623
I5
sa(dp627
g619
I8
sg620
F0.0002949237823486328
sg621
F0.0008168220520019531
sg622
I3
sg623
I3
sa(dp628
g619
I30
sg620
F0.00015306472778320312
sg621
F0.0003719329833984375
sg622
I2
sg623
I2
sasS'total_cqs'
p629
I76
ssI57
(dp630
S'iters'
p631
I7
sS'meta'
p632
(lp633
(dp634
S'objective'
p635
I84
sS'query_time'
p636
F23.599550008773804
sS'comp_time'
p637
F0.3114302158355713
sS'exec_cq'
p638
I45
sS'total_cq'
p639
I51
sa(dp640
g635
I15
sg636
F0.016793012619018555
sg637
F0.018812894821166992
sg638
I27
sg639
I27
sa(dp641
g635
I2
sg636
F0.0027780532836914062
sg637
F0.009491443634033203
sg638
I12
sg639
I12
sa(dp642
g635
I2
sg636
F0.0011830329895019531
sg637
F0.003587961196899414
sg638
I6
sg639
I6
sa(dp643
g635
I24
sg636
F0.0010499954223632812
sg637
F0.0013017654418945312
sg638
I4
sg639
I4
sa(dp644
g635
I11
sg636
F0.00049591064453125
sg637
F0.0011649131774902344
sg638
I3
sg639
I3
sa(dp645
g635
I6
sg636
F0.0004448890686035156
sg637
F0.0006251335144042969
sg638
I2
sg639
I2
sasS'total_cqs'
p646
I51
ssI58
(dp647
S'iters'
p648
I7
sS'meta'
p649
(lp650
(dp651
S'objective'
p652
I82951
sS'query_time'
p653
F325.061105966568
sS'comp_time'
p654
F24.828811168670654
sS'exec_cq'
p655
I486
sS'total_cq'
p656
I486
sa(dp657
g652
I89290
sg653
F5.598022699356079
sg654
F9.387901067733765
sg655
I414
sg656
I414
sa(dp658
g652
I272
sg653
F0.01588582992553711
sg654
F0.41658687591552734
sg655
I28
sg656
I28
sa(dp659
g652
I11
sg653
F0.008152008056640625
sg654
F0.2044367790222168
sg655
I12
sg656
I12
sa(dp660
g652
I27
sg653
F0.0009629726409912109
sg654
F0.0016179084777832031
sg655
I5
sg656
I5
sa(dp661
g652
I273
sg653
F0.00034809112548828125
sg654
F0.0007660388946533203
sg655
I3
sg656
I3
sa(dp662
g652
I194
sg653
F0.0002079010009765625
sg654
F0.0003418922424316406
sg655
I2
sg656
I2
sasS'total_cqs'
p663
I486
ssI59
(dp664
S'iters'
p665
I2
sS'meta'
p666
(lp667
(dp668
S'objective'
p669
I16
sS'query_time'
p670
F0.0708160400390625
sS'comp_time'
p671
F0.0067903995513916016
sS'exec_cq'
p672
I7
sS'total_cq'
p673
I7
sa(dp674
g669
I4
sg670
F0.00017905235290527344
sg671
F0.0003809928894042969
sg672
I2
sg673
I2
sasS'total_cqs'
p675
I7
ssI60
(dp676
S'iters'
p677
I4
sS'meta'
p678
(lp679
(dp680
S'objective'
p681
I7
sS'query_time'
p682
F0.017777204513549805
sS'comp_time'
p683
F0.0030629634857177734
sS'exec_cq'
p684
I5
sS'total_cq'
p685
I5
sa(dp686
g681
I5
sg682
F0.0001270771026611328
sg683
F0.0003650188446044922
sg684
I4
sg685
I4
sa(dp687
g681
I4
sg682
F2.8848648071289062e-05
sg683
F4.029273986816406e-05
sg684
I2
sg685
I3
sa(dp688
g681
I4
sg682
F1.5020370483398438e-05
sg683
F2.8848648071289062e-05
sg684
I1
sg685
I2
sasS'total_cqs'
p689
I5
ssI62
(dp690
S'iters'
p691
I3
sS'meta'
p692
(lp693
(dp694
S'objective'
p695
I28
sS'query_time'
p696
F0.038722991943359375
sS'comp_time'
p697
F0.016696453094482422
sS'exec_cq'
p698
I12
sS'total_cq'
p699
I12
sa(dp700
g695
I41
sg696
F5.0067901611328125e-05
sg697
F0.00015997886657714844
sg698
I9
sg699
I9
sa(dp701
g695
I45
sg696
F3.409385681152344e-05
sg697
F7.200241088867188e-05
sg698
I8
sg699
I8
sasS'total_cqs'
p702
I12
ssI64
(dp703
S'iters'
p704
I4
sS'meta'
p705
(lp706
(dp707
S'objective'
p708
I10
sS'query_time'
p709
F0.12349200248718262
sS'comp_time'
p710
F0.01871204376220703
sS'exec_cq'
p711
I12
sS'total_cq'
p712
I12
sa(dp713
g708
I10
sg709
F0.0001010894775390625
sg710
F0.0006361007690429688
sg711
I4
sg712
I4
sa(dp714
g708
I0
sg709
F4.792213439941406e-05
sg710
F0.00019788742065429688
sg711
I3
sg712
I3
sa(dp715
g708
I9
sg709
F4.482269287109375e-05
sg710
F0.0001289844512939453
sg711
I2
sg712
I2
sasS'total_cqs'
p716
I12
ssI65
(dp717
S'iters'
p718
I5
sS'meta'
p719
(lp720
(dp721
S'objective'
p722
I238
sS'query_time'
p723
F0.9360570907592773
sS'comp_time'
p724
F0.12224531173706055
sS'exec_cq'
p725
I27
sS'total_cq'
p726
I27
sa(dp727
g722
I6
sg723
F0.0017359256744384766
sg724
F0.0025179386138916016
sg725
I7
sg726
I7
sa(dp728
g722
I0
sg723
F0.0010859966278076172
sg724
F0.0020830631256103516
sg725
I5
sg726
I5
sa(dp729
g722
I0
sg723
F0.00041604042053222656
sg724
F0.0005822181701660156
sg725
I3
sg726
I3
sa(dp730
g722
I6
sg723
F0.00023889541625976562
sg724
F0.00044798851013183594
sg725
I2
sg726
I2
sasS'total_cqs'
p731
I27
ssI67
(dp732
S'iters'
p733
I2
sS'meta'
p734
(lp735
(dp736
S'objective'
p737
I612
sS'query_time'
p738
F0.9370598793029785
sS'comp_time'
p739
F0.21743226051330566
sS'exec_cq'
p740
I35
sS'total_cq'
p741
I35
sa(dp742
g737
I7
sg738
F0.0017139911651611328
sg739
F0.0032579898834228516
sg740
I2
sg741
I2
sasS'total_cqs'
p743
I35
ssI69
(dp744
S'iters'
p745
I1
sS'meta'
p746
(lp747
(dp748
S'objective'
p749
I1324
sS'query_time'
p750
F0.16937685012817383
sS'comp_time'
p751
F0.09919190406799316
sS'exec_cq'
p752
I51
sS'total_cq'
p753
I51
sasS'total_cqs'
p754
I51
ssI70
(dp755
S'iters'
p756
I4
sS'meta'
p757
(lp758
(dp759
S'objective'
p760
I13
sS'query_time'
p761
F0.02259206771850586
sS'comp_time'
p762
F0.002508878707885742
sS'exec_cq'
p763
I6
sS'total_cq'
p764
I6
sa(dp765
g760
I11
sg761
F5.1021575927734375e-05
sg762
F0.0001609325408935547
sg763
I5
sg764
I5
sa(dp766
g760
I10
sg761
F4.1961669921875e-05
sg762
F0.00012087821960449219
sg763
I4
sg764
I4
sa(dp767
g760
I10
sg761
F3.695487976074219e-05
sg762
F9.679794311523438e-05
sg763
I3
sg764
I3
sasS'total_cqs'
p768
I6
ssI71
(dp769
S'iters'
p770
I8
sS'meta'
p771
(lp772
(dp773
S'objective'
p774
I3343
sS'query_time'
p775
F0.3245849609375
sS'comp_time'
p776
F0.2793738842010498
sS'exec_cq'
p777
I85
sS'total_cq'
p778
I85
sa(dp779
g774
I3241
sg775
F0.0004019737243652344
sg776
F0.0014157295227050781
sg777
I81
sg778
I81
sa(dp780
g774
I3136
sg775
F0.0002720355987548828
sg776
F0.001195669174194336
sg777
I78
sg778
I78
sa(dp781
g774
I3025
sg775
F0.0002949237823486328
sg776
F0.00096893310546875
sg777
I75
sg778
I75
sa(dp782
g774
I3013
sg775
F0.00024700164794921875
sg776
F0.0007543563842773438
sg777
I73
sg778
I73
sa(dp783
g774
I2980
sg775
F0.00021886825561523438
sg776
F0.0007929801940917969
sg777
I69
sg778
I69
sa(dp784
g774
I4
sg775
F0.001992940902709961
sg776
F0.002901792526245117
sg777
I3
sg778
I3
sa(dp785
g774
I24
sg775
F0.003072023391723633
sg776
F0.0001239776611328125
sg777
I2
sg778
I2
sasS'total_cqs'
p786
I85
ssI72
(dp787
S'iters'
p788
I4
sS'meta'
p789
(lp790
(dp791
S'objective'
p792
I6
sS'query_time'
p793
F0.300961971282959
sS'comp_time'
p794
F0.003648996353149414
sS'exec_cq'
p795
I8
sS'total_cq'
p796
I8
sa(dp797
g792
I1
sg793
F0.00032520294189453125
sg794
F0.0010802745819091797
sg795
I4
sg796
I6
sa(dp798
g792
I0
sg793
F1.6927719116210938e-05
sg794
F3.2901763916015625e-05
sg795
I2
sg796
I4
sa(dp799
g792
I3
sg793
F2.8848648071289062e-05
sg794
F0.00010800361633300781
sg795
I2
sg796
I2
sasS'total_cqs'
p800
I8
ssI75
(dp801
S'iters'
p802
I4
sS'meta'
p803
(lp804
(dp805
S'objective'
p806
I5
sS'query_time'
p807
F0.014745950698852539
sS'comp_time'
p808
F0.0015680789947509766
sS'exec_cq'
p809
I5
sS'total_cq'
p810
I5
sa(dp811
g806
I2
sg807
F2.47955322265625e-05
sg808
F0.0001087188720703125
sg809
I4
sg810
I4
sa(dp812
g806
I0
sg807
F1.5020370483398438e-05
sg808
F7.581710815429688e-05
sg809
I3
sg810
I3
sa(dp813
g806
I1
sg807
F1.3113021850585938e-05
sg808
F8.797645568847656e-05
sg809
I2
sg810
I2
sasS'total_cqs'
p814
I5
ssI76
(dp815
S'iters'
p816
I1
sS'meta'
p817
(lp818
(dp819
S'objective'
p820
I1
sS'query_time'
p821
F0.012498855590820312
sS'comp_time'
p822
F0.0010509490966796875
sS'exec_cq'
p823
I2
sS'total_cq'
p824
I2
sasS'total_cqs'
p825
I2
ssI103
(dp826
S'iters'
p827
I2
sS'meta'
p828
(lp829
(dp830
S'objective'
p831
I60
sS'query_time'
p832
F0.055062055587768555
sS'comp_time'
p833
F0.015474319458007812
sS'exec_cq'
p834
I12
sS'total_cq'
p835
I12
sa(dp836
g831
I67
sg832
F7.200241088867188e-05
sg833
F0.00013017654418945312
sg834
I11
sg835
I11
sasS'total_cqs'
p837
I12
ssI104
(dp838
S'iters'
p839
I2
sS'meta'
p840
(lp841
(dp842
S'objective'
p843
I2
sS'query_time'
p844
F1.443221092224121
sS'comp_time'
p845
F0.22275900840759277
sS'exec_cq'
p846
I4
sS'total_cq'
p847
I4
sa(dp848
g843
I2
sg844
F0.012700796127319336
sg845
F0.02165508270263672
sg846
I2
sg847
I2
sasS'total_cqs'
p849
I4
ssI106
(dp850
S'iters'
p851
I1
sS'meta'
p852
(lp853
(dp854
S'objective'
p855
I8
sS'query_time'
p856
F0.020286083221435547
sS'comp_time'
p857
F0.0018510818481445312
sS'exec_cq'
p858
I4
sS'total_cq'
p859
I4
sasS'total_cqs'
p860
I4
ssI107
(dp861
S'iters'
p862
I2
sS'meta'
p863
(lp864
(dp865
S'objective'
p866
I98
sS'query_time'
p867
F0.07440996170043945
sS'comp_time'
p868
F0.019369840621948242
sS'exec_cq'
p869
I16
sS'total_cq'
p870
I16
sa(dp871
g866
I17
sg867
F0.005142927169799805
sg868
F0.0002751350402832031
sg869
I3
sg870
I3
sasS'total_cqs'
p872
I16
ss.