(dp0
I1
(dp1
S'iters'
p2
I4
sS'meta'
p3
(lp4
(dp5
S'objective'
p6
I58
sS'query_time'
p7
F0.016646146774291992
sS'comp_time'
p8
F8.0108642578125e-05
sS'exec_cq'
p9
I3
sS'total_cq'
p10
I12
sa(dp11
g6
I50
sg7
F0.009891986846923828
sg8
F6.604194641113281e-05
sg9
I3
sg10
I11
sa(dp12
g6
I43
sg7
F0.007143974304199219
sg8
F6.008148193359375e-05
sg9
I3
sg10
I10
sa(dp13
g6
I37
sg7
F0.006313800811767578
sg8
F6.008148193359375e-05
sg9
I3
sg10
I9
sasS'total_cqs'
p14
I12
ssI2
(dp15
S'iters'
p16
I7
sS'meta'
p17
(lp18
(dp19
S'objective'
p20
I322
sS'query_time'
p21
F0.025711774826049805
sS'comp_time'
p22
F0.00010395050048828125
sS'exec_cq'
p23
I2
sS'total_cq'
p24
I27
sa(dp25
g20
I280
sg21
F0.016302108764648438
sg22
F9.369850158691406e-05
sg23
I3
sg24
I25
sa(dp26
g20
I253
sg21
F0.02113795280456543
sg22
F0.00010085105895996094
sg23
I3
sg24
I23
sa(dp27
g20
I240
sg21
F0.018632888793945312
sg22
F9.012222290039062e-05
sg23
I3
sg24
I21
sa(dp28
g20
I222
sg21
F0.021192073822021484
sg22
F8.487701416015625e-05
sg23
I4
sg24
I20
sa(dp29
g20
I206
sg21
F0.011048078536987305
sg22
F7.510185241699219e-05
sg23
I5
sg24
I19
sa(dp30
g20
I194
sg21
F0.009947061538696289
sg22
F8.988380432128906e-05
sg23
I7
sg24
I18
sasS'total_cqs'
p31
I27
ssI3
(dp32
S'iters'
p33
I5
sS'meta'
p34
(lp35
(dp36
S'objective'
p37
I294
sS'query_time'
p38
F26.43650197982788
sS'comp_time'
p39
F0.00014710426330566406
sS'exec_cq'
p40
I2
sS'total_cq'
p41
I43
sa(dp42
g37
I412
sg38
F8.994150876998901
sg39
F0.00021576881408691406
sg40
I1
sg41
I29
sa(dp43
g37
I350
sg38
F44.865520000457764
sg39
F0.0001342296600341797
sg40
I4
sg41
I26
sa(dp44
g37
I373
sg38
F4.089875936508179
sg39
F0.0002410411834716797
sg40
I4
sg41
I22
sa(dp45
g37
I357
sg38
F0.016386032104492188
sg39
F8.511543273925781e-05
sg40
I4
sg41
I20
sasS'total_cqs'
p46
I43
ssI4
(dp47
S'iters'
p48
I1
sS'meta'
p49
(lp50
(dp51
S'objective'
p52
I52
sS'query_time'
p53
F3.441370964050293
sS'comp_time'
p54
F0.00019598007202148438
sS'exec_cq'
p55
I5
sS'total_cq'
p56
I11
sasS'total_cqs'
p57
I11
ssI5
(dp58
S'iters'
p59
I3
sS'meta'
p60
(lp61
(dp62
S'objective'
p63
I4
sS'query_time'
p64
F0.5138430595397949
sS'comp_time'
p65
F7.009506225585938e-05
sS'exec_cq'
p66
I1
sS'total_cq'
p67
I8
sa(dp68
g63
I4
sg64
F0.7884061336517334
sg65
F8.0108642578125e-05
sg66
I1
sg67
I4
sa(dp69
g63
I4
sg64
F0.3392188549041748
sg65
F7.510185241699219e-05
sg66
I1
sg67
I2
sasS'total_cqs'
p70
I8
ssI6
(dp71
S'iters'
p72
I6
sS'meta'
p73
(lp74
(dp75
S'objective'
p76
I91
sS'query_time'
p77
F1.0200049877166748
sS'comp_time'
p78
F0.00011396408081054688
sS'exec_cq'
p79
I1
sS'total_cq'
p80
I18
sa(dp81
g76
I99
sg77
F0.07744693756103516
sg78
F0.0001068115234375
sg79
I2
sg80
I14
sa(dp82
g76
I85
sg77
F0.054840087890625
sg78
F8.320808410644531e-05
sg79
I2
sg80
I13
sa(dp83
g76
I74
sg77
F6.884527921676636
sg78
F0.00011682510375976562
sg79
I3
sg80
I12
sa(dp84
g76
I65
sg77
F0.8007009029388428
sg78
F7.104873657226562e-05
sg79
I4
sg80
I11
sa(dp85
g76
I56
sg77
F0.395205020904541
sg78
F7.700920104980469e-05
sg79
I4
sg80
I10
sasS'total_cqs'
p86
I18
ssI7
(dp87
S'iters'
p88
I4
sS'meta'
p89
(lp90
(dp91
S'objective'
p92
I11
sS'query_time'
p93
F0.1701200008392334
sS'comp_time'
p94
F7.62939453125e-05
sS'exec_cq'
p95
I1
sS'total_cq'
p96
I9
sa(dp97
g92
I4
sg93
F1.5452229976654053
sg94
F8.487701416015625e-05
sg95
I1
sg96
I6
sa(dp98
g92
I2
sg93
F3.6373250484466553
sg94
F0.00011396408081054688
sg95
I1
sg96
I4
sa(dp99
g92
I3
sg93
F0.16988492012023926
sg94
F6.389617919921875e-05
sg95
I1
sg96
I3
sasS'total_cqs'
p100
I9
ssI8
(dp101
S'iters'
p102
I4
sS'meta'
p103
(lp104
(dp105
S'objective'
p106
I326
sS'query_time'
p107
F0.03257894515991211
sS'comp_time'
p108
F8.869171142578125e-05
sS'exec_cq'
p109
I2
sS'total_cq'
p110
I27
sa(dp111
g106
I304
sg107
F0.023289918899536133
sg108
F9.012222290039062e-05
sg109
I3
sg110
I26
sa(dp112
g106
I228
sg107
F0.023286819458007812
sg108
F9.202957153320312e-05
sg109
I5
sg110
I25
sa(dp113
g106
I248
sg107
F0.013836860656738281
sg108
F8.130073547363281e-05
sg109
I9
sg110
I22
sasS'total_cqs'
p114
I27
ssI9
(dp115
S'iters'
p116
I3
sS'meta'
p117
(lp118
(dp119
S'objective'
p120
I2
sS'query_time'
p121
F0.025915145874023438
sS'comp_time'
p122
F8.797645568847656e-05
sS'exec_cq'
p123
I2
sS'total_cq'
p124
I7
sa(dp125
g120
I1
sg121
F0.00551605224609375
sg122
F6.508827209472656e-05
sg123
I2
sg124
I4
sa(dp126
g120
I3
sg121
F0.005321979522705078
sg122
F5.698204040527344e-05
sg123
I2
sg124
I2
sasS'total_cqs'
p127
I7
ssI10
(dp128
S'iters'
p129
I4
sS'meta'
p130
(lp131
(dp132
S'objective'
p133
I740
sS'query_time'
p134
F0.05015993118286133
sS'comp_time'
p135
F0.000141143798828125
sS'exec_cq'
p136
I2
sS'total_cq'
p137
I51
sa(dp138
g133
I181
sg134
F0.01638197898864746
sg135
F9.393692016601562e-05
sg136
I1
sg137
I12
sa(dp139
g133
I6
sg134
F0.009150981903076172
sg135
F7.891654968261719e-05
sg136
I2
sg137
I3
sa(dp140
g133
I23
sg134
F0.001470804214477539
sg135
F5.4836273193359375e-05
sg136
I2
sg137
I2
sasS'total_cqs'
p141
I51
ssI11
(dp142
S'iters'
p143
I3
sS'meta'
p144
(lp145
(dp146
S'objective'
p147
I1348
sS'query_time'
p148
F0.10741806030273438
sS'comp_time'
p149
F0.00014901161193847656
sS'exec_cq'
p150
I2
sS'total_cq'
p151
I63
sa(dp152
g147
I32
sg148
F0.008291959762573242
sg149
F7.82012939453125e-05
sg150
I1
sg151
I9
sa(dp153
g147
I85
sg148
F0.01503896713256836
sg149
F8.726119995117188e-05
sg150
I1
sg151
I5
sasS'total_cqs'
p154
I63
ssI12
(dp155
S'iters'
p156
I11
sS'meta'
p157
(lp158
(dp159
S'objective'
p160
I1133
sS'query_time'
p161
F0.07110190391540527
sS'comp_time'
p162
F0.0001220703125
sS'exec_cq'
p163
I1
sS'total_cq'
p164
I50
sa(dp165
g160
I308
sg161
F0.03957486152648926
sg162
F0.00012183189392089844
sg163
I1
sg164
I47
sa(dp166
g160
I552
sg161
F0.06678485870361328
sg162
F0.00012183189392089844
sg163
I1
sg164
I32
sa(dp167
g160
I552
sg161
F0.016676902770996094
sg162
F0.00010180473327636719
sg163
I1
sg164
I29
sa(dp168
g160
I425
sg161
F0.04263496398925781
sg162
F0.00010323524475097656
sg163
I3
sg164
I27
sa(dp169
g160
I438
sg161
F0.011036157608032227
sg162
F9.799003601074219e-05
sg163
I3
sg164
I23
sa(dp170
g160
I402
sg161
F0.027675867080688477
sg162
F0.00011396408081054688
sg163
I3
sg164
I22
sa(dp171
g160
I367
sg161
F0.02608203887939453
sg162
F0.000102996826171875
sg163
I3
sg164
I21
sa(dp172
g160
I327
sg161
F0.023792028427124023
sg162
F9.894371032714844e-05
sg163
I5
sg164
I20
sa(dp173
g160
I253
sg161
F0.026445865631103516
sg162
F9.870529174804688e-05
sg163
I7
sg164
I18
sa(dp174
g160
I4
sg161
F0.010304927825927734
sg162
F7.009506225585938e-05
sg163
I2
sg164
I3
sasS'total_cqs'
p175
I50
ssI13
(dp176
S'iters'
p177
I5
sS'meta'
p178
(lp179
(dp180
S'objective'
p181
I110
sS'query_time'
p182
F0.06192898750305176
sS'comp_time'
p183
F0.00010013580322265625
sS'exec_cq'
p184
I1
sS'total_cq'
p185
I20
sa(dp186
g181
I128
sg182
F0.046315908432006836
sg183
F9.918212890625e-05
sg184
I3
sg185
I16
sa(dp187
g181
I76
sg182
F0.023676156997680664
sg183
F0.00010514259338378906
sg184
I5
sg185
I15
sa(dp188
g181
I76
sg182
F0.011087179183959961
sg183
F9.608268737792969e-05
sg184
I6
sg185
I9
sa(dp189
g181
I5
sg182
F0.007354021072387695
sg183
F6.985664367675781e-05
sg184
I2
sg185
I2
sasS'total_cqs'
p190
I20
ssI14
(dp191
S'iters'
p192
I4
sS'meta'
p193
(lp194
(dp195
S'objective'
p196
I25
sS'query_time'
p197
F6.630672931671143
sS'comp_time'
p198
F0.00011920928955078125
sS'exec_cq'
p199
I1
sS'total_cq'
p200
I9
sa(dp201
g196
I3
sg197
F0.5132739543914795
sg198
F8.702278137207031e-05
sg199
I1
sg200
I7
sa(dp202
g196
I5
sg197
F0.2848958969116211
sg198
F7.104873657226562e-05
sg199
I1
sg200
I4
sa(dp203
g196
I0
sg197
F0.2711019515991211
sg198
F0.00015807151794433594
sg199
I1
sg200
I3
sasS'total_cqs'
p204
I9
ssI15
(dp205
S'iters'
p206
I4
sS'meta'
p207
(lp208
(dp209
S'objective'
p210
I44
sS'query_time'
p211
F0.031275033950805664
sS'comp_time'
p212
F7.677078247070312e-05
sS'exec_cq'
p213
I1
sS'total_cq'
p214
I11
sa(dp215
g210
I35
sg211
F0.05094099044799805
sg212
F7.796287536621094e-05
sg213
I1
sg214
I10
sa(dp216
g210
I27
sg211
F1.2833778858184814
sg212
F0.00011396408081054688
sg213
I1
sg214
I9
sa(dp217
g210
I22
sg211
F0.041522979736328125
sg212
F6.198883056640625e-05
sg213
I2
sg214
I8
sasS'total_cqs'
p218
I11
ssI16
(dp219
S'iters'
p220
I1
sS'meta'
p221
(lp222
(dp223
S'objective'
p224
I26
sS'query_time'
p225
F0.023928165435791016
sS'comp_time'
p226
F0.000102996826171875
sS'exec_cq'
p227
I4
sS'total_cq'
p228
I8
sasS'total_cqs'
p229
I8
ssI17
(dp230
S'iters'
p231
I4
sS'meta'
p232
(lp233
(dp234
S'objective'
p235
I44
sS'query_time'
p236
F0.029081106185913086
sS'comp_time'
p237
F8.416175842285156e-05
sS'exec_cq'
p238
I1
sS'total_cq'
p239
I11
sa(dp240
g235
I27
sg236
F0.033377885818481445
sg237
F8.511543273925781e-05
sg238
I2
sg239
I10
sa(dp241
g235
I5
sg236
F0.009747028350830078
sg237
F7.891654968261719e-05
sg238
I2
sg239
I8
sa(dp242
g235
I4
sg236
F0.00436711311340332
sg237
F7.700920104980469e-05
sg238
I1
sg239
I3
sasS'total_cqs'
p243
I11
ssI18
(dp244
S'iters'
p245
I3
sS'meta'
p246
(lp247
(dp248
S'objective'
p249
I44
sS'query_time'
p250
F0.020123004913330078
sS'comp_time'
p251
F7.700920104980469e-05
sS'exec_cq'
p252
I1
sS'total_cq'
p253
I11
sa(dp254
g249
I37
sg250
F0.03237009048461914
sg251
F8.106231689453125e-05
sg252
I3
sg253
I10
sa(dp255
g249
I32
sg250
F0.008635997772216797
sg251
F7.486343383789062e-05
sg252
I3
sg253
I8
sasS'total_cqs'
p256
I11
ssI19
(dp257
S'iters'
p258
I0
sS'meta'
p259
(lp260
sS'total_cqs'
p261
I1
ssI20
(dp262
S'iters'
p263
I0
sS'meta'
p264
(lp265
sS'total_cqs'
p266
I1
ssI21
(dp267
S'iters'
p268
I0
sS'meta'
p269
(lp270
sS'total_cqs'
p271
I1
ssI22
(dp272
S'iters'
p273
I1
sS'meta'
p274
(lp275
(dp276
S'objective'
p277
I151
sS'query_time'
p278
F0.021093130111694336
sS'comp_time'
p279
F7.271766662597656e-05
sS'exec_cq'
p280
I9
sS'total_cq'
p281
I18
sasS'total_cqs'
p282
I18
ssI23
(dp283
S'iters'
p284
I2
sS'meta'
p285
(lp286
(dp287
S'objective'
p288
I108
sS'query_time'
p289
F0.027872085571289062
sS'comp_time'
p290
F8.702278137207031e-05
sS'exec_cq'
p291
I7
sS'total_cq'
p292
I16
sa(dp293
g288
I104
sg289
F0.010467052459716797
sg290
F6.794929504394531e-05
sg291
I7
sg292
I14
sasS'total_cqs'
p294
I16
ssI24
(dp295
S'iters'
p296
I0
sS'meta'
p297
(lp298
sS'total_cqs'
p299
I1
ssI25
(dp300
S'iters'
p301
I0
sS'meta'
p302
(lp303
sS'total_cqs'
p304
I1
ssI26
(dp305
S'iters'
p306
I1
sS'meta'
p307
(lp308
(dp309
S'objective'
p310
I859
sS'query_time'
p311
F0.06356215476989746
sS'comp_time'
p312
F0.00010704994201660156
sS'exec_cq'
p313
I21
sS'total_cq'
p314
I42
sasS'total_cqs'
p315
I42
ssI27
(dp316
S'iters'
p317
I5
sS'meta'
p318
(lp319
(dp320
S'objective'
p321
I405
sS'query_time'
p322
F1.2132019996643066
sS'comp_time'
p323
F0.00010180473327636719
sS'exec_cq'
p324
I1
sS'total_cq'
p325
I30
sa(dp326
g321
I389
sg322
F1.7666809558868408
sg323
F0.00011992454528808594
sg324
I7
sg325
I29
sa(dp327
g321
I378
sg322
F0.9322400093078613
sg323
F0.00011181831359863281
sg324
I12
sg325
I28
sa(dp328
g321
I361
sg322
F3.0464138984680176
sg323
F0.0005409717559814453
sg324
I12
sg325
I27
sa(dp329
g321
I15
sg322
F1248.445678949356
sg323
F0.0005459785461425781
sg324
I2
sg325
I2
sasS'total_cqs'
p330
I30
ssI28
(dp331
S'iters'
p332
I0
sS'meta'
p333
(lp334
sS'total_cqs'
p335
I1
ssI29
(dp336
S'iters'
p337
I8
sS'meta'
p338
(lp339
(dp340
S'objective'
p341
I1095
sS'query_time'
p342
F41.17372512817383
sS'comp_time'
p343
F0.0002608299255371094
sS'exec_cq'
p344
I2
sS'total_cq'
p345
I49
sa(dp346
g341
I974
sg342
F0.8331301212310791
sg343
F0.00011992454528808594
sg344
I2
sg345
I47
sa(dp347
g341
I155
sg342
F0.5075311660766602
sg343
F0.00010132789611816406
sg344
I2
sg345
I43
sa(dp348
g341
I8
sg342
F0.07797503471374512
sg343
F8.702278137207031e-05
sg344
I1
sg345
I16
sa(dp349
g341
I98
sg342
F0.06228494644165039
sg343
F7.104873657226562e-05
sg344
I1
sg345
I9
sa(dp350
g341
I87
sg342
F0.07590794563293457
sg343
F7.390975952148438e-05
sg344
I1
sg345
I7
sa(dp351
g341
I52
sg342
F0.47423601150512695
sg343
F7.605552673339844e-05
sg344
I1
sg345
I6
sa(dp352
g341
I37
sg342
F0.07589221000671387
sg343
F6.604194641113281e-05
sg344
I1
sg345
I4
sasS'total_cqs'
p353
I49
ssI30
(dp354
S'iters'
p355
I1
sS'meta'
p356
(lp357
(dp358
S'objective'
p359
I1
sS'query_time'
p360
F0.6727099418640137
sS'comp_time'
p361
F7.009506225585938e-05
sS'exec_cq'
p362
I1
sS'total_cq'
p363
I2
sasS'total_cqs'
p364
I2
ssI31
(dp365
S'iters'
p366
I0
sS'meta'
p367
(lp368
sS'total_cqs'
p369
I1
ssI32
(dp370
S'iters'
p371
I1
sS'meta'
p372
(lp373
(dp374
S'objective'
p375
I1
sS'query_time'
p376
F0.00887608528137207
sS'comp_time'
p377
F7.915496826171875e-05
sS'exec_cq'
p378
I1
sS'total_cq'
p379
I2
sasS'total_cqs'
p380
I2
ssI33
(dp381
S'iters'
p382
I2
sS'meta'
p383
(lp384
(dp385
S'objective'
p386
I5002
sS'query_time'
p387
F1.0570118427276611
sS'comp_time'
p388
F0.0002300739288330078
sS'exec_cq'
p389
I2
sS'total_cq'
p390
I103
sa(dp391
g386
I71
sg387
F0.03287696838378906
sg388
F0.00010395050048828125
sg389
I1
sg390
I3
sasS'total_cqs'
p392
I103
ssI34
(dp393
S'iters'
p394
I1
sS'meta'
p395
(lp396
(dp397
S'objective'
p398
I1
sS'query_time'
p399
F0.012248039245605469
sS'comp_time'
p400
F7.891654968261719e-05
sS'exec_cq'
p401
I1
sS'total_cq'
p402
I2
sasS'total_cqs'
p403
I2
ssI35
(dp404
S'iters'
p405
I14
sS'meta'
p406
(lp407
(dp408
S'objective'
p409
I2287
sS'query_time'
p410
F14.624948024749756
sS'comp_time'
p411
F0.00014591217041015625
sS'exec_cq'
p412
I1
sS'total_cq'
p413
I70
sa(dp414
g409
I2186
sg410
F4.616128921508789
sg411
F0.00013709068298339844
sg412
I1
sg413
I68
sa(dp415
g409
I2140
sg410
F0.45086216926574707
sg411
F0.00011897087097167969
sg412
I4
sg413
I66
sa(dp416
g409
I2033
sg410
F0.8754820823669434
sg411
F0.00011992454528808594
sg412
I4
sg413
I64
sa(dp417
g409
I1723
sg410
F0.2847559452056885
sg411
F0.00015115737915039062
sg412
I4
sg413
I62
sa(dp418
g409
I1583
sg410
F0.2528419494628906
sg411
F0.00015401840209960938
sg412
I4
sg413
I58
sa(dp419
g409
I1583
sg410
F1.4333319664001465
sg411
F0.0001518726348876953
sg412
I4
sg413
I54
sa(dp420
g409
I880
sg410
F2.7069170475006104
sg411
F0.0003008842468261719
sg412
I4
sg413
I52
sa(dp421
g409
I198
sg410
F0.07291889190673828
sg411
F9.679794311523438e-05
sg412
I1
sg413
I11
sa(dp422
g409
I180
sg410
F0.8551931381225586
sg411
F8.893013000488281e-05
sg412
I1
sg413
I9
sa(dp423
g409
I134
sg410
F0.30846214294433594
sg411
F8.392333984375e-05
sg412
I1
sg413
I8
sa(dp424
g409
I88
sg410
F2.982118844985962
sg411
F0.00011610984802246094
sg412
I1
sg413
I7
sa(dp425
g409
I37
sg410
F0.1780719757080078
sg411
F0.00010013580322265625
sg412
I1
sg413
I6
sa(dp426
g409
I22
sg410
F0.058995962142944336
sg411
F8.106231689453125e-05
sg412
I1
sg413
I2
sasS'total_cqs'
p427
I70
ssI36
(dp428
S'iters'
p429
I4
sS'meta'
p430
(lp431
(dp432
S'objective'
p433
I501
sS'query_time'
p434
F0.04308199882507324
sS'comp_time'
p435
F0.00011110305786132812
sS'exec_cq'
p436
I4
sS'total_cq'
p437
I33
sa(dp438
g433
I487
sg434
F0.11050009727478027
sg435
F9.679794311523438e-05
sg436
I11
sg437
I32
sa(dp439
g433
I469
sg434
F0.04438900947570801
sg435
F0.00010395050048828125
sg436
I12
sg437
I31
sa(dp440
g433
I453
sg434
F0.04919314384460449
sg435
F0.00010180473327636719
sg436
I13
sg437
I30
sasS'total_cqs'
p441
I33
ssI37
(dp442
S'iters'
p443
I1
sS'meta'
p444
(lp445
(dp446
S'objective'
p447
I1
sS'query_time'
p448
F0.006461143493652344
sS'comp_time'
p449
F5.364418029785156e-05
sS'exec_cq'
p450
I1
sS'total_cq'
p451
I2
sasS'total_cqs'
p452
I2
ssI38
(dp453
S'iters'
p454
I2
sS'meta'
p455
(lp456
(dp457
S'objective'
p458
I4
sS'query_time'
p459
F0.010978937149047852
sS'comp_time'
p460
F6.389617919921875e-05
sS'exec_cq'
p461
I1
sS'total_cq'
p462
I4
sa(dp463
g458
I1
sg459
F0.002260923385620117
sg460
F5.626678466796875e-05
sg461
I1
sg462
I2
sasS'total_cqs'
p464
I4
ssI39
(dp465
S'iters'
p466
I6
sS'meta'
p467
(lp468
(dp469
S'objective'
p470
I554
sS'query_time'
p471
F0.04416394233703613
sS'comp_time'
p472
F0.00011301040649414062
sS'exec_cq'
p473
I1
sS'total_cq'
p474
I44
sa(dp475
g470
I130
sg471
F0.02663397789001465
sg472
F8.20159912109375e-05
sg473
I2
sg474
I8
sa(dp476
g470
I90
sg471
F0.013777017593383789
sg472
F7.82012939453125e-05
sg473
I2
sg474
I7
sa(dp477
g470
I60
sg471
F0.012006998062133789
sg472
F7.510185241699219e-05
sg473
I2
sg474
I6
sa(dp478
g470
I40
sg471
F0.009553909301757812
sg472
F6.413459777832031e-05
sg473
I2
sg474
I5
sa(dp479
g470
I22
sg471
F0.03188586235046387
sg472
F8.082389831542969e-05
sg473
I2
sg474
I4
sasS'total_cqs'
p480
I44
ssI40
(dp481
S'iters'
p482
I1
sS'meta'
p483
(lp484
(dp485
S'objective'
p486
I18
sS'query_time'
p487
F0.023834943771362305
sS'comp_time'
p488
F7.510185241699219e-05
sS'exec_cq'
p489
I3
sS'total_cq'
p490
I7
sasS'total_cqs'
p491
I7
ssI41
(dp492
S'iters'
p493
I1
sS'meta'
p494
(lp495
(dp496
S'objective'
p497
I64
sS'query_time'
p498
F0.06053495407104492
sS'comp_time'
p499
F7.390975952148438e-05
sS'exec_cq'
p500
I6
sS'total_cq'
p501
I12
sasS'total_cqs'
p502
I12
ssI42
(dp503
S'iters'
p504
I3
sS'meta'
p505
(lp506
(dp507
S'objective'
p508
I809
sS'query_time'
p509
F0.049514055252075195
sS'comp_time'
p510
F0.0001087188720703125
sS'exec_cq'
p511
I16
sS'total_cq'
p512
I41
sa(dp513
g508
I787
sg509
F0.016022920608520508
sg510
F9.298324584960938e-05
sg511
I17
sg512
I40
sa(dp514
g508
I767
sg509
F0.016834020614624023
sg510
F0.00010824203491210938
sg511
I18
sg512
I39
sasS'total_cqs'
p515
I41
ssI43
(dp516
S'iters'
p517
I1
sS'meta'
p518
(lp519
(dp520
S'objective'
p521
I18
sS'query_time'
p522
F0.013488054275512695
sS'comp_time'
p523
F7.510185241699219e-05
sS'exec_cq'
p524
I3
sS'total_cq'
p525
I7
sasS'total_cqs'
p526
I7
ssI44
(dp527
S'iters'
p528
I3
sS'meta'
p529
(lp530
(dp531
S'objective'
p532
I932
sS'query_time'
p533
F0.04709291458129883
sS'comp_time'
p534
F0.00011610984802246094
sS'exec_cq'
p535
I7
sS'total_cq'
p536
I47
sa(dp537
g532
I34
sg533
F0.017162084579467773
sg534
F7.104873657226562e-05
sg535
I2
sg536
I3
sa(dp538
g532
I16
sg533
F0.0020380020141601562
sg534
F5.173683166503906e-05
sg535
I2
sg536
I2
sasS'total_cqs'
p539
I47
ssI45
(dp540
S'iters'
p541
I0
sS'meta'
p542
(lp543
sS'total_cqs'
p544
I1
ssI46
(dp545
S'iters'
p546
I2
sS'meta'
p547
(lp548
(dp549
S'objective'
p550
I11
sS'query_time'
p551
F0.01698613166809082
sS'comp_time'
p552
F8.296966552734375e-05
sS'exec_cq'
p553
I2
sS'total_cq'
p554
I6
sa(dp555
g550
I8
sg551
F0.003715991973876953
sg552
F5.793571472167969e-05
sg553
I2
sg554
I5
sasS'total_cqs'
p556
I6
ssI47
(dp557
S'iters'
p558
I1
sS'meta'
p559
(lp560
(dp561
S'objective'
p562
I1
sS'query_time'
p563
F0.006468057632446289
sS'comp_time'
p564
F6.985664367675781e-05
sS'exec_cq'
p565
I1
sS'total_cq'
p566
I2
sasS'total_cqs'
p567
I2
ssI48
(dp568
S'iters'
p569
I0
sS'meta'
p570
(lp571
sS'total_cqs'
p572
I1
ssI49
(dp573
S'iters'
p574
I0
sS'meta'
p575
(lp576
sS'total_cqs'
p577
I1
ssI50
(dp578
S'iters'
p579
I2
sS'meta'
p580
(lp581
(dp582
S'objective'
p583
I5
sS'query_time'
p584
F0.005038022994995117
sS'comp_time'
p585
F6.794929504394531e-05
sS'exec_cq'
p586
I1
sS'total_cq'
p587
I5
sa(dp588
g583
I2
sg584
F0.00397181510925293
sg585
F6.699562072753906e-05
sg586
I1
sg587
I4
sasS'total_cqs'
p589
I5
ssI51
(dp590
S'iters'
p591
I1
sS'meta'
p592
(lp593
(dp594
S'objective'
p595
I1
sS'query_time'
p596
F0.0057220458984375
sS'comp_time'
p597
F0.00012183189392089844
sS'exec_cq'
p598
I1
sS'total_cq'
p599
I2
sasS'total_cqs'
p600
I2
ssI52
(dp601
S'iters'
p602
I1
sS'meta'
p603
(lp604
(dp605
S'objective'
p606
I1
sS'query_time'
p607
F0.0055201053619384766
sS'comp_time'
p608
F8.606910705566406e-05
sS'exec_cq'
p609
I1
sS'total_cq'
p610
I2
sasS'total_cqs'
p611
I2
ssI53
(dp612
S'iters'
p613
I2
sS'meta'
p614
(lp615
(dp616
S'objective'
p617
I2
sS'query_time'
p618
F0.009654045104980469
sS'comp_time'
p619
F7.009506225585938e-05
sS'exec_cq'
p620
I1
sS'total_cq'
p621
I4
sa(dp622
g617
I0
sg618
F0.009657144546508789
sg619
F6.103515625e-05
sg620
I1
sg621
I3
sasS'total_cqs'
p623
I4
ssI54
(dp624
S'iters'
p625
I1
sS'meta'
p626
(lp627
(dp628
S'objective'
p629
I0
sS'query_time'
p630
F0.0071179866790771484
sS'comp_time'
p631
F6.508827209472656e-05
sS'exec_cq'
p632
I1
sS'total_cq'
p633
I3
sasS'total_cqs'
p634
I3
ssI55
(dp635
S'iters'
p636
I5
sS'meta'
p637
(lp638
(dp639
S'objective'
p640
I5663
sS'query_time'
p641
F0.2885630130767822
sS'comp_time'
p642
F0.00018715858459472656
sS'exec_cq'
p643
I4
sS'total_cq'
p644
I109
sa(dp645
g640
I5339
sg641
F0.24746918678283691
sg642
F0.00019097328186035156
sg643
I5
sg644
I107
sa(dp646
g640
I5338
sg641
F0.17652511596679688
sg642
F0.00018715858459472656
sg643
I6
sg644
I103
sa(dp647
g640
I4995
sg641
F0.3251309394836426
sg642
F0.00019407272338867188
sg643
I11
sg644
I101
sa(dp648
g640
I121
sg641
F0.01238703727722168
sg642
F6.008148193359375e-05
sg643
I1
sg644
I4
sasS'total_cqs'
p649
I109
ssI56
(dp650
S'iters'
p651
I11
sS'meta'
p652
(lp653
(dp654
S'objective'
p655
I2172
sS'query_time'
p656
F0.41890692710876465
sS'comp_time'
p657
F0.00018095970153808594
sS'exec_cq'
p658
I7
sS'total_cq'
p659
I76
sa(dp660
g655
I2263
sg656
F0.3753690719604492
sg657
F0.0001590251922607422
sg658
I7
sg659
I67
sa(dp661
g655
I2278
sg656
F0.07690691947937012
sg657
F0.00015687942504882812
sg658
I10
sg659
I64
sa(dp662
g655
I2152
sg656
F0.2879159450531006
sg657
F0.00015807151794433594
sg658
I11
sg659
I63
sa(dp663
g655
I2139
sg656
F0.1794719696044922
sg657
F0.0001709461212158203
sg658
I16
sg659
I61
sa(dp664
g655
I2087
sg656
F0.04768109321594238
sg657
F0.00014901161193847656
sg658
I16
sg659
I60
sa(dp665
g655
I1988
sg656
F0.1320810317993164
sg657
F0.0001430511474609375
sg658
I18
sg659
I59
sa(dp666
g655
I1968
sg656
F0.18692612648010254
sg657
F0.00015497207641601562
sg658
I19
sg659
I56
sa(dp667
g655
I1930
sg656
F0.8551211357116699
sg657
F0.00014090538024902344
sg658
I23
sg659
I55
sa(dp668
g655
I1851
sg656
F0.1329638957977295
sg657
F0.001455068588256836
sg658
I23
sg659
I54
sa(dp669
g655
I1834
sg656
F0.06274795532226562
sg657
F0.0001399517059326172
sg658
I25
sg659
I52
sasS'total_cqs'
p670
I76
ssI57
(dp671
S'iters'
p672
I9
sS'meta'
p673
(lp674
(dp675
S'objective'
p676
I844
sS'query_time'
p677
F0.7925229072570801
sS'comp_time'
p678
F0.0001201629638671875
sS'exec_cq'
p679
I1
sS'total_cq'
p680
I51
sa(dp681
g676
I549
sg677
F2.8228869438171387
sg678
F0.00011205673217773438
sg679
I1
sg680
I42
sa(dp682
g676
I725
sg677
F0.023197174072265625
sg678
F8.0108642578125e-05
sg679
I3
sg680
I30
sa(dp683
g676
I657
sg677
F0.3418879508972168
sg678
F9.799003601074219e-05
sg679
I5
sg680
I29
sa(dp684
g676
I360
sg677
F0.5396339893341064
sg678
F0.0001220703125
sg679
I8
sg680
I27
sa(dp685
g676
I55
sg677
F0.14380979537963867
sg678
F8.20159912109375e-05
sg679
I1
sg680
I8
sa(dp686
g676
I50
sg677
F0.5334939956665039
sg678
F8.20159912109375e-05
sg679
I1
sg680
I6
sa(dp687
g676
I29
sg677
F4.6315271854400635
sg678
F7.700920104980469e-05
sg679
I1
sg680
I5
sa(dp688
g676
I2
sg677
F0.02047109603881836
sg678
F6.532669067382812e-05
sg679
I1
sg680
I3
sasS'total_cqs'
p689
I51
ssI58
(dp690
S'iters'
p691
I13
sS'meta'
p692
(lp693
(dp694
S'objective'
p695
I116871
sS'query_time'
p696
F10.797626972198486
sS'comp_time'
p697
F0.0005650520324707031
sS'exec_cq'
p698
I1
sS'total_cq'
p699
I486
sa(dp700
g695
I116638
sg696
F0.8928990364074707
sg697
F0.0004680156707763672
sg698
I2
sg699
I484
sa(dp701
g695
I115558
sg696
F3.839514970779419
sg697
F0.0005688667297363281
sg698
I4
sg699
I483
sa(dp702
g695
I115384
sg696
F5.195173025131226
sg697
F0.0005862712860107422
sg698
I6
sg699
I481
sa(dp703
g695
I113574
sg696
F0.7583370208740234
sg697
F0.0011019706726074219
sg698
I6
sg699
I480
sa(dp704
g695
I113472
sg696
F18.992729902267456
sg697
F0.0005481243133544922
sg698
I7
sg699
I477
sa(dp705
g695
I112427
sg696
F3.0854580402374268
sg697
F0.0005142688751220703
sg698
I10
sg699
I475
sa(dp706
g695
I111923
sg696
F2.3897480964660645
sg697
F0.0010080337524414062
sg698
I10
sg699
I472
sa(dp707
g695
I107864
sg696
F1.7962050437927246
sg697
F0.0006322860717773438
sg698
I10
sg699
I470
sa(dp708
g695
I1326
sg696
F0.14194822311401367
sg697
F0.00028204917907714844
sg698
I1
sg699
I9
sa(dp709
g695
I627
sg696
F0.19475388526916504
sg697
F7.200241088867188e-05
sg698
I1
sg699
I7
sa(dp710
g695
I558
sg696
F0.11030697822570801
sg697
F7.009506225585938e-05
sg698
I1
sg699
I5
sa(dp711
g695
I409
sg696
F1.0873310565948486
sg697
F0.00010013580322265625
sg698
I1
sg699
I4
sasS'total_cqs'
p712
I486
ssI59
(dp713
S'iters'
p714
I2
sS'meta'
p715
(lp716
(dp717
S'objective'
p718
I16
sS'query_time'
p719
F0.035592079162597656
sS'comp_time'
p720
F7.486343383789062e-05
sS'exec_cq'
p721
I2
sS'total_cq'
p722
I7
sa(dp723
g718
I12
sg719
F0.012812137603759766
sg720
F6.890296936035156e-05
sg721
I2
sg722
I6
sasS'total_cqs'
p724
I7
ssI60
(dp725
S'iters'
p726
I2
sS'meta'
p727
(lp728
(dp729
S'objective'
p730
I5
sS'query_time'
p731
F0.0056340694427490234
sS'comp_time'
p732
F6.985664367675781e-05
sS'exec_cq'
p733
I1
sS'total_cq'
p734
I5
sa(dp735
g730
I2
sg731
F0.003245115280151367
sg732
F6.008148193359375e-05
sg733
I1
sg734
I4
sasS'total_cqs'
p736
I5
ssI61
(dp737
S'iters'
p738
I0
sS'meta'
p739
(lp740
sS'total_cqs'
p741
I1
ssI62
(dp742
S'iters'
p743
I3
sS'meta'
p744
(lp745
(dp746
S'objective'
p747
I58
sS'query_time'
p748
F0.014261007308959961
sS'comp_time'
p749
F7.390975952148438e-05
sS'exec_cq'
p750
I3
sS'total_cq'
p751
I12
sa(dp752
g747
I42
sg748
F0.008839845657348633
sg749
F7.200241088867188e-05
sg750
I3
sg751
I11
sa(dp753
g747
I41
sg748
F0.006139993667602539
sg749
F5.698204040527344e-05
sg750
I4
sg751
I9
sasS'total_cqs'
p754
I12
ssI63
(dp755
S'iters'
p756
I0
sS'meta'
p757
(lp758
sS'total_cqs'
p759
I1
ssI64
(dp760
S'iters'
p761
I5
sS'meta'
p762
(lp763
(dp764
S'objective'
p765
I54
sS'query_time'
p766
F0.04340410232543945
sS'comp_time'
p767
F9.012222290039062e-05
sS'exec_cq'
p768
I1
sS'total_cq'
p769
I12
sa(dp770
g765
I46
sg766
F0.04215598106384277
sg767
F8.702278137207031e-05
sg768
I2
sg769
I11
sa(dp771
g765
I38
sg766
F0.02620100975036621
sg767
F8.535385131835938e-05
sg768
I2
sg769
I10
sa(dp772
g765
I31
sg766
F0.03766202926635742
sg767
F7.200241088867188e-05
sg768
I2
sg769
I9
sa(dp773
g765
I25
sg766
F0.01892995834350586
sg767
F8.797645568847656e-05
sg768
I2
sg769
I8
sasS'total_cqs'
p774
I12
ssI65
(dp775
S'iters'
p776
I9
sS'meta'
p777
(lp778
(dp779
S'objective'
p780
I324
sS'query_time'
p781
F0.03141283988952637
sS'comp_time'
p782
F0.00010418891906738281
sS'exec_cq'
p783
I1
sS'total_cq'
p784
I27
sa(dp785
g780
I299
sg781
F0.07618594169616699
sg782
F0.00011801719665527344
sg783
I1
sg784
I26
sa(dp786
g780
I277
sg781
F0.036492109298706055
sg782
F8.988380432128906e-05
sg783
I2
sg784
I25
sa(dp787
g780
I255
sg781
F0.06699490547180176
sg782
F9.107589721679688e-05
sg783
I2
sg784
I24
sa(dp788
g780
I206
sg781
F0.08665108680725098
sg782
F0.00015401840209960938
sg783
I4
sg784
I23
sa(dp789
g780
I204
sg781
F0.05513405799865723
sg782
F9.512901306152344e-05
sg783
I4
sg784
I20
sa(dp790
g780
I187
sg781
F0.017102956771850586
sg782
F7.486343383789062e-05
sg783
I4
sg784
I19
sa(dp791
g780
I163
sg781
F0.017939090728759766
sg782
F7.557868957519531e-05
sg783
I6
sg784
I18
sa(dp792
g780
I9
sg781
F0.0012249946594238281
sg782
F4.601478576660156e-05
sg783
I1
sg784
I2
sasS'total_cqs'
p793
I27
ssI66
(dp794
S'iters'
p795
I0
sS'meta'
p796
(lp797
sS'total_cqs'
p798
I1
ssI67
(dp799
S'iters'
p800
I2
sS'meta'
p801
(lp802
(dp803
S'objective'
p804
I584
sS'query_time'
p805
F0.824160099029541
sS'comp_time'
p806
F0.00010204315185546875
sS'exec_cq'
p807
I13
sS'total_cq'
p808
I35
sa(dp809
g804
I569
sg805
F0.5500800609588623
sg806
F0.00011110305786132812
sg807
I16
sg808
I34
sasS'total_cqs'
p810
I35
ssI68
(dp811
S'iters'
p812
I0
sS'meta'
p813
(lp814
sS'total_cqs'
p815
I1
ssI69
(dp816
S'iters'
p817
I1
sS'meta'
p818
(lp819
(dp820
S'objective'
p821
I1272
sS'query_time'
p822
F0.11478209495544434
sS'comp_time'
p823
F9.608268737792969e-05
sS'exec_cq'
p824
I25
sS'total_cq'
p825
I51
sasS'total_cqs'
p826
I51
ssI70
(dp827
S'iters'
p828
I2
sS'meta'
p829
(lp830
(dp831
S'objective'
p832
I11
sS'query_time'
p833
F0.00644683837890625
sS'comp_time'
p834
F6.270408630371094e-05
sS'exec_cq'
p835
I2
sS'total_cq'
p836
I6
sa(dp837
g832
I8
sg833
F0.006564140319824219
sg834
F5.793571472167969e-05
sg835
I2
sg836
I5
sasS'total_cqs'
p838
I6
ssI71
(dp839
S'iters'
p840
I8
sS'meta'
p841
(lp842
(dp843
S'objective'
p844
I3407
sS'query_time'
p845
F0.06436300277709961
sS'comp_time'
p846
F0.00012803077697753906
sS'exec_cq'
p847
I2
sS'total_cq'
p848
I85
sa(dp849
g844
I3099
sg845
F0.10754799842834473
sg846
F0.0001621246337890625
sg847
I4
sg848
I83
sa(dp850
g844
I3155
sg845
F0.07512307167053223
sg846
F0.00015091896057128906
sg847
I4
sg848
I79
sa(dp851
g844
I2911
sg845
F0.07437419891357422
sg846
F0.0001590251922607422
sg847
I8
sg848
I78
sa(dp852
g844
I2877
sg845
F0.07506394386291504
sg846
F0.00012969970703125
sg847
I16
sg848
I74
sa(dp853
g844
I2675
sg845
F0.05221199989318848
sg846
F0.00015091896057128906
sg847
I21
sg848
I71
sa(dp854
g844
I30
sg845
F0.009124040603637695
sg846
F5.602836608886719e-05
sg847
I2
sg848
I3
sa(dp855
g844
I2
sg845
F0.004953861236572266
sg846
F5.2928924560546875e-05
sg847
I2
sg848
I2
sasS'total_cqs'
p856
I85
ssI72
(dp857
S'iters'
p858
I4
sS'meta'
p859
(lp860
(dp861
S'objective'
p862
I12
sS'query_time'
p863
F0.05806708335876465
sS'comp_time'
p864
F7.796287536621094e-05
sS'exec_cq'
p865
I1
sS'total_cq'
p866
I8
sa(dp867
g862
I10
sg863
F0.20766305923461914
sg864
F8.606910705566406e-05
sg865
I1
sg866
I6
sa(dp868
g862
I1
sg863
F0.014138936996459961
sg864
F6.318092346191406e-05
sg865
I1
sg866
I5
sa(dp869
g862
I2
sg863
F0.005857944488525391
sg864
F4.792213439941406e-05
sg865
I1
sg866
I3
sasS'total_cqs'
p870
I8
ssI73
(dp871
S'iters'
p872
I0
sS'meta'
p873
(lp874
sS'total_cqs'
p875
I1
ssI74
(dp876
S'iters'
p877
I0
sS'meta'
p878
(lp879
sS'total_cqs'
p880
I1
ssI75
(dp881
S'iters'
p882
I2
sS'meta'
p883
(lp884
(dp885
S'objective'
p886
I5
sS'query_time'
p887
F0.00410008430480957
sS'comp_time'
p888
F5.7220458984375e-05
sS'exec_cq'
p889
I1
sS'total_cq'
p890
I5
sa(dp891
g886
I2
sg887
F0.0029659271240234375
sg888
F5.1975250244140625e-05
sg889
I1
sg890
I4
sasS'total_cqs'
p892
I5
ssI76
(dp893
S'iters'
p894
I1
sS'meta'
p895
(lp896
(dp897
S'objective'
p898
I1
sS'query_time'
p899
F0.008955001831054688
sS'comp_time'
p900
F6.914138793945312e-05
sS'exec_cq'
p901
I1
sS'total_cq'
p902
I2
sasS'total_cqs'
p903
I2
ssI77
(dp904
S'iters'
p905
I0
sS'meta'
p906
(lp907
sS'total_cqs'
p908
I1
ssI78
(dp909
S'iters'
p910
I0
sS'meta'
p911
(lp912
sS'total_cqs'
p913
I1
ssI103
(dp914
S'iters'
p915
I1
sS'meta'
p916
(lp917
(dp918
S'objective'
p919
I64
sS'query_time'
p920
F0.06730890274047852
sS'comp_time'
p921
F8.296966552734375e-05
sS'exec_cq'
p922
I6
sS'total_cq'
p923
I12
sasS'total_cqs'
p924
I12
ssI104
(dp925
S'iters'
p926
I2
sS'meta'
p927
(lp928
(dp929
S'objective'
p930
I2
sS'query_time'
p931
F0.03148603439331055
sS'comp_time'
p932
F7.987022399902344e-05
sS'exec_cq'
p933
I1
sS'total_cq'
p934
I4
sa(dp935
g930
I2
sg931
F1.3010239601135254
sg932
F7.772445678710938e-05
sg933
I1
sg934
I2
sasS'total_cqs'
p936
I4
ssI105
(dp937
S'iters'
p938
I0
sS'meta'
p939
(lp940
sS'total_cqs'
p941
I1
ssI106
(dp942
S'iters'
p943
I1
sS'meta'
p944
(lp945
(dp946
S'objective'
p947
I4
sS'query_time'
p948
F0.015657901763916016
sS'comp_time'
p949
F6.198883056640625e-05
sS'exec_cq'
p950
I2
sS'total_cq'
p951
I4
sasS'total_cqs'
p952
I4
ssI107
(dp953
S'iters'
p954
I3
sS'meta'
p955
(lp956
(dp957
S'objective'
p958
I106
sS'query_time'
p959
F0.0832209587097168
sS'comp_time'
p960
F8.58306884765625e-05
sS'exec_cq'
p961
I2
sS'total_cq'
p962
I16
sa(dp963
g958
I71
sg959
F0.034091949462890625
sg960
F9.799003601074219e-05
sg961
I5
sg962
I15
sa(dp964
g958
I7
sg959
F0.03159499168395996
sg960
F8.106231689453125e-05
sg961
I2
sg962
I3
sasS'total_cqs'
p965
I16
ssI108
(dp966
S'iters'
p967
I0
sS'meta'
p968
(lp969
sS'total_cqs'
p970
I1
ss.