(dp0
I1
(dp1
S'iters'
p2
I4
sS'meta'
p3
(lp4
(dp5
S'objective'
p6
I48
sS'query_time'
p7
F0.0671541690826416
sS'comp_time'
p8
F0.016433000564575195
sS'exec_cq'
p9
I12
sS'total_cq'
p10
I12
sa(dp11
g6
I41
sg7
F6.198883056640625e-05
sg8
F0.00015997886657714844
sg9
I10
sg10
I10
sa(dp12
g6
I40
sg7
F3.814697265625e-05
sg8
F0.00011587142944335938
sg9
I9
sg10
I9
sa(dp13
g6
I38
sg7
F2.9087066650390625e-05
sg8
F7.534027099609375e-05
sg9
I8
sg10
I8
sasS'total_cqs'
p14
I12
ssI2
(dp15
S'iters'
p16
I6
sS'meta'
p17
(lp18
(dp19
S'objective'
p20
I240
sS'query_time'
p21
F0.08169412612915039
sS'comp_time'
p22
F0.036782026290893555
sS'exec_cq'
p23
I27
sS'total_cq'
p24
I27
sa(dp25
g20
I205
sg21
F0.0002911090850830078
sg22
F0.0009315013885498047
sg23
I23
sg24
I23
sa(dp26
g20
I203
sg21
F0.00010609626770019531
sg22
F0.00039124488830566406
sg23
I20
sg24
I20
sa(dp27
g20
I188
sg21
F9.512901306152344e-05
sg22
F0.00030303001403808594
sg23
I18
sg24
I18
sa(dp28
g20
I179
sg21
F9.083747863769531e-05
sg22
F0.0003018379211425781
sg23
I17
sg24
I17
sa(dp29
g20
I178
sg21
F7.605552673339844e-05
sg22
F0.0001819133758544922
sg23
I15
sg24
I15
sasS'total_cqs'
p30
I27
ssI3
(dp31
S'iters'
p32
I5
sS'meta'
p33
(lp34
(dp35
S'objective'
p36
I478
sS'query_time'
p37
F334.3724031448364
sS'comp_time'
p38
F0.3497025966644287
sS'exec_cq'
p39
I25
sS'total_cq'
p40
I43
sa(dp41
g36
I334
sg37
F227.91190695762634
sg38
F0.8901958465576172
sg39
I30
sg40
I36
sa(dp42
g36
I337
sg37
F0.4244251251220703
sg38
F1.377058506011963
sg39
I22
sg40
I28
sa(dp43
g36
I382
sg37
F11.519351959228516
sg38
F0.00032782554626464844
sg39
I21
sg40
I21
sa(dp44
g36
I382
sg37
F0.00013399124145507812
sg38
F0.00010895729064941406
sg39
I20
sg40
I20
sasS'total_cqs'
p45
I43
ssI4
(dp46
S'iters'
p47
I2
sS'meta'
p48
(lp49
(dp50
S'objective'
p51
I42
sS'query_time'
p52
F4.68414306640625
sS'comp_time'
p53
F0.40752673149108887
sS'exec_cq'
p54
I11
sS'total_cq'
p55
I11
sa(dp56
g51
I4
sg52
F0.21527409553527832
sg53
F0.317551851272583
sg54
I2
sg55
I2
sasS'total_cqs'
p57
I11
ssI5
(dp58
S'iters'
p59
I4
sS'meta'
p60
(lp61
(dp62
S'objective'
p63
I0
sS'query_time'
p64
F34.08164596557617
sS'comp_time'
p65
F9.036947011947632
sS'exec_cq'
p66
I8
sS'total_cq'
p67
I8
sa(dp68
g63
I0
sg64
F0.42836999893188477
sg65
F1.323681116104126
sg66
I5
sg67
I5
sa(dp69
g63
I1
sg64
F0.005972862243652344
sg65
F0.012865304946899414
sg66
I3
sg67
I3
sa(dp70
g63
I1
sg64
F0.10745000839233398
sg65
F0.009849786758422852
sg66
I2
sg67
I2
sasS'total_cqs'
p71
I8
ssI6
(dp72
S'iters'
p73
I4
sS'meta'
p74
(lp75
(dp76
S'objective'
p77
I45
sS'query_time'
p78
F37.81501603126526
sS'comp_time'
p79
F2.284130096435547
sS'exec_cq'
p80
I18
sS'total_cq'
p81
I18
sa(dp82
g77
I1
sg78
F0.9396910667419434
sg79
F3.373788356781006
sg80
I7
sg81
I7
sa(dp83
g77
I2
sg78
F0.14286518096923828
sg79
F1.649540901184082
sg80
I4
sg81
I4
sa(dp84
g77
I5
sg78
F0.013755083084106445
sg79
F0.02594590187072754
sg80
I2
sg81
I2
sasS'total_cqs'
p85
I18
ssI7
(dp86
S'iters'
p87
I4
sS'meta'
p88
(lp89
(dp90
S'objective'
p91
I1
sS'query_time'
p92
F12.773964881896973
sS'comp_time'
p93
F1.036870002746582
sS'exec_cq'
p94
I9
sS'total_cq'
p95
I9
sa(dp96
g91
I0
sg92
F0.3697168827056885
sg93
F0.8996448516845703
sg94
I5
sg95
I5
sa(dp97
g91
I1
sg92
F0.24953079223632812
sg93
F0.5962512493133545
sg94
I3
sg95
I3
sa(dp98
g91
I3
sg92
F0.05156993865966797
sg93
F0.22635555267333984
sg94
I2
sg95
I2
sasS'total_cqs'
p99
I9
ssI8
(dp100
S'iters'
p101
I4
sS'meta'
p102
(lp103
(dp104
S'objective'
p105
I258
sS'query_time'
p106
F0.09921789169311523
sS'comp_time'
p107
F0.034577369689941406
sS'exec_cq'
p108
I27
sS'total_cq'
p109
I27
sa(dp110
g105
I210
sg106
F0.00020694732666015625
sg107
F0.0007600784301757812
sg108
I22
sg109
I22
sa(dp111
g105
I240
sg106
F0.00010204315185546875
sg107
F0.00029468536376953125
sg108
I19
sg109
I19
sa(dp112
g105
I236
sg106
F9.393692016601562e-05
sg107
F0.00016498565673828125
sg108
I18
sg109
I18
sasS'total_cqs'
p113
I27
ssI9
(dp114
S'iters'
p115
I3
sS'meta'
p116
(lp117
(dp118
S'objective'
p119
I6
sS'query_time'
p120
F0.03871893882751465
sS'comp_time'
p121
F0.009036779403686523
sS'exec_cq'
p122
I7
sS'total_cq'
p123
I7
sa(dp124
g119
I3
sg120
F3.409385681152344e-05
sg121
F0.00014281272888183594
sg122
I4
sg123
I4
sa(dp125
g119
I4
sg120
F1.4066696166992188e-05
sg121
F6.508827209472656e-05
sg122
I2
sg123
I2
sasS'total_cqs'
p126
I7
ssI10
(dp127
S'iters'
p128
I5
sS'meta'
p129
(lp130
(dp131
S'objective'
p132
I602
sS'query_time'
p133
F0.2465510368347168
sS'comp_time'
p134
F0.09648585319519043
sS'exec_cq'
p135
I51
sS'total_cq'
p136
I51
sa(dp137
g132
I392
sg133
F0.0005118846893310547
sg134
F0.003248929977416992
sg135
I37
sg136
I37
sa(dp138
g132
I434
sg133
F0.00022673606872558594
sg134
F0.0013229846954345703
sg135
I25
sg136
I25
sa(dp139
g132
I416
sg133
F9.608268737792969e-05
sg134
F0.00038170814514160156
sg135
I21
sg136
I21
sa(dp140
g132
I42
sg133
F2.8848648071289062e-05
sg134
F0.00034117698669433594
sg135
I3
sg136
I3
sasS'total_cqs'
p141
I51
ssI11
(dp142
S'iters'
p143
I7
sS'meta'
p144
(lp145
(dp146
S'objective'
p147
I1088
sS'query_time'
p148
F0.5020549297332764
sS'comp_time'
p149
F0.15915179252624512
sS'exec_cq'
p150
I63
sS'total_cq'
p151
I63
sa(dp152
g147
I1146
sg148
F0.0016210079193115234
sg149
F0.00563359260559082
sg150
I47
sg151
I47
sa(dp153
g147
I1003
sg148
F0.0006649494171142578
sg149
F0.002525806427001953
sg150
I41
sg151
I41
sa(dp154
g147
I896
sg148
F0.0005609989166259766
sg149
F0.0018830299377441406
sg150
I36
sg151
I36
sa(dp155
g147
I16
sg148
F7.200241088867188e-05
sg149
F0.0013518333435058594
sg150
I7
sg151
I7
sa(dp156
g147
I2
sg148
F3.4809112548828125e-05
sg149
F0.00022220611572265625
sg150
I4
sg151
I4
sa(dp157
g147
I4
sg148
F2.5987625122070312e-05
sg149
F7.128715515136719e-05
sg150
I3
sg151
I3
sasS'total_cqs'
p158
I63
ssI12
(dp159
S'iters'
p160
I5
sS'meta'
p161
(lp162
(dp163
S'objective'
p164
I411
sS'query_time'
p165
F0.2667210102081299
sS'comp_time'
p166
F0.09530115127563477
sS'exec_cq'
p167
I50
sS'total_cq'
p168
I50
sa(dp169
g164
I353
sg165
F0.000682830810546875
sg166
F0.0030732154846191406
sg167
I33
sg168
I33
sa(dp170
g164
I430
sg165
F0.0001800060272216797
sg166
F0.0009303092956542969
sg167
I26
sg168
I26
sa(dp171
g164
I0
sg165
F5.1975250244140625e-05
sg166
F0.0005002021789550781
sg167
I5
sg168
I5
sa(dp172
g164
I14
sg165
F1.9073486328125e-05
sg166
F8.893013000488281e-05
sg167
I2
sg168
I2
sasS'total_cqs'
p173
I50
ssI13
(dp174
S'iters'
p175
I3
sS'meta'
p176
(lp177
(dp178
S'objective'
p179
I14
sS'query_time'
p180
F0.12807297706604004
sS'comp_time'
p181
F0.0352783203125
sS'exec_cq'
p182
I20
sS'total_cq'
p183
I20
sa(dp184
g179
I62
sg180
F5.3882598876953125e-05
sg181
F0.0004074573516845703
sg182
I9
sg183
I9
sa(dp185
g179
I6
sg180
F1.3113021850585938e-05
sg181
F0.0001327991485595703
sg182
I2
sg183
I2
sasS'total_cqs'
p186
I20
ssI14
(dp187
S'iters'
p188
I3
sS'meta'
p189
(lp190
(dp191
S'objective'
p192
I1
sS'query_time'
p193
F33.75111484527588
sS'comp_time'
p194
F0.7507400512695312
sS'exec_cq'
p195
I9
sS'total_cq'
p196
I9
sa(dp197
g192
I4
sg193
F0.3410639762878418
sg194
F0.5959417819976807
sg195
I5
sg196
I5
sa(dp198
g192
I1
sg193
F0.29863619804382324
sg194
F0.5071530342102051
sg195
I3
sg196
I3
sasS'total_cqs'
p199
I9
ssI15
(dp200
S'iters'
p201
I4
sS'meta'
p202
(lp203
(dp204
S'objective'
p205
I0
sS'query_time'
p206
F3.774099826812744
sS'comp_time'
p207
F0.0946357250213623
sS'exec_cq'
p208
I11
sS'total_cq'
p209
I11
sa(dp210
g205
I1
sg206
F0.04351806640625
sg207
F0.15808987617492676
sg208
I6
sg209
I6
sa(dp211
g205
I6
sg206
F0.012988805770874023
sg207
F0.02210688591003418
sg208
I3
sg209
I3
sa(dp212
g205
I3
sg206
F0.011511087417602539
sg207
F0.024872779846191406
sg208
I2
sg209
I2
sasS'total_cqs'
p213
I11
ssI16
(dp214
S'iters'
p215
I1
sS'meta'
p216
(lp217
(dp218
S'objective'
p219
I30
sS'query_time'
p220
F0.012350082397460938
sS'comp_time'
p221
F0.004424095153808594
sS'exec_cq'
p222
I8
sS'total_cq'
p223
I8
sasS'total_cqs'
p224
I8
ssI17
(dp225
S'iters'
p226
I4
sS'meta'
p227
(lp228
(dp229
S'objective'
p230
I0
sS'query_time'
p231
F0.9047958850860596
sS'comp_time'
p232
F0.03521609306335449
sS'exec_cq'
p233
I11
sS'total_cq'
p234
I11
sa(dp235
g230
I17
sg231
F0.0001728534698486328
sg232
F0.00038504600524902344
sg233
I5
sg234
I5
sa(dp236
g230
I15
sg231
F0.0001361370086669922
sg232
F0.0002589225769042969
sg233
I4
sg234
I4
sa(dp237
g230
I12
sg231
F0.00012993812561035156
sg232
F0.00028514862060546875
sg233
I3
sg234
I3
sasS'total_cqs'
p238
I11
ssI18
(dp239
S'iters'
p240
I4
sS'meta'
p241
(lp242
(dp243
S'objective'
p244
I42
sS'query_time'
p245
F0.21377825736999512
sS'comp_time'
p246
F0.02146601676940918
sS'exec_cq'
p247
I11
sS'total_cq'
p248
I11
sa(dp249
g244
I38
sg245
F0.0002162456512451172
sg246
F0.0006463527679443359
sg247
I9
sg248
I9
sa(dp250
g244
I38
sg245
F0.00013494491577148438
sg246
F0.000408172607421875
sg247
I8
sg248
I8
sa(dp251
g244
I34
sg245
F3.0994415283203125e-05
sg246
F7.104873657226562e-05
sg247
I6
sg248
I6
sasS'total_cqs'
p252
I11
ssI19
(dp253
S'iters'
p254
I0
sS'meta'
p255
(lp256
sS'total_cqs'
p257
I1
ssI20
(dp258
S'iters'
p259
I0
sS'meta'
p260
(lp261
sS'total_cqs'
p262
I1
ssI21
(dp263
S'iters'
p264
I0
sS'meta'
p265
(lp266
sS'total_cqs'
p267
I1
ssI22
(dp268
S'iters'
p269
I1
sS'meta'
p270
(lp271
(dp272
S'objective'
p273
I159
sS'query_time'
p274
F0.03118610382080078
sS'comp_time'
p275
F0.03181934356689453
sS'exec_cq'
p276
I18
sS'total_cq'
p277
I18
sasS'total_cqs'
p278
I18
ssI23
(dp279
S'iters'
p280
I3
sS'meta'
p281
(lp282
(dp283
S'objective'
p284
I102
sS'query_time'
p285
F0.027254104614257812
sS'comp_time'
p286
F0.025198698043823242
sS'exec_cq'
p287
I16
sS'total_cq'
p288
I16
sa(dp289
g284
I101
sg285
F0.00010991096496582031
sg286
F0.00022125244140625
sg287
I14
sg288
I14
sa(dp290
g284
I100
sg285
F4.792213439941406e-05
sg286
F9.274482727050781e-05
sg287
I13
sg288
I13
sasS'total_cqs'
p291
I16
ssI24
(dp292
S'iters'
p293
I0
sS'meta'
p294
(lp295
sS'total_cqs'
p296
I1
ssI25
(dp297
S'iters'
p298
I0
sS'meta'
p299
(lp300
sS'total_cqs'
p301
I1
ssI26
(dp302
S'iters'
p303
I1
sS'meta'
p304
(lp305
(dp306
S'objective'
p307
I879
sS'query_time'
p308
F0.060101985931396484
sS'comp_time'
p309
F0.10594367980957031
sS'exec_cq'
p310
I42
sS'total_cq'
p311
I42
sasS'total_cqs'
p312
I42
ssI27
(dp313
S'iters'
p314
I4
sS'meta'
p315
(lp316
(dp317
S'objective'
p318
I331
sS'query_time'
p319
F21.689085960388184
sS'comp_time'
p320
F1.6489062309265137
sS'exec_cq'
p321
I30
sS'total_cq'
p322
I30
sa(dp323
g318
I7
sg319
F0.7839200496673584
sg320
F3.439548969268799
sg321
I5
sg322
I5
sa(dp324
g318
I8
sg319
F0.5333340167999268
sg320
F1.2248010635375977
sg321
I3
sg322
I3
sa(dp325
g318
I1
sg319
F0.3798508644104004
sg320
F0.800872802734375
sg321
I2
sg322
I2
sasS'total_cqs'
p326
I30
ssI28
(dp327
S'iters'
p328
I0
sS'meta'
p329
(lp330
sS'total_cqs'
p331
I1
ssI29
(dp332
S'iters'
p333
I5
sS'meta'
p334
(lp335
(dp336
S'objective'
p337
I307
sS'query_time'
p338
F26.700426816940308
sS'comp_time'
p339
F0.44334888458251953
sS'exec_cq'
p340
I35
sS'total_cq'
p341
I49
sa(dp342
g337
I29
sg338
F0.0439150333404541
sg339
F0.08111906051635742
sg340
I17
sg341
I17
sa(dp343
g337
I37
sg338
F0.002349853515625
sg339
F0.007445573806762695
sg340
I9
sg341
I9
sa(dp344
g337
I7
sg338
F0.0013699531555175781
sg339
F0.0018372535705566406
sg340
I4
sg341
I4
sa(dp345
g337
I20
sg338
F0.0009510517120361328
sg339
F0.0013756752014160156
sg340
I2
sg341
I2
sasS'total_cqs'
p346
I49
ssI30
(dp347
S'iters'
p348
I1
sS'meta'
p349
(lp350
(dp351
S'objective'
p352
I1
sS'query_time'
p353
F0.7318089008331299
sS'comp_time'
p354
F0.01813817024230957
sS'exec_cq'
p355
I2
sS'total_cq'
p356
I2
sasS'total_cqs'
p357
I2
ssI31
(dp358
S'iters'
p359
I0
sS'meta'
p360
(lp361
sS'total_cqs'
p362
I1
ssI32
(dp363
S'iters'
p364
I1
sS'meta'
p365
(lp366
(dp367
S'objective'
p368
I1
sS'query_time'
p369
F0.011893987655639648
sS'comp_time'
p370
F0.0018801689147949219
sS'exec_cq'
p371
I2
sS'total_cq'
p372
I2
sasS'total_cqs'
p373
I2
ssI33
(dp374
S'iters'
p375
I5
sS'meta'
p376
(lp377
(dp378
S'objective'
p379
I3212
sS'query_time'
p380
F15.045480966567993
sS'comp_time'
p381
F0.8855781555175781
sS'exec_cq'
p382
I103
sS'total_cq'
p383
I103
sa(dp384
g379
I0
sg380
F0.008356809616088867
sg381
F0.052902936935424805
sg382
I16
sg383
I16
sa(dp385
g379
I0
sg380
F0.004135847091674805
sg381
F0.00745081901550293
sg382
I8
sg383
I8
sa(dp386
g379
I22
sg380
F0.0012791156768798828
sg381
F0.0020673274993896484
sg382
I4
sg383
I4
sa(dp387
g379
I69
sg380
F0.00031280517578125
sg381
F0.0006661415100097656
sg382
I2
sg383
I2
sasS'total_cqs'
p388
I103
ssI34
(dp389
S'iters'
p390
I1
sS'meta'
p391
(lp392
(dp393
S'objective'
p394
I1
sS'query_time'
p395
F0.012338876724243164
sS'comp_time'
p396
F0.0010838508605957031
sS'exec_cq'
p397
I2
sS'total_cq'
p398
I2
sasS'total_cqs'
p399
I2
ssI35
(dp400
S'iters'
p401
I5
sS'meta'
p402
(lp403
(dp404
S'objective'
p405
I1597
sS'query_time'
p406
F262.9390070438385
sS'comp_time'
p407
F11.679957151412964
sS'exec_cq'
p408
I70
sS'total_cq'
p409
I70
sa(dp410
g405
I8
sg406
F0.004291057586669922
sg407
F0.012394189834594727
sg408
I16
sg409
I16
sa(dp411
g405
I8
sg406
F0.0022640228271484375
sg407
F0.004376888275146484
sg408
I9
sg409
I9
sa(dp412
g405
I1
sg406
F0.0023369789123535156
sg407
F0.00308990478515625
sg408
I7
sg409
I7
sa(dp413
g405
I20
sg406
F0.0006740093231201172
sg407
F0.0011012554168701172
sg408
I2
sg409
I2
sasS'total_cqs'
p414
I70
ssI36
(dp415
S'iters'
p416
I5
sS'meta'
p417
(lp418
(dp419
S'objective'
p420
I371
sS'query_time'
p421
F0.9993109703063965
sS'comp_time'
p422
F0.15586137771606445
sS'exec_cq'
p423
I33
sS'total_cq'
p424
I33
sa(dp425
g420
I318
sg421
F0.0061991214752197266
sg422
F0.015903949737548828
sg423
I29
sg424
I29
sa(dp426
g420
I346
sg421
F0.002294778823852539
sg422
F0.003963470458984375
sg423
I25
sg424
I25
sa(dp427
g420
I335
sg421
F0.0005421638488769531
sg422
F0.0004703998565673828
sg423
I24
sg424
I24
sa(dp428
g420
I332
sg421
F0.00011491775512695312
sg422
F0.00023984909057617188
sg423
I23
sg424
I23
sasS'total_cqs'
p429
I33
ssI37
(dp430
S'iters'
p431
I1
sS'meta'
p432
(lp433
(dp434
S'objective'
p435
I1
sS'query_time'
p436
F0.008700847625732422
sS'comp_time'
p437
F0.0017278194427490234
sS'exec_cq'
p438
I2
sS'total_cq'
p439
I2
sasS'total_cqs'
p440
I2
ssI38
(dp441
S'iters'
p442
I2
sS'meta'
p443
(lp444
(dp445
S'objective'
p446
I0
sS'query_time'
p447
F0.05916595458984375
sS'comp_time'
p448
F0.002627134323120117
sS'exec_cq'
p449
I4
sS'total_cq'
p450
I4
sa(dp451
g446
I1
sg447
F9.512901306152344e-05
sg448
F0.00018477439880371094
sg449
I2
sg450
I2
sasS'total_cqs'
p452
I4
ssI39
(dp453
S'iters'
p454
I2
sS'meta'
p455
(lp456
(dp457
S'objective'
p458
I674
sS'query_time'
p459
F0.166611909866333
sS'comp_time'
p460
F0.16777396202087402
sS'exec_cq'
p461
I44
sS'total_cq'
p462
I44
sa(dp463
g458
I808
sg459
F0.0003190040588378906
sg460
F0.0008420944213867188
sg461
I37
sg462
I37
sasS'total_cqs'
p464
I44
ssI40
(dp465
S'iters'
p466
I1
sS'meta'
p467
(lp468
(dp469
S'objective'
p470
I22
sS'query_time'
p471
F0.021736860275268555
sS'comp_time'
p472
F0.0055789947509765625
sS'exec_cq'
p473
I7
sS'total_cq'
p474
I7
sasS'total_cqs'
p475
I7
ssI41
(dp476
S'iters'
p477
I2
sS'meta'
p478
(lp479
(dp480
S'objective'
p481
I66
sS'query_time'
p482
F0.057745933532714844
sS'comp_time'
p483
F0.014212846755981445
sS'exec_cq'
p484
I12
sS'total_cq'
p485
I12
sa(dp486
g481
I64
sg482
F5.1975250244140625e-05
sg483
F8.726119995117188e-05
sg484
I11
sg485
I11
sasS'total_cqs'
p487
I12
ssI42
(dp488
S'iters'
p489
I3
sS'meta'
p490
(lp491
(dp492
S'objective'
p493
I807
sS'query_time'
p494
F0.06695699691772461
sS'comp_time'
p495
F0.19468998908996582
sS'exec_cq'
p496
I41
sS'total_cq'
p497
I41
sa(dp498
g493
I796
sg494
F0.00021505355834960938
sg495
F0.0002830028533935547
sg496
I40
sg497
I40
sa(dp499
g493
I791
sg494
F0.0001571178436279297
sg495
F0.0001957416534423828
sg496
I39
sg497
I39
sasS'total_cqs'
p500
I41
ssI43
(dp501
S'iters'
p502
I1
sS'meta'
p503
(lp504
(dp505
S'objective'
p506
I22
sS'query_time'
p507
F0.02314591407775879
sS'comp_time'
p508
F0.005775928497314453
sS'exec_cq'
p509
I7
sS'total_cq'
p510
I7
sasS'total_cqs'
p511
I7
ssI44
(dp512
S'iters'
p513
I4
sS'meta'
p514
(lp515
(dp516
S'objective'
p517
I750
sS'query_time'
p518
F0.13159918785095215
sS'comp_time'
p519
F0.1064143180847168
sS'exec_cq'
p520
I47
sS'total_cq'
p521
I47
sa(dp522
g517
I777
sg518
F0.0002760887145996094
sg519
F0.0010271072387695312
sg520
I40
sg521
I40
sa(dp523
g517
I11
sg518
F0.00011491775512695312
sg519
F0.0023109912872314453
sg520
I3
sg521
I3
sa(dp524
g517
I20
sg518
F0.00010204315185546875
sg519
F0.00021696090698242188
sg520
I2
sg521
I2
sasS'total_cqs'
p525
I47
ssI45
(dp526
S'iters'
p527
I0
sS'meta'
p528
(lp529
sS'total_cqs'
p530
I1
ssI46
(dp531
S'iters'
p532
I2
sS'meta'
p533
(lp534
(dp535
S'objective'
p536
I13
sS'query_time'
p537
F0.010737895965576172
sS'comp_time'
p538
F0.0025980472564697266
sS'exec_cq'
p539
I6
sS'total_cq'
p540
I6
sa(dp541
g536
I11
sg537
F5.602836608886719e-05
sg538
F0.0001537799835205078
sg539
I5
sg540
I5
sasS'total_cqs'
p542
I6
ssI47
(dp543
S'iters'
p544
I1
sS'meta'
p545
(lp546
(dp547
S'objective'
p548
I1
sS'query_time'
p549
F0.010334968566894531
sS'comp_time'
p550
F0.0012454986572265625
sS'exec_cq'
p551
I2
sS'total_cq'
p552
I2
sasS'total_cqs'
p553
I2
ssI48
(dp554
S'iters'
p555
I0
sS'meta'
p556
(lp557
sS'total_cqs'
p558
I1
ssI49
(dp559
S'iters'
p560
I0
sS'meta'
p561
(lp562
sS'total_cqs'
p563
I1
ssI50
(dp564
S'iters'
p565
I3
sS'meta'
p566
(lp567
(dp568
S'objective'
p569
I5
sS'query_time'
p570
F0.007869958877563477
sS'comp_time'
p571
F0.0029692649841308594
sS'exec_cq'
p572
I5
sS'total_cq'
p573
I5
sa(dp574
g569
I2
sg570
F3.0994415283203125e-05
sg571
F0.00013208389282226562
sg572
I4
sg573
I4
sa(dp575
g569
I0
sg570
F1.9073486328125e-05
sg571
F9.703636169433594e-05
sg572
I3
sg573
I3
sasS'total_cqs'
p576
I5
ssI51
(dp577
S'iters'
p578
I1
sS'meta'
p579
(lp580
(dp581
S'objective'
p582
I1
sS'query_time'
p583
F0.008701086044311523
sS'comp_time'
p584
F0.0009922981262207031
sS'exec_cq'
p585
I2
sS'total_cq'
p586
I2
sasS'total_cqs'
p587
I2
ssI52
(dp588
S'iters'
p589
I1
sS'meta'
p590
(lp591
(dp592
S'objective'
p593
I1
sS'query_time'
p594
F0.006464958190917969
sS'comp_time'
p595
F0.0010743141174316406
sS'exec_cq'
p596
I2
sS'total_cq'
p597
I2
sasS'total_cqs'
p598
I2
ssI53
(dp599
S'iters'
p600
I2
sS'meta'
p601
(lp602
(dp603
S'objective'
p604
I0
sS'query_time'
p605
F0.015535116195678711
sS'comp_time'
p606
F0.0026733875274658203
sS'exec_cq'
p607
I4
sS'total_cq'
p608
I4
sa(dp609
g604
I1
sg605
F8.606910705566406e-05
sg606
F0.000225067138671875
sg607
I2
sg608
I2
sasS'total_cqs'
p610
I4
ssI54
(dp611
S'iters'
p612
I2
sS'meta'
p613
(lp614
(dp615
S'objective'
p616
I0
sS'query_time'
p617
F0.008331060409545898
sS'comp_time'
p618
F0.001422882080078125
sS'exec_cq'
p619
I3
sS'total_cq'
p620
I3
sa(dp621
g616
I1
sg617
F5.1975250244140625e-05
sg618
F0.00013899803161621094
sg619
I2
sg620
I2
sasS'total_cqs'
p622
I3
ssI55
(dp623
S'iters'
p624
I9
sS'meta'
p625
(lp626
(dp627
S'objective'
p628
I4991
sS'query_time'
p629
F2.226815938949585
sS'comp_time'
p630
F0.6523871421813965
sS'exec_cq'
p631
I109
sS'total_cq'
p632
I109
sa(dp633
g628
I4781
sg629
F0.0009860992431640625
sg630
F0.004625082015991211
sg631
I97
sg632
I97
sa(dp634
g628
I4739
sg629
F0.0004639625549316406
sg630
F0.001750946044921875
sg631
I91
sg632
I91
sa(dp635
g628
I4544
sg629
F0.0004239082336425781
sg630
F0.001489877700805664
sg631
I87
sg632
I87
sa(dp636
g628
I4427
sg629
F0.0004169940948486328
sg630
F0.0010838508605957031
sg631
I85
sg632
I85
sa(dp637
g628
I4368
sg629
F0.0003600120544433594
sg630
F0.0007386207580566406
sg631
I83
sg632
I83
sa(dp638
g628
I4264
sg629
F0.00038814544677734375
sg630
F0.0006108283996582031
sg631
I82
sg632
I82
sa(dp639
g628
I4204
sg629
F0.0003821849822998047
sg630
F0.0006489753723144531
sg631
I81
sg632
I81
sa(dp640
g628
I4229
sg629
F0.00030493736267089844
sg630
F0.0004901885986328125
sg631
I79
sg632
I79
sasS'total_cqs'
p641
I109
ssI56
(dp642
S'iters'
p643
I5
sS'meta'
p644
(lp645
(dp646
S'objective'
p647
I1838
sS'query_time'
p648
F1.7871570587158203
sS'comp_time'
p649
F0.37911319732666016
sS'exec_cq'
p650
I67
sS'total_cq'
p651
I76
sa(dp652
g647
I2
sg648
F0.007594108581542969
sg649
F0.07961821556091309
sg650
I16
sg651
I16
sa(dp653
g647
I31
sg648
F0.0039789676666259766
sg649
F0.012982606887817383
sg650
I9
sg651
I9
sa(dp654
g647
I28
sg648
F0.00024318695068359375
sg649
F0.0006225109100341797
sg650
I3
sg651
I3
sa(dp655
g647
I6
sg648
F0.00014901161193847656
sg649
F0.000331878662109375
sg650
I2
sg651
I2
sasS'total_cqs'
p656
I76
ssI57
(dp657
S'iters'
p658
I6
sS'meta'
p659
(lp660
(dp661
S'objective'
p662
I16
sS'query_time'
p663
F24.604145050048828
sS'comp_time'
p664
F0.17230677604675293
sS'exec_cq'
p665
I45
sS'total_cq'
p666
I51
sa(dp667
g662
I13
sg663
F0.016154050827026367
sg664
F0.026854276657104492
sg665
I27
sg666
I27
sa(dp668
g662
I45
sg663
F0.002582073211669922
sg664
F0.0039196014404296875
sg665
I13
sg666
I13
sa(dp669
g662
I2
sg663
F0.0016701221466064453
sg664
F0.002691984176635742
sg665
I6
sg666
I6
sa(dp670
g662
I8
sg663
F0.000743865966796875
sg664
F0.0014529228210449219
sg665
I4
sg666
I4
sa(dp671
g662
I11
sg663
F0.00018405914306640625
sg664
F0.00032806396484375
sg665
I2
sg666
I2
sasS'total_cqs'
p672
I51
ssI58
(dp673
S'iters'
p674
I8
sS'meta'
p675
(lp676
(dp677
S'objective'
p678
I81331
sS'query_time'
p679
F514.0668771266937
sS'comp_time'
p680
F30.032246112823486
sS'exec_cq'
p681
I486
sS'total_cq'
p682
I486
sa(dp683
g678
I86178
sg679
F11.591731786727905
sg680
F17.555253982543945
sg681
I414
sg682
I414
sa(dp684
g678
I271
sg679
F0.007676839828491211
sg680
F0.13047170639038086
sg681
I24
sg682
I24
sa(dp685
g678
I13
sg679
F0.006273031234741211
sg680
F0.03540921211242676
sg681
I13
sg682
I13
sa(dp686
g678
I13
sg679
F0.004966020584106445
sg680
F0.0271151065826416
sg681
I8
sg682
I8
sa(dp687
g678
I17
sg679
F0.0007290840148925781
sg680
F0.0009641647338867188
sg681
I4
sg682
I4
sa(dp688
g678
I111
sg679
F0.00038313865661621094
sg680
F0.0006110668182373047
sg681
I3
sg682
I3
sa(dp689
g678
I11
sg679
F0.00026917457580566406
sg680
F0.0003898143768310547
sg681
I2
sg682
I2
sasS'total_cqs'
p690
I486
ssI59
(dp691
S'iters'
p692
I2
sS'meta'
p693
(lp694
(dp695
S'objective'
p696
I10
sS'query_time'
p697
F0.04812002182006836
sS'comp_time'
p698
F0.004869937896728516
sS'exec_cq'
p699
I7
sS'total_cq'
p700
I7
sa(dp701
g696
I3
sg697
F0.0001430511474609375
sg698
F0.00035190582275390625
sg699
I2
sg700
I2
sasS'total_cqs'
p702
I7
ssI60
(dp703
S'iters'
p704
I2
sS'meta'
p705
(lp706
(dp707
S'objective'
p708
I7
sS'query_time'
p709
F0.014955282211303711
sS'comp_time'
p710
F0.003297090530395508
sS'exec_cq'
p711
I5
sS'total_cq'
p712
I5
sa(dp713
g708
I5
sg709
F2.5987625122070312e-05
sg710
F0.00010395050048828125
sg711
I3
sg712
I4
sasS'total_cqs'
p714
I5
ssI61
(dp715
S'iters'
p716
I0
sS'meta'
p717
(lp718
sS'total_cqs'
p719
I1
ssI62
(dp720
S'iters'
p721
I3
sS'meta'
p722
(lp723
(dp724
S'objective'
p725
I32
sS'query_time'
p726
F0.014150857925415039
sS'comp_time'
p727
F0.01701498031616211
sS'exec_cq'
p728
I12
sS'total_cq'
p729
I12
sa(dp730
g725
I31
sg726
F4.291534423828125e-05
sg727
F0.00017786026000976562
sg728
I9
sg729
I9
sa(dp731
g725
I35
sg726
F3.0040740966796875e-05
sg727
F7.295608520507812e-05
sg728
I8
sg729
I8
sasS'total_cqs'
p732
I12
ssI63
(dp733
S'iters'
p734
I0
sS'meta'
p735
(lp736
sS'total_cqs'
p737
I1
ssI64
(dp738
S'iters'
p739
I3
sS'meta'
p740
(lp741
(dp742
S'objective'
p743
I18
sS'query_time'
p744
F0.0952911376953125
sS'comp_time'
p745
F0.018827438354492188
sS'exec_cq'
p746
I12
sS'total_cq'
p747
I12
sa(dp748
g743
I0
sg744
F0.0002181529998779297
sg745
F0.0010166168212890625
sg746
I4
sg747
I4
sa(dp749
g743
I7
sg744
F5.2928924560546875e-05
sg745
F0.00015401840209960938
sg746
I2
sg747
I2
sasS'total_cqs'
p750
I12
ssI65
(dp751
S'iters'
p752
I4
sS'meta'
p753
(lp754
(dp755
S'objective'
p756
I184
sS'query_time'
p757
F0.8936851024627686
sS'comp_time'
p758
F0.05952858924865723
sS'exec_cq'
p759
I27
sS'total_cq'
p760
I27
sa(dp761
g756
I1
sg757
F0.0015430450439453125
sg758
F0.002323627471923828
sg759
I7
sg760
I7
sa(dp762
g756
I2
sg757
F0.0003628730773925781
sg758
F0.0008673667907714844
sg759
I4
sg760
I4
sa(dp763
g756
I7
sg757
F0.00023889541625976562
sg758
F0.0004849433898925781
sg759
I2
sg760
I2
sasS'total_cqs'
p764
I27
ssI66
(dp765
S'iters'
p766
I0
sS'meta'
p767
(lp768
sS'total_cqs'
p769
I1
ssI67
(dp770
S'iters'
p771
I2
sS'meta'
p772
(lp773
(dp774
S'objective'
p775
I546
sS'query_time'
p776
F1.0228939056396484
sS'comp_time'
p777
F0.0879068374633789
sS'exec_cq'
p778
I35
sS'total_cq'
p779
I35
sa(dp780
g775
I22
sg776
F0.0015819072723388672
sg777
F0.003380298614501953
sg778
I2
sg779
I2
sasS'total_cqs'
p781
I35
ssI68
(dp782
S'iters'
p783
I0
sS'meta'
p784
(lp785
sS'total_cqs'
p786
I1
ssI69
(dp787
S'iters'
p788
I1
sS'meta'
p789
(lp790
(dp791
S'objective'
p792
I1298
sS'query_time'
p793
F0.08730578422546387
sS'comp_time'
p794
F0.22140002250671387
sS'exec_cq'
p795
I51
sS'total_cq'
p796
I51
sasS'total_cqs'
p797
I51
ssI70
(dp798
S'iters'
p799
I3
sS'meta'
p800
(lp801
(dp802
S'objective'
p803
I9
sS'query_time'
p804
F0.011120080947875977
sS'comp_time'
p805
F0.0034830570220947266
sS'exec_cq'
p806
I6
sS'total_cq'
p807
I6
sa(dp808
g803
I5
sg804
F4.8160552978515625e-05
sg805
F0.00015878677368164062
sg806
I5
sg807
I5
sa(dp809
g803
I4
sg804
F5.888938903808594e-05
sg805
F0.00011587142944335938
sg806
I4
sg807
I4
sasS'total_cqs'
p810
I6
ssI71
(dp811
S'iters'
p812
I8
sS'meta'
p813
(lp814
(dp815
S'objective'
p816
I3303
sS'query_time'
p817
F0.2247169017791748
sS'comp_time'
p818
F0.320162296295166
sS'exec_cq'
p819
I85
sS'total_cq'
p820
I85
sa(dp821
g816
I3179
sg817
F0.0003819465637207031
sg818
F0.001186370849609375
sg819
I82
sg820
I82
sa(dp822
g816
I3033
sg817
F0.0002949237823486328
sg818
F0.0009760856628417969
sg819
I78
sg820
I78
sa(dp823
g816
I2895
sg817
F0.00026988983154296875
sg818
F0.0008449554443359375
sg819
I75
sg820
I75
sa(dp824
g816
I2832
sg817
F0.00026679039001464844
sg818
F0.0007569789886474609
sg819
I71
sg820
I71
sa(dp825
g816
I2767
sg817
F0.0002448558807373047
sg818
F0.0004527568817138672
sg819
I69
sg820
I69
sa(dp826
g816
I2703
sg817
F0.0002269744873046875
sg818
F0.0004146099090576172
sg819
I68
sg820
I68
sa(dp827
g816
I28
sg817
F4.506111145019531e-05
sg818
F0.002073049545288086
sg819
I3
sg820
I3
sasS'total_cqs'
p828
I85
ssI72
(dp829
S'iters'
p830
I3
sS'meta'
p831
(lp832
(dp833
S'objective'
p834
I2
sS'query_time'
p835
F0.2979741096496582
sS'comp_time'
p836
F0.004171848297119141
sS'exec_cq'
p837
I4
sS'total_cq'
p838
I8
sa(dp839
g834
I3
sg835
F0.023208141326904297
sg836
F0.00023412704467773438
sg837
I4
sg838
I5
sa(dp840
g834
I2
sg835
F7.581710815429688e-05
sg836
F7.581710815429688e-05
sg837
I2
sg838
I3
sasS'total_cqs'
p841
I8
ssI73
(dp842
S'iters'
p843
I0
sS'meta'
p844
(lp845
sS'total_cqs'
p846
I1
ssI74
(dp847
S'iters'
p848
I0
sS'meta'
p849
(lp850
sS'total_cqs'
p851
I1
ssI75
(dp852
S'iters'
p853
I3
sS'meta'
p854
(lp855
(dp856
S'objective'
p857
I5
sS'query_time'
p858
F0.013689994812011719
sS'comp_time'
p859
F0.002644777297973633
sS'exec_cq'
p860
I5
sS'total_cq'
p861
I5
sa(dp862
g857
I2
sg858
F2.5033950805664062e-05
sg859
F0.00013971328735351562
sg860
I4
sg861
I4
sa(dp863
g857
I0
sg858
F1.6927719116210938e-05
sg859
F0.0001010894775390625
sg860
I3
sg861
I3
sasS'total_cqs'
p864
I5
ssI76
(dp865
S'iters'
p866
I1
sS'meta'
p867
(lp868
(dp869
S'objective'
p870
I1
sS'query_time'
p871
F0.009368181228637695
sS'comp_time'
p872
F0.0012106895446777344
sS'exec_cq'
p873
I2
sS'total_cq'
p874
I2
sasS'total_cqs'
p875
I2
ssI77
(dp876
S'iters'
p877
I0
sS'meta'
p878
(lp879
sS'total_cqs'
p880
I1
ssI78
(dp881
S'iters'
p882
I0
sS'meta'
p883
(lp884
sS'total_cqs'
p885
I1
ssI103
(dp886
S'iters'
p887
I2
sS'meta'
p888
(lp889
(dp890
S'objective'
p891
I64
sS'query_time'
p892
F0.04565882682800293
sS'comp_time'
p893
F0.016262054443359375
sS'exec_cq'
p894
I12
sS'total_cq'
p895
I12
sa(dp896
g891
I63
sg892
F5.2928924560546875e-05
sg893
F0.0001125335693359375
sg894
I11
sg895
I11
sasS'total_cqs'
p897
I12
ssI104
(dp898
S'iters'
p899
I2
sS'meta'
p900
(lp901
(dp902
S'objective'
p903
I0
sS'query_time'
p904
F1.3486528396606445
sS'comp_time'
p905
F0.15553808212280273
sS'exec_cq'
p906
I4
sS'total_cq'
p907
I4
sa(dp908
g903
I1
sg904
F0.011958837509155273
sg905
F0.02335333824157715
sg906
I2
sg907
I2
sasS'total_cqs'
p909
I4
ssI105
(dp910
S'iters'
p911
I0
sS'meta'
p912
(lp913
sS'total_cqs'
p914
I1
ssI106
(dp915
S'iters'
p916
I1
sS'meta'
p917
(lp918
(dp919
S'objective'
p920
I6
sS'query_time'
p921
F0.010886907577514648
sS'comp_time'
p922
F0.0018558502197265625
sS'exec_cq'
p923
I4
sS'total_cq'
p924
I4
sasS'total_cqs'
p925
I4
ssI107
(dp926
S'iters'
p927
I2
sS'meta'
p928
(lp929
(dp930
S'objective'
p931
I90
sS'query_time'
p932
F0.04709887504577637
sS'comp_time'
p933
F0.01918816566467285
sS'exec_cq'
p934
I16
sS'total_cq'
p935
I16
sa(dp936
g931
I13
sg932
F2.8848648071289062e-05
sg933
F0.00027489662170410156
sg934
I3
sg935
I3
sasS'total_cqs'
p937
I16
ssI108
(dp938
S'iters'
p939
I0
sS'meta'
p940
(lp941
sS'total_cqs'
p942
I1
ss.