(dp0
I1
(dp1
S'iters'
p2
I4
sS'meta'
p3
(lp4
(dp5
S'objective'
p6
I36
sS'query_time'
p7
F0.029859066009521484
sS'comp_time'
p8
F0.0002980232238769531
sS'exec_cq'
p9
I12
sS'total_cq'
p10
I12
sa(dp11
g6
I39
sg7
F6.604194641113281e-05
sg8
F0.0001571178436279297
sg9
I10
sg10
I10
sa(dp12
g6
I36
sg7
F3.790855407714844e-05
sg8
F0.00010609626770019531
sg9
I9
sg10
I9
sa(dp13
g6
I40
sg7
F3.2901763916015625e-05
sg8
F8.416175842285156e-05
sg9
I8
sg10
I8
sasS'total_cqs'
p14
I12
ssI2
(dp15
S'iters'
p16
I8
sS'meta'
p17
(lp18
(dp19
S'objective'
p20
I232
sS'query_time'
p21
F0.02806711196899414
sS'comp_time'
p22
F0.0008807182312011719
sS'exec_cq'
p23
I14
sS'total_cq'
p24
I27
sa(dp25
g20
I231
sg21
F7.987022399902344e-05
sg22
F0.00028324127197265625
sg23
I11
sg24
I24
sa(dp26
g20
I170
sg21
F0.026376008987426758
sg22
F0.0006258487701416016
sg23
I13
sg24
I22
sa(dp27
g20
I181
sg21
F6.29425048828125e-05
sg22
F0.00025725364685058594
sg23
I9
sg24
I18
sa(dp28
g20
I174
sg21
F4.100799560546875e-05
sg22
F0.00023889541625976562
sg23
I7
sg24
I16
sa(dp29
g20
I163
sg21
F6.914138793945312e-05
sg22
F0.00022721290588378906
sg23
I15
sg24
I15
sa(dp30
g20
I161
sg21
F6.079673767089844e-05
sg22
F0.0002040863037109375
sg23
I14
sg24
I14
sa(dp31
g20
I166
sg21
F4.9114227294921875e-05
sg22
F7.987022399902344e-05
sg23
I13
sg24
I13
sasS'total_cqs'
p32
I27
ssI3
(dp33
S'iters'
p34
I4
sS'meta'
p35
(lp36
(dp37
S'objective'
p38
I592
sS'query_time'
p39
F206.72498607635498
sS'comp_time'
p40
F0.042500972747802734
sS'exec_cq'
p41
I16
sS'total_cq'
p42
I43
sa(dp43
g38
I453
sg39
F225.27615904808044
sg40
F3.220432758331299
sg41
I14
sg42
I35
sa(dp44
g38
I245
sg39
F121.5696439743042
sg40
F1.084150791168213
sg41
I9
sg42
I28
sa(dp45
g38
I426
sg39
F10.950012922286987
sg40
F0.0002224445343017578
sg41
I20
sg42
I20
sasS'total_cqs'
p46
I43
ssI4
(dp47
S'iters'
p48
I2
sS'meta'
p49
(lp50
(dp51
S'objective'
p52
I56
sS'query_time'
p53
F4.920344114303589
sS'comp_time'
p54
F1.8339931964874268
sS'exec_cq'
p55
I11
sS'total_cq'
p56
I11
sa(dp57
g52
I3
sg53
F0.24374699592590332
sg54
F1.390429973602295
sg55
I2
sg56
I2
sasS'total_cqs'
p58
I11
ssI5
(dp59
S'iters'
p60
I3
sS'meta'
p61
(lp62
(dp63
S'objective'
p64
I0
sS'query_time'
p65
F34.653366804122925
sS'comp_time'
p66
F5.830157995223999
sS'exec_cq'
p67
I8
sS'total_cq'
p68
I8
sa(dp69
g64
I2
sg65
F0.011087894439697266
sg66
F0.3835561275482178
sg67
I4
sg68
I4
sa(dp70
g64
I6
sg65
F0.005190849304199219
sg66
F0.05158042907714844
sg67
I2
sg68
I2
sasS'total_cqs'
p71
I8
ssI6
(dp72
S'iters'
p73
I4
sS'meta'
p74
(lp75
(dp76
S'objective'
p77
I47
sS'query_time'
p78
F36.96978807449341
sS'comp_time'
p79
F5.9773643016815186
sS'exec_cq'
p80
I18
sS'total_cq'
p81
I18
sa(dp82
g77
I0
sg78
F1.0793581008911133
sg79
F5.4572412967681885
sg80
I7
sg81
I7
sa(dp83
g77
I1
sg78
F0.7111420631408691
sg79
F3.8064041137695312
sg80
I3
sg81
I3
sa(dp84
g77
I13
sg78
F0.3300440311431885
sg79
F1.9864330291748047
sg80
I2
sg81
I2
sasS'total_cqs'
p85
I18
ssI7
(dp86
S'iters'
p87
I3
sS'meta'
p88
(lp89
(dp90
S'objective'
p91
I1
sS'query_time'
p92
F12.188775062561035
sS'comp_time'
p93
F2.605546236038208
sS'exec_cq'
p94
I9
sS'total_cq'
p95
I9
sa(dp96
g91
I3
sg92
F0.005874156951904297
sg93
F0.042174339294433594
sg94
I4
sg95
I4
sa(dp97
g91
I8
sg92
F0.004064083099365234
sg93
F0.03551983833312988
sg94
I2
sg95
I2
sasS'total_cqs'
p98
I9
ssI8
(dp99
S'iters'
p100
I5
sS'meta'
p101
(lp102
(dp103
S'objective'
p104
I230
sS'query_time'
p105
F0.0477750301361084
sS'comp_time'
p106
F0.001394033432006836
sS'exec_cq'
p107
I14
sS'total_cq'
p108
I27
sa(dp109
g104
I260
sg105
F5.888938903808594e-05
sg106
F0.00010371208190917969
sg107
I9
sg108
I22
sa(dp110
g104
I240
sg105
F0.033792972564697266
sg106
F0.0005679130554199219
sg107
I21
sg108
I21
sa(dp111
g104
I225
sg105
F8.392333984375e-05
sg106
F0.00010371208190917969
sg107
I18
sg108
I18
sa(dp112
g104
I241
sg105
F6.508827209472656e-05
sg106
F9.5367431640625e-05
sg107
I17
sg108
I17
sasS'total_cqs'
p113
I27
ssI9
(dp114
S'iters'
p115
I3
sS'meta'
p116
(lp117
(dp118
S'objective'
p119
I2
sS'query_time'
p120
F0.04554295539855957
sS'comp_time'
p121
F0.000518798828125
sS'exec_cq'
p122
I7
sS'total_cq'
p123
I7
sa(dp124
g119
I1
sg120
F4.00543212890625e-05
sg121
F0.00011610984802246094
sg122
I4
sg123
I4
sa(dp125
g119
I4
sg120
F1.5020370483398438e-05
sg121
F9.202957153320312e-05
sg122
I2
sg123
I2
sasS'total_cqs'
p126
I7
ssI10
(dp127
S'iters'
p128
I6
sS'meta'
p129
(lp130
(dp131
S'objective'
p132
I542
sS'query_time'
p133
F0.13002610206604004
sS'comp_time'
p134
F0.0037987232208251953
sS'exec_cq'
p135
I28
sS'total_cq'
p136
I51
sa(dp137
g132
I362
sg133
F0.10765695571899414
sg134
F0.0013129711151123047
sg135
I23
sg136
I37
sa(dp138
g132
I406
sg133
F0.0002040863037109375
sg134
F0.0009970664978027344
sg135
I14
sg136
I25
sa(dp139
g132
I427
sg133
F6.008148193359375e-05
sg134
F0.00023889541625976562
sg135
I11
sg136
I21
sa(dp140
g132
I8
sg133
F2.7894973754882812e-05
sg134
F0.00017714500427246094
sg135
I3
sg136
I3
sa(dp141
g132
I19
sg133
F1.5974044799804688e-05
sg134
F0.00010204315185546875
sg135
I2
sg136
I2
sasS'total_cqs'
p142
I51
ssI11
(dp143
S'iters'
p144
I6
sS'meta'
p145
(lp146
(dp147
S'objective'
p148
I964
sS'query_time'
p149
F0.4325227737426758
sS'comp_time'
p150
F0.02685093879699707
sS'exec_cq'
p151
I63
sS'total_cq'
p152
I63
sa(dp153
g148
I904
sg149
F0.0014009475708007812
sg150
F0.008347749710083008
sg151
I47
sg152
I47
sa(dp154
g148
I13
sg149
F0.00025010108947753906
sg150
F0.002053976058959961
sg151
I9
sg152
I9
sa(dp155
g148
I21
sg149
F9.393692016601562e-05
sg150
F0.0006422996520996094
sg151
I6
sg152
I6
sa(dp156
g148
I33
sg149
F3.0994415283203125e-05
sg150
F0.00013375282287597656
sg151
I4
sg152
I4
sa(dp157
g148
I25
sg149
F1.3828277587890625e-05
sg150
F8.58306884765625e-05
sg151
I2
sg152
I2
sasS'total_cqs'
p158
I63
ssI12
(dp159
S'iters'
p160
I6
sS'meta'
p161
(lp162
(dp163
S'objective'
p164
I303
sS'query_time'
p165
F0.11515116691589355
sS'comp_time'
p166
F0.0016469955444335938
sS'exec_cq'
p167
I28
sS'total_cq'
p168
I50
sa(dp169
g164
I433
sg165
F0.11796712875366211
sg166
F0.003287076950073242
sg167
I22
sg168
I33
sa(dp170
g164
I471
sg165
F0.0001881122589111328
sg166
F0.0009958744049072266
sg167
I16
sg168
I27
sa(dp171
g164
I431
sg165
F0.00017404556274414062
sg166
F0.000965118408203125
sg167
I14
sg168
I25
sa(dp172
g164
I466
sg165
F6.604194641113281e-05
sg166
F0.00037026405334472656
sg167
I10
sg168
I21
sa(dp173
g164
I8
sg165
F2.09808349609375e-05
sg166
F0.00017333030700683594
sg167
I2
sg168
I2
sasS'total_cqs'
p174
I50
ssI13
(dp175
S'iters'
p176
I3
sS'meta'
p177
(lp178
(dp179
S'objective'
p180
I2
sS'query_time'
p181
F0.10913896560668945
sS'comp_time'
p182
F0.0007121562957763672
sS'exec_cq'
p183
I20
sS'total_cq'
p184
I20
sa(dp185
g180
I64
sg181
F6.198883056640625e-05
sg182
F0.0001220703125
sg183
I9
sg184
I9
sa(dp186
g180
I18
sg181
F1.4781951904296875e-05
sg182
F9.417533874511719e-05
sg183
I2
sg184
I2
sasS'total_cqs'
p187
I20
ssI14
(dp188
S'iters'
p189
I4
sS'meta'
p190
(lp191
(dp192
S'objective'
p193
I1
sS'query_time'
p194
F34.29785895347595
sS'comp_time'
p195
F2.241590738296509
sS'exec_cq'
p196
I9
sS'total_cq'
p197
I9
sa(dp198
g193
I2
sg194
F0.009979963302612305
sg195
F0.0675499439239502
sg196
I5
sg197
I5
sa(dp199
g193
I4
sg194
F0.008877992630004883
sg195
F0.21216225624084473
sg196
I3
sg197
I3
sa(dp200
g193
I1
sg194
F0.0071849822998046875
sg195
F0.17367339134216309
sg196
I2
sg197
I2
sasS'total_cqs'
p201
I9
ssI15
(dp202
S'iters'
p203
I4
sS'meta'
p204
(lp205
(dp206
S'objective'
p207
I0
sS'query_time'
p208
F4.146415948867798
sS'comp_time'
p209
F0.4961409568786621
sS'exec_cq'
p210
I11
sS'total_cq'
p211
I11
sa(dp212
g207
I1
sg208
F0.05005002021789551
sg209
F0.6165409088134766
sg210
I6
sg211
I6
sa(dp213
g207
I2
sg208
F0.0020589828491210938
sg209
F0.012420177459716797
sg210
I3
sg211
I3
sa(dp214
g207
I5
sg208
F0.0008809566497802734
sg209
F0.008737802505493164
sg210
I2
sg211
I2
sasS'total_cqs'
p215
I11
ssI16
(dp216
S'iters'
p217
I1
sS'meta'
p218
(lp219
(dp220
S'objective'
p221
I34
sS'query_time'
p222
F0.01169896125793457
sS'comp_time'
p223
F0.00030159950256347656
sS'exec_cq'
p224
I8
sS'total_cq'
p225
I8
sasS'total_cqs'
p226
I8
ssI17
(dp227
S'iters'
p228
I4
sS'meta'
p229
(lp230
(dp231
S'objective'
p232
I0
sS'query_time'
p233
F0.8505268096923828
sS'comp_time'
p234
F0.045761823654174805
sS'exec_cq'
p235
I11
sS'total_cq'
p236
I11
sa(dp237
g232
I17
sg233
F0.00015878677368164062
sg234
F0.0015060901641845703
sg235
I5
sg236
I5
sa(dp238
g232
I13
sg233
F0.0001380443572998047
sg234
F0.0016400814056396484
sg235
I4
sg236
I4
sa(dp239
g232
I17
sg233
F0.00012183189392089844
sg234
F0.0013036727905273438
sg235
I3
sg236
I3
sasS'total_cqs'
p240
I11
ssI18
(dp241
S'iters'
p242
I2
sS'meta'
p243
(lp244
(dp245
S'objective'
p246
I50
sS'query_time'
p247
F0.18736505508422852
sS'comp_time'
p248
F0.0019087791442871094
sS'exec_cq'
p249
I11
sS'total_cq'
p250
I11
sa(dp251
g246
I56
sg247
F0.0009121894836425781
sg248
F0.00096893310546875
sg249
I10
sg250
I10
sasS'total_cqs'
p252
I11
ssI19
(dp253
S'iters'
p254
I0
sS'meta'
p255
(lp256
sS'total_cqs'
p257
I1
ssI20
(dp258
S'iters'
p259
I0
sS'meta'
p260
(lp261
sS'total_cqs'
p262
I1
ssI21
(dp263
S'iters'
p264
I0
sS'meta'
p265
(lp266
sS'total_cqs'
p267
I1
ssI22
(dp268
S'iters'
p269
I1
sS'meta'
p270
(lp271
(dp272
S'objective'
p273
I169
sS'query_time'
p274
F0.049568891525268555
sS'comp_time'
p275
F0.0015971660614013672
sS'exec_cq'
p276
I18
sS'total_cq'
p277
I18
sasS'total_cqs'
p278
I18
ssI23
(dp279
S'iters'
p280
I3
sS'meta'
p281
(lp282
(dp283
S'objective'
p284
I102
sS'query_time'
p285
F0.01155996322631836
sS'comp_time'
p286
F0.00031876564025878906
sS'exec_cq'
p287
I8
sS'total_cq'
p288
I16
sa(dp289
g284
I113
sg285
F0.017473936080932617
sg286
F0.0005931854248046875
sg287
I8
sg288
I14
sa(dp290
g284
I114
sg285
F3.981590270996094e-05
sg286
F8.20159912109375e-05
sg287
I7
sg288
I13
sasS'total_cqs'
p291
I16
ssI24
(dp292
S'iters'
p293
I0
sS'meta'
p294
(lp295
sS'total_cqs'
p296
I1
ssI25
(dp297
S'iters'
p298
I0
sS'meta'
p299
(lp300
sS'total_cqs'
p301
I1
ssI26
(dp302
S'iters'
p303
I1
sS'meta'
p304
(lp305
(dp306
S'objective'
p307
I901
sS'query_time'
p308
F0.05219411849975586
sS'comp_time'
p309
F0.0003383159637451172
sS'exec_cq'
p310
I42
sS'total_cq'
p311
I42
sasS'total_cqs'
p312
I42
ssI27
(dp313
S'iters'
p314
I4
sS'meta'
p315
(lp316
(dp317
S'objective'
p318
I357
sS'query_time'
p319
F22.573848009109497
sS'comp_time'
p320
F6.263187885284424
sS'exec_cq'
p321
I30
sS'total_cq'
p322
I30
sa(dp323
g318
I4
sg319
F0.7596111297607422
sg320
F6.3062238693237305
sg321
I5
sg322
I5
sa(dp324
g318
I11
sg319
F0.5160009860992432
sg320
F4.37826681137085
sg321
I3
sg322
I3
sa(dp325
g318
I5
sg319
F0.545025110244751
sg320
F4.441373109817505
sg321
I2
sg322
I2
sasS'total_cqs'
p326
I30
ssI28
(dp327
S'iters'
p328
I0
sS'meta'
p329
(lp330
sS'total_cqs'
p331
I1
ssI29
(dp332
S'iters'
p333
I6
sS'meta'
p334
(lp335
(dp336
S'objective'
p337
I337
sS'query_time'
p338
F28.655630826950073
sS'comp_time'
p339
F0.640366792678833
sS'exec_cq'
p340
I35
sS'total_cq'
p341
I49
sa(dp342
g337
I34
sg338
F0.021736860275268555
sg339
F0.20604801177978516
sg340
I17
sg341
I17
sa(dp343
g337
I25
sg338
F0.0015769004821777344
sg339
F0.010098934173583984
sg340
I9
sg341
I9
sa(dp344
g337
I6
sg338
F0.000804901123046875
sg339
F0.008645772933959961
sg340
I4
sg341
I4
sa(dp345
g337
I6
sg338
F0.0007760524749755859
sg339
F0.007724761962890625
sg340
I3
sg341
I3
sa(dp346
g337
I16
sg338
F0.0006940364837646484
sg339
F0.007524967193603516
sg340
I2
sg341
I2
sasS'total_cqs'
p347
I49
ssI30
(dp348
S'iters'
p349
I1
sS'meta'
p350
(lp351
(dp352
S'objective'
p353
I1
sS'query_time'
p354
F0.6882240772247314
sS'comp_time'
p355
F0.06387591361999512
sS'exec_cq'
p356
I2
sS'total_cq'
p357
I2
sasS'total_cqs'
p358
I2
ssI31
(dp359
S'iters'
p360
I0
sS'meta'
p361
(lp362
sS'total_cqs'
p363
I1
ssI32
(dp364
S'iters'
p365
I1
sS'meta'
p366
(lp367
(dp368
S'objective'
p369
I1
sS'query_time'
p370
F0.00911402702331543
sS'comp_time'
p371
F0.0005879402160644531
sS'exec_cq'
p372
I2
sS'total_cq'
p373
I2
sasS'total_cqs'
p374
I2
ssI33
(dp375
S'iters'
p376
I6
sS'meta'
p377
(lp378
(dp379
S'objective'
p380
I3786
sS'query_time'
p381
F16.332886934280396
sS'comp_time'
p382
F0.4097480773925781
sS'exec_cq'
p383
I103
sS'total_cq'
p384
I103
sa(dp385
g380
I3
sg381
F0.008480072021484375
sg382
F0.03436708450317383
sg383
I16
sg384
I16
sa(dp386
g380
I0
sg381
F0.003025054931640625
sg382
F0.017868995666503906
sg383
I9
sg384
I9
sa(dp387
g380
I13
sg381
F0.0010020732879638672
sg382
F0.005717039108276367
sg383
I6
sg384
I6
sa(dp388
g380
I84
sg381
F0.00022411346435546875
sg382
F0.002098560333251953
sg383
I3
sg384
I3
sa(dp389
g380
I2
sg381
F0.00013184547424316406
sg382
F0.0014791488647460938
sg383
I2
sg384
I2
sasS'total_cqs'
p390
I103
ssI34
(dp391
S'iters'
p392
I1
sS'meta'
p393
(lp394
(dp395
S'objective'
p396
I1
sS'query_time'
p397
F0.013440132141113281
sS'comp_time'
p398
F0.0012443065643310547
sS'exec_cq'
p399
I2
sS'total_cq'
p400
I2
sasS'total_cqs'
p401
I2
ssI35
(dp402
S'iters'
p403
I5
sS'meta'
p404
(lp405
(dp406
S'objective'
p407
I1217
sS'query_time'
p408
F22.673245906829834
sS'comp_time'
p409
F0.3105039596557617
sS'exec_cq'
p410
I50
sS'total_cq'
p411
I70
sa(dp412
g407
I52
sg408
F0.004904031753540039
sg409
F0.02025604248046875
sg410
I16
sg411
I16
sa(dp413
g407
I1
sg408
F0.0025780200958251953
sg409
F0.009974002838134766
sg410
I7
sg411
I7
sa(dp414
g407
I7
sg408
F0.0008790493011474609
sg409
F0.005571842193603516
sg410
I4
sg411
I4
sa(dp415
g407
I67
sg408
F8.797645568847656e-05
sg409
F0.0008869171142578125
sg410
I2
sg411
I2
sasS'total_cqs'
p416
I70
ssI36
(dp417
S'iters'
p418
I2
sS'meta'
p419
(lp420
(dp421
S'objective'
p422
I469
sS'query_time'
p423
F0.7180020809173584
sS'comp_time'
p424
F0.018124818801879883
sS'exec_cq'
p425
I33
sS'total_cq'
p426
I33
sa(dp427
g422
I513
sg423
F0.0055768489837646484
sg424
F0.005460023880004883
sg425
I28
sg426
I29
sasS'total_cqs'
p428
I33
ssI37
(dp429
S'iters'
p430
I1
sS'meta'
p431
(lp432
(dp433
S'objective'
p434
I1
sS'query_time'
p435
F0.005645036697387695
sS'comp_time'
p436
F0.0003650188446044922
sS'exec_cq'
p437
I2
sS'total_cq'
p438
I2
sasS'total_cqs'
p439
I2
ssI38
(dp440
S'iters'
p441
I2
sS'meta'
p442
(lp443
(dp444
S'objective'
p445
I0
sS'query_time'
p446
F0.03786897659301758
sS'comp_time'
p447
F0.0012402534484863281
sS'exec_cq'
p448
I4
sS'total_cq'
p449
I4
sa(dp450
g445
I3
sg446
F0.0001220703125
sg447
F0.0009021759033203125
sg448
I2
sg449
I2
sasS'total_cqs'
p451
I4
ssI39
(dp452
S'iters'
p453
I2
sS'meta'
p454
(lp455
(dp456
S'objective'
p457
I668
sS'query_time'
p458
F0.07334399223327637
sS'comp_time'
p459
F0.0026421546936035156
sS'exec_cq'
p460
I44
sS'total_cq'
p461
I44
sa(dp462
g457
I827
sg458
F0.0003349781036376953
sg459
F0.0024356842041015625
sg460
I37
sg461
I37
sasS'total_cqs'
p463
I44
ssI40
(dp464
S'iters'
p465
I1
sS'meta'
p466
(lp467
(dp468
S'objective'
p469
I26
sS'query_time'
p470
F0.02091503143310547
sS'comp_time'
p471
F0.00014591217041015625
sS'exec_cq'
p472
I7
sS'total_cq'
p473
I7
sasS'total_cqs'
p474
I7
ssI41
(dp475
S'iters'
p476
I2
sS'meta'
p477
(lp478
(dp479
S'objective'
p480
I64
sS'query_time'
p481
F0.04626584053039551
sS'comp_time'
p482
F0.00024509429931640625
sS'exec_cq'
p483
I12
sS'total_cq'
p484
I12
sa(dp485
g480
I69
sg481
F6.794929504394531e-05
sg482
F0.00015091896057128906
sg483
I11
sg484
I11
sasS'total_cqs'
p486
I12
ssI42
(dp487
S'iters'
p488
I4
sS'meta'
p489
(lp490
(dp491
S'objective'
p492
I801
sS'query_time'
p493
F0.031017065048217773
sS'comp_time'
p494
F0.00020503997802734375
sS'exec_cq'
p495
I20
sS'total_cq'
p496
I41
sa(dp497
g492
I797
sg493
F0.018427133560180664
sg494
F0.00021910667419433594
sg495
I30
sg496
I40
sa(dp498
g492
I790
sg493
F0.0001361370086669922
sg494
F0.00016927719116210938
sg495
I29
sg496
I39
sa(dp499
g492
I800
sg493
F0.00012683868408203125
sg494
F0.00013709068298339844
sg495
I28
sg496
I38
sasS'total_cqs'
p500
I41
ssI43
(dp501
S'iters'
p502
I1
sS'meta'
p503
(lp504
(dp505
S'objective'
p506
I26
sS'query_time'
p507
F0.018798112869262695
sS'comp_time'
p508
F0.00017523765563964844
sS'exec_cq'
p509
I7
sS'total_cq'
p510
I7
sasS'total_cqs'
p511
I7
ssI44
(dp512
S'iters'
p513
I4
sS'meta'
p514
(lp515
(dp516
S'objective'
p517
I820
sS'query_time'
p518
F0.07994604110717773
sS'comp_time'
p519
F0.0027930736541748047
sS'exec_cq'
p520
I47
sS'total_cq'
p521
I47
sa(dp522
g517
I848
sg518
F0.0003669261932373047
sg519
F0.002092123031616211
sg520
I40
sg521
I40
sa(dp523
g517
I17
sg518
F0.00021910667419433594
sg519
F0.0013210773468017578
sg520
I3
sg521
I3
sa(dp524
g517
I21
sg518
F3.2901763916015625e-05
sg519
F0.0001900196075439453
sg520
I2
sg521
I2
sasS'total_cqs'
p525
I47
ssI45
(dp526
S'iters'
p527
I0
sS'meta'
p528
(lp529
sS'total_cqs'
p530
I1
ssI46
(dp531
S'iters'
p532
I3
sS'meta'
p533
(lp534
(dp535
S'objective'
p536
I13
sS'query_time'
p537
F0.011581897735595703
sS'comp_time'
p538
F0.0006270408630371094
sS'exec_cq'
p539
I4
sS'total_cq'
p540
I6
sa(dp541
g536
I13
sg537
F0.0038247108459472656
sg538
F0.0001652240753173828
sg539
I5
sg540
I5
sa(dp542
g536
I13
sg537
F2.47955322265625e-05
sg538
F9.918212890625e-05
sg539
I4
sg540
I4
sasS'total_cqs'
p543
I6
ssI47
(dp544
S'iters'
p545
I1
sS'meta'
p546
(lp547
(dp548
S'objective'
p549
I1
sS'query_time'
p550
F0.006453990936279297
sS'comp_time'
p551
F0.0004642009735107422
sS'exec_cq'
p552
I2
sS'total_cq'
p553
I2
sasS'total_cqs'
p554
I2
ssI48
(dp555
S'iters'
p556
I0
sS'meta'
p557
(lp558
sS'total_cqs'
p559
I1
ssI49
(dp560
S'iters'
p561
I0
sS'meta'
p562
(lp563
sS'total_cqs'
p564
I1
ssI50
(dp565
S'iters'
p566
I4
sS'meta'
p567
(lp568
(dp569
S'objective'
p570
I5
sS'query_time'
p571
F0.010849952697753906
sS'comp_time'
p572
F0.0001919269561767578
sS'exec_cq'
p573
I5
sS'total_cq'
p574
I5
sa(dp575
g570
I2
sg571
F2.5987625122070312e-05
sg572
F0.0001392364501953125
sg573
I4
sg574
I4
sa(dp576
g570
I0
sg571
F2.002716064453125e-05
sg572
F0.00013494491577148438
sg573
I3
sg574
I3
sa(dp577
g570
I1
sg571
F1.5974044799804688e-05
sg572
F0.00012111663818359375
sg573
I2
sg574
I2
sasS'total_cqs'
p578
I5
ssI51
(dp579
S'iters'
p580
I1
sS'meta'
p581
(lp582
(dp583
S'objective'
p584
I1
sS'query_time'
p585
F0.00875997543334961
sS'comp_time'
p586
F0.00030517578125
sS'exec_cq'
p587
I2
sS'total_cq'
p588
I2
sasS'total_cqs'
p589
I2
ssI52
(dp590
S'iters'
p591
I1
sS'meta'
p592
(lp593
(dp594
S'objective'
p595
I1
sS'query_time'
p596
F0.013900041580200195
sS'comp_time'
p597
F0.0005240440368652344
sS'exec_cq'
p598
I2
sS'total_cq'
p599
I2
sasS'total_cqs'
p600
I2
ssI53
(dp601
S'iters'
p602
I3
sS'meta'
p603
(lp604
(dp605
S'objective'
p606
I2
sS'query_time'
p607
F0.0248260498046875
sS'comp_time'
p608
F0.0011379718780517578
sS'exec_cq'
p609
I4
sS'total_cq'
p610
I4
sa(dp611
g606
I0
sg607
F9.799003601074219e-05
sg608
F0.0009329319000244141
sg609
I3
sg610
I3
sa(dp612
g606
I1
sg607
F8.797645568847656e-05
sg608
F0.011212348937988281
sg609
I2
sg610
I2
sasS'total_cqs'
p613
I4
ssI54
(dp614
S'iters'
p615
I2
sS'meta'
p616
(lp617
(dp618
S'objective'
p619
I0
sS'query_time'
p620
F0.00829005241394043
sS'comp_time'
p621
F0.0005452632904052734
sS'exec_cq'
p622
I3
sS'total_cq'
p623
I3
sa(dp624
g619
I1
sg620
F4.38690185546875e-05
sg621
F0.0003838539123535156
sg622
I2
sg623
I2
sasS'total_cqs'
p625
I3
ssI55
(dp626
S'iters'
p627
I9
sS'meta'
p628
(lp629
(dp630
S'objective'
p631
I4697
sS'query_time'
p632
F2.4553229808807373
sS'comp_time'
p633
F0.07661199569702148
sS'exec_cq'
p634
I109
sS'total_cq'
p635
I109
sa(dp636
g631
I4594
sg632
F0.0018820762634277344
sg633
F0.003278970718383789
sg634
I97
sg635
I97
sa(dp637
g631
I4546
sg632
F0.0004100799560546875
sg633
F0.00168609619140625
sg634
I91
sg635
I91
sa(dp638
g631
I4464
sg632
F0.0004241466522216797
sg633
F0.00152587890625
sg634
I87
sg635
I87
sa(dp639
g631
I4433
sg632
F0.0003609657287597656
sg633
F0.0013539791107177734
sg634
I85
sg635
I85
sa(dp640
g631
I4474
sg632
F0.0003139972686767578
sg633
F0.0011317729949951172
sg634
I83
sg635
I83
sa(dp641
g631
I4462
sg632
F0.00033092498779296875
sg633
F0.0010330677032470703
sg634
I81
sg635
I81
sa(dp642
g631
I4452
sg632
F0.0002808570861816406
sg633
F0.0008921623229980469
sg634
I80
sg635
I80
sa(dp643
g631
I4464
sg632
F0.0002849102020263672
sg633
F0.0008978843688964844
sg634
I79
sg635
I79
sasS'total_cqs'
p644
I109
ssI56
(dp645
S'iters'
p646
I6
sS'meta'
p647
(lp648
(dp649
S'objective'
p650
I1364
sS'query_time'
p651
F2.0067079067230225
sS'comp_time'
p652
F0.04295682907104492
sS'exec_cq'
p653
I67
sS'total_cq'
p654
I76
sa(dp655
g650
I13
sg651
F0.006818056106567383
sg652
F0.027749061584472656
sg653
I16
sg654
I16
sa(dp656
g650
I20
sg651
F0.0038678646087646484
sg652
F0.047850608825683594
sg653
I9
sg654
I9
sa(dp657
g650
I6
sg651
F0.0010979175567626953
sg652
F0.008098840713500977
sg653
I6
sg654
I6
sa(dp658
g650
I18
sg651
F0.0003612041473388672
sg652
F0.0034608840942382812
sg653
I3
sg654
I3
sa(dp659
g650
I38
sg651
F0.00018978118896484375
sg652
F0.002276897430419922
sg653
I2
sg654
I2
sasS'total_cqs'
p660
I76
ssI57
(dp661
S'iters'
p662
I7
sS'meta'
p663
(lp664
(dp665
S'objective'
p666
I146
sS'query_time'
p667
F22.76978898048401
sS'comp_time'
p668
F0.0625767707824707
sS'exec_cq'
p669
I45
sS'total_cq'
p670
I51
sa(dp671
g666
I48
sg667
F0.01800990104675293
sg668
F0.053617000579833984
sg669
I27
sg670
I27
sa(dp672
g666
I10
sg667
F0.014185905456542969
sg668
F0.04709506034851074
sg669
I12
sg670
I12
sa(dp673
g666
I19
sg667
F0.005124807357788086
sg668
F0.03052806854248047
sg669
I6
sg670
I6
sa(dp674
g666
I18
sg667
F0.002042055130004883
sg668
F0.019134998321533203
sg669
I4
sg670
I4
sa(dp675
g666
I16
sg667
F0.0016820430755615234
sg668
F0.1128077507019043
sg669
I3
sg670
I3
sa(dp676
g666
I4
sg667
F0.001569986343383789
sg668
F0.019780874252319336
sg669
I2
sg670
I2
sasS'total_cqs'
p677
I51
ssI58
(dp678
S'iters'
p679
I9
sS'meta'
p680
(lp681
(dp682
S'objective'
p683
I85027
sS'query_time'
p684
F116.39992594718933
sS'comp_time'
p685
F0.49109792709350586
sS'exec_cq'
p686
I348
sS'total_cq'
p687
I486
sa(dp688
g683
I87222
sg684
F0.03942108154296875
sg685
F1.5503425598144531
sg686
I276
sg687
I414
sa(dp689
g683
I119
sg684
F0.015619039535522461
sg685
F0.05066108703613281
sg686
I28
sg687
I28
sa(dp690
g683
I24
sg684
F0.00652003288269043
sg685
F0.026614904403686523
sg686
I14
sg687
I14
sa(dp691
g683
I34
sg684
F0.004794120788574219
sg685
F0.026250839233398438
sg686
I8
sg687
I8
sa(dp692
g683
I54
sg684
F0.004019975662231445
sg685
F0.024539709091186523
sg686
I6
sg687
I6
sa(dp693
g683
I245
sg684
F0.0036568641662597656
sg685
F0.021029233932495117
sg686
I4
sg687
I4
sa(dp694
g683
I44
sg684
F0.001728057861328125
sg685
F0.01837921142578125
sg686
I3
sg687
I3
sa(dp695
g683
I22
sg684
F0.0014641284942626953
sg685
F0.016002893447875977
sg686
I2
sg687
I2
sasS'total_cqs'
p696
I486
ssI59
(dp697
S'iters'
p698
I2
sS'meta'
p699
(lp700
(dp701
S'objective'
p702
I18
sS'query_time'
p703
F0.035958051681518555
sS'comp_time'
p704
F0.012361764907836914
sS'exec_cq'
p705
I7
sS'total_cq'
p706
I7
sa(dp707
g702
I3
sg703
F0.000164031982421875
sg704
F0.0018668174743652344
sg705
I2
sg706
I2
sasS'total_cqs'
p708
I7
ssI60
(dp709
S'iters'
p710
I4
sS'meta'
p711
(lp712
(dp713
S'objective'
p714
I11
sS'query_time'
p715
F0.009022951126098633
sS'comp_time'
p716
F0.00019407272338867188
sS'exec_cq'
p717
I2
sS'total_cq'
p718
I5
sa(dp719
g714
I3
sg715
F0.0029611587524414062
sg716
F0.00023221969604492188
sg717
I3
sg718
I4
sa(dp720
g714
I0
sg715
F8.296966552734375e-05
sg716
F0.0005729198455810547
sg717
I2
sg718
I3
sa(dp721
g714
I2
sg715
F7.867813110351562e-06
sg716
F7.43865966796875e-05
sg717
I1
sg718
I2
sasS'total_cqs'
p722
I5
ssI61
(dp723
S'iters'
p724
I0
sS'meta'
p725
(lp726
sS'total_cqs'
p727
I1
ssI62
(dp728
S'iters'
p729
I3
sS'meta'
p730
(lp731
(dp732
S'objective'
p733
I38
sS'query_time'
p734
F0.018410921096801758
sS'comp_time'
p735
F0.00033164024353027344
sS'exec_cq'
p736
I12
sS'total_cq'
p737
I12
sa(dp738
g733
I46
sg734
F5.602836608886719e-05
sg735
F0.00013494491577148438
sg736
I9
sg737
I9
sa(dp739
g733
I50
sg734
F3.600120544433594e-05
sg735
F0.0001010894775390625
sg736
I8
sg737
I8
sasS'total_cqs'
p740
I12
ssI63
(dp741
S'iters'
p742
I0
sS'meta'
p743
(lp744
sS'total_cqs'
p745
I1
ssI64
(dp746
S'iters'
p747
I3
sS'meta'
p748
(lp749
(dp750
S'objective'
p751
I26
sS'query_time'
p752
F0.09211993217468262
sS'comp_time'
p753
F0.006232023239135742
sS'exec_cq'
p754
I12
sS'total_cq'
p755
I12
sa(dp756
g751
I2
sg752
F9.393692016601562e-05
sg753
F0.0007381439208984375
sg754
I4
sg755
I4
sa(dp757
g751
I10
sg752
F2.47955322265625e-05
sg753
F0.0002129077911376953
sg754
I2
sg755
I2
sasS'total_cqs'
p758
I12
ssI65
(dp759
S'iters'
p760
I5
sS'meta'
p761
(lp762
(dp763
S'objective'
p764
I222
sS'query_time'
p765
F0.7940349578857422
sS'comp_time'
p766
F0.17184996604919434
sS'exec_cq'
p767
I27
sS'total_cq'
p768
I27
sa(dp769
g764
I0
sg765
F0.0013451576232910156
sg766
F0.008461236953735352
sg767
I7
sg768
I7
sa(dp770
g764
I1
sg765
F0.00047707557678222656
sg766
F0.003876209259033203
sg767
I5
sg768
I5
sa(dp771
g764
I2
sg765
F0.0002720355987548828
sg766
F0.003178119659423828
sg767
I3
sg768
I3
sa(dp772
g764
I7
sg765
F0.0002009868621826172
sg766
F0.0022733211517333984
sg767
I2
sg768
I2
sasS'total_cqs'
p773
I27
ssI66
(dp774
S'iters'
p775
I0
sS'meta'
p776
(lp777
sS'total_cqs'
p778
I1
ssI67
(dp779
S'iters'
p780
I2
sS'meta'
p781
(lp782
(dp783
S'objective'
p784
I574
sS'query_time'
p785
F1.1016809940338135
sS'comp_time'
p786
F0.016617774963378906
sS'exec_cq'
p787
I35
sS'total_cq'
p788
I35
sa(dp789
g784
I26
sg785
F0.0030050277709960938
sg786
F0.01505899429321289
sg787
I2
sg788
I2
sasS'total_cqs'
p790
I35
ssI68
(dp791
S'iters'
p792
I0
sS'meta'
p793
(lp794
sS'total_cqs'
p795
I1
ssI69
(dp796
S'iters'
p797
I1
sS'meta'
p798
(lp799
(dp800
S'objective'
p801
I1324
sS'query_time'
p802
F0.09791898727416992
sS'comp_time'
p803
F0.0005040168762207031
sS'exec_cq'
p804
I51
sS'total_cq'
p805
I51
sasS'total_cqs'
p806
I51
ssI70
(dp807
S'iters'
p808
I4
sS'meta'
p809
(lp810
(dp811
S'objective'
p812
I11
sS'query_time'
p813
F0.011307001113891602
sS'comp_time'
p814
F0.0007238388061523438
sS'exec_cq'
p815
I6
sS'total_cq'
p816
I6
sa(dp817
g812
I10
sg813
F5.507469177246094e-05
sg814
F0.00034499168395996094
sg815
I5
sg816
I5
sa(dp818
g812
I9
sg813
F3.981590270996094e-05
sg814
F0.0003027915954589844
sg815
I4
sg816
I4
sa(dp819
g812
I9
sg813
F3.504753112792969e-05
sg814
F0.0002570152282714844
sg815
I3
sg816
I3
sasS'total_cqs'
p820
I6
ssI71
(dp821
S'iters'
p822
I5
sS'meta'
p823
(lp824
(dp825
S'objective'
p826
I3289
sS'query_time'
p827
F0.13750195503234863
sS'comp_time'
p828
F0.0013349056243896484
sS'exec_cq'
p829
I73
sS'total_cq'
p830
I85
sa(dp831
g826
I3124
sg827
F0.00027489662170410156
sg828
F0.0007193088531494141
sg829
I69
sg830
I81
sa(dp832
g826
I3038
sg827
F0.00018787384033203125
sg828
F0.0005991458892822266
sg829
I65
sg830
I77
sa(dp833
g826
I6
sg827
F3.1948089599609375e-05
sg828
F0.0002472400665283203
sg829
I3
sg830
I3
sa(dp834
g826
I60
sg827
F2.5987625122070312e-05
sg828
F0.00021386146545410156
sg829
I2
sg830
I2
sasS'total_cqs'
p835
I85
ssI72
(dp836
S'iters'
p837
I3
sS'meta'
p838
(lp839
(dp840
S'objective'
p841
I10
sS'query_time'
p842
F0.02691483497619629
sS'comp_time'
p843
F0.0006742477416992188
sS'exec_cq'
p844
I4
sS'total_cq'
p845
I8
sa(dp846
g841
I1
sg842
F0.2875328063964844
sg843
F0.004585742950439453
sg844
I4
sg845
I6
sa(dp847
g841
I9
sg842
F2.2172927856445312e-05
sg843
F0.0001010894775390625
sg844
I2
sg845
I3
sasS'total_cqs'
p848
I8
ssI73
(dp849
S'iters'
p850
I0
sS'meta'
p851
(lp852
sS'total_cqs'
p853
I1
ssI74
(dp854
S'iters'
p855
I0
sS'meta'
p856
(lp857
sS'total_cqs'
p858
I1
ssI75
(dp859
S'iters'
p860
I4
sS'meta'
p861
(lp862
(dp863
S'objective'
p864
I5
sS'query_time'
p865
F0.0065729618072509766
sS'comp_time'
p866
F0.00016498565673828125
sS'exec_cq'
p867
I5
sS'total_cq'
p868
I5
sa(dp869
g864
I2
sg865
F1.9073486328125e-05
sg866
F0.0006620883941650391
sg867
I4
sg868
I4
sa(dp870
g864
I0
sg865
F2.3126602172851562e-05
sg866
F0.00011444091796875
sg867
I3
sg868
I3
sa(dp871
g864
I1
sg865
F1.9073486328125e-05
sg866
F0.0001049041748046875
sg867
I2
sg868
I2
sasS'total_cqs'
p872
I5
ssI76
(dp873
S'iters'
p874
I1
sS'meta'
p875
(lp876
(dp877
S'objective'
p878
I1
sS'query_time'
p879
F0.010934829711914062
sS'comp_time'
p880
F0.0005009174346923828
sS'exec_cq'
p881
I2
sS'total_cq'
p882
I2
sasS'total_cqs'
p883
I2
ssI77
(dp884
S'iters'
p885
I0
sS'meta'
p886
(lp887
sS'total_cqs'
p888
I1
ssI78
(dp889
S'iters'
p890
I0
sS'meta'
p891
(lp892
sS'total_cqs'
p893
I1
ssI103
(dp894
S'iters'
p895
I2
sS'meta'
p896
(lp897
(dp898
S'objective'
p899
I60
sS'query_time'
p900
F0.037506103515625
sS'comp_time'
p901
F0.0002899169921875
sS'exec_cq'
p902
I12
sS'total_cq'
p903
I12
sa(dp904
g899
I67
sg900
F6.508827209472656e-05
sg901
F0.00020003318786621094
sg902
I11
sg903
I11
sasS'total_cqs'
p905
I12
ssI104
(dp906
S'iters'
p907
I2
sS'meta'
p908
(lp909
(dp910
S'objective'
p911
I0
sS'query_time'
p912
F1.4537701606750488
sS'comp_time'
p913
F0.3837432861328125
sS'exec_cq'
p914
I4
sS'total_cq'
p915
I4
sa(dp916
g911
I3
sg912
F0.012784004211425781
sg913
F0.2782630920410156
sg914
I2
sg915
I2
sasS'total_cqs'
p917
I4
ssI105
(dp918
S'iters'
p919
I0
sS'meta'
p920
(lp921
sS'total_cqs'
p922
I1
ssI106
(dp923
S'iters'
p924
I1
sS'meta'
p925
(lp926
(dp927
S'objective'
p928
I8
sS'query_time'
p929
F0.01491999626159668
sS'comp_time'
p930
F0.0001671314239501953
sS'exec_cq'
p931
I4
sS'total_cq'
p932
I4
sasS'total_cqs'
p933
I4
ssI107
(dp934
S'iters'
p935
I2
sS'meta'
p936
(lp937
(dp938
S'objective'
p939
I90
sS'query_time'
p940
F0.04745793342590332
sS'comp_time'
p941
F0.0002579689025878906
sS'exec_cq'
p942
I16
sS'total_cq'
p943
I16
sa(dp944
g939
I21
sg940
F2.9087066650390625e-05
sg941
F0.0001633167266845703
sg942
I3
sg943
I3
sasS'total_cqs'
p945
I16
ssI108
(dp946
S'iters'
p947
I0
sS'meta'
p948
(lp949
sS'total_cqs'
p950
I1
ss.