(dp0
I1
(dp1
S'iters'
p2
I3
sS'meta'
p3
(lp4
(dp5
S'objective'
p6
I58
sS'query_time'
p7
F0.018342971801757812
sS'comp_time'
p8
F5.91278076171875e-05
sS'exec_cq'
p9
I3
sS'total_cq'
p10
I12
sa(dp11
g6
I52
sg7
F0.009066104888916016
sg8
F7.414817810058594e-05
sg9
I4
sg10
I11
sa(dp12
g6
I46
sg7
F0.007122993469238281
sg8
F4.482269287109375e-05
sg9
I4
sg10
I10
sasS'total_cqs'
p13
I12
ssI2
(dp14
S'iters'
p15
I7
sS'meta'
p16
(lp17
(dp18
S'objective'
p19
I298
sS'query_time'
p20
F0.028293848037719727
sS'comp_time'
p21
F8.988380432128906e-05
sS'exec_cq'
p22
I2
sS'total_cq'
p23
I27
sa(dp24
g19
I268
sg20
F0.020637035369873047
sg21
F5.1021575927734375e-05
sg22
I2
sg23
I25
sa(dp25
g19
I255
sg20
F0.02997303009033203
sg21
F5.602836608886719e-05
sg22
I2
sg23
I22
sa(dp26
g19
I213
sg20
F0.016729116439819336
sg21
F6.794929504394531e-05
sg22
I4
sg23
I21
sa(dp27
g19
I206
sg20
F0.02217888832092285
sg21
F5.507469177246094e-05
sg22
I4
sg23
I19
sa(dp28
g19
I184
sg20
F0.011967897415161133
sg21
F4.9114227294921875e-05
sg22
I5
sg23
I18
sa(dp29
g19
I175
sg20
F0.010406017303466797
sg21
F5.078315734863281e-05
sg22
I7
sg23
I16
sasS'total_cqs'
p30
I27
ssI3
(dp31
S'iters'
p32
I6
sS'meta'
p33
(lp34
(dp35
S'objective'
p36
I800
sS'query_time'
p37
F8.894379138946533
sS'comp_time'
p38
F0.0012121200561523438
sS'exec_cq'
p39
I1
sS'total_cq'
p40
I43
sa(dp41
g36
I755
sg37
F34.009769916534424
sg38
F9.298324584960938e-05
sg39
I2
sg40
I41
sa(dp42
g36
I470
sg37
F60.066505908966064
sg38
F0.00013184547424316406
sg39
I4
sg40
I36
sa(dp43
g36
I388
sg37
F7.387077808380127
sg38
F0.0002391338348388672
sg39
I4
sg40
I28
sa(dp44
g36
I105
sg37
F24.49555802345276
sg38
F8.20159912109375e-05
sg39
I5
sg40
I22
sa(dp45
g36
I264
sg37
F26.2222158908844
sg38
F7.700920104980469e-05
sg39
I7
sg40
I13
sasS'total_cqs'
p46
I43
ssI4
(dp47
S'iters'
p48
I1
sS'meta'
p49
(lp50
(dp51
S'objective'
p52
I52
sS'query_time'
p53
F3.68811297416687
sS'comp_time'
p54
F0.00034999847412109375
sS'exec_cq'
p55
I5
sS'total_cq'
p56
I11
sasS'total_cqs'
p57
I11
ssI5
(dp58
S'iters'
p59
I4
sS'meta'
p60
(lp61
(dp62
S'objective'
p63
I12
sS'query_time'
p64
F6.246463775634766
sS'comp_time'
p65
F0.0004780292510986328
sS'exec_cq'
p66
I1
sS'total_cq'
p67
I8
sa(dp68
g63
I10
sg64
F0.03554892539978027
sg65
F4.100799560546875e-05
sg66
I1
sg67
I6
sa(dp69
g63
I1
sg64
F0.30257105827331543
sg65
F5.507469177246094e-05
sg66
I1
sg67
I5
sa(dp70
g63
I2
sg64
F0.2738020420074463
sg65
F5.412101745605469e-05
sg66
I1
sg67
I2
sasS'total_cqs'
p71
I8
ssI6
(dp72
S'iters'
p73
I6
sS'meta'
p74
(lp75
(dp76
S'objective'
p77
I135
sS'query_time'
p78
F12.164620876312256
sS'comp_time'
p79
F0.0006308555603027344
sS'exec_cq'
p80
I1
sS'total_cq'
p81
I18
sa(dp82
g77
I119
sg78
F0.05457711219787598
sg79
F6.008148193359375e-05
sg80
I1
sg81
I17
sa(dp83
g77
I106
sg78
F0.06782913208007812
sg79
F6.914138793945312e-05
sg80
I2
sg81
I16
sa(dp84
g77
I81
sg78
F0.7915880680084229
sg79
F6.508827209472656e-05
sg80
I2
sg81
I15
sa(dp85
g77
I73
sg78
F6.405822038650513
sg79
F0.0004379749298095703
sg80
I2
sg81
I13
sa(dp86
g77
I67
sg78
F0.4135000705718994
sg79
F5.984306335449219e-05
sg80
I4
sg81
I11
sasS'total_cqs'
p87
I18
ssI7
(dp88
S'iters'
p89
I4
sS'meta'
p90
(lp91
(dp92
S'objective'
p93
I27
sS'query_time'
p94
F3.0173161029815674
sS'comp_time'
p95
F0.0002589225769042969
sS'exec_cq'
p96
I1
sS'total_cq'
p97
I9
sa(dp98
g93
I20
sg94
F0.18884992599487305
sg95
F7.700920104980469e-05
sg96
I1
sg97
I8
sa(dp99
g93
I4
sg94
F1.1320929527282715
sg95
F7.200241088867188e-05
sg96
I1
sg97
I7
sa(dp100
g93
I4
sg94
F0.17436504364013672
sg95
F6.794929504394531e-05
sg96
I1
sg97
I5
sasS'total_cqs'
p101
I9
ssI8
(dp102
S'iters'
p103
I4
sS'meta'
p104
(lp105
(dp106
S'objective'
p107
I238
sS'query_time'
p108
F0.032097816467285156
sS'comp_time'
p109
F8.20159912109375e-05
sS'exec_cq'
p110
I2
sS'total_cq'
p111
I27
sa(dp112
g107
I242
sg108
F0.025454044342041016
sg109
F7.891654968261719e-05
sg110
I3
sg111
I24
sa(dp113
g107
I187
sg108
F0.014794111251831055
sg109
F5.1975250244140625e-05
sg110
I5
sg111
I21
sa(dp114
g107
I201
sg108
F0.013705015182495117
sg109
F6.794929504394531e-05
sg110
I7
sg111
I18
sasS'total_cqs'
p115
I27
ssI9
(dp116
S'iters'
p117
I2
sS'meta'
p118
(lp119
(dp120
S'objective'
p121
I14
sS'query_time'
p122
F0.015321016311645508
sS'comp_time'
p123
F5.2928924560546875e-05
sS'exec_cq'
p124
I1
sS'total_cq'
p125
I7
sa(dp126
g121
I3
sg122
F0.003033161163330078
sg123
F4.1961669921875e-05
sg124
I1
sg125
I2
sasS'total_cqs'
p127
I7
ssI10
(dp128
S'iters'
p129
I4
sS'meta'
p130
(lp131
(dp132
S'objective'
p133
I656
sS'query_time'
p134
F0.05218696594238281
sS'comp_time'
p135
F6.008148193359375e-05
sS'exec_cq'
p136
I1
sS'total_cq'
p137
I51
sa(dp138
g133
I25
sg134
F0.03442192077636719
sg135
F3.886222839355469e-05
sg136
I1
sg137
I12
sa(dp139
g133
I49
sg134
F0.020493030548095703
sg135
F5.0067901611328125e-05
sg136
I1
sg137
I7
sa(dp140
g133
I1
sg134
F0.008648157119750977
sg135
F4.100799560546875e-05
sg136
I2
sg137
I3
sasS'total_cqs'
p141
I51
ssI11
(dp142
S'iters'
p143
I5
sS'meta'
p144
(lp145
(dp146
S'objective'
p147
I1478
sS'query_time'
p148
F0.11219096183776855
sS'comp_time'
p149
F7.915496826171875e-05
sS'exec_cq'
p150
I1
sS'total_cq'
p151
I63
sa(dp152
g147
I15
sg148
F0.018037080764770508
sg149
F3.910064697265625e-05
sg150
I1
sg151
I9
sa(dp153
g147
I37
sg148
F0.014344930648803711
sg149
F5.316734313964844e-05
sg150
I1
sg151
I6
sa(dp154
g147
I46
sg148
F0.01700901985168457
sg149
F6.890296936035156e-05
sg150
I2
sg151
I5
sa(dp155
g147
I2
sg148
F0.01110696792602539
sg149
F4.887580871582031e-05
sg150
I2
sg151
I4
sasS'total_cqs'
p156
I63
ssI12
(dp157
S'iters'
p158
I6
sS'meta'
p159
(lp160
(dp161
S'objective'
p162
I1175
sS'query_time'
p163
F0.09660696983337402
sS'comp_time'
p164
F7.700920104980469e-05
sS'exec_cq'
p165
I1
sS'total_cq'
p166
I50
sa(dp167
g162
I1033
sg163
F0.08611893653869629
sg164
F6.198883056640625e-05
sg165
I1
sg166
I49
sa(dp168
g162
I729
sg163
F0.06803107261657715
sg164
F5.888938903808594e-05
sg165
I1
sg166
I47
sa(dp169
g162
I16
sg163
F0.02519392967224121
sg164
F3.790855407714844e-05
sg165
I1
sg166
I7
sa(dp170
g162
I54
sg163
F0.009435892105102539
sg164
F4.506111145019531e-05
sg165
I1
sg166
I4
sa(dp171
g162
I25
sg163
F0.007387876510620117
sg164
F4.315376281738281e-05
sg165
I2
sg166
I2
sasS'total_cqs'
p172
I50
ssI13
(dp173
S'iters'
p174
I4
sS'meta'
p175
(lp176
(dp177
S'objective'
p178
I92
sS'query_time'
p179
F0.06388401985168457
sS'comp_time'
p180
F5.1021575927734375e-05
sS'exec_cq'
p181
I1
sS'total_cq'
p182
I20
sa(dp183
g178
I23
sg179
F0.03200507164001465
sg180
F7.891654968261719e-05
sg181
I2
sg182
I16
sa(dp184
g178
I35
sg179
F0.013288021087646484
sg180
F3.695487976074219e-05
sg181
I1
sg182
I8
sa(dp185
g178
I4
sg179
F0.0058138370513916016
sg180
F6.413459777832031e-05
sg181
I1
sg182
I2
sasS'total_cqs'
p186
I20
ssI14
(dp187
S'iters'
p188
I3
sS'meta'
p189
(lp190
(dp191
S'objective'
p192
I3
sS'query_time'
p193
F0.8128290176391602
sS'comp_time'
p194
F7.581710815429688e-05
sS'exec_cq'
p195
I1
sS'total_cq'
p196
I9
sa(dp197
g192
I3
sg193
F0.04425382614135742
sg194
F3.600120544433594e-05
sg195
I1
sg196
I4
sa(dp198
g192
I0
sg193
F0.3201308250427246
sg194
F7.295608520507812e-05
sg195
I1
sg196
I3
sasS'total_cqs'
p199
I9
ssI15
(dp200
S'iters'
p201
I5
sS'meta'
p202
(lp203
(dp204
S'objective'
p205
I44
sS'query_time'
p206
F0.02731490135192871
sS'comp_time'
p207
F6.29425048828125e-05
sS'exec_cq'
p208
I1
sS'total_cq'
p209
I11
sa(dp210
g205
I35
sg206
F0.05181407928466797
sg207
F7.700920104980469e-05
sg208
I1
sg209
I10
sa(dp211
g205
I27
sg206
F0.01324319839477539
sg207
F4.601478576660156e-05
sg208
I1
sg209
I9
sa(dp212
g205
I8
sg206
F0.09406304359436035
sg207
F7.081031799316406e-05
sg208
I1
sg209
I8
sa(dp213
g205
I8
sg206
F0.03955197334289551
sg207
F0.00016498565673828125
sg208
I1
sg209
I6
sasS'total_cqs'
p214
I11
ssI16
(dp215
S'iters'
p216
I1
sS'meta'
p217
(lp218
(dp219
S'objective'
p220
I26
sS'query_time'
p221
F0.010545015335083008
sS'comp_time'
p222
F4.601478576660156e-05
sS'exec_cq'
p223
I4
sS'total_cq'
p224
I8
sasS'total_cqs'
p225
I8
ssI17
(dp226
S'iters'
p227
I4
sS'meta'
p228
(lp229
(dp230
S'objective'
p231
I44
sS'query_time'
p232
F0.04258298873901367
sS'comp_time'
p233
F7.486343383789062e-05
sS'exec_cq'
p234
I1
sS'total_cq'
p235
I11
sa(dp236
g231
I7
sg232
F0.2783091068267822
sg233
F8.106231689453125e-05
sg234
I1
sg235
I10
sa(dp237
g231
I11
sg232
F0.03622317314147949
sg233
F5.91278076171875e-05
sg234
I1
sg235
I7
sa(dp238
g231
I7
sg232
F0.019898176193237305
sg233
F4.792213439941406e-05
sg234
I1
sg235
I5
sasS'total_cqs'
p239
I11
ssI18
(dp240
S'iters'
p241
I4
sS'meta'
p242
(lp243
(dp244
S'objective'
p245
I46
sS'query_time'
p246
F0.07458901405334473
sS'comp_time'
p247
F6.794929504394531e-05
sS'exec_cq'
p248
I2
sS'total_cq'
p249
I11
sa(dp250
g245
I38
sg246
F0.06687092781066895
sg247
F7.700920104980469e-05
sg248
I2
sg249
I10
sa(dp251
g245
I31
sg246
F0.03138399124145508
sg247
F6.699562072753906e-05
sg248
I2
sg249
I9
sa(dp252
g245
I25
sg246
F0.011467933654785156
sg247
F4.506111145019531e-05
sg248
I2
sg249
I8
sasS'total_cqs'
p253
I11
ssI19
(dp254
S'iters'
p255
I0
sS'meta'
p256
(lp257
sS'total_cqs'
p258
I1
ssI20
(dp259
S'iters'
p260
I0
sS'meta'
p261
(lp262
sS'total_cqs'
p263
I1
ssI21
(dp264
S'iters'
p265
I0
sS'meta'
p266
(lp267
sS'total_cqs'
p268
I1
ssI22
(dp269
S'iters'
p270
I1
sS'meta'
p271
(lp272
(dp273
S'objective'
p274
I151
sS'query_time'
p275
F0.04005622863769531
sS'comp_time'
p276
F8.606910705566406e-05
sS'exec_cq'
p277
I9
sS'total_cq'
p278
I18
sasS'total_cqs'
p279
I18
ssI23
(dp280
S'iters'
p281
I2
sS'meta'
p282
(lp283
(dp284
S'objective'
p285
I108
sS'query_time'
p286
F0.03273606300354004
sS'comp_time'
p287
F7.200241088867188e-05
sS'exec_cq'
p288
I3
sS'total_cq'
p289
I16
sa(dp290
g285
I104
sg286
F0.016809940338134766
sg287
F8.20159912109375e-05
sg288
I7
sg289
I15
sasS'total_cqs'
p291
I16
ssI24
(dp292
S'iters'
p293
I0
sS'meta'
p294
(lp295
sS'total_cqs'
p296
I1
ssI25
(dp297
S'iters'
p298
I0
sS'meta'
p299
(lp300
sS'total_cqs'
p301
I1
ssI26
(dp302
S'iters'
p303
I1
sS'meta'
p304
(lp305
(dp306
S'objective'
p307
I859
sS'query_time'
p308
F0.05742287635803223
sS'comp_time'
p309
F7.796287536621094e-05
sS'exec_cq'
p310
I21
sS'total_cq'
p311
I42
sasS'total_cqs'
p312
I42
ssI27
(dp313
S'iters'
p314
I4
sS'meta'
p315
(lp316
(dp317
S'objective'
p318
I421
sS'query_time'
p319
F3.9529869556427
sS'comp_time'
p320
F0.0002918243408203125
sS'exec_cq'
p321
I9
sS'total_cq'
p322
I30
sa(dp323
g318
I395
sg319
F0.3621249198913574
sg320
F6.008148193359375e-05
sg321
I9
sg322
I29
sa(dp324
g318
I379
sg319
F0.34193992614746094
sg320
F7.081031799316406e-05
sg321
I9
sg322
I27
sa(dp325
g318
I367
sg319
F2.86392879486084
sg320
F8.606910705566406e-05
sg321
I12
sg322
I26
sasS'total_cqs'
p326
I30
ssI28
(dp327
S'iters'
p328
I0
sS'meta'
p329
(lp330
sS'total_cqs'
p331
I1
ssI29
(dp332
S'iters'
p333
I19
sS'meta'
p334
(lp335
(dp336
S'objective'
p337
I1127
sS'query_time'
p338
F2.964479923248291
sS'comp_time'
p339
F0.001603841781616211
sS'exec_cq'
p340
I1
sS'total_cq'
p341
I49
sa(dp342
g337
I988
sg338
F0.7230420112609863
sg339
F0.000102996826171875
sg340
I1
sg341
I48
sa(dp343
g337
I846
sg338
F0.6115849018096924
sg339
F9.703636169433594e-05
sg340
I1
sg341
I46
sa(dp344
g337
I836
sg338
F7.602622985839844
sg339
F0.00025010108947753906
sg340
I1
sg341
I43
sa(dp345
g337
I812
sg338
F0.04914402961730957
sg339
F7.581710815429688e-05
sg340
I1
sg341
I41
sa(dp346
g337
I662
sg338
F0.37848401069641113
sg339
F8.487701416015625e-05
sg340
I1
sg341
I40
sa(dp347
g337
I677
sg338
F6.885164976119995
sg339
F0.000225067138671875
sg340
I1
sg341
I36
sa(dp348
g337
I638
sg338
F0.6715188026428223
sg339
F8.416175842285156e-05
sg340
I1
sg341
I35
sa(dp349
g337
I600
sg338
F1.6318459510803223
sg339
F8.320808410644531e-05
sg340
I1
sg341
I34
sa(dp350
g337
I479
sg338
F0.923638105392456
sg339
F8.177757263183594e-05
sg340
I1
sg341
I33
sa(dp351
g337
I485
sg338
F8.115087032318115
sg339
F0.000141143798828125
sg340
I1
sg341
I29
sa(dp352
g337
I450
sg338
F0.40953707695007324
sg339
F8.20159912109375e-05
sg340
I1
sg341
I28
sa(dp353
g337
I388
sg338
F0.7108149528503418
sg339
F8.20159912109375e-05
sg340
I1
sg341
I27
sa(dp354
g337
I337
sg338
F17.465776920318604
sg339
F0.0002570152282714844
sg340
I1
sg341
I24
sa(dp355
g337
I321
sg338
F0.3143739700317383
sg339
F7.796287536621094e-05
sg340
I1
sg341
I22
sa(dp356
g337
I264
sg338
F0.213486909866333
sg339
F9.202957153320312e-05
sg340
I2
sg341
I21
sa(dp357
g337
I237
sg338
F0.15349602699279785
sg339
F3.695487976074219e-05
sg340
I2
sg341
I19
sa(dp358
g337
I215
sg338
F0.021709918975830078
sg339
F3.790855407714844e-05
sg340
I2
sg341
I17
sa(dp359
g337
I192
sg338
F0.15917706489562988
sg339
F6.103515625e-05
sg340
I3
sg341
I16
sasS'total_cqs'
p360
I49
ssI30
(dp361
S'iters'
p362
I1
sS'meta'
p363
(lp364
(dp365
S'objective'
p366
I1
sS'query_time'
p367
F0.6908049583435059
sS'comp_time'
p368
F9.012222290039062e-05
sS'exec_cq'
p369
I1
sS'total_cq'
p370
I2
sasS'total_cqs'
p371
I2
ssI31
(dp372
S'iters'
p373
I0
sS'meta'
p374
(lp375
sS'total_cqs'
p376
I1
ssI32
(dp377
S'iters'
p378
I1
sS'meta'
p379
(lp380
(dp381
S'objective'
p382
I1
sS'query_time'
p383
F0.008419036865234375
sS'comp_time'
p384
F5.0067901611328125e-05
sS'exec_cq'
p385
I1
sS'total_cq'
p386
I2
sasS'total_cqs'
p387
I2
ssI33
(dp388
S'iters'
p389
I16
sS'meta'
p390
(lp391
(dp392
S'objective'
p393
I4962
sS'query_time'
p394
F0.9684720039367676
sS'comp_time'
p395
F0.0001251697540283203
sS'exec_cq'
p396
I1
sS'total_cq'
p397
I103
sa(dp398
g393
I4957
sg394
F0.8880829811096191
sg395
F0.0001010894775390625
sg396
I2
sg397
I101
sa(dp399
g393
I4714
sg394
F0.9962451457977295
sg395
F0.00011301040649414062
sg396
I10
sg397
I100
sa(dp400
g393
I4710
sg394
F0.658635139465332
sg395
F0.00010800361633300781
sg396
I12
sg397
I98
sa(dp401
g393
I4458
sg394
F0.6485209465026855
sg395
F0.00013017654418945312
sg396
I13
sg397
I97
sa(dp402
g393
I4458
sg394
F3.101961135864258
sg395
F0.00011205673217773438
sg396
I13
sg397
I93
sa(dp403
g393
I4317
sg394
F0.8496718406677246
sg395
F0.00011205673217773438
sg396
I17
sg397
I92
sa(dp404
g393
I4182
sg394
F1.844918966293335
sg395
F0.0001239776611328125
sg396
I19
sg397
I90
sa(dp405
g393
I4132
sg394
F0.48905515670776367
sg395
F0.00012302398681640625
sg396
I22
sg397
I88
sa(dp406
g393
I4081
sg394
F0.3495659828186035
sg395
F7.915496826171875e-05
sg396
I24
sg397
I86
sa(dp407
g393
I3736
sg394
F0.41386890411376953
sg395
F0.00011014938354492188
sg396
I28
sg397
I85
sa(dp408
g393
I3817
sg394
F0.29045796394348145
sg395
F8.893013000488281e-05
sg396
I28
sg397
I79
sa(dp409
g393
I3574
sg394
F0.3000931739807129
sg395
F0.00011086463928222656
sg396
I29
sg397
I78
sa(dp410
g393
I3533
sg394
F0.21823406219482422
sg395
F0.00011205673217773438
sg396
I29
sg397
I75
sa(dp411
g393
I3458
sg394
F0.31745195388793945
sg395
F9.918212890625e-05
sg396
I31
sg397
I73
sa(dp412
g393
I3438
sg394
F0.13545012474060059
sg395
F6.604194641113281e-05
sg396
I32
sg397
I71
sasS'total_cqs'
p413
I103
ssI34
(dp414
S'iters'
p415
I1
sS'meta'
p416
(lp417
(dp418
S'objective'
p419
I1
sS'query_time'
p420
F0.012476205825805664
sS'comp_time'
p421
F5.698204040527344e-05
sS'exec_cq'
p422
I1
sS'total_cq'
p423
I2
sasS'total_cqs'
p424
I2
ssI35
(dp425
S'iters'
p426
I10
sS'meta'
p427
(lp428
(dp429
S'objective'
p430
I2317
sS'query_time'
p431
F4.179735898971558
sS'comp_time'
p432
F0.00010418891906738281
sS'exec_cq'
p433
I2
sS'total_cq'
p434
I70
sa(dp435
g430
I2269
sg431
F26.49309802055359
sg432
F0.00013399124145507812
sg433
I4
sg434
I67
sa(dp436
g430
I2093
sg431
F1.3652379512786865
sg432
F0.00010895729064941406
sg433
I5
sg434
I66
sa(dp437
g430
I2088
sg431
F16.229490995407104
sg432
F0.0007150173187255859
sg433
I5
sg434
I63
sa(dp438
g430
I1541
sg431
F2.3613500595092773
sg432
F0.0001709461212158203
sg433
I5
sg434
I62
sa(dp439
g430
I181
sg431
F0.07216596603393555
sg432
F2.6941299438476562e-05
sg433
I1
sg434
I7
sa(dp440
g430
I137
sg431
F0.21159791946411133
sg432
F6.389617919921875e-05
sg433
I1
sg434
I6
sa(dp441
g430
I94
sg431
F0.07720518112182617
sg432
F4.57763671875e-05
sg433
I1
sg434
I5
sa(dp442
g430
I62
sg431
F0.2042701244354248
sg432
F6.604194641113281e-05
sg433
I1
sg434
I4
sa(dp443
g430
I30
sg431
F0.07466697692871094
sg432
F0.00010514259338378906
sg433
I1
sg434
I3
sasS'total_cqs'
p444
I70
ssI36
(dp445
S'iters'
p446
I5
sS'meta'
p447
(lp448
(dp449
S'objective'
p450
I427
sS'query_time'
p451
F0.05569100379943848
sS'comp_time'
p452
F8.797645568847656e-05
sS'exec_cq'
p453
I2
sS'total_cq'
p454
I33
sa(dp455
g450
I440
sg451
F0.18950510025024414
sg452
F8.106231689453125e-05
sg453
I6
sg454
I30
sa(dp456
g450
I419
sg451
F0.03607511520385742
sg452
F9.608268737792969e-05
sg453
I8
sg454
I29
sa(dp457
g450
I367
sg451
F0.0291440486907959
sg452
F6.985664367675781e-05
sg453
I8
sg454
I28
sa(dp458
g450
I369
sg451
F0.04692482948303223
sg452
F7.987022399902344e-05
sg453
I11
sg454
I26
sasS'total_cqs'
p459
I33
ssI37
(dp460
S'iters'
p461
I1
sS'meta'
p462
(lp463
(dp464
S'objective'
p465
I1
sS'query_time'
p466
F0.007264852523803711
sS'comp_time'
p467
F4.792213439941406e-05
sS'exec_cq'
p468
I1
sS'total_cq'
p469
I2
sasS'total_cqs'
p470
I2
ssI38
(dp471
S'iters'
p472
I3
sS'meta'
p473
(lp474
(dp475
S'objective'
p476
I8
sS'query_time'
p477
F0.010537147521972656
sS'comp_time'
p478
F4.1961669921875e-05
sS'exec_cq'
p479
I1
sS'total_cq'
p480
I4
sa(dp481
g476
I5
sg477
F0.007498979568481445
sg478
F3.1948089599609375e-05
sg479
I1
sg480
I3
sa(dp482
g476
I1
sg477
F0.020711183547973633
sg478
F3.0994415283203125e-05
sg479
I1
sg480
I2
sasS'total_cqs'
p483
I4
ssI39
(dp484
S'iters'
p485
I4
sS'meta'
p486
(lp487
(dp488
S'objective'
p489
I654
sS'query_time'
p490
F0.048356056213378906
sS'comp_time'
p491
F7.700920104980469e-05
sS'exec_cq'
p492
I11
sS'total_cq'
p493
I44
sa(dp494
g489
I100
sg490
F0.01630711555480957
sg491
F4.792213439941406e-05
sg492
I2
sg493
I8
sa(dp495
g489
I74
sg490
F0.014071941375732422
sg491
F4.482269287109375e-05
sg492
I2
sg493
I7
sa(dp496
g489
I58
sg490
F0.03799295425415039
sg491
F6.699562072753906e-05
sg492
I2
sg493
I6
sasS'total_cqs'
p497
I44
ssI40
(dp498
S'iters'
p499
I1
sS'meta'
p500
(lp501
(dp502
S'objective'
p503
I18
sS'query_time'
p504
F0.018993854522705078
sS'comp_time'
p505
F5.4836273193359375e-05
sS'exec_cq'
p506
I3
sS'total_cq'
p507
I7
sasS'total_cqs'
p508
I7
ssI41
(dp509
S'iters'
p510
I2
sS'meta'
p511
(lp512
(dp513
S'objective'
p514
I58
sS'query_time'
p515
F0.027711153030395508
sS'comp_time'
p516
F7.200241088867188e-05
sS'exec_cq'
p517
I3
sS'total_cq'
p518
I12
sa(dp519
g514
I54
sg515
F0.029184818267822266
sg516
F6.818771362304688e-05
sg517
I5
sg518
I11
sasS'total_cqs'
p520
I12
ssI42
(dp521
S'iters'
p522
I2
sS'meta'
p523
(lp524
(dp525
S'objective'
p526
I801
sS'query_time'
p527
F0.03533196449279785
sS'comp_time'
p528
F7.486343383789062e-05
sS'exec_cq'
p529
I12
sS'total_cq'
p530
I41
sa(dp531
g526
I787
sg527
F0.02319788932800293
sg528
F6.508827209472656e-05
sg529
I19
sg530
I40
sasS'total_cqs'
p532
I41
ssI43
(dp533
S'iters'
p534
I1
sS'meta'
p535
(lp536
(dp537
S'objective'
p538
I18
sS'query_time'
p539
F0.0178830623626709
sS'comp_time'
p540
F6.699562072753906e-05
sS'exec_cq'
p541
I3
sS'total_cq'
p542
I7
sasS'total_cqs'
p543
I7
ssI44
(dp544
S'iters'
p545
I5
sS'meta'
p546
(lp547
(dp548
S'objective'
p549
I754
sS'query_time'
p550
F0.053231000900268555
sS'comp_time'
p551
F6.198883056640625e-05
sS'exec_cq'
p552
I3
sS'total_cq'
p553
I47
sa(dp554
g549
I855
sg550
F0.04349398612976074
sg551
F7.700920104980469e-05
sg552
I4
sg553
I40
sa(dp555
g549
I820
sg550
F0.08044004440307617
sg551
F7.700920104980469e-05
sg552
I7
sg553
I39
sa(dp556
g549
I805
sg550
F0.03194308280944824
sg551
F7.486343383789062e-05
sg552
I16
sg553
I38
sa(dp557
g549
I23
sg550
F0.00109100341796875
sg551
F3.1948089599609375e-05
sg552
I1
sg553
I2
sasS'total_cqs'
p558
I47
ssI45
(dp559
S'iters'
p560
I0
sS'meta'
p561
(lp562
sS'total_cqs'
p563
I1
ssI46
(dp564
S'iters'
p565
I2
sS'meta'
p566
(lp567
(dp568
S'objective'
p569
I9
sS'query_time'
p570
F0.008978843688964844
sS'comp_time'
p571
F6.4849853515625e-05
sS'exec_cq'
p572
I1
sS'total_cq'
p573
I6
sa(dp574
g569
I7
sg570
F0.027688980102539062
sg571
F7.104873657226562e-05
sg572
I2
sg573
I5
sasS'total_cqs'
p575
I6
ssI47
(dp576
S'iters'
p577
I1
sS'meta'
p578
(lp579
(dp580
S'objective'
p581
I1
sS'query_time'
p582
F0.006350994110107422
sS'comp_time'
p583
F4.38690185546875e-05
sS'exec_cq'
p584
I1
sS'total_cq'
p585
I2
sasS'total_cqs'
p586
I2
ssI48
(dp587
S'iters'
p588
I0
sS'meta'
p589
(lp590
sS'total_cqs'
p591
I1
ssI49
(dp592
S'iters'
p593
I0
sS'meta'
p594
(lp595
sS'total_cqs'
p596
I1
ssI50
(dp597
S'iters'
p598
I2
sS'meta'
p599
(lp600
(dp601
S'objective'
p602
I5
sS'query_time'
p603
F0.003930091857910156
sS'comp_time'
p604
F4.506111145019531e-05
sS'exec_cq'
p605
I1
sS'total_cq'
p606
I5
sa(dp607
g602
I2
sg603
F0.004220008850097656
sg604
F4.601478576660156e-05
sg605
I1
sg606
I4
sasS'total_cqs'
p608
I5
ssI51
(dp609
S'iters'
p610
I1
sS'meta'
p611
(lp612
(dp613
S'objective'
p614
I1
sS'query_time'
p615
F0.00562286376953125
sS'comp_time'
p616
F4.7206878662109375e-05
sS'exec_cq'
p617
I1
sS'total_cq'
p618
I2
sasS'total_cqs'
p619
I2
ssI52
(dp620
S'iters'
p621
I1
sS'meta'
p622
(lp623
(dp624
S'objective'
p625
I1
sS'query_time'
p626
F0.005811929702758789
sS'comp_time'
p627
F5.0067901611328125e-05
sS'exec_cq'
p628
I1
sS'total_cq'
p629
I2
sasS'total_cqs'
p630
I2
ssI53
(dp631
S'iters'
p632
I1
sS'meta'
p633
(lp634
(dp635
S'objective'
p636
I4
sS'query_time'
p637
F0.006229877471923828
sS'comp_time'
p638
F4.410743713378906e-05
sS'exec_cq'
p639
I1
sS'total_cq'
p640
I4
sasS'total_cqs'
p641
I4
ssI54
(dp642
S'iters'
p643
I1
sS'meta'
p644
(lp645
(dp646
S'objective'
p647
I0
sS'query_time'
p648
F0.0077800750732421875
sS'comp_time'
p649
F5.1975250244140625e-05
sS'exec_cq'
p650
I1
sS'total_cq'
p651
I3
sasS'total_cqs'
p652
I3
ssI55
(dp653
S'iters'
p654
I2
sS'meta'
p655
(lp656
(dp657
S'objective'
p658
I5277
sS'query_time'
p659
F0.30565595626831055
sS'comp_time'
p660
F0.00013113021850585938
sS'exec_cq'
p661
I3
sS'total_cq'
p662
I109
sa(dp663
g658
I247
sg659
F0.009443044662475586
sg660
F4.00543212890625e-05
sg661
I1
sg662
I4
sasS'total_cqs'
p664
I109
ssI56
(dp665
S'iters'
p666
I11
sS'meta'
p667
(lp668
(dp669
S'objective'
p670
I2672
sS'query_time'
p671
F0.36451292037963867
sS'comp_time'
p672
F0.00011491775512695312
sS'exec_cq'
p673
I4
sS'total_cq'
p674
I76
sa(dp675
g670
I2465
sg671
F0.2585620880126953
sg672
F9.512901306152344e-05
sg673
I5
sg674
I74
sa(dp676
g670
I2362
sg671
F0.2937309741973877
sg672
F0.00011396408081054688
sg673
I7
sg674
I70
sa(dp677
g670
I2159
sg671
F0.21489405632019043
sg672
F6.890296936035156e-05
sg673
I7
sg674
I67
sa(dp678
g670
I2210
sg671
F0.9033229351043701
sg672
F0.00010800361633300781
sg673
I12
sg674
I64
sa(dp679
g670
I2149
sg671
F0.24144911766052246
sg672
F9.512901306152344e-05
sg673
I13
sg674
I63
sa(dp680
g670
I2099
sg671
F0.1899127960205078
sg672
F8.702278137207031e-05
sg673
I13
sg674
I61
sa(dp681
g670
I2048
sg671
F0.13817191123962402
sg672
F7.390975952148438e-05
sg673
I13
sg674
I60
sa(dp682
g670
I1863
sg671
F0.27062106132507324
sg672
F0.00010895729064941406
sg673
I22
sg674
I59
sa(dp683
g670
I33
sg671
F0.025385141372680664
sg672
F5.1975250244140625e-05
sg673
I1
sg674
I4
sa(dp684
g670
I2
sg671
F0.01595306396484375
sg672
F0.0003559589385986328
sg673
I1
sg674
I3
sasS'total_cqs'
p685
I76
ssI57
(dp686
S'iters'
p687
I5
sS'meta'
p688
(lp689
(dp690
S'objective'
p691
I334
sS'query_time'
p692
F0.8173599243164062
sS'comp_time'
p693
F9.179115295410156e-05
sS'exec_cq'
p694
I1
sS'total_cq'
p695
I51
sa(dp696
g691
I734
sg692
F0.023066043853759766
sg693
F4.601478576660156e-05
sg694
I2
sg695
I33
sa(dp697
g691
I526
sg692
F0.4224228858947754
sg693
F0.0001289844512939453
sg694
I2
sg695
I32
sa(dp698
g691
I18
sg692
F0.05306601524353027
sg693
F3.504753112792969e-05
sg694
I1
sg695
I4
sa(dp699
g691
I19
sg692
F0.3405117988586426
sg693
F2.9802322387695312e-05
sg694
I1
sg695
I2
sasS'total_cqs'
p700
I51
ssI58
(dp701
S'iters'
p702
I4
sS'meta'
p703
(lp704
(dp705
S'objective'
p706
I116655
sS'query_time'
p707
F2.274600028991699
sS'comp_time'
p708
F0.0005528926849365234
sS'exec_cq'
p709
I1
sS'total_cq'
p710
I486
sa(dp711
g706
I113648
sg707
F0.7580699920654297
sg708
F0.0003991127014160156
sg709
I1
sg710
I482
sa(dp712
g706
I397
sg707
F0.0729830265045166
sg708
F4.315376281738281e-05
sg709
I1
sg710
I6
sa(dp713
g706
I673
sg707
F0.05026507377624512
sg708
F2.5987625122070312e-05
sg709
I1
sg710
I4
sasS'total_cqs'
p714
I486
ssI59
(dp715
S'iters'
p716
I2
sS'meta'
p717
(lp718
(dp719
S'objective'
p720
I16
sS'query_time'
p721
F0.0171658992767334
sS'comp_time'
p722
F5.0067901611328125e-05
sS'exec_cq'
p723
I3
sS'total_cq'
p724
I7
sa(dp725
g720
I4
sg721
F0.04019284248352051
sg722
F6.699562072753906e-05
sg723
I2
sg724
I2
sasS'total_cqs'
p726
I7
ssI60
(dp727
S'iters'
p728
I1
sS'meta'
p729
(lp730
(dp731
S'objective'
p732
I7
sS'query_time'
p733
F0.01349186897277832
sS'comp_time'
p734
F5.412101745605469e-05
sS'exec_cq'
p735
I2
sS'total_cq'
p736
I5
sasS'total_cqs'
p737
I5
ssI61
(dp738
S'iters'
p739
I0
sS'meta'
p740
(lp741
sS'total_cqs'
p742
I1
ssI62
(dp743
S'iters'
p744
I2
sS'meta'
p745
(lp746
(dp747
S'objective'
p748
I50
sS'query_time'
p749
F0.015926837921142578
sS'comp_time'
p750
F5.4836273193359375e-05
sS'exec_cq'
p751
I4
sS'total_cq'
p752
I12
sa(dp753
g748
I50
sg749
F0.0060770511627197266
sg750
F5.5789947509765625e-05
sg751
I5
sg752
I9
sasS'total_cqs'
p754
I12
ssI63
(dp755
S'iters'
p756
I0
sS'meta'
p757
(lp758
sS'total_cqs'
p759
I1
ssI64
(dp760
S'iters'
p761
I5
sS'meta'
p762
(lp763
(dp764
S'objective'
p765
I34
sS'query_time'
p766
F0.03489398956298828
sS'comp_time'
p767
F4.410743713378906e-05
sS'exec_cq'
p768
I1
sS'total_cq'
p769
I12
sa(dp770
g765
I34
sg766
F0.0267331600189209
sg767
F5.2928924560546875e-05
sg768
I1
sg769
I10
sa(dp771
g765
I27
sg766
F0.04881691932678223
sg767
F5.4836273193359375e-05
sg768
I1
sg769
I9
sa(dp772
g765
I18
sg766
F0.020221948623657227
sg767
F4.601478576660156e-05
sg768
I2
sg769
I8
sa(dp773
g765
I5
sg766
F0.003522157669067383
sg767
F3.409385681152344e-05
sg768
I1
sg769
I2
sasS'total_cqs'
p774
I12
ssI65
(dp775
S'iters'
p776
I3
sS'meta'
p777
(lp778
(dp779
S'objective'
p780
I324
sS'query_time'
p781
F0.6614129543304443
sS'comp_time'
p782
F9.393692016601562e-05
sS'exec_cq'
p783
I1
sS'total_cq'
p784
I27
sa(dp785
g780
I273
sg781
F0.024081945419311523
sg782
F6.389617919921875e-05
sg783
I3
sg784
I26
sa(dp786
g780
I9
sg781
F0.0040628910064697266
sg782
F4.792213439941406e-05
sg783
I2
sg784
I2
sasS'total_cqs'
p787
I27
ssI66
(dp788
S'iters'
p789
I0
sS'meta'
p790
(lp791
sS'total_cqs'
p792
I1
ssI67
(dp793
S'iters'
p794
I1
sS'meta'
p795
(lp796
(dp797
S'objective'
p798
I592
sS'query_time'
p799
F0.991786003112793
sS'comp_time'
p800
F8.821487426757812e-05
sS'exec_cq'
p801
I17
sS'total_cq'
p802
I35
sasS'total_cqs'
p803
I35
ssI68
(dp804
S'iters'
p805
I0
sS'meta'
p806
(lp807
sS'total_cqs'
p808
I1
ssI69
(dp809
S'iters'
p810
I1
sS'meta'
p811
(lp812
(dp813
S'objective'
p814
I1272
sS'query_time'
p815
F0.1057438850402832
sS'comp_time'
p816
F9.202957153320312e-05
sS'exec_cq'
p817
I25
sS'total_cq'
p818
I51
sasS'total_cqs'
p819
I51
ssI70
(dp820
S'iters'
p821
I2
sS'meta'
p822
(lp823
(dp824
S'objective'
p825
I11
sS'query_time'
p826
F0.0072650909423828125
sS'comp_time'
p827
F4.601478576660156e-05
sS'exec_cq'
p828
I2
sS'total_cq'
p829
I6
sa(dp830
g825
I8
sg826
F0.007495880126953125
sg827
F5.078315734863281e-05
sg828
I2
sg829
I5
sasS'total_cqs'
p831
I6
ssI71
(dp832
S'iters'
p833
I7
sS'meta'
p834
(lp835
(dp836
S'objective'
p837
I3475
sS'query_time'
p838
F0.06968116760253906
sS'comp_time'
p839
F9.584426879882812e-05
sS'exec_cq'
p840
I5
sS'total_cq'
p841
I85
sa(dp842
g837
I3421
sg838
F0.10360598564147949
sg839
F9.799003601074219e-05
sg840
I13
sg841
I83
sa(dp843
g837
I3353
sg838
F0.05962705612182617
sg839
F6.29425048828125e-05
sg840
I14
sg841
I82
sa(dp844
g837
I3285
sg838
F0.06244087219238281
sg839
F6.794929504394531e-05
sg840
I14
sg841
I81
sa(dp845
g837
I3040
sg838
F0.06523394584655762
sg839
F7.700920104980469e-05
sg840
I14
sg841
I80
sa(dp846
g837
I2953
sg838
F0.08083176612854004
sg839
F7.677078247070312e-05
sg840
I25
sg841
I77
sa(dp847
g837
I34
sg838
F0.007622957229614258
sg839
F4.00543212890625e-05
sg840
I2
sg841
I3
sasS'total_cqs'
p848
I85
ssI72
(dp849
S'iters'
p850
I4
sS'meta'
p851
(lp852
(dp853
S'objective'
p854
I14
sS'query_time'
p855
F0.1736738681793213
sS'comp_time'
p856
F6.604194641113281e-05
sS'exec_cq'
p857
I1
sS'total_cq'
p858
I8
sa(dp859
g854
I11
sg855
F0.1884620189666748
sg856
F6.198883056640625e-05
sg857
I1
sg858
I6
sa(dp860
g854
I2
sg855
F0.011487007141113281
sg856
F4.291534423828125e-05
sg857
I1
sg858
I5
sa(dp861
g854
I0
sg855
F0.006058931350708008
sg856
F4.1961669921875e-05
sg857
I1
sg858
I3
sasS'total_cqs'
p862
I8
ssI73
(dp863
S'iters'
p864
I0
sS'meta'
p865
(lp866
sS'total_cqs'
p867
I1
ssI74
(dp868
S'iters'
p869
I0
sS'meta'
p870
(lp871
sS'total_cqs'
p872
I1
ssI75
(dp873
S'iters'
p874
I2
sS'meta'
p875
(lp876
(dp877
S'objective'
p878
I5
sS'query_time'
p879
F0.004884004592895508
sS'comp_time'
p880
F4.100799560546875e-05
sS'exec_cq'
p881
I1
sS'total_cq'
p882
I5
sa(dp883
g878
I2
sg879
F0.003443002700805664
sg880
F4.1961669921875e-05
sg881
I1
sg882
I4
sasS'total_cqs'
p884
I5
ssI76
(dp885
S'iters'
p886
I1
sS'meta'
p887
(lp888
(dp889
S'objective'
p890
I1
sS'query_time'
p891
F0.009361982345581055
sS'comp_time'
p892
F4.601478576660156e-05
sS'exec_cq'
p893
I1
sS'total_cq'
p894
I2
sasS'total_cqs'
p895
I2
ssI77
(dp896
S'iters'
p897
I0
sS'meta'
p898
(lp899
sS'total_cqs'
p900
I1
ssI78
(dp901
S'iters'
p902
I0
sS'meta'
p903
(lp904
sS'total_cqs'
p905
I1
ssI103
(dp906
S'iters'
p907
I1
sS'meta'
p908
(lp909
(dp910
S'objective'
p911
I64
sS'query_time'
p912
F0.053613901138305664
sS'comp_time'
p913
F6.699562072753906e-05
sS'exec_cq'
p914
I6
sS'total_cq'
p915
I12
sasS'total_cqs'
p916
I12
ssI104
(dp917
S'iters'
p918
I2
sS'meta'
p919
(lp920
(dp921
S'objective'
p922
I0
sS'query_time'
p923
F0.029597997665405273
sS'comp_time'
p924
F5.698204040527344e-05
sS'exec_cq'
p925
I1
sS'total_cq'
p926
I4
sa(dp927
g922
I1
sg923
F1.3467459678649902
sg924
F8.296966552734375e-05
sg925
I1
sg926
I2
sasS'total_cqs'
p928
I4
ssI105
(dp929
S'iters'
p930
I0
sS'meta'
p931
(lp932
sS'total_cqs'
p933
I1
ssI106
(dp934
S'iters'
p935
I1
sS'meta'
p936
(lp937
(dp938
S'objective'
p939
I4
sS'query_time'
p940
F0.016875028610229492
sS'comp_time'
p941
F6.29425048828125e-05
sS'exec_cq'
p942
I2
sS'total_cq'
p943
I4
sasS'total_cqs'
p944
I4
ssI107
(dp945
S'iters'
p946
I5
sS'meta'
p947
(lp948
(dp949
S'objective'
p950
I106
sS'query_time'
p951
F0.02782607078552246
sS'comp_time'
p952
F5.0067901611328125e-05
sS'exec_cq'
p953
I2
sS'total_cq'
p954
I16
sa(dp955
g950
I95
sg951
F0.06625699996948242
sg952
F4.601478576660156e-05
sg953
I3
sg954
I15
sa(dp956
g950
I44
sg951
F0.0168149471282959
sg952
F4.601478576660156e-05
sg953
I3
sg954
I14
sa(dp957
g950
I8
sg951
F0.008687973022460938
sg952
F3.600120544433594e-05
sg953
I2
sg954
I3
sa(dp958
g950
I2
sg951
F0.025374174118041992
sg952
F4.410743713378906e-05
sg953
I2
sg954
I2
sasS'total_cqs'
p959
I16
ssI108
(dp960
S'iters'
p961
I0
sS'meta'
p962
(lp963
sS'total_cqs'
p964
I1
ss.