(dp0
I1
(dp1
S'iters'
p2
I3
sS'meta'
p3
(lp4
(dp5
S'objective'
p6
I52
sS'query_time'
p7
F0.07876110076904297
sS'comp_time'
p8
F0.02416205406188965
sS'exec_cq'
p9
I12
sS'total_cq'
p10
I12
sa(dp11
g6
I51
sg7
F4.7206878662109375e-05
sg8
F0.00016736984252929688
sg9
I10
sg10
I10
sa(dp12
g6
I50
sg7
F3.600120544433594e-05
sg8
F9.703636169433594e-05
sg9
I9
sg10
I9
sasS'total_cqs'
p13
I12
ssI2
(dp14
S'iters'
p15
I8
sS'meta'
p16
(lp17
(dp18
S'objective'
p19
I316
sS'query_time'
p20
F0.12903285026550293
sS'comp_time'
p21
F0.04520606994628906
sS'exec_cq'
p22
I14
sS'total_cq'
p23
I27
sa(dp24
g19
I209
sg20
F0.04672884941101074
sg21
F0.0006392002105712891
sg22
I13
sg23
I24
sa(dp25
g19
I230
sg20
F0.00011301040649414062
sg21
F0.0005331039428710938
sg22
I11
sg23
I20
sa(dp26
g19
I226
sg20
F8.702278137207031e-05
sg21
F0.00045299530029296875
sg22
I9
sg23
I18
sa(dp27
g19
I218
sg20
F3.886222839355469e-05
sg21
F0.00019025802612304688
sg22
I7
sg23
I16
sa(dp28
g19
I189
sg20
F7.104873657226562e-05
sg21
F0.00018095970153808594
sg22
I15
sg23
I15
sa(dp29
g19
I171
sg20
F6.270408630371094e-05
sg21
F0.00017118453979492188
sg22
I14
sg23
I14
sa(dp30
g19
I174
sg20
F5.0067901611328125e-05
sg21
F8.702278137207031e-05
sg22
I13
sg23
I13
sasS'total_cqs'
p31
I27
ssI3
(dp32
S'iters'
p33
I4
sS'meta'
p34
(lp35
(dp36
S'objective'
p37
I288
sS'query_time'
p38
F119.16495108604431
sS'comp_time'
p39
F2.3061068058013916
sS'exec_cq'
p40
I14
sS'total_cq'
p41
I43
sa(dp42
g37
I29
sg38
F65.72831296920776
sg39
F0.5112221240997314
sg40
I16
sg41
I29
sa(dp43
g37
I74
sg38
F41.97803592681885
sg39
F0.6576149463653564
sg40
I9
sg41
I13
sa(dp44
g37
I86
sg38
F10.930234909057617
sg39
F0.0014712810516357422
sg40
I6
sg41
I6
sasS'total_cqs'
p45
I43
ssI4
(dp46
S'iters'
p47
I2
sS'meta'
p48
(lp49
(dp50
S'objective'
p51
I54
sS'query_time'
p52
F4.879158973693848
sS'comp_time'
p53
F1.0467519760131836
sS'exec_cq'
p54
I11
sS'total_cq'
p55
I11
sa(dp56
g51
I2
sg52
F0.21398687362670898
sg53
F1.0205562114715576
sg54
I2
sg55
I2
sasS'total_cqs'
p57
I11
ssI5
(dp58
S'iters'
p59
I3
sS'meta'
p60
(lp61
(dp62
S'objective'
p63
I0
sS'query_time'
p64
F34.811819076538086
sS'comp_time'
p65
F3.8196730613708496
sS'exec_cq'
p66
I8
sS'total_cq'
p67
I8
sa(dp68
g63
I2
sg64
F0.005576133728027344
sg65
F0.0329432487487793
sg66
I3
sg67
I3
sa(dp69
g63
I4
sg64
F0.005201101303100586
sg65
F0.032604217529296875
sg66
I2
sg67
I2
sasS'total_cqs'
p70
I8
ssI6
(dp71
S'iters'
p72
I4
sS'meta'
p73
(lp74
(dp75
S'objective'
p76
I39
sS'query_time'
p77
F38.05729007720947
sS'comp_time'
p78
F3.5434799194335938
sS'exec_cq'
p79
I18
sS'total_cq'
p80
I18
sa(dp81
g76
I0
sg77
F0.6053929328918457
sg78
F3.4646241664886475
sg79
I7
sg80
I7
sa(dp82
g76
I3
sg77
F0.4707510471343994
sg78
F2.7961249351501465
sg79
I4
sg80
I4
sa(dp83
g76
I3
sg77
F0.0940389633178711
sg78
F1.4442121982574463
sg79
I2
sg80
I2
sasS'total_cqs'
p84
I18
ssI7
(dp85
S'iters'
p86
I3
sS'meta'
p87
(lp88
(dp89
S'objective'
p90
I1
sS'query_time'
p91
F12.152402877807617
sS'comp_time'
p92
F2.3897979259490967
sS'exec_cq'
p93
I9
sS'total_cq'
p94
I9
sa(dp95
g90
I1
sg91
F0.005414009094238281
sg92
F0.02835249900817871
sg93
I4
sg94
I4
sa(dp96
g90
I3
sg91
F0.0038018226623535156
sg92
F0.17320871353149414
sg93
I2
sg94
I2
sasS'total_cqs'
p97
I9
ssI8
(dp98
S'iters'
p99
I5
sS'meta'
p100
(lp101
(dp102
S'objective'
p103
I244
sS'query_time'
p104
F0.08792495727539062
sS'comp_time'
p105
F0.03825688362121582
sS'exec_cq'
p106
I14
sS'total_cq'
p107
I27
sa(dp108
g103
I249
sg104
F0.1374530792236328
sg105
F0.0005650520324707031
sg106
I13
sg107
I22
sa(dp109
g103
I242
sg104
F4.100799560546875e-05
sg105
F0.0001590251922607422
sg106
I9
sg107
I19
sa(dp110
g103
I217
sg104
F4.1961669921875e-05
sg105
F0.00011682510375976562
sg106
I10
sg107
I18
sa(dp111
g103
I223
sg104
F6.198883056640625e-05
sg105
F9.822845458984375e-05
sg106
I17
sg107
I17
sasS'total_cqs'
p112
I27
ssI9
(dp113
S'iters'
p114
I3
sS'meta'
p115
(lp116
(dp117
S'objective'
p118
I2
sS'query_time'
p119
F0.09337806701660156
sS'comp_time'
p120
F0.0046579837799072266
sS'exec_cq'
p121
I7
sS'total_cq'
p122
I7
sa(dp123
g118
I1
sg119
F3.314018249511719e-05
sg120
F0.0002295970916748047
sg121
I4
sg122
I4
sa(dp124
g118
I1
sg119
F0.0016930103302001953
sg120
F0.00013780593872070312
sg121
I2
sg122
I2
sasS'total_cqs'
p125
I7
ssI10
(dp126
S'iters'
p127
I6
sS'meta'
p128
(lp129
(dp130
S'objective'
p131
I526
sS'query_time'
p132
F0.20478296279907227
sS'comp_time'
p133
F0.11775875091552734
sS'exec_cq'
p134
I28
sS'total_cq'
p135
I51
sa(dp136
g131
I188
sg132
F0.14615106582641602
sg133
F0.0016927719116210938
sg134
I23
sg135
I37
sa(dp137
g131
I5
sg132
F0.0016620159149169922
sg133
F0.0012900829315185547
sg134
I12
sg135
I12
sa(dp138
g131
I21
sg132
F8.893013000488281e-05
sg133
F0.0003998279571533203
sg134
I8
sg135
I8
sa(dp139
g131
I0
sg132
F3.218650817871094e-05
sg133
F0.00017976760864257812
sg134
I4
sg135
I4
sa(dp140
g131
I24
sg132
F1.5020370483398438e-05
sg133
F9.274482727050781e-05
sg134
I2
sg135
I2
sasS'total_cqs'
p141
I51
ssI11
(dp142
S'iters'
p143
I6
sS'meta'
p144
(lp145
(dp146
S'objective'
p147
I1068
sS'query_time'
p148
F0.5539059638977051
sS'comp_time'
p149
F0.17350196838378906
sS'exec_cq'
p150
I63
sS'total_cq'
p151
I63
sa(dp152
g147
I996
sg148
F0.0016360282897949219
sg149
F0.007229804992675781
sg150
I47
sg151
I47
sa(dp153
g147
I3
sg148
F0.0019757747650146484
sg149
F0.002815723419189453
sg150
I9
sg151
I9
sa(dp154
g147
I2
sg148
F9.202957153320312e-05
sg149
F0.0005371570587158203
sg150
I6
sg151
I6
sa(dp155
g147
I6
sg148
F2.002716064453125e-05
sg149
F0.00010967254638671875
sg150
I3
sg151
I3
sa(dp156
g147
I2
sg148
F1.5020370483398438e-05
sg149
F0.0001270771026611328
sg150
I2
sg151
I2
sasS'total_cqs'
p157
I63
ssI12
(dp158
S'iters'
p159
I5
sS'meta'
p160
(lp161
(dp162
S'objective'
p163
I301
sS'query_time'
p164
F0.22290706634521484
sS'comp_time'
p165
F0.0923919677734375
sS'exec_cq'
p166
I28
sS'total_cq'
p167
I50
sa(dp168
g163
I390
sg164
F0.15212392807006836
sg165
F0.0028150081634521484
sg166
I22
sg167
I33
sa(dp169
g163
I15
sg164
F0.001171112060546875
sg165
F0.0017380714416503906
sg166
I8
sg167
I8
sa(dp170
g163
I22
sg164
F8.082389831542969e-05
sg165
F0.00045037269592285156
sg166
I5
sg167
I5
sa(dp171
g163
I7
sg164
F8.296966552734375e-05
sg165
F0.00036907196044921875
sg166
I3
sg167
I3
sasS'total_cqs'
p172
I50
ssI13
(dp173
S'iters'
p174
I3
sS'meta'
p175
(lp176
(dp177
S'objective'
p178
I6
sS'query_time'
p179
F0.15011096000671387
sS'comp_time'
p180
F0.026761770248413086
sS'exec_cq'
p181
I20
sS'total_cq'
p182
I20
sa(dp183
g178
I50
sg179
F5.1975250244140625e-05
sg180
F0.0004563331604003906
sg181
I9
sg182
I9
sa(dp184
g178
I14
sg179
F0.0018160343170166016
sg180
F0.00017118453979492188
sg181
I2
sg182
I2
sasS'total_cqs'
p185
I20
ssI14
(dp186
S'iters'
p187
I4
sS'meta'
p188
(lp189
(dp190
S'objective'
p191
I1
sS'query_time'
p192
F32.06055212020874
sS'comp_time'
p193
F1.625917673110962
sS'exec_cq'
p194
I9
sS'total_cq'
p195
I9
sa(dp196
g191
I0
sg192
F0.011169910430908203
sg193
F0.20152616500854492
sg194
I5
sg195
I5
sa(dp197
g191
I1
sg192
F0.003354787826538086
sg193
F0.022419214248657227
sg194
I3
sg195
I3
sa(dp198
g191
I3
sg192
F0.002969980239868164
sg193
F0.022376298904418945
sg194
I2
sg195
I2
sasS'total_cqs'
p199
I9
ssI15
(dp200
S'iters'
p201
I4
sS'meta'
p202
(lp203
(dp204
S'objective'
p205
I0
sS'query_time'
p206
F3.7332489490509033
sS'comp_time'
p207
F0.3254098892211914
sS'exec_cq'
p208
I11
sS'total_cq'
p209
I11
sa(dp210
g205
I15
sg206
F0.0006928443908691406
sg207
F0.016294240951538086
sg208
I6
sg209
I6
sa(dp211
g205
I12
sg206
F0.00048804283142089844
sg207
F0.0039060115814208984
sg208
I5
sg209
I5
sa(dp212
g205
I2
sg206
F0.00043487548828125
sg207
F0.0030944347381591797
sg208
I2
sg209
I2
sasS'total_cqs'
p213
I11
ssI16
(dp214
S'iters'
p215
I1
sS'meta'
p216
(lp217
(dp218
S'objective'
p219
I30
sS'query_time'
p220
F0.029103994369506836
sS'comp_time'
p221
F0.004447221755981445
sS'exec_cq'
p222
I8
sS'total_cq'
p223
I8
sasS'total_cqs'
p224
I8
ssI17
(dp225
S'iters'
p226
I4
sS'meta'
p227
(lp228
(dp229
S'objective'
p230
I0
sS'query_time'
p231
F0.9068150520324707
sS'comp_time'
p232
F0.04934573173522949
sS'exec_cq'
p233
I11
sS'total_cq'
p234
I11
sa(dp235
g230
I1
sg231
F0.008659839630126953
sg232
F0.029725074768066406
sg233
I7
sg234
I7
sa(dp236
g230
I0
sg231
F0.0025899410247802734
sg232
F0.1375865936279297
sg233
I5
sg234
I5
sa(dp237
g230
I0
sg231
F0.00034809112548828125
sg232
F0.0015559196472167969
sg233
I3
sg234
I3
sasS'total_cqs'
p238
I11
ssI18
(dp239
S'iters'
p240
I2
sS'meta'
p241
(lp242
(dp243
S'objective'
p244
I44
sS'query_time'
p245
F0.1488170623779297
sS'comp_time'
p246
F0.03297924995422363
sS'exec_cq'
p247
I5
sS'total_cq'
p248
I11
sa(dp249
g244
I47
sg245
F0.10817599296569824
sg246
F0.0020477771759033203
sg247
I10
sg248
I10
sasS'total_cqs'
p250
I11
ssI19
(dp251
S'iters'
p252
I0
sS'meta'
p253
(lp254
sS'total_cqs'
p255
I1
ssI20
(dp256
S'iters'
p257
I0
sS'meta'
p258
(lp259
sS'total_cqs'
p260
I1
ssI21
(dp261
S'iters'
p262
I0
sS'meta'
p263
(lp264
sS'total_cqs'
p265
I1
ssI22
(dp266
S'iters'
p267
I1
sS'meta'
p268
(lp269
(dp270
S'objective'
p271
I159
sS'query_time'
p272
F0.09382104873657227
sS'comp_time'
p273
F0.032434940338134766
sS'exec_cq'
p274
I18
sS'total_cq'
p275
I18
sasS'total_cqs'
p276
I18
ssI23
(dp277
S'iters'
p278
I2
sS'meta'
p279
(lp280
(dp281
S'objective'
p282
I118
sS'query_time'
p283
F0.058875083923339844
sS'comp_time'
p284
F0.03616189956665039
sS'exec_cq'
p285
I8
sS'total_cq'
p286
I16
sa(dp287
g282
I117
sg283
F4.506111145019531e-05
sg284
F0.00019407272338867188
sg285
I7
sg286
I15
sasS'total_cqs'
p288
I16
ssI24
(dp289
S'iters'
p290
I0
sS'meta'
p291
(lp292
sS'total_cqs'
p293
I1
ssI25
(dp294
S'iters'
p295
I0
sS'meta'
p296
(lp297
sS'total_cqs'
p298
I1
ssI26
(dp299
S'iters'
p300
I1
sS'meta'
p301
(lp302
(dp303
S'objective'
p304
I879
sS'query_time'
p305
F0.11263298988342285
sS'comp_time'
p306
F0.11316776275634766
sS'exec_cq'
p307
I42
sS'total_cq'
p308
I42
sasS'total_cqs'
p309
I42
ssI27
(dp310
S'iters'
p311
I3
sS'meta'
p312
(lp313
(dp314
S'objective'
p315
I311
sS'query_time'
p316
F22.50067400932312
sS'comp_time'
p317
F4.052134037017822
sS'exec_cq'
p318
I30
sS'total_cq'
p319
I30
sa(dp320
g315
I5
sg316
F0.5720748901367188
sg317
F4.580867528915405
sg318
I5
sg319
I5
sa(dp321
g315
I18
sg316
F0.08466291427612305
sg317
F1.3048601150512695
sg318
I2
sg319
I2
sasS'total_cqs'
p322
I30
ssI28
(dp323
S'iters'
p324
I0
sS'meta'
p325
(lp326
sS'total_cqs'
p327
I1
ssI29
(dp328
S'iters'
p329
I6
sS'meta'
p330
(lp331
(dp332
S'objective'
p333
I363
sS'query_time'
p334
F26.186500787734985
sS'comp_time'
p335
F0.8058090209960938
sS'exec_cq'
p336
I35
sS'total_cq'
p337
I49
sa(dp338
g333
I7
sg334
F0.06854891777038574
sg335
F0.5720868110656738
sg336
I17
sg337
I17
sa(dp339
g333
I22
sg334
F0.002527952194213867
sg335
F0.010636091232299805
sg336
I9
sg337
I9
sa(dp340
g333
I1
sg334
F0.0012359619140625
sg335
F0.007575035095214844
sg336
I5
sg337
I5
sa(dp341
g333
I5
sg334
F0.0009610652923583984
sg335
F0.006187915802001953
sg336
I3
sg337
I3
sa(dp342
g333
I2
sg334
F0.0009591579437255859
sg335
F0.005761146545410156
sg336
I2
sg337
I2
sasS'total_cqs'
p343
I49
ssI30
(dp344
S'iters'
p345
I1
sS'meta'
p346
(lp347
(dp348
S'objective'
p349
I1
sS'query_time'
p350
F0.6727159023284912
sS'comp_time'
p351
F0.04076504707336426
sS'exec_cq'
p352
I2
sS'total_cq'
p353
I2
sasS'total_cqs'
p354
I2
ssI31
(dp355
S'iters'
p356
I0
sS'meta'
p357
(lp358
sS'total_cqs'
p359
I1
ssI32
(dp360
S'iters'
p361
I1
sS'meta'
p362
(lp363
(dp364
S'objective'
p365
I1
sS'query_time'
p366
F0.05472111701965332
sS'comp_time'
p367
F0.03180360794067383
sS'exec_cq'
p368
I2
sS'total_cq'
p369
I2
sasS'total_cqs'
p370
I2
ssI33
(dp371
S'iters'
p372
I6
sS'meta'
p373
(lp374
(dp375
S'objective'
p376
I3906
sS'query_time'
p377
F16.28957986831665
sS'comp_time'
p378
F1.4703240394592285
sS'exec_cq'
p379
I103
sS'total_cq'
p380
I103
sa(dp381
g376
I23
sg377
F0.0092010498046875
sg378
F0.031069040298461914
sg379
I16
sg380
I16
sa(dp382
g376
I4
sg377
F0.004665851593017578
sg378
F0.015232324600219727
sg379
I10
sg380
I10
sa(dp383
g376
I1
sg377
F0.0017418861389160156
sg378
F0.007214069366455078
sg379
I5
sg380
I5
sa(dp384
g376
I15
sg377
F0.0004799365997314453
sg378
F0.002878904342651367
sg379
I3
sg380
I3
sa(dp385
g376
I14
sg377
F0.00023889541625976562
sg378
F0.0018689632415771484
sg379
I2
sg380
I2
sasS'total_cqs'
p386
I103
ssI34
(dp387
S'iters'
p388
I1
sS'meta'
p389
(lp390
(dp391
S'objective'
p392
I1
sS'query_time'
p393
F0.016275882720947266
sS'comp_time'
p394
F0.0021209716796875
sS'exec_cq'
p395
I2
sS'total_cq'
p396
I2
sasS'total_cqs'
p397
I2
ssI35
(dp398
S'iters'
p399
I5
sS'meta'
p400
(lp401
(dp402
S'objective'
p403
I1337
sS'query_time'
p404
F20.43654990196228
sS'comp_time'
p405
F0.24134540557861328
sS'exec_cq'
p406
I50
sS'total_cq'
p407
I70
sa(dp408
g403
I18
sg404
F0.0045778751373291016
sg405
F0.014584779739379883
sg406
I16
sg407
I16
sa(dp409
g403
I24
sg404
F0.002471923828125
sg405
F0.010329961776733398
sg406
I10
sg407
I10
sa(dp410
g403
I10
sg404
F0.0008139610290527344
sg405
F0.0039958953857421875
sg406
I4
sg407
I4
sa(dp411
g403
I47
sg404
F0.00029206275939941406
sg405
F0.002151966094970703
sg406
I2
sg407
I2
sasS'total_cqs'
p412
I70
ssI36
(dp413
S'iters'
p414
I2
sS'meta'
p415
(lp416
(dp417
S'objective'
p418
I413
sS'query_time'
p419
F0.7383599281311035
sS'comp_time'
p420
F0.16291189193725586
sS'exec_cq'
p421
I33
sS'total_cq'
p422
I33
sa(dp423
g418
I467
sg419
F0.0048389434814453125
sg420
F0.0064961910247802734
sg421
I28
sg422
I29
sasS'total_cqs'
p424
I33
ssI37
(dp425
S'iters'
p426
I1
sS'meta'
p427
(lp428
(dp429
S'objective'
p430
I1
sS'query_time'
p431
F0.009022951126098633
sS'comp_time'
p432
F0.0016701221466064453
sS'exec_cq'
p433
I2
sS'total_cq'
p434
I2
sasS'total_cqs'
p435
I2
ssI38
(dp436
S'iters'
p437
I2
sS'meta'
p438
(lp439
(dp440
S'objective'
p441
I0
sS'query_time'
p442
F0.027830123901367188
sS'comp_time'
p443
F0.004197835922241211
sS'exec_cq'
p444
I4
sS'total_cq'
p445
I4
sa(dp446
g441
I1
sg442
F7.891654968261719e-05
sg443
F0.0003960132598876953
sg444
I2
sg445
I2
sasS'total_cqs'
p447
I4
ssI39
(dp448
S'iters'
p449
I2
sS'meta'
p450
(lp451
(dp452
S'objective'
p453
I702
sS'query_time'
p454
F0.18127083778381348
sS'comp_time'
p455
F0.12356805801391602
sS'exec_cq'
p456
I44
sS'total_cq'
p457
I44
sa(dp458
g453
I822
sg454
F0.00045180320739746094
sg455
F0.0021448135375976562
sg456
I37
sg457
I37
sasS'total_cqs'
p459
I44
ssI40
(dp460
S'iters'
p461
I1
sS'meta'
p462
(lp463
(dp464
S'objective'
p465
I22
sS'query_time'
p466
F0.031110048294067383
sS'comp_time'
p467
F0.0056989192962646484
sS'exec_cq'
p468
I7
sS'total_cq'
p469
I7
sasS'total_cqs'
p470
I7
ssI41
(dp471
S'iters'
p472
I2
sS'meta'
p473
(lp474
(dp475
S'objective'
p476
I56
sS'query_time'
p477
F0.1650238037109375
sS'comp_time'
p478
F0.017546415328979492
sS'exec_cq'
p479
I12
sS'total_cq'
p480
I12
sa(dp481
g476
I59
sg477
F5.91278076171875e-05
sg478
F0.0001811981201171875
sg479
I11
sg480
I11
sasS'total_cqs'
p482
I12
ssI42
(dp483
S'iters'
p484
I2
sS'meta'
p485
(lp486
(dp487
S'objective'
p488
I791
sS'query_time'
p489
F0.1287989616394043
sS'comp_time'
p490
F0.16687297821044922
sS'exec_cq'
p491
I21
sS'total_cq'
p492
I41
sa(dp493
g488
I802
sg489
F8.702278137207031e-05
sg490
F0.00021004676818847656
sg491
I20
sg492
I40
sasS'total_cqs'
p494
I41
ssI43
(dp495
S'iters'
p496
I1
sS'meta'
p497
(lp498
(dp499
S'objective'
p500
I22
sS'query_time'
p501
F0.026079177856445312
sS'comp_time'
p502
F0.005733966827392578
sS'exec_cq'
p503
I7
sS'total_cq'
p504
I7
sasS'total_cqs'
p505
I7
ssI44
(dp506
S'iters'
p507
I4
sS'meta'
p508
(lp509
(dp510
S'objective'
p511
I844
sS'query_time'
p512
F0.13990521430969238
sS'comp_time'
p513
F0.15528202056884766
sS'exec_cq'
p514
I47
sS'total_cq'
p515
I47
sa(dp516
g511
I944
sg512
F0.0002830028533935547
sg513
F0.0015673637390136719
sg514
I40
sg515
I40
sa(dp517
g511
I7
sg512
F0.0013980865478515625
sg513
F0.0017766952514648438
sg514
I3
sg515
I3
sa(dp518
g511
I12
sg512
F0.00010895729064941406
sg513
F0.0007188320159912109
sg514
I2
sg515
I2
sasS'total_cqs'
p519
I47
ssI45
(dp520
S'iters'
p521
I0
sS'meta'
p522
(lp523
sS'total_cqs'
p524
I1
ssI46
(dp525
S'iters'
p526
I2
sS'meta'
p527
(lp528
(dp529
S'objective'
p530
I9
sS'query_time'
p531
F0.01807093620300293
sS'comp_time'
p532
F0.0027570724487304688
sS'exec_cq'
p533
I4
sS'total_cq'
p534
I6
sa(dp535
g530
I9
sg531
F4.792213439941406e-05
sg532
F0.00033283233642578125
sg533
I3
sg534
I5
sasS'total_cqs'
p536
I6
ssI47
(dp537
S'iters'
p538
I1
sS'meta'
p539
(lp540
(dp541
S'objective'
p542
I1
sS'query_time'
p543
F0.04497694969177246
sS'comp_time'
p544
F0.0012173652648925781
sS'exec_cq'
p545
I2
sS'total_cq'
p546
I2
sasS'total_cqs'
p547
I2
ssI48
(dp548
S'iters'
p549
I0
sS'meta'
p550
(lp551
sS'total_cqs'
p552
I1
ssI49
(dp553
S'iters'
p554
I0
sS'meta'
p555
(lp556
sS'total_cqs'
p557
I1
ssI50
(dp558
S'iters'
p559
I3
sS'meta'
p560
(lp561
(dp562
S'objective'
p563
I5
sS'query_time'
p564
F0.01308894157409668
sS'comp_time'
p565
F0.002064943313598633
sS'exec_cq'
p566
I5
sS'total_cq'
p567
I5
sa(dp568
g563
I2
sg564
F3.0040740966796875e-05
sg565
F0.0001361370086669922
sg566
I4
sg567
I4
sa(dp569
g563
I0
sg564
F2.3126602172851562e-05
sg565
F0.00010418891906738281
sg566
I3
sg567
I3
sasS'total_cqs'
p570
I5
ssI51
(dp571
S'iters'
p572
I1
sS'meta'
p573
(lp574
(dp575
S'objective'
p576
I1
sS'query_time'
p577
F0.00915384292602539
sS'comp_time'
p578
F0.0013959407806396484
sS'exec_cq'
p579
I2
sS'total_cq'
p580
I2
sasS'total_cqs'
p581
I2
ssI52
(dp582
S'iters'
p583
I1
sS'meta'
p584
(lp585
(dp586
S'objective'
p587
I1
sS'query_time'
p588
F0.010354042053222656
sS'comp_time'
p589
F0.0014939308166503906
sS'exec_cq'
p590
I2
sS'total_cq'
p591
I2
sasS'total_cqs'
p592
I2
ssI53
(dp593
S'iters'
p594
I3
sS'meta'
p595
(lp596
(dp597
S'objective'
p598
I2
sS'query_time'
p599
F0.02069401741027832
sS'comp_time'
p600
F0.0027980804443359375
sS'exec_cq'
p601
I4
sS'total_cq'
p602
I4
sa(dp603
g598
I0
sg599
F9.608268737792969e-05
sg600
F0.0006299018859863281
sg601
I3
sg602
I3
sa(dp604
g598
I1
sg599
F9.608268737792969e-05
sg600
F0.0006279945373535156
sg601
I2
sg602
I2
sasS'total_cqs'
p605
I4
ssI54
(dp606
S'iters'
p607
I2
sS'meta'
p608
(lp609
(dp610
S'objective'
p611
I0
sS'query_time'
p612
F0.013777017593383789
sS'comp_time'
p613
F0.0018279552459716797
sS'exec_cq'
p614
I3
sS'total_cq'
p615
I3
sa(dp616
g611
I1
sg612
F4.506111145019531e-05
sg613
F0.000286102294921875
sg614
I2
sg615
I2
sasS'total_cqs'
p617
I3
ssI55
(dp618
S'iters'
p619
I8
sS'meta'
p620
(lp621
(dp622
S'objective'
p623
I4725
sS'query_time'
p624
F2.388651132583618
sS'comp_time'
p625
F0.6810524463653564
sS'exec_cq'
p626
I109
sS'total_cq'
p627
I109
sa(dp628
g623
I4732
sg624
F0.0010929107666015625
sg625
F0.004853963851928711
sg626
I97
sg627
I97
sa(dp629
g623
I4644
sg624
F0.0004630088806152344
sg625
F0.0023462772369384766
sg626
I91
sg627
I91
sa(dp630
g623
I4565
sg624
F0.00038886070251464844
sg625
F0.0018310546875
sg626
I87
sg627
I87
sa(dp631
g623
I4491
sg624
F0.00041794776916503906
sg625
F0.0014476776123046875
sg626
I85
sg627
I85
sa(dp632
g623
I4396
sg624
F0.0003559589385986328
sg625
F0.0012216567993164062
sg626
I83
sg627
I83
sa(dp633
g623
I4353
sg624
F0.0003781318664550781
sg625
F0.0011391639709472656
sg626
I82
sg627
I82
sa(dp634
g623
I4367
sg624
F0.0003409385681152344
sg625
F0.0010211467742919922
sg626
I80
sg627
I80
sasS'total_cqs'
p635
I109
ssI56
(dp636
S'iters'
p637
I5
sS'meta'
p638
(lp639
(dp640
S'objective'
p641
I1406
sS'query_time'
p642
F1.590641975402832
sS'comp_time'
p643
F0.2733337879180908
sS'exec_cq'
p644
I67
sS'total_cq'
p645
I76
sa(dp646
g641
I6
sg642
F0.008176803588867188
sg643
F0.2682168483734131
sg644
I16
sg645
I16
sa(dp647
g641
I5
sg642
F0.004513978958129883
sg643
F0.015289068222045898
sg644
I8
sg645
I8
sa(dp648
g641
I9
sg642
F0.0016210079193115234
sg643
F0.006198883056640625
sg644
I4
sg645
I4
sa(dp649
g641
I51
sg642
F0.0003960132598876953
sg643
F0.0031511783599853516
sg644
I2
sg645
I2
sasS'total_cqs'
p650
I76
ssI57
(dp651
S'iters'
p652
I6
sS'meta'
p653
(lp654
(dp655
S'objective'
p656
I72
sS'query_time'
p657
F24.062499046325684
sS'comp_time'
p658
F0.6723387241363525
sS'exec_cq'
p659
I45
sS'total_cq'
p660
I51
sa(dp661
g656
I21
sg657
F0.014883041381835938
sg658
F0.03403878211975098
sg659
I27
sg660
I27
sa(dp662
g656
I1
sg657
F0.002492189407348633
sg658
F0.007842779159545898
sg659
I12
sg660
I12
sa(dp663
g656
I8
sg657
F0.0005691051483154297
sg658
F0.003359079360961914
sg659
I8
sg660
I8
sa(dp664
g656
I14
sg657
F0.00043320655822753906
sg658
F0.002811908721923828
sg659
I3
sg660
I3
sa(dp665
g656
I1
sg657
F0.0002942085266113281
sg658
F0.0022211074829101562
sg659
I2
sg660
I2
sasS'total_cqs'
p666
I51
ssI58
(dp667
S'iters'
p668
I7
sS'meta'
p669
(lp670
(dp671
S'objective'
p672
I84191
sS'query_time'
p673
F108.27978897094727
sS'comp_time'
p674
F18.102392196655273
sS'exec_cq'
p675
I348
sS'total_cq'
p676
I486
sa(dp677
g672
I85084
sg673
F0.03844785690307617
sg674
F1.909358024597168
sg675
I276
sg676
I414
sa(dp678
g672
I209
sg673
F0.01590108871459961
sg674
F0.08367705345153809
sg675
I28
sg676
I28
sa(dp679
g672
I57
sg673
F0.006390094757080078
sg674
F0.01852107048034668
sg675
I14
sg676
I14
sa(dp680
g672
I31
sg673
F0.0047800540924072266
sg674
F0.018012523651123047
sg675
I8
sg676
I8
sa(dp681
g672
I65
sg673
F0.002183198928833008
sg674
F0.01296687126159668
sg675
I4
sg676
I4
sa(dp682
g672
I294
sg673
F0.0015058517456054688
sg674
F0.010164976119995117
sg675
I2
sg676
I2
sasS'total_cqs'
p683
I486
ssI59
(dp684
S'iters'
p685
I2
sS'meta'
p686
(lp687
(dp688
S'objective'
p689
I18
sS'query_time'
p690
F0.051393985748291016
sS'comp_time'
p691
F0.027632951736450195
sS'exec_cq'
p692
I7
sS'total_cq'
p693
I7
sa(dp694
g689
I1
sg690
F0.0002110004425048828
sg691
F0.0011682510375976562
sg692
I2
sg693
I2
sasS'total_cqs'
p695
I7
ssI60
(dp696
S'iters'
p697
I3
sS'meta'
p698
(lp699
(dp700
S'objective'
p701
I7
sS'query_time'
p702
F0.015848159790039062
sS'comp_time'
p703
F0.003384828567504883
sS'exec_cq'
p704
I3
sS'total_cq'
p705
I5
sa(dp706
g701
I1
sg702
F0.004018068313598633
sg703
F0.00019025802612304688
sg704
I2
sg705
I4
sa(dp707
g701
I0
sg702
F4.792213439941406e-05
sg703
F0.00014472007751464844
sg704
I2
sg705
I3
sasS'total_cqs'
p708
I5
ssI61
(dp709
S'iters'
p710
I0
sS'meta'
p711
(lp712
sS'total_cqs'
p713
I1
ssI62
(dp714
S'iters'
p715
I2
sS'meta'
p716
(lp717
(dp718
S'objective'
p719
I36
sS'query_time'
p720
F0.06353306770324707
sS'comp_time'
p721
F0.026713848114013672
sS'exec_cq'
p722
I12
sS'total_cq'
p723
I12
sa(dp724
g719
I49
sg720
F5.507469177246094e-05
sg721
F0.0002982616424560547
sg722
I9
sg723
I9
sasS'total_cqs'
p725
I12
ssI63
(dp726
S'iters'
p727
I0
sS'meta'
p728
(lp729
sS'total_cqs'
p730
I1
ssI64
(dp731
S'iters'
p732
I3
sS'meta'
p733
(lp734
(dp735
S'objective'
p736
I18
sS'query_time'
p737
F0.12664484977722168
sS'comp_time'
p738
F0.021599531173706055
sS'exec_cq'
p739
I12
sS'total_cq'
p740
I12
sa(dp741
g736
I2
sg737
F0.00011086463928222656
sg738
F0.0005970001220703125
sg739
I4
sg740
I4
sa(dp742
g736
I8
sg737
F4.1961669921875e-05
sg738
F0.00022649765014648438
sg739
I2
sg740
I2
sasS'total_cqs'
p743
I12
ssI65
(dp744
S'iters'
p745
I4
sS'meta'
p746
(lp747
(dp748
S'objective'
p749
I156
sS'query_time'
p750
F0.9744479656219482
sS'comp_time'
p751
F0.10025882720947266
sS'exec_cq'
p752
I27
sS'total_cq'
p753
I27
sa(dp754
g749
I5
sg750
F0.002031087875366211
sg751
F0.00764012336730957
sg752
I7
sg753
I7
sa(dp755
g749
I1
sg750
F0.0005888938903808594
sg751
F0.0036199092864990234
sg752
I4
sg753
I4
sa(dp756
g749
I11
sg750
F0.00011801719665527344
sg751
F0.0007970333099365234
sg752
I2
sg753
I2
sasS'total_cqs'
p757
I27
ssI66
(dp758
S'iters'
p759
I0
sS'meta'
p760
(lp761
sS'total_cqs'
p762
I1
ssI67
(dp763
S'iters'
p764
I2
sS'meta'
p765
(lp766
(dp767
S'objective'
p768
I582
sS'query_time'
p769
F1.055521011352539
sS'comp_time'
p770
F0.15223479270935059
sS'exec_cq'
p771
I35
sS'total_cq'
p772
I35
sa(dp773
g768
I4
sg769
F0.0012469291687011719
sg770
F0.007262706756591797
sg771
I2
sg772
I2
sasS'total_cqs'
p774
I35
ssI68
(dp775
S'iters'
p776
I0
sS'meta'
p777
(lp778
sS'total_cqs'
p779
I1
ssI69
(dp780
S'iters'
p781
I1
sS'meta'
p782
(lp783
(dp784
S'objective'
p785
I1298
sS'query_time'
p786
F0.18968605995178223
sS'comp_time'
p787
F0.1960599422454834
sS'exec_cq'
p788
I51
sS'total_cq'
p789
I51
sasS'total_cqs'
p790
I51
ssI70
(dp791
S'iters'
p792
I3
sS'meta'
p793
(lp794
(dp795
S'objective'
p796
I9
sS'query_time'
p797
F0.02812814712524414
sS'comp_time'
p798
F0.00403285026550293
sS'exec_cq'
p799
I6
sS'total_cq'
p800
I6
sa(dp801
g796
I7
sg797
F4.315376281738281e-05
sg798
F0.00024580955505371094
sg799
I5
sg800
I5
sa(dp802
g796
I5
sg797
F4.100799560546875e-05
sg798
F0.00021648406982421875
sg799
I4
sg800
I4
sasS'total_cqs'
p803
I6
ssI71
(dp804
S'iters'
p805
I7
sS'meta'
p806
(lp807
(dp808
S'objective'
p809
I3247
sS'query_time'
p810
F0.27983808517456055
sS'comp_time'
p811
F0.298353910446167
sS'exec_cq'
p812
I73
sS'total_cq'
p813
I85
sa(dp814
g809
I3099
sg810
F0.0003440380096435547
sg811
F0.0012774467468261719
sg812
I69
sg813
I81
sa(dp815
g809
I2949
sg810
F0.0002779960632324219
sg811
F0.0011301040649414062
sg812
I65
sg813
I77
sa(dp816
g809
I2874
sg810
F0.00025200843811035156
sg811
F0.0008566379547119141
sg812
I62
sg813
I74
sa(dp817
g809
I2803
sg810
F0.00021004676818847656
sg811
F0.0007269382476806641
sg812
I59
sg813
I71
sa(dp818
g809
I27
sg810
F0.0026068687438964844
sg811
F0.00273895263671875
sg812
I3
sg813
I3
sa(dp819
g809
I12
sg810
F0.0037190914154052734
sg811
F0.00028514862060546875
sg812
I2
sg813
I2
sasS'total_cqs'
p820
I85
ssI72
(dp821
S'iters'
p822
I3
sS'meta'
p823
(lp824
(dp825
S'objective'
p826
I8
sS'query_time'
p827
F0.030102968215942383
sS'comp_time'
p828
F0.004776716232299805
sS'exec_cq'
p829
I4
sS'total_cq'
p830
I8
sa(dp831
g826
I4
sg827
F0.25089192390441895
sg828
F0.002599954605102539
sg829
I4
sg830
I6
sa(dp832
g826
I3
sg827
F2.193450927734375e-05
sg828
F0.00010395050048828125
sg829
I2
sg830
I3
sasS'total_cqs'
p833
I8
ssI73
(dp834
S'iters'
p835
I0
sS'meta'
p836
(lp837
sS'total_cqs'
p838
I1
ssI74
(dp839
S'iters'
p840
I0
sS'meta'
p841
(lp842
sS'total_cqs'
p843
I1
ssI75
(dp844
S'iters'
p845
I3
sS'meta'
p846
(lp847
(dp848
S'objective'
p849
I5
sS'query_time'
p850
F0.015002965927124023
sS'comp_time'
p851
F0.0020906925201416016
sS'exec_cq'
p852
I5
sS'total_cq'
p853
I5
sa(dp854
g849
I2
sg850
F2.7179718017578125e-05
sg851
F0.00011992454528808594
sg852
I4
sg853
I4
sa(dp855
g849
I0
sg850
F2.09808349609375e-05
sg851
F8.7738037109375e-05
sg852
I3
sg853
I3
sasS'total_cqs'
p856
I5
ssI76
(dp857
S'iters'
p858
I1
sS'meta'
p859
(lp860
(dp861
S'objective'
p862
I1
sS'query_time'
p863
F0.03325819969177246
sS'comp_time'
p864
F0.001760721206665039
sS'exec_cq'
p865
I2
sS'total_cq'
p866
I2
sasS'total_cqs'
p867
I2
ssI77
(dp868
S'iters'
p869
I0
sS'meta'
p870
(lp871
sS'total_cqs'
p872
I1
ssI78
(dp873
S'iters'
p874
I0
sS'meta'
p875
(lp876
sS'total_cqs'
p877
I1
ssI103
(dp878
S'iters'
p879
I2
sS'meta'
p880
(lp881
(dp882
S'objective'
p883
I62
sS'query_time'
p884
F0.05755805969238281
sS'comp_time'
p885
F0.01691603660583496
sS'exec_cq'
p886
I12
sS'total_cq'
p887
I12
sa(dp888
g883
I62
sg884
F5.316734313964844e-05
sg885
F0.00016999244689941406
sg886
I11
sg887
I11
sasS'total_cqs'
p889
I12
ssI104
(dp890
S'iters'
p891
I2
sS'meta'
p892
(lp893
(dp894
S'objective'
p895
I2
sS'query_time'
p896
F1.2584969997406006
sS'comp_time'
p897
F0.20601105690002441
sS'exec_cq'
p898
I4
sS'total_cq'
p899
I4
sa(dp900
g895
I2
sg896
F0.013647079467773438
sg897
F0.17399311065673828
sg898
I2
sg899
I2
sasS'total_cqs'
p901
I4
ssI105
(dp902
S'iters'
p903
I0
sS'meta'
p904
(lp905
sS'total_cqs'
p906
I1
ssI106
(dp907
S'iters'
p908
I1
sS'meta'
p909
(lp910
(dp911
S'objective'
p912
I6
sS'query_time'
p913
F0.02058720588684082
sS'comp_time'
p914
F0.0022132396697998047
sS'exec_cq'
p915
I4
sS'total_cq'
p916
I4
sasS'total_cqs'
p917
I4
ssI107
(dp918
S'iters'
p919
I2
sS'meta'
p920
(lp921
(dp922
S'objective'
p923
I102
sS'query_time'
p924
F0.06454706192016602
sS'comp_time'
p925
F0.0978705883026123
sS'exec_cq'
p926
I16
sS'total_cq'
p927
I16
sa(dp928
g923
I7
sg924
F0.004622936248779297
sg925
F0.00037479400634765625
sg926
I3
sg927
I3
sasS'total_cqs'
p929
I16
ssI108
(dp930
S'iters'
p931
I0
sS'meta'
p932
(lp933
sS'total_cqs'
p934
I1
ss.