(dp0
I1
(dp1
S'iters'
p2
I4
sS'meta'
p3
(lp4
(dp5
S'objective'
p6
I8
sS'query_time'
p7
F0.032820940017700195
sS'comp_time'
p8
F0.030307769775390625
sS'exec_cq'
p9
I12
sS'total_cq'
p10
I12
sa(dp11
g6
I8
sg7
F8.893013000488281e-05
sg8
F0.00016069412231445312
sg9
I10
sg10
I10
sa(dp12
g6
I7
sg7
F3.695487976074219e-05
sg8
F9.417533874511719e-05
sg9
I9
sg10
I9
sa(dp13
g6
I6
sg7
F3.1948089599609375e-05
sg8
F7.081031799316406e-05
sg9
I8
sg10
I8
sasS'total_cqs'
p14
I12
ssI2
(dp15
S'iters'
p16
I6
sS'meta'
p17
(lp18
(dp19
S'objective'
p20
I19
sS'query_time'
p21
F0.1908111572265625
sS'comp_time'
p22
F0.050373077392578125
sS'exec_cq'
p23
I27
sS'total_cq'
p24
I27
sa(dp25
g20
I17
sg21
F0.00021195411682128906
sg22
F0.0008051395416259766
sg23
I23
sg24
I23
sa(dp26
g20
I16
sg21
F0.00014925003051757812
sg22
F0.0004830360412597656
sg23
I20
sg24
I20
sa(dp27
g20
I14
sg21
F0.00012993812561035156
sg22
F0.0004811286926269531
sg23
I18
sg24
I18
sa(dp28
g20
I14
sg21
F0.0001068115234375
sg22
F0.0002758502960205078
sg23
I16
sg24
I16
sa(dp29
g20
I13
sg21
F9.202957153320312e-05
sg22
F0.00021576881408691406
sg23
I15
sg24
I15
sasS'total_cqs'
p30
I27
ssI3
(dp31
S'iters'
p32
I4
sS'meta'
p33
(lp34
(dp35
S'objective'
p36
I27
sS'query_time'
p37
F230.19478106498718
sS'comp_time'
p38
F1.8444108963012695
sS'exec_cq'
p39
I39
sS'total_cq'
p40
I43
sa(dp41
g36
I21
sg37
F0.5792081356048584
sg38
F2.2005934715270996
sg39
I31
sg40
I35
sa(dp42
g36
I22
sg37
F12.446653842926025
sg38
F0.4552764892578125
sg39
I28
sg40
I28
sa(dp43
g36
I23
sg37
F0.02204418182373047
sg38
F0.00018143653869628906
sg39
I25
sg40
I25
sasS'total_cqs'
p44
I43
ssI4
(dp45
S'iters'
p46
I2
sS'meta'
p47
(lp48
(dp49
S'objective'
p50
I7
sS'query_time'
p51
F4.972524881362915
sS'comp_time'
p52
F0.3178088665008545
sS'exec_cq'
p53
I11
sS'total_cq'
p54
I11
sa(dp55
g50
I0
sg51
F0.167510986328125
sg52
F0.2520732879638672
sg53
I2
sg54
I2
sasS'total_cqs'
p56
I11
ssI5
(dp57
S'iters'
p58
I3
sS'meta'
p59
(lp60
(dp61
S'objective'
p62
I0
sS'query_time'
p63
F32.81209206581116
sS'comp_time'
p64
F1.3869011402130127
sS'exec_cq'
p65
I8
sS'total_cq'
p66
I8
sa(dp67
g62
I0
sg63
F0.4170198440551758
sg64
F1.183945655822754
sg65
I4
sg66
I4
sa(dp68
g62
I0
sg63
F0.003885030746459961
sg64
F0.0056858062744140625
sg65
I2
sg66
I2
sasS'total_cqs'
p69
I8
ssI6
(dp70
S'iters'
p71
I4
sS'meta'
p72
(lp73
(dp74
S'objective'
p75
I4
sS'query_time'
p76
F34.85757780075073
sS'comp_time'
p77
F1.6284940242767334
sS'exec_cq'
p78
I18
sS'total_cq'
p79
I18
sa(dp80
g75
I1
sg76
F0.7967770099639893
sg77
F3.1677725315093994
sg78
I7
sg79
I7
sa(dp81
g75
I0
sg76
F0.3387899398803711
sg77
F1.4741718769073486
sg78
I4
sg79
I4
sa(dp82
g75
I0
sg76
F0.14852285385131836
sg77
F0.01865100860595703
sg78
I2
sg79
I2
sasS'total_cqs'
p83
I18
ssI7
(dp84
S'iters'
p85
I4
sS'meta'
p86
(lp87
(dp88
S'objective'
p89
I1
sS'query_time'
p90
F12.577485084533691
sS'comp_time'
p91
F0.859583854675293
sS'exec_cq'
p92
I9
sS'total_cq'
p93
I9
sa(dp94
g89
I1
sg90
F0.3059389591217041
sg91
F0.6583251953125
sg92
I5
sg93
I5
sa(dp95
g89
I1
sg90
F0.21358799934387207
sg91
F0.32153987884521484
sg92
I3
sg93
I3
sa(dp96
g89
I0
sg90
F0.15573596954345703
sg91
F0.2946803569793701
sg92
I2
sg93
I2
sasS'total_cqs'
p97
I9
ssI8
(dp98
S'iters'
p99
I3
sS'meta'
p100
(lp101
(dp102
S'objective'
p103
I17
sS'query_time'
p104
F0.17804789543151855
sS'comp_time'
p105
F0.03628826141357422
sS'exec_cq'
p106
I27
sS'total_cq'
p107
I27
sa(dp108
g103
I16
sg104
F0.0001766681671142578
sg105
F0.0006349086761474609
sg106
I22
sg107
I22
sa(dp109
g103
I17
sg104
F7.700920104980469e-05
sg105
F0.00019478797912597656
sg106
I19
sg107
I19
sasS'total_cqs'
p110
I27
ssI9
(dp111
S'iters'
p112
I3
sS'meta'
p113
(lp114
(dp115
S'objective'
p116
I1
sS'query_time'
p117
F0.04498100280761719
sS'comp_time'
p118
F0.004324674606323242
sS'exec_cq'
p119
I7
sS'total_cq'
p120
I7
sa(dp121
g116
I0
sg117
F2.9087066650390625e-05
sg118
F0.0001590251922607422
sg119
I4
sg120
I4
sa(dp122
g116
I0
sg117
F1.4066696166992188e-05
sg118
F5.7220458984375e-05
sg119
I2
sg120
I2
sasS'total_cqs'
p123
I7
ssI10
(dp124
S'iters'
p125
I6
sS'meta'
p126
(lp127
(dp128
S'objective'
p129
I23
sS'query_time'
p130
F0.3480560779571533
sS'comp_time'
p131
F0.08969521522521973
sS'exec_cq'
p132
I51
sS'total_cq'
p133
I51
sa(dp134
g129
I13
sg130
F0.00047206878662109375
sg131
F0.0029702186584472656
sg132
I37
sg133
I37
sa(dp135
g129
I0
sg130
F0.001950979232788086
sg131
F0.003428936004638672
sg132
I12
sg133
I12
sa(dp136
g129
I0
sg130
F5.1021575927734375e-05
sg131
F0.00035309791564941406
sg132
I6
sg133
I6
sa(dp137
g129
I1
sg130
F3.0040740966796875e-05
sg131
F0.00015115737915039062
sg132
I3
sg133
I3
sa(dp138
g129
I0
sg130
F1.6927719116210938e-05
sg131
F7.987022399902344e-05
sg132
I2
sg133
I2
sasS'total_cqs'
p139
I51
ssI11
(dp140
S'iters'
p141
I5
sS'meta'
p142
(lp143
(dp144
S'objective'
p145
I31
sS'query_time'
p146
F0.5391650199890137
sS'comp_time'
p147
F0.17357230186462402
sS'exec_cq'
p148
I63
sS'total_cq'
p149
I63
sa(dp150
g145
I29
sg146
F0.0012199878692626953
sg147
F0.004621267318725586
sg148
I47
sg149
I47
sa(dp151
g145
I1
sg146
F0.0018320083618164062
sg147
F0.002238035202026367
sg148
I9
sg149
I9
sa(dp152
g145
I0
sg146
F3.0994415283203125e-05
sg147
F0.00021600723266601562
sg148
I4
sg149
I4
sa(dp153
g145
I0
sg146
F1.7881393432617188e-05
sg147
F9.107589721679688e-05
sg148
I2
sg149
I2
sasS'total_cqs'
p154
I63
ssI12
(dp155
S'iters'
p156
I5
sS'meta'
p157
(lp158
(dp159
S'objective'
p160
I16
sS'query_time'
p161
F0.3729391098022461
sS'comp_time'
p162
F0.11180281639099121
sS'exec_cq'
p163
I50
sS'total_cq'
p164
I50
sa(dp165
g160
I17
sg161
F0.0005061626434326172
sg162
F0.0026786327362060547
sg163
I33
sg164
I33
sa(dp166
g160
I0
sg161
F0.0013740062713623047
sg162
F0.0012269020080566406
sg163
I8
sg164
I8
sa(dp167
g160
I0
sg161
F0.00013589859008789062
sg162
F0.0006151199340820312
sg163
I4
sg164
I4
sa(dp168
g160
I0
sg161
F2.5987625122070312e-05
sg162
F0.00010418891906738281
sg163
I2
sg164
I2
sasS'total_cqs'
p169
I50
ssI13
(dp170
S'iters'
p171
I3
sS'meta'
p172
(lp173
(dp174
S'objective'
p175
I2
sS'query_time'
p176
F0.13120079040527344
sS'comp_time'
p177
F0.02778458595275879
sS'exec_cq'
p178
I20
sS'total_cq'
p179
I20
sa(dp180
g175
I5
sg176
F6.723403930664062e-05
sg177
F0.0004792213439941406
sg178
I9
sg179
I9
sa(dp181
g175
I0
sg176
F0.0022249221801757812
sg177
F0.00019502639770507812
sg178
I2
sg179
I2
sasS'total_cqs'
p182
I20
ssI14
(dp183
S'iters'
p184
I3
sS'meta'
p185
(lp186
(dp187
S'objective'
p188
I1
sS'query_time'
p189
F31.983888864517212
sS'comp_time'
p190
F0.7620539665222168
sS'exec_cq'
p191
I9
sS'total_cq'
p192
I9
sa(dp193
g188
I0
sg189
F0.07739782333374023
sg190
F0.43932604789733887
sg191
I4
sg192
I4
sa(dp194
g188
I0
sg189
F0.008796930313110352
sg190
F0.012236833572387695
sg191
I2
sg192
I2
sasS'total_cqs'
p195
I9
ssI15
(dp196
S'iters'
p197
I3
sS'meta'
p198
(lp199
(dp200
S'objective'
p201
I1
sS'query_time'
p202
F3.7470309734344482
sS'comp_time'
p203
F0.08069515228271484
sS'exec_cq'
p204
I11
sS'total_cq'
p205
I11
sa(dp206
g201
I1
sg202
F0.02814197540283203
sg203
F0.032466888427734375
sg204
I5
sg205
I5
sa(dp207
g201
I0
sg202
F0.0011730194091796875
sg203
F0.0015609264373779297
sg204
I2
sg205
I2
sasS'total_cqs'
p208
I11
ssI16
(dp209
S'iters'
p210
I1
sS'meta'
p211
(lp212
(dp213
S'objective'
p214
I6
sS'query_time'
p215
F0.020221948623657227
sS'comp_time'
p216
F0.004137992858886719
sS'exec_cq'
p217
I8
sS'total_cq'
p218
I8
sasS'total_cqs'
p219
I8
ssI17
(dp220
S'iters'
p221
I4
sS'meta'
p222
(lp223
(dp224
S'objective'
p225
I1
sS'query_time'
p226
F0.9164931774139404
sS'comp_time'
p227
F0.03086233139038086
sS'exec_cq'
p228
I11
sS'total_cq'
p229
I11
sa(dp230
g225
I3
sg226
F0.00015115737915039062
sg227
F0.00046706199645996094
sg228
I5
sg229
I5
sa(dp231
g225
I2
sg226
F0.00010991096496582031
sg227
F0.00024080276489257812
sg228
I4
sg229
I4
sa(dp232
g225
I1
sg226
F0.00011301040649414062
sg227
F0.0002453327178955078
sg228
I3
sg229
I3
sasS'total_cqs'
p233
I11
ssI18
(dp234
S'iters'
p235
I2
sS'meta'
p236
(lp237
(dp238
S'objective'
p239
I5
sS'query_time'
p240
F0.2237837314605713
sS'comp_time'
p241
F0.02777266502380371
sS'exec_cq'
p242
I11
sS'total_cq'
p243
I11
sa(dp244
g239
I6
sg240
F0.0003509521484375
sg241
F0.0006580352783203125
sg242
I8
sg243
I8
sasS'total_cqs'
p245
I11
ssI22
(dp246
S'iters'
p247
I1
sS'meta'
p248
(lp249
(dp250
S'objective'
p251
I16
sS'query_time'
p252
F0.07815694808959961
sS'comp_time'
p253
F0.033213138580322266
sS'exec_cq'
p254
I18
sS'total_cq'
p255
I18
sasS'total_cqs'
p256
I18
ssI23
(dp257
S'iters'
p258
I3
sS'meta'
p259
(lp260
(dp261
S'objective'
p262
I12
sS'query_time'
p263
F0.0620579719543457
sS'comp_time'
p264
F0.027526140213012695
sS'exec_cq'
p265
I16
sS'total_cq'
p266
I16
sa(dp267
g262
I12
sg263
F0.000102996826171875
sg264
F0.0001862049102783203
sg265
I14
sg266
I14
sa(dp268
g262
I11
sg263
F3.910064697265625e-05
sg264
F6.437301635742188e-05
sg265
I13
sg266
I13
sasS'total_cqs'
p269
I16
ssI26
(dp270
S'iters'
p271
I1
sS'meta'
p272
(lp273
(dp274
S'objective'
p275
I40
sS'query_time'
p276
F0.13844704627990723
sS'comp_time'
p277
F0.11474323272705078
sS'exec_cq'
p278
I42
sS'total_cq'
p279
I42
sasS'total_cqs'
p280
I42
ssI27
(dp281
S'iters'
p282
I3
sS'meta'
p283
(lp284
(dp285
S'objective'
p286
I20
sS'query_time'
p287
F21.67758011817932
sS'comp_time'
p288
F1.7176275253295898
sS'exec_cq'
p289
I30
sS'total_cq'
p290
I30
sa(dp291
g286
I1
sg287
F0.5029850006103516
sg288
F1.4676740169525146
sg289
I5
sg290
I5
sa(dp292
g286
I1
sg287
F0.39731812477111816
sg288
F1.0817928314208984
sg289
I3
sg290
I3
sasS'total_cqs'
p293
I30
ssI29
(dp294
S'iters'
p295
I6
sS'meta'
p296
(lp297
(dp298
S'objective'
p299
I15
sS'query_time'
p300
F26.24806809425354
sS'comp_time'
p301
F0.331387996673584
sS'exec_cq'
p302
I35
sS'total_cq'
p303
I49
sa(dp304
g299
I1
sg300
F0.04018402099609375
sg301
F0.18633699417114258
sg302
I17
sg303
I17
sa(dp305
g299
I1
sg300
F0.0016269683837890625
sg301
F0.002460002899169922
sg302
I9
sg303
I9
sa(dp306
g299
I1
sg300
F0.0006837844848632812
sg301
F0.0016858577728271484
sg302
I5
sg303
I5
sa(dp307
g299
I1
sg300
F0.0005609989166259766
sg301
F0.000926971435546875
sg302
I3
sg303
I3
sa(dp308
g299
I0
sg300
F0.0005538463592529297
sg301
F0.0008459091186523438
sg302
I2
sg303
I2
sasS'total_cqs'
p309
I49
ssI30
(dp310
S'iters'
p311
I1
sS'meta'
p312
(lp313
(dp314
S'objective'
p315
I0
sS'query_time'
p316
F0.7049200534820557
sS'comp_time'
p317
F0.013344764709472656
sS'exec_cq'
p318
I2
sS'total_cq'
p319
I2
sasS'total_cqs'
p320
I2
ssI32
(dp321
S'iters'
p322
I1
sS'meta'
p323
(lp324
(dp325
S'objective'
p326
I0
sS'query_time'
p327
F0.01930403709411621
sS'comp_time'
p328
F0.007662057876586914
sS'exec_cq'
p329
I2
sS'total_cq'
p330
I2
sasS'total_cqs'
p331
I2
ssI33
(dp332
S'iters'
p333
I5
sS'meta'
p334
(lp335
(dp336
S'objective'
p337
I71
sS'query_time'
p338
F18.115485906600952
sS'comp_time'
p339
F0.7682006359100342
sS'exec_cq'
p340
I103
sS'total_cq'
p341
I103
sa(dp342
g337
I0
sg338
F0.007294893264770508
sg339
F0.03455185890197754
sg340
I16
sg341
I16
sa(dp343
g337
I0
sg338
F0.0036721229553222656
sg339
F0.006285905838012695
sg340
I8
sg341
I8
sa(dp344
g337
I0
sg338
F0.0006067752838134766
sg339
F0.0010867118835449219
sg340
I4
sg341
I4
sa(dp345
g337
I0
sg338
F0.00031304359436035156
sg339
F0.0006687641143798828
sg340
I2
sg341
I2
sasS'total_cqs'
p346
I103
ssI34
(dp347
S'iters'
p348
I1
sS'meta'
p349
(lp350
(dp351
S'objective'
p352
I0
sS'query_time'
p353
F0.01786494255065918
sS'comp_time'
p354
F0.0018815994262695312
sS'exec_cq'
p355
I2
sS'total_cq'
p356
I2
sasS'total_cqs'
p357
I2
ssI35
(dp358
S'iters'
p359
I6
sS'meta'
p360
(lp361
(dp362
S'objective'
p363
I38
sS'query_time'
p364
F67.57431817054749
sS'comp_time'
p365
F2.3260743618011475
sS'exec_cq'
p366
I70
sS'total_cq'
p367
I70
sa(dp368
g363
I4
sg364
F0.004528045654296875
sg365
F0.01188802719116211
sg366
I16
sg367
I16
sa(dp369
g363
I0
sg364
F0.002640962600708008
sg365
F0.0071032047271728516
sg366
I10
sg367
I10
sa(dp370
g363
I1
sg364
F0.0009431838989257812
sg365
F0.0021982192993164062
sg366
I5
sg367
I5
sa(dp371
g363
I1
sg364
F0.00024700164794921875
sg365
F0.0005300045013427734
sg366
I3
sg367
I3
sa(dp372
g363
I0
sg364
F7.796287536621094e-05
sg365
F0.00021409988403320312
sg366
I2
sg367
I2
sasS'total_cqs'
p373
I70
ssI36
(dp374
S'iters'
p375
I3
sS'meta'
p376
(lp377
(dp378
S'objective'
p379
I25
sS'query_time'
p380
F0.8521161079406738
sS'comp_time'
p381
F0.09528398513793945
sS'exec_cq'
p382
I33
sS'total_cq'
p383
I33
sa(dp384
g379
I21
sg380
F0.006649017333984375
sg381
F0.013803482055664062
sg382
I29
sg383
I29
sa(dp385
g379
I23
sg380
F0.0021839141845703125
sg381
F0.003437042236328125
sg382
I25
sg383
I25
sasS'total_cqs'
p386
I33
ssI37
(dp387
S'iters'
p388
I1
sS'meta'
p389
(lp390
(dp391
S'objective'
p392
I0
sS'query_time'
p393
F0.019138097763061523
sS'comp_time'
p394
F0.0016510486602783203
sS'exec_cq'
p395
I2
sS'total_cq'
p396
I2
sasS'total_cqs'
p397
I2
ssI38
(dp398
S'iters'
p399
I2
sS'meta'
p400
(lp401
(dp402
S'objective'
p403
I0
sS'query_time'
p404
F0.03587198257446289
sS'comp_time'
p405
F0.003370046615600586
sS'exec_cq'
p406
I4
sS'total_cq'
p407
I4
sa(dp408
g403
I0
sg404
F7.700920104980469e-05
sg405
F0.00023508071899414062
sg406
I2
sg407
I2
sasS'total_cqs'
p409
I4
ssI39
(dp410
S'iters'
p411
I2
sS'meta'
p412
(lp413
(dp414
S'objective'
p415
I30
sS'query_time'
p416
F0.1782360076904297
sS'comp_time'
p417
F0.08034110069274902
sS'exec_cq'
p418
I44
sS'total_cq'
p419
I44
sa(dp420
g415
I35
sg416
F0.0003018379211425781
sg417
F0.0007712841033935547
sg418
I37
sg419
I37
sasS'total_cqs'
p421
I44
ssI40
(dp422
S'iters'
p423
I1
sS'meta'
p424
(lp425
(dp426
S'objective'
p427
I5
sS'query_time'
p428
F0.04921603202819824
sS'comp_time'
p429
F0.005715131759643555
sS'exec_cq'
p430
I7
sS'total_cq'
p431
I7
sasS'total_cqs'
p432
I7
ssI41
(dp433
S'iters'
p434
I1
sS'meta'
p435
(lp436
(dp437
S'objective'
p438
I10
sS'query_time'
p439
F0.0737459659576416
sS'comp_time'
p440
F0.017236709594726562
sS'exec_cq'
p441
I12
sS'total_cq'
p442
I12
sasS'total_cqs'
p443
I12
ssI42
(dp444
S'iters'
p445
I1
sS'meta'
p446
(lp447
(dp448
S'objective'
p449
I39
sS'query_time'
p450
F0.10364222526550293
sS'comp_time'
p451
F0.1433091163635254
sS'exec_cq'
p452
I41
sS'total_cq'
p453
I41
sasS'total_cqs'
p454
I41
ssI43
(dp455
S'iters'
p456
I1
sS'meta'
p457
(lp458
(dp459
S'objective'
p460
I5
sS'query_time'
p461
F0.02690601348876953
sS'comp_time'
p462
F0.005843162536621094
sS'exec_cq'
p463
I7
sS'total_cq'
p464
I7
sasS'total_cqs'
p465
I7
ssI44
(dp466
S'iters'
p467
I4
sS'meta'
p468
(lp469
(dp470
S'objective'
p471
I33
sS'query_time'
p472
F0.13941383361816406
sS'comp_time'
p473
F0.14907598495483398
sS'exec_cq'
p474
I47
sS'total_cq'
p475
I47
sa(dp476
g471
I34
sg472
F0.0002620220184326172
sg473
F0.0008797645568847656
sg474
I40
sg475
I40
sa(dp477
g471
I1
sg472
F0.0013270378112792969
sg473
F0.0012290477752685547
sg474
I3
sg475
I3
sa(dp478
g471
I0
sg472
F2.7179718017578125e-05
sg473
F9.822845458984375e-05
sg474
I2
sg475
I2
sasS'total_cqs'
p479
I47
ssI46
(dp480
S'iters'
p481
I2
sS'meta'
p482
(lp483
(dp484
S'objective'
p485
I4
sS'query_time'
p486
F0.017930984497070312
sS'comp_time'
p487
F0.0025403499603271484
sS'exec_cq'
p488
I6
sS'total_cq'
p489
I6
sa(dp490
g485
I3
sg486
F5.91278076171875e-05
sg487
F0.00013685226440429688
sg488
I5
sg489
I5
sasS'total_cqs'
p491
I6
ssI47
(dp492
S'iters'
p493
I1
sS'meta'
p494
(lp495
(dp496
S'objective'
p497
I0
sS'query_time'
p498
F0.009084939956665039
sS'comp_time'
p499
F0.0010449886322021484
sS'exec_cq'
p500
I2
sS'total_cq'
p501
I2
sasS'total_cqs'
p502
I2
ssI50
(dp503
S'iters'
p504
I1
sS'meta'
p505
(lp506
(dp507
S'objective'
p508
I3
sS'query_time'
p509
F0.09865617752075195
sS'comp_time'
p510
F0.0021524429321289062
sS'exec_cq'
p511
I5
sS'total_cq'
p512
I5
sasS'total_cqs'
p513
I5
ssI51
(dp514
S'iters'
p515
I1
sS'meta'
p516
(lp517
(dp518
S'objective'
p519
I0
sS'query_time'
p520
F0.00811004638671875
sS'comp_time'
p521
F0.0009829998016357422
sS'exec_cq'
p522
I2
sS'total_cq'
p523
I2
sasS'total_cqs'
p524
I2
ssI52
(dp525
S'iters'
p526
I1
sS'meta'
p527
(lp528
(dp529
S'objective'
p530
I0
sS'query_time'
p531
F0.008488893508911133
sS'comp_time'
p532
F0.0010898113250732422
sS'exec_cq'
p533
I2
sS'total_cq'
p534
I2
sasS'total_cqs'
p535
I2
ssI53
(dp536
S'iters'
p537
I2
sS'meta'
p538
(lp539
(dp540
S'objective'
p541
I0
sS'query_time'
p542
F0.0225830078125
sS'comp_time'
p543
F0.0022988319396972656
sS'exec_cq'
p544
I4
sS'total_cq'
p545
I4
sa(dp546
g541
I0
sg542
F0.00010895729064941406
sg543
F0.00023794174194335938
sg544
I2
sg545
I2
sasS'total_cqs'
p547
I4
ssI54
(dp548
S'iters'
p549
I2
sS'meta'
p550
(lp551
(dp552
S'objective'
p553
I1
sS'query_time'
p554
F0.0190889835357666
sS'comp_time'
p555
F0.0015609264373779297
sS'exec_cq'
p556
I3
sS'total_cq'
p557
I3
sa(dp558
g553
I0
sg554
F4.506111145019531e-05
sg555
F0.0001308917999267578
sg556
I2
sg557
I2
sasS'total_cqs'
p559
I3
ssI55
(dp560
S'iters'
p561
I9
sS'meta'
p562
(lp563
(dp564
S'objective'
p565
I85
sS'query_time'
p566
F2.3644230365753174
sS'comp_time'
p567
F0.6307988166809082
sS'exec_cq'
p568
I109
sS'total_cq'
p569
I109
sa(dp570
g565
I85
sg566
F0.0010230541229248047
sg567
F0.0045320987701416016
sg568
I97
sg569
I97
sa(dp571
g565
I83
sg566
F0.0004248619079589844
sg567
F0.0017740726470947266
sg568
I91
sg569
I91
sa(dp572
g565
I83
sg566
F0.0003991127014160156
sg567
F0.0013341903686523438
sg568
I87
sg569
I87
sa(dp573
g565
I81
sg566
F0.00038504600524902344
sg567
F0.0009152889251708984
sg568
I85
sg569
I85
sa(dp574
g565
I79
sg566
F0.0003979206085205078
sg567
F0.0009093284606933594
sg568
I83
sg569
I83
sa(dp575
g565
I79
sg566
F0.0003190040588378906
sg567
F0.0005602836608886719
sg568
I81
sg569
I81
sa(dp576
g565
I78
sg566
F0.00031495094299316406
sg567
F0.0003681182861328125
sg568
I80
sg569
I80
sa(dp577
g565
I77
sg566
F0.0003070831298828125
sg567
F0.00035190582275390625
sg568
I79
sg569
I79
sasS'total_cqs'
p578
I109
ssI56
(dp579
S'iters'
p580
I5
sS'meta'
p581
(lp582
(dp583
S'objective'
p584
I44
sS'query_time'
p585
F1.6457829475402832
sS'comp_time'
p586
F0.3372671604156494
sS'exec_cq'
p587
I67
sS'total_cq'
p588
I76
sa(dp589
g584
I0
sg585
F0.1805720329284668
sg586
F0.03790163993835449
sg587
I16
sg588
I16
sa(dp590
g584
I0
sg585
F0.0023040771484375
sg586
F0.0037751197814941406
sg587
I8
sg588
I8
sa(dp591
g584
I0
sg585
F0.0003349781036376953
sg586
F0.0008108615875244141
sg587
I4
sg588
I4
sa(dp592
g584
I0
sg585
F0.00013399124145507812
sg586
F0.000354766845703125
sg587
I2
sg588
I2
sasS'total_cqs'
p593
I76
ssI57
(dp594
S'iters'
p595
I5
sS'meta'
p596
(lp597
(dp598
S'objective'
p599
I11
sS'query_time'
p600
F24.16343402862549
sS'comp_time'
p601
F0.2717413902282715
sS'exec_cq'
p602
I45
sS'total_cq'
p603
I51
sa(dp604
g599
I5
sg600
F0.020128965377807617
sg601
F0.04210662841796875
sg602
I31
sg603
I31
sa(dp605
g599
I1
sg600
F0.0024449825286865234
sg601
F0.00405573844909668
sg602
I13
sg603
I13
sa(dp606
g599
I0
sg600
F0.001569986343383789
sg601
F0.002559185028076172
sg602
I6
sg603
I6
sa(dp607
g599
I1
sg600
F0.0011138916015625
sg601
F0.0010726451873779297
sg602
I3
sg603
I3
sasS'total_cqs'
p608
I51
ssI58
(dp609
S'iters'
p610
I6
sS'meta'
p611
(lp612
(dp613
S'objective'
p614
I342
sS'query_time'
p615
F329.5363428592682
sS'comp_time'
p616
F25.94850993156433
sS'exec_cq'
p617
I486
sS'total_cq'
p618
I486
sa(dp619
g614
I358
sg615
F5.506877899169922
sg616
F9.31139588356018
sg617
I414
sg618
I414
sa(dp620
g614
I0
sg615
F0.015765905380249023
sg616
F0.12138891220092773
sg617
I28
sg618
I28
sa(dp621
g614
I0
sg615
F0.0062408447265625
sg616
F0.03997802734375
sg617
I14
sg618
I14
sa(dp622
g614
I1
sg615
F0.004645109176635742
sg616
F0.006497859954833984
sg617
I7
sg618
I7
sa(dp623
g614
I1
sg615
F0.0017681121826171875
sg616
F0.003317117691040039
sg617
I3
sg618
I3
sasS'total_cqs'
p624
I486
ssI59
(dp625
S'iters'
p626
I2
sS'meta'
p627
(lp628
(dp629
S'objective'
p630
I3
sS'query_time'
p631
F0.045938968658447266
sS'comp_time'
p632
F0.00496983528137207
sS'exec_cq'
p633
I7
sS'total_cq'
p634
I7
sa(dp635
g630
I0
sg631
F0.00014901161193847656
sg632
F0.0005180835723876953
sg633
I2
sg634
I2
sasS'total_cqs'
p636
I7
ssI60
(dp637
S'iters'
p638
I3
sS'meta'
p639
(lp640
(dp641
S'objective'
p642
I3
sS'query_time'
p643
F0.015497207641601562
sS'comp_time'
p644
F0.0026938915252685547
sS'exec_cq'
p645
I4
sS'total_cq'
p646
I5
sa(dp647
g642
I2
sg643
F4.220008850097656e-05
sg644
F0.00013399124145507812
sg645
I3
sg646
I4
sa(dp648
g642
I1
sg643
F0.0021986961364746094
sg644
F6.914138793945312e-05
sg645
I3
sg646
I3
sasS'total_cqs'
p649
I5
ssI62
(dp650
S'iters'
p651
I3
sS'meta'
p652
(lp653
(dp654
S'objective'
p655
I6
sS'query_time'
p656
F0.030898094177246094
sS'comp_time'
p657
F0.016263246536254883
sS'exec_cq'
p658
I12
sS'total_cq'
p659
I12
sa(dp660
g655
I7
sg656
F5.698204040527344e-05
sg657
F0.00015974044799804688
sg658
I9
sg659
I9
sa(dp661
g655
I6
sg656
F3.1948089599609375e-05
sg657
F6.890296936035156e-05
sg658
I8
sg659
I8
sasS'total_cqs'
p662
I12
ssI64
(dp663
S'iters'
p664
I3
sS'meta'
p665
(lp666
(dp667
S'objective'
p668
I4
sS'query_time'
p669
F0.11608314514160156
sS'comp_time'
p670
F0.018509387969970703
sS'exec_cq'
p671
I12
sS'total_cq'
p672
I12
sa(dp673
g668
I0
sg669
F0.000102996826171875
sg670
F0.0005042552947998047
sg671
I4
sg672
I4
sa(dp674
g668
I0
sg669
F2.4080276489257812e-05
sg670
F9.560585021972656e-05
sg671
I2
sg672
I2
sasS'total_cqs'
p675
I12
ssI65
(dp676
S'iters'
p677
I4
sS'meta'
p678
(lp679
(dp680
S'objective'
p681
I13
sS'query_time'
p682
F1.0275120735168457
sS'comp_time'
p683
F0.05815577507019043
sS'exec_cq'
p684
I27
sS'total_cq'
p685
I27
sa(dp686
g681
I1
sg682
F0.0017309188842773438
sg683
F0.0030159950256347656
sg684
I7
sg685
I7
sa(dp687
g681
I0
sg682
F0.0006129741668701172
sg683
F0.0014579296112060547
sg684
I4
sg685
I4
sa(dp688
g681
I0
sg682
F0.00011801719665527344
sg683
F0.00025916099548339844
sg684
I2
sg685
I2
sasS'total_cqs'
p689
I27
ssI67
(dp690
S'iters'
p691
I2
sS'meta'
p692
(lp693
(dp694
S'objective'
p695
I31
sS'query_time'
p696
F1.0230019092559814
sS'comp_time'
p697
F0.14746356010437012
sS'exec_cq'
p698
I35
sS'total_cq'
p699
I35
sa(dp700
g695
I0
sg696
F0.001986980438232422
sg697
F0.003097057342529297
sg698
I2
sg699
I2
sasS'total_cqs'
p701
I35
ssI69
(dp702
S'iters'
p703
I1
sS'meta'
p704
(lp705
(dp706
S'objective'
p707
I49
sS'query_time'
p708
F0.16791009902954102
sS'comp_time'
p709
F0.09580278396606445
sS'exec_cq'
p710
I51
sS'total_cq'
p711
I51
sasS'total_cqs'
p712
I51
ssI70
(dp713
S'iters'
p714
I1
sS'meta'
p715
(lp716
(dp717
S'objective'
p718
I4
sS'query_time'
p719
F0.020531177520751953
sS'comp_time'
p720
F0.002592802047729492
sS'exec_cq'
p721
I6
sS'total_cq'
p722
I6
sasS'total_cqs'
p723
I6
ssI71
(dp724
S'iters'
p725
I6
sS'meta'
p726
(lp727
(dp728
S'objective'
p729
I77
sS'query_time'
p730
F0.2784242630004883
sS'comp_time'
p731
F0.32234787940979004
sS'exec_cq'
p732
I85
sS'total_cq'
p733
I85
sa(dp734
g729
I73
sg730
F0.0002830028533935547
sg731
F0.0011119842529296875
sg732
I81
sg733
I81
sa(dp735
g729
I71
sg730
F0.00021409988403320312
sg731
F0.0009059906005859375
sg732
I77
sg733
I77
sa(dp736
g729
I68
sg730
F0.00019097328186035156
sg731
F0.0007171630859375
sg732
I74
sg733
I74
sa(dp737
g729
I65
sg730
F0.00017499923706054688
sg731
F0.0005950927734375
sg732
I71
sg733
I71
sa(dp738
g729
I1
sg730
F0.002254962921142578
sg731
F0.002227783203125
sg732
I3
sg733
I3
sasS'total_cqs'
p739
I85
ssI72
(dp740
S'iters'
p741
I3
sS'meta'
p742
(lp743
(dp744
S'objective'
p745
I2
sS'query_time'
p746
F0.3031790256500244
sS'comp_time'
p747
F0.006070137023925781
sS'exec_cq'
p748
I8
sS'total_cq'
p749
I8
sa(dp750
g745
I1
sg746
F6.985664367675781e-05
sg747
F0.0001277923583984375
sg748
I4
sg749
I5
sa(dp751
g745
I1
sg746
F1.2874603271484375e-05
sg747
F2.8133392333984375e-05
sg748
I2
sg749
I3
sasS'total_cqs'
p752
I8
ssI75
(dp753
S'iters'
p754
I4
sS'meta'
p755
(lp756
(dp757
S'objective'
p758
I3
sS'query_time'
p759
F0.011222124099731445
sS'comp_time'
p760
F0.0025022029876708984
sS'exec_cq'
p761
I5
sS'total_cq'
p762
I5
sa(dp763
g758
I2
sg759
F2.9802322387695312e-05
sg760
F0.00014519691467285156
sg761
I4
sg762
I4
sa(dp764
g758
I1
sg759
F2.2172927856445312e-05
sg760
F0.00010776519775390625
sg761
I3
sg762
I3
sa(dp765
g758
I0
sg759
F1.5974044799804688e-05
sg760
F8.106231689453125e-05
sg761
I2
sg762
I2
sasS'total_cqs'
p766
I5
ssI76
(dp767
S'iters'
p768
I1
sS'meta'
p769
(lp770
(dp771
S'objective'
p772
I0
sS'query_time'
p773
F0.015013933181762695
sS'comp_time'
p774
F0.0009200572967529297
sS'exec_cq'
p775
I2
sS'total_cq'
p776
I2
sasS'total_cqs'
p777
I2
ssI103
(dp778
S'iters'
p779
I2
sS'meta'
p780
(lp781
(dp782
S'objective'
p783
I10
sS'query_time'
p784
F0.05607104301452637
sS'comp_time'
p785
F0.015215873718261719
sS'exec_cq'
p786
I12
sS'total_cq'
p787
I12
sa(dp788
g783
I9
sg784
F4.696846008300781e-05
sg785
F0.00011682510375976562
sg786
I11
sg787
I11
sasS'total_cqs'
p789
I12
ssI104
(dp790
S'iters'
p791
I2
sS'meta'
p792
(lp793
(dp794
S'objective'
p795
I0
sS'query_time'
p796
F1.4148468971252441
sS'comp_time'
p797
F0.12298893928527832
sS'exec_cq'
p798
I4
sS'total_cq'
p799
I4
sa(dp800
g795
I0
sg796
F0.014410018920898438
sg797
F0.0250399112701416
sg798
I2
sg799
I2
sasS'total_cqs'
p801
I4
ssI106
(dp802
S'iters'
p803
I1
sS'meta'
p804
(lp805
(dp806
S'objective'
p807
I2
sS'query_time'
p808
F0.019268035888671875
sS'comp_time'
p809
F0.0018467903137207031
sS'exec_cq'
p810
I4
sS'total_cq'
p811
I4
sasS'total_cqs'
p812
I4
ssI107
(dp813
S'iters'
p814
I2
sS'meta'
p815
(lp816
(dp817
S'objective'
p818
I10
sS'query_time'
p819
F0.08014202117919922
sS'comp_time'
p820
F0.02112126350402832
sS'exec_cq'
p821
I16
sS'total_cq'
p822
I16
sa(dp823
g818
I1
sg819
F0.005506992340087891
sg820
F0.0005080699920654297
sg821
I3
sg822
I3
sasS'total_cqs'
p824
I16
ss.