(dp0
I1
(dp1
S'iters'
p2
I4
sS'meta'
p3
(lp4
(dp5
S'objective'
p6
I48
sS'query_time'
p7
F0.033644914627075195
sS'comp_time'
p8
F0.019042015075683594
sS'exec_cq'
p9
I12
sS'total_cq'
p10
I12
sa(dp11
g6
I45
sg7
F6.413459777832031e-05
sg8
F0.0002281665802001953
sg9
I10
sg10
I10
sa(dp12
g6
I46
sg7
F6.103515625e-05
sg8
F0.0001628398895263672
sg9
I9
sg10
I9
sa(dp13
g6
I48
sg7
F4.220008850097656e-05
sg8
F0.0001430511474609375
sg9
I8
sg10
I8
sasS'total_cqs'
p14
I12
ssI2
(dp15
S'iters'
p16
I8
sS'meta'
p17
(lp18
(dp19
S'objective'
p20
I230
sS'query_time'
p21
F0.0664370059967041
sS'comp_time'
p22
F0.03323483467102051
sS'exec_cq'
p23
I13
sS'total_cq'
p24
I27
sa(dp25
g20
I190
sg21
F0.10910487174987793
sg22
F0.000766754150390625
sg23
I14
sg24
I24
sa(dp26
g20
I217
sg21
F8.392333984375e-05
sg22
F0.00038242340087890625
sg23
I11
sg24
I21
sa(dp27
g20
I192
sg21
F0.00010204315185546875
sg22
F0.0004298686981201172
sg23
I10
sg24
I19
sa(dp28
g20
I184
sg21
F7.390975952148438e-05
sg22
F0.0003108978271484375
sg23
I9
sg24
I17
sa(dp29
g20
I178
sg21
F5.3882598876953125e-05
sg22
F0.00022792816162109375
sg23
I8
sg24
I16
sa(dp30
g20
I168
sg21
F4.696846008300781e-05
sg22
F0.0001552104949951172
sg23
I8
sg24
I15
sa(dp31
g20
I176
sg21
F3.600120544433594e-05
sg22
F0.00014066696166992188
sg23
I7
sg24
I13
sasS'total_cqs'
p32
I27
ssI3
(dp33
S'iters'
p34
I4
sS'meta'
p35
(lp36
(dp37
S'objective'
p38
I234
sS'query_time'
p39
F74.40819096565247
sS'comp_time'
p40
F0.5706539154052734
sS'exec_cq'
p41
I16
sS'total_cq'
p42
I43
sa(dp43
g38
I52
sg39
F106.88439893722534
sg40
F2.2220048904418945
sg41
I14
sg42
I27
sa(dp44
g38
I115
sg39
F42.01710796356201
sg40
F0.6794061660766602
sg41
I9
sg42
I13
sa(dp45
g38
I75
sg39
F11.632266759872437
sg40
F0.0022232532501220703
sg41
I6
sg42
I6
sasS'total_cqs'
p46
I43
ssI4
(dp47
S'iters'
p48
I2
sS'meta'
p49
(lp50
(dp51
S'objective'
p52
I42
sS'query_time'
p53
F5.042623043060303
sS'comp_time'
p54
F0.9993069171905518
sS'exec_cq'
p55
I11
sS'total_cq'
p56
I11
sa(dp57
g52
I10
sg53
F0.3307061195373535
sg54
F1.195176124572754
sg55
I2
sg56
I2
sasS'total_cqs'
p58
I11
ssI5
(dp59
S'iters'
p60
I3
sS'meta'
p61
(lp62
(dp63
S'objective'
p64
I0
sS'query_time'
p65
F31.239880084991455
sS'comp_time'
p66
F4.610206842422485
sS'exec_cq'
p67
I8
sS'total_cq'
p68
I8
sa(dp69
g64
I0
sg65
F0.40292906761169434
sg66
F2.42536997795105
sg67
I4
sg68
I4
sa(dp70
g64
I7
sg65
F0.003844022750854492
sg66
F0.019598722457885742
sg67
I2
sg68
I2
sasS'total_cqs'
p71
I8
ssI6
(dp72
S'iters'
p73
I4
sS'meta'
p74
(lp75
(dp76
S'objective'
p77
I27
sS'query_time'
p78
F34.68455410003662
sS'comp_time'
p79
F3.5867068767547607
sS'exec_cq'
p80
I18
sS'total_cq'
p81
I18
sa(dp82
g77
I0
sg78
F0.632591962814331
sg79
F4.269544839859009
sg80
I7
sg81
I7
sa(dp83
g77
I0
sg78
F0.1265239715576172
sg79
F1.9224498271942139
sg80
I4
sg81
I4
sa(dp84
g77
I16
sg78
F0.014831066131591797
sg79
F0.2824208736419678
sg80
I2
sg81
I2
sasS'total_cqs'
p85
I18
ssI7
(dp86
S'iters'
p87
I4
sS'meta'
p88
(lp89
(dp90
S'objective'
p91
I1
sS'query_time'
p92
F12.513422966003418
sS'comp_time'
p93
F1.7932507991790771
sS'exec_cq'
p94
I9
sS'total_cq'
p95
I9
sa(dp96
g91
I1
sg92
F0.23115015029907227
sg93
F0.8358640670776367
sg94
I6
sg95
I6
sa(dp97
g91
I4
sg92
F0.007827043533325195
sg93
F0.17105531692504883
sg94
I3
sg95
I3
sa(dp98
g91
I2
sg92
F0.0026330947875976562
sg93
F0.017423152923583984
sg94
I2
sg95
I2
sasS'total_cqs'
p99
I9
ssI8
(dp100
S'iters'
p101
I5
sS'meta'
p102
(lp103
(dp104
S'objective'
p105
I280
sS'query_time'
p106
F0.08217692375183105
sS'comp_time'
p107
F0.032004594802856445
sS'exec_cq'
p108
I14
sS'total_cq'
p109
I27
sa(dp110
g105
I239
sg106
F0.06103992462158203
sg107
F0.0005710124969482422
sg108
I13
sg109
I24
sa(dp111
g105
I238
sg106
F0.000102996826171875
sg107
F0.00037789344787597656
sg108
I11
sg109
I21
sa(dp112
g105
I209
sg106
F8.416175842285156e-05
sg107
F0.00017404556274414062
sg108
I18
sg109
I18
sa(dp113
g105
I233
sg106
F7.295608520507812e-05
sg107
F0.00011205673217773438
sg108
I17
sg109
I17
sasS'total_cqs'
p114
I27
ssI9
(dp115
S'iters'
p116
I3
sS'meta'
p117
(lp118
(dp119
S'objective'
p120
I0
sS'query_time'
p121
F0.06328511238098145
sS'comp_time'
p122
F0.004581928253173828
sS'exec_cq'
p123
I7
sS'total_cq'
p124
I7
sa(dp125
g120
I4
sg121
F2.5033950805664062e-05
sg122
F0.0001850128173828125
sg123
I4
sg124
I4
sa(dp126
g120
I3
sg121
F1.2874603271484375e-05
sg122
F6.723403930664062e-05
sg123
I2
sg124
I2
sasS'total_cqs'
p127
I7
ssI10
(dp128
S'iters'
p129
I8
sS'meta'
p130
(lp131
(dp132
S'objective'
p133
I494
sS'query_time'
p134
F0.2121739387512207
sS'comp_time'
p135
F0.08962106704711914
sS'exec_cq'
p136
I28
sS'total_cq'
p137
I51
sa(dp138
g133
I244
sg134
F0.15029692649841309
sg135
F0.0016720294952392578
sg136
I23
sg137
I37
sa(dp139
g133
I337
sg134
F0.0002148151397705078
sg135
F0.0011248588562011719
sg136
I14
sg137
I25
sa(dp140
g133
I269
sg134
F8.606910705566406e-05
sg135
F0.00040793418884277344
sg136
I10
sg137
I21
sa(dp141
g133
I289
sg134
F8.106231689453125e-05
sg135
F0.00027942657470703125
sg136
I11
sg137
I19
sa(dp142
g133
I290
sg134
F5.698204040527344e-05
sg135
F0.00019407272338867188
sg136
I10
sg137
I18
sa(dp143
g133
I2
sg134
F0.0020339488983154297
sg135
F0.0003695487976074219
sg136
I3
sg137
I3
sa(dp144
g133
I6
sg134
F1.8835067749023438e-05
sg135
F0.00010585784912109375
sg136
I2
sg137
I2
sasS'total_cqs'
p145
I51
ssI11
(dp146
S'iters'
p147
I6
sS'meta'
p148
(lp149
(dp150
S'objective'
p151
I1090
sS'query_time'
p152
F0.8615219593048096
sS'comp_time'
p153
F0.1881422996520996
sS'exec_cq'
p154
I63
sS'total_cq'
p155
I63
sa(dp156
g151
I889
sg152
F0.0011849403381347656
sg153
F0.006197929382324219
sg154
I47
sg155
I47
sa(dp157
g151
I28
sg152
F0.0018310546875
sg153
F0.002572298049926758
sg154
I9
sg155
I9
sa(dp158
g151
I4
sg152
F3.790855407714844e-05
sg153
F0.00016832351684570312
sg154
I5
sg155
I5
sa(dp159
g151
I22
sg152
F2.002716064453125e-05
sg153
F9.989738464355469e-05
sg154
I3
sg155
I3
sa(dp160
g151
I26
sg152
F2.5033950805664062e-05
sg153
F8.678436279296875e-05
sg154
I2
sg155
I2
sasS'total_cqs'
p161
I63
ssI12
(dp162
S'iters'
p163
I8
sS'meta'
p164
(lp165
(dp166
S'objective'
p167
I501
sS'query_time'
p168
F0.16696691513061523
sS'comp_time'
p169
F0.08087301254272461
sS'exec_cq'
p170
I28
sS'total_cq'
p171
I50
sa(dp172
g167
I460
sg168
F0.17609095573425293
sg169
F0.002832174301147461
sg170
I22
sg171
I33
sa(dp173
g167
I548
sg168
F0.00012612342834472656
sg169
F0.0005590915679931641
sg170
I15
sg171
I26
sa(dp174
g167
I497
sg168
F9.107589721679688e-05
sg169
F0.0003814697265625
sg170
I13
sg171
I24
sa(dp175
g167
I472
sg168
F7.891654968261719e-05
sg169
F0.0003299713134765625
sg170
I11
sg171
I22
sa(dp176
g167
I247
sg168
F7.390975952148438e-05
sg169
F0.0002849102020263672
sg170
I11
sg171
I21
sa(dp177
g167
I338
sg168
F5.91278076171875e-05
sg169
F0.00018525123596191406
sg170
I10
sg171
I18
sa(dp178
g167
I19
sg168
F0.0014979839324951172
sg169
F0.00027680397033691406
sg170
I3
sg171
I3
sasS'total_cqs'
p179
I50
ssI13
(dp180
S'iters'
p181
I5
sS'meta'
p182
(lp183
(dp184
S'objective'
p185
I22
sS'query_time'
p186
F0.21339893341064453
sS'comp_time'
p187
F0.031160831451416016
sS'exec_cq'
p188
I20
sS'total_cq'
p189
I20
sa(dp190
g185
I6
sg186
F0.0022499561309814453
sg187
F0.000804901123046875
sg188
I11
sg189
I11
sa(dp191
g185
I5
sg186
F4.601478576660156e-05
sg187
F0.00025463104248046875
sg188
I6
sg189
I6
sa(dp192
g185
I8
sg186
F2.9087066650390625e-05
sg187
F0.00012493133544921875
sg188
I4
sg189
I4
sa(dp193
g185
I8
sg186
F2.288818359375e-05
sg187
F8.916854858398438e-05
sg188
I3
sg189
I3
sasS'total_cqs'
p194
I20
ssI14
(dp195
S'iters'
p196
I4
sS'meta'
p197
(lp198
(dp199
S'objective'
p200
I1
sS'query_time'
p201
F31.243057012557983
sS'comp_time'
p202
F1.9423682689666748
sS'exec_cq'
p203
I9
sS'total_cq'
p204
I9
sa(dp205
g200
I2
sg201
F0.394697904586792
sg202
F1.6344587802886963
sg203
I6
sg204
I6
sa(dp206
g200
I4
sg201
F0.28972291946411133
sg202
F1.085590124130249
sg203
I3
sg204
I3
sa(dp207
g200
I1
sg201
F0.228410005569458
sg202
F0.7872762680053711
sg203
I2
sg204
I2
sasS'total_cqs'
p208
I9
ssI15
(dp209
S'iters'
p210
I5
sS'meta'
p211
(lp212
(dp213
S'objective'
p214
I2
sS'query_time'
p215
F3.709336042404175
sS'comp_time'
p216
F0.27591514587402344
sS'exec_cq'
p217
I11
sS'total_cq'
p218
I11
sa(dp219
g214
I0
sg215
F0.041355133056640625
sg216
F0.26467084884643555
sg217
I6
sg218
I6
sa(dp220
g214
I0
sg215
F0.027093887329101562
sg216
F0.21738791465759277
sg217
I4
sg218
I4
sa(dp221
g214
I2
sg215
F0.017228126525878906
sg216
F0.18340635299682617
sg217
I3
sg218
I3
sa(dp222
g214
I1
sg215
F0.0011229515075683594
sg216
F0.005895376205444336
sg217
I2
sg218
I2
sasS'total_cqs'
p223
I11
ssI16
(dp224
S'iters'
p225
I1
sS'meta'
p226
(lp227
(dp228
S'objective'
p229
I34
sS'query_time'
p230
F0.018687009811401367
sS'comp_time'
p231
F0.004237174987792969
sS'exec_cq'
p232
I8
sS'total_cq'
p233
I8
sasS'total_cqs'
p234
I8
ssI17
(dp235
S'iters'
p236
I5
sS'meta'
p237
(lp238
(dp239
S'objective'
p240
I2
sS'query_time'
p241
F0.9232809543609619
sS'comp_time'
p242
F0.052757978439331055
sS'exec_cq'
p243
I11
sS'total_cq'
p244
I11
sa(dp245
g240
I0
sg241
F0.009368896484375
sg242
F0.03489232063293457
sg243
I7
sg244
I7
sa(dp246
g240
I2
sg241
F0.0003809928894042969
sg242
F0.0016357898712158203
sg243
I4
sg244
I4
sa(dp247
g240
I1
sg241
F0.0002739429473876953
sg242
F0.001718759536743164
sg243
I3
sg244
I3
sa(dp248
g240
I1
sg241
F0.00021791458129882812
sg242
F0.0014002323150634766
sg243
I2
sg244
I2
sasS'total_cqs'
p249
I11
ssI18
(dp250
S'iters'
p251
I2
sS'meta'
p252
(lp253
(dp254
S'objective'
p255
I56
sS'query_time'
p256
F0.21462798118591309
sS'comp_time'
p257
F0.02080559730529785
sS'exec_cq'
p258
I11
sS'total_cq'
p259
I11
sa(dp260
g255
I59
sg256
F0.0008921623229980469
sg257
F0.0009849071502685547
sg258
I10
sg259
I10
sasS'total_cqs'
p261
I11
ssI22
(dp262
S'iters'
p263
I1
sS'meta'
p264
(lp265
(dp266
S'objective'
p267
I169
sS'query_time'
p268
F0.08220100402832031
sS'comp_time'
p269
F0.029096126556396484
sS'exec_cq'
p270
I18
sS'total_cq'
p271
I18
sasS'total_cqs'
p272
I18
ssI23
(dp273
S'iters'
p274
I2
sS'meta'
p275
(lp276
(dp277
S'objective'
p278
I132
sS'query_time'
p279
F0.05943489074707031
sS'comp_time'
p280
F0.024624109268188477
sS'exec_cq'
p281
I8
sS'total_cq'
p282
I16
sa(dp283
g278
I132
sg279
F4.00543212890625e-05
sg280
F0.00012040138244628906
sg281
I7
sg282
I15
sasS'total_cqs'
p284
I16
ssI26
(dp285
S'iters'
p286
I1
sS'meta'
p287
(lp288
(dp289
S'objective'
p290
I901
sS'query_time'
p291
F0.16143298149108887
sS'comp_time'
p292
F0.11080503463745117
sS'exec_cq'
p293
I42
sS'total_cq'
p294
I42
sasS'total_cqs'
p295
I42
ssI27
(dp296
S'iters'
p297
I4
sS'meta'
p298
(lp299
(dp300
S'objective'
p301
I285
sS'query_time'
p302
F21.80522108078003
sS'comp_time'
p303
F4.523853778839111
sS'exec_cq'
p304
I30
sS'total_cq'
p305
I30
sa(dp306
g301
I0
sg302
F0.4330902099609375
sg303
F3.230318784713745
sg304
I5
sg305
I5
sa(dp307
g301
I15
sg302
F0.024461984634399414
sg303
F0.33336806297302246
sg304
I3
sg305
I3
sa(dp308
g301
I13
sg302
F0.02066183090209961
sg303
F0.3682408332824707
sg304
I2
sg305
I2
sasS'total_cqs'
p309
I30
ssI29
(dp310
S'iters'
p311
I7
sS'meta'
p312
(lp313
(dp314
S'objective'
p315
I301
sS'query_time'
p316
F26.111275911331177
sS'comp_time'
p317
F0.9375998973846436
sS'exec_cq'
p318
I35
sS'total_cq'
p319
I49
sa(dp320
g315
I0
sg316
F0.06142592430114746
sg317
F0.5225739479064941
sg318
I17
sg319
I17
sa(dp321
g315
I9
sg316
F0.00710606575012207
sg317
F0.026549339294433594
sg318
I11
sg319
I11
sa(dp322
g315
I0
sg316
F0.0051801204681396484
sg317
F0.02272343635559082
sg318
I7
sg319
I7
sa(dp323
g315
I8
sg316
F0.10723304748535156
sg317
F0.02021026611328125
sg318
I4
sg319
I4
sa(dp324
g315
I4
sg316
F0.0036499500274658203
sg317
F0.018271207809448242
sg318
I3
sg319
I3
sa(dp325
g315
I9
sg316
F0.0030977725982666016
sg317
F0.018521785736083984
sg318
I2
sg319
I2
sasS'total_cqs'
p326
I49
ssI30
(dp327
S'iters'
p328
I1
sS'meta'
p329
(lp330
(dp331
S'objective'
p332
I1
sS'query_time'
p333
F0.7279481887817383
sS'comp_time'
p334
F0.04069685935974121
sS'exec_cq'
p335
I2
sS'total_cq'
p336
I2
sasS'total_cqs'
p337
I2
ssI32
(dp338
S'iters'
p339
I1
sS'meta'
p340
(lp341
(dp342
S'objective'
p343
I1
sS'query_time'
p344
F0.012552022933959961
sS'comp_time'
p345
F0.0030591487884521484
sS'exec_cq'
p346
I2
sS'total_cq'
p347
I2
sasS'total_cqs'
p348
I2
ssI33
(dp349
S'iters'
p350
I7
sS'meta'
p351
(lp352
(dp353
S'objective'
p354
I3494
sS'query_time'
p355
F16.900662899017334
sS'comp_time'
p356
F1.1991426944732666
sS'exec_cq'
p357
I103
sS'total_cq'
p358
I103
sa(dp359
g354
I9
sg355
F0.010892152786254883
sg356
F0.03508925437927246
sg357
I16
sg358
I16
sa(dp360
g354
I12
sg355
F0.12869691848754883
sg356
F0.02095317840576172
sg357
I9
sg358
I9
sa(dp361
g354
I29
sg355
F0.0012531280517578125
sg356
F0.0059812068939208984
sg357
I5
sg358
I5
sa(dp362
g354
I21
sg355
F0.0006670951843261719
sg356
F0.003422260284423828
sg357
I4
sg358
I4
sa(dp363
g354
I26
sg355
F0.0004298686981201172
sg356
F0.003711223602294922
sg357
I3
sg358
I3
sa(dp364
g354
I12
sg355
F0.000392913818359375
sg356
F0.002975940704345703
sg357
I2
sg358
I2
sasS'total_cqs'
p365
I103
ssI34
(dp366
S'iters'
p367
I1
sS'meta'
p368
(lp369
(dp370
S'objective'
p371
I1
sS'query_time'
p372
F0.015402078628540039
sS'comp_time'
p373
F0.0019805431365966797
sS'exec_cq'
p374
I2
sS'total_cq'
p375
I2
sasS'total_cqs'
p376
I2
ssI35
(dp377
S'iters'
p378
I6
sS'meta'
p379
(lp380
(dp381
S'objective'
p382
I1481
sS'query_time'
p383
F22.213287115097046
sS'comp_time'
p384
F0.21801185607910156
sS'exec_cq'
p385
I50
sS'total_cq'
p386
I70
sa(dp387
g382
I54
sg383
F0.011732101440429688
sg384
F0.15492606163024902
sg385
I16
sg386
I16
sa(dp388
g382
I12
sg383
F0.0035300254821777344
sg384
F0.012109994888305664
sg385
I10
sg386
I10
sa(dp389
g382
I5
sg383
F0.0012791156768798828
sg384
F0.007262229919433594
sg385
I4
sg386
I4
sa(dp390
g382
I51
sg383
F0.0008549690246582031
sg384
F0.00477910041809082
sg385
I3
sg386
I3
sa(dp391
g382
I7
sg383
F0.0007479190826416016
sg384
F0.00529170036315918
sg385
I2
sg386
I2
sasS'total_cqs'
p392
I70
ssI36
(dp393
S'iters'
p394
I1
sS'meta'
p395
(lp396
(dp397
S'objective'
p398
I559
sS'query_time'
p399
F0.8576552867889404
sS'comp_time'
p400
F0.07811188697814941
sS'exec_cq'
p401
I28
sS'total_cq'
p402
I33
sasS'total_cqs'
p403
I33
ssI37
(dp404
S'iters'
p405
I1
sS'meta'
p406
(lp407
(dp408
S'objective'
p409
I1
sS'query_time'
p410
F0.012969017028808594
sS'comp_time'
p411
F0.003214120864868164
sS'exec_cq'
p412
I2
sS'total_cq'
p413
I2
sasS'total_cqs'
p414
I2
ssI38
(dp415
S'iters'
p416
I2
sS'meta'
p417
(lp418
(dp419
S'objective'
p420
I0
sS'query_time'
p421
F0.027070999145507812
sS'comp_time'
p422
F0.0035462379455566406
sS'exec_cq'
p423
I4
sS'total_cq'
p424
I4
sa(dp425
g420
I3
sg421
F7.200241088867188e-05
sg422
F0.00041484832763671875
sg423
I2
sg424
I2
sasS'total_cqs'
p426
I4
ssI39
(dp427
S'iters'
p428
I2
sS'meta'
p429
(lp430
(dp431
S'objective'
p432
I744
sS'query_time'
p433
F0.20427989959716797
sS'comp_time'
p434
F0.08383297920227051
sS'exec_cq'
p435
I44
sS'total_cq'
p436
I44
sa(dp437
g432
I865
sg433
F0.0003638267517089844
sg434
F0.0018219947814941406
sg435
I37
sg436
I37
sasS'total_cqs'
p438
I44
ssI40
(dp439
S'iters'
p440
I1
sS'meta'
p441
(lp442
(dp443
S'objective'
p444
I26
sS'query_time'
p445
F0.08664202690124512
sS'comp_time'
p446
F0.005795001983642578
sS'exec_cq'
p447
I7
sS'total_cq'
p448
I7
sasS'total_cqs'
p449
I7
ssI41
(dp450
S'iters'
p451
I2
sS'meta'
p452
(lp453
(dp454
S'objective'
p455
I60
sS'query_time'
p456
F0.07031083106994629
sS'comp_time'
p457
F0.026372194290161133
sS'exec_cq'
p458
I12
sS'total_cq'
p459
I12
sa(dp460
g455
I67
sg456
F5.984306335449219e-05
sg457
F0.0001728534698486328
sg458
I11
sg459
I11
sasS'total_cqs'
p461
I12
ssI42
(dp462
S'iters'
p463
I2
sS'meta'
p464
(lp465
(dp466
S'objective'
p467
I813
sS'query_time'
p468
F0.05410003662109375
sS'comp_time'
p469
F0.13320183753967285
sS'exec_cq'
p470
I21
sS'total_cq'
p471
I41
sa(dp472
g467
I835
sg468
F7.700920104980469e-05
sg469
F0.0001742839813232422
sg470
I20
sg471
I40
sasS'total_cqs'
p473
I41
ssI43
(dp474
S'iters'
p475
I1
sS'meta'
p476
(lp477
(dp478
S'objective'
p479
I26
sS'query_time'
p480
F0.02642679214477539
sS'comp_time'
p481
F0.005772113800048828
sS'exec_cq'
p482
I7
sS'total_cq'
p483
I7
sasS'total_cqs'
p484
I7
ssI44
(dp485
S'iters'
p486
I4
sS'meta'
p487
(lp488
(dp489
S'objective'
p490
I642
sS'query_time'
p491
F0.16066908836364746
sS'comp_time'
p492
F0.18002009391784668
sS'exec_cq'
p493
I47
sS'total_cq'
p494
I47
sa(dp495
g490
I795
sg491
F0.00028705596923828125
sg492
F0.0015482902526855469
sg493
I40
sg494
I40
sa(dp496
g490
I11
sg491
F0.0014309883117675781
sg492
F0.0018498897552490234
sg493
I3
sg494
I3
sa(dp497
g490
I15
sg491
F0.00010919570922851562
sg492
F0.0006999969482421875
sg493
I2
sg494
I2
sasS'total_cqs'
p498
I47
ssI46
(dp499
S'iters'
p500
I3
sS'meta'
p501
(lp502
(dp503
S'objective'
p504
I11
sS'query_time'
p505
F0.02367115020751953
sS'comp_time'
p506
F0.0030088424682617188
sS'exec_cq'
p507
I4
sS'total_cq'
p508
I6
sa(dp509
g504
I12
sg505
F2.7894973754882812e-05
sg506
F0.0001251697540283203
sg507
I3
sg508
I5
sa(dp510
g504
I12
sg505
F0.009048223495483398
sg506
F0.00014090538024902344
sg507
I4
sg508
I4
sasS'total_cqs'
p511
I6
ssI47
(dp512
S'iters'
p513
I1
sS'meta'
p514
(lp515
(dp516
S'objective'
p517
I1
sS'query_time'
p518
F0.009715795516967773
sS'comp_time'
p519
F0.0012178421020507812
sS'exec_cq'
p520
I2
sS'total_cq'
p521
I2
sasS'total_cqs'
p522
I2
ssI50
(dp523
S'iters'
p524
I4
sS'meta'
p525
(lp526
(dp527
S'objective'
p528
I5
sS'query_time'
p529
F0.015525102615356445
sS'comp_time'
p530
F0.002043008804321289
sS'exec_cq'
p531
I5
sS'total_cq'
p532
I5
sa(dp533
g528
I2
sg529
F3.1948089599609375e-05
sg530
F0.0001327991485595703
sg531
I4
sg532
I4
sa(dp534
g528
I0
sg529
F2.3126602172851562e-05
sg530
F0.00011277198791503906
sg531
I3
sg532
I3
sa(dp535
g528
I1
sg529
F1.811981201171875e-05
sg530
F9.512901306152344e-05
sg531
I2
sg532
I2
sasS'total_cqs'
p536
I5
ssI51
(dp537
S'iters'
p538
I1
sS'meta'
p539
(lp540
(dp541
S'objective'
p542
I1
sS'query_time'
p543
F0.008952856063842773
sS'comp_time'
p544
F0.001107931137084961
sS'exec_cq'
p545
I2
sS'total_cq'
p546
I2
sasS'total_cqs'
p547
I2
ssI52
(dp548
S'iters'
p549
I1
sS'meta'
p550
(lp551
(dp552
S'objective'
p553
I1
sS'query_time'
p554
F0.00847005844116211
sS'comp_time'
p555
F0.0010688304901123047
sS'exec_cq'
p556
I2
sS'total_cq'
p557
I2
sasS'total_cqs'
p558
I2
ssI53
(dp559
S'iters'
p560
I3
sS'meta'
p561
(lp562
(dp563
S'objective'
p564
I2
sS'query_time'
p565
F0.021785974502563477
sS'comp_time'
p566
F0.002977132797241211
sS'exec_cq'
p567
I4
sS'total_cq'
p568
I4
sa(dp569
g564
I0
sg565
F0.00010895729064941406
sg566
F0.0006248950958251953
sg567
I3
sg568
I3
sa(dp570
g564
I1
sg565
F8.702278137207031e-05
sg566
F0.0006084442138671875
sg567
I2
sg568
I2
sasS'total_cqs'
p571
I4
ssI54
(dp572
S'iters'
p573
I2
sS'meta'
p574
(lp575
(dp576
S'objective'
p577
I0
sS'query_time'
p578
F0.015529155731201172
sS'comp_time'
p579
F0.002215862274169922
sS'exec_cq'
p580
I3
sS'total_cq'
p581
I3
sa(dp582
g577
I1
sg578
F4.410743713378906e-05
sg579
F0.00033020973205566406
sg580
I2
sg581
I2
sasS'total_cqs'
p583
I3
ssI55
(dp584
S'iters'
p585
I9
sS'meta'
p586
(lp587
(dp588
S'objective'
p589
I4769
sS'query_time'
p590
F2.0994229316711426
sS'comp_time'
p591
F0.6669342517852783
sS'exec_cq'
p592
I109
sS'total_cq'
p593
I109
sa(dp594
g589
I4794
sg590
F0.001049041748046875
sg591
F0.004369974136352539
sg592
I97
sg593
I97
sa(dp595
g589
I4670
sg590
F0.0004639625549316406
sg591
F0.002238035202026367
sg592
I91
sg593
I91
sa(dp596
g589
I4533
sg590
F0.0004038810729980469
sg591
F0.0016548633575439453
sg592
I87
sg593
I87
sa(dp597
g589
I4458
sg590
F0.0003769397735595703
sg591
F0.001302957534790039
sg592
I85
sg593
I85
sa(dp598
g589
I4446
sg590
F0.0003788471221923828
sg591
F0.0011582374572753906
sg592
I83
sg593
I83
sa(dp599
g589
I4396
sg590
F0.0003249645233154297
sg591
F0.0008826255798339844
sg592
I82
sg593
I82
sa(dp600
g589
I4337
sg590
F0.0003070831298828125
sg591
F0.0008771419525146484
sg592
I80
sg593
I80
sa(dp601
g589
I4394
sg590
F0.00030112266540527344
sg591
F0.0007328987121582031
sg592
I79
sg593
I79
sasS'total_cqs'
p602
I109
ssI56
(dp603
S'iters'
p604
I6
sS'meta'
p605
(lp606
(dp607
S'objective'
p608
I1790
sS'query_time'
p609
F1.5672118663787842
sS'comp_time'
p610
F0.4316067695617676
sS'exec_cq'
p611
I67
sS'total_cq'
p612
I76
sa(dp613
g608
I12
sg609
F0.006566047668457031
sg610
F0.01749897003173828
sg611
I16
sg612
I16
sa(dp614
g608
I12
sg609
F0.005321979522705078
sg610
F0.013500213623046875
sg611
I10
sg612
I10
sa(dp615
g608
I13
sg609
F0.0010039806365966797
sg610
F0.004967212677001953
sg611
I6
sg612
I6
sa(dp616
g608
I1
sg609
F0.00035309791564941406
sg610
F0.002367734909057617
sg611
I4
sg612
I4
sa(dp617
g608
I33
sg609
F0.0001571178436279297
sg610
F0.0011522769927978516
sg611
I2
sg612
I2
sasS'total_cqs'
p618
I76
ssI57
(dp619
S'iters'
p620
I6
sS'meta'
p621
(lp622
(dp623
S'objective'
p624
I42
sS'query_time'
p625
F24.354437112808228
sS'comp_time'
p626
F0.1621541976928711
sS'exec_cq'
p627
I45
sS'total_cq'
p628
I51
sa(dp629
g624
I64
sg625
F0.015856027603149414
sg626
F0.038227081298828125
sg627
I27
sg628
I27
sa(dp630
g624
I7
sg625
F0.0027701854705810547
sg626
F0.0074498653411865234
sg627
I12
sg628
I12
sa(dp631
g624
I17
sg625
F0.0004949569702148438
sg626
F0.0029861927032470703
sg627
I6
sg628
I6
sa(dp632
g624
I26
sg625
F0.00042891502380371094
sg626
F0.0034427642822265625
sg627
I3
sg628
I3
sa(dp633
g624
I16
sg625
F0.00030112266540527344
sg626
F0.002237558364868164
sg627
I2
sg628
I2
sasS'total_cqs'
p634
I51
ssI58
(dp635
S'iters'
p636
I7
sS'meta'
p637
(lp638
(dp639
S'objective'
p640
I82415
sS'query_time'
p641
F112.60230112075806
sS'comp_time'
p642
F15.121341705322266
sS'exec_cq'
p643
I348
sS'total_cq'
p644
I486
sa(dp645
g640
I85282
sg641
F0.046334028244018555
sg642
F1.8854262828826904
sg643
I276
sg644
I414
sa(dp646
g640
I276
sg641
F0.01805400848388672
sg642
F0.09720087051391602
sg643
I28
sg644
I28
sa(dp647
g640
I4
sg641
F0.014484167098999023
sg642
F0.02806711196899414
sg643
I16
sg644
I16
sa(dp648
g640
I74
sg641
F0.0035009384155273438
sg642
F0.014570474624633789
sg643
I9
sg644
I9
sa(dp649
g640
I97
sg641
F0.0026731491088867188
sg642
F0.0076067447662353516
sg643
I5
sg644
I5
sa(dp650
g640
I385
sg641
F0.0014638900756835938
sg642
F0.005489349365234375
sg643
I2
sg644
I2
sasS'total_cqs'
p651
I486
ssI59
(dp652
S'iters'
p653
I2
sS'meta'
p654
(lp655
(dp656
S'objective'
p657
I18
sS'query_time'
p658
F0.06101417541503906
sS'comp_time'
p659
F0.019465208053588867
sS'exec_cq'
p660
I7
sS'total_cq'
p661
I7
sa(dp662
g657
I3
sg658
F0.000186920166015625
sg659
F0.001230001449584961
sg660
I2
sg661
I2
sasS'total_cqs'
p663
I7
ssI60
(dp664
S'iters'
p665
I4
sS'meta'
p666
(lp667
(dp668
S'objective'
p669
I9
sS'query_time'
p670
F0.012655973434448242
sS'comp_time'
p671
F0.0036051273345947266
sS'exec_cq'
p672
I2
sS'total_cq'
p673
I5
sa(dp674
g669
I2
sg670
F0.005576133728027344
sg671
F0.00016832351684570312
sg672
I3
sg673
I4
sa(dp675
g669
I1
sg670
F7.772445678710938e-05
sg671
F0.0004036426544189453
sg672
I2
sg673
I3
sa(dp676
g669
I1
sg670
F1.0967254638671875e-05
sg671
F6.771087646484375e-05
sg672
I1
sg673
I2
sasS'total_cqs'
p677
I5
ssI62
(dp678
S'iters'
p679
I3
sS'meta'
p680
(lp681
(dp682
S'objective'
p683
I26
sS'query_time'
p684
F0.030730009078979492
sS'comp_time'
p685
F0.01666116714477539
sS'exec_cq'
p686
I12
sS'total_cq'
p687
I12
sa(dp688
g683
I38
sg684
F4.482269287109375e-05
sg685
F0.0001609325408935547
sg686
I9
sg687
I9
sa(dp689
g683
I43
sg684
F3.3855438232421875e-05
sg685
F8.916854858398438e-05
sg686
I8
sg687
I8
sasS'total_cqs'
p690
I12
ssI64
(dp691
S'iters'
p692
I4
sS'meta'
p693
(lp694
(dp695
S'objective'
p696
I44
sS'query_time'
p697
F0.12458419799804688
sS'comp_time'
p698
F0.08490490913391113
sS'exec_cq'
p699
I12
sS'total_cq'
p700
I12
sa(dp701
g696
I1
sg697
F0.00016689300537109375
sg698
F0.0008192062377929688
sg699
I4
sg700
I4
sa(dp702
g696
I3
sg697
F5.507469177246094e-05
sg698
F0.00026726722717285156
sg699
I3
sg700
I3
sa(dp703
g696
I1
sg697
F4.9114227294921875e-05
sg698
F0.000263214111328125
sg699
I2
sg700
I2
sasS'total_cqs'
p704
I12
ssI65
(dp705
S'iters'
p706
I5
sS'meta'
p707
(lp708
(dp709
S'objective'
p710
I242
sS'query_time'
p711
F0.7137539386749268
sS'comp_time'
p712
F0.3197970390319824
sS'exec_cq'
p713
I27
sS'total_cq'
p714
I27
sa(dp715
g710
I4
sg711
F0.0016930103302001953
sg712
F0.00665283203125
sg713
I7
sg714
I7
sa(dp716
g710
I12
sg711
F0.0009391307830810547
sg712
F0.00399017333984375
sg713
I5
sg714
I5
sa(dp717
g710
I0
sg711
F0.0008101463317871094
sg712
F0.003981113433837891
sg713
I4
sg714
I4
sa(dp718
g710
I3
sg711
F0.0003058910369873047
sg712
F0.0022559165954589844
sg713
I2
sg714
I2
sasS'total_cqs'
p719
I27
ssI67
(dp720
S'iters'
p721
I2
sS'meta'
p722
(lp723
(dp724
S'objective'
p725
I566
sS'query_time'
p726
F0.9018800258636475
sS'comp_time'
p727
F0.0661318302154541
sS'exec_cq'
p728
I35
sS'total_cq'
p729
I35
sa(dp730
g725
I30
sg726
F0.0011298656463623047
sg727
F0.008575677871704102
sg728
I2
sg729
I2
sasS'total_cqs'
p731
I35
ssI69
(dp732
S'iters'
p733
I1
sS'meta'
p734
(lp735
(dp736
S'objective'
p737
I1324
sS'query_time'
p738
F0.1609020233154297
sS'comp_time'
p739
F0.22367525100708008
sS'exec_cq'
p740
I51
sS'total_cq'
p741
I51
sasS'total_cqs'
p742
I51
ssI70
(dp743
S'iters'
p744
I4
sS'meta'
p745
(lp746
(dp747
S'objective'
p748
I11
sS'query_time'
p749
F0.017987966537475586
sS'comp_time'
p750
F0.0030908584594726562
sS'exec_cq'
p751
I6
sS'total_cq'
p752
I6
sa(dp753
g748
I8
sg749
F4.315376281738281e-05
sg750
F0.0005724430084228516
sg751
I5
sg752
I5
sa(dp754
g748
I6
sg749
F3.814697265625e-05
sg750
F0.0006811618804931641
sg751
I4
sg752
I4
sa(dp755
g748
I7
sg749
F3.0994415283203125e-05
sg750
F0.000164031982421875
sg751
I3
sg752
I3
sasS'total_cqs'
p756
I6
ssI71
(dp757
S'iters'
p758
I9
sS'meta'
p759
(lp760
(dp761
S'objective'
p762
I3363
sS'query_time'
p763
F0.2724339962005615
sS'comp_time'
p764
F0.3091268539428711
sS'exec_cq'
p765
I73
sS'total_cq'
p766
I85
sa(dp767
g762
I3247
sg763
F0.0002918243408203125
sg764
F0.0011188983917236328
sg765
I69
sg766
I81
sa(dp768
g762
I3134
sg763
F0.0002307891845703125
sg764
F0.0009329319000244141
sg765
I65
sg766
I77
sa(dp769
g762
I3090
sg763
F0.00021004676818847656
sg764
F0.0007205009460449219
sg765
I62
sg766
I74
sa(dp770
g762
I3017
sg763
F0.0002009868621826172
sg764
F0.0006020069122314453
sg765
I60
sg766
I72
sa(dp771
g762
I2949
sg763
F0.00018405914306640625
sg764
F0.0005309581756591797
sg765
I57
sg766
I69
sa(dp772
g762
I2904
sg763
F0.00018095970153808594
sg764
F0.0003807544708251953
sg765
I56
sg766
I68
sa(dp773
g762
I31
sg763
F0.0024080276489257812
sg764
F0.0021452903747558594
sg765
I3
sg766
I3
sa(dp774
g762
I12
sg763
F0.0030541419982910156
sg764
F0.0001976490020751953
sg765
I2
sg766
I2
sasS'total_cqs'
p775
I85
ssI72
(dp776
S'iters'
p777
I4
sS'meta'
p778
(lp779
(dp780
S'objective'
p781
I14
sS'query_time'
p782
F0.029241085052490234
sS'comp_time'
p783
F0.0031557083129882812
sS'exec_cq'
p784
I4
sS'total_cq'
p785
I8
sa(dp786
g781
I1
sg782
F0.24554204940795898
sg783
F0.0033121109008789062
sg784
I4
sg785
I6
sa(dp787
g781
I4
sg782
F1.9073486328125e-05
sg783
F9.775161743164062e-05
sg784
I2
sg785
I4
sa(dp788
g781
I2
sg782
F3.2901763916015625e-05
sg783
F0.00018787384033203125
sg784
I2
sg785
I2
sasS'total_cqs'
p789
I8
ssI75
(dp790
S'iters'
p791
I4
sS'meta'
p792
(lp793
(dp794
S'objective'
p795
I5
sS'query_time'
p796
F0.02114701271057129
sS'comp_time'
p797
F0.005204916000366211
sS'exec_cq'
p798
I5
sS'total_cq'
p799
I5
sa(dp800
g795
I2
sg796
F2.7894973754882812e-05
sg797
F0.00011301040649414062
sg798
I4
sg799
I4
sa(dp801
g795
I0
sg796
F2.288818359375e-05
sg797
F9.059906005859375e-05
sg798
I3
sg799
I3
sa(dp802
g795
I1
sg796
F1.71661376953125e-05
sg797
F7.891654968261719e-05
sg798
I2
sg799
I2
sasS'total_cqs'
p803
I5
ssI76
(dp804
S'iters'
p805
I1
sS'meta'
p806
(lp807
(dp808
S'objective'
p809
I1
sS'query_time'
p810
F0.012611865997314453
sS'comp_time'
p811
F0.0010960102081298828
sS'exec_cq'
p812
I2
sS'total_cq'
p813
I2
sasS'total_cqs'
p814
I2
ssI103
(dp815
S'iters'
p816
I2
sS'meta'
p817
(lp818
(dp819
S'objective'
p820
I70
sS'query_time'
p821
F0.061315059661865234
sS'comp_time'
p822
F0.017785072326660156
sS'exec_cq'
p823
I12
sS'total_cq'
p824
I12
sa(dp825
g820
I72
sg821
F4.9114227294921875e-05
sg822
F0.0001621246337890625
sg823
I11
sg824
I11
sasS'total_cqs'
p826
I12
ssI104
(dp827
S'iters'
p828
I2
sS'meta'
p829
(lp830
(dp831
S'objective'
p832
I0
sS'query_time'
p833
F1.2540521621704102
sS'comp_time'
p834
F0.2574422359466553
sS'exec_cq'
p835
I4
sS'total_cq'
p836
I4
sa(dp837
g832
I3
sg833
F0.014945030212402344
sg834
F0.25470757484436035
sg835
I2
sg836
I2
sasS'total_cqs'
p838
I4
ssI106
(dp839
S'iters'
p840
I1
sS'meta'
p841
(lp842
(dp843
S'objective'
p844
I8
sS'query_time'
p845
F0.018723011016845703
sS'comp_time'
p846
F0.002025127410888672
sS'exec_cq'
p847
I4
sS'total_cq'
p848
I4
sasS'total_cqs'
p849
I4
ssI107
(dp850
S'iters'
p851
I2
sS'meta'
p852
(lp853
(dp854
S'objective'
p855
I92
sS'query_time'
p856
F0.06915688514709473
sS'comp_time'
p857
F0.019610881805419922
sS'exec_cq'
p858
I16
sS'total_cq'
p859
I16
sa(dp860
g855
I20
sg856
F0.004860877990722656
sg857
F0.0004711151123046875
sg858
I3
sg859
I3
sasS'total_cqs'
p861
I16
ss.