(dp0
I1
(dp1
S'iters'
p2
I4
sS'meta'
p3
(lp4
(dp5
S'objective'
p6
I8
sS'query_time'
p7
F0.05914592742919922
sS'comp_time'
p8
F0.01749110221862793
sS'exec_cq'
p9
I12
sS'total_cq'
p10
I12
sa(dp11
g6
I8
sg7
F5.698204040527344e-05
sg8
F0.00016379356384277344
sg9
I10
sg10
I10
sa(dp12
g6
I7
sg7
F3.1948089599609375e-05
sg8
F9.775161743164062e-05
sg9
I9
sg10
I9
sa(dp13
g6
I6
sg7
F2.7179718017578125e-05
sg8
F6.29425048828125e-05
sg9
I8
sg10
I8
sasS'total_cqs'
p14
I12
ssI2
(dp15
S'iters'
p16
I6
sS'meta'
p17
(lp18
(dp19
S'objective'
p20
I19
sS'query_time'
p21
F0.14328408241271973
sS'comp_time'
p22
F0.03326702117919922
sS'exec_cq'
p23
I27
sS'total_cq'
p24
I27
sa(dp25
g20
I17
sg21
F0.00019097328186035156
sg22
F0.0007929801940917969
sg23
I23
sg24
I23
sa(dp26
g20
I16
sg21
F0.00011396408081054688
sg22
F0.00039267539978027344
sg23
I20
sg24
I20
sa(dp27
g20
I14
sg21
F0.00010776519775390625
sg22
F0.000614166259765625
sg23
I18
sg24
I18
sa(dp28
g20
I14
sg21
F8.678436279296875e-05
sg22
F0.00047850608825683594
sg23
I16
sg24
I16
sa(dp29
g20
I13
sg21
F8.320808410644531e-05
sg22
F0.00017213821411132812
sg23
I15
sg24
I15
sasS'total_cqs'
p30
I27
ssI3
(dp31
S'iters'
p32
I4
sS'meta'
p33
(lp34
(dp35
S'objective'
p36
I27
sS'query_time'
p37
F226.14667677879333
sS'comp_time'
p38
F1.784607172012329
sS'exec_cq'
p39
I39
sS'total_cq'
p40
I43
sa(dp41
g36
I21
sg37
F0.5797667503356934
sg38
F2.237067937850952
sg39
I31
sg40
I35
sa(dp42
g36
I22
sg37
F12.846553087234497
sg38
F0.4630258083343506
sg39
I28
sg40
I28
sa(dp43
g36
I23
sg37
F0.024260997772216797
sg38
F0.00015091896057128906
sg39
I25
sg40
I25
sasS'total_cqs'
p44
I43
ssI4
(dp45
S'iters'
p46
I2
sS'meta'
p47
(lp48
(dp49
S'objective'
p50
I7
sS'query_time'
p51
F4.8556969165802
sS'comp_time'
p52
F0.3598020076751709
sS'exec_cq'
p53
I11
sS'total_cq'
p54
I11
sa(dp55
g50
I0
sg51
F0.17107295989990234
sg52
F0.2521371841430664
sg53
I2
sg54
I2
sasS'total_cqs'
p56
I11
ssI5
(dp57
S'iters'
p58
I3
sS'meta'
p59
(lp60
(dp61
S'objective'
p62
I0
sS'query_time'
p63
F31.22325587272644
sS'comp_time'
p64
F1.904590129852295
sS'exec_cq'
p65
I8
sS'total_cq'
p66
I8
sa(dp67
g62
I0
sg63
F0.5390961170196533
sg64
F1.5184686183929443
sg65
I4
sg66
I4
sa(dp68
g62
I0
sg63
F0.004613161087036133
sg64
F0.00616908073425293
sg65
I2
sg66
I2
sasS'total_cqs'
p69
I8
ssI6
(dp70
S'iters'
p71
I4
sS'meta'
p72
(lp73
(dp74
S'objective'
p75
I4
sS'query_time'
p76
F33.78407597541809
sS'comp_time'
p77
F1.483689785003662
sS'exec_cq'
p78
I18
sS'total_cq'
p79
I18
sa(dp80
g75
I1
sg76
F0.6507439613342285
sg77
F2.301316738128662
sg78
I7
sg79
I7
sa(dp81
g75
I0
sg76
F0.2992680072784424
sg77
F1.2326781749725342
sg78
I4
sg79
I4
sa(dp82
g75
I0
sg76
F0.11388993263244629
sg77
F0.01764988899230957
sg78
I2
sg79
I2
sasS'total_cqs'
p83
I18
ssI7
(dp84
S'iters'
p85
I4
sS'meta'
p86
(lp87
(dp88
S'objective'
p89
I1
sS'query_time'
p90
F12.641093015670776
sS'comp_time'
p91
F1.2599880695343018
sS'exec_cq'
p92
I9
sS'total_cq'
p93
I9
sa(dp94
g89
I1
sg90
F0.30979490280151367
sg91
F0.6705191135406494
sg92
I5
sg93
I5
sa(dp95
g89
I1
sg90
F0.21248483657836914
sg91
F0.32236289978027344
sg92
I3
sg93
I3
sa(dp96
g89
I0
sg90
F0.16441702842712402
sg91
F0.2777261734008789
sg92
I2
sg93
I2
sasS'total_cqs'
p97
I9
ssI8
(dp98
S'iters'
p99
I3
sS'meta'
p100
(lp101
(dp102
S'objective'
p103
I17
sS'query_time'
p104
F0.13949799537658691
sS'comp_time'
p105
F0.030167102813720703
sS'exec_cq'
p106
I27
sS'total_cq'
p107
I27
sa(dp108
g103
I16
sg104
F0.00020003318786621094
sg105
F0.0006453990936279297
sg106
I22
sg107
I22
sa(dp109
g103
I17
sg104
F7.510185241699219e-05
sg105
F0.00022745132446289062
sg106
I19
sg107
I19
sasS'total_cqs'
p110
I27
ssI9
(dp111
S'iters'
p112
I3
sS'meta'
p113
(lp114
(dp115
S'objective'
p116
I1
sS'query_time'
p117
F0.0604860782623291
sS'comp_time'
p118
F0.005201816558837891
sS'exec_cq'
p119
I7
sS'total_cq'
p120
I7
sa(dp121
g116
I0
sg117
F4.100799560546875e-05
sg118
F0.00022101402282714844
sg119
I4
sg120
I4
sa(dp122
g116
I0
sg117
F1.6927719116210938e-05
sg118
F7.462501525878906e-05
sg119
I2
sg120
I2
sasS'total_cqs'
p123
I7
ssI10
(dp124
S'iters'
p125
I6
sS'meta'
p126
(lp127
(dp128
S'objective'
p129
I23
sS'query_time'
p130
F0.38965392112731934
sS'comp_time'
p131
F0.08309006690979004
sS'exec_cq'
p132
I51
sS'total_cq'
p133
I51
sa(dp134
g129
I13
sg130
F0.00047707557678222656
sg131
F0.003032684326171875
sg132
I37
sg133
I37
sa(dp135
g129
I0
sg130
F0.005033969879150391
sg131
F0.004792690277099609
sg132
I12
sg133
I12
sa(dp136
g129
I0
sg130
F4.601478576660156e-05
sg131
F0.00034999847412109375
sg132
I6
sg133
I6
sa(dp137
g129
I1
sg130
F2.9087066650390625e-05
sg131
F0.00017023086547851562
sg132
I3
sg133
I3
sa(dp138
g129
I0
sg130
F1.5974044799804688e-05
sg131
F7.987022399902344e-05
sg132
I2
sg133
I2
sasS'total_cqs'
p139
I51
ssI11
(dp140
S'iters'
p141
I5
sS'meta'
p142
(lp143
(dp144
S'objective'
p145
I31
sS'query_time'
p146
F0.52730393409729
sS'comp_time'
p147
F0.17193031311035156
sS'exec_cq'
p148
I63
sS'total_cq'
p149
I63
sa(dp150
g145
I29
sg146
F0.0012810230255126953
sg147
F0.0044820308685302734
sg148
I47
sg149
I47
sa(dp151
g145
I1
sg146
F0.0018031597137451172
sg147
F0.0023581981658935547
sg148
I9
sg149
I9
sa(dp152
g145
I0
sg146
F3.0994415283203125e-05
sg147
F0.00022268295288085938
sg148
I4
sg149
I4
sa(dp153
g145
I0
sg146
F1.5974044799804688e-05
sg147
F8.916854858398438e-05
sg148
I2
sg149
I2
sasS'total_cqs'
p154
I63
ssI12
(dp155
S'iters'
p156
I5
sS'meta'
p157
(lp158
(dp159
S'objective'
p160
I16
sS'query_time'
p161
F0.345339298248291
sS'comp_time'
p162
F0.09022665023803711
sS'exec_cq'
p163
I50
sS'total_cq'
p164
I50
sa(dp165
g160
I17
sg161
F0.0005629062652587891
sg162
F0.002932310104370117
sg163
I33
sg164
I33
sa(dp166
g160
I0
sg161
F0.0024230480194091797
sg162
F0.001463174819946289
sg163
I8
sg164
I8
sa(dp167
g160
I0
sg161
F0.00019478797912597656
sg162
F0.0007295608520507812
sg163
I4
sg164
I4
sa(dp168
g160
I0
sg161
F2.5033950805664062e-05
sg162
F0.00011110305786132812
sg163
I2
sg164
I2
sasS'total_cqs'
p169
I50
ssI13
(dp170
S'iters'
p171
I3
sS'meta'
p172
(lp173
(dp174
S'objective'
p175
I2
sS'query_time'
p176
F0.16962885856628418
sS'comp_time'
p177
F0.029186487197875977
sS'exec_cq'
p178
I20
sS'total_cq'
p179
I20
sa(dp180
g175
I5
sg176
F6.604194641113281e-05
sg177
F0.0004420280456542969
sg178
I9
sg179
I9
sa(dp181
g175
I0
sg176
F0.0015308856964111328
sg177
F0.00018715858459472656
sg178
I2
sg179
I2
sasS'total_cqs'
p182
I20
ssI14
(dp183
S'iters'
p184
I3
sS'meta'
p185
(lp186
(dp187
S'objective'
p188
I1
sS'query_time'
p189
F32.10725498199463
sS'comp_time'
p190
F0.723426103591919
sS'exec_cq'
p191
I9
sS'total_cq'
p192
I9
sa(dp193
g188
I0
sg189
F0.07646799087524414
sg190
F0.43250298500061035
sg191
I4
sg192
I4
sa(dp194
g188
I0
sg189
F0.008723974227905273
sg190
F0.011693000793457031
sg191
I2
sg192
I2
sasS'total_cqs'
p195
I9
ssI15
(dp196
S'iters'
p197
I3
sS'meta'
p198
(lp199
(dp200
S'objective'
p201
I1
sS'query_time'
p202
F4.13024115562439
sS'comp_time'
p203
F0.08328866958618164
sS'exec_cq'
p204
I11
sS'total_cq'
p205
I11
sa(dp206
g201
I1
sg202
F0.028978824615478516
sg203
F0.03257107734680176
sg204
I5
sg205
I5
sa(dp207
g201
I0
sg202
F0.0011959075927734375
sg203
F0.0015478134155273438
sg204
I2
sg205
I2
sasS'total_cqs'
p208
I11
ssI16
(dp209
S'iters'
p210
I1
sS'meta'
p211
(lp212
(dp213
S'objective'
p214
I6
sS'query_time'
p215
F0.03255891799926758
sS'comp_time'
p216
F0.0045282840728759766
sS'exec_cq'
p217
I8
sS'total_cq'
p218
I8
sasS'total_cqs'
p219
I8
ssI17
(dp220
S'iters'
p221
I4
sS'meta'
p222
(lp223
(dp224
S'objective'
p225
I1
sS'query_time'
p226
F1.1043949127197266
sS'comp_time'
p227
F0.036028385162353516
sS'exec_cq'
p228
I11
sS'total_cq'
p229
I11
sa(dp230
g225
I3
sg226
F0.00015282630920410156
sg227
F0.0004420280456542969
sg228
I5
sg229
I5
sa(dp231
g225
I2
sg226
F0.00011301040649414062
sg227
F0.0002429485321044922
sg228
I4
sg229
I4
sa(dp232
g225
I1
sg226
F0.00010991096496582031
sg227
F0.00023603439331054688
sg228
I3
sg229
I3
sasS'total_cqs'
p233
I11
ssI18
(dp234
S'iters'
p235
I2
sS'meta'
p236
(lp237
(dp238
S'objective'
p239
I5
sS'query_time'
p240
F0.22157692909240723
sS'comp_time'
p241
F0.0225069522857666
sS'exec_cq'
p242
I11
sS'total_cq'
p243
I11
sa(dp244
g239
I6
sg240
F0.0004329681396484375
sg241
F0.0007696151733398438
sg242
I8
sg243
I8
sasS'total_cqs'
p245
I11
ssI22
(dp246
S'iters'
p247
I1
sS'meta'
p248
(lp249
(dp250
S'objective'
p251
I16
sS'query_time'
p252
F0.07745099067687988
sS'comp_time'
p253
F0.04041099548339844
sS'exec_cq'
p254
I18
sS'total_cq'
p255
I18
sasS'total_cqs'
p256
I18
ssI23
(dp257
S'iters'
p258
I3
sS'meta'
p259
(lp260
(dp261
S'objective'
p262
I12
sS'query_time'
p263
F0.05654025077819824
sS'comp_time'
p264
F0.026281118392944336
sS'exec_cq'
p265
I16
sS'total_cq'
p266
I16
sa(dp267
g262
I12
sg263
F9.989738464355469e-05
sg264
F0.0001933574676513672
sg265
I14
sg266
I14
sa(dp268
g262
I11
sg263
F4.982948303222656e-05
sg264
F8.177757263183594e-05
sg265
I13
sg266
I13
sasS'total_cqs'
p269
I16
ssI26
(dp270
S'iters'
p271
I1
sS'meta'
p272
(lp273
(dp274
S'objective'
p275
I40
sS'query_time'
p276
F0.19800400733947754
sS'comp_time'
p277
F0.10386800765991211
sS'exec_cq'
p278
I42
sS'total_cq'
p279
I42
sasS'total_cqs'
p280
I42
ssI27
(dp281
S'iters'
p282
I3
sS'meta'
p283
(lp284
(dp285
S'objective'
p286
I20
sS'query_time'
p287
F21.225712060928345
sS'comp_time'
p288
F1.646590232849121
sS'exec_cq'
p289
I30
sS'total_cq'
p290
I30
sa(dp291
g286
I1
sg287
F0.45667505264282227
sg288
F1.3740668296813965
sg289
I5
sg290
I5
sa(dp292
g286
I1
sg287
F0.4326901435852051
sg288
F0.8506121635437012
sg289
I3
sg290
I3
sasS'total_cqs'
p293
I30
ssI29
(dp294
S'iters'
p295
I6
sS'meta'
p296
(lp297
(dp298
S'objective'
p299
I15
sS'query_time'
p300
F26.746089935302734
sS'comp_time'
p301
F0.4655909538269043
sS'exec_cq'
p302
I35
sS'total_cq'
p303
I49
sa(dp304
g299
I1
sg300
F0.051892995834350586
sg301
F0.18659114837646484
sg302
I17
sg303
I17
sa(dp305
g299
I1
sg300
F0.0017998218536376953
sg301
F0.0025634765625
sg302
I9
sg303
I9
sa(dp306
g299
I1
sg300
F0.0007100105285644531
sg301
F0.00179290771484375
sg302
I5
sg303
I5
sa(dp307
g299
I1
sg300
F0.0006299018859863281
sg301
F0.0010123252868652344
sg302
I3
sg303
I3
sa(dp308
g299
I0
sg300
F0.0005860328674316406
sg301
F0.0008838176727294922
sg302
I2
sg303
I2
sasS'total_cqs'
p309
I49
ssI30
(dp310
S'iters'
p311
I1
sS'meta'
p312
(lp313
(dp314
S'objective'
p315
I0
sS'query_time'
p316
F0.7200651168823242
sS'comp_time'
p317
F0.012188196182250977
sS'exec_cq'
p318
I2
sS'total_cq'
p319
I2
sasS'total_cqs'
p320
I2
ssI32
(dp321
S'iters'
p322
I1
sS'meta'
p323
(lp324
(dp325
S'objective'
p326
I0
sS'query_time'
p327
F0.018633127212524414
sS'comp_time'
p328
F0.001789093017578125
sS'exec_cq'
p329
I2
sS'total_cq'
p330
I2
sasS'total_cqs'
p331
I2
ssI33
(dp332
S'iters'
p333
I5
sS'meta'
p334
(lp335
(dp336
S'objective'
p337
I71
sS'query_time'
p338
F16.699590921401978
sS'comp_time'
p339
F0.8553071022033691
sS'exec_cq'
p340
I103
sS'total_cq'
p341
I103
sa(dp342
g337
I0
sg338
F0.008048057556152344
sg339
F0.04066944122314453
sg340
I16
sg341
I16
sa(dp343
g337
I0
sg338
F0.004912137985229492
sg339
F0.007336139678955078
sg340
I8
sg341
I8
sa(dp344
g337
I0
sg338
F0.0008490085601806641
sg339
F0.0013179779052734375
sg340
I4
sg341
I4
sa(dp345
g337
I0
sg338
F0.0003409385681152344
sg339
F0.0006887912750244141
sg340
I2
sg341
I2
sasS'total_cqs'
p346
I103
ssI34
(dp347
S'iters'
p348
I1
sS'meta'
p349
(lp350
(dp351
S'objective'
p352
I0
sS'query_time'
p353
F0.01568317413330078
sS'comp_time'
p354
F0.00167083740234375
sS'exec_cq'
p355
I2
sS'total_cq'
p356
I2
sasS'total_cqs'
p357
I2
ssI35
(dp358
S'iters'
p359
I6
sS'meta'
p360
(lp361
(dp362
S'objective'
p363
I38
sS'query_time'
p364
F70.46050906181335
sS'comp_time'
p365
F2.3073208332061768
sS'exec_cq'
p366
I70
sS'total_cq'
p367
I70
sa(dp368
g363
I4
sg364
F0.004790067672729492
sg365
F0.011593818664550781
sg366
I16
sg367
I16
sa(dp369
g363
I0
sg364
F0.0025899410247802734
sg365
F0.007036447525024414
sg366
I10
sg367
I10
sa(dp370
g363
I1
sg364
F0.0008969306945800781
sg365
F0.0022192001342773438
sg366
I5
sg367
I5
sa(dp371
g363
I1
sg364
F0.00022602081298828125
sg365
F0.0005350112915039062
sg366
I3
sg367
I3
sa(dp372
g363
I0
sg364
F7.486343383789062e-05
sg365
F0.00020194053649902344
sg366
I2
sg367
I2
sasS'total_cqs'
p373
I70
ssI36
(dp374
S'iters'
p375
I3
sS'meta'
p376
(lp377
(dp378
S'objective'
p379
I25
sS'query_time'
p380
F0.7916507720947266
sS'comp_time'
p381
F0.09252071380615234
sS'exec_cq'
p382
I33
sS'total_cq'
p383
I33
sa(dp384
g379
I21
sg380
F0.006965160369873047
sg381
F0.015106916427612305
sg382
I29
sg383
I29
sa(dp385
g379
I23
sg380
F0.002409219741821289
sg381
F0.003756999969482422
sg382
I25
sg383
I25
sasS'total_cqs'
p386
I33
ssI37
(dp387
S'iters'
p388
I1
sS'meta'
p389
(lp390
(dp391
S'objective'
p392
I0
sS'query_time'
p393
F0.011303186416625977
sS'comp_time'
p394
F0.0016019344329833984
sS'exec_cq'
p395
I2
sS'total_cq'
p396
I2
sasS'total_cqs'
p397
I2
ssI38
(dp398
S'iters'
p399
I2
sS'meta'
p400
(lp401
(dp402
S'objective'
p403
I0
sS'query_time'
p404
F0.028081178665161133
sS'comp_time'
p405
F0.003555774688720703
sS'exec_cq'
p406
I4
sS'total_cq'
p407
I4
sa(dp408
g403
I0
sg404
F7.796287536621094e-05
sg405
F0.00023794174194335938
sg406
I2
sg407
I2
sasS'total_cqs'
p409
I4
ssI39
(dp410
S'iters'
p411
I2
sS'meta'
p412
(lp413
(dp414
S'objective'
p415
I30
sS'query_time'
p416
F0.23741698265075684
sS'comp_time'
p417
F0.08695149421691895
sS'exec_cq'
p418
I44
sS'total_cq'
p419
I44
sa(dp420
g415
I35
sg416
F0.0004360675811767578
sg417
F0.0009021759033203125
sg418
I37
sg419
I37
sasS'total_cqs'
p421
I44
ssI40
(dp422
S'iters'
p423
I1
sS'meta'
p424
(lp425
(dp426
S'objective'
p427
I5
sS'query_time'
p428
F0.09914994239807129
sS'comp_time'
p429
F0.005525112152099609
sS'exec_cq'
p430
I7
sS'total_cq'
p431
I7
sasS'total_cqs'
p432
I7
ssI41
(dp433
S'iters'
p434
I1
sS'meta'
p435
(lp436
(dp437
S'objective'
p438
I10
sS'query_time'
p439
F0.06935715675354004
sS'comp_time'
p440
F0.01597452163696289
sS'exec_cq'
p441
I12
sS'total_cq'
p442
I12
sasS'total_cqs'
p443
I12
ssI42
(dp444
S'iters'
p445
I1
sS'meta'
p446
(lp447
(dp448
S'objective'
p449
I39
sS'query_time'
p450
F0.10172390937805176
sS'comp_time'
p451
F0.1307811737060547
sS'exec_cq'
p452
I41
sS'total_cq'
p453
I41
sasS'total_cqs'
p454
I41
ssI43
(dp455
S'iters'
p456
I1
sS'meta'
p457
(lp458
(dp459
S'objective'
p460
I5
sS'query_time'
p461
F0.026582002639770508
sS'comp_time'
p462
F0.005720853805541992
sS'exec_cq'
p463
I7
sS'total_cq'
p464
I7
sasS'total_cqs'
p465
I7
ssI44
(dp466
S'iters'
p467
I4
sS'meta'
p468
(lp469
(dp470
S'objective'
p471
I33
sS'query_time'
p472
F0.23842191696166992
sS'comp_time'
p473
F0.15950369834899902
sS'exec_cq'
p474
I47
sS'total_cq'
p475
I47
sa(dp476
g471
I34
sg472
F0.00029397010803222656
sg473
F0.0009701251983642578
sg474
I40
sg475
I40
sa(dp477
g471
I1
sg472
F0.001773834228515625
sg473
F0.0012998580932617188
sg474
I3
sg475
I3
sa(dp478
g471
I0
sg472
F2.7179718017578125e-05
sg473
F9.679794311523438e-05
sg474
I2
sg475
I2
sasS'total_cqs'
p479
I47
ssI46
(dp480
S'iters'
p481
I2
sS'meta'
p482
(lp483
(dp484
S'objective'
p485
I4
sS'query_time'
p486
F0.12041807174682617
sS'comp_time'
p487
F0.0027589797973632812
sS'exec_cq'
p488
I6
sS'total_cq'
p489
I6
sa(dp490
g485
I3
sg486
F6.985664367675781e-05
sg487
F0.00014710426330566406
sg488
I5
sg489
I5
sasS'total_cqs'
p491
I6
ssI47
(dp492
S'iters'
p493
I1
sS'meta'
p494
(lp495
(dp496
S'objective'
p497
I0
sS'query_time'
p498
F0.00922393798828125
sS'comp_time'
p499
F0.0010437965393066406
sS'exec_cq'
p500
I2
sS'total_cq'
p501
I2
sasS'total_cqs'
p502
I2
ssI50
(dp503
S'iters'
p504
I1
sS'meta'
p505
(lp506
(dp507
S'objective'
p508
I3
sS'query_time'
p509
F0.013528108596801758
sS'comp_time'
p510
F0.002300262451171875
sS'exec_cq'
p511
I5
sS'total_cq'
p512
I5
sasS'total_cqs'
p513
I5
ssI51
(dp514
S'iters'
p515
I1
sS'meta'
p516
(lp517
(dp518
S'objective'
p519
I0
sS'query_time'
p520
F0.008565187454223633
sS'comp_time'
p521
F0.000988006591796875
sS'exec_cq'
p522
I2
sS'total_cq'
p523
I2
sasS'total_cqs'
p524
I2
ssI52
(dp525
S'iters'
p526
I1
sS'meta'
p527
(lp528
(dp529
S'objective'
p530
I0
sS'query_time'
p531
F0.010042905807495117
sS'comp_time'
p532
F0.00102996826171875
sS'exec_cq'
p533
I2
sS'total_cq'
p534
I2
sasS'total_cqs'
p535
I2
ssI53
(dp536
S'iters'
p537
I2
sS'meta'
p538
(lp539
(dp540
S'objective'
p541
I0
sS'query_time'
p542
F0.02158498764038086
sS'comp_time'
p543
F0.002778768539428711
sS'exec_cq'
p544
I4
sS'total_cq'
p545
I4
sa(dp546
g541
I0
sg542
F9.703636169433594e-05
sg543
F0.00021004676818847656
sg544
I2
sg545
I2
sasS'total_cqs'
p547
I4
ssI54
(dp548
S'iters'
p549
I2
sS'meta'
p550
(lp551
(dp552
S'objective'
p553
I1
sS'query_time'
p554
F0.011433124542236328
sS'comp_time'
p555
F0.0016491413116455078
sS'exec_cq'
p556
I3
sS'total_cq'
p557
I3
sa(dp558
g553
I0
sg554
F4.100799560546875e-05
sg555
F0.00011658668518066406
sg556
I2
sg557
I2
sasS'total_cqs'
p559
I3
ssI55
(dp560
S'iters'
p561
I9
sS'meta'
p562
(lp563
(dp564
S'objective'
p565
I85
sS'query_time'
p566
F2.1454219818115234
sS'comp_time'
p567
F0.6933388710021973
sS'exec_cq'
p568
I109
sS'total_cq'
p569
I109
sa(dp570
g565
I85
sg566
F0.0007488727569580078
sg567
F0.0031244754791259766
sg568
I97
sg569
I97
sa(dp571
g565
I83
sg566
F0.00032806396484375
sg567
F0.0012087821960449219
sg568
I91
sg569
I91
sa(dp572
g565
I83
sg566
F0.00029397010803222656
sg567
F0.0009829998016357422
sg568
I87
sg569
I87
sa(dp573
g565
I81
sg566
F0.00028014183044433594
sg567
F0.0006699562072753906
sg568
I85
sg569
I85
sa(dp574
g565
I79
sg566
F0.0002701282501220703
sg567
F0.0006160736083984375
sg568
I83
sg569
I83
sa(dp575
g565
I79
sg566
F0.0002429485321044922
sg567
F0.00040793418884277344
sg568
I81
sg569
I81
sa(dp576
g565
I78
sg566
F0.00023984909057617188
sg567
F0.00031876564025878906
sg568
I80
sg569
I80
sa(dp577
g565
I77
sg566
F0.00023818016052246094
sg567
F0.00026226043701171875
sg568
I79
sg569
I79
sasS'total_cqs'
p578
I109
ssI56
(dp579
S'iters'
p580
I5
sS'meta'
p581
(lp582
(dp583
S'objective'
p584
I44
sS'query_time'
p585
F1.5284678936004639
sS'comp_time'
p586
F0.22897553443908691
sS'exec_cq'
p587
I67
sS'total_cq'
p588
I76
sa(dp589
g584
I0
sg585
F0.14618206024169922
sg586
F0.0494389533996582
sg587
I16
sg588
I16
sa(dp590
g584
I0
sg585
F0.003103971481323242
sg586
F0.00516057014465332
sg587
I8
sg588
I8
sa(dp591
g584
I0
sg585
F0.00042891502380371094
sg586
F0.0009670257568359375
sg587
I4
sg588
I4
sa(dp592
g584
I0
sg585
F0.00017213821411132812
sg586
F0.0004928112030029297
sg587
I2
sg588
I2
sasS'total_cqs'
p593
I76
ssI57
(dp594
S'iters'
p595
I5
sS'meta'
p596
(lp597
(dp598
S'objective'
p599
I11
sS'query_time'
p600
F25.18427085876465
sS'comp_time'
p601
F0.20968937873840332
sS'exec_cq'
p602
I45
sS'total_cq'
p603
I51
sa(dp604
g599
I5
sg600
F0.02143120765686035
sg601
F0.04547405242919922
sg602
I31
sg603
I31
sa(dp605
g599
I1
sg600
F0.0027930736541748047
sg601
F0.004047870635986328
sg602
I13
sg603
I13
sa(dp606
g599
I0
sg600
F0.0014770030975341797
sg601
F0.002529621124267578
sg602
I6
sg603
I6
sa(dp607
g599
I1
sg600
F0.0010571479797363281
sg601
F0.0010831356048583984
sg602
I3
sg603
I3
sasS'total_cqs'
p608
I51
ssI58
(dp609
S'iters'
p610
I6
sS'meta'
p611
(lp612
(dp613
S'objective'
p614
I342
sS'query_time'
p615
F326.8738098144531
sS'comp_time'
p616
F24.508489847183228
sS'exec_cq'
p617
I486
sS'total_cq'
p618
I486
sa(dp619
g614
I358
sg615
F5.577430009841919
sg616
F9.342546939849854
sg617
I414
sg618
I414
sa(dp620
g614
I0
sg615
F0.015820026397705078
sg616
F0.12154841423034668
sg617
I28
sg618
I28
sa(dp621
g614
I0
sg615
F0.006054878234863281
sg616
F0.04091787338256836
sg617
I14
sg618
I14
sa(dp622
g614
I1
sg615
F0.0046498775482177734
sg616
F0.006510019302368164
sg617
I7
sg618
I7
sa(dp623
g614
I1
sg615
F0.0020132064819335938
sg616
F0.003022909164428711
sg617
I3
sg618
I3
sasS'total_cqs'
p624
I486
ssI59
(dp625
S'iters'
p626
I2
sS'meta'
p627
(lp628
(dp629
S'objective'
p630
I3
sS'query_time'
p631
F0.05141282081604004
sS'comp_time'
p632
F0.0061969757080078125
sS'exec_cq'
p633
I7
sS'total_cq'
p634
I7
sa(dp635
g630
I0
sg631
F0.00016880035400390625
sg632
F0.00037217140197753906
sg633
I2
sg634
I2
sasS'total_cqs'
p636
I7
ssI60
(dp637
S'iters'
p638
I3
sS'meta'
p639
(lp640
(dp641
S'objective'
p642
I3
sS'query_time'
p643
F0.016582250595092773
sS'comp_time'
p644
F0.0026063919067382812
sS'exec_cq'
p645
I4
sS'total_cq'
p646
I5
sa(dp647
g642
I2
sg643
F6.008148193359375e-05
sg644
F0.00017786026000976562
sg645
I3
sg646
I4
sa(dp648
g642
I1
sg643
F0.0032629966735839844
sg644
F8.869171142578125e-05
sg645
I3
sg646
I3
sasS'total_cqs'
p649
I5
ssI62
(dp650
S'iters'
p651
I3
sS'meta'
p652
(lp653
(dp654
S'objective'
p655
I6
sS'query_time'
p656
F0.03205418586730957
sS'comp_time'
p657
F0.04064798355102539
sS'exec_cq'
p658
I12
sS'total_cq'
p659
I12
sa(dp660
g655
I7
sg656
F6.890296936035156e-05
sg657
F0.00020003318786621094
sg658
I9
sg659
I9
sa(dp661
g655
I6
sg656
F3.504753112792969e-05
sg657
F9.179115295410156e-05
sg658
I8
sg659
I8
sasS'total_cqs'
p662
I12
ssI64
(dp663
S'iters'
p664
I3
sS'meta'
p665
(lp666
(dp667
S'objective'
p668
I4
sS'query_time'
p669
F0.12562179565429688
sS'comp_time'
p670
F0.021053075790405273
sS'exec_cq'
p671
I12
sS'total_cq'
p672
I12
sa(dp673
g668
I0
sg669
F0.00011897087097167969
sg670
F0.0005431175231933594
sg671
I4
sg672
I4
sa(dp674
g668
I0
sg669
F2.5987625122070312e-05
sg670
F0.00011444091796875
sg671
I2
sg672
I2
sasS'total_cqs'
p675
I12
ssI65
(dp676
S'iters'
p677
I4
sS'meta'
p678
(lp679
(dp680
S'objective'
p681
I13
sS'query_time'
p682
F0.7241799831390381
sS'comp_time'
p683
F0.04694962501525879
sS'exec_cq'
p684
I27
sS'total_cq'
p685
I27
sa(dp686
g681
I1
sg682
F0.09003615379333496
sg683
F0.003471851348876953
sg684
I7
sg685
I7
sa(dp687
g681
I0
sg682
F0.0005509853363037109
sg683
F0.0012929439544677734
sg684
I4
sg685
I4
sa(dp688
g681
I0
sg682
F0.00011897087097167969
sg683
F0.00026988983154296875
sg684
I2
sg685
I2
sasS'total_cqs'
p689
I27
ssI67
(dp690
S'iters'
p691
I2
sS'meta'
p692
(lp693
(dp694
S'objective'
p695
I31
sS'query_time'
p696
F0.9643590450286865
sS'comp_time'
p697
F0.17360901832580566
sS'exec_cq'
p698
I35
sS'total_cq'
p699
I35
sa(dp700
g695
I0
sg696
F0.0017230510711669922
sg697
F0.0034101009368896484
sg698
I2
sg699
I2
sasS'total_cqs'
p701
I35
ssI69
(dp702
S'iters'
p703
I1
sS'meta'
p704
(lp705
(dp706
S'objective'
p707
I49
sS'query_time'
p708
F0.16710209846496582
sS'comp_time'
p709
F0.11339306831359863
sS'exec_cq'
p710
I51
sS'total_cq'
p711
I51
sasS'total_cqs'
p712
I51
ssI70
(dp713
S'iters'
p714
I1
sS'meta'
p715
(lp716
(dp717
S'objective'
p718
I4
sS'query_time'
p719
F0.017995834350585938
sS'comp_time'
p720
F0.0028951168060302734
sS'exec_cq'
p721
I6
sS'total_cq'
p722
I6
sasS'total_cqs'
p723
I6
ssI71
(dp724
S'iters'
p725
I6
sS'meta'
p726
(lp727
(dp728
S'objective'
p729
I77
sS'query_time'
p730
F0.32859301567077637
sS'comp_time'
p731
F0.2701239585876465
sS'exec_cq'
p732
I85
sS'total_cq'
p733
I85
sa(dp734
g729
I73
sg730
F0.0003490447998046875
sg731
F0.0012104511260986328
sg732
I81
sg733
I81
sa(dp735
g729
I71
sg730
F0.00027298927307128906
sg731
F0.0009849071502685547
sg732
I77
sg733
I77
sa(dp736
g729
I68
sg730
F0.0002548694610595703
sg731
F0.0008420944213867188
sg732
I74
sg733
I74
sa(dp737
g729
I65
sg730
F0.00023508071899414062
sg731
F0.0006682872772216797
sg732
I71
sg733
I71
sa(dp738
g729
I1
sg730
F0.0022439956665039062
sg731
F0.0022003650665283203
sg732
I3
sg733
I3
sasS'total_cqs'
p739
I85
ssI72
(dp740
S'iters'
p741
I3
sS'meta'
p742
(lp743
(dp744
S'objective'
p745
I2
sS'query_time'
p746
F0.3119089603424072
sS'comp_time'
p747
F0.0039310455322265625
sS'exec_cq'
p748
I8
sS'total_cq'
p749
I8
sa(dp750
g745
I1
sg746
F9.107589721679688e-05
sg747
F0.0001499652862548828
sg748
I4
sg749
I5
sa(dp751
g745
I1
sg746
F1.6927719116210938e-05
sg747
F3.3855438232421875e-05
sg748
I2
sg749
I3
sasS'total_cqs'
p752
I8
ssI75
(dp753
S'iters'
p754
I4
sS'meta'
p755
(lp756
(dp757
S'objective'
p758
I3
sS'query_time'
p759
F0.019788026809692383
sS'comp_time'
p760
F0.0025870800018310547
sS'exec_cq'
p761
I5
sS'total_cq'
p762
I5
sa(dp763
g758
I2
sg759
F3.0040740966796875e-05
sg760
F0.00014400482177734375
sg761
I4
sg762
I4
sa(dp764
g758
I1
sg759
F2.288818359375e-05
sg760
F0.00010895729064941406
sg761
I3
sg762
I3
sa(dp765
g758
I0
sg759
F3.218650817871094e-05
sg760
F8.106231689453125e-05
sg761
I2
sg762
I2
sasS'total_cqs'
p766
I5
ssI76
(dp767
S'iters'
p768
I1
sS'meta'
p769
(lp770
(dp771
S'objective'
p772
I0
sS'query_time'
p773
F0.011307954788208008
sS'comp_time'
p774
F0.0008308887481689453
sS'exec_cq'
p775
I2
sS'total_cq'
p776
I2
sasS'total_cqs'
p777
I2
ssI103
(dp778
S'iters'
p779
I2
sS'meta'
p780
(lp781
(dp782
S'objective'
p783
I10
sS'query_time'
p784
F0.05494093894958496
sS'comp_time'
p785
F0.015366792678833008
sS'exec_cq'
p786
I12
sS'total_cq'
p787
I12
sa(dp788
g783
I9
sg784
F4.7206878662109375e-05
sg785
F8.678436279296875e-05
sg786
I11
sg787
I11
sasS'total_cqs'
p789
I12
ssI104
(dp790
S'iters'
p791
I2
sS'meta'
p792
(lp793
(dp794
S'objective'
p795
I0
sS'query_time'
p796
F1.4337191581726074
sS'comp_time'
p797
F0.1911771297454834
sS'exec_cq'
p798
I4
sS'total_cq'
p799
I4
sa(dp800
g795
I0
sg796
F0.01424407958984375
sg797
F0.024587154388427734
sg798
I2
sg799
I2
sasS'total_cqs'
p801
I4
ssI106
(dp802
S'iters'
p803
I1
sS'meta'
p804
(lp805
(dp806
S'objective'
p807
I2
sS'query_time'
p808
F0.018771886825561523
sS'comp_time'
p809
F0.0017938613891601562
sS'exec_cq'
p810
I4
sS'total_cq'
p811
I4
sasS'total_cqs'
p812
I4
ssI107
(dp813
S'iters'
p814
I2
sS'meta'
p815
(lp816
(dp817
S'objective'
p818
I10
sS'query_time'
p819
F0.06894207000732422
sS'comp_time'
p820
F0.01934504508972168
sS'exec_cq'
p821
I16
sS'total_cq'
p822
I16
sa(dp823
g818
I1
sg819
F0.005449056625366211
sg820
F0.0003631114959716797
sg821
I3
sg822
I3
sasS'total_cqs'
p824
I16
ss.