(dp0
I1
(dp1
S'iters'
p2
I3
sS'meta'
p3
(lp4
(dp5
S'objective'
p6
I8
sS'query_time'
p7
F0.03146100044250488
sS'comp_time'
p8
F0.00018930435180664062
sS'exec_cq'
p9
I12
sS'total_cq'
p10
I12
sa(dp11
g6
I8
sg7
F4.410743713378906e-05
sg8
F9.679794311523438e-05
sg9
I10
sg10
I10
sa(dp12
g6
I7
sg7
F2.9802322387695312e-05
sg8
F5.316734313964844e-05
sg9
I9
sg10
I9
sasS'total_cqs'
p13
I12
ssI2
(dp14
S'iters'
p15
I8
sS'meta'
p16
(lp17
(dp18
S'objective'
p19
I19
sS'query_time'
p20
F0.11693406105041504
sS'comp_time'
p21
F0.0010590553283691406
sS'exec_cq'
p22
I27
sS'total_cq'
p23
I27
sa(dp24
g19
I17
sg20
F0.00015807151794433594
sg21
F0.0004830360412597656
sg22
I23
sg23
I23
sa(dp25
g19
I16
sg20
F0.00012302398681640625
sg21
F0.00037980079650878906
sg22
I20
sg23
I20
sa(dp26
g19
I14
sg20
F8.893013000488281e-05
sg21
F0.00022077560424804688
sg22
I18
sg23
I18
sa(dp27
g19
I14
sg20
F7.891654968261719e-05
sg21
F0.0002048015594482422
sg22
I16
sg23
I16
sa(dp28
g19
I13
sg20
F6.008148193359375e-05
sg21
F0.00012683868408203125
sg22
I15
sg23
I15
sa(dp29
g19
I12
sg20
F5.1975250244140625e-05
sg21
F6.4849853515625e-05
sg22
I14
sg23
I14
sa(dp30
g19
I11
sg20
F4.601478576660156e-05
sg21
F5.1021575927734375e-05
sg22
I13
sg23
I13
sasS'total_cqs'
p31
I27
ssI3
(dp32
S'iters'
p33
I4
sS'meta'
p34
(lp35
(dp36
S'objective'
p37
I11
sS'query_time'
p38
F159.82099390029907
sS'comp_time'
p39
F1.5369088649749756
sS'exec_cq'
p40
I43
sS'total_cq'
p41
I43
sa(dp42
g37
I1
sg38
F0.34536004066467285
sg39
F1.3322689533233643
sg40
I27
sg41
I27
sa(dp43
g37
I1
sg38
F0.06495189666748047
sg39
F0.4735860824584961
sg40
I13
sg41
I13
sa(dp44
g37
I5
sg38
F6.198883056640625e-05
sg39
F0.0031709671020507812
sg40
I7
sg41
I7
sasS'total_cqs'
p45
I43
ssI4
(dp46
S'iters'
p47
I2
sS'meta'
p48
(lp49
(dp50
S'objective'
p51
I7
sS'query_time'
p52
F4.02140998840332
sS'comp_time'
p53
F0.49254608154296875
sS'exec_cq'
p54
I11
sS'total_cq'
p55
I11
sa(dp56
g51
I0
sg52
F0.1256258487701416
sg53
F0.3634037971496582
sg54
I2
sg55
I2
sasS'total_cqs'
p57
I11
ssI5
(dp58
S'iters'
p59
I3
sS'meta'
p60
(lp61
(dp62
S'objective'
p63
I0
sS'query_time'
p64
F27.620896816253662
sS'comp_time'
p65
F2.922137975692749
sS'exec_cq'
p66
I8
sS'total_cq'
p67
I8
sa(dp68
g63
I0
sg64
F0.010955810546875
sg65
F0.04337811470031738
sg66
I4
sg67
I4
sa(dp69
g63
I0
sg64
F0.003899097442626953
sg65
F0.016490697860717773
sg66
I2
sg67
I2
sasS'total_cqs'
p70
I8
ssI6
(dp71
S'iters'
p72
I4
sS'meta'
p73
(lp74
(dp75
S'objective'
p76
I4
sS'query_time'
p77
F30.258676052093506
sS'comp_time'
p78
F2.5212230682373047
sS'exec_cq'
p79
I18
sS'total_cq'
p80
I18
sa(dp81
g76
I1
sg77
F0.6199851036071777
sg78
F2.7334630489349365
sg79
I7
sg80
I7
sa(dp82
g76
I0
sg77
F0.027695894241333008
sg78
F0.08591175079345703
sg79
I4
sg80
I4
sa(dp83
g76
I0
sg77
F0.010915040969848633
sg78
F0.2027449607849121
sg79
I2
sg80
I2
sasS'total_cqs'
p84
I18
ssI7
(dp85
S'iters'
p86
I3
sS'meta'
p87
(lp88
(dp89
S'objective'
p90
I1
sS'query_time'
p91
F9.967001914978027
sS'comp_time'
p92
F0.9866960048675537
sS'exec_cq'
p93
I9
sS'total_cq'
p94
I9
sa(dp95
g90
I1
sg91
F0.010152816772460938
sg92
F0.03962588310241699
sg93
I5
sg94
I5
sa(dp96
g90
I0
sg91
F0.10987401008605957
sg92
F0.036306142807006836
sg93
I2
sg94
I2
sasS'total_cqs'
p97
I9
ssI8
(dp98
S'iters'
p99
I5
sS'meta'
p100
(lp101
(dp102
S'objective'
p103
I17
sS'query_time'
p104
F0.16251611709594727
sS'comp_time'
p105
F0.0011608600616455078
sS'exec_cq'
p106
I27
sS'total_cq'
p107
I27
sa(dp108
g103
I16
sg104
F0.00010895729064941406
sg105
F0.00026488304138183594
sg106
I22
sg107
I22
sa(dp109
g103
I17
sg104
F7.104873657226562e-05
sg105
F9.298324584960938e-05
sg106
I19
sg107
I19
sa(dp110
g103
I16
sg104
F5.0067901611328125e-05
sg105
F5.602836608886719e-05
sg106
I18
sg107
I18
sa(dp111
g103
I15
sg104
F4.792213439941406e-05
sg105
F6.4849853515625e-05
sg106
I17
sg107
I17
sasS'total_cqs'
p112
I27
ssI9
(dp113
S'iters'
p114
I3
sS'meta'
p115
(lp116
(dp117
S'objective'
p118
I1
sS'query_time'
p119
F0.04138803482055664
sS'comp_time'
p120
F0.00021719932556152344
sS'exec_cq'
p121
I7
sS'total_cq'
p122
I7
sa(dp123
g118
I0
sg119
F3.1948089599609375e-05
sg120
F6.389617919921875e-05
sg121
I4
sg122
I4
sa(dp124
g118
I0
sg119
F0.0010690689086914062
sg120
F6.890296936035156e-05
sg121
I2
sg122
I2
sasS'total_cqs'
p125
I7
ssI10
(dp126
S'iters'
p127
I6
sS'meta'
p128
(lp129
(dp130
S'objective'
p131
I23
sS'query_time'
p132
F0.42266011238098145
sS'comp_time'
p133
F0.006557941436767578
sS'exec_cq'
p134
I51
sS'total_cq'
p135
I51
sa(dp136
g131
I13
sg132
F0.0004191398620605469
sg133
F0.0013191699981689453
sg134
I37
sg135
I37
sa(dp137
g131
I0
sg132
F0.003940105438232422
sg133
F0.0004718303680419922
sg134
I12
sg135
I12
sa(dp138
g131
I2
sg132
F4.410743713378906e-05
sg133
F0.00013685226440429688
sg134
I6
sg135
I6
sa(dp139
g131
I0
sg132
F3.0994415283203125e-05
sg133
F7.62939453125e-05
sg134
I4
sg135
I4
sa(dp140
g131
I0
sg132
F1.5974044799804688e-05
sg133
F5.507469177246094e-05
sg134
I2
sg135
I2
sasS'total_cqs'
p141
I51
ssI11
(dp142
S'iters'
p143
I5
sS'meta'
p144
(lp145
(dp146
S'objective'
p147
I31
sS'query_time'
p148
F0.6389830112457275
sS'comp_time'
p149
F0.013808965682983398
sS'exec_cq'
p150
I63
sS'total_cq'
p151
I63
sa(dp152
g147
I29
sg148
F0.0010941028594970703
sg149
F0.004086017608642578
sg150
I47
sg151
I47
sa(dp153
g147
I1
sg148
F0.0015499591827392578
sg149
F0.0009429454803466797
sg150
I9
sg151
I9
sa(dp154
g147
I0
sg148
F3.0994415283203125e-05
sg149
F0.000102996826171875
sg150
I4
sg151
I4
sa(dp155
g147
I0
sg148
F1.5974044799804688e-05
sg149
F5.507469177246094e-05
sg150
I2
sg151
I2
sasS'total_cqs'
p156
I63
ssI12
(dp157
S'iters'
p158
I5
sS'meta'
p159
(lp160
(dp161
S'objective'
p162
I16
sS'query_time'
p163
F0.4174771308898926
sS'comp_time'
p164
F0.006944179534912109
sS'exec_cq'
p165
I50
sS'total_cq'
p166
I50
sa(dp167
g162
I17
sg163
F0.0005159378051757812
sg164
F0.0017659664154052734
sg165
I33
sg166
I33
sa(dp168
g162
I0
sg163
F0.0013620853424072266
sg164
F0.0012660026550292969
sg165
I8
sg166
I8
sa(dp169
g162
I0
sg163
F0.00016999244689941406
sg164
F0.000888824462890625
sg165
I4
sg166
I4
sa(dp170
g162
I0
sg163
F2.193450927734375e-05
sg164
F9.179115295410156e-05
sg165
I2
sg166
I2
sasS'total_cqs'
p171
I50
ssI13
(dp172
S'iters'
p173
I3
sS'meta'
p174
(lp175
(dp176
S'objective'
p177
I2
sS'query_time'
p178
F0.20459699630737305
sS'comp_time'
p179
F0.00037384033203125
sS'exec_cq'
p180
I20
sS'total_cq'
p181
I20
sa(dp182
g177
I5
sg178
F4.291534423828125e-05
sg179
F5.7220458984375e-05
sg180
I9
sg181
I9
sa(dp183
g177
I0
sg178
F0.0008912086486816406
sg179
F5.507469177246094e-05
sg180
I2
sg181
I2
sasS'total_cqs'
p184
I20
ssI14
(dp185
S'iters'
p186
I3
sS'meta'
p187
(lp188
(dp189
S'objective'
p190
I1
sS'query_time'
p191
F27.399877071380615
sS'comp_time'
p192
F0.9412257671356201
sS'exec_cq'
p193
I9
sS'total_cq'
p194
I9
sa(dp195
g190
I1
sg191
F0.008388996124267578
sg192
F0.03331303596496582
sg193
I5
sg194
I5
sa(dp196
g190
I0
sg191
F0.005774974822998047
sg192
F0.1014258861541748
sg193
I2
sg194
I2
sasS'total_cqs'
p197
I9
ssI15
(dp198
S'iters'
p199
I3
sS'meta'
p200
(lp201
(dp202
S'objective'
p203
I1
sS'query_time'
p204
F3.166703939437866
sS'comp_time'
p205
F0.18548798561096191
sS'exec_cq'
p206
I11
sS'total_cq'
p207
I11
sa(dp208
g203
I2
sg204
F0.0005648136138916016
sg205
F0.0024220943450927734
sg206
I6
sg207
I6
sa(dp209
g203
I0
sg204
F0.0002968311309814453
sg205
F0.001895904541015625
sg206
I2
sg207
I2
sasS'total_cqs'
p210
I11
ssI16
(dp211
S'iters'
p212
I1
sS'meta'
p213
(lp214
(dp215
S'objective'
p216
I6
sS'query_time'
p217
F0.019440889358520508
sS'comp_time'
p218
F0.0001327991485595703
sS'exec_cq'
p219
I8
sS'total_cq'
p220
I8
sasS'total_cqs'
p221
I8
ssI17
(dp222
S'iters'
p223
I3
sS'meta'
p224
(lp225
(dp226
S'objective'
p227
I1
sS'query_time'
p228
F0.9522039890289307
sS'comp_time'
p229
F0.017547130584716797
sS'exec_cq'
p230
I11
sS'total_cq'
p231
I11
sa(dp232
g227
I2
sg228
F0.00016808509826660156
sg229
F0.0008270740509033203
sg230
I6
sg231
I6
sa(dp233
g227
I0
sg228
F0.00013494491577148438
sg229
F0.0008993148803710938
sg230
I2
sg231
I2
sasS'total_cqs'
p234
I11
ssI18
(dp235
S'iters'
p236
I4
sS'meta'
p237
(lp238
(dp239
S'objective'
p240
I5
sS'query_time'
p241
F0.306751012802124
sS'comp_time'
p242
F0.0048749446868896484
sS'exec_cq'
p243
I11
sS'total_cq'
p244
I11
sa(dp245
g240
I6
sg241
F0.0002090930938720703
sg242
F0.0010502338409423828
sg243
I8
sg244
I8
sa(dp246
g240
I5
sg241
F6.508827209472656e-05
sg242
F0.00026297569274902344
sg243
I7
sg244
I7
sa(dp247
g240
I4
sg241
F3.218650817871094e-05
sg242
F0.00010204315185546875
sg243
I6
sg244
I6
sasS'total_cqs'
p248
I11
ssI22
(dp249
S'iters'
p250
I1
sS'meta'
p251
(lp252
(dp253
S'objective'
p254
I16
sS'query_time'
p255
F0.10612702369689941
sS'comp_time'
p256
F0.00018405914306640625
sS'exec_cq'
p257
I18
sS'total_cq'
p258
I18
sasS'total_cqs'
p259
I18
ssI23
(dp260
S'iters'
p261
I3
sS'meta'
p262
(lp263
(dp264
S'objective'
p265
I12
sS'query_time'
p266
F0.05513310432434082
sS'comp_time'
p267
F0.0005328655242919922
sS'exec_cq'
p268
I16
sS'total_cq'
p269
I16
sa(dp270
g265
I12
sg266
F9.608268737792969e-05
sg267
F0.0002779960632324219
sg268
I14
sg269
I14
sa(dp271
g265
I11
sg266
F5.3882598876953125e-05
sg267
F6.198883056640625e-05
sg268
I13
sg269
I13
sasS'total_cqs'
p272
I16
ssI26
(dp273
S'iters'
p274
I1
sS'meta'
p275
(lp276
(dp277
S'objective'
p278
I40
sS'query_time'
p279
F0.16989612579345703
sS'comp_time'
p280
F0.00016188621520996094
sS'exec_cq'
p281
I42
sS'total_cq'
p282
I42
sasS'total_cqs'
p283
I42
ssI27
(dp284
S'iters'
p285
I3
sS'meta'
p286
(lp287
(dp288
S'objective'
p289
I20
sS'query_time'
p290
F17.39314103126526
sS'comp_time'
p291
F1.9454751014709473
sS'exec_cq'
p292
I30
sS'total_cq'
p293
I30
sa(dp294
g289
I1
sg290
F0.36407899856567383
sg291
F1.8751449584960938
sg292
I5
sg293
I5
sa(dp295
g289
I0
sg290
F0.06540107727050781
sg291
F0.4528367519378662
sg292
I2
sg293
I2
sasS'total_cqs'
p296
I30
ssI29
(dp297
S'iters'
p298
I5
sS'meta'
p299
(lp300
(dp301
S'objective'
p302
I15
sS'query_time'
p303
F134.62946915626526
sS'comp_time'
p304
F12.950681209564209
sS'exec_cq'
p305
I49
sS'total_cq'
p306
I49
sa(dp307
g302
I1
sg303
F0.020239830017089844
sg304
F0.04496908187866211
sg305
I17
sg306
I17
sa(dp308
g302
I1
sg303
F0.63071608543396
sg304
F0.051226139068603516
sg305
I9
sg306
I9
sa(dp309
g302
I1
sg303
F0.003342866897583008
sg304
F0.011934041976928711
sg305
I5
sg306
I5
sa(dp310
g302
I1
sg303
F0.0011019706726074219
sg304
F0.004438877105712891
sg305
I3
sg306
I3
sasS'total_cqs'
p311
I49
ssI30
(dp312
S'iters'
p313
I1
sS'meta'
p314
(lp315
(dp316
S'objective'
p317
I0
sS'query_time'
p318
F0.7048900127410889
sS'comp_time'
p319
F0.027497053146362305
sS'exec_cq'
p320
I2
sS'total_cq'
p321
I2
sasS'total_cqs'
p322
I2
ssI32
(dp323
S'iters'
p324
I1
sS'meta'
p325
(lp326
(dp327
S'objective'
p328
I0
sS'query_time'
p329
F0.011758804321289062
sS'comp_time'
p330
F0.00028896331787109375
sS'exec_cq'
p331
I2
sS'total_cq'
p332
I2
sasS'total_cqs'
p333
I2
ssI33
(dp334
S'iters'
p335
I5
sS'meta'
p336
(lp337
(dp338
S'objective'
p339
I71
sS'query_time'
p340
F14.292841911315918
sS'comp_time'
p341
F0.14930391311645508
sS'exec_cq'
p342
I103
sS'total_cq'
p343
I103
sa(dp344
g339
I0
sg340
F0.007712125778198242
sg341
F0.04155087471008301
sg342
I16
sg343
I16
sa(dp345
g339
I0
sg340
F0.0037810802459716797
sg341
F0.0094757080078125
sg342
I8
sg343
I8
sa(dp346
g339
I0
sg340
F0.0013349056243896484
sg341
F0.004781961441040039
sg342
I4
sg343
I4
sa(dp347
g339
I0
sg340
F0.0002579689025878906
sg341
F0.0015671253204345703
sg342
I2
sg343
I2
sasS'total_cqs'
p348
I103
ssI34
(dp349
S'iters'
p350
I1
sS'meta'
p351
(lp352
(dp353
S'objective'
p354
I0
sS'query_time'
p355
F0.01648402214050293
sS'comp_time'
p356
F0.0007979869842529297
sS'exec_cq'
p357
I2
sS'total_cq'
p358
I2
sasS'total_cqs'
p359
I2
ssI35
(dp360
S'iters'
p361
I8
sS'meta'
p362
(lp363
(dp364
S'objective'
p365
I68
sS'query_time'
p366
F51.16828012466431
sS'comp_time'
p367
F3.3323466777801514
sS'exec_cq'
p368
I70
sS'total_cq'
p369
I70
sa(dp370
g365
I67
sg366
F0.0006120204925537109
sg367
F0.055883169174194336
sg368
I69
sg369
I69
sa(dp371
g365
I62
sg366
F0.00025391578674316406
sg367
F0.04444479942321777
sg368
I68
sg369
I68
sa(dp372
g365
I63
sg366
F0.00020813941955566406
sg367
F0.05125284194946289
sg368
I65
sg369
I65
sa(dp373
g365
I62
sg366
F0.0002410411834716797
sg367
F0.04088187217712402
sg368
I64
sg369
I64
sa(dp374
g365
I61
sg366
F0.0002338886260986328
sg367
F0.05304694175720215
sg368
I63
sg369
I63
sa(dp375
g365
I58
sg366
F0.269683837890625
sg367
F0.25447702407836914
sg368
I62
sg369
I62
sa(dp376
g365
I0
sg366
F0.014427900314331055
sg367
F0.008799076080322266
sg368
I2
sg369
I2
sasS'total_cqs'
p377
I70
ssI36
(dp378
S'iters'
p379
I4
sS'meta'
p380
(lp381
(dp382
S'objective'
p383
I25
sS'query_time'
p384
F0.7609591484069824
sS'comp_time'
p385
F0.021094083786010742
sS'exec_cq'
p386
I33
sS'total_cq'
p387
I33
sa(dp388
g383
I21
sg384
F0.0032269954681396484
sg385
F0.015265941619873047
sg386
I29
sg387
I29
sa(dp389
g383
I23
sg384
F0.00119781494140625
sg385
F0.0058040618896484375
sg386
I25
sg387
I25
sa(dp390
g383
I22
sg384
F0.0004200935363769531
sg385
F0.0019898414611816406
sg386
I24
sg387
I24
sasS'total_cqs'
p391
I33
ssI37
(dp392
S'iters'
p393
I1
sS'meta'
p394
(lp395
(dp396
S'objective'
p397
I0
sS'query_time'
p398
F0.010293960571289062
sS'comp_time'
p399
F0.00027298927307128906
sS'exec_cq'
p400
I2
sS'total_cq'
p401
I2
sasS'total_cqs'
p402
I2
ssI38
(dp403
S'iters'
p404
I2
sS'meta'
p405
(lp406
(dp407
S'objective'
p408
I0
sS'query_time'
p409
F0.03171491622924805
sS'comp_time'
p410
F0.0006990432739257812
sS'exec_cq'
p411
I4
sS'total_cq'
p412
I4
sa(dp413
g408
I0
sg409
F8.296966552734375e-05
sg410
F0.00032210350036621094
sg411
I2
sg412
I2
sasS'total_cqs'
p414
I4
ssI39
(dp415
S'iters'
p416
I2
sS'meta'
p417
(lp418
(dp419
S'objective'
p420
I30
sS'query_time'
p421
F0.24605393409729004
sS'comp_time'
p422
F0.00173187255859375
sS'exec_cq'
p423
I44
sS'total_cq'
p424
I44
sa(dp425
g420
I35
sg421
F0.00036215782165527344
sg422
F0.0013179779052734375
sg423
I37
sg424
I37
sasS'total_cqs'
p426
I44
ssI40
(dp427
S'iters'
p428
I1
sS'meta'
p429
(lp430
(dp431
S'objective'
p432
I5
sS'query_time'
p433
F0.035043954849243164
sS'comp_time'
p434
F0.00011134147644042969
sS'exec_cq'
p435
I7
sS'total_cq'
p436
I7
sasS'total_cqs'
p437
I7
ssI41
(dp438
S'iters'
p439
I1
sS'meta'
p440
(lp441
(dp442
S'objective'
p443
I10
sS'query_time'
p444
F0.08203911781311035
sS'comp_time'
p445
F0.00014495849609375
sS'exec_cq'
p446
I12
sS'total_cq'
p447
I12
sasS'total_cqs'
p448
I12
ssI42
(dp449
S'iters'
p450
I3
sS'meta'
p451
(lp452
(dp453
S'objective'
p454
I39
sS'query_time'
p455
F0.1295938491821289
sS'comp_time'
p456
F0.00020885467529296875
sS'exec_cq'
p457
I41
sS'total_cq'
p458
I41
sa(dp459
g454
I38
sg455
F0.0001571178436279297
sg456
F0.00013208389282226562
sg457
I40
sg458
I40
sa(dp460
g454
I37
sg455
F0.00014710426330566406
sg456
F0.00011086463928222656
sg457
I39
sg458
I39
sasS'total_cqs'
p461
I41
ssI43
(dp462
S'iters'
p463
I1
sS'meta'
p464
(lp465
(dp466
S'objective'
p467
I5
sS'query_time'
p468
F0.025441884994506836
sS'comp_time'
p469
F8.893013000488281e-05
sS'exec_cq'
p470
I7
sS'total_cq'
p471
I7
sasS'total_cqs'
p472
I7
ssI44
(dp473
S'iters'
p474
I4
sS'meta'
p475
(lp476
(dp477
S'objective'
p478
I33
sS'query_time'
p479
F0.21538496017456055
sS'comp_time'
p480
F0.0012459754943847656
sS'exec_cq'
p481
I47
sS'total_cq'
p482
I47
sa(dp483
g478
I34
sg479
F0.00034308433532714844
sg480
F0.001291036605834961
sg481
I40
sg482
I40
sa(dp484
g478
I1
sg479
F0.0016429424285888672
sg480
F0.0006251335144042969
sg481
I3
sg482
I3
sa(dp485
g478
I0
sg479
F0.00010895729064941406
sg480
F0.0005929470062255859
sg481
I2
sg482
I2
sasS'total_cqs'
p486
I47
ssI46
(dp487
S'iters'
p488
I2
sS'meta'
p489
(lp490
(dp491
S'objective'
p492
I4
sS'query_time'
p493
F0.019282102584838867
sS'comp_time'
p494
F0.0002720355987548828
sS'exec_cq'
p495
I6
sS'total_cq'
p496
I6
sa(dp497
g492
I3
sg493
F2.8848648071289062e-05
sg494
F6.103515625e-05
sg495
I5
sg496
I5
sasS'total_cqs'
p498
I6
ssI47
(dp499
S'iters'
p500
I1
sS'meta'
p501
(lp502
(dp503
S'objective'
p504
I0
sS'query_time'
p505
F0.00829005241394043
sS'comp_time'
p506
F0.00026607513427734375
sS'exec_cq'
p507
I2
sS'total_cq'
p508
I2
sasS'total_cqs'
p509
I2
ssI50
(dp510
S'iters'
p511
I3
sS'meta'
p512
(lp513
(dp514
S'objective'
p515
I3
sS'query_time'
p516
F0.0159609317779541
sS'comp_time'
p517
F0.0001227855682373047
sS'exec_cq'
p518
I5
sS'total_cq'
p519
I5
sa(dp520
g515
I2
sg516
F3.0040740966796875e-05
sg517
F8.821487426757812e-05
sg518
I4
sg519
I4
sa(dp521
g515
I1
sg516
F2.193450927734375e-05
sg517
F6.890296936035156e-05
sg518
I3
sg519
I3
sasS'total_cqs'
p522
I5
ssI51
(dp523
S'iters'
p524
I1
sS'meta'
p525
(lp526
(dp527
S'objective'
p528
I0
sS'query_time'
p529
F0.007745027542114258
sS'comp_time'
p530
F0.00015497207641601562
sS'exec_cq'
p531
I2
sS'total_cq'
p532
I2
sasS'total_cqs'
p533
I2
ssI52
(dp534
S'iters'
p535
I1
sS'meta'
p536
(lp537
(dp538
S'objective'
p539
I0
sS'query_time'
p540
F0.008507966995239258
sS'comp_time'
p541
F0.0002009868621826172
sS'exec_cq'
p542
I2
sS'total_cq'
p543
I2
sasS'total_cqs'
p544
I2
ssI53
(dp545
S'iters'
p546
I2
sS'meta'
p547
(lp548
(dp549
S'objective'
p550
I0
sS'query_time'
p551
F0.02255415916442871
sS'comp_time'
p552
F0.0005970001220703125
sS'exec_cq'
p553
I4
sS'total_cq'
p554
I4
sa(dp555
g550
I0
sg551
F0.00010013580322265625
sg552
F0.0005540847778320312
sg553
I2
sg554
I2
sasS'total_cqs'
p556
I4
ssI54
(dp557
S'iters'
p558
I1
sS'meta'
p559
(lp560
(dp561
S'objective'
p562
I1
sS'query_time'
p563
F0.013792991638183594
sS'comp_time'
p564
F0.0002551078796386719
sS'exec_cq'
p565
I3
sS'total_cq'
p566
I3
sasS'total_cqs'
p567
I3
ssI55
(dp568
S'iters'
p569
I7
sS'meta'
p570
(lp571
(dp572
S'objective'
p573
I85
sS'query_time'
p574
F2.4507930278778076
sS'comp_time'
p575
F0.03982377052307129
sS'exec_cq'
p576
I109
sS'total_cq'
p577
I109
sa(dp578
g573
I85
sg574
F0.0008881092071533203
sg575
F0.001965045928955078
sg576
I97
sg577
I97
sa(dp579
g573
I83
sg574
F0.0003769397735595703
sg575
F0.0009360313415527344
sg576
I91
sg577
I91
sa(dp580
g573
I83
sg574
F0.0024979114532470703
sg575
F0.0018410682678222656
sg576
I87
sg577
I87
sa(dp581
g573
I81
sg574
F0.0004439353942871094
sg575
F0.0009760856628417969
sg576
I85
sg577
I85
sa(dp582
g573
I79
sg574
F0.0003190040588378906
sg575
F0.0006499290466308594
sg576
I83
sg577
I83
sa(dp583
g573
I79
sg574
F0.00030303001403808594
sg575
F0.0005273818969726562
sg576
I81
sg577
I81
sasS'total_cqs'
p584
I109
ssI56
(dp585
S'iters'
p586
I5
sS'meta'
p587
(lp588
(dp589
S'objective'
p590
I44
sS'query_time'
p591
F3.5054590702056885
sS'comp_time'
p592
F0.12031197547912598
sS'exec_cq'
p593
I76
sS'total_cq'
p594
I76
sa(dp595
g590
I0
sg591
F0.004692792892456055
sg592
F0.00912618637084961
sg593
I16
sg594
I16
sa(dp596
g590
I0
sg591
F0.002310037612915039
sg592
F0.006419658660888672
sg593
I8
sg594
I8
sa(dp597
g590
I0
sg591
F0.0002849102020263672
sg592
F0.0012099742889404297
sg593
I4
sg594
I4
sa(dp598
g590
I0
sg591
F0.00013685226440429688
sg592
F0.0009000301361083984
sg593
I2
sg594
I2
sasS'total_cqs'
p599
I76
ssI57
(dp600
S'iters'
p601
I6
sS'meta'
p602
(lp603
(dp604
S'objective'
p605
I3
sS'query_time'
p606
F68.93553900718689
sS'comp_time'
p607
F3.389064073562622
sS'exec_cq'
p608
I51
sS'total_cq'
p609
I51
sa(dp610
g605
I1
sg606
F0.014816999435424805
sg607
F0.028496980667114258
sg608
I27
sg609
I27
sa(dp611
g605
I1
sg606
F0.0021178722381591797
sg607
F0.005673885345458984
sg608
I13
sg609
I13
sa(dp612
g605
I0
sg606
F0.0015578269958496094
sg607
F0.004148960113525391
sg608
I6
sg609
I6
sa(dp613
g605
I1
sg606
F0.00023794174194335938
sg607
F0.0010919570922851562
sg608
I3
sg609
I3
sa(dp614
g605
I0
sg606
F0.00021409988403320312
sg607
F0.0012309551239013672
sg608
I2
sg609
I2
sasS'total_cqs'
p615
I51
ssI58
(dp616
S'iters'
p617
I9
sS'meta'
p618
(lp619
(dp620
S'objective'
p621
I358
sS'query_time'
p622
F293.8840000629425
sS'comp_time'
p623
F16.172597885131836
sS'exec_cq'
p624
I486
sS'total_cq'
p625
I486
sa(dp626
g621
I40
sg622
F0.034716129302978516
sg623
F0.17039108276367188
sg624
I64
sg625
I64
sa(dp627
g621
I12
sg622
F0.02585005760192871
sg623
F0.9702529907226562
sg624
I52
sg625
I52
sa(dp628
g621
I10
sg622
F0.014839887619018555
sg623
F0.09778594970703125
sg624
I32
sg625
I32
sa(dp629
g621
I1
sg622
F0.009510993957519531
sg623
F0.3641529083251953
sg624
I21
sg625
I21
sa(dp630
g621
I1
sg622
F0.0057370662689208984
sg623
F0.030102968215942383
sg624
I11
sg625
I11
sa(dp631
g621
I0
sg622
F0.0024390220642089844
sg623
F0.010909080505371094
sg624
I6
sg625
I6
sa(dp632
g621
I1
sg622
F0.0010771751403808594
sg623
F0.005483150482177734
sg624
I3
sg625
I3
sa(dp633
g621
I0
sg622
F0.00027298927307128906
sg623
F0.0011780261993408203
sg624
I2
sg625
I2
sasS'total_cqs'
p634
I486
ssI59
(dp635
S'iters'
p636
I2
sS'meta'
p637
(lp638
(dp639
S'objective'
p640
I3
sS'query_time'
p641
F0.0644369125366211
sS'comp_time'
p642
F0.0009241104125976562
sS'exec_cq'
p643
I7
sS'total_cq'
p644
I7
sa(dp645
g640
I0
sg641
F0.00015401840209960938
sg642
F0.0007631778717041016
sg643
I2
sg644
I2
sasS'total_cqs'
p646
I7
ssI60
(dp647
S'iters'
p648
I3
sS'meta'
p649
(lp650
(dp651
S'objective'
p652
I3
sS'query_time'
p653
F0.03013896942138672
sS'comp_time'
p654
F0.00036597251892089844
sS'exec_cq'
p655
I5
sS'total_cq'
p656
I5
sa(dp657
g652
I2
sg653
F6.29425048828125e-05
sg654
F0.00027298927307128906
sg655
I4
sg656
I4
sa(dp658
g652
I1
sg653
F2.002716064453125e-05
sg654
F5.412101745605469e-05
sg655
I3
sg656
I3
sasS'total_cqs'
p659
I5
ssI62
(dp660
S'iters'
p661
I2
sS'meta'
p662
(lp663
(dp664
S'objective'
p665
I6
sS'query_time'
p666
F0.045089006423950195
sS'comp_time'
p667
F0.00020503997802734375
sS'exec_cq'
p668
I12
sS'total_cq'
p669
I12
sa(dp670
g665
I7
sg666
F5.1021575927734375e-05
sg667
F7.200241088867188e-05
sg668
I9
sg669
I9
sasS'total_cqs'
p671
I12
ssI64
(dp672
S'iters'
p673
I3
sS'meta'
p674
(lp675
(dp676
S'objective'
p677
I4
sS'query_time'
p678
F0.153886079788208
sS'comp_time'
p679
F0.0033600330352783203
sS'exec_cq'
p680
I12
sS'total_cq'
p681
I12
sa(dp682
g677
I0
sg678
F0.00018596649169921875
sg679
F0.0009188652038574219
sg680
I4
sg681
I4
sa(dp683
g677
I0
sg678
F0.0001220703125
sg679
F0.0006718635559082031
sg680
I2
sg681
I2
sasS'total_cqs'
p684
I12
ssI65
(dp685
S'iters'
p686
I4
sS'meta'
p687
(lp688
(dp689
S'objective'
p690
I13
sS'query_time'
p691
F0.793907880783081
sS'comp_time'
p692
F0.034731149673461914
sS'exec_cq'
p693
I27
sS'total_cq'
p694
I27
sa(dp695
g690
I1
sg691
F0.0012061595916748047
sg692
F0.0040569305419921875
sg693
I7
sg694
I7
sa(dp696
g690
I0
sg691
F0.00035500526428222656
sg692
F0.0019867420196533203
sg693
I4
sg694
I4
sa(dp697
g690
I0
sg691
F8.296966552734375e-05
sg692
F0.0004611015319824219
sg693
I2
sg694
I2
sasS'total_cqs'
p698
I27
ssI67
(dp699
S'iters'
p700
I2
sS'meta'
p701
(lp702
(dp703
S'objective'
p704
I31
sS'query_time'
p705
F1.4280898571014404
sS'comp_time'
p706
F0.007695913314819336
sS'exec_cq'
p707
I35
sS'total_cq'
p708
I35
sa(dp709
g704
I0
sg705
F0.0012760162353515625
sg706
F0.006286144256591797
sg707
I2
sg708
I2
sasS'total_cqs'
p710
I35
ssI69
(dp711
S'iters'
p712
I1
sS'meta'
p713
(lp714
(dp715
S'objective'
p716
I49
sS'query_time'
p717
F0.21349787712097168
sS'comp_time'
p718
F0.00024080276489257812
sS'exec_cq'
p719
I51
sS'total_cq'
p720
I51
sasS'total_cqs'
p721
I51
ssI70
(dp722
S'iters'
p723
I2
sS'meta'
p724
(lp725
(dp726
S'objective'
p727
I4
sS'query_time'
p728
F0.02091503143310547
sS'comp_time'
p729
F0.0002377033233642578
sS'exec_cq'
p730
I6
sS'total_cq'
p731
I6
sa(dp732
g727
I3
sg728
F5.1021575927734375e-05
sg729
F0.00017309188842773438
sg730
I5
sg731
I5
sasS'total_cqs'
p733
I6
ssI71
(dp734
S'iters'
p735
I6
sS'meta'
p736
(lp737
(dp738
S'objective'
p739
I77
sS'query_time'
p740
F0.4065520763397217
sS'comp_time'
p741
F0.001020193099975586
sS'exec_cq'
p742
I85
sS'total_cq'
p743
I85
sa(dp744
g739
I73
sg740
F0.00043702125549316406
sg741
F0.0008070468902587891
sg742
I81
sg743
I81
sa(dp745
g739
I71
sg740
F0.00036215782165527344
sg741
F0.0053598880767822266
sg742
I77
sg743
I77
sa(dp746
g739
I68
sg740
F0.0002570152282714844
sg741
F0.00043487548828125
sg742
I74
sg743
I74
sa(dp747
g739
I65
sg740
F0.00022602081298828125
sg741
F0.0003333091735839844
sg742
I71
sg743
I71
sa(dp748
g739
I1
sg740
F0.002089977264404297
sg741
F0.00016307830810546875
sg742
I3
sg743
I3
sasS'total_cqs'
p749
I85
ssI72
(dp750
S'iters'
p751
I3
sS'meta'
p752
(lp753
(dp754
S'objective'
p755
I2
sS'query_time'
p756
F0.42423105239868164
sS'comp_time'
p757
F0.002592802047729492
sS'exec_cq'
p758
I8
sS'total_cq'
p759
I8
sa(dp760
g755
I1
sg756
F0.00010013580322265625
sg757
F0.0003001689910888672
sg758
I5
sg759
I5
sa(dp761
g755
I1
sg756
F3.600120544433594e-05
sg757
F0.00014090538024902344
sg758
I3
sg759
I3
sasS'total_cqs'
p762
I8
ssI75
(dp763
S'iters'
p764
I4
sS'meta'
p765
(lp766
(dp767
S'objective'
p768
I3
sS'query_time'
p769
F0.013388872146606445
sS'comp_time'
p770
F0.00011396408081054688
sS'exec_cq'
p771
I5
sS'total_cq'
p772
I5
sa(dp773
g768
I2
sg769
F2.6941299438476562e-05
sg770
F6.890296936035156e-05
sg771
I4
sg772
I4
sa(dp774
g768
I1
sg769
F2.1219253540039062e-05
sg770
F6.103515625e-05
sg771
I3
sg772
I3
sa(dp775
g768
I0
sg769
F1.621246337890625e-05
sg770
F5.316734313964844e-05
sg771
I2
sg772
I2
sasS'total_cqs'
p776
I5
ssI76
(dp777
S'iters'
p778
I1
sS'meta'
p779
(lp780
(dp781
S'objective'
p782
I0
sS'query_time'
p783
F0.014699935913085938
sS'comp_time'
p784
F0.0003859996795654297
sS'exec_cq'
p785
I2
sS'total_cq'
p786
I2
sasS'total_cqs'
p787
I2
ssI103
(dp788
S'iters'
p789
I1
sS'meta'
p790
(lp791
(dp792
S'objective'
p793
I10
sS'query_time'
p794
F0.10593414306640625
sS'comp_time'
p795
F0.0002028942108154297
sS'exec_cq'
p796
I12
sS'total_cq'
p797
I12
sasS'total_cqs'
p798
I12
ssI104
(dp799
S'iters'
p800
I2
sS'meta'
p801
(lp802
(dp803
S'objective'
p804
I0
sS'query_time'
p805
F1.653167963027954
sS'comp_time'
p806
F0.08678603172302246
sS'exec_cq'
p807
I4
sS'total_cq'
p808
I4
sa(dp809
g804
I0
sg805
F0.01769399642944336
sg806
F0.09389114379882812
sg807
I2
sg808
I2
sasS'total_cqs'
p810
I4
ssI106
(dp811
S'iters'
p812
I1
sS'meta'
p813
(lp814
(dp815
S'objective'
p816
I2
sS'query_time'
p817
F0.032145023345947266
sS'comp_time'
p818
F9.202957153320312e-05
sS'exec_cq'
p819
I4
sS'total_cq'
p820
I4
sasS'total_cqs'
p821
I4
ssI107
(dp822
S'iters'
p823
I2
sS'meta'
p824
(lp825
(dp826
S'objective'
p827
I10
sS'query_time'
p828
F0.10222601890563965
sS'comp_time'
p829
F0.00017905235290527344
sS'exec_cq'
p830
I16
sS'total_cq'
p831
I16
sa(dp832
g827
I1
sg828
F0.008156061172485352
sg829
F0.0001220703125
sg830
I3
sg831
I3
sasS'total_cqs'
p833
I16
ss.