(dp0
I1
(dp1
S'iters'
p2
I3
sS'meta'
p3
(lp4
(dp5
S'objective'
p6
I52
sS'query_time'
p7
F0.034126996994018555
sS'comp_time'
p8
F0.039928436279296875
sS'exec_cq'
p9
I12
sS'total_cq'
p10
I12
sa(dp11
g6
I41
sg7
F5.698204040527344e-05
sg8
F0.00017499923706054688
sg9
I10
sg10
I10
sa(dp12
g6
I39
sg7
F3.981590270996094e-05
sg8
F0.000102996826171875
sg9
I9
sg10
I9
sasS'total_cqs'
p13
I12
ssI2
(dp14
S'iters'
p15
I6
sS'meta'
p16
(lp17
(dp18
S'objective'
p19
I246
sS'query_time'
p20
F0.12412571907043457
sS'comp_time'
p21
F0.04127955436706543
sS'exec_cq'
p22
I27
sS'total_cq'
p23
I27
sa(dp24
g19
I202
sg20
F0.000244140625
sg21
F0.0008780956268310547
sg22
I24
sg23
I24
sa(dp25
g19
I193
sg20
F0.0001380443572998047
sg21
F0.0004868507385253906
sg22
I21
sg23
I21
sa(dp26
g19
I187
sg20
F0.0001556873321533203
sg21
F0.0004417896270751953
sg22
I19
sg23
I19
sa(dp27
g19
I168
sg20
F0.0001201629638671875
sg21
F0.0003216266632080078
sg22
I17
sg23
I17
sa(dp28
g19
I157
sg20
F0.00010323524475097656
sg21
F0.00024819374084472656
sg22
I16
sg23
I16
sasS'total_cqs'
p29
I27
ssI3
(dp30
S'iters'
p31
I4
sS'meta'
p32
(lp33
(dp34
S'objective'
p35
I610
sS'query_time'
p36
F228.26052498817444
sS'comp_time'
p37
F2.523752450942993
sS'exec_cq'
p38
I39
sS'total_cq'
p39
I43
sa(dp40
g35
I500
sg36
F0.2084188461303711
sg37
F0.23851609230041504
sg38
I32
sg39
I36
sa(dp41
g35
I443
sg36
F0.11231398582458496
sg37
F0.4610729217529297
sg38
I24
sg39
I28
sa(dp42
g35
I495
sg36
F11.381990909576416
sg37
F0.00020194053649902344
sg38
I25
sg39
I25
sasS'total_cqs'
p43
I43
ssI4
(dp44
S'iters'
p45
I2
sS'meta'
p46
(lp47
(dp48
S'objective'
p49
I44
sS'query_time'
p50
F5.2750771045684814
sS'comp_time'
p51
F0.36698198318481445
sS'exec_cq'
p52
I11
sS'total_cq'
p53
I11
sa(dp54
g49
I3
sg50
F0.2766749858856201
sg51
F0.2887279987335205
sg52
I2
sg53
I2
sasS'total_cqs'
p55
I11
ssI5
(dp56
S'iters'
p57
I3
sS'meta'
p58
(lp59
(dp60
S'objective'
p61
I0
sS'query_time'
p62
F34.44546413421631
sS'comp_time'
p63
F4.735210418701172
sS'exec_cq'
p64
I8
sS'total_cq'
p65
I8
sa(dp66
g61
I4
sg62
F0.10466122627258301
sg63
F0.6192231178283691
sg64
I3
sg65
I3
sa(dp67
g61
I1
sg62
F0.008213996887207031
sg63
F0.015017986297607422
sg64
I2
sg65
I2
sasS'total_cqs'
p68
I8
ssI6
(dp69
S'iters'
p70
I4
sS'meta'
p71
(lp72
(dp73
S'objective'
p74
I35
sS'query_time'
p75
F38.40664982795715
sS'comp_time'
p76
F1.5460281372070312
sS'exec_cq'
p77
I18
sS'total_cq'
p78
I18
sa(dp79
g74
I2
sg75
F0.6707730293273926
sg76
F1.3328089714050293
sg77
I7
sg78
I7
sa(dp80
g74
I9
sg75
F0.39514684677124023
sg76
F0.7781322002410889
sg77
I3
sg78
I3
sa(dp81
g74
I2
sg75
F0.26921510696411133
sg76
F0.8011693954467773
sg77
I2
sg78
I2
sasS'total_cqs'
p82
I18
ssI7
(dp83
S'iters'
p84
I3
sS'meta'
p85
(lp86
(dp87
S'objective'
p88
I1
sS'query_time'
p89
F11.97324800491333
sS'comp_time'
p90
F1.3592400550842285
sS'exec_cq'
p91
I9
sS'total_cq'
p92
I9
sa(dp93
g88
I1
sg89
F0.11821579933166504
sg90
F0.6544480323791504
sg91
I6
sg92
I6
sa(dp94
g88
I0
sg89
F0.0047681331634521484
sg90
F0.007086992263793945
sg91
I3
sg92
I3
sasS'total_cqs'
p95
I9
ssI8
(dp96
S'iters'
p97
I5
sS'meta'
p98
(lp99
(dp100
S'objective'
p101
I234
sS'query_time'
p102
F0.15121102333068848
sS'comp_time'
p103
F0.037431955337524414
sS'exec_cq'
p104
I27
sS'total_cq'
p105
I27
sa(dp106
g101
I260
sg102
F0.00021004676818847656
sg103
F0.0005016326904296875
sg104
I24
sg105
I24
sa(dp107
g101
I247
sg102
F0.0001728534698486328
sg103
F0.0004680156707763672
sg104
I23
sg105
I23
sa(dp108
g101
I233
sg102
F0.00018978118896484375
sg103
F0.0004134178161621094
sg104
I20
sg105
I20
sa(dp109
g101
I14
sg102
F0.0013320446014404297
sg103
F0.00033020973205566406
sg104
I2
sg105
I2
sasS'total_cqs'
p110
I27
ssI9
(dp111
S'iters'
p112
I3
sS'meta'
p113
(lp114
(dp115
S'objective'
p116
I6
sS'query_time'
p117
F0.11431097984313965
sS'comp_time'
p118
F0.005889892578125
sS'exec_cq'
p119
I7
sS'total_cq'
p120
I7
sa(dp121
g116
I1
sg117
F3.695487976074219e-05
sg118
F0.00017118453979492188
sg119
I4
sg120
I4
sa(dp122
g116
I2
sg117
F1.9073486328125e-05
sg118
F0.0002951622009277344
sg119
I2
sg120
I2
sasS'total_cqs'
p123
I7
ssI10
(dp124
S'iters'
p125
I6
sS'meta'
p126
(lp127
(dp128
S'objective'
p129
I580
sS'query_time'
p130
F0.4285261631011963
sS'comp_time'
p131
F0.09764766693115234
sS'exec_cq'
p132
I51
sS'total_cq'
p133
I51
sa(dp134
g129
I341
sg130
F0.0004189014434814453
sg131
F0.0029621124267578125
sg132
I37
sg133
I37
sa(dp135
g129
I16
sg130
F0.002412080764770508
sg131
F0.006608724594116211
sg132
I12
sg133
I12
sa(dp136
g129
I11
sg130
F9.799003601074219e-05
sg131
F0.001016378402709961
sg132
I6
sg133
I6
sa(dp137
g129
I19
sg130
F3.719329833984375e-05
sg131
F0.00018787384033203125
sg132
I3
sg133
I3
sa(dp138
g129
I7
sg130
F1.5020370483398438e-05
sg131
F7.796287536621094e-05
sg132
I2
sg133
I2
sasS'total_cqs'
p139
I51
ssI11
(dp140
S'iters'
p141
I5
sS'meta'
p142
(lp143
(dp144
S'objective'
p145
I966
sS'query_time'
p146
F0.6104300022125244
sS'comp_time'
p147
F0.18531513214111328
sS'exec_cq'
p148
I63
sS'total_cq'
p149
I63
sa(dp150
g145
I965
sg146
F0.0012488365173339844
sg147
F0.004931926727294922
sg148
I47
sg149
I47
sa(dp151
g145
I3
sg146
F0.001806020736694336
sg147
F0.0025992393493652344
sg148
I9
sg149
I9
sa(dp152
g145
I1
sg146
F0.00017309188842773438
sg147
F0.000885009765625
sg148
I5
sg149
I5
sa(dp153
g145
I0
sg146
F2.6226043701171875e-05
sg147
F0.00014495849609375
sg148
I3
sg149
I3
sasS'total_cqs'
p154
I63
ssI12
(dp155
S'iters'
p156
I5
sS'meta'
p157
(lp158
(dp159
S'objective'
p160
I331
sS'query_time'
p161
F0.36339783668518066
sS'comp_time'
p162
F0.09241294860839844
sS'exec_cq'
p163
I50
sS'total_cq'
p164
I50
sa(dp165
g160
I367
sg161
F0.0005099773406982422
sg162
F0.0032079219818115234
sg163
I22
sg164
I33
sa(dp166
g160
I387
sg161
F0.00023126602172851562
sg162
F0.0009167194366455078
sg163
I26
sg164
I26
sa(dp167
g160
I1
sg161
F0.001399993896484375
sg162
F0.0005617141723632812
sg163
I5
sg164
I5
sa(dp168
g160
I3
sg161
F2.3126602172851562e-05
sg162
F0.00011968612670898438
sg163
I2
sg164
I2
sasS'total_cqs'
p169
I50
ssI13
(dp170
S'iters'
p171
I3
sS'meta'
p172
(lp173
(dp174
S'objective'
p175
I12
sS'query_time'
p176
F0.1406259536743164
sS'comp_time'
p177
F0.034673213958740234
sS'exec_cq'
p178
I20
sS'total_cq'
p179
I20
sa(dp180
g175
I67
sg176
F4.1961669921875e-05
sg177
F0.0004410743713378906
sg178
I9
sg179
I9
sa(dp181
g175
I6
sg176
F0.0009119510650634766
sg177
F0.00012993812561035156
sg178
I2
sg179
I2
sasS'total_cqs'
p182
I20
ssI14
(dp183
S'iters'
p184
I3
sS'meta'
p185
(lp186
(dp187
S'objective'
p188
I1
sS'query_time'
p189
F33.33276700973511
sS'comp_time'
p190
F0.7680308818817139
sS'exec_cq'
p191
I9
sS'total_cq'
p192
I9
sa(dp193
g188
I1
sg189
F0.12442302703857422
sg190
F1.0067939758300781
sg191
I6
sg192
I6
sa(dp194
g188
I1
sg189
F0.3646550178527832
sg190
F0.3174610137939453
sg191
I3
sg192
I3
sasS'total_cqs'
p195
I9
ssI15
(dp196
S'iters'
p197
I3
sS'meta'
p198
(lp199
(dp200
S'objective'
p201
I2
sS'query_time'
p202
F3.9413950443267822
sS'comp_time'
p203
F0.11644411087036133
sS'exec_cq'
p204
I11
sS'total_cq'
p205
I11
sa(dp206
g201
I0
sg202
F0.04328608512878418
sg203
F0.17279624938964844
sg204
I6
sg205
I6
sa(dp207
g201
I3
sg202
F0.0011677742004394531
sg203
F0.0014729499816894531
sg204
I2
sg205
I2
sasS'total_cqs'
p208
I11
ssI16
(dp209
S'iters'
p210
I1
sS'meta'
p211
(lp212
(dp213
S'objective'
p214
I26
sS'query_time'
p215
F0.037236928939819336
sS'comp_time'
p216
F0.004583835601806641
sS'exec_cq'
p217
I8
sS'total_cq'
p218
I8
sasS'total_cqs'
p219
I8
ssI17
(dp220
S'iters'
p221
I3
sS'meta'
p222
(lp223
(dp224
S'objective'
p225
I0
sS'query_time'
p226
F0.8794348239898682
sS'comp_time'
p227
F0.031180143356323242
sS'exec_cq'
p228
I11
sS'total_cq'
p229
I11
sa(dp230
g225
I13
sg226
F0.0002579689025878906
sg227
F0.0008380413055419922
sg228
I6
sg229
I6
sa(dp231
g225
I4
sg226
F0.000186920166015625
sg227
F0.00042557716369628906
sg228
I2
sg229
I2
sasS'total_cqs'
p232
I11
ssI18
(dp233
S'iters'
p234
I2
sS'meta'
p235
(lp236
(dp237
S'objective'
p238
I32
sS'query_time'
p239
F0.25615692138671875
sS'comp_time'
p240
F0.03422117233276367
sS'exec_cq'
p241
I11
sS'total_cq'
p242
I11
sa(dp243
g238
I35
sg239
F0.0002570152282714844
sg240
F0.0004208087921142578
sg241
I7
sg242
I8
sasS'total_cqs'
p244
I11
ssI19
(dp245
S'iters'
p246
I0
sS'meta'
p247
(lp248
sS'total_cqs'
p249
I1
ssI20
(dp250
S'iters'
p251
I0
sS'meta'
p252
(lp253
sS'total_cqs'
p254
I1
ssI21
(dp255
S'iters'
p256
I0
sS'meta'
p257
(lp258
sS'total_cqs'
p259
I1
ssI22
(dp260
S'iters'
p261
I1
sS'meta'
p262
(lp263
(dp264
S'objective'
p265
I151
sS'query_time'
p266
F0.05482006072998047
sS'comp_time'
p267
F0.026314973831176758
sS'exec_cq'
p268
I18
sS'total_cq'
p269
I18
sasS'total_cqs'
p270
I18
ssI23
(dp271
S'iters'
p272
I3
sS'meta'
p273
(lp274
(dp275
S'objective'
p276
I100
sS'query_time'
p277
F0.061389923095703125
sS'comp_time'
p278
F0.024905681610107422
sS'exec_cq'
p279
I16
sS'total_cq'
p280
I16
sa(dp281
g276
I92
sg277
F0.00011014938354492188
sg278
F0.0002110004425048828
sg279
I14
sg280
I14
sa(dp282
g276
I87
sg277
F6.413459777832031e-05
sg278
F8.225440979003906e-05
sg279
I13
sg280
I13
sasS'total_cqs'
p283
I16
ssI24
(dp284
S'iters'
p285
I0
sS'meta'
p286
(lp287
sS'total_cqs'
p288
I1
ssI25
(dp289
S'iters'
p290
I0
sS'meta'
p291
(lp292
sS'total_cqs'
p293
I1
ssI26
(dp294
S'iters'
p295
I1
sS'meta'
p296
(lp297
(dp298
S'objective'
p299
I859
sS'query_time'
p300
F0.2109389305114746
sS'comp_time'
p301
F0.10351181030273438
sS'exec_cq'
p302
I42
sS'total_cq'
p303
I42
sasS'total_cqs'
p304
I42
ssI27
(dp305
S'iters'
p306
I4
sS'meta'
p307
(lp308
(dp309
S'objective'
p310
I281
sS'query_time'
p311
F22.913360834121704
sS'comp_time'
p312
F1.838228702545166
sS'exec_cq'
p313
I30
sS'total_cq'
p314
I30
sa(dp315
g310
I2
sg311
F0.5143370628356934
sg312
F1.5335698127746582
sg313
I5
sg314
I5
sa(dp316
g310
I11
sg311
F0.14775419235229492
sg312
F0.07083511352539062
sg313
I3
sg314
I3
sa(dp317
g310
I15
sg311
F0.14995479583740234
sg312
F0.07158493995666504
sg313
I2
sg314
I2
sasS'total_cqs'
p318
I30
ssI28
(dp319
S'iters'
p320
I0
sS'meta'
p321
(lp322
sS'total_cqs'
p323
I1
ssI29
(dp324
S'iters'
p325
I5
sS'meta'
p326
(lp327
(dp328
S'objective'
p329
I241
sS'query_time'
p330
F26.596920013427734
sS'comp_time'
p331
F0.48640966415405273
sS'exec_cq'
p332
I35
sS'total_cq'
p333
I49
sa(dp334
g329
I30
sg330
F0.03695392608642578
sg331
F0.0565340518951416
sg332
I17
sg333
I17
sa(dp335
g329
I29
sg330
F0.0024340152740478516
sg331
F0.005995035171508789
sg332
I9
sg333
I9
sa(dp336
g329
I8
sg330
F0.0009911060333251953
sg331
F0.0046079158782958984
sg332
I5
sg333
I5
sa(dp337
g329
I17
sg330
F0.0008780956268310547
sg331
F0.001383066177368164
sg332
I2
sg333
I2
sasS'total_cqs'
p338
I49
ssI30
(dp339
S'iters'
p340
I1
sS'meta'
p341
(lp342
(dp343
S'objective'
p344
I1
sS'query_time'
p345
F0.6978418827056885
sS'comp_time'
p346
F0.010592937469482422
sS'exec_cq'
p347
I2
sS'total_cq'
p348
I2
sasS'total_cqs'
p349
I2
ssI31
(dp350
S'iters'
p351
I0
sS'meta'
p352
(lp353
sS'total_cqs'
p354
I1
ssI32
(dp355
S'iters'
p356
I1
sS'meta'
p357
(lp358
(dp359
S'objective'
p360
I1
sS'query_time'
p361
F0.010251998901367188
sS'comp_time'
p362
F0.001760244369506836
sS'exec_cq'
p363
I2
sS'total_cq'
p364
I2
sasS'total_cqs'
p365
I2
ssI33
(dp366
S'iters'
p367
I5
sS'meta'
p368
(lp369
(dp370
S'objective'
p371
I4080
sS'query_time'
p372
F16.171646118164062
sS'comp_time'
p373
F1.0959508419036865
sS'exec_cq'
p374
I103
sS'total_cq'
p375
I103
sa(dp376
g371
I16
sg372
F0.007793903350830078
sg373
F0.05585122108459473
sg374
I16
sg375
I16
sa(dp377
g371
I1
sg372
F0.004147052764892578
sg373
F0.018599510192871094
sg374
I8
sg375
I8
sa(dp378
g371
I14
sg372
F0.0018489360809326172
sg373
F0.0049169063568115234
sg374
I5
sg375
I5
sa(dp379
g371
I17
sg372
F0.0008261203765869141
sg373
F0.001361846923828125
sg374
I3
sg375
I3
sasS'total_cqs'
p380
I103
ssI34
(dp381
S'iters'
p382
I1
sS'meta'
p383
(lp384
(dp385
S'objective'
p386
I1
sS'query_time'
p387
F0.015781164169311523
sS'comp_time'
p388
F0.0018379688262939453
sS'exec_cq'
p389
I2
sS'total_cq'
p390
I2
sasS'total_cqs'
p391
I2
ssI35
(dp392
S'iters'
p393
I6
sS'meta'
p394
(lp395
(dp396
S'objective'
p397
I1465
sS'query_time'
p398
F67.03224301338196
sS'comp_time'
p399
F3.429260015487671
sS'exec_cq'
p400
I70
sS'total_cq'
p401
I70
sa(dp402
g397
I40
sg398
F0.004911184310913086
sg399
F0.01853656768798828
sg400
I16
sg401
I16
sa(dp403
g397
I15
sg398
F0.0023970603942871094
sg399
F0.009915590286254883
sg400
I10
sg401
I10
sa(dp404
g397
I21
sg398
F0.0016949176788330078
sg399
F0.0027098655700683594
sg400
I6
sg401
I6
sa(dp405
g397
I1
sg398
F0.0003509521484375
sg399
F0.0006151199340820312
sg400
I3
sg401
I3
sa(dp406
g397
I31
sg398
F8.082389831542969e-05
sg399
F0.00017404556274414062
sg400
I2
sg401
I2
sasS'total_cqs'
p407
I70
ssI36
(dp408
S'iters'
p409
I5
sS'meta'
p410
(lp411
(dp412
S'objective'
p413
I429
sS'query_time'
p414
F0.7570459842681885
sS'comp_time'
p415
F0.16859126091003418
sS'exec_cq'
p416
I33
sS'total_cq'
p417
I33
sa(dp418
g413
I417
sg414
F0.006321907043457031
sg415
F0.014758110046386719
sg416
I29
sg417
I29
sa(dp419
g413
I396
sg414
F0.0020761489868164062
sg415
F0.003660917282104492
sg416
I25
sg417
I25
sa(dp420
g413
I380
sg414
F0.0011701583862304688
sg415
F0.0018770694732666016
sg416
I24
sg417
I24
sa(dp421
g413
I367
sg414
F0.00013589859008789062
sg415
F0.00028324127197265625
sg416
I23
sg417
I23
sasS'total_cqs'
p422
I33
ssI37
(dp423
S'iters'
p424
I1
sS'meta'
p425
(lp426
(dp427
S'objective'
p428
I1
sS'query_time'
p429
F0.013151168823242188
sS'comp_time'
p430
F0.001863718032836914
sS'exec_cq'
p431
I2
sS'total_cq'
p432
I2
sasS'total_cqs'
p433
I2
ssI38
(dp434
S'iters'
p435
I2
sS'meta'
p436
(lp437
(dp438
S'objective'
p439
I0
sS'query_time'
p440
F0.026062965393066406
sS'comp_time'
p441
F0.0025658607482910156
sS'exec_cq'
p442
I4
sS'total_cq'
p443
I4
sa(dp444
g439
I1
sg440
F7.700920104980469e-05
sg441
F0.0001938343048095703
sg442
I2
sg443
I2
sasS'total_cqs'
p445
I4
ssI39
(dp446
S'iters'
p447
I2
sS'meta'
p448
(lp449
(dp450
S'objective'
p451
I600
sS'query_time'
p452
F0.1482069492340088
sS'comp_time'
p453
F0.17134404182434082
sS'exec_cq'
p454
I44
sS'total_cq'
p455
I44
sa(dp456
g451
I749
sg452
F0.0004248619079589844
sg453
F0.0009391307830810547
sg454
I37
sg455
I37
sasS'total_cqs'
p457
I44
ssI40
(dp458
S'iters'
p459
I1
sS'meta'
p460
(lp461
(dp462
S'objective'
p463
I18
sS'query_time'
p464
F0.04509401321411133
sS'comp_time'
p465
F0.00673675537109375
sS'exec_cq'
p466
I7
sS'total_cq'
p467
I7
sasS'total_cqs'
p468
I7
ssI41
(dp469
S'iters'
p470
I1
sS'meta'
p471
(lp472
(dp473
S'objective'
p474
I64
sS'query_time'
p475
F0.08842992782592773
sS'comp_time'
p476
F0.01611185073852539
sS'exec_cq'
p477
I12
sS'total_cq'
p478
I12
sasS'total_cqs'
p479
I12
ssI42
(dp480
S'iters'
p481
I4
sS'meta'
p482
(lp483
(dp484
S'objective'
p485
I787
sS'query_time'
p486
F0.12948179244995117
sS'comp_time'
p487
F0.16170930862426758
sS'exec_cq'
p488
I41
sS'total_cq'
p489
I41
sa(dp490
g485
I754
sg486
F0.00020599365234375
sg487
F0.0002472400665283203
sg488
I40
sg489
I40
sa(dp491
g485
I743
sg486
F0.00015115737915039062
sg487
F0.00017380714416503906
sg488
I39
sg489
I39
sa(dp492
g485
I722
sg486
F0.0001571178436279297
sg487
F0.00012826919555664062
sg488
I38
sg489
I38
sasS'total_cqs'
p493
I41
ssI43
(dp494
S'iters'
p495
I1
sS'meta'
p496
(lp497
(dp498
S'objective'
p499
I18
sS'query_time'
p500
F0.025085926055908203
sS'comp_time'
p501
F0.00615692138671875
sS'exec_cq'
p502
I7
sS'total_cq'
p503
I7
sasS'total_cqs'
p504
I7
ssI44
(dp505
S'iters'
p506
I4
sS'meta'
p507
(lp508
(dp509
S'objective'
p510
I748
sS'query_time'
p511
F0.21140408515930176
sS'comp_time'
p512
F0.09543871879577637
sS'exec_cq'
p513
I47
sS'total_cq'
p514
I47
sa(dp515
g510
I806
sg511
F0.0003528594970703125
sg512
F0.001195669174194336
sg513
I40
sg514
I40
sa(dp516
g510
I20
sg511
F0.0016889572143554688
sg512
F0.001550912857055664
sg513
I3
sg514
I3
sa(dp517
g510
I7
sg511
F0.0001289844512939453
sg512
F0.00025081634521484375
sg513
I2
sg514
I2
sasS'total_cqs'
p518
I47
ssI45
(dp519
S'iters'
p520
I0
sS'meta'
p521
(lp522
sS'total_cqs'
p523
I1
ssI46
(dp524
S'iters'
p525
I1
sS'meta'
p526
(lp527
(dp528
S'objective'
p529
I13
sS'query_time'
p530
F0.029672622680664062
sS'comp_time'
p531
F0.0029430389404296875
sS'exec_cq'
p532
I6
sS'total_cq'
p533
I6
sasS'total_cqs'
p534
I6
ssI47
(dp535
S'iters'
p536
I1
sS'meta'
p537
(lp538
(dp539
S'objective'
p540
I1
sS'query_time'
p541
F0.009238958358764648
sS'comp_time'
p542
F0.0010399818420410156
sS'exec_cq'
p543
I2
sS'total_cq'
p544
I2
sasS'total_cqs'
p545
I2
ssI48
(dp546
S'iters'
p547
I0
sS'meta'
p548
(lp549
sS'total_cqs'
p550
I1
ssI49
(dp551
S'iters'
p552
I0
sS'meta'
p553
(lp554
sS'total_cqs'
p555
I1
ssI50
(dp556
S'iters'
p557
I2
sS'meta'
p558
(lp559
(dp560
S'objective'
p561
I5
sS'query_time'
p562
F0.019020795822143555
sS'comp_time'
p563
F0.0024328231811523438
sS'exec_cq'
p564
I5
sS'total_cq'
p565
I5
sa(dp566
g561
I2
sg562
F3.695487976074219e-05
sg563
F0.0001590251922607422
sg564
I4
sg565
I4
sasS'total_cqs'
p567
I5
ssI51
(dp568
S'iters'
p569
I1
sS'meta'
p570
(lp571
(dp572
S'objective'
p573
I1
sS'query_time'
p574
F0.00792384147644043
sS'comp_time'
p575
F0.001007080078125
sS'exec_cq'
p576
I2
sS'total_cq'
p577
I2
sasS'total_cqs'
p578
I2
ssI52
(dp579
S'iters'
p580
I1
sS'meta'
p581
(lp582
(dp583
S'objective'
p584
I1
sS'query_time'
p585
F0.03708910942077637
sS'comp_time'
p586
F0.004208803176879883
sS'exec_cq'
p587
I2
sS'total_cq'
p588
I2
sasS'total_cqs'
p589
I2
ssI53
(dp590
S'iters'
p591
I2
sS'meta'
p592
(lp593
(dp594
S'objective'
p595
I2
sS'query_time'
p596
F0.020179033279418945
sS'comp_time'
p597
F0.002334117889404297
sS'exec_cq'
p598
I4
sS'total_cq'
p599
I4
sa(dp600
g595
I0
sg596
F7.891654968261719e-05
sg597
F0.0002560615539550781
sg598
I3
sg599
I3
sasS'total_cqs'
p601
I4
ssI54
(dp602
S'iters'
p603
I1
sS'meta'
p604
(lp605
(dp606
S'objective'
p607
I0
sS'query_time'
p608
F0.01114797592163086
sS'comp_time'
p609
F0.001589059829711914
sS'exec_cq'
p610
I3
sS'total_cq'
p611
I3
sasS'total_cqs'
p612
I3
ssI55
(dp613
S'iters'
p614
I8
sS'meta'
p615
(lp616
(dp617
S'objective'
p618
I4597
sS'query_time'
p619
F2.3930370807647705
sS'comp_time'
p620
F0.716425895690918
sS'exec_cq'
p621
I109
sS'total_cq'
p622
I109
sa(dp623
g618
I4496
sg619
F0.0011479854583740234
sg620
F0.007983207702636719
sg621
I97
sg622
I97
sa(dp624
g618
I4534
sg619
F0.0004189014434814453
sg620
F0.00231170654296875
sg621
I91
sg622
I91
sa(dp625
g618
I4521
sg619
F0.0004298686981201172
sg620
F0.0011138916015625
sg621
I89
sg622
I89
sa(dp626
g618
I4436
sg619
F0.00041103363037109375
sg620
F0.0013110637664794922
sg621
I85
sg622
I85
sa(dp627
g618
I4355
sg619
F0.0003609657287597656
sg620
F0.0008566379547119141
sg621
I84
sg622
I84
sa(dp628
g618
I4305
sg619
F0.00038695335388183594
sg620
F0.0007727146148681641
sg621
I82
sg622
I82
sa(dp629
g618
I4261
sg619
F0.00038504600524902344
sg620
F0.0005738735198974609
sg621
I81
sg622
I81
sasS'total_cqs'
p630
I109
ssI56
(dp631
S'iters'
p632
I5
sS'meta'
p633
(lp634
(dp635
S'objective'
p636
I1428
sS'query_time'
p637
F1.7053790092468262
sS'comp_time'
p638
F0.31800413131713867
sS'exec_cq'
p639
I67
sS'total_cq'
p640
I76
sa(dp641
g636
I21
sg637
F0.008997917175292969
sg638
F0.10904812812805176
sg639
I16
sg640
I16
sa(dp642
g636
I1
sg637
F0.004075050354003906
sg638
F0.005993843078613281
sg639
I8
sg640
I8
sa(dp643
g636
I2
sg637
F0.001207113265991211
sg638
F0.0021660327911376953
sg639
I5
sg640
I5
sa(dp644
g636
I19
sg637
F0.0002181529998779297
sg638
F0.0004980564117431641
sg639
I2
sg640
I2
sasS'total_cqs'
p645
I76
ssI57
(dp646
S'iters'
p647
I6
sS'meta'
p648
(lp649
(dp650
S'objective'
p651
I254
sS'query_time'
p652
F22.47044587135315
sS'comp_time'
p653
F0.1675434112548828
sS'exec_cq'
p654
I45
sS'total_cq'
p655
I51
sa(dp656
g651
I200
sg652
F0.0035588741302490234
sg653
F0.007139921188354492
sg654
I27
sg655
I33
sa(dp657
g651
I1
sg652
F0.003175020217895508
sg653
F0.045191287994384766
sg654
I13
sg655
I13
sa(dp658
g651
I2
sg652
F0.008032083511352539
sg653
F0.00430607795715332
sg654
I5
sg655
I5
sa(dp659
g651
I9
sg652
F0.0009469985961914062
sg653
F0.0008342266082763672
sg654
I3
sg655
I3
sa(dp660
g651
I22
sg652
F0.0004611015319824219
sg653
F0.0006170272827148438
sg654
I2
sg655
I2
sasS'total_cqs'
p661
I51
ssI58
(dp662
S'iters'
p663
I7
sS'meta'
p664
(lp665
(dp666
S'objective'
p667
I83365
sS'query_time'
p668
F322.3608491420746
sS'comp_time'
p669
F26.1469943523407
sS'exec_cq'
p670
I486
sS'total_cq'
p671
I486
sa(dp672
g667
I88971
sg668
F5.62362813949585
sg669
F8.825134515762329
sg670
I414
sg671
I414
sa(dp673
g667
I575
sg668
F0.0010139942169189453
sg669
F0.05234503746032715
sg670
I20
sg671
I20
sa(dp674
g667
I18
sg668
F0.0007638931274414062
sg669
F0.0057332515716552734
sg670
I12
sg671
I12
sa(dp675
g667
I186
sg668
F0.0003418922424316406
sg669
F0.0013892650604248047
sg670
I5
sg671
I5
sa(dp676
g667
I234
sg668
F0.00022411346435546875
sg669
F0.0005261898040771484
sg670
I3
sg671
I3
sa(dp677
g667
I85
sg668
F0.00016188621520996094
sg669
F0.000331878662109375
sg670
I2
sg671
I2
sasS'total_cqs'
p678
I486
ssI59
(dp679
S'iters'
p680
I2
sS'meta'
p681
(lp682
(dp683
S'objective'
p684
I4
sS'query_time'
p685
F0.05173087120056152
sS'comp_time'
p686
F0.015141963958740234
sS'exec_cq'
p687
I7
sS'total_cq'
p688
I7
sa(dp689
g684
I2
sg685
F0.00021386146545410156
sg686
F0.00039696693420410156
sg687
I2
sg688
I2
sasS'total_cqs'
p690
I7
ssI60
(dp691
S'iters'
p692
I1
sS'meta'
p693
(lp694
(dp695
S'objective'
p696
I7
sS'query_time'
p697
F0.01612401008605957
sS'comp_time'
p698
F0.003241300582885742
sS'exec_cq'
p699
I4
sS'total_cq'
p700
I5
sasS'total_cqs'
p701
I5
ssI61
(dp702
S'iters'
p703
I0
sS'meta'
p704
(lp705
sS'total_cqs'
p706
I1
ssI62
(dp707
S'iters'
p708
I3
sS'meta'
p709
(lp710
(dp711
S'objective'
p712
I42
sS'query_time'
p713
F0.030303001403808594
sS'comp_time'
p714
F0.08012008666992188
sS'exec_cq'
p715
I12
sS'total_cq'
p716
I12
sa(dp717
g712
I40
sg713
F5.698204040527344e-05
sg714
F0.00020599365234375
sg715
I9
sg716
I9
sa(dp718
g712
I36
sg713
F4.315376281738281e-05
sg714
F8.916854858398438e-05
sg715
I8
sg716
I8
sasS'total_cqs'
p719
I12
ssI63
(dp720
S'iters'
p721
I0
sS'meta'
p722
(lp723
sS'total_cqs'
p724
I1
ssI64
(dp725
S'iters'
p726
I3
sS'meta'
p727
(lp728
(dp729
S'objective'
p730
I18
sS'query_time'
p731
F0.11825203895568848
sS'comp_time'
p732
F0.02547168731689453
sS'exec_cq'
p733
I12
sS'total_cq'
p734
I12
sa(dp735
g730
I0
sg731
F0.00019621849060058594
sg732
F0.0009140968322753906
sg733
I4
sg734
I4
sa(dp736
g730
I1
sg731
F6.103515625e-05
sg732
F0.00015592575073242188
sg733
I2
sg734
I2
sasS'total_cqs'
p737
I12
ssI65
(dp738
S'iters'
p739
I4
sS'meta'
p740
(lp741
(dp742
S'objective'
p743
I140
sS'query_time'
p744
F0.9124081134796143
sS'comp_time'
p745
F0.06105399131774902
sS'exec_cq'
p746
I27
sS'total_cq'
p747
I27
sa(dp748
g743
I7
sg744
F0.00197601318359375
sg745
F0.0029740333557128906
sg746
I7
sg747
I7
sa(dp749
g743
I3
sg744
F0.0006129741668701172
sg745
F0.0010724067687988281
sg746
I4
sg747
I4
sa(dp750
g743
I3
sg744
F0.00011420249938964844
sg745
F0.000244140625
sg746
I2
sg747
I2
sasS'total_cqs'
p751
I27
ssI66
(dp752
S'iters'
p753
I0
sS'meta'
p754
(lp755
sS'total_cqs'
p756
I1
ssI67
(dp757
S'iters'
p758
I2
sS'meta'
p759
(lp760
(dp761
S'objective'
p762
I582
sS'query_time'
p763
F1.167936086654663
sS'comp_time'
p764
F0.14839625358581543
sS'exec_cq'
p765
I35
sS'total_cq'
p766
I35
sa(dp767
g762
I14
sg763
F0.0012400150299072266
sg764
F0.002706289291381836
sg765
I2
sg766
I2
sasS'total_cqs'
p768
I35
ssI68
(dp769
S'iters'
p770
I0
sS'meta'
p771
(lp772
sS'total_cqs'
p773
I1
ssI69
(dp774
S'iters'
p775
I1
sS'meta'
p776
(lp777
(dp778
S'objective'
p779
I1272
sS'query_time'
p780
F0.18514513969421387
sS'comp_time'
p781
F0.232283353805542
sS'exec_cq'
p782
I51
sS'total_cq'
p783
I51
sasS'total_cqs'
p784
I51
ssI70
(dp785
S'iters'
p786
I1
sS'meta'
p787
(lp788
(dp789
S'objective'
p790
I13
sS'query_time'
p791
F0.020205974578857422
sS'comp_time'
p792
F0.0035064220428466797
sS'exec_cq'
p793
I6
sS'total_cq'
p794
I6
sasS'total_cqs'
p795
I6
ssI71
(dp796
S'iters'
p797
I5
sS'meta'
p798
(lp799
(dp800
S'objective'
p801
I3269
sS'query_time'
p802
F0.32280778884887695
sS'comp_time'
p803
F0.4067549705505371
sS'exec_cq'
p804
I85
sS'total_cq'
p805
I85
sa(dp806
g801
I3102
sg802
F0.00045228004455566406
sg803
F0.0015892982482910156
sg804
I81
sg805
I81
sa(dp807
g801
I3010
sg802
F0.00029397010803222656
sg803
F0.0011453628540039062
sg804
I78
sg805
I78
sa(dp808
g801
I2882
sg802
F0.00030517578125
sg803
F0.0010440349578857422
sg804
I75
sg805
I75
sa(dp809
g801
I44
sg802
F0.002271890640258789
sg803
F0.003710031509399414
sg804
I3
sg805
I3
sasS'total_cqs'
p810
I85
ssI72
(dp811
S'iters'
p812
I3
sS'meta'
p813
(lp814
(dp815
S'objective'
p816
I2
sS'query_time'
p817
F0.24941778182983398
sS'comp_time'
p818
F0.0038640499114990234
sS'exec_cq'
p819
I4
sS'total_cq'
p820
I8
sa(dp821
g816
I1
sg817
F0.0281829833984375
sg818
F0.00018715858459472656
sg819
I4
sg820
I5
sa(dp822
g816
I1
sg817
F2.002716064453125e-05
sg818
F3.886222839355469e-05
sg819
I2
sg820
I3
sasS'total_cqs'
p823
I8
ssI73
(dp824
S'iters'
p825
I0
sS'meta'
p826
(lp827
sS'total_cqs'
p828
I1
ssI74
(dp829
S'iters'
p830
I0
sS'meta'
p831
(lp832
sS'total_cqs'
p833
I1
ssI75
(dp834
S'iters'
p835
I2
sS'meta'
p836
(lp837
(dp838
S'objective'
p839
I5
sS'query_time'
p840
F0.011564970016479492
sS'comp_time'
p841
F0.0017850399017333984
sS'exec_cq'
p842
I5
sS'total_cq'
p843
I5
sa(dp844
g839
I2
sg840
F2.8848648071289062e-05
sg841
F0.000125885009765625
sg842
I4
sg843
I4
sasS'total_cqs'
p845
I5
ssI76
(dp846
S'iters'
p847
I1
sS'meta'
p848
(lp849
(dp850
S'objective'
p851
I1
sS'query_time'
p852
F0.013298988342285156
sS'comp_time'
p853
F0.0011429786682128906
sS'exec_cq'
p854
I2
sS'total_cq'
p855
I2
sasS'total_cqs'
p856
I2
ssI77
(dp857
S'iters'
p858
I0
sS'meta'
p859
(lp860
sS'total_cqs'
p861
I1
ssI78
(dp862
S'iters'
p863
I0
sS'meta'
p864
(lp865
sS'total_cqs'
p866
I1
ssI103
(dp867
S'iters'
p868
I1
sS'meta'
p869
(lp870
(dp871
S'objective'
p872
I64
sS'query_time'
p873
F0.07039284706115723
sS'comp_time'
p874
F0.015499353408813477
sS'exec_cq'
p875
I12
sS'total_cq'
p876
I12
sasS'total_cqs'
p877
I12
ssI104
(dp878
S'iters'
p879
I2
sS'meta'
p880
(lp881
(dp882
S'objective'
p883
I2
sS'query_time'
p884
F1.570138931274414
sS'comp_time'
p885
F0.0679788589477539
sS'exec_cq'
p886
I4
sS'total_cq'
p887
I4
sa(dp888
g883
I0
sg884
F0.014003992080688477
sg885
F0.20897126197814941
sg886
I3
sg887
I3
sasS'total_cqs'
p889
I4
ssI105
(dp890
S'iters'
p891
I0
sS'meta'
p892
(lp893
sS'total_cqs'
p894
I1
ssI106
(dp895
S'iters'
p896
I1
sS'meta'
p897
(lp898
(dp899
S'objective'
p900
I4
sS'query_time'
p901
F0.03430509567260742
sS'comp_time'
p902
F0.0020651817321777344
sS'exec_cq'
p903
I4
sS'total_cq'
p904
I4
sasS'total_cqs'
p905
I4
ssI107
(dp906
S'iters'
p907
I2
sS'meta'
p908
(lp909
(dp910
S'objective'
p911
I80
sS'query_time'
p912
F0.07888293266296387
sS'comp_time'
p913
F0.01898193359375
sS'exec_cq'
p914
I16
sS'total_cq'
p915
I16
sa(dp916
g911
I10
sg912
F0.004821062088012695
sg913
F0.0003376007080078125
sg914
I3
sg915
I3
sasS'total_cqs'
p917
I16
ssI108
(dp918
S'iters'
p919
I0
sS'meta'
p920
(lp921
sS'total_cqs'
p922
I1
ss.