(dp0
I1
(dp1
S'iters'
p2
I1
sS'meta'
p3
(lp4
(dp5
S'objective'
p6
I54
sS'query_time'
p7
F0.019894838333129883
sS'comp_time'
p8
F4.506111145019531e-05
sS'exec_cq'
p9
I1
sS'total_cq'
p10
I12
sasS'total_cqs'
p11
I12
ssI2
(dp12
S'iters'
p13
I1
sS'meta'
p14
(lp15
(dp16
S'objective'
p17
I324
sS'query_time'
p18
F0.06390500068664551
sS'comp_time'
p19
F5.602836608886719e-05
sS'exec_cq'
p20
I1
sS'total_cq'
p21
I27
sasS'total_cqs'
p22
I27
ssI3
(dp23
S'iters'
p24
I1
sS'meta'
p25
(lp26
(dp27
S'objective'
p28
I860
sS'query_time'
p29
F0.02516484260559082
sS'comp_time'
p30
F8.893013000488281e-05
sS'exec_cq'
p31
I1
sS'total_cq'
p32
I43
sasS'total_cqs'
p33
I43
ssI4
(dp34
S'iters'
p35
I1
sS'meta'
p36
(lp37
(dp38
S'objective'
p39
I44
sS'query_time'
p40
F2.987008810043335
sS'comp_time'
p41
F0.0012848377227783203
sS'exec_cq'
p42
I1
sS'total_cq'
p43
I11
sasS'total_cqs'
p44
I11
ssI5
(dp45
S'iters'
p46
I2
sS'meta'
p47
(lp48
(dp49
S'objective'
p50
I12
sS'query_time'
p51
F0.38599705696105957
sS'comp_time'
p52
F7.390975952148438e-05
sS'exec_cq'
p53
I1
sS'total_cq'
p54
I8
sa(dp55
g50
I4
sg51
F0.0038712024688720703
sg52
F3.3855438232421875e-05
sg53
I1
sg54
I2
sasS'total_cqs'
p56
I8
ssI6
(dp57
S'iters'
p58
I1
sS'meta'
p59
(lp60
(dp61
S'objective'
p62
I135
sS'query_time'
p63
F0.5493299961090088
sS'comp_time'
p64
F6.580352783203125e-05
sS'exec_cq'
p65
I1
sS'total_cq'
p66
I18
sasS'total_cqs'
p67
I18
ssI7
(dp68
S'iters'
p69
I1
sS'meta'
p70
(lp71
(dp72
S'objective'
p73
I27
sS'query_time'
p74
F0.2668449878692627
sS'comp_time'
p75
F7.581710815429688e-05
sS'exec_cq'
p76
I1
sS'total_cq'
p77
I9
sasS'total_cqs'
p78
I9
ssI8
(dp79
S'iters'
p80
I2
sS'meta'
p81
(lp82
(dp83
S'objective'
p84
I282
sS'query_time'
p85
F0.04685711860656738
sS'comp_time'
p86
F9.202957153320312e-05
sS'exec_cq'
p87
I1
sS'total_cq'
p88
I27
sa(dp89
g84
I6
sg85
F0.015159130096435547
sg86
F6.389617919921875e-05
sg87
I2
sg88
I2
sasS'total_cqs'
p90
I27
ssI9
(dp91
S'iters'
p92
I3
sS'meta'
p93
(lp94
(dp95
S'objective'
p96
I14
sS'query_time'
p97
F0.031127214431762695
sS'comp_time'
p98
F4.38690185546875e-05
sS'exec_cq'
p99
I1
sS'total_cq'
p100
I7
sa(dp101
g96
I5
sg97
F0.04229903221130371
sg98
F8.082389831542969e-05
sg99
I2
sg100
I5
sa(dp102
g96
I6
sg97
F0.007570981979370117
sg98
F4.38690185546875e-05
sg99
I2
sg100
I2
sasS'total_cqs'
p103
I7
ssI10
(dp104
S'iters'
p105
I5
sS'meta'
p106
(lp107
(dp108
S'objective'
p109
I602
sS'query_time'
p110
F0.0831911563873291
sS'comp_time'
p111
F8.0108642578125e-05
sS'exec_cq'
p112
I1
sS'total_cq'
p113
I51
sa(dp114
g109
I166
sg110
F0.08299899101257324
sg111
F6.699562072753906e-05
sg112
I2
sg113
I12
sa(dp115
g109
I124
sg110
F0.0487210750579834
sg111
F4.291534423828125e-05
sg112
I2
sg113
I9
sa(dp116
g109
I114
sg110
F0.028789043426513672
sg111
F6.198883056640625e-05
sg112
I2
sg113
I7
sa(dp117
g109
I52
sg110
F0.015315055847167969
sg111
F5.793571472167969e-05
sg112
I2
sg113
I6
sasS'total_cqs'
p118
I51
ssI11
(dp119
S'iters'
p120
I6
sS'meta'
p121
(lp122
(dp123
S'objective'
p124
I1438
sS'query_time'
p125
F0.15802407264709473
sS'comp_time'
p126
F6.985664367675781e-05
sS'exec_cq'
p127
I1
sS'total_cq'
p128
I63
sa(dp129
g124
I169
sg125
F0.08765006065368652
sg126
F6.985664367675781e-05
sg127
I2
sg128
I9
sa(dp130
g124
I151
sg125
F0.031023025512695312
sg126
F4.1961669921875e-05
sg127
I2
sg128
I8
sa(dp131
g124
I34
sg125
F0.017824888229370117
sg126
F4.100799560546875e-05
sg127
I2
sg128
I7
sa(dp132
g124
I62
sg125
F0.006987810134887695
sg126
F3.314018249511719e-05
sg127
I2
sg128
I3
sa(dp133
g124
I39
sg125
F0.0022470951080322266
sg126
F3.314018249511719e-05
sg127
I2
sg128
I2
sasS'total_cqs'
p134
I63
ssI12
(dp135
S'iters'
p136
I4
sS'meta'
p137
(lp138
(dp139
S'objective'
p140
I879
sS'query_time'
p141
F0.10200214385986328
sS'comp_time'
p142
F5.888938903808594e-05
sS'exec_cq'
p143
I1
sS'total_cq'
p144
I50
sa(dp145
g140
I112
sg141
F0.07511401176452637
sg142
F4.601478576660156e-05
sg143
I2
sg144
I8
sa(dp146
g140
I17
sg141
F0.026836156845092773
sg142
F6.103515625e-05
sg143
I2
sg144
I6
sa(dp147
g140
I14
sg141
F0.009248971939086914
sg142
F5.817413330078125e-05
sg143
I2
sg144
I3
sasS'total_cqs'
p148
I50
ssI13
(dp149
S'iters'
p150
I5
sS'meta'
p151
(lp152
(dp153
S'objective'
p154
I16
sS'query_time'
p155
F0.037507057189941406
sS'comp_time'
p156
F4.982948303222656e-05
sS'exec_cq'
p157
I1
sS'total_cq'
p158
I20
sa(dp159
g154
I69
sg155
F0.09661293029785156
sg156
F5.5789947509765625e-05
sg157
I2
sg158
I11
sa(dp160
g154
I37
sg155
F0.055284976959228516
sg156
F3.910064697265625e-05
sg157
I2
sg158
I9
sa(dp161
g154
I8
sg155
F0.04102206230163574
sg156
F4.696846008300781e-05
sg157
I2
sg158
I7
sa(dp162
g154
I12
sg155
F0.010101795196533203
sg156
F6.008148193359375e-05
sg157
I2
sg158
I3
sasS'total_cqs'
p163
I20
ssI14
(dp164
S'iters'
p165
I2
sS'meta'
p166
(lp167
(dp168
S'objective'
p169
I11
sS'query_time'
p170
F0.38228607177734375
sS'comp_time'
p171
F7.081031799316406e-05
sS'exec_cq'
p172
I1
sS'total_cq'
p173
I9
sa(dp174
g169
I1
sg170
F0.00347900390625
sg171
F2.8133392333984375e-05
sg172
I1
sg173
I2
sasS'total_cqs'
p175
I9
ssI15
(dp176
S'iters'
p177
I3
sS'meta'
p178
(lp179
(dp180
S'objective'
p181
I20
sS'query_time'
p182
F0.0670781135559082
sS'comp_time'
p183
F6.29425048828125e-05
sS'exec_cq'
p184
I1
sS'total_cq'
p185
I11
sa(dp186
g181
I17
sg182
F0.005352020263671875
sg183
F3.695487976074219e-05
sg184
I1
sg185
I3
sa(dp187
g181
I2
sg182
F0.003309011459350586
sg183
F3.719329833984375e-05
sg184
I1
sg185
I2
sasS'total_cqs'
p188
I11
ssI16
(dp189
S'iters'
p190
I1
sS'meta'
p191
(lp192
(dp193
S'objective'
p194
I20
sS'query_time'
p195
F0.014997005462646484
sS'comp_time'
p196
F4.291534423828125e-05
sS'exec_cq'
p197
I1
sS'total_cq'
p198
I8
sasS'total_cqs'
p199
I8
ssI17
(dp200
S'iters'
p201
I1
sS'meta'
p202
(lp203
(dp204
S'objective'
p205
I44
sS'query_time'
p206
F0.04044008255004883
sS'comp_time'
p207
F6.198883056640625e-05
sS'exec_cq'
p208
I1
sS'total_cq'
p209
I11
sasS'total_cqs'
p210
I11
ssI18
(dp211
S'iters'
p212
I1
sS'meta'
p213
(lp214
(dp215
S'objective'
p216
I44
sS'query_time'
p217
F0.01897883415222168
sS'comp_time'
p218
F6.103515625e-05
sS'exec_cq'
p219
I1
sS'total_cq'
p220
I11
sasS'total_cqs'
p221
I11
ssI19
(dp222
S'iters'
p223
I0
sS'meta'
p224
(lp225
sS'total_cqs'
p226
I1
ssI20
(dp227
S'iters'
p228
I0
sS'meta'
p229
(lp230
sS'total_cqs'
p231
I1
ssI21
(dp232
S'iters'
p233
I0
sS'meta'
p234
(lp235
sS'total_cqs'
p236
I1
ssI22
(dp237
S'iters'
p238
I1
sS'meta'
p239
(lp240
(dp241
S'objective'
p242
I135
sS'query_time'
p243
F0.08668804168701172
sS'comp_time'
p244
F5.1975250244140625e-05
sS'exec_cq'
p245
I1
sS'total_cq'
p246
I18
sasS'total_cqs'
p247
I18
ssI23
(dp248
S'iters'
p249
I1
sS'meta'
p250
(lp251
(dp252
S'objective'
p253
I104
sS'query_time'
p254
F0.02596282958984375
sS'comp_time'
p255
F5.1975250244140625e-05
sS'exec_cq'
p256
I1
sS'total_cq'
p257
I16
sasS'total_cqs'
p258
I16
ssI24
(dp259
S'iters'
p260
I0
sS'meta'
p261
(lp262
sS'total_cqs'
p263
I1
ssI25
(dp264
S'iters'
p265
I0
sS'meta'
p266
(lp267
sS'total_cqs'
p268
I1
ssI26
(dp269
S'iters'
p270
I1
sS'meta'
p271
(lp272
(dp273
S'objective'
p274
I819
sS'query_time'
p275
F0.059892892837524414
sS'comp_time'
p276
F5.793571472167969e-05
sS'exec_cq'
p277
I1
sS'total_cq'
p278
I42
sasS'total_cqs'
p279
I42
ssI27
(dp280
S'iters'
p281
I2
sS'meta'
p282
(lp283
(dp284
S'objective'
p285
I399
sS'query_time'
p286
F2.604283094406128
sS'comp_time'
p287
F0.00032901763916015625
sS'exec_cq'
p288
I1
sS'total_cq'
p289
I30
sa(dp290
g285
I27
sg286
F1204.0083260536194
sg287
F7.581710815429688e-05
sg288
I2
sg289
I2
sasS'total_cqs'
p291
I30
ssI28
(dp292
S'iters'
p293
I0
sS'meta'
p294
(lp295
sS'total_cqs'
p296
I1
ssI29
(dp297
S'iters'
p298
I1
sS'meta'
p299
(lp300
(dp301
S'objective'
p302
I1127
sS'query_time'
p303
F0.5706830024719238
sS'comp_time'
p304
F8.606910705566406e-05
sS'exec_cq'
p305
I1
sS'total_cq'
p306
I49
sasS'total_cqs'
p307
I49
ssI30
(dp308
S'iters'
p309
I1
sS'meta'
p310
(lp311
(dp312
S'objective'
p313
I1
sS'query_time'
p314
F0.6643860340118408
sS'comp_time'
p315
F5.91278076171875e-05
sS'exec_cq'
p316
I1
sS'total_cq'
p317
I2
sasS'total_cqs'
p318
I2
ssI31
(dp319
S'iters'
p320
I0
sS'meta'
p321
(lp322
sS'total_cqs'
p323
I1
ssI32
(dp324
S'iters'
p325
I1
sS'meta'
p326
(lp327
(dp328
S'objective'
p329
I1
sS'query_time'
p330
F0.00995492935180664
sS'comp_time'
p331
F5.888938903808594e-05
sS'exec_cq'
p332
I1
sS'total_cq'
p333
I2
sasS'total_cqs'
p334
I2
ssI33
(dp335
S'iters'
p336
I2
sS'meta'
p337
(lp338
(dp339
S'objective'
p340
I5026
sS'query_time'
p341
F0.7494421005249023
sS'comp_time'
p342
F0.00011205673217773438
sS'exec_cq'
p343
I1
sS'total_cq'
p344
I103
sa(dp345
g340
I41
sg341
F0.029320955276489258
sg342
F3.790855407714844e-05
sg343
I1
sg344
I2
sasS'total_cqs'
p346
I103
ssI34
(dp347
S'iters'
p348
I1
sS'meta'
p349
(lp350
(dp351
S'objective'
p352
I1
sS'query_time'
p353
F0.015291929244995117
sS'comp_time'
p354
F0.00033092498779296875
sS'exec_cq'
p355
I1
sS'total_cq'
p356
I2
sasS'total_cqs'
p357
I2
ssI35
(dp358
S'iters'
p359
I1
sS'meta'
p360
(lp361
(dp362
S'objective'
p363
I2345
sS'query_time'
p364
F0.5414941310882568
sS'comp_time'
p365
F0.0001270771026611328
sS'exec_cq'
p366
I1
sS'total_cq'
p367
I70
sasS'total_cqs'
p368
I70
ssI36
(dp369
S'iters'
p370
I1
sS'meta'
p371
(lp372
(dp373
S'objective'
p374
I495
sS'query_time'
p375
F0.08268094062805176
sS'comp_time'
p376
F9.012222290039062e-05
sS'exec_cq'
p377
I1
sS'total_cq'
p378
I33
sasS'total_cqs'
p379
I33
ssI37
(dp380
S'iters'
p381
I1
sS'meta'
p382
(lp383
(dp384
S'objective'
p385
I1
sS'query_time'
p386
F0.008002996444702148
sS'comp_time'
p387
F4.792213439941406e-05
sS'exec_cq'
p388
I1
sS'total_cq'
p389
I2
sasS'total_cqs'
p390
I2
ssI38
(dp391
S'iters'
p392
I2
sS'meta'
p393
(lp394
(dp395
S'objective'
p396
I8
sS'query_time'
p397
F0.027559995651245117
sS'comp_time'
p398
F0.00034689903259277344
sS'exec_cq'
p399
I1
sS'total_cq'
p400
I4
sa(dp401
g396
I1
sg397
F0.02515697479248047
sg398
F3.600120544433594e-05
sg399
I1
sg400
I3
sasS'total_cqs'
p402
I4
ssI39
(dp403
S'iters'
p404
I1
sS'meta'
p405
(lp406
(dp407
S'objective'
p408
I902
sS'query_time'
p409
F0.10802102088928223
sS'comp_time'
p410
F8.416175842285156e-05
sS'exec_cq'
p411
I1
sS'total_cq'
p412
I44
sasS'total_cqs'
p413
I44
ssI40
(dp414
S'iters'
p415
I1
sS'meta'
p416
(lp417
(dp418
S'objective'
p419
I14
sS'query_time'
p420
F0.014622926712036133
sS'comp_time'
p421
F5.1021575927734375e-05
sS'exec_cq'
p422
I1
sS'total_cq'
p423
I7
sasS'total_cqs'
p424
I7
ssI41
(dp425
S'iters'
p426
I1
sS'meta'
p427
(lp428
(dp429
S'objective'
p430
I54
sS'query_time'
p431
F0.021821975708007812
sS'comp_time'
p432
F5.1021575927734375e-05
sS'exec_cq'
p433
I1
sS'total_cq'
p434
I12
sasS'total_cqs'
p435
I12
ssI42
(dp436
S'iters'
p437
I1
sS'meta'
p438
(lp439
(dp440
S'objective'
p441
I779
sS'query_time'
p442
F0.04977107048034668
sS'comp_time'
p443
F8.487701416015625e-05
sS'exec_cq'
p444
I1
sS'total_cq'
p445
I41
sasS'total_cqs'
p446
I41
ssI43
(dp447
S'iters'
p448
I1
sS'meta'
p449
(lp450
(dp451
S'objective'
p452
I14
sS'query_time'
p453
F0.01653885841369629
sS'comp_time'
p454
F4.696846008300781e-05
sS'exec_cq'
p455
I1
sS'total_cq'
p456
I7
sasS'total_cqs'
p457
I7
ssI44
(dp458
S'iters'
p459
I2
sS'meta'
p460
(lp461
(dp462
S'objective'
p463
I1026
sS'query_time'
p464
F0.07440996170043945
sS'comp_time'
p465
F6.604194641113281e-05
sS'exec_cq'
p466
I1
sS'total_cq'
p467
I47
sa(dp468
g463
I43
sg464
F0.03612017631530762
sg465
F5.2928924560546875e-05
sg466
I2
sg467
I2
sasS'total_cqs'
p469
I47
ssI45
(dp470
S'iters'
p471
I0
sS'meta'
p472
(lp473
sS'total_cqs'
p474
I1
ssI46
(dp475
S'iters'
p476
I1
sS'meta'
p477
(lp478
(dp479
S'objective'
p480
I9
sS'query_time'
p481
F0.007667064666748047
sS'comp_time'
p482
F4.887580871582031e-05
sS'exec_cq'
p483
I1
sS'total_cq'
p484
I6
sasS'total_cqs'
p485
I6
ssI47
(dp486
S'iters'
p487
I1
sS'meta'
p488
(lp489
(dp490
S'objective'
p491
I1
sS'query_time'
p492
F0.008822917938232422
sS'comp_time'
p493
F6.794929504394531e-05
sS'exec_cq'
p494
I1
sS'total_cq'
p495
I2
sasS'total_cqs'
p496
I2
ssI48
(dp497
S'iters'
p498
I0
sS'meta'
p499
(lp500
sS'total_cqs'
p501
I1
ssI49
(dp502
S'iters'
p503
I0
sS'meta'
p504
(lp505
sS'total_cqs'
p506
I1
ssI50
(dp507
S'iters'
p508
I1
sS'meta'
p509
(lp510
(dp511
S'objective'
p512
I5
sS'query_time'
p513
F0.007728099822998047
sS'comp_time'
p514
F4.696846008300781e-05
sS'exec_cq'
p515
I1
sS'total_cq'
p516
I5
sasS'total_cqs'
p517
I5
ssI51
(dp518
S'iters'
p519
I1
sS'meta'
p520
(lp521
(dp522
S'objective'
p523
I1
sS'query_time'
p524
F0.0063779354095458984
sS'comp_time'
p525
F4.291534423828125e-05
sS'exec_cq'
p526
I1
sS'total_cq'
p527
I2
sasS'total_cqs'
p528
I2
ssI52
(dp529
S'iters'
p530
I1
sS'meta'
p531
(lp532
(dp533
S'objective'
p534
I1
sS'query_time'
p535
F0.008465051651000977
sS'comp_time'
p536
F0.0004570484161376953
sS'exec_cq'
p537
I1
sS'total_cq'
p538
I2
sasS'total_cqs'
p539
I2
ssI53
(dp540
S'iters'
p541
I1
sS'meta'
p542
(lp543
(dp544
S'objective'
p545
I2
sS'query_time'
p546
F0.01259303092956543
sS'comp_time'
p547
F5.1975250244140625e-05
sS'exec_cq'
p548
I1
sS'total_cq'
p549
I4
sasS'total_cqs'
p550
I4
ssI54
(dp551
S'iters'
p552
I1
sS'meta'
p553
(lp554
(dp555
S'objective'
p556
I0
sS'query_time'
p557
F0.008385896682739258
sS'comp_time'
p558
F5.316734313964844e-05
sS'exec_cq'
p559
I1
sS'total_cq'
p560
I3
sasS'total_cqs'
p561
I3
ssI55
(dp562
S'iters'
p563
I3
sS'meta'
p564
(lp565
(dp566
S'objective'
p567
I5233
sS'query_time'
p568
F0.20401906967163086
sS'comp_time'
p569
F0.00013494491577148438
sS'exec_cq'
p570
I1
sS'total_cq'
p571
I109
sa(dp572
g567
I67
sg568
F0.011846065521240234
sg569
F4.00543212890625e-05
sg570
I1
sg571
I8
sa(dp573
g567
I61
sg568
F0.005281925201416016
sg569
F3.314018249511719e-05
sg570
I1
sg571
I2
sasS'total_cqs'
p574
I109
ssI56
(dp575
S'iters'
p576
I2
sS'meta'
p577
(lp578
(dp579
S'objective'
p580
I2548
sS'query_time'
p581
F0.29502010345458984
sS'comp_time'
p582
F0.00010204315185546875
sS'exec_cq'
p583
I1
sS'total_cq'
p584
I76
sa(dp585
g580
I37
sg581
F0.006025075912475586
sg582
F3.600120544433594e-05
sg583
I1
sg584
I3
sasS'total_cqs'
p586
I76
ssI57
(dp587
S'iters'
p588
I2
sS'meta'
p589
(lp590
(dp591
S'objective'
p592
I1036
sS'query_time'
p593
F0.5357329845428467
sS'comp_time'
p594
F8.797645568847656e-05
sS'exec_cq'
p595
I1
sS'total_cq'
p596
I51
sa(dp597
g592
I43
sg593
F0.06383585929870605
sg594
F3.2901763916015625e-05
sg595
I1
sg596
I3
sasS'total_cqs'
p598
I51
ssI58
(dp599
S'iters'
p600
I1
sS'meta'
p601
(lp602
(dp603
S'objective'
p604
I117369
sS'query_time'
p605
F1.8154568672180176
sS'comp_time'
p606
F0.00046706199645996094
sS'exec_cq'
p607
I1
sS'total_cq'
p608
I486
sasS'total_cqs'
p609
I486
ssI59
(dp610
S'iters'
p611
I2
sS'meta'
p612
(lp613
(dp614
S'objective'
p615
I6
sS'query_time'
p616
F0.02774500846862793
sS'comp_time'
p617
F7.200241088867188e-05
sS'exec_cq'
p618
I1
sS'total_cq'
p619
I7
sa(dp620
g615
I3
sg616
F0.039112091064453125
sg617
F5.2928924560546875e-05
sg618
I2
sg619
I2
sasS'total_cqs'
p621
I7
ssI60
(dp622
S'iters'
p623
I1
sS'meta'
p624
(lp625
(dp626
S'objective'
p627
I5
sS'query_time'
p628
F0.0067501068115234375
sS'comp_time'
p629
F4.506111145019531e-05
sS'exec_cq'
p630
I1
sS'total_cq'
p631
I5
sasS'total_cqs'
p632
I5
ssI61
(dp633
S'iters'
p634
I0
sS'meta'
p635
(lp636
sS'total_cqs'
p637
I1
ssI62
(dp638
S'iters'
p639
I1
sS'meta'
p640
(lp641
(dp642
S'objective'
p643
I54
sS'query_time'
p644
F0.01494598388671875
sS'comp_time'
p645
F4.315376281738281e-05
sS'exec_cq'
p646
I1
sS'total_cq'
p647
I12
sasS'total_cqs'
p648
I12
ssI63
(dp649
S'iters'
p650
I0
sS'meta'
p651
(lp652
sS'total_cqs'
p653
I1
ssI64
(dp654
S'iters'
p655
I4
sS'meta'
p656
(lp657
(dp658
S'objective'
p659
I4
sS'query_time'
p660
F0.09945392608642578
sS'comp_time'
p661
F5.1975250244140625e-05
sS'exec_cq'
p662
I1
sS'total_cq'
p663
I12
sa(dp664
g659
I7
sg660
F0.011630058288574219
sg661
F3.504753112792969e-05
sg662
I1
sg663
I5
sa(dp665
g659
I6
sg660
F0.029343843460083008
sg661
F3.981590270996094e-05
sg662
I1
sg663
I3
sa(dp666
g659
I9
sg660
F0.008056879043579102
sg661
F2.5987625122070312e-05
sg662
I1
sg663
I2
sasS'total_cqs'
p667
I12
ssI65
(dp668
S'iters'
p669
I2
sS'meta'
p670
(lp671
(dp672
S'objective'
p673
I276
sS'query_time'
p674
F0.02973794937133789
sS'comp_time'
p675
F6.4849853515625e-05
sS'exec_cq'
p676
I1
sS'total_cq'
p677
I27
sa(dp678
g673
I3
sg674
F0.0010251998901367188
sg675
F3.409385681152344e-05
sg676
I1
sg677
I2
sasS'total_cqs'
p679
I27
ssI66
(dp680
S'iters'
p681
I0
sS'meta'
p682
(lp683
sS'total_cqs'
p684
I1
ssI67
(dp685
S'iters'
p686
I1
sS'meta'
p687
(lp688
(dp689
S'objective'
p690
I560
sS'query_time'
p691
F0.6057450771331787
sS'comp_time'
p692
F6.699562072753906e-05
sS'exec_cq'
p693
I1
sS'total_cq'
p694
I35
sasS'total_cqs'
p695
I35
ssI68
(dp696
S'iters'
p697
I0
sS'meta'
p698
(lp699
sS'total_cqs'
p700
I1
ssI69
(dp701
S'iters'
p702
I1
sS'meta'
p703
(lp704
(dp705
S'objective'
p706
I1224
sS'query_time'
p707
F0.12188076972961426
sS'comp_time'
p708
F0.00011181831359863281
sS'exec_cq'
p709
I1
sS'total_cq'
p710
I51
sasS'total_cqs'
p711
I51
ssI70
(dp712
S'iters'
p713
I1
sS'meta'
p714
(lp715
(dp716
S'objective'
p717
I9
sS'query_time'
p718
F0.010668039321899414
sS'comp_time'
p719
F5.888938903808594e-05
sS'exec_cq'
p720
I1
sS'total_cq'
p721
I6
sasS'total_cqs'
p722
I6
ssI71
(dp723
S'iters'
p724
I1
sS'meta'
p725
(lp726
(dp727
S'objective'
p728
I3485
sS'query_time'
p729
F0.08816885948181152
sS'comp_time'
p730
F7.319450378417969e-05
sS'exec_cq'
p731
I1
sS'total_cq'
p732
I85
sasS'total_cqs'
p733
I85
ssI72
(dp734
S'iters'
p735
I1
sS'meta'
p736
(lp737
(dp738
S'objective'
p739
I20
sS'query_time'
p740
F0.01123499870300293
sS'comp_time'
p741
F4.887580871582031e-05
sS'exec_cq'
p742
I1
sS'total_cq'
p743
I8
sasS'total_cqs'
p744
I8
ssI73
(dp745
S'iters'
p746
I0
sS'meta'
p747
(lp748
sS'total_cqs'
p749
I1
ssI74
(dp750
S'iters'
p751
I0
sS'meta'
p752
(lp753
sS'total_cqs'
p754
I1
ssI75
(dp755
S'iters'
p756
I1
sS'meta'
p757
(lp758
(dp759
S'objective'
p760
I5
sS'query_time'
p761
F0.005378007888793945
sS'comp_time'
p762
F4.220008850097656e-05
sS'exec_cq'
p763
I1
sS'total_cq'
p764
I5
sasS'total_cqs'
p765
I5
ssI76
(dp766
S'iters'
p767
I1
sS'meta'
p768
(lp769
(dp770
S'objective'
p771
I1
sS'query_time'
p772
F0.010263919830322266
sS'comp_time'
p773
F4.482269287109375e-05
sS'exec_cq'
p774
I1
sS'total_cq'
p775
I2
sasS'total_cqs'
p776
I2
ssI77
(dp777
S'iters'
p778
I0
sS'meta'
p779
(lp780
sS'total_cqs'
p781
I1
ssI78
(dp782
S'iters'
p783
I0
sS'meta'
p784
(lp785
sS'total_cqs'
p786
I1
ssI103
(dp787
S'iters'
p788
I1
sS'meta'
p789
(lp790
(dp791
S'objective'
p792
I54
sS'query_time'
p793
F0.028274059295654297
sS'comp_time'
p794
F5.817413330078125e-05
sS'exec_cq'
p795
I1
sS'total_cq'
p796
I12
sasS'total_cqs'
p797
I12
ssI104
(dp798
S'iters'
p799
I1
sS'meta'
p800
(lp801
(dp802
S'objective'
p803
I2
sS'query_time'
p804
F1.1704659461975098
sS'comp_time'
p805
F6.699562072753906e-05
sS'exec_cq'
p806
I1
sS'total_cq'
p807
I4
sasS'total_cqs'
p808
I4
ssI105
(dp809
S'iters'
p810
I0
sS'meta'
p811
(lp812
sS'total_cqs'
p813
I1
ssI106
(dp814
S'iters'
p815
I1
sS'meta'
p816
(lp817
(dp818
S'objective'
p819
I2
sS'query_time'
p820
F0.012573003768920898
sS'comp_time'
p821
F4.506111145019531e-05
sS'exec_cq'
p822
I1
sS'total_cq'
p823
I4
sasS'total_cqs'
p824
I4
ssI107
(dp825
S'iters'
p826
I1
sS'meta'
p827
(lp828
(dp829
S'objective'
p830
I104
sS'query_time'
p831
F0.03631186485290527
sS'comp_time'
p832
F8.296966552734375e-05
sS'exec_cq'
p833
I1
sS'total_cq'
p834
I16
sasS'total_cqs'
p835
I16
ssI108
(dp836
S'iters'
p837
I0
sS'meta'
p838
(lp839
sS'total_cqs'
p840
I1
ss.