(dp0
I1
(dp1
S'iters'
p2
I1
sS'meta'
p3
(lp4
(dp5
S'objective'
p6
I54
sS'query_time'
p7
F0.039450883865356445
sS'comp_time'
p8
F0.021028995513916016
sS'exec_cq'
p9
I12
sS'total_cq'
p10
I12
sasS'total_cqs'
p11
I12
ssI2
(dp12
S'iters'
p13
I3
sS'meta'
p14
(lp15
(dp16
S'objective'
p17
I248
sS'query_time'
p18
F0.19816112518310547
sS'comp_time'
p19
F0.033370018005371094
sS'exec_cq'
p20
I27
sS'total_cq'
p21
I27
sa(dp22
g17
I235
sg18
F0.0001888275146484375
sg19
F0.0008099079132080078
sg20
I23
sg21
I23
sa(dp23
g17
I220
sg18
F0.00011396408081054688
sg19
F0.00037288665771484375
sg20
I20
sg21
I20
sasS'total_cqs'
p24
I27
ssI3
(dp25
S'iters'
p26
I4
sS'meta'
p27
(lp28
(dp29
S'objective'
p30
I586
sS'query_time'
p31
F237.63094210624695
sS'comp_time'
p32
F1.871284008026123
sS'exec_cq'
p33
I39
sS'total_cq'
p34
I43
sa(dp35
g30
I448
sg31
F0.5585932731628418
sg32
F2.1911489963531494
sg33
I31
sg34
I35
sa(dp36
g30
I475
sg31
F12.057277917861938
sg32
F0.48697328567504883
sg33
I28
sg34
I28
sa(dp37
g30
I455
sg31
F0.019712448120117188
sg32
F0.0001583099365234375
sg33
I25
sg34
I25
sasS'total_cqs'
p38
I43
ssI4
(dp39
S'iters'
p40
I2
sS'meta'
p41
(lp42
(dp43
S'objective'
p44
I40
sS'query_time'
p45
F4.710168123245239
sS'comp_time'
p46
F0.32246971130371094
sS'exec_cq'
p47
I11
sS'total_cq'
p48
I11
sa(dp49
g44
I9
sg45
F0.16811490058898926
sg46
F0.2655470371246338
sg47
I2
sg48
I2
sasS'total_cqs'
p50
I11
ssI5
(dp51
S'iters'
p52
I3
sS'meta'
p53
(lp54
(dp55
S'objective'
p56
I0
sS'query_time'
p57
F34.63757109642029
sS'comp_time'
p58
F3.8207714557647705
sS'exec_cq'
p59
I8
sS'total_cq'
p60
I8
sa(dp61
g56
I0
sg57
F0.47290515899658203
sg58
F2.2617030143737793
sg59
I4
sg60
I4
sa(dp62
g56
I7
sg57
F0.16926789283752441
sg58
F0.005918979644775391
sg59
I2
sg60
I2
sasS'total_cqs'
p63
I8
ssI6
(dp64
S'iters'
p65
I3
sS'meta'
p66
(lp67
(dp68
S'objective'
p69
I37
sS'query_time'
p70
F38.90262293815613
sS'comp_time'
p71
F1.6935040950775146
sS'exec_cq'
p72
I18
sS'total_cq'
p73
I18
sa(dp74
g69
I1
sg70
F0.7224528789520264
sg71
F2.824821949005127
sg72
I7
sg73
I7
sa(dp75
g69
I3
sg70
F0.22634506225585938
sg71
F0.721325159072876
sg72
I3
sg73
I3
sasS'total_cqs'
p76
I18
ssI7
(dp77
S'iters'
p78
I3
sS'meta'
p79
(lp80
(dp81
S'objective'
p82
I1
sS'query_time'
p83
F12.530527114868164
sS'comp_time'
p84
F1.1648967266082764
sS'exec_cq'
p85
I9
sS'total_cq'
p86
I9
sa(dp87
g82
I0
sg83
F0.07993197441101074
sg84
F0.4756488800048828
sg85
I4
sg86
I4
sa(dp88
g82
I7
sg83
F0.009232044219970703
sg84
F0.0184476375579834
sg85
I2
sg86
I2
sasS'total_cqs'
p89
I9
ssI8
(dp90
S'iters'
p91
I3
sS'meta'
p92
(lp93
(dp94
S'objective'
p95
I242
sS'query_time'
p96
F0.23949408531188965
sS'comp_time'
p97
F0.03252005577087402
sS'exec_cq'
p98
I27
sS'total_cq'
p99
I27
sa(dp100
g95
I238
sg96
F0.00015497207641601562
sg97
F0.0004584789276123047
sg98
I22
sg99
I22
sa(dp101
g95
I18
sg96
F0.017108917236328125
sg97
F0.00037598609924316406
sg98
I2
sg99
I2
sasS'total_cqs'
p102
I27
ssI9
(dp103
S'iters'
p104
I3
sS'meta'
p105
(lp106
(dp107
S'objective'
p108
I6
sS'query_time'
p109
F0.04885697364807129
sS'comp_time'
p110
F0.003541231155395508
sS'exec_cq'
p111
I7
sS'total_cq'
p112
I7
sa(dp113
g108
I1
sg109
F0.0012149810791015625
sg110
F0.0004937648773193359
sg111
I5
sg112
I5
sa(dp114
g108
I5
sg109
F1.71661376953125e-05
sg110
F0.00010800361633300781
sg111
I2
sg112
I2
sasS'total_cqs'
p115
I7
ssI10
(dp116
S'iters'
p117
I5
sS'meta'
p118
(lp119
(dp120
S'objective'
p121
I578
sS'query_time'
p122
F0.3656589984893799
sS'comp_time'
p123
F0.09771394729614258
sS'exec_cq'
p124
I51
sS'total_cq'
p125
I51
sa(dp126
g121
I412
sg122
F0.0004532337188720703
sg123
F0.0033538341522216797
sg124
I37
sg125
I37
sa(dp127
g121
I472
sg122
F0.00020194053649902344
sg123
F0.0011968612670898438
sg124
I25
sg125
I25
sa(dp128
g121
I375
sg122
F0.00012683868408203125
sg123
F0.0004432201385498047
sg124
I21
sg125
I21
sa(dp129
g121
I1
sg122
F0.0011479854583740234
sg123
F0.0003421306610107422
sg124
I3
sg125
I3
sasS'total_cqs'
p130
I51
ssI11
(dp131
S'iters'
p132
I4
sS'meta'
p133
(lp134
(dp135
S'objective'
p136
I802
sS'query_time'
p137
F0.6328589916229248
sS'comp_time'
p138
F0.15693998336791992
sS'exec_cq'
p139
I63
sS'total_cq'
p140
I63
sa(dp141
g136
I821
sg137
F0.001438140869140625
sg138
F0.004768848419189453
sg139
I47
sg140
I47
sa(dp142
g136
I42
sg137
F0.0017991065979003906
sg138
F0.0024704933166503906
sg139
I9
sg140
I9
sa(dp143
g136
I42
sg137
F3.1948089599609375e-05
sg138
F0.0002512931823730469
sg139
I4
sg140
I4
sasS'total_cqs'
p144
I63
ssI12
(dp145
S'iters'
p146
I5
sS'meta'
p147
(lp148
(dp149
S'objective'
p150
I373
sS'query_time'
p151
F0.3643820285797119
sS'comp_time'
p152
F0.08727121353149414
sS'exec_cq'
p153
I50
sS'total_cq'
p154
I50
sa(dp155
g150
I476
sg151
F0.0006849765777587891
sg152
F0.0031709671020507812
sg153
I33
sg154
I33
sa(dp156
g150
I362
sg151
F0.0001690387725830078
sg152
F0.0008769035339355469
sg153
I27
sg154
I27
sa(dp157
g150
I36
sg151
F0.008018970489501953
sg152
F0.0006721019744873047
sg153
I6
sg154
I6
sa(dp158
g150
I10
sg151
F4.315376281738281e-05
sg152
F0.0002620220184326172
sg153
I3
sg154
I3
sasS'total_cqs'
p159
I50
ssI13
(dp160
S'iters'
p161
I3
sS'meta'
p162
(lp163
(dp164
S'objective'
p165
I12
sS'query_time'
p166
F0.15587496757507324
sS'comp_time'
p167
F0.03563523292541504
sS'exec_cq'
p168
I20
sS'total_cq'
p169
I20
sa(dp170
g165
I37
sg166
F6.794929504394531e-05
sg167
F0.0005352497100830078
sg168
I9
sg169
I9
sa(dp171
g165
I9
sg166
F0.0018529891967773438
sg167
F0.0002372264862060547
sg168
I2
sg169
I2
sasS'total_cqs'
p172
I20
ssI14
(dp173
S'iters'
p174
I3
sS'meta'
p175
(lp176
(dp177
S'objective'
p178
I1
sS'query_time'
p179
F35.06450009346008
sS'comp_time'
p180
F1.322117805480957
sS'exec_cq'
p181
I9
sS'total_cq'
p182
I9
sa(dp183
g178
I0
sg179
F0.45471715927124023
sg180
F0.8033769130706787
sg181
I5
sg182
I5
sa(dp184
g178
I7
sg179
F0.08266782760620117
sg180
F0.42946696281433105
sg181
I2
sg182
I2
sasS'total_cqs'
p185
I9
ssI15
(dp186
S'iters'
p187
I3
sS'meta'
p188
(lp189
(dp190
S'objective'
p191
I2
sS'query_time'
p192
F4.507251977920532
sS'comp_time'
p193
F0.1473393440246582
sS'exec_cq'
p194
I11
sS'total_cq'
p195
I11
sa(dp196
g191
I0
sg192
F0.04424715042114258
sg193
F0.15748834609985352
sg194
I5
sg195
I5
sa(dp197
g191
I6
sg192
F0.0009989738464355469
sg193
F0.0013244152069091797
sg194
I2
sg195
I2
sasS'total_cqs'
p198
I11
ssI16
(dp199
S'iters'
p200
I1
sS'meta'
p201
(lp202
(dp203
S'objective'
p204
I20
sS'query_time'
p205
F0.03374195098876953
sS'comp_time'
p206
F0.004318952560424805
sS'exec_cq'
p207
I8
sS'total_cq'
p208
I8
sasS'total_cqs'
p209
I8
ssI17
(dp210
S'iters'
p211
I3
sS'meta'
p212
(lp213
(dp214
S'objective'
p215
I2
sS'query_time'
p216
F0.9508159160614014
sS'comp_time'
p217
F0.04967856407165527
sS'exec_cq'
p218
I11
sS'total_cq'
p219
I11
sa(dp220
g215
I4
sg216
F0.0065670013427734375
sg217
F0.012499809265136719
sg218
I4
sg219
I4
sa(dp221
g215
I8
sg216
F0.002585172653198242
sg217
F0.004150390625
sg218
I2
sg219
I2
sasS'total_cqs'
p222
I11
ssI18
(dp223
S'iters'
p224
I2
sS'meta'
p225
(lp226
(dp227
S'objective'
p228
I20
sS'query_time'
p229
F0.21806979179382324
sS'comp_time'
p230
F0.023742198944091797
sS'exec_cq'
p231
I11
sS'total_cq'
p232
I11
sa(dp233
g228
I21
sg229
F0.00038123130798339844
sg230
F0.0006463527679443359
sg231
I8
sg232
I8
sasS'total_cqs'
p234
I11
ssI19
(dp235
S'iters'
p236
I0
sS'meta'
p237
(lp238
sS'total_cqs'
p239
I1
ssI20
(dp240
S'iters'
p241
I0
sS'meta'
p242
(lp243
sS'total_cqs'
p244
I1
ssI21
(dp245
S'iters'
p246
I0
sS'meta'
p247
(lp248
sS'total_cqs'
p249
I1
ssI22
(dp250
S'iters'
p251
I1
sS'meta'
p252
(lp253
(dp254
S'objective'
p255
I135
sS'query_time'
p256
F0.0845029354095459
sS'comp_time'
p257
F0.035248756408691406
sS'exec_cq'
p258
I18
sS'total_cq'
p259
I18
sasS'total_cqs'
p260
I18
ssI23
(dp261
S'iters'
p262
I1
sS'meta'
p263
(lp264
(dp265
S'objective'
p266
I104
sS'query_time'
p267
F0.0576939582824707
sS'comp_time'
p268
F0.02548503875732422
sS'exec_cq'
p269
I16
sS'total_cq'
p270
I16
sasS'total_cqs'
p271
I16
ssI24
(dp272
S'iters'
p273
I0
sS'meta'
p274
(lp275
sS'total_cqs'
p276
I1
ssI25
(dp277
S'iters'
p278
I0
sS'meta'
p279
(lp280
sS'total_cqs'
p281
I1
ssI26
(dp282
S'iters'
p283
I1
sS'meta'
p284
(lp285
(dp286
S'objective'
p287
I819
sS'query_time'
p288
F0.14548301696777344
sS'comp_time'
p289
F0.11509513854980469
sS'exec_cq'
p290
I42
sS'total_cq'
p291
I42
sasS'total_cqs'
p292
I42
ssI27
(dp293
S'iters'
p294
I3
sS'meta'
p295
(lp296
(dp297
S'objective'
p298
I271
sS'query_time'
p299
F22.916523933410645
sS'comp_time'
p300
F1.6806042194366455
sS'exec_cq'
p301
I30
sS'total_cq'
p302
I30
sa(dp303
g298
I7
sg299
F0.5187718868255615
sg300
F1.5095148086547852
sg301
I5
sg302
I5
sa(dp304
g298
I15
sg299
F0.46987009048461914
sg300
F1.0907809734344482
sg301
I3
sg302
I3
sasS'total_cqs'
p305
I30
ssI28
(dp306
S'iters'
p307
I0
sS'meta'
p308
(lp309
sS'total_cqs'
p310
I1
ssI29
(dp311
S'iters'
p312
I5
sS'meta'
p313
(lp314
(dp315
S'objective'
p316
I217
sS'query_time'
p317
F31.294979095458984
sS'comp_time'
p318
F0.4076998233795166
sS'exec_cq'
p319
I35
sS'total_cq'
p320
I49
sa(dp321
g316
I52
sg317
F0.022490978240966797
sg318
F0.03664827346801758
sg319
I17
sg320
I17
sa(dp322
g316
I10
sg317
F0.02011704444885254
sg318
F0.14901375770568848
sg319
I9
sg320
I9
sa(dp323
g316
I2
sg317
F0.005728960037231445
sg318
F0.012405872344970703
sg319
I4
sg320
I4
sa(dp324
g316
I43
sg317
F0.0009741783142089844
sg318
F0.0014171600341796875
sg319
I2
sg320
I2
sasS'total_cqs'
p325
I49
ssI30
(dp326
S'iters'
p327
I1
sS'meta'
p328
(lp329
(dp330
S'objective'
p331
I1
sS'query_time'
p332
F0.6976521015167236
sS'comp_time'
p333
F0.012556791305541992
sS'exec_cq'
p334
I2
sS'total_cq'
p335
I2
sasS'total_cqs'
p336
I2
ssI31
(dp337
S'iters'
p338
I0
sS'meta'
p339
(lp340
sS'total_cqs'
p341
I1
ssI32
(dp342
S'iters'
p343
I1
sS'meta'
p344
(lp345
(dp346
S'objective'
p347
I1
sS'query_time'
p348
F0.012636899948120117
sS'comp_time'
p349
F0.0023069381713867188
sS'exec_cq'
p350
I2
sS'total_cq'
p351
I2
sasS'total_cqs'
p352
I2
ssI33
(dp353
S'iters'
p354
I4
sS'meta'
p355
(lp356
(dp357
S'objective'
p358
I3482
sS'query_time'
p359
F19.64862298965454
sS'comp_time'
p360
F0.8114302158355713
sS'exec_cq'
p361
I103
sS'total_cq'
p362
I103
sa(dp363
g358
I27
sg359
F0.007380962371826172
sg360
F0.05793428421020508
sg361
I16
sg362
I16
sa(dp364
g358
I5
sg359
F0.0026280879974365234
sg360
F0.005072832107543945
sg361
I7
sg362
I7
sa(dp365
g358
I24
sg359
F0.0005030632019042969
sg360
F0.0009438991546630859
sg361
I3
sg362
I3
sasS'total_cqs'
p366
I103
ssI34
(dp367
S'iters'
p368
I1
sS'meta'
p369
(lp370
(dp371
S'objective'
p372
I1
sS'query_time'
p373
F0.015864849090576172
sS'comp_time'
p374
F0.001203775405883789
sS'exec_cq'
p375
I2
sS'total_cq'
p376
I2
sasS'total_cqs'
p377
I2
ssI35
(dp378
S'iters'
p379
I4
sS'meta'
p380
(lp381
(dp382
S'objective'
p383
I1449
sS'query_time'
p384
F66.72339797019958
sS'comp_time'
p385
F2.392012119293213
sS'exec_cq'
p386
I70
sS'total_cq'
p387
I70
sa(dp388
g383
I22
sg384
F0.004997968673706055
sg385
F0.013150691986083984
sg386
I16
sg387
I16
sa(dp389
g383
I54
sg384
F0.0023331642150878906
sg385
F0.006630897521972656
sg386
I9
sg387
I9
sa(dp390
g383
I32
sg384
F0.00115203857421875
sg385
F0.0013287067413330078
sg386
I3
sg387
I3
sasS'total_cqs'
p391
I70
ssI36
(dp392
S'iters'
p393
I3
sS'meta'
p394
(lp395
(dp396
S'objective'
p397
I413
sS'query_time'
p398
F0.899641752243042
sS'comp_time'
p399
F0.1705920696258545
sS'exec_cq'
p400
I33
sS'total_cq'
p401
I33
sa(dp402
g397
I377
sg398
F0.002675294876098633
sg399
F0.00645899772644043
sg400
I29
sg401
I29
sa(dp403
g397
I366
sg398
F0.002306699752807617
sg399
F0.0038597583770751953
sg400
I25
sg401
I25
sasS'total_cqs'
p404
I33
ssI37
(dp405
S'iters'
p406
I1
sS'meta'
p407
(lp408
(dp409
S'objective'
p410
I1
sS'query_time'
p411
F0.008788108825683594
sS'comp_time'
p412
F0.001458883285522461
sS'exec_cq'
p413
I2
sS'total_cq'
p414
I2
sasS'total_cqs'
p415
I2
ssI38
(dp416
S'iters'
p417
I2
sS'meta'
p418
(lp419
(dp420
S'objective'
p421
I0
sS'query_time'
p422
F0.037631988525390625
sS'comp_time'
p423
F0.002638578414916992
sS'exec_cq'
p424
I4
sS'total_cq'
p425
I4
sa(dp426
g421
I3
sg422
F8.893013000488281e-05
sg423
F0.000179290771484375
sg424
I2
sg425
I2
sasS'total_cqs'
p427
I4
ssI39
(dp428
S'iters'
p429
I2
sS'meta'
p430
(lp431
(dp432
S'objective'
p433
I646
sS'query_time'
p434
F0.1717689037322998
sS'comp_time'
p435
F0.16910862922668457
sS'exec_cq'
p436
I44
sS'total_cq'
p437
I44
sa(dp438
g433
I730
sg434
F0.0003628730773925781
sg435
F0.000997304916381836
sg436
I37
sg437
I37
sasS'total_cqs'
p439
I44
ssI40
(dp440
S'iters'
p441
I1
sS'meta'
p442
(lp443
(dp444
S'objective'
p445
I14
sS'query_time'
p446
F0.045735836029052734
sS'comp_time'
p447
F0.005711078643798828
sS'exec_cq'
p448
I7
sS'total_cq'
p449
I7
sasS'total_cqs'
p450
I7
ssI41
(dp451
S'iters'
p452
I1
sS'meta'
p453
(lp454
(dp455
S'objective'
p456
I54
sS'query_time'
p457
F0.08470511436462402
sS'comp_time'
p458
F0.026000022888183594
sS'exec_cq'
p459
I12
sS'total_cq'
p460
I12
sasS'total_cqs'
p461
I12
ssI42
(dp462
S'iters'
p463
I1
sS'meta'
p464
(lp465
(dp466
S'objective'
p467
I779
sS'query_time'
p468
F0.10521697998046875
sS'comp_time'
p469
F0.13527226448059082
sS'exec_cq'
p470
I41
sS'total_cq'
p471
I41
sasS'total_cqs'
p472
I41
ssI43
(dp473
S'iters'
p474
I1
sS'meta'
p475
(lp476
(dp477
S'objective'
p478
I14
sS'query_time'
p479
F0.02942800521850586
sS'comp_time'
p480
F0.006196022033691406
sS'exec_cq'
p481
I7
sS'total_cq'
p482
I7
sasS'total_cqs'
p483
I7
ssI44
(dp484
S'iters'
p485
I4
sS'meta'
p486
(lp487
(dp488
S'objective'
p489
I768
sS'query_time'
p490
F0.17250585556030273
sS'comp_time'
p491
F0.1807100772857666
sS'exec_cq'
p492
I47
sS'total_cq'
p493
I47
sa(dp494
g489
I752
sg490
F0.00028395652770996094
sg491
F0.0009491443634033203
sg492
I40
sg493
I40
sa(dp495
g489
I12
sg490
F0.0023550987243652344
sg491
F0.007014036178588867
sg492
I3
sg493
I3
sa(dp496
g489
I39
sg490
F3.695487976074219e-05
sg491
F0.0001380443572998047
sg492
I2
sg493
I2
sasS'total_cqs'
p497
I47
ssI45
(dp498
S'iters'
p499
I0
sS'meta'
p500
(lp501
sS'total_cqs'
p502
I1
ssI46
(dp503
S'iters'
p504
I1
sS'meta'
p505
(lp506
(dp507
S'objective'
p508
I9
sS'query_time'
p509
F0.018088102340698242
sS'comp_time'
p510
F0.002299070358276367
sS'exec_cq'
p511
I4
sS'total_cq'
p512
I6
sasS'total_cqs'
p513
I6
ssI47
(dp514
S'iters'
p515
I1
sS'meta'
p516
(lp517
(dp518
S'objective'
p519
I1
sS'query_time'
p520
F0.008934974670410156
sS'comp_time'
p521
F0.0012187957763671875
sS'exec_cq'
p522
I2
sS'total_cq'
p523
I2
sasS'total_cqs'
p524
I2
ssI48
(dp525
S'iters'
p526
I0
sS'meta'
p527
(lp528
sS'total_cqs'
p529
I1
ssI49
(dp530
S'iters'
p531
I0
sS'meta'
p532
(lp533
sS'total_cqs'
p534
I1
ssI50
(dp535
S'iters'
p536
I1
sS'meta'
p537
(lp538
(dp539
S'objective'
p540
I5
sS'query_time'
p541
F0.11791491508483887
sS'comp_time'
p542
F0.0021436214447021484
sS'exec_cq'
p543
I5
sS'total_cq'
p544
I5
sasS'total_cqs'
p545
I5
ssI51
(dp546
S'iters'
p547
I1
sS'meta'
p548
(lp549
(dp550
S'objective'
p551
I1
sS'query_time'
p552
F0.008035898208618164
sS'comp_time'
p553
F0.0009300708770751953
sS'exec_cq'
p554
I2
sS'total_cq'
p555
I2
sasS'total_cqs'
p556
I2
ssI52
(dp557
S'iters'
p558
I1
sS'meta'
p559
(lp560
(dp561
S'objective'
p562
I1
sS'query_time'
p563
F0.010083913803100586
sS'comp_time'
p564
F0.0011262893676757812
sS'exec_cq'
p565
I2
sS'total_cq'
p566
I2
sasS'total_cqs'
p567
I2
ssI53
(dp568
S'iters'
p569
I1
sS'meta'
p570
(lp571
(dp572
S'objective'
p573
I2
sS'query_time'
p574
F0.10392498970031738
sS'comp_time'
p575
F0.0027010440826416016
sS'exec_cq'
p576
I4
sS'total_cq'
p577
I4
sasS'total_cqs'
p578
I4
ssI54
(dp579
S'iters'
p580
I1
sS'meta'
p581
(lp582
(dp583
S'objective'
p584
I0
sS'query_time'
p585
F0.012382030487060547
sS'comp_time'
p586
F0.001703500747680664
sS'exec_cq'
p587
I3
sS'total_cq'
p588
I3
sasS'total_cqs'
p589
I3
ssI55
(dp590
S'iters'
p591
I5
sS'meta'
p592
(lp593
(dp594
S'objective'
p595
I4421
sS'query_time'
p596
F2.8282480239868164
sS'comp_time'
p597
F0.6783230304718018
sS'exec_cq'
p598
I109
sS'total_cq'
p599
I109
sa(dp600
g595
I4470
sg596
F0.0011110305786132812
sg597
F0.0045948028564453125
sg598
I97
sg599
I97
sa(dp601
g595
I4469
sg596
F0.0004839897155761719
sg597
F0.0017328262329101562
sg598
I91
sg599
I91
sa(dp602
g595
I4384
sg596
F0.00043582916259765625
sg597
F0.00133514404296875
sg598
I87
sg599
I87
sa(dp603
g595
I4301
sg596
F0.00037097930908203125
sg597
F0.0009160041809082031
sg598
I85
sg599
I85
sasS'total_cqs'
p604
I109
ssI56
(dp605
S'iters'
p606
I4
sS'meta'
p607
(lp608
(dp609
S'objective'
p610
I1878
sS'query_time'
p611
F1.966763973236084
sS'comp_time'
p612
F0.2963218688964844
sS'exec_cq'
p613
I67
sS'total_cq'
p614
I76
sa(dp615
g610
I26
sg611
F0.007153987884521484
sg612
F0.07785820960998535
sg613
I16
sg614
I16
sa(dp616
g610
I9
sg611
F0.003036022186279297
sg612
F0.008376359939575195
sg613
I8
sg614
I8
sa(dp617
g610
I10
sg611
F0.00021982192993164062
sg612
F0.0005581378936767578
sg613
I2
sg614
I2
sasS'total_cqs'
p618
I76
ssI57
(dp619
S'iters'
p620
I5
sS'meta'
p621
(lp622
(dp623
S'objective'
p624
I232
sS'query_time'
p625
F26.71093201637268
sS'comp_time'
p626
F0.16600489616394043
sS'exec_cq'
p627
I45
sS'total_cq'
p628
I51
sa(dp629
g624
I151
sg625
F0.003583192825317383
sg626
F0.00702977180480957
sg627
I27
sg628
I33
sa(dp630
g624
I2
sg625
F0.003361940383911133
sg626
F0.057710886001586914
sg627
I13
sg628
I13
sa(dp631
g624
I4
sg625
F0.0019030570983886719
sg626
F0.0057489871978759766
sg627
I6
sg628
I6
sa(dp632
g624
I21
sg625
F0.001107931137084961
sg626
F0.0011692047119140625
sg627
I3
sg628
I3
sasS'total_cqs'
p633
I51
ssI58
(dp634
S'iters'
p635
I6
sS'meta'
p636
(lp637
(dp638
S'objective'
p639
I84115
sS'query_time'
p640
F328.2775020599365
sS'comp_time'
p641
F28.129005908966064
sS'exec_cq'
p642
I486
sS'total_cq'
p643
I486
sa(dp644
g639
I87582
sg640
F5.5604259967803955
sg641
F9.490270614624023
sg642
I414
sg643
I414
sa(dp645
g639
I59
sg640
F0.01656508445739746
sg641
F0.2266683578491211
sg642
I28
sg643
I28
sa(dp646
g639
I130
sg640
F0.005033969879150391
sg641
F0.0693964958190918
sg642
I11
sg643
I11
sa(dp647
g639
I136
sg640
F0.0011730194091796875
sg641
F0.0017971992492675781
sg642
I5
sg643
I5
sa(dp648
g639
I227
sg640
F0.0005209445953369141
sg641
F0.0006482601165771484
sg642
I3
sg643
I3
sasS'total_cqs'
p649
I486
ssI59
(dp650
S'iters'
p651
I2
sS'meta'
p652
(lp653
(dp654
S'objective'
p655
I2
sS'query_time'
p656
F0.07401514053344727
sS'comp_time'
p657
F0.02422356605529785
sS'exec_cq'
p658
I7
sS'total_cq'
p659
I7
sa(dp660
g655
I1
sg656
F0.0001800060272216797
sg657
F0.0003421306610107422
sg658
I2
sg659
I2
sasS'total_cqs'
p661
I7
ssI60
(dp662
S'iters'
p663
I1
sS'meta'
p664
(lp665
(dp666
S'objective'
p667
I5
sS'query_time'
p668
F0.01407313346862793
sS'comp_time'
p669
F0.0030689239501953125
sS'exec_cq'
p670
I3
sS'total_cq'
p671
I5
sasS'total_cqs'
p672
I5
ssI61
(dp673
S'iters'
p674
I0
sS'meta'
p675
(lp676
sS'total_cqs'
p677
I1
ssI62
(dp678
S'iters'
p679
I1
sS'meta'
p680
(lp681
(dp682
S'objective'
p683
I54
sS'query_time'
p684
F0.03459000587463379
sS'comp_time'
p685
F0.015589237213134766
sS'exec_cq'
p686
I12
sS'total_cq'
p687
I12
sasS'total_cqs'
p688
I12
ssI63
(dp689
S'iters'
p690
I0
sS'meta'
p691
(lp692
sS'total_cqs'
p693
I1
ssI64
(dp694
S'iters'
p695
I3
sS'meta'
p696
(lp697
(dp698
S'objective'
p699
I12
sS'query_time'
p700
F0.12770581245422363
sS'comp_time'
p701
F0.018905162811279297
sS'exec_cq'
p702
I12
sS'total_cq'
p703
I12
sa(dp704
g699
I1
sg700
F0.00019097328186035156
sg701
F0.0009288787841796875
sg702
I4
sg703
I4
sa(dp705
g699
I8
sg700
F6.103515625e-05
sg701
F0.00015115737915039062
sg702
I2
sg703
I2
sasS'total_cqs'
p706
I12
ssI65
(dp707
S'iters'
p708
I3
sS'meta'
p709
(lp710
(dp711
S'objective'
p712
I144
sS'query_time'
p713
F0.847722053527832
sS'comp_time'
p714
F0.1277909278869629
sS'exec_cq'
p715
I27
sS'total_cq'
p716
I27
sa(dp717
g712
I1
sg713
F0.0018770694732666016
sg714
F0.0033049583435058594
sg715
I7
sg716
I7
sa(dp718
g712
I4
sg713
F0.00021696090698242188
sg714
F0.0004711151123046875
sg715
I3
sg716
I3
sasS'total_cqs'
p719
I27
ssI66
(dp720
S'iters'
p721
I0
sS'meta'
p722
(lp723
sS'total_cqs'
p724
I1
ssI67
(dp725
S'iters'
p726
I2
sS'meta'
p727
(lp728
(dp729
S'objective'
p730
I528
sS'query_time'
p731
F1.1100280284881592
sS'comp_time'
p732
F0.10880780220031738
sS'exec_cq'
p733
I35
sS'total_cq'
p734
I35
sa(dp735
g730
I19
sg731
F0.0025658607482910156
sg732
F0.0026154518127441406
sg733
I2
sg734
I2
sasS'total_cqs'
p736
I35
ssI68
(dp737
S'iters'
p738
I0
sS'meta'
p739
(lp740
sS'total_cqs'
p741
I1
ssI69
(dp742
S'iters'
p743
I1
sS'meta'
p744
(lp745
(dp746
S'objective'
p747
I1224
sS'query_time'
p748
F0.22767400741577148
sS'comp_time'
p749
F0.21582889556884766
sS'exec_cq'
p750
I51
sS'total_cq'
p751
I51
sasS'total_cqs'
p752
I51
ssI70
(dp753
S'iters'
p754
I1
sS'meta'
p755
(lp756
(dp757
S'objective'
p758
I9
sS'query_time'
p759
F0.03395891189575195
sS'comp_time'
p760
F0.0033538341522216797
sS'exec_cq'
p761
I6
sS'total_cq'
p762
I6
sasS'total_cqs'
p763
I6
ssI71
(dp764
S'iters'
p765
I3
sS'meta'
p766
(lp767
(dp768
S'objective'
p769
I3239
sS'query_time'
p770
F0.3604278564453125
sS'comp_time'
p771
F0.43135952949523926
sS'exec_cq'
p772
I85
sS'total_cq'
p773
I85
sa(dp774
g769
I3035
sg770
F0.00029468536376953125
sg771
F0.00098419189453125
sg772
I82
sg773
I82
sa(dp775
g769
I36
sg770
F0.002084016799926758
sg771
F0.003170490264892578
sg772
I3
sg773
I3
sasS'total_cqs'
p776
I85
ssI72
(dp777
S'iters'
p778
I3
sS'meta'
p779
(lp780
(dp781
S'objective'
p782
I8
sS'query_time'
p783
F0.3185601234436035
sS'comp_time'
p784
F0.005011081695556641
sS'exec_cq'
p785
I8
sS'total_cq'
p786
I8
sa(dp787
g782
I0
sg783
F7.295608520507812e-05
sg784
F0.0001494884490966797
sg785
I4
sg786
I5
sa(dp788
g782
I5
sg783
F5.793571472167969e-05
sg784
F4.863739013671875e-05
sg785
I2
sg786
I3
sasS'total_cqs'
p789
I8
ssI73
(dp790
S'iters'
p791
I0
sS'meta'
p792
(lp793
sS'total_cqs'
p794
I1
ssI74
(dp795
S'iters'
p796
I0
sS'meta'
p797
(lp798
sS'total_cqs'
p799
I1
ssI75
(dp800
S'iters'
p801
I1
sS'meta'
p802
(lp803
(dp804
S'objective'
p805
I5
sS'query_time'
p806
F0.014511823654174805
sS'comp_time'
p807
F0.0023131370544433594
sS'exec_cq'
p808
I5
sS'total_cq'
p809
I5
sasS'total_cqs'
p810
I5
ssI76
(dp811
S'iters'
p812
I1
sS'meta'
p813
(lp814
(dp815
S'objective'
p816
I1
sS'query_time'
p817
F0.011721134185791016
sS'comp_time'
p818
F0.00154876708984375
sS'exec_cq'
p819
I2
sS'total_cq'
p820
I2
sasS'total_cqs'
p821
I2
ssI77
(dp822
S'iters'
p823
I0
sS'meta'
p824
(lp825
sS'total_cqs'
p826
I1
ssI78
(dp827
S'iters'
p828
I0
sS'meta'
p829
(lp830
sS'total_cqs'
p831
I1
ssI103
(dp832
S'iters'
p833
I1
sS'meta'
p834
(lp835
(dp836
S'objective'
p837
I54
sS'query_time'
p838
F0.07720017433166504
sS'comp_time'
p839
F0.016527652740478516
sS'exec_cq'
p840
I12
sS'total_cq'
p841
I12
sasS'total_cqs'
p842
I12
ssI104
(dp843
S'iters'
p844
I2
sS'meta'
p845
(lp846
(dp847
S'objective'
p848
I0
sS'query_time'
p849
F1.557837963104248
sS'comp_time'
p850
F0.02856135368347168
sS'exec_cq'
p851
I4
sS'total_cq'
p852
I4
sa(dp853
g848
I3
sg849
F0.014552116394042969
sg850
F0.16185903549194336
sg851
I2
sg852
I2
sasS'total_cqs'
p854
I4
ssI105
(dp855
S'iters'
p856
I0
sS'meta'
p857
(lp858
sS'total_cqs'
p859
I1
ssI106
(dp860
S'iters'
p861
I1
sS'meta'
p862
(lp863
(dp864
S'objective'
p865
I2
sS'query_time'
p866
F0.02112889289855957
sS'comp_time'
p867
F0.0018718242645263672
sS'exec_cq'
p868
I4
sS'total_cq'
p869
I4
sasS'total_cqs'
p870
I4
ssI107
(dp871
S'iters'
p872
I2
sS'meta'
p873
(lp874
(dp875
S'objective'
p876
I52
sS'query_time'
p877
F0.08212494850158691
sS'comp_time'
p878
F0.020888805389404297
sS'exec_cq'
p879
I16
sS'total_cq'
p880
I16
sa(dp881
g876
I10
sg877
F0.0039730072021484375
sg878
F0.00029730796813964844
sg879
I3
sg880
I3
sasS'total_cqs'
p882
I16
ssI108
(dp883
S'iters'
p884
I0
sS'meta'
p885
(lp886
sS'total_cqs'
p887
I1
ss.