(dp0
I1
(dp1
S'iters'
p2
I1
sS'meta'
p3
(lp4
(dp5
S'objective'
p6
I54
sS'query_time'
p7
F0.016364097595214844
sS'comp_time'
p8
F5.2928924560546875e-05
sS'exec_cq'
p9
I1
sS'total_cq'
p10
I12
sasS'total_cqs'
p11
I12
ssI2
(dp12
S'iters'
p13
I1
sS'meta'
p14
(lp15
(dp16
S'objective'
p17
I324
sS'query_time'
p18
F0.03619503974914551
sS'comp_time'
p19
F7.200241088867188e-05
sS'exec_cq'
p20
I1
sS'total_cq'
p21
I27
sasS'total_cqs'
p22
I27
ssI3
(dp23
S'iters'
p24
I1
sS'meta'
p25
(lp26
(dp27
S'objective'
p28
I860
sS'query_time'
p29
F0.014798879623413086
sS'comp_time'
p30
F0.000102996826171875
sS'exec_cq'
p31
I1
sS'total_cq'
p32
I43
sasS'total_cqs'
p33
I43
ssI4
(dp34
S'iters'
p35
I1
sS'meta'
p36
(lp37
(dp38
S'objective'
p39
I44
sS'query_time'
p40
F3.015683889389038
sS'comp_time'
p41
F0.0011730194091796875
sS'exec_cq'
p42
I1
sS'total_cq'
p43
I11
sasS'total_cqs'
p44
I11
ssI5
(dp45
S'iters'
p46
I2
sS'meta'
p47
(lp48
(dp49
S'objective'
p50
I8
sS'query_time'
p51
F0.3372509479522705
sS'comp_time'
p52
F5.698204040527344e-05
sS'exec_cq'
p53
I1
sS'total_cq'
p54
I8
sa(dp55
g50
I2
sg51
F0.008262157440185547
sg52
F2.7894973754882812e-05
sg53
I1
sg54
I4
sasS'total_cqs'
p56
I8
ssI6
(dp57
S'iters'
p58
I3
sS'meta'
p59
(lp60
(dp61
S'objective'
p62
I87
sS'query_time'
p63
F0.6210429668426514
sS'comp_time'
p64
F7.009506225585938e-05
sS'exec_cq'
p65
I1
sS'total_cq'
p66
I18
sa(dp67
g62
I20
sg63
F0.011378049850463867
sg64
F3.2901763916015625e-05
sg65
I1
sg66
I4
sa(dp68
g62
I5
sg63
F0.010477066040039062
sg64
F3.695487976074219e-05
sg65
I1
sg66
I2
sasS'total_cqs'
p69
I18
ssI7
(dp70
S'iters'
p71
I1
sS'meta'
p72
(lp73
(dp74
S'objective'
p75
I27
sS'query_time'
p76
F0.24810099601745605
sS'comp_time'
p77
F7.104873657226562e-05
sS'exec_cq'
p78
I1
sS'total_cq'
p79
I9
sasS'total_cqs'
p80
I9
ssI8
(dp81
S'iters'
p82
I2
sS'meta'
p83
(lp84
(dp85
S'objective'
p86
I320
sS'query_time'
p87
F0.028967857360839844
sS'comp_time'
p88
F9.703636169433594e-05
sS'exec_cq'
p89
I1
sS'total_cq'
p90
I27
sa(dp91
g86
I25
sg87
F0.011759042739868164
sg88
F6.079673767089844e-05
sg89
I2
sg90
I2
sasS'total_cqs'
p92
I27
ssI9
(dp93
S'iters'
p94
I3
sS'meta'
p95
(lp96
(dp97
S'objective'
p98
I12
sS'query_time'
p99
F0.01672506332397461
sS'comp_time'
p100
F8.296966552734375e-05
sS'exec_cq'
p101
I1
sS'total_cq'
p102
I7
sa(dp103
g98
I4
sg99
F0.022265911102294922
sg100
F5.316734313964844e-05
sg101
I2
sg102
I5
sa(dp104
g98
I6
sg99
F0.004316091537475586
sg100
F5.698204040527344e-05
sg101
I2
sg102
I2
sasS'total_cqs'
p105
I7
ssI10
(dp106
S'iters'
p107
I5
sS'meta'
p108
(lp109
(dp110
S'objective'
p111
I714
sS'query_time'
p112
F0.04352712631225586
sS'comp_time'
p113
F7.605552673339844e-05
sS'exec_cq'
p114
I1
sS'total_cq'
p115
I51
sa(dp116
g111
I48
sg112
F0.05303692817687988
sg113
F7.891654968261719e-05
sg114
I2
sg115
I12
sa(dp117
g111
I19
sg112
F0.024775028228759766
sg113
F5.91278076171875e-05
sg114
I2
sg115
I8
sa(dp118
g111
I38
sg112
F0.011088132858276367
sg113
F5.1021575927734375e-05
sg114
I2
sg115
I4
sa(dp119
g111
I34
sg112
F0.004764080047607422
sg113
F3.695487976074219e-05
sg114
I2
sg115
I3
sasS'total_cqs'
p120
I51
ssI11
(dp121
S'iters'
p122
I4
sS'meta'
p123
(lp124
(dp125
S'objective'
p126
I1422
sS'query_time'
p127
F0.10716915130615234
sS'comp_time'
p128
F6.198883056640625e-05
sS'exec_cq'
p129
I1
sS'total_cq'
p130
I63
sa(dp131
g126
I173
sg127
F0.05985903739929199
sg128
F4.506111145019531e-05
sg129
I2
sg130
I9
sa(dp132
g126
I143
sg127
F0.05782508850097656
sg128
F6.580352783203125e-05
sg129
I2
sg130
I7
sa(dp133
g126
I63
sg127
F0.017310142517089844
sg128
F3.4809112548828125e-05
sg129
I2
sg130
I6
sasS'total_cqs'
p134
I63
ssI12
(dp135
S'iters'
p136
I4
sS'meta'
p137
(lp138
(dp139
S'objective'
p140
I719
sS'query_time'
p141
F0.0700380802154541
sS'comp_time'
p142
F5.3882598876953125e-05
sS'exec_cq'
p143
I1
sS'total_cq'
p144
I50
sa(dp145
g140
I180
sg141
F0.06519293785095215
sg142
F5.221366882324219e-05
sg143
I2
sg144
I8
sa(dp146
g140
I105
sg141
F0.04845404624938965
sg142
F3.910064697265625e-05
sg143
I2
sg144
I7
sa(dp147
g140
I67
sg141
F0.019711017608642578
sg142
F4.601478576660156e-05
sg143
I2
sg144
I5
sasS'total_cqs'
p148
I50
ssI13
(dp149
S'iters'
p150
I3
sS'meta'
p151
(lp152
(dp153
S'objective'
p154
I28
sS'query_time'
p155
F0.03108811378479004
sS'comp_time'
p156
F6.508827209472656e-05
sS'exec_cq'
p157
I1
sS'total_cq'
p158
I20
sa(dp159
g154
I17
sg155
F0.05081605911254883
sg156
F6.604194641113281e-05
sg157
I2
sg158
I11
sa(dp160
g154
I11
sg155
F0.010554790496826172
sg156
F4.696846008300781e-05
sg157
I2
sg158
I5
sasS'total_cqs'
p161
I20
ssI14
(dp162
S'iters'
p163
I1
sS'meta'
p164
(lp165
(dp166
S'objective'
p167
I27
sS'query_time'
p168
F0.3913569450378418
sS'comp_time'
p169
F7.295608520507812e-05
sS'exec_cq'
p170
I1
sS'total_cq'
p171
I9
sasS'total_cqs'
p172
I9
ssI15
(dp173
S'iters'
p174
I1
sS'meta'
p175
(lp176
(dp177
S'objective'
p178
I44
sS'query_time'
p179
F0.04895591735839844
sS'comp_time'
p180
F6.985664367675781e-05
sS'exec_cq'
p181
I1
sS'total_cq'
p182
I11
sasS'total_cqs'
p183
I11
ssI16
(dp184
S'iters'
p185
I1
sS'meta'
p186
(lp187
(dp188
S'objective'
p189
I20
sS'query_time'
p190
F0.010307788848876953
sS'comp_time'
p191
F4.696846008300781e-05
sS'exec_cq'
p192
I1
sS'total_cq'
p193
I8
sasS'total_cqs'
p194
I8
ssI17
(dp195
S'iters'
p196
I2
sS'meta'
p197
(lp198
(dp199
S'objective'
p200
I20
sS'query_time'
p201
F0.05382394790649414
sS'comp_time'
p202
F6.794929504394531e-05
sS'exec_cq'
p203
I1
sS'total_cq'
p204
I11
sa(dp205
g200
I1
sg201
F0.0026540756225585938
sg202
F3.504753112792969e-05
sg203
I1
sg204
I3
sasS'total_cqs'
p206
I11
ssI18
(dp207
S'iters'
p208
I1
sS'meta'
p209
(lp210
(dp211
S'objective'
p212
I44
sS'query_time'
p213
F0.019220829010009766
sS'comp_time'
p214
F7.390975952148438e-05
sS'exec_cq'
p215
I1
sS'total_cq'
p216
I11
sasS'total_cqs'
p217
I11
ssI19
(dp218
S'iters'
p219
I0
sS'meta'
p220
(lp221
sS'total_cqs'
p222
I1
ssI20
(dp223
S'iters'
p224
I0
sS'meta'
p225
(lp226
sS'total_cqs'
p227
I1
ssI21
(dp228
S'iters'
p229
I0
sS'meta'
p230
(lp231
sS'total_cqs'
p232
I1
ssI22
(dp233
S'iters'
p234
I1
sS'meta'
p235
(lp236
(dp237
S'objective'
p238
I135
sS'query_time'
p239
F0.02022099494934082
sS'comp_time'
p240
F5.698204040527344e-05
sS'exec_cq'
p241
I1
sS'total_cq'
p242
I18
sasS'total_cqs'
p243
I18
ssI23
(dp244
S'iters'
p245
I1
sS'meta'
p246
(lp247
(dp248
S'objective'
p249
I104
sS'query_time'
p250
F0.014503955841064453
sS'comp_time'
p251
F4.792213439941406e-05
sS'exec_cq'
p252
I1
sS'total_cq'
p253
I16
sasS'total_cqs'
p254
I16
ssI24
(dp255
S'iters'
p256
I0
sS'meta'
p257
(lp258
sS'total_cqs'
p259
I1
ssI25
(dp260
S'iters'
p261
I0
sS'meta'
p262
(lp263
sS'total_cqs'
p264
I1
ssI26
(dp265
S'iters'
p266
I1
sS'meta'
p267
(lp268
(dp269
S'objective'
p270
I819
sS'query_time'
p271
F0.045117855072021484
sS'comp_time'
p272
F5.698204040527344e-05
sS'exec_cq'
p273
I1
sS'total_cq'
p274
I42
sasS'total_cqs'
p275
I42
ssI27
(dp276
S'iters'
p277
I2
sS'meta'
p278
(lp279
(dp280
S'objective'
p281
I377
sS'query_time'
p282
F2.758913040161133
sS'comp_time'
p283
F0.0003008842468261719
sS'exec_cq'
p284
I1
sS'total_cq'
p285
I30
sa(dp286
g281
I16
sg282
F1184.3477640151978
sg283
F7.510185241699219e-05
sg284
I2
sg285
I2
sasS'total_cqs'
p287
I30
ssI28
(dp288
S'iters'
p289
I0
sS'meta'
p290
(lp291
sS'total_cqs'
p292
I1
ssI29
(dp293
S'iters'
p294
I2
sS'meta'
p295
(lp296
(dp297
S'objective'
p298
I1083
sS'query_time'
p299
F0.4994339942932129
sS'comp_time'
p300
F8.487701416015625e-05
sS'exec_cq'
p301
I1
sS'total_cq'
p302
I49
sa(dp303
g298
I27
sg299
F0.029551982879638672
sg300
F2.6941299438476562e-05
sg301
I1
sg302
I2
sasS'total_cqs'
p304
I49
ssI30
(dp305
S'iters'
p306
I1
sS'meta'
p307
(lp308
(dp309
S'objective'
p310
I1
sS'query_time'
p311
F0.6053450107574463
sS'comp_time'
p312
F6.985664367675781e-05
sS'exec_cq'
p313
I1
sS'total_cq'
p314
I2
sasS'total_cqs'
p315
I2
ssI31
(dp316
S'iters'
p317
I0
sS'meta'
p318
(lp319
sS'total_cqs'
p320
I1
ssI32
(dp321
S'iters'
p322
I1
sS'meta'
p323
(lp324
(dp325
S'objective'
p326
I1
sS'query_time'
p327
F0.012172937393188477
sS'comp_time'
p328
F5.888938903808594e-05
sS'exec_cq'
p329
I1
sS'total_cq'
p330
I2
sasS'total_cqs'
p331
I2
ssI33
(dp332
S'iters'
p333
I1
sS'meta'
p334
(lp335
(dp336
S'objective'
p337
I5150
sS'query_time'
p338
F0.6287219524383545
sS'comp_time'
p339
F0.00011682510375976562
sS'exec_cq'
p340
I1
sS'total_cq'
p341
I103
sasS'total_cqs'
p342
I103
ssI34
(dp343
S'iters'
p344
I1
sS'meta'
p345
(lp346
(dp347
S'objective'
p348
I1
sS'query_time'
p349
F0.014727115631103516
sS'comp_time'
p350
F0.00026297569274902344
sS'exec_cq'
p351
I1
sS'total_cq'
p352
I2
sasS'total_cqs'
p353
I2
ssI35
(dp354
S'iters'
p355
I2
sS'meta'
p356
(lp357
(dp358
S'objective'
p359
I2091
sS'query_time'
p360
F0.4191129207611084
sS'comp_time'
p361
F8.797645568847656e-05
sS'exec_cq'
p362
I1
sS'total_cq'
p363
I70
sa(dp364
g359
I57
sg360
F0.017920970916748047
sg361
F4.220008850097656e-05
sg362
I1
sg363
I3
sasS'total_cqs'
p365
I70
ssI36
(dp366
S'iters'
p367
I1
sS'meta'
p368
(lp369
(dp370
S'objective'
p371
I495
sS'query_time'
p372
F0.1001288890838623
sS'comp_time'
p373
F9.012222290039062e-05
sS'exec_cq'
p374
I1
sS'total_cq'
p375
I33
sasS'total_cqs'
p376
I33
ssI37
(dp377
S'iters'
p378
I1
sS'meta'
p379
(lp380
(dp381
S'objective'
p382
I1
sS'query_time'
p383
F0.007301807403564453
sS'comp_time'
p384
F5.0067901611328125e-05
sS'exec_cq'
p385
I1
sS'total_cq'
p386
I2
sasS'total_cqs'
p387
I2
ssI38
(dp388
S'iters'
p389
I2
sS'meta'
p390
(lp391
(dp392
S'objective'
p393
I0
sS'query_time'
p394
F0.01572418212890625
sS'comp_time'
p395
F6.29425048828125e-05
sS'exec_cq'
p396
I1
sS'total_cq'
p397
I4
sa(dp398
g393
I3
sg394
F0.0012960433959960938
sg395
F3.504753112792969e-05
sg396
I1
sg397
I2
sasS'total_cqs'
p399
I4
ssI39
(dp400
S'iters'
p401
I1
sS'meta'
p402
(lp403
(dp404
S'objective'
p405
I902
sS'query_time'
p406
F0.07196497917175293
sS'comp_time'
p407
F9.703636169433594e-05
sS'exec_cq'
p408
I1
sS'total_cq'
p409
I44
sasS'total_cqs'
p410
I44
ssI40
(dp411
S'iters'
p412
I1
sS'meta'
p413
(lp414
(dp415
S'objective'
p416
I14
sS'query_time'
p417
F0.012970924377441406
sS'comp_time'
p418
F5.1021575927734375e-05
sS'exec_cq'
p419
I1
sS'total_cq'
p420
I7
sasS'total_cqs'
p421
I7
ssI41
(dp422
S'iters'
p423
I1
sS'meta'
p424
(lp425
(dp426
S'objective'
p427
I54
sS'query_time'
p428
F0.018726825714111328
sS'comp_time'
p429
F5.1021575927734375e-05
sS'exec_cq'
p430
I1
sS'total_cq'
p431
I12
sasS'total_cqs'
p432
I12
ssI42
(dp433
S'iters'
p434
I1
sS'meta'
p435
(lp436
(dp437
S'objective'
p438
I779
sS'query_time'
p439
F0.027564048767089844
sS'comp_time'
p440
F5.602836608886719e-05
sS'exec_cq'
p441
I1
sS'total_cq'
p442
I41
sasS'total_cqs'
p443
I41
ssI43
(dp444
S'iters'
p445
I1
sS'meta'
p446
(lp447
(dp448
S'objective'
p449
I14
sS'query_time'
p450
F0.01289510726928711
sS'comp_time'
p451
F5.316734313964844e-05
sS'exec_cq'
p452
I1
sS'total_cq'
p453
I7
sasS'total_cqs'
p454
I7
ssI44
(dp455
S'iters'
p456
I2
sS'meta'
p457
(lp458
(dp459
S'objective'
p460
I1028
sS'query_time'
p461
F0.04457402229309082
sS'comp_time'
p462
F7.605552673339844e-05
sS'exec_cq'
p463
I1
sS'total_cq'
p464
I47
sa(dp465
g460
I44
sg461
F0.029690027236938477
sg462
F4.696846008300781e-05
sg463
I2
sg464
I2
sasS'total_cqs'
p466
I47
ssI45
(dp467
S'iters'
p468
I0
sS'meta'
p469
(lp470
sS'total_cqs'
p471
I1
ssI46
(dp472
S'iters'
p473
I1
sS'meta'
p474
(lp475
(dp476
S'objective'
p477
I9
sS'query_time'
p478
F0.005714893341064453
sS'comp_time'
p479
F4.38690185546875e-05
sS'exec_cq'
p480
I1
sS'total_cq'
p481
I6
sasS'total_cqs'
p482
I6
ssI47
(dp483
S'iters'
p484
I1
sS'meta'
p485
(lp486
(dp487
S'objective'
p488
I1
sS'query_time'
p489
F0.007649898529052734
sS'comp_time'
p490
F5.221366882324219e-05
sS'exec_cq'
p491
I1
sS'total_cq'
p492
I2
sasS'total_cqs'
p493
I2
ssI48
(dp494
S'iters'
p495
I0
sS'meta'
p496
(lp497
sS'total_cqs'
p498
I1
ssI49
(dp499
S'iters'
p500
I0
sS'meta'
p501
(lp502
sS'total_cqs'
p503
I1
ssI50
(dp504
S'iters'
p505
I1
sS'meta'
p506
(lp507
(dp508
S'objective'
p509
I5
sS'query_time'
p510
F0.005606889724731445
sS'comp_time'
p511
F5.1021575927734375e-05
sS'exec_cq'
p512
I1
sS'total_cq'
p513
I5
sasS'total_cqs'
p514
I5
ssI51
(dp515
S'iters'
p516
I1
sS'meta'
p517
(lp518
(dp519
S'objective'
p520
I1
sS'query_time'
p521
F0.0056438446044921875
sS'comp_time'
p522
F4.601478576660156e-05
sS'exec_cq'
p523
I1
sS'total_cq'
p524
I2
sasS'total_cqs'
p525
I2
ssI52
(dp526
S'iters'
p527
I1
sS'meta'
p528
(lp529
(dp530
S'objective'
p531
I1
sS'query_time'
p532
F0.0057830810546875
sS'comp_time'
p533
F4.9114227294921875e-05
sS'exec_cq'
p534
I1
sS'total_cq'
p535
I2
sasS'total_cqs'
p536
I2
ssI53
(dp537
S'iters'
p538
I1
sS'meta'
p539
(lp540
(dp541
S'objective'
p542
I2
sS'query_time'
p543
F0.011137962341308594
sS'comp_time'
p544
F6.198883056640625e-05
sS'exec_cq'
p545
I1
sS'total_cq'
p546
I4
sasS'total_cqs'
p547
I4
ssI54
(dp548
S'iters'
p549
I1
sS'meta'
p550
(lp551
(dp552
S'objective'
p553
I0
sS'query_time'
p554
F0.00793600082397461
sS'comp_time'
p555
F5.1975250244140625e-05
sS'exec_cq'
p556
I1
sS'total_cq'
p557
I3
sasS'total_cqs'
p558
I3
ssI55
(dp559
S'iters'
p560
I2
sS'meta'
p561
(lp562
(dp563
S'objective'
p564
I5647
sS'query_time'
p565
F0.18731117248535156
sS'comp_time'
p566
F0.00013780593872070312
sS'exec_cq'
p567
I1
sS'total_cq'
p568
I109
sa(dp569
g564
I44
sg565
F0.011790037155151367
sg566
F3.910064697265625e-05
sg567
I1
sg568
I2
sasS'total_cqs'
p570
I109
ssI56
(dp571
S'iters'
p572
I2
sS'meta'
p573
(lp574
(dp575
S'objective'
p576
I2496
sS'query_time'
p577
F0.24956607818603516
sS'comp_time'
p578
F9.584426879882812e-05
sS'exec_cq'
p579
I1
sS'total_cq'
p580
I76
sa(dp581
g576
I63
sg577
F0.01605391502380371
sg578
F3.504753112792969e-05
sg579
I1
sg580
I6
sasS'total_cqs'
p582
I76
ssI57
(dp583
S'iters'
p584
I2
sS'meta'
p585
(lp586
(dp587
S'objective'
p588
I1150
sS'query_time'
p589
F0.4010930061340332
sS'comp_time'
p590
F9.012222290039062e-05
sS'exec_cq'
p591
I1
sS'total_cq'
p592
I51
sa(dp593
g588
I14
sg589
F0.16850805282592773
sg590
F2.8133392333984375e-05
sg591
I1
sg592
I4
sasS'total_cqs'
p594
I51
ssI58
(dp595
S'iters'
p596
I1
sS'meta'
p597
(lp598
(dp599
S'objective'
p600
I117369
sS'query_time'
p601
F2.1253769397735596
sS'comp_time'
p602
F0.0005609989166259766
sS'exec_cq'
p603
I1
sS'total_cq'
p604
I486
sasS'total_cqs'
p605
I486
ssI59
(dp606
S'iters'
p607
I2
sS'meta'
p608
(lp609
(dp610
S'objective'
p611
I2
sS'query_time'
p612
F0.019526004791259766
sS'comp_time'
p613
F6.103515625e-05
sS'exec_cq'
p614
I1
sS'total_cq'
p615
I7
sa(dp616
g611
I1
sg612
F0.04610013961791992
sg613
F7.295608520507812e-05
sg614
I2
sg615
I2
sasS'total_cqs'
p617
I7
ssI60
(dp618
S'iters'
p619
I1
sS'meta'
p620
(lp621
(dp622
S'objective'
p623
I5
sS'query_time'
p624
F0.006000041961669922
sS'comp_time'
p625
F4.506111145019531e-05
sS'exec_cq'
p626
I1
sS'total_cq'
p627
I5
sasS'total_cqs'
p628
I5
ssI61
(dp629
S'iters'
p630
I0
sS'meta'
p631
(lp632
sS'total_cqs'
p633
I1
ssI62
(dp634
S'iters'
p635
I1
sS'meta'
p636
(lp637
(dp638
S'objective'
p639
I54
sS'query_time'
p640
F0.013400077819824219
sS'comp_time'
p641
F5.412101745605469e-05
sS'exec_cq'
p642
I1
sS'total_cq'
p643
I12
sasS'total_cqs'
p644
I12
ssI63
(dp645
S'iters'
p646
I0
sS'meta'
p647
(lp648
sS'total_cqs'
p649
I1
ssI64
(dp650
S'iters'
p651
I3
sS'meta'
p652
(lp653
(dp654
S'objective'
p655
I40
sS'query_time'
p656
F0.03560495376586914
sS'comp_time'
p657
F5.602836608886719e-05
sS'exec_cq'
p658
I1
sS'total_cq'
p659
I12
sa(dp660
g655
I13
sg656
F0.0049970149993896484
sg657
F3.2901763916015625e-05
sg658
I1
sg659
I3
sa(dp661
g655
I8
sg656
F0.006788969039916992
sg657
F4.100799560546875e-05
sg658
I1
sg659
I2
sasS'total_cqs'
p662
I12
ssI65
(dp663
S'iters'
p664
I2
sS'meta'
p665
(lp666
(dp667
S'objective'
p668
I292
sS'query_time'
p669
F0.029397964477539062
sS'comp_time'
p670
F5.888938903808594e-05
sS'exec_cq'
p671
I1
sS'total_cq'
p672
I27
sa(dp673
g668
I11
sg669
F0.002040863037109375
sg670
F4.100799560546875e-05
sg671
I1
sg672
I2
sasS'total_cqs'
p674
I27
ssI66
(dp675
S'iters'
p676
I0
sS'meta'
p677
(lp678
sS'total_cqs'
p679
I1
ssI67
(dp680
S'iters'
p681
I1
sS'meta'
p682
(lp683
(dp684
S'objective'
p685
I560
sS'query_time'
p686
F0.5762648582458496
sS'comp_time'
p687
F8.988380432128906e-05
sS'exec_cq'
p688
I1
sS'total_cq'
p689
I35
sasS'total_cqs'
p690
I35
ssI68
(dp691
S'iters'
p692
I0
sS'meta'
p693
(lp694
sS'total_cqs'
p695
I1
ssI69
(dp696
S'iters'
p697
I1
sS'meta'
p698
(lp699
(dp700
S'objective'
p701
I1224
sS'query_time'
p702
F0.08299899101257324
sS'comp_time'
p703
F8.606910705566406e-05
sS'exec_cq'
p704
I1
sS'total_cq'
p705
I51
sasS'total_cqs'
p706
I51
ssI70
(dp707
S'iters'
p708
I1
sS'meta'
p709
(lp710
(dp711
S'objective'
p712
I9
sS'query_time'
p713
F0.009392976760864258
sS'comp_time'
p714
F5.2928924560546875e-05
sS'exec_cq'
p715
I1
sS'total_cq'
p716
I6
sasS'total_cqs'
p717
I6
ssI71
(dp718
S'iters'
p719
I1
sS'meta'
p720
(lp721
(dp722
S'objective'
p723
I3485
sS'query_time'
p724
F0.07808279991149902
sS'comp_time'
p725
F8.0108642578125e-05
sS'exec_cq'
p726
I1
sS'total_cq'
p727
I85
sasS'total_cqs'
p728
I85
ssI72
(dp729
S'iters'
p730
I1
sS'meta'
p731
(lp732
(dp733
S'objective'
p734
I20
sS'query_time'
p735
F0.008511066436767578
sS'comp_time'
p736
F5.0067901611328125e-05
sS'exec_cq'
p737
I1
sS'total_cq'
p738
I8
sasS'total_cqs'
p739
I8
ssI73
(dp740
S'iters'
p741
I0
sS'meta'
p742
(lp743
sS'total_cqs'
p744
I1
ssI74
(dp745
S'iters'
p746
I0
sS'meta'
p747
(lp748
sS'total_cqs'
p749
I1
ssI75
(dp750
S'iters'
p751
I1
sS'meta'
p752
(lp753
(dp754
S'objective'
p755
I5
sS'query_time'
p756
F0.0047380924224853516
sS'comp_time'
p757
F4.506111145019531e-05
sS'exec_cq'
p758
I1
sS'total_cq'
p759
I5
sasS'total_cqs'
p760
I5
ssI76
(dp761
S'iters'
p762
I1
sS'meta'
p763
(lp764
(dp765
S'objective'
p766
I1
sS'query_time'
p767
F0.008186101913452148
sS'comp_time'
p768
F4.792213439941406e-05
sS'exec_cq'
p769
I1
sS'total_cq'
p770
I2
sasS'total_cqs'
p771
I2
ssI77
(dp772
S'iters'
p773
I0
sS'meta'
p774
(lp775
sS'total_cqs'
p776
I1
ssI78
(dp777
S'iters'
p778
I0
sS'meta'
p779
(lp780
sS'total_cqs'
p781
I1
ssI103
(dp782
S'iters'
p783
I1
sS'meta'
p784
(lp785
(dp786
S'objective'
p787
I54
sS'query_time'
p788
F0.026623964309692383
sS'comp_time'
p789
F6.198883056640625e-05
sS'exec_cq'
p790
I1
sS'total_cq'
p791
I12
sasS'total_cqs'
p792
I12
ssI104
(dp793
S'iters'
p794
I2
sS'meta'
p795
(lp796
(dp797
S'objective'
p798
I4
sS'query_time'
p799
F1.1741740703582764
sS'comp_time'
p800
F6.699562072753906e-05
sS'exec_cq'
p801
I1
sS'total_cq'
p802
I4
sa(dp803
g798
I1
sg799
F0.011918067932128906
sg800
F4.601478576660156e-05
sg801
I1
sg802
I3
sasS'total_cqs'
p804
I4
ssI105
(dp805
S'iters'
p806
I0
sS'meta'
p807
(lp808
sS'total_cqs'
p809
I1
ssI106
(dp810
S'iters'
p811
I1
sS'meta'
p812
(lp813
(dp814
S'objective'
p815
I2
sS'query_time'
p816
F0.011016130447387695
sS'comp_time'
p817
F4.1961669921875e-05
sS'exec_cq'
p818
I1
sS'total_cq'
p819
I4
sasS'total_cqs'
p820
I4
ssI107
(dp821
S'iters'
p822
I1
sS'meta'
p823
(lp824
(dp825
S'objective'
p826
I104
sS'query_time'
p827
F0.05106210708618164
sS'comp_time'
p828
F5.4836273193359375e-05
sS'exec_cq'
p829
I1
sS'total_cq'
p830
I16
sasS'total_cqs'
p831
I16
ssI108
(dp832
S'iters'
p833
I0
sS'meta'
p834
(lp835
sS'total_cqs'
p836
I1
ss.