(dp0
I1
(dp1
S'iters'
p2
I4
sS'meta'
p3
(lp4
(dp5
S'objective'
p6
I56
sS'query_time'
p7
F0.0489649772644043
sS'comp_time'
p8
F0.022204160690307617
sS'exec_cq'
p9
I12
sS'total_cq'
p10
I12
sa(dp11
g6
I47
sg7
F0.00034809112548828125
sg8
F0.0005030632019042969
sg9
I10
sg10
I10
sa(dp12
g6
I43
sg7
F4.482269287109375e-05
sg8
F0.00012493133544921875
sg9
I9
sg10
I9
sa(dp13
g6
I42
sg7
F3.695487976074219e-05
sg8
F8.177757263183594e-05
sg9
I8
sg10
I8
sasS'total_cqs'
p14
I12
ssI2
(dp15
S'iters'
p16
I5
sS'meta'
p17
(lp18
(dp19
S'objective'
p20
I248
sS'query_time'
p21
F0.16399288177490234
sS'comp_time'
p22
F0.030726909637451172
sS'exec_cq'
p23
I27
sS'total_cq'
p24
I27
sa(dp25
g20
I241
sg21
F0.0002288818359375
sg22
F0.0010216236114501953
sg23
I24
sg24
I24
sa(dp26
g20
I213
sg21
F0.00013709068298339844
sg22
F0.0005462169647216797
sg23
I21
sg24
I21
sa(dp27
g20
I203
sg21
F0.00011181831359863281
sg22
F0.00045299530029296875
sg23
I19
sg24
I19
sa(dp28
g20
I208
sg21
F9.894371032714844e-05
sg22
F0.00030517578125
sg23
I17
sg24
I17
sasS'total_cqs'
p29
I27
ssI3
(dp30
S'iters'
p31
I4
sS'meta'
p32
(lp33
(dp34
S'objective'
p35
I560
sS'query_time'
p36
F226.90554213523865
sS'comp_time'
p37
F2.085505723953247
sS'exec_cq'
p38
I39
sS'total_cq'
p39
I43
sa(dp40
g35
I443
sg36
F0.0894310474395752
sg37
F0.2522890567779541
sg38
I25
sg39
I36
sa(dp41
g35
I490
sg36
F12.53536057472229
sg37
F0.48652005195617676
sg38
I28
sg39
I28
sa(dp42
g35
I520
sg36
F0.012053251266479492
sg37
F0.0001728534698486328
sg38
I25
sg39
I25
sasS'total_cqs'
p43
I43
ssI4
(dp44
S'iters'
p45
I2
sS'meta'
p46
(lp47
(dp48
S'objective'
p49
I40
sS'query_time'
p50
F4.831249952316284
sS'comp_time'
p51
F0.3409109115600586
sS'exec_cq'
p52
I11
sS'total_cq'
p53
I11
sa(dp54
g49
I5
sg50
F0.17299795150756836
sg51
F0.2572660446166992
sg52
I2
sg53
I2
sasS'total_cqs'
p55
I11
ssI5
(dp56
S'iters'
p57
I4
sS'meta'
p58
(lp59
(dp60
S'objective'
p61
I0
sS'query_time'
p62
F31.866987943649292
sS'comp_time'
p63
F2.8489418029785156
sS'exec_cq'
p64
I8
sS'total_cq'
p65
I8
sa(dp66
g61
I0
sg62
F0.09871196746826172
sg63
F0.5555641651153564
sg64
I5
sg65
I5
sa(dp67
g61
I1
sg62
F0.2023169994354248
sg63
F0.5139436721801758
sg64
I3
sg65
I3
sa(dp68
g61
I1
sg62
F0.009076833724975586
sg63
F0.014569997787475586
sg64
I2
sg65
I2
sasS'total_cqs'
p69
I8
ssI6
(dp70
S'iters'
p71
I4
sS'meta'
p72
(lp73
(dp74
S'objective'
p75
I49
sS'query_time'
p76
F34.46375513076782
sS'comp_time'
p77
F1.6440510749816895
sS'exec_cq'
p78
I18
sS'total_cq'
p79
I18
sa(dp80
g75
I1
sg76
F1.2397520542144775
sg77
F20.838926076889038
sg78
I7
sg79
I7
sa(dp81
g75
I3
sg76
F0.1256411075592041
sg77
F0.7437760829925537
sg78
I3
sg79
I3
sa(dp82
g75
I2
sg76
F0.11903595924377441
sg77
F0.01768326759338379
sg78
I2
sg79
I2
sasS'total_cqs'
p83
I18
ssI7
(dp84
S'iters'
p85
I4
sS'meta'
p86
(lp87
(dp88
S'objective'
p89
I1
sS'query_time'
p90
F12.669642925262451
sS'comp_time'
p91
F1.216024398803711
sS'exec_cq'
p92
I9
sS'total_cq'
p93
I9
sa(dp94
g89
I0
sg90
F0.11834883689880371
sg91
F0.5372400283813477
sg92
I6
sg93
I6
sa(dp95
g89
I1
sg90
F0.20360803604125977
sg91
F0.32873034477233887
sg92
I3
sg93
I3
sa(dp96
g89
I2
sg90
F0.02975296974182129
sg91
F0.21427392959594727
sg92
I2
sg93
I2
sasS'total_cqs'
p97
I9
ssI8
(dp98
S'iters'
p99
I4
sS'meta'
p100
(lp101
(dp102
S'objective'
p103
I236
sS'query_time'
p104
F0.13367676734924316
sS'comp_time'
p105
F0.03408527374267578
sS'exec_cq'
p106
I27
sS'total_cq'
p107
I27
sa(dp108
g103
I207
sg104
F0.0001628398895263672
sg105
F0.0005834102630615234
sg106
I22
sg107
I22
sa(dp109
g103
I231
sg104
F8.678436279296875e-05
sg105
F0.0002040863037109375
sg106
I19
sg107
I19
sa(dp110
g103
I228
sg104
F0.00010585784912109375
sg105
F0.0002200603485107422
sg106
I18
sg107
I18
sasS'total_cqs'
p111
I27
ssI9
(dp112
S'iters'
p113
I3
sS'meta'
p114
(lp115
(dp116
S'objective'
p117
I4
sS'query_time'
p118
F0.04011797904968262
sS'comp_time'
p119
F0.00415492057800293
sS'exec_cq'
p120
I7
sS'total_cq'
p121
I7
sa(dp122
g117
I0
sg118
F2.8848648071289062e-05
sg119
F0.00021719932556152344
sg120
I4
sg121
I4
sa(dp123
g117
I2
sg118
F1.3113021850585938e-05
sg119
F5.7697296142578125e-05
sg120
I2
sg121
I2
sasS'total_cqs'
p124
I7
ssI10
(dp125
S'iters'
p126
I5
sS'meta'
p127
(lp128
(dp129
S'objective'
p130
I478
sS'query_time'
p131
F0.39935898780822754
sS'comp_time'
p132
F0.09203696250915527
sS'exec_cq'
p133
I51
sS'total_cq'
p134
I51
sa(dp135
g130
I288
sg131
F0.00031495094299316406
sg132
F0.0028684139251708984
sg133
I23
sg134
I37
sa(dp136
g130
I435
sg131
F0.0002148151397705078
sg132
F0.0010173320770263672
sg133
I25
sg134
I25
sa(dp137
g130
I48
sg131
F0.0012221336364746094
sg132
F0.00043892860412597656
sg133
I3
sg134
I3
sa(dp138
g130
I36
sg131
F1.7881393432617188e-05
sg132
F9.083747863769531e-05
sg133
I2
sg134
I2
sasS'total_cqs'
p139
I51
ssI11
(dp140
S'iters'
p141
I6
sS'meta'
p142
(lp143
(dp144
S'objective'
p145
I852
sS'query_time'
p146
F0.6517510414123535
sS'comp_time'
p147
F0.2000720500946045
sS'exec_cq'
p148
I63
sS'total_cq'
p149
I63
sa(dp150
g145
I934
sg146
F0.0011990070343017578
sg147
F0.005321979522705078
sg148
I47
sg149
I47
sa(dp151
g145
I844
sg146
F0.0006668567657470703
sg147
F0.002496957778930664
sg148
I40
sg149
I40
sa(dp152
g145
I792
sg146
F0.00049591064453125
sg147
F0.0014717578887939453
sg148
I35
sg149
I35
sa(dp153
g145
I25
sg146
F0.001435995101928711
sg147
F0.0010831356048583984
sg148
I5
sg149
I5
sa(dp154
g145
I9
sg146
F1.5974044799804688e-05
sg147
F0.0001010894775390625
sg148
I2
sg149
I2
sasS'total_cqs'
p155
I63
ssI12
(dp156
S'iters'
p157
I5
sS'meta'
p158
(lp159
(dp160
S'objective'
p161
I517
sS'query_time'
p162
F0.387923002243042
sS'comp_time'
p163
F0.08754897117614746
sS'exec_cq'
p164
I50
sS'total_cq'
p165
I50
sa(dp166
g161
I562
sg162
F0.0006651878356933594
sg163
F0.0032455921173095703
sg164
I33
sg165
I33
sa(dp167
g161
I529
sg162
F0.0001919269561767578
sg163
F0.000736236572265625
sg164
I26
sg165
I26
sa(dp168
g161
I16
sg162
F0.0017747879028320312
sg163
F0.0005278587341308594
sg164
I4
sg165
I4
sa(dp169
g161
I14
sg162
F1.5974044799804688e-05
sg163
F9.298324584960938e-05
sg164
I2
sg165
I2
sasS'total_cqs'
p170
I50
ssI13
(dp171
S'iters'
p172
I3
sS'meta'
p173
(lp174
(dp175
S'objective'
p176
I64
sS'query_time'
p177
F0.13895797729492188
sS'comp_time'
p178
F0.03616595268249512
sS'exec_cq'
p179
I20
sS'total_cq'
p180
I20
sa(dp181
g176
I41
sg177
F7.700920104980469e-05
sg178
F0.0004439353942871094
sg179
I9
sg180
I9
sa(dp182
g176
I4
sg177
F0.003899812698364258
sg178
F0.0002529621124267578
sg179
I2
sg180
I2
sasS'total_cqs'
p183
I20
ssI14
(dp184
S'iters'
p185
I3
sS'meta'
p186
(lp187
(dp188
S'objective'
p189
I1
sS'query_time'
p190
F31.50576114654541
sS'comp_time'
p191
F2.1866300106048584
sS'exec_cq'
p192
I9
sS'total_cq'
p193
I9
sa(dp194
g189
I2
sg190
F0.007153987884521484
sg191
F0.016741037368774414
sg192
I4
sg193
I4
sa(dp195
g189
I4
sg190
F0.0066530704498291016
sg191
F0.10579586029052734
sg192
I2
sg193
I2
sasS'total_cqs'
p196
I9
ssI15
(dp197
S'iters'
p198
I4
sS'meta'
p199
(lp200
(dp201
S'objective'
p202
I0
sS'query_time'
p203
F3.6898398399353027
sS'comp_time'
p204
F0.10295295715332031
sS'exec_cq'
p205
I11
sS'total_cq'
p206
I11
sa(dp207
g202
I13
sg203
F0.0012240409851074219
sg204
F0.0015323162078857422
sg205
I6
sg206
I6
sa(dp208
g202
I9
sg203
F0.0007569789886474609
sg204
F0.0019102096557617188
sg205
I5
sg206
I5
sa(dp209
g202
I1
sg203
F0.0008399486541748047
sg204
F0.0011870861053466797
sg205
I2
sg206
I2
sasS'total_cqs'
p210
I11
ssI16
(dp211
S'iters'
p212
I1
sS'meta'
p213
(lp214
(dp215
S'objective'
p216
I30
sS'query_time'
p217
F0.024597883224487305
sS'comp_time'
p218
F0.00393223762512207
sS'exec_cq'
p219
I8
sS'total_cq'
p220
I8
sasS'total_cqs'
p221
I8
ssI17
(dp222
S'iters'
p223
I4
sS'meta'
p224
(lp225
(dp226
S'objective'
p227
I2
sS'query_time'
p228
F0.9472849369049072
sS'comp_time'
p229
F0.05950617790222168
sS'exec_cq'
p230
I11
sS'total_cq'
p231
I11
sa(dp232
g227
I0
sg228
F0.010288000106811523
sg229
F0.01602315902709961
sg230
I6
sg231
I6
sa(dp233
g227
I4
sg228
F0.005671024322509766
sg229
F0.00845479965209961
sg230
I3
sg231
I3
sa(dp234
g227
I2
sg228
F0.0025429725646972656
sg229
F0.003139972686767578
sg230
I2
sg231
I2
sasS'total_cqs'
p235
I11
ssI18
(dp236
S'iters'
p237
I4
sS'meta'
p238
(lp239
(dp240
S'objective'
p241
I24
sS'query_time'
p242
F0.20105290412902832
sS'comp_time'
p243
F0.027204513549804688
sS'exec_cq'
p244
I11
sS'total_cq'
p245
I11
sa(dp246
g241
I31
sg242
F0.00026798248291015625
sg243
F0.0007741451263427734
sg244
I8
sg245
I8
sa(dp247
g241
I28
sg242
F0.00019216537475585938
sg243
F0.000392913818359375
sg244
I7
sg245
I7
sa(dp248
g241
I25
sg242
F3.409385681152344e-05
sg243
F6.914138793945312e-05
sg244
I6
sg245
I6
sasS'total_cqs'
p249
I11
ssI22
(dp250
S'iters'
p251
I1
sS'meta'
p252
(lp253
(dp254
S'objective'
p255
I159
sS'query_time'
p256
F0.07782387733459473
sS'comp_time'
p257
F0.03295564651489258
sS'exec_cq'
p258
I18
sS'total_cq'
p259
I18
sasS'total_cqs'
p260
I18
ssI23
(dp261
S'iters'
p262
I3
sS'meta'
p263
(lp264
(dp265
S'objective'
p266
I92
sS'query_time'
p267
F0.06857585906982422
sS'comp_time'
p268
F0.026965856552124023
sS'exec_cq'
p269
I16
sS'total_cq'
p270
I16
sa(dp271
g266
I82
sg267
F0.00010919570922851562
sg268
F0.00022983551025390625
sg269
I14
sg270
I14
sa(dp272
g266
I88
sg267
F9.202957153320312e-05
sg268
F8.58306884765625e-05
sg269
I13
sg270
I13
sasS'total_cqs'
p273
I16
ssI26
(dp274
S'iters'
p275
I1
sS'meta'
p276
(lp277
(dp278
S'objective'
p279
I879
sS'query_time'
p280
F0.16365814208984375
sS'comp_time'
p281
F0.12184619903564453
sS'exec_cq'
p282
I42
sS'total_cq'
p283
I42
sasS'total_cqs'
p284
I42
ssI27
(dp285
S'iters'
p286
I4
sS'meta'
p287
(lp288
(dp289
S'objective'
p290
I361
sS'query_time'
p291
F22.42024803161621
sS'comp_time'
p292
F1.9449715614318848
sS'exec_cq'
p293
I30
sS'total_cq'
p294
I30
sa(dp295
g290
I0
sg291
F0.7606070041656494
sg292
F2.777942180633545
sg293
I5
sg294
I5
sa(dp296
g290
I6
sg291
F0.44905900955200195
sg292
F1.1911380290985107
sg293
I3
sg294
I3
sa(dp297
g290
I2
sg291
F0.06658196449279785
sg292
F0.2394428253173828
sg293
I2
sg294
I2
sasS'total_cqs'
p298
I30
ssI29
(dp299
S'iters'
p300
I6
sS'meta'
p301
(lp302
(dp303
S'objective'
p304
I397
sS'query_time'
p305
F26.50779914855957
sS'comp_time'
p306
F0.33589982986450195
sS'exec_cq'
p307
I35
sS'total_cq'
p308
I49
sa(dp309
g304
I18
sg305
F0.04180002212524414
sg306
F0.3002922534942627
sg307
I17
sg308
I17
sa(dp310
g304
I8
sg305
F0.13328194618225098
sg306
F0.622870683670044
sg307
I9
sg308
I9
sa(dp311
g304
I3
sg305
F0.006523847579956055
sg306
F0.015684843063354492
sg307
I5
sg308
I5
sa(dp312
g304
I1
sg305
F0.0017809867858886719
sg306
F0.0038111209869384766
sg307
I3
sg308
I3
sa(dp313
g304
I1
sg305
F0.0011239051818847656
sg306
F0.0017402172088623047
sg307
I2
sg308
I2
sasS'total_cqs'
p314
I49
ssI30
(dp315
S'iters'
p316
I1
sS'meta'
p317
(lp318
(dp319
S'objective'
p320
I1
sS'query_time'
p321
F0.7055931091308594
sS'comp_time'
p322
F0.012352228164672852
sS'exec_cq'
p323
I2
sS'total_cq'
p324
I2
sasS'total_cqs'
p325
I2
ssI32
(dp326
S'iters'
p327
I1
sS'meta'
p328
(lp329
(dp330
S'objective'
p331
I1
sS'query_time'
p332
F0.01380300521850586
sS'comp_time'
p333
F0.0019435882568359375
sS'exec_cq'
p334
I2
sS'total_cq'
p335
I2
sasS'total_cqs'
p336
I2
ssI33
(dp337
S'iters'
p338
I6
sS'meta'
p339
(lp340
(dp341
S'objective'
p342
I3768
sS'query_time'
p343
F17.089732885360718
sS'comp_time'
p344
F0.963630199432373
sS'exec_cq'
p345
I103
sS'total_cq'
p346
I103
sa(dp347
g342
I42
sg343
F0.011736154556274414
sg344
F0.10204625129699707
sg345
I16
sg346
I16
sa(dp348
g342
I14
sg343
F0.003893136978149414
sg344
F0.017660140991210938
sg345
I8
sg346
I8
sa(dp349
g342
I1
sg343
F0.0022499561309814453
sg344
F0.004085063934326172
sg345
I6
sg346
I6
sa(dp350
g342
I31
sg343
F0.00047016143798828125
sg344
F0.0007910728454589844
sg345
I3
sg346
I3
sa(dp351
g342
I21
sg343
F0.00016021728515625
sg344
F0.00038504600524902344
sg345
I2
sg346
I2
sasS'total_cqs'
p352
I103
ssI34
(dp353
S'iters'
p354
I1
sS'meta'
p355
(lp356
(dp357
S'objective'
p358
I1
sS'query_time'
p359
F0.015635013580322266
sS'comp_time'
p360
F0.001589059829711914
sS'exec_cq'
p361
I2
sS'total_cq'
p362
I2
sasS'total_cqs'
p363
I2
ssI35
(dp364
S'iters'
p365
I6
sS'meta'
p366
(lp367
(dp368
S'objective'
p369
I1215
sS'query_time'
p370
F22.66770887374878
sS'comp_time'
p371
F0.2243800163269043
sS'exec_cq'
p372
I50
sS'total_cq'
p373
I70
sa(dp374
g369
I103
sg370
F0.00518798828125
sg371
F0.02597784996032715
sg372
I16
sg373
I16
sa(dp375
g369
I2
sg370
F0.002398967742919922
sg371
F0.00504755973815918
sg372
I7
sg373
I7
sa(dp376
g369
I2
sg370
F0.0018780231475830078
sg371
F0.002763032913208008
sg372
I5
sg373
I5
sa(dp377
g369
I24
sg370
F0.0005068778991699219
sg371
F0.001026153564453125
sg372
I3
sg373
I3
sa(dp378
g369
I16
sg370
F0.0004830360412597656
sg371
F0.0008537769317626953
sg372
I2
sg373
I2
sasS'total_cqs'
p379
I70
ssI36
(dp380
S'iters'
p381
I3
sS'meta'
p382
(lp383
(dp384
S'objective'
p385
I381
sS'query_time'
p386
F0.8796300888061523
sS'comp_time'
p387
F0.1045377254486084
sS'exec_cq'
p388
I33
sS'total_cq'
p389
I33
sa(dp390
g385
I413
sg386
F0.0031578540802001953
sg387
F0.005953311920166016
sg388
I29
sg389
I29
sa(dp391
g385
I422
sg386
F0.0010912418365478516
sg387
F0.0016853809356689453
sg388
I24
sg389
I25
sasS'total_cqs'
p392
I33
ssI37
(dp393
S'iters'
p394
I1
sS'meta'
p395
(lp396
(dp397
S'objective'
p398
I1
sS'query_time'
p399
F0.009176015853881836
sS'comp_time'
p400
F0.0014748573303222656
sS'exec_cq'
p401
I2
sS'total_cq'
p402
I2
sasS'total_cqs'
p403
I2
ssI38
(dp404
S'iters'
p405
I2
sS'meta'
p406
(lp407
(dp408
S'objective'
p409
I0
sS'query_time'
p410
F0.02983880043029785
sS'comp_time'
p411
F0.007112979888916016
sS'exec_cq'
p412
I4
sS'total_cq'
p413
I4
sa(dp414
g409
I1
sg410
F8.20159912109375e-05
sg411
F0.0002357959747314453
sg412
I2
sg413
I2
sasS'total_cqs'
p415
I4
ssI39
(dp416
S'iters'
p417
I2
sS'meta'
p418
(lp419
(dp420
S'objective'
p421
I588
sS'query_time'
p422
F0.23713183403015137
sS'comp_time'
p423
F0.08700704574584961
sS'exec_cq'
p424
I44
sS'total_cq'
p425
I44
sa(dp426
g421
I765
sg422
F0.0003108978271484375
sg423
F0.0007681846618652344
sg424
I37
sg425
I37
sasS'total_cqs'
p427
I44
ssI40
(dp428
S'iters'
p429
I1
sS'meta'
p430
(lp431
(dp432
S'objective'
p433
I22
sS'query_time'
p434
F0.03284406661987305
sS'comp_time'
p435
F0.005893230438232422
sS'exec_cq'
p436
I7
sS'total_cq'
p437
I7
sasS'total_cqs'
p438
I7
ssI41
(dp439
S'iters'
p440
I2
sS'meta'
p441
(lp442
(dp443
S'objective'
p444
I54
sS'query_time'
p445
F0.07764506340026855
sS'comp_time'
p446
F0.016721248626708984
sS'exec_cq'
p447
I12
sS'total_cq'
p448
I12
sa(dp449
g444
I58
sg445
F7.700920104980469e-05
sg446
F0.00011801719665527344
sg447
I11
sg448
I11
sasS'total_cqs'
p450
I12
ssI42
(dp451
S'iters'
p452
I2
sS'meta'
p453
(lp454
(dp455
S'objective'
p456
I781
sS'query_time'
p457
F0.11327028274536133
sS'comp_time'
p458
F0.1327681541442871
sS'exec_cq'
p459
I41
sS'total_cq'
p460
I41
sa(dp461
g456
I797
sg457
F0.00022411346435546875
sg458
F0.0002894401550292969
sg459
I40
sg460
I40
sasS'total_cqs'
p462
I41
ssI43
(dp463
S'iters'
p464
I1
sS'meta'
p465
(lp466
(dp467
S'objective'
p468
I22
sS'query_time'
p469
F0.0285489559173584
sS'comp_time'
p470
F0.005686044692993164
sS'exec_cq'
p471
I7
sS'total_cq'
p472
I7
sasS'total_cqs'
p473
I7
ssI44
(dp474
S'iters'
p475
I4
sS'meta'
p476
(lp477
(dp478
S'objective'
p479
I760
sS'query_time'
p480
F0.1796858310699463
sS'comp_time'
p481
F0.19479918479919434
sS'exec_cq'
p482
I47
sS'total_cq'
p483
I47
sa(dp484
g479
I890
sg480
F0.00028705596923828125
sg481
F0.0010390281677246094
sg482
I40
sg483
I40
sa(dp485
g479
I3
sg480
F0.0019001960754394531
sg481
F0.00152587890625
sg482
I3
sg483
I3
sa(dp486
g479
I11
sg480
F2.5033950805664062e-05
sg481
F9.584426879882812e-05
sg482
I2
sg483
I2
sasS'total_cqs'
p487
I47
ssI46
(dp488
S'iters'
p489
I3
sS'meta'
p490
(lp491
(dp492
S'objective'
p493
I9
sS'query_time'
p494
F0.020048856735229492
sS'comp_time'
p495
F0.0027184486389160156
sS'exec_cq'
p496
I6
sS'total_cq'
p497
I6
sa(dp498
g493
I7
sg494
F6.29425048828125e-05
sg495
F0.00014543533325195312
sg496
I5
sg497
I5
sa(dp499
g493
I5
sg494
F2.6941299438476562e-05
sg495
F6.198883056640625e-05
sg496
I4
sg497
I4
sasS'total_cqs'
p500
I6
ssI47
(dp501
S'iters'
p502
I1
sS'meta'
p503
(lp504
(dp505
S'objective'
p506
I1
sS'query_time'
p507
F0.009742021560668945
sS'comp_time'
p508
F0.0010569095611572266
sS'exec_cq'
p509
I2
sS'total_cq'
p510
I2
sasS'total_cqs'
p511
I2
ssI50
(dp512
S'iters'
p513
I3
sS'meta'
p514
(lp515
(dp516
S'objective'
p517
I5
sS'query_time'
p518
F0.014924049377441406
sS'comp_time'
p519
F0.0021724700927734375
sS'exec_cq'
p520
I5
sS'total_cq'
p521
I5
sa(dp522
g517
I2
sg518
F3.504753112792969e-05
sg519
F0.00014925003051757812
sg520
I4
sg521
I4
sa(dp523
g517
I0
sg518
F2.5987625122070312e-05
sg519
F0.00010585784912109375
sg520
I3
sg521
I3
sasS'total_cqs'
p524
I5
ssI51
(dp525
S'iters'
p526
I1
sS'meta'
p527
(lp528
(dp529
S'objective'
p530
I1
sS'query_time'
p531
F0.008130073547363281
sS'comp_time'
p532
F0.0009081363677978516
sS'exec_cq'
p533
I2
sS'total_cq'
p534
I2
sasS'total_cqs'
p535
I2
ssI52
(dp536
S'iters'
p537
I1
sS'meta'
p538
(lp539
(dp540
S'objective'
p541
I1
sS'query_time'
p542
F0.008984088897705078
sS'comp_time'
p543
F0.001065969467163086
sS'exec_cq'
p544
I2
sS'total_cq'
p545
I2
sasS'total_cqs'
p546
I2
ssI53
(dp547
S'iters'
p548
I3
sS'meta'
p549
(lp550
(dp551
S'objective'
p552
I4
sS'query_time'
p553
F0.0305478572845459
sS'comp_time'
p554
F0.0027780532836914062
sS'exec_cq'
p555
I4
sS'total_cq'
p556
I4
sa(dp557
g552
I1
sg553
F0.00011801719665527344
sg554
F0.0003628730773925781
sg555
I3
sg556
I3
sa(dp558
g552
I1
sg553
F0.00010204315185546875
sg554
F0.00022411346435546875
sg555
I2
sg556
I2
sasS'total_cqs'
p559
I4
ssI54
(dp560
S'iters'
p561
I2
sS'meta'
p562
(lp563
(dp564
S'objective'
p565
I0
sS'query_time'
p566
F0.015491008758544922
sS'comp_time'
p567
F0.0017299652099609375
sS'exec_cq'
p568
I3
sS'total_cq'
p569
I3
sa(dp570
g565
I1
sg566
F5.602836608886719e-05
sg567
F0.0002090930938720703
sg568
I2
sg569
I2
sasS'total_cqs'
p571
I3
ssI55
(dp572
S'iters'
p573
I9
sS'meta'
p574
(lp575
(dp576
S'objective'
p577
I4535
sS'query_time'
p578
F1.897963047027588
sS'comp_time'
p579
F0.7778558731079102
sS'exec_cq'
p580
I109
sS'total_cq'
p581
I109
sa(dp582
g577
I4513
sg578
F0.0007960796356201172
sg579
F0.003866910934448242
sg580
I97
sg581
I97
sa(dp583
g577
I4311
sg578
F0.00030612945556640625
sg579
F0.0013759136199951172
sg580
I91
sg581
I91
sa(dp584
g577
I4182
sg578
F0.0002880096435546875
sg579
F0.0010647773742675781
sg580
I87
sg581
I87
sa(dp585
g577
I4173
sg578
F0.0002651214599609375
sg579
F0.0007188320159912109
sg580
I85
sg581
I85
sa(dp586
g577
I4076
sg578
F0.0002880096435546875
sg579
F0.0005800724029541016
sg580
I84
sg581
I84
sa(dp587
g577
I4045
sg578
F0.0002579689025878906
sg579
F0.0005431175231933594
sg580
I83
sg581
I83
sa(dp588
g577
I3998
sg578
F0.00023698806762695312
sg579
F0.0005118846893310547
sg580
I81
sg581
I81
sa(dp589
g577
I3997
sg578
F0.0002448558807373047
sg579
F0.0003840923309326172
sg580
I79
sg581
I79
sasS'total_cqs'
p590
I109
ssI56
(dp591
S'iters'
p592
I6
sS'meta'
p593
(lp594
(dp595
S'objective'
p596
I1942
sS'query_time'
p597
F1.716088056564331
sS'comp_time'
p598
F0.33766770362854004
sS'exec_cq'
p599
I67
sS'total_cq'
p600
I76
sa(dp601
g596
I24
sg597
F0.006844043731689453
sg598
F0.08236289024353027
sg599
I16
sg600
I16
sa(dp602
g596
I2
sg597
F0.0006530284881591797
sg598
F0.001728057861328125
sg599
I7
sg600
I7
sa(dp603
g596
I12
sg597
F0.00042700767517089844
sg598
F0.0010139942169189453
sg599
I4
sg600
I4
sa(dp604
g596
I1
sg597
F0.00030303001403808594
sg598
F0.0007817745208740234
sg599
I3
sg600
I3
sa(dp605
g596
I10
sg597
F0.00017118453979492188
sg598
F0.0003924369812011719
sg599
I2
sg600
I2
sasS'total_cqs'
p606
I76
ssI57
(dp607
S'iters'
p608
I6
sS'meta'
p609
(lp610
(dp611
S'objective'
p612
I328
sS'query_time'
p613
F23.57015085220337
sS'comp_time'
p614
F0.2862579822540283
sS'exec_cq'
p615
I45
sS'total_cq'
p616
I51
sa(dp617
g612
I87
sg613
F0.019314050674438477
sg614
F0.03900933265686035
sg615
I31
sg616
I31
sa(dp618
g612
I6
sg613
F0.016976118087768555
sg614
F0.39141416549682617
sg615
I16
sg616
I16
sa(dp619
g612
I14
sg613
F0.005194187164306641
sg614
F0.028321504592895508
sg615
I7
sg616
I7
sa(dp620
g612
I11
sg613
F0.0005910396575927734
sg614
F0.0013132095336914062
sg615
I4
sg616
I4
sa(dp621
g612
I28
sg613
F0.00025081634521484375
sg614
F0.0004711151123046875
sg615
I2
sg616
I2
sasS'total_cqs'
p622
I51
ssI58
(dp623
S'iters'
p624
I7
sS'meta'
p625
(lp626
(dp627
S'objective'
p628
I83385
sS'query_time'
p629
F319.3773443698883
sS'comp_time'
p630
F27.74284291267395
sS'exec_cq'
p631
I486
sS'total_cq'
p632
I486
sa(dp633
g628
I86235
sg629
F5.552532196044922
sg630
F9.43000602722168
sg631
I414
sg632
I414
sa(dp634
g628
I150
sg629
F0.016273021697998047
sg630
F0.18439054489135742
sg631
I28
sg632
I28
sa(dp635
g628
I108
sg629
F0.0046291351318359375
sg630
F0.13826608657836914
sg631
I15
sg632
I15
sa(dp636
g628
I77
sg629
F0.0019559860229492188
sg630
F0.006229400634765625
sg631
I6
sg632
I6
sa(dp637
g628
I31
sg629
F0.0008940696716308594
sg630
F0.0016748905181884766
sg631
I3
sg632
I3
sa(dp638
g628
I250
sg629
F0.0007028579711914062
sg630
F0.0010917186737060547
sg631
I2
sg632
I2
sasS'total_cqs'
p639
I486
ssI59
(dp640
S'iters'
p641
I2
sS'meta'
p642
(lp643
(dp644
S'objective'
p645
I18
sS'query_time'
p646
F0.059094905853271484
sS'comp_time'
p647
F0.005486011505126953
sS'exec_cq'
p648
I7
sS'total_cq'
p649
I7
sa(dp650
g645
I1
sg646
F0.00017786026000976562
sg647
F0.0003609657287597656
sg648
I2
sg649
I2
sasS'total_cqs'
p651
I7
ssI60
(dp652
S'iters'
p653
I3
sS'meta'
p654
(lp655
(dp656
S'objective'
p657
I5
sS'query_time'
p658
F0.017821073532104492
sS'comp_time'
p659
F0.002601146697998047
sS'exec_cq'
p660
I4
sS'total_cq'
p661
I5
sa(dp662
g657
I2
sg658
F5.793571472167969e-05
sg659
F0.00016498565673828125
sg660
I3
sg661
I4
sa(dp663
g657
I0
sg658
F4.9114227294921875e-05
sg659
F0.00012540817260742188
sg660
I2
sg661
I3
sasS'total_cqs'
p664
I5
ssI62
(dp665
S'iters'
p666
I3
sS'meta'
p667
(lp668
(dp669
S'objective'
p670
I22
sS'query_time'
p671
F0.03794384002685547
sS'comp_time'
p672
F0.0179443359375
sS'exec_cq'
p673
I12
sS'total_cq'
p674
I12
sa(dp675
g670
I28
sg671
F5.1975250244140625e-05
sg672
F0.0001983642578125
sg673
I9
sg674
I9
sa(dp676
g670
I31
sg671
F3.504753112792969e-05
sg672
F7.557868957519531e-05
sg673
I8
sg674
I8
sasS'total_cqs'
p677
I12
ssI64
(dp678
S'iters'
p679
I3
sS'meta'
p680
(lp681
(dp682
S'objective'
p683
I32
sS'query_time'
p684
F0.12313008308410645
sS'comp_time'
p685
F0.01949620246887207
sS'exec_cq'
p686
I12
sS'total_cq'
p687
I12
sa(dp688
g683
I1
sg684
F0.0001888275146484375
sg685
F0.0007419586181640625
sg686
I4
sg687
I4
sa(dp689
g683
I4
sg684
F0.00015306472778320312
sg685
F0.0002970695495605469
sg686
I2
sg687
I2
sasS'total_cqs'
p690
I12
ssI65
(dp691
S'iters'
p692
I5
sS'meta'
p693
(lp694
(dp695
S'objective'
p696
I170
sS'query_time'
p697
F0.8519392013549805
sS'comp_time'
p698
F0.34628820419311523
sS'exec_cq'
p699
I27
sS'total_cq'
p700
I27
sa(dp701
g696
I6
sg697
F0.001641988754272461
sg698
F0.0033111572265625
sg699
I7
sg700
I7
sa(dp702
g696
I1
sg697
F0.0009241104125976562
sg698
F0.0011677742004394531
sg699
I4
sg700
I4
sa(dp703
g696
I1
sg697
F0.0005998611450195312
sg698
F0.000972747802734375
sg699
I3
sg700
I3
sa(dp704
g696
I3
sg697
F0.0002009868621826172
sg698
F0.0003714561462402344
sg699
I2
sg700
I2
sasS'total_cqs'
p705
I27
ssI67
(dp706
S'iters'
p707
I2
sS'meta'
p708
(lp709
(dp710
S'objective'
p711
I600
sS'query_time'
p712
F1.0750491619110107
sS'comp_time'
p713
F0.11698436737060547
sS'exec_cq'
p714
I35
sS'total_cq'
p715
I35
sa(dp716
g711
I5
sg712
F0.0017979145050048828
sg713
F0.003969430923461914
sg714
I2
sg715
I2
sasS'total_cqs'
p717
I35
ssI69
(dp718
S'iters'
p719
I1
sS'meta'
p720
(lp721
(dp722
S'objective'
p723
I1298
sS'query_time'
p724
F0.16910195350646973
sS'comp_time'
p725
F0.14479517936706543
sS'exec_cq'
p726
I51
sS'total_cq'
p727
I51
sasS'total_cqs'
p728
I51
ssI70
(dp729
S'iters'
p730
I3
sS'meta'
p731
(lp732
(dp733
S'objective'
p734
I11
sS'query_time'
p735
F0.018929004669189453
sS'comp_time'
p736
F0.0024747848510742188
sS'exec_cq'
p737
I6
sS'total_cq'
p738
I6
sa(dp739
g734
I8
sg735
F5.1021575927734375e-05
sg736
F0.00015687942504882812
sg737
I5
sg738
I5
sa(dp740
g734
I6
sg735
F4.315376281738281e-05
sg736
F0.00014495849609375
sg737
I4
sg738
I4
sasS'total_cqs'
p741
I6
ssI71
(dp742
S'iters'
p743
I8
sS'meta'
p744
(lp745
(dp746
S'objective'
p747
I3269
sS'query_time'
p748
F0.30707597732543945
sS'comp_time'
p749
F0.38745760917663574
sS'exec_cq'
p750
I85
sS'total_cq'
p751
I85
sa(dp752
g747
I3102
sg748
F0.0005750656127929688
sg749
F0.0017211437225341797
sg750
I81
sg751
I81
sa(dp753
g747
I3096
sg748
F0.00032401084899902344
sg749
F0.0013718605041503906
sg750
I77
sg751
I77
sa(dp754
g747
I3007
sg748
F0.0003020763397216797
sg749
F0.0009148120880126953
sg750
I74
sg751
I74
sa(dp755
g747
I2918
sg748
F0.0002880096435546875
sg749
F0.0007429122924804688
sg750
I72
sg751
I72
sa(dp756
g747
I2878
sg748
F0.0002639293670654297
sg749
F0.0007147789001464844
sg750
I69
sg751
I69
sa(dp757
g747
I1
sg748
F0.002321958541870117
sg749
F0.0026302337646484375
sg750
I3
sg751
I3
sa(dp758
g747
I14
sg748
F0.004683017730712891
sg749
F0.0001232624053955078
sg750
I2
sg751
I2
sasS'total_cqs'
p759
I85
ssI72
(dp760
S'iters'
p761
I3
sS'meta'
p762
(lp763
(dp764
S'objective'
p765
I0
sS'query_time'
p766
F0.2575538158416748
sS'comp_time'
p767
F0.004131793975830078
sS'exec_cq'
p768
I4
sS'total_cq'
p769
I8
sa(dp770
g765
I2
sg766
F0.027285099029541016
sg767
F0.00019979476928710938
sg768
I4
sg769
I5
sa(dp771
g765
I4
sg766
F2.4080276489257812e-05
sg767
F5.53131103515625e-05
sg768
I2
sg769
I3
sasS'total_cqs'
p772
I8
ssI75
(dp773
S'iters'
p774
I3
sS'meta'
p775
(lp776
(dp777
S'objective'
p778
I5
sS'query_time'
p779
F0.014441967010498047
sS'comp_time'
p780
F0.0017228126525878906
sS'exec_cq'
p781
I5
sS'total_cq'
p782
I5
sa(dp783
g778
I2
sg779
F3.695487976074219e-05
sg780
F0.00017547607421875
sg781
I4
sg782
I4
sa(dp784
g778
I0
sg779
F2.5987625122070312e-05
sg780
F0.0001270771026611328
sg781
I3
sg782
I3
sasS'total_cqs'
p785
I5
ssI76
(dp786
S'iters'
p787
I1
sS'meta'
p788
(lp789
(dp790
S'objective'
p791
I1
sS'query_time'
p792
F0.012856006622314453
sS'comp_time'
p793
F0.0009181499481201172
sS'exec_cq'
p794
I2
sS'total_cq'
p795
I2
sasS'total_cqs'
p796
I2
ssI103
(dp797
S'iters'
p798
I2
sS'meta'
p799
(lp800
(dp801
S'objective'
p802
I54
sS'query_time'
p803
F0.06758618354797363
sS'comp_time'
p804
F0.016460180282592773
sS'exec_cq'
p805
I12
sS'total_cq'
p806
I12
sa(dp807
g802
I58
sg803
F6.198883056640625e-05
sg804
F0.0001239776611328125
sg805
I11
sg806
I11
sasS'total_cqs'
p808
I12
ssI104
(dp809
S'iters'
p810
I3
sS'meta'
p811
(lp812
(dp813
S'objective'
p814
I2
sS'query_time'
p815
F1.416038990020752
sS'comp_time'
p816
F0.14774847030639648
sS'exec_cq'
p817
I4
sS'total_cq'
p818
I4
sa(dp819
g814
I0
sg815
F0.013592958450317383
sg816
F0.025558948516845703
sg817
I3
sg818
I3
sa(dp820
g814
I1
sg815
F0.01264500617980957
sg816
F0.11153411865234375
sg817
I2
sg818
I2
sasS'total_cqs'
p821
I4
ssI106
(dp822
S'iters'
p823
I1
sS'meta'
p824
(lp825
(dp826
S'objective'
p827
I6
sS'query_time'
p828
F0.02785515785217285
sS'comp_time'
p829
F0.0018968582153320312
sS'exec_cq'
p830
I4
sS'total_cq'
p831
I4
sasS'total_cqs'
p832
I4
ssI107
(dp833
S'iters'
p834
I3
sS'meta'
p835
(lp836
(dp837
S'objective'
p838
I106
sS'query_time'
p839
F0.0850379467010498
sS'comp_time'
p840
F0.018529891967773438
sS'exec_cq'
p841
I16
sS'total_cq'
p842
I16
sa(dp843
g838
I97
sg839
F0.00010085105895996094
sg840
F0.00019097328186035156
sg841
I15
sg842
I15
sa(dp844
g838
I2
sg839
F0.007287025451660156
sg840
F0.0002658367156982422
sg841
I3
sg842
I3
sasS'total_cqs'
p845
I16
ss.