(dp0
I1
(dp1
S'iters'
p2
I1
sS'meta'
p3
(lp4
(dp5
S'objective'
p6
I58
sS'query_time'
p7
F0.056201934814453125
sS'comp_time'
p8
F0.00021600723266601562
sS'exec_cq'
p9
I12
sS'total_cq'
p10
I12
sasS'total_cqs'
p11
I12
ssI2
(dp12
S'iters'
p13
I5
sS'meta'
p14
(lp15
(dp16
S'objective'
p17
I256
sS'query_time'
p18
F0.15441393852233887
sS'comp_time'
p19
F0.00128173828125
sS'exec_cq'
p20
I27
sS'total_cq'
p21
I27
sa(dp22
g17
I215
sg18
F0.00020003318786621094
sg19
F0.0006818771362304688
sg20
I24
sg21
I24
sa(dp23
g17
I204
sg18
F0.0001418590545654297
sg19
F0.00039696693420410156
sg20
I21
sg21
I21
sa(dp24
g17
I189
sg18
F0.00012612342834472656
sg19
F0.0003871917724609375
sg20
I19
sg21
I19
sa(dp25
g17
I168
sg18
F0.00010991096496582031
sg19
F0.0003237724304199219
sg20
I17
sg21
I17
sasS'total_cqs'
p26
I27
ssI3
(dp27
S'iters'
p28
I3
sS'meta'
p29
(lp30
(dp31
S'objective'
p32
I240
sS'query_time'
p33
F156.1711709499359
sS'comp_time'
p34
F1.533601999282837
sS'exec_cq'
p35
I43
sS'total_cq'
p36
I43
sa(dp37
g32
I9
sg33
F0.34135985374450684
sg34
F1.3184700012207031
sg35
I27
sg36
I27
sa(dp38
g32
I233
sg33
F0.06453585624694824
sg34
F0.41384100914001465
sg35
I13
sg36
I13
sasS'total_cqs'
p39
I43
ssI4
(dp40
S'iters'
p41
I2
sS'meta'
p42
(lp43
(dp44
S'objective'
p45
I42
sS'query_time'
p46
F4.0194830894470215
sS'comp_time'
p47
F0.4584968090057373
sS'exec_cq'
p48
I11
sS'total_cq'
p49
I11
sa(dp50
g45
I8
sg46
F0.14225482940673828
sg47
F0.4419410228729248
sg48
I2
sg49
I2
sasS'total_cqs'
p51
I11
ssI5
(dp52
S'iters'
p53
I3
sS'meta'
p54
(lp55
(dp56
S'objective'
p57
I0
sS'query_time'
p58
F27.45048999786377
sS'comp_time'
p59
F2.1938588619232178
sS'exec_cq'
p60
I8
sS'total_cq'
p61
I8
sa(dp62
g57
I0
sg58
F0.08005714416503906
sg59
F0.6858010292053223
sg60
I4
sg61
I4
sa(dp63
g57
I5
sg58
F0.1437368392944336
sg59
F0.6047251224517822
sg60
I2
sg61
I2
sasS'total_cqs'
p64
I8
ssI6
(dp65
S'iters'
p66
I4
sS'meta'
p67
(lp68
(dp69
S'objective'
p70
I35
sS'query_time'
p71
F30.045525074005127
sS'comp_time'
p72
F2.1238009929656982
sS'exec_cq'
p73
I18
sS'total_cq'
p74
I18
sa(dp75
g70
I0
sg71
F0.5342071056365967
sg72
F2.0912442207336426
sg73
I7
sg74
I7
sa(dp76
g70
I0
sg71
F0.10329508781433105
sg72
F0.897942066192627
sg73
I4
sg74
I4
sa(dp77
g70
I13
sg71
F0.18998289108276367
sg72
F0.7168099880218506
sg73
I2
sg74
I2
sasS'total_cqs'
p78
I18
ssI7
(dp79
S'iters'
p80
I3
sS'meta'
p81
(lp82
(dp83
S'objective'
p84
I1
sS'query_time'
p85
F10.445528030395508
sS'comp_time'
p86
F0.9650840759277344
sS'exec_cq'
p87
I9
sS'total_cq'
p88
I9
sa(dp89
g84
I0
sg85
F0.1299121379852295
sg86
F0.3234243392944336
sg87
I4
sg88
I4
sa(dp90
g84
I5
sg85
F0.08958292007446289
sg86
F0.22812986373901367
sg87
I2
sg88
I2
sasS'total_cqs'
p91
I9
ssI8
(dp92
S'iters'
p93
I4
sS'meta'
p94
(lp95
(dp96
S'objective'
p97
I242
sS'query_time'
p98
F0.18749094009399414
sS'comp_time'
p99
F0.0011649131774902344
sS'exec_cq'
p100
I27
sS'total_cq'
p101
I27
sa(dp102
g97
I192
sg98
F0.00016188621520996094
sg99
F0.00047779083251953125
sg100
I24
sg101
I24
sa(dp103
g97
I197
sg98
F7.081031799316406e-05
sg99
F9.274482727050781e-05
sg100
I19
sg101
I19
sa(dp104
g97
I180
sg98
F6.103515625e-05
sg99
F6.818771362304688e-05
sg100
I18
sg101
I18
sasS'total_cqs'
p105
I27
ssI9
(dp106
S'iters'
p107
I3
sS'meta'
p108
(lp109
(dp110
S'objective'
p111
I6
sS'query_time'
p112
F0.042474985122680664
sS'comp_time'
p113
F0.0002560615539550781
sS'exec_cq'
p114
I7
sS'total_cq'
p115
I7
sa(dp116
g111
I1
sg112
F2.8848648071289062e-05
sg113
F5.888938903808594e-05
sg114
I4
sg115
I4
sa(dp117
g111
I6
sg112
F1.5020370483398438e-05
sg113
F4.792213439941406e-05
sg114
I2
sg115
I2
sasS'total_cqs'
p118
I7
ssI10
(dp119
S'iters'
p120
I5
sS'meta'
p121
(lp122
(dp123
S'objective'
p124
I576
sS'query_time'
p125
F0.3702728748321533
sS'comp_time'
p126
F0.007021903991699219
sS'exec_cq'
p127
I51
sS'total_cq'
p128
I51
sa(dp129
g124
I309
sg125
F0.00043702125549316406
sg126
F0.001354217529296875
sg127
I37
sg128
I37
sa(dp130
g124
I3
sg125
F0.001506805419921875
sg126
F0.0005021095275878906
sg127
I12
sg128
I12
sa(dp131
g124
I17
sg125
F6.508827209472656e-05
sg126
F0.00019884109497070312
sg127
I6
sg128
I6
sa(dp132
g124
I9
sg125
F2.7894973754882812e-05
sg126
F9.012222290039062e-05
sg127
I4
sg128
I4
sasS'total_cqs'
p133
I51
ssI11
(dp134
S'iters'
p135
I4
sS'meta'
p136
(lp137
(dp138
S'objective'
p139
I1146
sS'query_time'
p140
F0.6760289669036865
sS'comp_time'
p141
F0.014069318771362305
sS'exec_cq'
p142
I63
sS'total_cq'
p143
I63
sa(dp144
g139
I1041
sg140
F0.0012040138244628906
sg141
F0.00426793098449707
sg142
I47
sg143
I47
sa(dp145
g139
I26
sg140
F0.0017330646514892578
sg141
F0.0010211467742919922
sg142
I9
sg143
I9
sa(dp146
g139
I24
sg140
F3.600120544433594e-05
sg141
F9.226799011230469e-05
sg142
I4
sg143
I4
sasS'total_cqs'
p147
I63
ssI12
(dp148
S'iters'
p149
I4
sS'meta'
p150
(lp151
(dp152
S'objective'
p153
I341
sS'query_time'
p154
F0.449368953704834
sS'comp_time'
p155
F0.0064868927001953125
sS'exec_cq'
p156
I50
sS'total_cq'
p157
I50
sa(dp158
g153
I432
sg154
F0.0004401206970214844
sg155
F0.0016570091247558594
sg156
I33
sg157
I33
sa(dp159
g153
I444
sg154
F0.00012683868408203125
sg155
F0.0003879070281982422
sg156
I26
sg157
I26
sa(dp160
g153
I10
sg154
F0.0026178359985351562
sg155
F0.00019311904907226562
sg156
I4
sg157
I4
sasS'total_cqs'
p161
I50
ssI13
(dp162
S'iters'
p163
I4
sS'meta'
p164
(lp165
(dp166
S'objective'
p167
I14
sS'query_time'
p168
F0.14479708671569824
sS'comp_time'
p169
F0.0004019737243652344
sS'exec_cq'
p170
I20
sS'total_cq'
p171
I20
sa(dp172
g167
I2
sg168
F0.003033876419067383
sg169
F0.00025010108947753906
sg170
I11
sg171
I11
sa(dp173
g167
I1
sg168
F3.409385681152344e-05
sg169
F7.891654968261719e-05
sg170
I5
sg171
I5
sa(dp174
g167
I4
sg168
F1.5020370483398438e-05
sg169
F5.0067901611328125e-05
sg170
I2
sg171
I2
sasS'total_cqs'
p175
I20
ssI14
(dp176
S'iters'
p177
I3
sS'meta'
p178
(lp179
(dp180
S'objective'
p181
I1
sS'query_time'
p182
F27.20924401283264
sS'comp_time'
p183
F1.0386910438537598
sS'exec_cq'
p184
I9
sS'total_cq'
p185
I9
sa(dp186
g181
I3
sg182
F0.00583195686340332
sg183
F0.025511980056762695
sg184
I4
sg185
I4
sa(dp187
g181
I6
sg182
F0.005934000015258789
sg183
F0.10891103744506836
sg184
I2
sg185
I2
sasS'total_cqs'
p188
I9
ssI15
(dp189
S'iters'
p190
I3
sS'meta'
p191
(lp192
(dp193
S'objective'
p194
I0
sS'query_time'
p195
F3.192821979522705
sS'comp_time'
p196
F0.13309311866760254
sS'exec_cq'
p197
I11
sS'total_cq'
p198
I11
sa(dp199
g194
I1
sg195
F0.022405147552490234
sg196
F0.06488609313964844
sg197
I5
sg198
I5
sa(dp200
g194
I4
sg195
F0.015471935272216797
sg196
F0.07253718376159668
sg197
I3
sg198
I3
sasS'total_cqs'
p201
I11
ssI16
(dp202
S'iters'
p203
I1
sS'meta'
p204
(lp205
(dp206
S'objective'
p207
I22
sS'query_time'
p208
F0.020943880081176758
sS'comp_time'
p209
F0.00018525123596191406
sS'exec_cq'
p210
I8
sS'total_cq'
p211
I8
sasS'total_cqs'
p212
I8
ssI17
(dp213
S'iters'
p214
I3
sS'meta'
p215
(lp216
(dp217
S'objective'
p218
I0
sS'query_time'
p219
F0.9101901054382324
sS'comp_time'
p220
F0.02197408676147461
sS'exec_cq'
p221
I11
sS'total_cq'
p222
I11
sa(dp223
g218
I3
sg219
F0.0001811981201171875
sg220
F0.0008561611175537109
sg221
I6
sg222
I6
sa(dp224
g218
I2
sg219
F0.00012803077697753906
sg220
F0.0006830692291259766
sg221
I2
sg222
I2
sasS'total_cqs'
p225
I11
ssI18
(dp226
S'iters'
p227
I2
sS'meta'
p228
(lp229
(dp230
S'objective'
p231
I22
sS'query_time'
p232
F0.25685596466064453
sS'comp_time'
p233
F0.008649110794067383
sS'exec_cq'
p234
I11
sS'total_cq'
p235
I11
sa(dp236
g231
I24
sg232
F0.00024700164794921875
sg233
F0.0011680126190185547
sg234
I8
sg235
I8
sasS'total_cqs'
p237
I11
ssI22
(dp238
S'iters'
p239
I1
sS'meta'
p240
(lp241
(dp242
S'objective'
p243
I141
sS'query_time'
p244
F0.09418797492980957
sS'comp_time'
p245
F0.00017905235290527344
sS'exec_cq'
p246
I18
sS'total_cq'
p247
I18
sasS'total_cqs'
p248
I18
ssI23
(dp249
S'iters'
p250
I1
sS'meta'
p251
(lp252
(dp253
S'objective'
p254
I110
sS'query_time'
p255
F0.07318496704101562
sS'comp_time'
p256
F0.0006561279296875
sS'exec_cq'
p257
I16
sS'total_cq'
p258
I16
sasS'total_cqs'
p259
I16
ssI26
(dp260
S'iters'
p261
I1
sS'meta'
p262
(lp263
(dp264
S'objective'
p265
I837
sS'query_time'
p266
F0.16860389709472656
sS'comp_time'
p267
F0.0001709461212158203
sS'exec_cq'
p268
I42
sS'total_cq'
p269
I42
sasS'total_cqs'
p270
I42
ssI27
(dp271
S'iters'
p272
I3
sS'meta'
p273
(lp274
(dp275
S'objective'
p276
I355
sS'query_time'
p277
F17.1924569606781
sS'comp_time'
p278
F1.810014009475708
sS'exec_cq'
p279
I30
sS'total_cq'
p280
I30
sa(dp281
g276
I3
sg277
F0.3633999824523926
sg278
F1.9379618167877197
sg279
I5
sg280
I5
sa(dp282
g276
I22
sg277
F0.010580062866210938
sg278
F0.04761624336242676
sg279
I2
sg280
I2
sasS'total_cqs'
p283
I30
ssI29
(dp284
S'iters'
p285
I5
sS'meta'
p286
(lp287
(dp288
S'objective'
p289
I331
sS'query_time'
p290
F134.54397106170654
sS'comp_time'
p291
F13.327745914459229
sS'exec_cq'
p292
I49
sS'total_cq'
p293
I49
sa(dp294
g289
I21
sg290
F0.021444082260131836
sg291
F0.04560399055480957
sg292
I17
sg293
I17
sa(dp295
g289
I1
sg290
F0.5792028903961182
sg291
F0.03806900978088379
sg292
I7
sg293
I7
sa(dp296
g289
I0
sg290
F0.0059680938720703125
sg291
F0.025645017623901367
sg292
I4
sg293
I4
sa(dp297
g289
I23
sg290
F0.0017349720001220703
sg291
F0.006960153579711914
sg292
I2
sg293
I2
sasS'total_cqs'
p298
I49
ssI30
(dp299
S'iters'
p300
I1
sS'meta'
p301
(lp302
(dp303
S'objective'
p304
I1
sS'query_time'
p305
F0.6463701725006104
sS'comp_time'
p306
F0.023049116134643555
sS'exec_cq'
p307
I2
sS'total_cq'
p308
I2
sasS'total_cqs'
p309
I2
ssI32
(dp310
S'iters'
p311
I1
sS'meta'
p312
(lp313
(dp314
S'objective'
p315
I1
sS'query_time'
p316
F0.011919021606445312
sS'comp_time'
p317
F0.0002551078796386719
sS'exec_cq'
p318
I2
sS'total_cq'
p319
I2
sasS'total_cqs'
p320
I2
ssI33
(dp321
S'iters'
p322
I5
sS'meta'
p323
(lp324
(dp325
S'objective'
p326
I3312
sS'query_time'
p327
F14.54463791847229
sS'comp_time'
p328
F0.1298511028289795
sS'exec_cq'
p329
I103
sS'total_cq'
p330
I103
sa(dp331
g326
I20
sg327
F0.007858037948608398
sg328
F0.041829824447631836
sg329
I16
sg330
I16
sa(dp332
g326
I17
sg327
F0.002396821975708008
sg328
F0.009022951126098633
sg329
I9
sg330
I9
sa(dp333
g326
I7
sg327
F0.0009739398956298828
sg328
F0.004949092864990234
sg329
I5
sg330
I5
sa(dp334
g326
I25
sg327
F0.0007939338684082031
sg328
F0.004055976867675781
sg329
I3
sg330
I3
sasS'total_cqs'
p335
I103
ssI34
(dp336
S'iters'
p337
I1
sS'meta'
p338
(lp339
(dp340
S'objective'
p341
I1
sS'query_time'
p342
F0.02228713035583496
sS'comp_time'
p343
F0.0006909370422363281
sS'exec_cq'
p344
I2
sS'total_cq'
p345
I2
sasS'total_cqs'
p346
I2
ssI35
(dp347
S'iters'
p348
I13
sS'meta'
p349
(lp350
(dp351
S'objective'
p352
I2367
sS'query_time'
p353
F51.36397099494934
sS'comp_time'
p354
F3.4760639667510986
sS'exec_cq'
p355
I70
sS'total_cq'
p356
I70
sa(dp357
g352
I2324
sg353
F0.8440430164337158
sg354
F3.398883819580078
sg355
I69
sg356
I69
sa(dp358
g352
I2295
sg353
F0.8319540023803711
sg354
F3.391669988632202
sg355
I68
sg356
I68
sa(dp359
g352
I2291
sg353
F0.833859920501709
sg354
F3.266044855117798
sg355
I67
sg356
I67
sa(dp360
g352
I2305
sg353
F0.8279070854187012
sg354
F3.224353075027466
sg355
I66
sg356
I66
sa(dp361
g352
I2141
sg353
F0.00021886825561523438
sg354
F0.04813504219055176
sg355
I65
sg356
I65
sa(dp362
g352
I1865
sg353
F0.29868197441101074
sg354
F0.23444294929504395
sg355
I62
sg356
I62
sa(dp363
g352
I1895
sg353
F0.5577750205993652
sg354
F0.2162947654724121
sg355
I58
sg356
I58
sa(dp364
g352
I1840
sg353
F0.05556178092956543
sg354
F0.05336928367614746
sg355
I56
sg356
I56
sa(dp365
g352
I1333
sg353
F0.3371601104736328
sg354
F0.2009291648864746
sg355
I54
sg356
I54
sa(dp366
g352
I1491
sg353
F0.24500203132629395
sg354
F0.19816994667053223
sg355
I47
sg356
I47
sa(dp367
g352
I1363
sg353
F0.24736976623535156
sg354
F0.1567859649658203
sg355
I45
sg356
I45
sa(dp368
g352
I12
sg353
F0.013486146926879883
sg354
F0.006951093673706055
sg355
I2
sg356
I2
sasS'total_cqs'
p369
I70
ssI36
(dp370
S'iters'
p371
I4
sS'meta'
p372
(lp373
(dp374
S'objective'
p375
I413
sS'query_time'
p376
F0.8000211715698242
sS'comp_time'
p377
F0.026484966278076172
sS'exec_cq'
p378
I33
sS'total_cq'
p379
I33
sa(dp380
g375
I353
sg376
F0.004315853118896484
sg377
F0.020229101181030273
sg378
I29
sg379
I29
sa(dp381
g375
I358
sg376
F0.0015099048614501953
sg377
F0.007511138916015625
sg378
I25
sg379
I25
sa(dp382
g375
I337
sg376
F0.00102996826171875
sg377
F0.004866838455200195
sg378
I24
sg379
I24
sasS'total_cqs'
p383
I33
ssI37
(dp384
S'iters'
p385
I1
sS'meta'
p386
(lp387
(dp388
S'objective'
p389
I1
sS'query_time'
p390
F0.024836063385009766
sS'comp_time'
p391
F0.0003039836883544922
sS'exec_cq'
p392
I2
sS'total_cq'
p393
I2
sasS'total_cqs'
p394
I2
ssI38
(dp395
S'iters'
p396
I2
sS'meta'
p397
(lp398
(dp399
S'objective'
p400
I0
sS'query_time'
p401
F0.0348968505859375
sS'comp_time'
p402
F0.00069427490234375
sS'exec_cq'
p403
I4
sS'total_cq'
p404
I4
sa(dp405
g400
I3
sg401
F6.985664367675781e-05
sg402
F0.0003199577331542969
sg403
I2
sg404
I2
sasS'total_cqs'
p406
I4
ssI39
(dp407
S'iters'
p408
I2
sS'meta'
p409
(lp410
(dp411
S'objective'
p412
I642
sS'query_time'
p413
F0.2619209289550781
sS'comp_time'
p414
F0.0014150142669677734
sS'exec_cq'
p415
I44
sS'total_cq'
p416
I44
sa(dp417
g412
I748
sg413
F0.0003070831298828125
sg414
F0.0010292530059814453
sg415
I37
sg416
I37
sasS'total_cqs'
p418
I44
ssI40
(dp419
S'iters'
p420
I1
sS'meta'
p421
(lp422
(dp423
S'objective'
p424
I14
sS'query_time'
p425
F0.032012939453125
sS'comp_time'
p426
F9.584426879882812e-05
sS'exec_cq'
p427
I7
sS'total_cq'
p428
I7
sasS'total_cqs'
p429
I7
ssI41
(dp430
S'iters'
p431
I1
sS'meta'
p432
(lp433
(dp434
S'objective'
p435
I58
sS'query_time'
p436
F0.0720682144165039
sS'comp_time'
p437
F0.00015306472778320312
sS'exec_cq'
p438
I12
sS'total_cq'
p439
I12
sasS'total_cqs'
p440
I12
ssI42
(dp441
S'iters'
p442
I2
sS'meta'
p443
(lp444
(dp445
S'objective'
p446
I781
sS'query_time'
p447
F0.11515593528747559
sS'comp_time'
p448
F0.00017523765563964844
sS'exec_cq'
p449
I41
sS'total_cq'
p450
I41
sa(dp451
g446
I757
sg447
F0.00013399124145507812
sg448
F9.822845458984375e-05
sg449
I40
sg450
I40
sasS'total_cqs'
p452
I41
ssI43
(dp453
S'iters'
p454
I1
sS'meta'
p455
(lp456
(dp457
S'objective'
p458
I14
sS'query_time'
p459
F0.04045891761779785
sS'comp_time'
p460
F9.298324584960938e-05
sS'exec_cq'
p461
I7
sS'total_cq'
p462
I7
sasS'total_cqs'
p463
I7
ssI44
(dp464
S'iters'
p465
I4
sS'meta'
p466
(lp467
(dp468
S'objective'
p469
I784
sS'query_time'
p470
F0.21783804893493652
sS'comp_time'
p471
F0.001298666000366211
sS'exec_cq'
p472
I47
sS'total_cq'
p473
I47
sa(dp474
g469
I764
sg470
F0.00026488304138183594
sg471
F0.0008618831634521484
sg472
I40
sg473
I40
sa(dp475
g469
I12
sg470
F0.0015058517456054688
sg471
F0.0005838871002197266
sg472
I3
sg473
I3
sa(dp476
g469
I20
sg470
F2.47955322265625e-05
sg471
F9.369850158691406e-05
sg472
I2
sg473
I2
sasS'total_cqs'
p477
I47
ssI46
(dp478
S'iters'
p479
I1
sS'meta'
p480
(lp481
(dp482
S'objective'
p483
I9
sS'query_time'
p484
F0.027659893035888672
sS'comp_time'
p485
F0.00028586387634277344
sS'exec_cq'
p486
I6
sS'total_cq'
p487
I6
sasS'total_cqs'
p488
I6
ssI47
(dp489
S'iters'
p490
I1
sS'meta'
p491
(lp492
(dp493
S'objective'
p494
I1
sS'query_time'
p495
F0.013073921203613281
sS'comp_time'
p496
F0.0003349781036376953
sS'exec_cq'
p497
I2
sS'total_cq'
p498
I2
sasS'total_cqs'
p499
I2
ssI50
(dp500
S'iters'
p501
I1
sS'meta'
p502
(lp503
(dp504
S'objective'
p505
I5
sS'query_time'
p506
F0.016638994216918945
sS'comp_time'
p507
F0.0001518726348876953
sS'exec_cq'
p508
I5
sS'total_cq'
p509
I5
sasS'total_cqs'
p510
I5
ssI51
(dp511
S'iters'
p512
I1
sS'meta'
p513
(lp514
(dp515
S'objective'
p516
I1
sS'query_time'
p517
F0.0204770565032959
sS'comp_time'
p518
F0.00015807151794433594
sS'exec_cq'
p519
I2
sS'total_cq'
p520
I2
sasS'total_cqs'
p521
I2
ssI52
(dp522
S'iters'
p523
I1
sS'meta'
p524
(lp525
(dp526
S'objective'
p527
I1
sS'query_time'
p528
F0.008994817733764648
sS'comp_time'
p529
F0.0001881122589111328
sS'exec_cq'
p530
I2
sS'total_cq'
p531
I2
sasS'total_cqs'
p532
I2
ssI53
(dp533
S'iters'
p534
I1
sS'meta'
p535
(lp536
(dp537
S'objective'
p538
I2
sS'query_time'
p539
F0.022363901138305664
sS'comp_time'
p540
F0.0009348392486572266
sS'exec_cq'
p541
I4
sS'total_cq'
p542
I4
sasS'total_cqs'
p543
I4
ssI54
(dp544
S'iters'
p545
I2
sS'meta'
p546
(lp547
(dp548
S'objective'
p549
I0
sS'query_time'
p550
F0.011257171630859375
sS'comp_time'
p551
F0.00028014183044433594
sS'exec_cq'
p552
I3
sS'total_cq'
p553
I3
sa(dp554
g549
I1
sg550
F4.220008850097656e-05
sg551
F0.0002009868621826172
sg552
I2
sg553
I2
sasS'total_cqs'
p555
I3
ssI55
(dp556
S'iters'
p557
I6
sS'meta'
p558
(lp559
(dp560
S'objective'
p561
I4499
sS'query_time'
p562
F2.395328998565674
sS'comp_time'
p563
F0.030987024307250977
sS'exec_cq'
p564
I109
sS'total_cq'
p565
I109
sa(dp566
g561
I4431
sg562
F0.0007538795471191406
sg563
F0.0016131401062011719
sg564
I97
sg565
I97
sa(dp567
g561
I4415
sg562
F0.0003020763397216797
sg563
F0.0007779598236083984
sg564
I91
sg565
I91
sa(dp568
g561
I4225
sg562
F0.0002810955047607422
sg563
F0.000759124755859375
sg564
I87
sg565
I87
sa(dp569
g561
I4116
sg562
F0.0002741813659667969
sg563
F0.0007987022399902344
sg564
I85
sg565
I85
sa(dp570
g561
I4105
sg562
F0.00024700164794921875
sg563
F0.0005280971527099609
sg564
I83
sg565
I83
sasS'total_cqs'
p571
I109
ssI56
(dp572
S'iters'
p573
I5
sS'meta'
p574
(lp575
(dp576
S'objective'
p577
I1916
sS'query_time'
p578
F3.4278998374938965
sS'comp_time'
p579
F0.1847219467163086
sS'exec_cq'
p580
I76
sS'total_cq'
p581
I76
sa(dp582
g577
I1
sg578
F0.0053141117095947266
sg579
F0.009463071823120117
sg580
I16
sg581
I16
sa(dp583
g577
I24
sg578
F0.003011941909790039
sg579
F0.007702827453613281
sg580
I9
sg581
I9
sa(dp584
g577
I0
sg578
F0.0008211135864257812
sg579
F0.003957986831665039
sg580
I5
sg581
I5
sa(dp585
g577
I47
sg578
F0.00010991096496582031
sg579
F0.0006289482116699219
sg580
I2
sg581
I2
sasS'total_cqs'
p586
I76
ssI57
(dp587
S'iters'
p588
I5
sS'meta'
p589
(lp590
(dp591
S'objective'
p592
I122
sS'query_time'
p593
F68.01855897903442
sS'comp_time'
p594
F3.645066976547241
sS'exec_cq'
p595
I51
sS'total_cq'
p596
I51
sa(dp597
g592
I0
sg593
F0.013269901275634766
sg594
F0.028989791870117188
sg595
I27
sg596
I27
sa(dp598
g592
I4
sg593
F0.002273082733154297
sg594
F0.0061070919036865234
sg595
I12
sg596
I12
sa(dp599
g592
I9
sg593
F0.001522064208984375
sg594
F0.0042531490325927734
sg595
I6
sg596
I6
sa(dp600
g592
I5
sg593
F0.0002090930938720703
sg594
F0.0010547637939453125
sg595
I2
sg596
I2
sasS'total_cqs'
p601
I51
ssI58
(dp602
S'iters'
p603
I8
sS'meta'
p604
(lp605
(dp606
S'objective'
p607
I86077
sS'query_time'
p608
F292.40663599967957
sS'comp_time'
p609
F16.78948402404785
sS'exec_cq'
p610
I486
sS'total_cq'
p611
I486
sa(dp612
g607
I10096
sg608
F0.03480386734008789
sg609
F0.19251203536987305
sg610
I64
sg611
I64
sa(dp613
g607
I654
sg608
F0.02503490447998047
sg609
F0.31595325469970703
sg610
I52
sg611
I52
sa(dp614
g607
I6
sg608
F0.017965078353881836
sg609
F1.0899829864501953
sg610
I32
sg611
I32
sa(dp615
g607
I5
sg608
F0.008736133575439453
sg609
F0.05870985984802246
sg610
I15
sg611
I15
sa(dp616
g607
I16
sg608
F0.0044209957122802734
sg609
F0.011991024017333984
sg610
I7
sg611
I7
sa(dp617
g607
I16
sg608
F0.002714872360229492
sg609
F0.010179996490478516
sg610
I5
sg611
I5
sa(dp618
g607
I298
sg608
F0.0015430450439453125
sg609
F0.008245229721069336
sg610
I2
sg611
I2
sasS'total_cqs'
p619
I486
ssI59
(dp620
S'iters'
p621
I2
sS'meta'
p622
(lp623
(dp624
S'objective'
p625
I12
sS'query_time'
p626
F0.0523531436920166
sS'comp_time'
p627
F0.0008997917175292969
sS'exec_cq'
p628
I7
sS'total_cq'
p629
I7
sa(dp630
g625
I6
sg626
F0.00015807151794433594
sg627
F0.0008528232574462891
sg628
I2
sg629
I2
sasS'total_cqs'
p631
I7
ssI60
(dp632
S'iters'
p633
I1
sS'meta'
p634
(lp635
(dp636
S'objective'
p637
I5
sS'query_time'
p638
F0.02656102180480957
sS'comp_time'
p639
F0.0008990764617919922
sS'exec_cq'
p640
I5
sS'total_cq'
p641
I5
sasS'total_cqs'
p642
I5
ssI62
(dp643
S'iters'
p644
I3
sS'meta'
p645
(lp646
(dp647
S'objective'
p648
I50
sS'query_time'
p649
F0.03638410568237305
sS'comp_time'
p650
F0.0001690387725830078
sS'exec_cq'
p651
I12
sS'total_cq'
p652
I12
sa(dp653
g648
I42
sg649
F4.291534423828125e-05
sg650
F6.818771362304688e-05
sg651
I9
sg652
I9
sa(dp654
g648
I33
sg649
F3.504753112792969e-05
sg650
F6.413459777832031e-05
sg651
I8
sg652
I8
sasS'total_cqs'
p655
I12
ssI64
(dp656
S'iters'
p657
I3
sS'meta'
p658
(lp659
(dp660
S'objective'
p661
I30
sS'query_time'
p662
F0.13043498992919922
sS'comp_time'
p663
F0.007330179214477539
sS'exec_cq'
p664
I12
sS'total_cq'
p665
I12
sa(dp666
g661
I0
sg662
F9.107589721679688e-05
sg663
F0.0003440380096435547
sg664
I4
sg665
I4
sa(dp667
g661
I8
sg662
F4.291534423828125e-05
sg663
F0.00015616416931152344
sg664
I2
sg665
I2
sasS'total_cqs'
p668
I12
ssI65
(dp669
S'iters'
p670
I4
sS'meta'
p671
(lp672
(dp673
S'objective'
p674
I160
sS'query_time'
p675
F0.8436450958251953
sS'comp_time'
p676
F0.03906893730163574
sS'exec_cq'
p677
I27
sS'total_cq'
p678
I27
sa(dp679
g674
I3
sg675
F0.001631021499633789
sg676
F0.0052089691162109375
sg677
I7
sg678
I7
sa(dp680
g674
I2
sg675
F0.0007159709930419922
sg676
F0.0034439563751220703
sg677
I3
sg678
I3
sa(dp681
g674
I15
sg675
F0.0003058910369873047
sg676
F0.0019259452819824219
sg677
I2
sg678
I2
sasS'total_cqs'
p682
I27
ssI67
(dp683
S'iters'
p684
I2
sS'meta'
p685
(lp686
(dp687
S'objective'
p688
I506
sS'query_time'
p689
F1.3768839836120605
sS'comp_time'
p690
F0.011944770812988281
sS'exec_cq'
p691
I35
sS'total_cq'
p692
I35
sa(dp693
g688
I6
sg689
F0.0010669231414794922
sg690
F0.005264759063720703
sg691
I2
sg692
I2
sasS'total_cqs'
p694
I35
ssI69
(dp695
S'iters'
p696
I1
sS'meta'
p697
(lp698
(dp699
S'objective'
p700
I1246
sS'query_time'
p701
F0.20563507080078125
sS'comp_time'
p702
F0.00023221969604492188
sS'exec_cq'
p703
I51
sS'total_cq'
p704
I51
sasS'total_cqs'
p705
I51
ssI70
(dp706
S'iters'
p707
I1
sS'meta'
p708
(lp709
(dp710
S'objective'
p711
I9
sS'query_time'
p712
F0.02115011215209961
sS'comp_time'
p713
F0.00023412704467773438
sS'exec_cq'
p714
I6
sS'total_cq'
p715
I6
sasS'total_cqs'
p716
I6
ssI71
(dp717
S'iters'
p718
I3
sS'meta'
p719
(lp720
(dp721
S'objective'
p722
I3235
sS'query_time'
p723
F0.3832130432128906
sS'comp_time'
p724
F0.0008609294891357422
sS'exec_cq'
p725
I85
sS'total_cq'
p726
I85
sa(dp727
g722
I3193
sg723
F0.0003719329833984375
sg724
F0.0008730888366699219
sg725
I81
sg726
I81
sa(dp728
g722
I4
sg723
F0.0018489360809326172
sg724
F0.0001697540283203125
sg725
I3
sg726
I3
sasS'total_cqs'
p729
I85
ssI72
(dp730
S'iters'
p731
I3
sS'meta'
p732
(lp733
(dp734
S'objective'
p735
I10
sS'query_time'
p736
F0.3662409782409668
sS'comp_time'
p737
F0.00738978385925293
sS'exec_cq'
p738
I8
sS'total_cq'
p739
I8
sa(dp740
g735
I5
sg736
F0.00012993812561035156
sg737
F0.0004439353942871094
sg738
I5
sg739
I5
sa(dp741
g735
I0
sg736
F0.00011610984802246094
sg737
F0.0003731250762939453
sg738
I3
sg739
I3
sasS'total_cqs'
p742
I8
ssI75
(dp743
S'iters'
p744
I1
sS'meta'
p745
(lp746
(dp747
S'objective'
p748
I5
sS'query_time'
p749
F0.011819839477539062
sS'comp_time'
p750
F0.0001201629638671875
sS'exec_cq'
p751
I5
sS'total_cq'
p752
I5
sasS'total_cqs'
p753
I5
ssI76
(dp754
S'iters'
p755
I1
sS'meta'
p756
(lp757
(dp758
S'objective'
p759
I1
sS'query_time'
p760
F0.012253046035766602
sS'comp_time'
p761
F0.00031304359436035156
sS'exec_cq'
p762
I2
sS'total_cq'
p763
I2
sasS'total_cqs'
p764
I2
ssI103
(dp765
S'iters'
p766
I1
sS'meta'
p767
(lp768
(dp769
S'objective'
p770
I58
sS'query_time'
p771
F0.08768200874328613
sS'comp_time'
p772
F0.00018310546875
sS'exec_cq'
p773
I12
sS'total_cq'
p774
I12
sasS'total_cqs'
p775
I12
ssI104
(dp776
S'iters'
p777
I2
sS'meta'
p778
(lp779
(dp780
S'objective'
p781
I0
sS'query_time'
p782
F1.6967589855194092
sS'comp_time'
p783
F0.09988093376159668
sS'exec_cq'
p784
I4
sS'total_cq'
p785
I4
sa(dp786
g781
I3
sg782
F0.013741016387939453
sg783
F0.12568306922912598
sg784
I2
sg785
I2
sasS'total_cqs'
p787
I4
ssI106
(dp788
S'iters'
p789
I1
sS'meta'
p790
(lp791
(dp792
S'objective'
p793
I2
sS'query_time'
p794
F0.02262592315673828
sS'comp_time'
p795
F9.298324584960938e-05
sS'exec_cq'
p796
I4
sS'total_cq'
p797
I4
sasS'total_cqs'
p798
I4
ssI107
(dp799
S'iters'
p800
I2
sS'meta'
p801
(lp802
(dp803
S'objective'
p804
I72
sS'query_time'
p805
F0.09929203987121582
sS'comp_time'
p806
F0.00017213821411132812
sS'exec_cq'
p807
I16
sS'total_cq'
p808
I16
sa(dp809
g804
I6
sg805
F0.006537914276123047
sg806
F0.00010418891906738281
sg807
I3
sg808
I3
sasS'total_cqs'
p810
I16
ss.