(dp0
I1
(dp1
S'iters'
p2
I1
sS'meta'
p3
(lp4
(dp5
S'objective'
p6
I54
sS'query_time'
p7
F0.06974101066589355
sS'comp_time'
p8
F0.02072596549987793
sS'exec_cq'
p9
I12
sS'total_cq'
p10
I12
sasS'total_cqs'
p11
I12
ssI2
(dp12
S'iters'
p13
I4
sS'meta'
p14
(lp15
(dp16
S'objective'
p17
I230
sS'query_time'
p18
F0.08012890815734863
sS'comp_time'
p19
F0.03670072555541992
sS'exec_cq'
p20
I13
sS'total_cq'
p21
I27
sa(dp22
g17
I218
sg18
F0.07908296585083008
sg19
F0.0007610321044921875
sg20
I14
sg21
I23
sa(dp23
g17
I187
sg18
F0.0001068115234375
sg19
F0.0005357265472412109
sg20
I12
sg21
I21
sa(dp24
g17
I170
sg18
F5.507469177246094e-05
sg19
F0.0002560615539550781
sg20
I9
sg21
I18
sasS'total_cqs'
p25
I27
ssI3
(dp26
S'iters'
p27
I4
sS'meta'
p28
(lp29
(dp30
S'objective'
p31
I186
sS'query_time'
p32
F120.06431317329407
sS'comp_time'
p33
F2.532632350921631
sS'exec_cq'
p34
I14
sS'total_cq'
p35
I43
sa(dp36
g31
I62
sg32
F65.57639694213867
sg33
F0.5053141117095947
sg34
I16
sg35
I29
sa(dp37
g31
I38
sg32
F42.04276895523071
sg33
F0.6854350566864014
sg34
I9
sg35
I13
sa(dp38
g31
I21
sg32
F11.529253005981445
sg33
F0.002718210220336914
sg34
I6
sg35
I6
sasS'total_cqs'
p39
I43
ssI4
(dp40
S'iters'
p41
I2
sS'meta'
p42
(lp43
(dp44
S'objective'
p45
I42
sS'query_time'
p46
F4.736474990844727
sS'comp_time'
p47
F0.8545053005218506
sS'exec_cq'
p48
I11
sS'total_cq'
p49
I11
sa(dp50
g45
I10
sg46
F0.19893789291381836
sg47
F0.8676662445068359
sg48
I2
sg49
I2
sasS'total_cqs'
p51
I11
ssI5
(dp52
S'iters'
p53
I2
sS'meta'
p54
(lp55
(dp56
S'objective'
p57
I0
sS'query_time'
p58
F35.56175899505615
sS'comp_time'
p59
F3.960522174835205
sS'exec_cq'
p60
I8
sS'total_cq'
p61
I8
sa(dp62
g57
I2
sg58
F0.3894789218902588
sg59
F1.6868500709533691
sg60
I3
sg61
I3
sasS'total_cqs'
p63
I8
ssI6
(dp64
S'iters'
p65
I3
sS'meta'
p66
(lp67
(dp68
S'objective'
p69
I1
sS'query_time'
p70
F37.85926914215088
sS'comp_time'
p71
F3.951754093170166
sS'exec_cq'
p72
I18
sS'total_cq'
p73
I18
sa(dp74
g69
I1
sg70
F0.6115279197692871
sg71
F3.4484550952911377
sg72
I6
sg73
I6
sa(dp75
g69
I6
sg70
F0.10585999488830566
sg71
F1.5342087745666504
sg72
I3
sg73
I3
sasS'total_cqs'
p76
I18
ssI7
(dp77
S'iters'
p78
I3
sS'meta'
p79
(lp80
(dp81
S'objective'
p82
I1
sS'query_time'
p83
F11.9148108959198
sS'comp_time'
p84
F1.726078987121582
sS'exec_cq'
p85
I9
sS'total_cq'
p86
I9
sa(dp87
g82
I0
sg83
F0.2138679027557373
sg84
F0.9134135246276855
sg85
I4
sg86
I4
sa(dp88
g82
I7
sg83
F0.0030472278594970703
sg84
F0.016269922256469727
sg85
I2
sg86
I2
sasS'total_cqs'
p89
I9
ssI8
(dp90
S'iters'
p91
I2
sS'meta'
p92
(lp93
(dp94
S'objective'
p95
I298
sS'query_time'
p96
F0.0557100772857666
sS'comp_time'
p97
F0.02790093421936035
sS'exec_cq'
p98
I13
sS'total_cq'
p99
I27
sa(dp100
g95
I14
sg96
F0.0009469985961914062
sg97
F0.0006480216979980469
sg98
I2
sg99
I2
sasS'total_cqs'
p101
I27
ssI9
(dp102
S'iters'
p103
I2
sS'meta'
p104
(lp105
(dp106
S'objective'
p107
I6
sS'query_time'
p108
F0.04933786392211914
sS'comp_time'
p109
F0.004559040069580078
sS'exec_cq'
p110
I7
sS'total_cq'
p111
I7
sa(dp112
g107
I3
sg108
F1.6927719116210938e-05
sg109
F0.0001919269561767578
sg110
I2
sg111
I2
sasS'total_cqs'
p113
I7
ssI10
(dp114
S'iters'
p115
I5
sS'meta'
p116
(lp117
(dp118
S'objective'
p119
I442
sS'query_time'
p120
F0.19930195808410645
sS'comp_time'
p121
F0.09874773025512695
sS'exec_cq'
p122
I28
sS'total_cq'
p123
I51
sa(dp124
g119
I374
sg120
F0.14301300048828125
sg121
F0.001766204833984375
sg122
I23
sg123
I37
sa(dp125
g119
I1
sg120
F0.002463102340698242
sg121
F0.0012731552124023438
sg122
I12
sg123
I12
sa(dp126
g119
I9
sg120
F5.888938903808594e-05
sg121
F0.00033664703369140625
sg122
I5
sg123
I5
sa(dp127
g119
I34
sg120
F2.193450927734375e-05
sg121
F0.00013589859008789062
sg122
I2
sg123
I2
sasS'total_cqs'
p128
I51
ssI11
(dp129
S'iters'
p130
I5
sS'meta'
p131
(lp132
(dp133
S'objective'
p134
I872
sS'query_time'
p135
F0.538459062576294
sS'comp_time'
p136
F0.17783284187316895
sS'exec_cq'
p137
I63
sS'total_cq'
p138
I63
sa(dp139
g134
I666
sg135
F0.0013768672943115234
sg136
F0.007150173187255859
sg137
I47
sg138
I47
sa(dp140
g134
I45
sg135
F0.002563953399658203
sg136
F0.002942800521850586
sg137
I9
sg138
I9
sa(dp141
g134
I28
sg135
F3.600120544433594e-05
sg136
F0.00021839141845703125
sg137
I4
sg138
I4
sa(dp142
g134
I54
sg135
F1.811981201171875e-05
sg136
F0.0001900196075439453
sg137
I2
sg138
I2
sasS'total_cqs'
p143
I63
ssI12
(dp144
S'iters'
p145
I4
sS'meta'
p146
(lp147
(dp148
S'objective'
p149
I275
sS'query_time'
p150
F0.19946694374084473
sS'comp_time'
p151
F0.08851814270019531
sS'exec_cq'
p152
I28
sS'total_cq'
p153
I50
sa(dp154
g149
I407
sg150
F0.1911458969116211
sg151
F0.0033092498779296875
sg152
I22
sg153
I33
sa(dp155
g149
I14
sg150
F0.002254962921142578
sg151
F0.0019481182098388672
sg152
I8
sg153
I8
sa(dp156
g149
I15
sg150
F5.4836273193359375e-05
sg151
F0.00025010108947753906
sg152
I5
sg153
I5
sasS'total_cqs'
p157
I50
ssI13
(dp158
S'iters'
p159
I3
sS'meta'
p160
(lp161
(dp162
S'objective'
p163
I8
sS'query_time'
p164
F0.12411904335021973
sS'comp_time'
p165
F0.03787493705749512
sS'exec_cq'
p166
I20
sS'total_cq'
p167
I20
sa(dp168
g163
I51
sg164
F4.100799560546875e-05
sg165
F0.0004019737243652344
sg166
I9
sg167
I9
sa(dp169
g163
I11
sg164
F0.001180887222290039
sg165
F0.0001468658447265625
sg166
I2
sg167
I2
sasS'total_cqs'
p170
I20
ssI14
(dp171
S'iters'
p172
I3
sS'meta'
p173
(lp174
(dp175
S'objective'
p176
I1
sS'query_time'
p177
F34.80621600151062
sS'comp_time'
p178
F2.4590342044830322
sS'exec_cq'
p179
I9
sS'total_cq'
p180
I9
sa(dp181
g176
I2
sg177
F0.011020898818969727
sg178
F0.24172616004943848
sg179
I5
sg180
I5
sa(dp182
g176
I6
sg177
F0.007542848587036133
sg178
F0.03839731216430664
sg179
I2
sg180
I2
sasS'total_cqs'
p183
I9
ssI15
(dp184
S'iters'
p185
I3
sS'meta'
p186
(lp187
(dp188
S'objective'
p189
I2
sS'query_time'
p190
F4.015244960784912
sS'comp_time'
p191
F0.3273611068725586
sS'exec_cq'
p192
I11
sS'total_cq'
p193
I11
sa(dp194
g189
I0
sg190
F0.05047202110290527
sg191
F0.3031613826751709
sg192
I5
sg193
I5
sa(dp195
g189
I5
sg190
F0.012281179428100586
sg191
F0.21295881271362305
sg192
I2
sg193
I2
sasS'total_cqs'
p196
I11
ssI16
(dp197
S'iters'
p198
I1
sS'meta'
p199
(lp200
(dp201
S'objective'
p202
I20
sS'query_time'
p203
F0.03499794006347656
sS'comp_time'
p204
F0.004465818405151367
sS'exec_cq'
p205
I8
sS'total_cq'
p206
I8
sasS'total_cqs'
p207
I8
ssI17
(dp208
S'iters'
p209
I3
sS'meta'
p210
(lp211
(dp212
S'objective'
p213
I0
sS'query_time'
p214
F1.0869619846343994
sS'comp_time'
p215
F0.0488133430480957
sS'exec_cq'
p216
I11
sS'total_cq'
p217
I11
sa(dp218
g213
I1
sg214
F0.0026040077209472656
sg215
F0.013028383255004883
sg216
I4
sg217
I4
sa(dp219
g213
I5
sg214
F0.00022292137145996094
sg215
F0.0014688968658447266
sg216
I2
sg217
I2
sasS'total_cqs'
p220
I11
ssI18
(dp221
S'iters'
p222
I1
sS'meta'
p223
(lp224
(dp225
S'objective'
p226
I44
sS'query_time'
p227
F0.19776582717895508
sS'comp_time'
p228
F0.023102283477783203
sS'exec_cq'
p229
I10
sS'total_cq'
p230
I11
sasS'total_cqs'
p231
I11
ssI19
(dp232
S'iters'
p233
I0
sS'meta'
p234
(lp235
sS'total_cqs'
p236
I1
ssI20
(dp237
S'iters'
p238
I0
sS'meta'
p239
(lp240
sS'total_cqs'
p241
I1
ssI21
(dp242
S'iters'
p243
I0
sS'meta'
p244
(lp245
sS'total_cqs'
p246
I1
ssI22
(dp247
S'iters'
p248
I1
sS'meta'
p249
(lp250
(dp251
S'objective'
p252
I135
sS'query_time'
p253
F0.05602717399597168
sS'comp_time'
p254
F0.03128814697265625
sS'exec_cq'
p255
I18
sS'total_cq'
p256
I18
sasS'total_cqs'
p257
I18
ssI23
(dp258
S'iters'
p259
I1
sS'meta'
p260
(lp261
(dp262
S'objective'
p263
I104
sS'query_time'
p264
F0.07615017890930176
sS'comp_time'
p265
F0.024843931198120117
sS'exec_cq'
p266
I8
sS'total_cq'
p267
I16
sasS'total_cqs'
p268
I16
ssI24
(dp269
S'iters'
p270
I0
sS'meta'
p271
(lp272
sS'total_cqs'
p273
I1
ssI25
(dp274
S'iters'
p275
I0
sS'meta'
p276
(lp277
sS'total_cqs'
p278
I1
ssI26
(dp279
S'iters'
p280
I1
sS'meta'
p281
(lp282
(dp283
S'objective'
p284
I819
sS'query_time'
p285
F0.16914916038513184
sS'comp_time'
p286
F0.13169002532958984
sS'exec_cq'
p287
I42
sS'total_cq'
p288
I42
sasS'total_cqs'
p289
I42
ssI27
(dp290
S'iters'
p291
I2
sS'meta'
p292
(lp293
(dp294
S'objective'
p295
I363
sS'query_time'
p296
F23.152076959609985
sS'comp_time'
p297
F4.777099132537842
sS'exec_cq'
p298
I30
sS'total_cq'
p299
I30
sa(dp300
g295
I9
sg296
F0.8134701251983643
sg297
F3.59930682182312
sg298
I5
sg299
I5
sasS'total_cqs'
p301
I30
ssI28
(dp302
S'iters'
p303
I0
sS'meta'
p304
(lp305
sS'total_cqs'
p306
I1
ssI29
(dp307
S'iters'
p308
I4
sS'meta'
p309
(lp310
(dp311
S'objective'
p312
I309
sS'query_time'
p313
F27.444499969482422
sS'comp_time'
p314
F0.849050760269165
sS'exec_cq'
p315
I35
sS'total_cq'
p316
I49
sa(dp317
g312
I12
sg313
F0.08042407035827637
sg314
F0.6844420433044434
sg315
I17
sg316
I17
sa(dp318
g312
I9
sg313
F0.04925203323364258
sg314
F0.41785097122192383
sg315
I6
sg316
I6
sa(dp319
g312
I9
sg313
F0.003864765167236328
sg314
F0.16603493690490723
sg315
I3
sg316
I3
sasS'total_cqs'
p320
I49
ssI30
(dp321
S'iters'
p322
I1
sS'meta'
p323
(lp324
(dp325
S'objective'
p326
I1
sS'query_time'
p327
F0.6148810386657715
sS'comp_time'
p328
F0.044797420501708984
sS'exec_cq'
p329
I2
sS'total_cq'
p330
I2
sasS'total_cqs'
p331
I2
ssI31
(dp332
S'iters'
p333
I0
sS'meta'
p334
(lp335
sS'total_cqs'
p336
I1
ssI32
(dp337
S'iters'
p338
I1
sS'meta'
p339
(lp340
(dp341
S'objective'
p342
I1
sS'query_time'
p343
F0.015164852142333984
sS'comp_time'
p344
F0.003400087356567383
sS'exec_cq'
p345
I2
sS'total_cq'
p346
I2
sasS'total_cqs'
p347
I2
ssI33
(dp348
S'iters'
p349
I4
sS'meta'
p350
(lp351
(dp352
S'objective'
p353
I3694
sS'query_time'
p354
F16.000350952148438
sS'comp_time'
p355
F1.0600900650024414
sS'exec_cq'
p356
I103
sS'total_cq'
p357
I103
sa(dp358
g353
I17
sg354
F0.009547948837280273
sg355
F0.028560876846313477
sg356
I16
sg357
I16
sa(dp359
g353
I3
sg354
F0.004055976867675781
sg355
F0.015966415405273438
sg356
I9
sg357
I9
sa(dp360
g353
I1
sg354
F0.0005550384521484375
sg355
F0.0026793479919433594
sg356
I3
sg357
I3
sasS'total_cqs'
p361
I103
ssI34
(dp362
S'iters'
p363
I1
sS'meta'
p364
(lp365
(dp366
S'objective'
p367
I1
sS'query_time'
p368
F0.026488065719604492
sS'comp_time'
p369
F0.0021147727966308594
sS'exec_cq'
p370
I2
sS'total_cq'
p371
I2
sasS'total_cqs'
p372
I2
ssI35
(dp373
S'iters'
p374
I4
sS'meta'
p375
(lp376
(dp377
S'objective'
p378
I1463
sS'query_time'
p379
F21.713696002960205
sS'comp_time'
p380
F0.26900601387023926
sS'exec_cq'
p381
I50
sS'total_cq'
p382
I70
sa(dp383
g378
I53
sg379
F0.18551301956176758
sg380
F0.015673160552978516
sg381
I16
sg382
I16
sa(dp384
g378
I16
sg379
F0.0027620792388916016
sg380
F0.010565757751464844
sg381
I9
sg382
I9
sa(dp385
g378
I7
sg379
F0.0012350082397460938
sg380
F0.006506919860839844
sg381
I3
sg382
I3
sasS'total_cqs'
p386
I70
ssI36
(dp387
S'iters'
p388
I1
sS'meta'
p389
(lp390
(dp391
S'objective'
p392
I495
sS'query_time'
p393
F0.7042028903961182
sS'comp_time'
p394
F0.13230395317077637
sS'exec_cq'
p395
I28
sS'total_cq'
p396
I33
sasS'total_cqs'
p397
I33
ssI37
(dp398
S'iters'
p399
I1
sS'meta'
p400
(lp401
(dp402
S'objective'
p403
I1
sS'query_time'
p404
F0.008504867553710938
sS'comp_time'
p405
F0.0012748241424560547
sS'exec_cq'
p406
I2
sS'total_cq'
p407
I2
sasS'total_cqs'
p408
I2
ssI38
(dp409
S'iters'
p410
I2
sS'meta'
p411
(lp412
(dp413
S'objective'
p414
I0
sS'query_time'
p415
F0.02618885040283203
sS'comp_time'
p416
F0.002718210220336914
sS'exec_cq'
p417
I4
sS'total_cq'
p418
I4
sa(dp419
g414
I3
sg415
F8.916854858398438e-05
sg416
F0.0004971027374267578
sg417
I2
sg418
I2
sasS'total_cqs'
p420
I4
ssI39
(dp421
S'iters'
p422
I2
sS'meta'
p423
(lp424
(dp425
S'objective'
p426
I696
sS'query_time'
p427
F0.24872517585754395
sS'comp_time'
p428
F0.08824014663696289
sS'exec_cq'
p429
I44
sS'total_cq'
p430
I44
sa(dp431
g426
I755
sg427
F0.0003509521484375
sg428
F0.0020177364349365234
sg429
I37
sg430
I37
sasS'total_cqs'
p432
I44
ssI40
(dp433
S'iters'
p434
I1
sS'meta'
p435
(lp436
(dp437
S'objective'
p438
I14
sS'query_time'
p439
F0.058645009994506836
sS'comp_time'
p440
F0.005491971969604492
sS'exec_cq'
p441
I7
sS'total_cq'
p442
I7
sasS'total_cqs'
p443
I7
ssI41
(dp444
S'iters'
p445
I1
sS'meta'
p446
(lp447
(dp448
S'objective'
p449
I54
sS'query_time'
p450
F0.07059693336486816
sS'comp_time'
p451
F0.016126632690429688
sS'exec_cq'
p452
I12
sS'total_cq'
p453
I12
sasS'total_cqs'
p454
I12
ssI42
(dp455
S'iters'
p456
I1
sS'meta'
p457
(lp458
(dp459
S'objective'
p460
I779
sS'query_time'
p461
F0.23752689361572266
sS'comp_time'
p462
F0.13427495956420898
sS'exec_cq'
p463
I21
sS'total_cq'
p464
I41
sasS'total_cqs'
p465
I41
ssI43
(dp466
S'iters'
p467
I1
sS'meta'
p468
(lp469
(dp470
S'objective'
p471
I14
sS'query_time'
p472
F0.04025006294250488
sS'comp_time'
p473
F0.006620883941650391
sS'exec_cq'
p474
I7
sS'total_cq'
p475
I7
sasS'total_cqs'
p476
I7
ssI44
(dp477
S'iters'
p478
I3
sS'meta'
p479
(lp480
(dp481
S'objective'
p482
I918
sS'query_time'
p483
F0.1999819278717041
sS'comp_time'
p484
F0.19401907920837402
sS'exec_cq'
p485
I47
sS'total_cq'
p486
I47
sa(dp487
g482
I43
sg483
F0.001157999038696289
sg484
F0.002069711685180664
sg485
I3
sg486
I3
sa(dp488
g482
I20
sg483
F2.384185791015625e-05
sg484
F0.0001380443572998047
sg485
I2
sg486
I2
sasS'total_cqs'
p489
I47
ssI45
(dp490
S'iters'
p491
I0
sS'meta'
p492
(lp493
sS'total_cqs'
p494
I1
ssI46
(dp495
S'iters'
p496
I1
sS'meta'
p497
(lp498
(dp499
S'objective'
p500
I9
sS'query_time'
p501
F0.01413416862487793
sS'comp_time'
p502
F0.0028238296508789062
sS'exec_cq'
p503
I4
sS'total_cq'
p504
I6
sasS'total_cqs'
p505
I6
ssI47
(dp506
S'iters'
p507
I1
sS'meta'
p508
(lp509
(dp510
S'objective'
p511
I1
sS'query_time'
p512
F0.00946497917175293
sS'comp_time'
p513
F0.0019042491912841797
sS'exec_cq'
p514
I2
sS'total_cq'
p515
I2
sasS'total_cqs'
p516
I2
ssI48
(dp517
S'iters'
p518
I0
sS'meta'
p519
(lp520
sS'total_cqs'
p521
I1
ssI49
(dp522
S'iters'
p523
I0
sS'meta'
p524
(lp525
sS'total_cqs'
p526
I1
ssI50
(dp527
S'iters'
p528
I1
sS'meta'
p529
(lp530
(dp531
S'objective'
p532
I5
sS'query_time'
p533
F0.02365899085998535
sS'comp_time'
p534
F0.0024199485778808594
sS'exec_cq'
p535
I5
sS'total_cq'
p536
I5
sasS'total_cqs'
p537
I5
ssI51
(dp538
S'iters'
p539
I1
sS'meta'
p540
(lp541
(dp542
S'objective'
p543
I1
sS'query_time'
p544
F0.047966957092285156
sS'comp_time'
p545
F0.0023217201232910156
sS'exec_cq'
p546
I2
sS'total_cq'
p547
I2
sasS'total_cqs'
p548
I2
ssI52
(dp549
S'iters'
p550
I1
sS'meta'
p551
(lp552
(dp553
S'objective'
p554
I1
sS'query_time'
p555
F0.009407997131347656
sS'comp_time'
p556
F0.0011553764343261719
sS'exec_cq'
p557
I2
sS'total_cq'
p558
I2
sasS'total_cqs'
p559
I2
ssI53
(dp560
S'iters'
p561
I1
sS'meta'
p562
(lp563
(dp564
S'objective'
p565
I2
sS'query_time'
p566
F0.025951147079467773
sS'comp_time'
p567
F0.002663135528564453
sS'exec_cq'
p568
I4
sS'total_cq'
p569
I4
sasS'total_cqs'
p570
I4
ssI54
(dp571
S'iters'
p572
I1
sS'meta'
p573
(lp574
(dp575
S'objective'
p576
I0
sS'query_time'
p577
F0.01203298568725586
sS'comp_time'
p578
F0.001833200454711914
sS'exec_cq'
p579
I3
sS'total_cq'
p580
I3
sasS'total_cqs'
p581
I3
ssI55
(dp582
S'iters'
p583
I6
sS'meta'
p584
(lp585
(dp586
S'objective'
p587
I4703
sS'query_time'
p588
F2.4280178546905518
sS'comp_time'
p589
F1.072011947631836
sS'exec_cq'
p590
I109
sS'total_cq'
p591
I109
sa(dp592
g587
I4723
sg588
F0.0010869503021240234
sg589
F0.004233121871948242
sg590
I97
sg591
I97
sa(dp593
g587
I4746
sg588
F0.0004601478576660156
sg589
F0.0022020339965820312
sg590
I91
sg591
I91
sa(dp594
g587
I4623
sg588
F0.00039887428283691406
sg589
F0.0016520023345947266
sg590
I87
sg591
I87
sa(dp595
g587
I4517
sg588
F0.00041294097900390625
sg589
F0.0014116764068603516
sg590
I85
sg591
I85
sa(dp596
g587
I4419
sg588
F0.00037789344787597656
sg589
F0.0010540485382080078
sg590
I83
sg591
I83
sasS'total_cqs'
p597
I109
ssI56
(dp598
S'iters'
p599
I4
sS'meta'
p600
(lp601
(dp602
S'objective'
p603
I1740
sS'query_time'
p604
F1.7921597957611084
sS'comp_time'
p605
F0.3239104747772217
sS'exec_cq'
p606
I67
sS'total_cq'
p607
I76
sa(dp608
g603
I29
sg604
F0.007380962371826172
sg605
F0.022344112396240234
sg606
I16
sg607
I16
sa(dp609
g603
I15
sg604
F0.0031180381774902344
sg605
F0.01367807388305664
sg606
I10
sg607
I10
sa(dp610
g603
I11
sg604
F0.0015981197357177734
sg605
F0.008285045623779297
sg606
I6
sg607
I6
sasS'total_cqs'
p611
I76
ssI57
(dp612
S'iters'
p613
I5
sS'meta'
p614
(lp615
(dp616
S'objective'
p617
I38
sS'query_time'
p618
F25.218082904815674
sS'comp_time'
p619
F0.34915661811828613
sS'exec_cq'
p620
I45
sS'total_cq'
p621
I51
sa(dp622
g617
I58
sg618
F0.014122962951660156
sg619
F0.03330087661743164
sg620
I27
sg621
I27
sa(dp623
g617
I2
sg618
F0.0025298595428466797
sg619
F0.007551670074462891
sg620
I12
sg621
I12
sa(dp624
g617
I0
sg618
F0.0016009807586669922
sg619
F0.005205869674682617
sg620
I7
sg621
I7
sa(dp625
g617
I10
sg618
F0.00022983551025390625
sg619
F0.001363515853881836
sg620
I3
sg621
I3
sasS'total_cqs'
p626
I51
ssI58
(dp627
S'iters'
p628
I6
sS'meta'
p629
(lp630
(dp631
S'objective'
p632
I84997
sS'query_time'
p633
F116.1517767906189
sS'comp_time'
p634
F14.981013774871826
sS'exec_cq'
p635
I348
sS'total_cq'
p636
I486
sa(dp637
g632
I87971
sg633
F0.04113292694091797
sg634
F1.7242767810821533
sg635
I276
sg636
I414
sa(dp638
g632
I131
sg633
F0.018519878387451172
sg634
F0.09972572326660156
sg635
I28
sg636
I28
sa(dp639
g632
I3
sg633
F0.012119054794311523
sg634
F0.0258941650390625
sg635
I13
sg636
I13
sa(dp640
g632
I12
sg633
F0.005254030227661133
sg634
F0.014231204986572266
sg635
I7
sg636
I7
sa(dp641
g632
I127
sg633
F0.0030748844146728516
sg634
F0.011298894882202148
sg635
I3
sg636
I3
sasS'total_cqs'
p642
I486
ssI59
(dp643
S'iters'
p644
I2
sS'meta'
p645
(lp646
(dp647
S'objective'
p648
I10
sS'query_time'
p649
F0.05459189414978027
sS'comp_time'
p650
F0.01537179946899414
sS'exec_cq'
p651
I7
sS'total_cq'
p652
I7
sa(dp653
g648
I5
sg649
F0.0001690387725830078
sg650
F0.0011417865753173828
sg651
I2
sg652
I2
sasS'total_cqs'
p654
I7
ssI60
(dp655
S'iters'
p656
I1
sS'meta'
p657
(lp658
(dp659
S'objective'
p660
I5
sS'query_time'
p661
F0.01353907585144043
sS'comp_time'
p662
F0.003283977508544922
sS'exec_cq'
p663
I3
sS'total_cq'
p664
I5
sasS'total_cqs'
p665
I5
ssI61
(dp666
S'iters'
p667
I0
sS'meta'
p668
(lp669
sS'total_cqs'
p670
I1
ssI62
(dp671
S'iters'
p672
I2
sS'meta'
p673
(lp674
(dp675
S'objective'
p676
I46
sS'query_time'
p677
F0.05303621292114258
sS'comp_time'
p678
F0.01910710334777832
sS'exec_cq'
p679
I12
sS'total_cq'
p680
I12
sa(dp681
g676
I38
sg677
F4.315376281738281e-05
sg678
F0.0001761913299560547
sg679
I9
sg680
I9
sasS'total_cqs'
p682
I12
ssI63
(dp683
S'iters'
p684
I0
sS'meta'
p685
(lp686
sS'total_cqs'
p687
I1
ssI64
(dp688
S'iters'
p689
I3
sS'meta'
p690
(lp691
(dp692
S'objective'
p693
I12
sS'query_time'
p694
F0.1508009433746338
sS'comp_time'
p695
F0.023421049118041992
sS'exec_cq'
p696
I12
sS'total_cq'
p697
I12
sa(dp698
g693
I1
sg694
F0.0001308917999267578
sg695
F0.00074005126953125
sg696
I4
sg697
I4
sa(dp699
g693
I8
sg694
F2.7894973754882812e-05
sg695
F0.00017189979553222656
sg696
I2
sg697
I2
sasS'total_cqs'
p700
I12
ssI65
(dp701
S'iters'
p702
I3
sS'meta'
p703
(lp704
(dp705
S'objective'
p706
I122
sS'query_time'
p707
F1.1146957874298096
sS'comp_time'
p708
F0.33769893646240234
sS'exec_cq'
p709
I27
sS'total_cq'
p710
I27
sa(dp711
g706
I8
sg707
F0.0018360614776611328
sg708
F0.007418155670166016
sg709
I7
sg710
I7
sa(dp712
g706
I14
sg707
F0.0002429485321044922
sg708
F0.0014760494232177734
sg709
I3
sg710
I3
sasS'total_cqs'
p713
I27
ssI66
(dp714
S'iters'
p715
I0
sS'meta'
p716
(lp717
sS'total_cqs'
p718
I1
ssI67
(dp719
S'iters'
p720
I2
sS'meta'
p721
(lp722
(dp723
S'objective'
p724
I538
sS'query_time'
p725
F1.0576748847961426
sS'comp_time'
p726
F0.13286113739013672
sS'exec_cq'
p727
I35
sS'total_cq'
p728
I35
sa(dp729
g724
I24
sg725
F0.0016589164733886719
sg726
F0.010114669799804688
sg727
I2
sg728
I2
sasS'total_cqs'
p730
I35
ssI68
(dp731
S'iters'
p732
I0
sS'meta'
p733
(lp734
sS'total_cqs'
p735
I1
ssI69
(dp736
S'iters'
p737
I1
sS'meta'
p738
(lp739
(dp740
S'objective'
p741
I1224
sS'query_time'
p742
F0.1753089427947998
sS'comp_time'
p743
F0.2142939567565918
sS'exec_cq'
p744
I51
sS'total_cq'
p745
I51
sasS'total_cqs'
p746
I51
ssI70
(dp747
S'iters'
p748
I1
sS'meta'
p749
(lp750
(dp751
S'objective'
p752
I9
sS'query_time'
p753
F0.05528998374938965
sS'comp_time'
p754
F0.0037250518798828125
sS'exec_cq'
p755
I6
sS'total_cq'
p756
I6
sasS'total_cqs'
p757
I6
ssI71
(dp758
S'iters'
p759
I4
sS'meta'
p760
(lp761
(dp762
S'objective'
p763
I3213
sS'query_time'
p764
F0.2831909656524658
sS'comp_time'
p765
F0.3448328971862793
sS'exec_cq'
p766
I73
sS'total_cq'
p767
I85
sa(dp768
g763
I3184
sg764
F0.0003619194030761719
sg765
F0.0013282299041748047
sg766
I69
sg767
I81
sa(dp769
g763
I3065
sg764
F0.0002620220184326172
sg765
F0.0009343624114990234
sg766
I66
sg767
I78
sa(dp770
g763
I48
sg764
F0.002871990203857422
sg765
F0.003215312957763672
sg766
I3
sg767
I3
sasS'total_cqs'
p771
I85
ssI72
(dp772
S'iters'
p773
I3
sS'meta'
p774
(lp775
(dp776
S'objective'
p777
I10
sS'query_time'
p778
F0.30539584159851074
sS'comp_time'
p779
F0.0068988800048828125
sS'exec_cq'
p780
I4
sS'total_cq'
p781
I8
sa(dp782
g777
I1
sg778
F0.0261080265045166
sg779
F0.0003707408905029297
sg780
I4
sg781
I5
sa(dp783
g777
I5
sg778
F6.103515625e-05
sg779
F0.00027489662170410156
sg780
I2
sg781
I3
sasS'total_cqs'
p784
I8
ssI73
(dp785
S'iters'
p786
I0
sS'meta'
p787
(lp788
sS'total_cqs'
p789
I1
ssI74
(dp790
S'iters'
p791
I0
sS'meta'
p792
(lp793
sS'total_cqs'
p794
I1
ssI75
(dp795
S'iters'
p796
I1
sS'meta'
p797
(lp798
(dp799
S'objective'
p800
I5
sS'query_time'
p801
F0.013676881790161133
sS'comp_time'
p802
F0.002825021743774414
sS'exec_cq'
p803
I5
sS'total_cq'
p804
I5
sasS'total_cqs'
p805
I5
ssI76
(dp806
S'iters'
p807
I1
sS'meta'
p808
(lp809
(dp810
S'objective'
p811
I1
sS'query_time'
p812
F0.019322872161865234
sS'comp_time'
p813
F0.0020842552185058594
sS'exec_cq'
p814
I2
sS'total_cq'
p815
I2
sasS'total_cqs'
p816
I2
ssI77
(dp817
S'iters'
p818
I0
sS'meta'
p819
(lp820
sS'total_cqs'
p821
I1
ssI78
(dp822
S'iters'
p823
I0
sS'meta'
p824
(lp825
sS'total_cqs'
p826
I1
ssI103
(dp827
S'iters'
p828
I1
sS'meta'
p829
(lp830
(dp831
S'objective'
p832
I54
sS'query_time'
p833
F0.06379294395446777
sS'comp_time'
p834
F0.015659093856811523
sS'exec_cq'
p835
I12
sS'total_cq'
p836
I12
sasS'total_cqs'
p837
I12
ssI104
(dp838
S'iters'
p839
I2
sS'meta'
p840
(lp841
(dp842
S'objective'
p843
I0
sS'query_time'
p844
F1.3315370082855225
sS'comp_time'
p845
F0.17567157745361328
sS'exec_cq'
p846
I4
sS'total_cq'
p847
I4
sa(dp848
g843
I3
sg844
F0.014289140701293945
sg845
F0.16131377220153809
sg846
I2
sg847
I2
sasS'total_cqs'
p849
I4
ssI105
(dp850
S'iters'
p851
I0
sS'meta'
p852
(lp853
sS'total_cqs'
p854
I1
ssI106
(dp855
S'iters'
p856
I1
sS'meta'
p857
(lp858
(dp859
S'objective'
p860
I2
sS'query_time'
p861
F0.01714301109313965
sS'comp_time'
p862
F0.001934051513671875
sS'exec_cq'
p863
I4
sS'total_cq'
p864
I4
sasS'total_cqs'
p865
I4
ssI107
(dp866
S'iters'
p867
I2
sS'meta'
p868
(lp869
(dp870
S'objective'
p871
I64
sS'query_time'
p872
F0.07466006278991699
sS'comp_time'
p873
F0.16336703300476074
sS'exec_cq'
p874
I16
sS'total_cq'
p875
I16
sa(dp876
g871
I4
sg872
F0.0037839412689208984
sg873
F0.00039505958557128906
sg874
I3
sg875
I3
sasS'total_cqs'
p877
I16
ssI108
(dp878
S'iters'
p879
I0
sS'meta'
p880
(lp881
sS'total_cqs'
p882
I1
ss.