(dp0
I1
(dp1
S'iters'
p2
I1
sS'meta'
p3
(lp4
(dp5
S'objective'
p6
I2
sS'query_time'
p7
F20.02189803123474
sS'comp_time'
p8
F0.0020432472229003906
sS'exec_cq'
p9
I4
sS'total_cq'
p10
I4
sasS'total_cqs'
p11
I4
ssI2
(dp12
S'iters'
p13
I1
sS'meta'
p14
(lp15
(dp16
S'objective'
p17
I2
sS'query_time'
p18
F0.020442962646484375
sS'comp_time'
p19
F0.0021588802337646484
sS'exec_cq'
p20
I4
sS'total_cq'
p21
I4
sasS'total_cqs'
p22
I4
ssI3
(dp23
S'iters'
p24
I0
sS'meta'
p25
(lp26
sS'total_cqs'
p27
I1
ssI4
(dp28
S'iters'
p29
I0
sS'meta'
p30
(lp31
sS'total_cqs'
p32
I1
ssI5
(dp33
S'iters'
p34
I14
sS'meta'
p35
(lp36
(dp37
S'objective'
p38
I1133
sS'query_time'
p39
F64.73029494285583
sS'comp_time'
p40
F0.993729829788208
sS'exec_cq'
p41
I54
sS'total_cq'
p42
I54
sa(dp43
g38
I1179
sg39
F0.010517120361328125
sg40
F0.021886110305786133
sg41
I48
sg42
I48
sa(dp44
g38
I1142
sg39
F0.00044989585876464844
sg40
F0.0007338523864746094
sg41
I46
sg42
I46
sa(dp45
g38
I1097
sg39
F0.00015997886657714844
sg40
F0.00026535987854003906
sg41
I45
sg42
I45
sa(dp46
g38
I1063
sg39
F0.00015592575073242188
sg40
F0.0002791881561279297
sg41
I44
sg42
I44
sa(dp47
g38
I1046
sg39
F0.00015282630920410156
sg40
F0.000263214111328125
sg41
I43
sg42
I43
sa(dp48
g38
I1035
sg39
F0.000125885009765625
sg40
F0.00016307830810546875
sg41
I42
sg42
I42
sa(dp49
g38
I537
sg39
F0.8470301628112793
sg40
F0.00020766258239746094
sg41
I35
sg42
I41
sa(dp50
g38
I314
sg39
F3.5649003982543945
sg40
F0.0007147789001464844
sg41
I26
sg42
I32
sa(dp51
g38
I471
sg39
F0.06587600708007812
sg40
F0.0007476806640625
sg41
I20
sg42
I20
sa(dp52
g38
I433
sg39
F0.008383035659790039
sg40
F0.00012087821960449219
sg41
I19
sg42
I19
sa(dp53
g38
I401
sg39
F0.0033402442932128906
sg40
F0.0001373291015625
sg41
I17
sg42
I17
sa(dp54
g38
I377
sg39
F4.603103160858154
sg40
F0.0001418590545654297
sg41
I16
sg42
I16
sa(dp55
g38
I299
sg39
F0.0053179264068603516
sg40
F0.0001289844512939453
sg41
I15
sg42
I15
sasS'total_cqs'
p56
I54
ssI6
(dp57
S'iters'
p58
I1
sS'meta'
p59
(lp60
(dp61
S'objective'
p62
I2
sS'query_time'
p63
F20.02351999282837
sS'comp_time'
p64
F0.0020291805267333984
sS'exec_cq'
p65
I4
sS'total_cq'
p66
I4
sasS'total_cqs'
p67
I4
ssI7
(dp68
S'iters'
p69
I0
sS'meta'
p70
(lp71
sS'total_cqs'
p72
I1
ssI8
(dp73
S'iters'
p74
I0
sS'meta'
p75
(lp76
sS'total_cqs'
p77
I1
ssI9
(dp78
S'iters'
p79
I1
sS'meta'
p80
(lp81
(dp82
S'objective'
p83
I0
sS'query_time'
p84
F27.290406942367554
sS'comp_time'
p85
F0.022968053817749023
sS'exec_cq'
p86
I3
sS'total_cq'
p87
I3
sasS'total_cqs'
p88
I3
ssI10
(dp89
S'iters'
p90
I1
sS'meta'
p91
(lp92
(dp93
S'objective'
p94
I2
sS'query_time'
p95
F1.3520050048828125
sS'comp_time'
p96
F0.008066892623901367
sS'exec_cq'
p97
I4
sS'total_cq'
p98
I4
sasS'total_cqs'
p99
I4
ssI11
(dp100
S'iters'
p101
I1
sS'meta'
p102
(lp103
(dp104
S'objective'
p105
I14
sS'query_time'
p106
F20.018201112747192
sS'comp_time'
p107
F0.005341053009033203
sS'exec_cq'
p108
I7
sS'total_cq'
p109
I7
sasS'total_cqs'
p110
I7
ssI12
(dp111
S'iters'
p112
I2
sS'meta'
p113
(lp114
(dp115
S'objective'
p116
I8
sS'query_time'
p117
F20.08732509613037
sS'comp_time'
p118
F0.0044133663177490234
sS'exec_cq'
p119
I6
sS'total_cq'
p120
I7
sa(dp121
g116
I4
sg117
F8.988380432128906e-05
sg118
F0.0002117156982421875
sg119
I4
sg120
I5
sasS'total_cqs'
p122
I7
ssI13
(dp123
S'iters'
p124
I0
sS'meta'
p125
(lp126
sS'total_cqs'
p127
I1
ssI14
(dp128
S'iters'
p129
I2
sS'meta'
p130
(lp131
(dp132
S'objective'
p133
I199
sS'query_time'
p134
F55.111770153045654
sS'comp_time'
p135
F0.3405287265777588
sS'exec_cq'
p136
I25
sS'total_cq'
p137
I25
sa(dp138
g133
I212
sg134
F0.06024479866027832
sg135
F0.09165692329406738
sg136
I21
sg137
I21
sasS'total_cqs'
p139
I25
ssI15
(dp140
S'iters'
p141
I3
sS'meta'
p142
(lp143
(dp144
S'objective'
p145
I49
sS'query_time'
p146
F21.001094102859497
sS'comp_time'
p147
F0.011367082595825195
sS'exec_cq'
p148
I13
sS'total_cq'
p149
I13
sa(dp150
g145
I18
sg146
F1.3449680805206299
sg147
F0.00019621849060058594
sg148
I11
sg149
I11
sa(dp151
g145
I0
sg146
F0.588932991027832
sg147
F0.00031304359436035156
sg148
I3
sg149
I3
sasS'total_cqs'
p152
I13
ssI16
(dp153
S'iters'
p154
I3
sS'meta'
p155
(lp156
(dp157
S'objective'
p158
I141
sS'query_time'
p159
F26.48252511024475
sS'comp_time'
p160
F0.3053426742553711
sS'exec_cq'
p161
I17
sS'total_cq'
p162
I17
sa(dp163
g158
I85
sg159
F1.2361831665039062
sg160
F0.0001780986785888672
sg161
I16
sg162
I16
sa(dp164
g158
I3
sg159
F0.907073974609375
sg160
F0.0002887248992919922
sg161
I3
sg162
I3
sasS'total_cqs'
p165
I17
ssI17
(dp166
S'iters'
p167
I2
sS'meta'
p168
(lp169
(dp170
S'objective'
p171
I80
sS'query_time'
p172
F29.69811773300171
sS'comp_time'
p173
F0.014505147933959961
sS'exec_cq'
p174
I16
sS'total_cq'
p175
I16
sa(dp176
g171
I4
sg172
F0.2238771915435791
sg173
F0.0002739429473876953
sg174
I2
sg175
I2
sasS'total_cqs'
p177
I16
ssI18
(dp178
S'iters'
p179
I3
sS'meta'
p180
(lp181
(dp182
S'objective'
p183
I150
sS'query_time'
p184
F20.414313077926636
sS'comp_time'
p185
F0.021292924880981445
sS'exec_cq'
p186
I20
sS'total_cq'
p187
I20
sa(dp188
g183
I122
sg184
F9.283267736434937
sg185
F0.00027680397033691406
sg186
I17
sg187
I17
sa(dp189
g183
I11
sg184
F0.1026618480682373
sg185
F0.0003960132598876953
sg186
I2
sg187
I2
sasS'total_cqs'
p190
I20
ssI19
(dp191
S'iters'
p192
I4
sS'meta'
p193
(lp194
(dp195
S'objective'
p196
I3758
sS'query_time'
p197
F26.11993408203125
sS'comp_time'
p198
F0.6425290107727051
sS'exec_cq'
p199
I88
sS'total_cq'
p200
I88
sa(dp201
g196
I3769
sg197
F0.00032711029052734375
sg198
F0.00047707557678222656
sg199
I86
sg200
I86
sa(dp202
g196
I3605
sg197
F5.005768060684204
sg198
F0.0002930164337158203
sg199
I85
sg200
I85
sa(dp203
g196
I77
sg197
F0.20220112800598145
sg198
F0.004694938659667969
sg199
I2
sg200
I2
sasS'total_cqs'
p204
I88
ssI134
(dp205
S'iters'
p206
I1
sS'meta'
p207
(lp208
(dp209
S'objective'
p210
I1
sS'query_time'
p211
F20.62040090560913
sS'comp_time'
p212
F0.0006089210510253906
sS'exec_cq'
p213
I2
sS'total_cq'
p214
I2
sasS'total_cqs'
p215
I2
ssI21
(dp216
S'iters'
p217
I1
sS'meta'
p218
(lp219
(dp220
S'objective'
p221
I5
sS'query_time'
p222
F0.032080888748168945
sS'comp_time'
p223
F0.0023407936096191406
sS'exec_cq'
p224
I2
sS'total_cq'
p225
I5
sasS'total_cqs'
p226
I5
ssI22
(dp227
S'iters'
p228
I2
sS'meta'
p229
(lp230
(dp231
S'objective'
p232
I4
sS'query_time'
p233
F25.831565141677856
sS'comp_time'
p234
F0.2562427520751953
sS'exec_cq'
p235
I3
sS'total_cq'
p236
I3
sa(dp237
g232
I1
sg233
F0.08462405204772949
sg234
F8.940696716308594e-05
sg235
I2
sg236
I2
sasS'total_cqs'
p238
I3
ssI23
(dp239
S'iters'
p240
I0
sS'meta'
p241
(lp242
sS'total_cqs'
p243
I1
ssI24
(dp244
S'iters'
p245
I1
sS'meta'
p246
(lp247
(dp248
S'objective'
p249
I0
sS'query_time'
p250
F9.601791143417358
sS'comp_time'
p251
F0.001967906951904297
sS'exec_cq'
p252
I3
sS'total_cq'
p253
I3
sasS'total_cqs'
p254
I3
ssI25
(dp255
S'iters'
p256
I1
sS'meta'
p257
(lp258
(dp259
S'objective'
p260
I0
sS'query_time'
p261
F8.535320043563843
sS'comp_time'
p262
F0.0013370513916015625
sS'exec_cq'
p263
I3
sS'total_cq'
p264
I3
sasS'total_cqs'
p265
I3
ssI26
(dp266
S'iters'
p267
I0
sS'meta'
p268
(lp269
sS'total_cqs'
p270
I1
ssI27
(dp271
S'iters'
p272
I0
sS'meta'
p273
(lp274
sS'total_cqs'
p275
I1
ssI28
(dp276
S'iters'
p277
I0
sS'meta'
p278
(lp279
sS'total_cqs'
p280
I1
ssI29
(dp281
S'iters'
p282
I1
sS'meta'
p283
(lp284
(dp285
S'objective'
p286
I14
sS'query_time'
p287
F20.0223228931427
sS'comp_time'
p288
F0.00379180908203125
sS'exec_cq'
p289
I7
sS'total_cq'
p290
I7
sasS'total_cqs'
p291
I7
ssI30
(dp292
S'iters'
p293
I2
sS'meta'
p294
(lp295
(dp296
S'objective'
p297
I14
sS'query_time'
p298
F20.09614610671997
sS'comp_time'
p299
F0.004430294036865234
sS'exec_cq'
p300
I6
sS'total_cq'
p301
I7
sa(dp302
g297
I7
sg298
F9.393692016601562e-05
sg299
F0.0002110004425048828
sg300
I4
sg301
I5
sasS'total_cqs'
p303
I7
ssI31
(dp304
S'iters'
p305
I2
sS'meta'
p306
(lp307
(dp308
S'objective'
p309
I29
sS'query_time'
p310
F2.7914750576019287
sS'comp_time'
p311
F0.006958961486816406
sS'exec_cq'
p312
I8
sS'total_cq'
p313
I10
sa(dp314
g309
I7
sg310
F0.11034202575683594
sg311
F0.0006272792816162109
sg312
I2
sg313
I2
sasS'total_cqs'
p315
I10
ssI32
(dp316
S'iters'
p317
I3
sS'meta'
p318
(lp319
(dp320
S'objective'
p321
I13
sS'query_time'
p322
F1.1625020503997803
sS'comp_time'
p323
F0.006812095642089844
sS'exec_cq'
p324
I8
sS'total_cq'
p325
I10
sa(dp326
g321
I8
sg322
F3.695487976074219e-05
sg323
F6.985664367675781e-05
sg324
I5
sg325
I7
sa(dp327
g321
I7
sg322
F0.20909595489501953
sg323
F0.003753185272216797
sg324
I2
sg325
I2
sasS'total_cqs'
p328
I10
ssI33
(dp329
S'iters'
p330
I2
sS'meta'
p331
(lp332
(dp333
S'objective'
p334
I16
sS'query_time'
p335
F0.9844529628753662
sS'comp_time'
p336
F0.006943702697753906
sS'exec_cq'
p337
I8
sS'total_cq'
p338
I11
sa(dp339
g334
I3
sg335
F0.04954695701599121
sg336
F0.0013949871063232422
sg337
I3
sg338
I4
sasS'total_cqs'
p340
I11
ssI34
(dp341
S'iters'
p342
I3
sS'meta'
p343
(lp344
(dp345
S'objective'
p346
I1883
sS'query_time'
p347
F61.258469104766846
sS'comp_time'
p348
F0.8664495944976807
sS'exec_cq'
p349
I70
sS'total_cq'
p350
I70
sa(dp351
g346
I1730
sg347
F0.0040130615234375
sg348
F0.005815982818603516
sg349
I63
sg350
I63
sa(dp352
g346
I1817
sg347
F0.003281116485595703
sg348
F0.00506138801574707
sg349
I57
sg350
I57
sasS'total_cqs'
p353
I70
ssI35
(dp354
S'iters'
p355
I4
sS'meta'
p356
(lp357
(dp358
S'objective'
p359
I1811
sS'query_time'
p360
F62.22002291679382
sS'comp_time'
p361
F0.860694408416748
sS'exec_cq'
p362
I70
sS'total_cq'
p363
I70
sa(dp364
g359
I1708
sg360
F0.06123185157775879
sg361
F0.016016244888305664
sg362
I62
sg363
I62
sa(dp365
g359
I1644
sg360
F0.007819175720214844
sg361
F0.012062788009643555
sg362
I56
sg363
I56
sa(dp366
g359
I1646
sg360
F0.006646156311035156
sg361
F0.013300895690917969
sg362
I52
sg363
I52
sasS'total_cqs'
p367
I70
ssI36
(dp368
S'iters'
p369
I2
sS'meta'
p370
(lp371
(dp372
S'objective'
p373
I37
sS'query_time'
p374
F20.064921140670776
sS'comp_time'
p375
F0.028452157974243164
sS'exec_cq'
p376
I15
sS'total_cq'
p377
I17
sa(dp378
g373
I24
sg374
F0.026832103729248047
sg375
F0.00045490264892578125
sg376
I5
sg377
I5
sasS'total_cqs'
p379
I17
ssI37
(dp380
S'iters'
p381
I2
sS'meta'
p382
(lp383
(dp384
S'objective'
p385
I70
sS'query_time'
p386
F21.275650024414062
sS'comp_time'
p387
F0.07390594482421875
sS'exec_cq'
p388
I14
sS'total_cq'
p389
I16
sa(dp390
g385
I1
sg386
F0.03258991241455078
sg387
F0.000331878662109375
sg388
I2
sg389
I3
sasS'total_cqs'
p391
I16
ssI38
(dp392
S'iters'
p393
I3
sS'meta'
p394
(lp395
(dp396
S'objective'
p397
I1270
sS'query_time'
p398
F39.70794105529785
sS'comp_time'
p399
F0.5971858501434326
sS'exec_cq'
p400
I59
sS'total_cq'
p401
I59
sa(dp402
g397
I1086
sg398
F0.16320204734802246
sg399
F0.4692690372467041
sg400
I52
sg401
I52
sa(dp403
g397
I1185
sg398
F0.20760393142700195
sg399
F0.3823087215423584
sg400
I45
sg401
I45
sasS'total_cqs'
p404
I59
ssI39
(dp405
S'iters'
p406
I4
sS'meta'
p407
(lp408
(dp409
S'objective'
p410
I2300
sS'query_time'
p411
F50.174689292907715
sS'comp_time'
p412
F0.34621500968933105
sS'exec_cq'
p413
I79
sS'total_cq'
p414
I79
sa(dp415
g410
I1884
sg411
F0.0679161548614502
sg412
F0.04199934005737305
sg413
I69
sg414
I69
sa(dp416
g410
I1537
sg411
F0.0003190040588378906
sg412
F0.0036258697509765625
sg413
I60
sg414
I60
sa(dp417
g410
I1764
sg411
F0.0002219676971435547
sg412
F0.003949165344238281
sg413
I50
sg414
I50
sasS'total_cqs'
p418
I79
ssI40
(dp419
S'iters'
p420
I4
sS'meta'
p421
(lp422
(dp423
S'objective'
p424
I2258
sS'query_time'
p425
F66.1512610912323
sS'comp_time'
p426
F0.4438161849975586
sS'exec_cq'
p427
I73
sS'total_cq'
p428
I83
sa(dp429
g424
I1894
sg425
F0.07715988159179688
sg426
F0.04963803291320801
sg427
I61
sg428
I71
sa(dp430
g424
I1509
sg425
F0.0004169940948486328
sg426
F0.0021407604217529297
sg427
I45
sg428
I55
sa(dp431
g424
I1780
sg425
F0.04915285110473633
sg426
F0.0011529922485351562
sg427
I44
sg428
I44
sasS'total_cqs'
p432
I83
ssI41
(dp433
S'iters'
p434
I1
sS'meta'
p435
(lp436
(dp437
S'objective'
p438
I5
sS'query_time'
p439
F0.0941610336303711
sS'comp_time'
p440
F0.002543926239013672
sS'exec_cq'
p441
I2
sS'total_cq'
p442
I5
sasS'total_cqs'
p443
I5
ssI42
(dp444
S'iters'
p445
I1
sS'meta'
p446
(lp447
(dp448
S'objective'
p449
I0
sS'query_time'
p450
F21.8275408744812
sS'comp_time'
p451
F0.0012438297271728516
sS'exec_cq'
p452
I3
sS'total_cq'
p453
I3
sasS'total_cqs'
p454
I3
ssI43
(dp455
S'iters'
p456
I1
sS'meta'
p457
(lp458
(dp459
S'objective'
p460
I5
sS'query_time'
p461
F0.4334990978240967
sS'comp_time'
p462
F0.01482534408569336
sS'exec_cq'
p463
I5
sS'total_cq'
p464
I5
sasS'total_cqs'
p465
I5
ssI44
(dp466
S'iters'
p467
I4
sS'meta'
p468
(lp469
(dp470
S'objective'
p471
I19
sS'query_time'
p472
F40.0281457901001
sS'comp_time'
p473
F0.005589008331298828
sS'exec_cq'
p474
I10
sS'total_cq'
p475
I10
sa(dp476
g471
I19
sg472
F0.012502908706665039
sg473
F0.00015306472778320312
sg474
I6
sg475
I6
sa(dp477
g471
I8
sg472
F0.0018091201782226562
sg473
F4.696846008300781e-05
sg474
I2
sg475
I4
sa(dp478
g471
I2
sg472
F0.002234935760498047
sg473
F8.726119995117188e-05
sg474
I2
sg475
I2
sasS'total_cqs'
p479
I10
ssI45
(dp480
S'iters'
p481
I0
sS'meta'
p482
(lp483
sS'total_cqs'
p484
I1
ssI46
(dp485
S'iters'
p486
I1
sS'meta'
p487
(lp488
(dp489
S'objective'
p490
I1
sS'query_time'
p491
F0.8114099502563477
sS'comp_time'
p492
F0.028087854385375977
sS'exec_cq'
p493
I2
sS'total_cq'
p494
I2
sasS'total_cqs'
p495
I2
ssI47
(dp496
S'iters'
p497
I0
sS'meta'
p498
(lp499
sS'total_cqs'
p500
I1
ssI48
(dp501
S'iters'
p502
I0
sS'meta'
p503
(lp504
sS'total_cqs'
p505
I1
ssI49
(dp506
S'iters'
p507
I1
sS'meta'
p508
(lp509
(dp510
S'objective'
p511
I0
sS'query_time'
p512
F23.409374952316284
sS'comp_time'
p513
F0.03430485725402832
sS'exec_cq'
p514
I3
sS'total_cq'
p515
I3
sasS'total_cqs'
p516
I3
ssI50
(dp517
S'iters'
p518
I2
sS'meta'
p519
(lp520
(dp521
S'objective'
p522
I50
sS'query_time'
p523
F17.195780038833618
sS'comp_time'
p524
F0.010059833526611328
sS'exec_cq'
p525
I12
sS'total_cq'
p526
I12
sa(dp527
g522
I40
sg523
F6.723403930664062e-05
sg524
F0.00028324127197265625
sg525
I9
sg526
I9
sasS'total_cqs'
p528
I12
ssI51
(dp529
S'iters'
p530
I2
sS'meta'
p531
(lp532
(dp533
S'objective'
p534
I8
sS'query_time'
p535
F21.27566695213318
sS'comp_time'
p536
F0.009056806564331055
sS'exec_cq'
p537
I10
sS'total_cq'
p538
I12
sa(dp539
g534
I11
sg535
F12.5194091796875
sg536
F0.0003876686096191406
sg537
I5
sg538
I5
sasS'total_cqs'
p540
I12
ssI52
(dp541
S'iters'
p542
I2
sS'meta'
p543
(lp544
(dp545
S'objective'
p546
I12
sS'query_time'
p547
F1.464738130569458
sS'comp_time'
p548
F0.00986337661743164
sS'exec_cq'
p549
I10
sS'total_cq'
p550
I12
sa(dp551
g546
I9
sg547
F0.16182732582092285
sg548
F0.0003383159637451172
sg549
I4
sg550
I4
sasS'total_cqs'
p552
I12
ssI53
(dp553
S'iters'
p554
I2
sS'meta'
p555
(lp556
(dp557
S'objective'
p558
I4
sS'query_time'
p559
F20.071199893951416
sS'comp_time'
p560
F0.0009062290191650391
sS'exec_cq'
p561
I3
sS'total_cq'
p562
I3
sa(dp563
g558
I1
sg559
F23.43579888343811
sg560
F0.00012302398681640625
sg561
I2
sg562
I2
sasS'total_cqs'
p564
I3
ssI54
(dp565
S'iters'
p566
I1
sS'meta'
p567
(lp568
(dp569
S'objective'
p570
I5
sS'query_time'
p571
F34.870667934417725
sS'comp_time'
p572
F0.01129460334777832
sS'exec_cq'
p573
I5
sS'total_cq'
p574
I5
sasS'total_cqs'
p575
I5
ssI55
(dp576
S'iters'
p577
I2
sS'meta'
p578
(lp579
(dp580
S'objective'
p581
I25
sS'query_time'
p582
F25.922444105148315
sS'comp_time'
p583
F0.015112161636352539
sS'exec_cq'
p584
I10
sS'total_cq'
p585
I10
sa(dp586
g581
I5
sg582
F0.004454851150512695
sg583
F0.007115364074707031
sg584
I2
sg585
I2
sasS'total_cqs'
p587
I10
ssI56
(dp588
S'iters'
p589
I2
sS'meta'
p590
(lp591
(dp592
S'objective'
p593
I5
sS'query_time'
p594
F39.752344846725464
sS'comp_time'
p595
F0.5259947776794434
sS'exec_cq'
p596
I5
sS'total_cq'
p597
I6
sa(dp598
g593
I1
sg594
F0.03250312805175781
sg595
F0.10685396194458008
sg596
I3
sg597
I4
sasS'total_cqs'
p599
I6
ssI57
(dp600
S'iters'
p601
I2
sS'meta'
p602
(lp603
(dp604
S'objective'
p605
I294
sS'query_time'
p606
F30.704713106155396
sS'comp_time'
p607
F0.1624288558959961
sS'exec_cq'
p608
I27
sS'total_cq'
p609
I27
sa(dp610
g605
I282
sg606
F0.025416135787963867
sg607
F0.09616804122924805
sg608
I23
sg609
I23
sasS'total_cqs'
p611
I27
ssI58
(dp612
S'iters'
p613
I2
sS'meta'
p614
(lp615
(dp616
S'objective'
p617
I13
sS'query_time'
p618
F30.158275842666626
sS'comp_time'
p619
F0.00516510009765625
sS'exec_cq'
p620
I8
sS'total_cq'
p621
I10
sa(dp622
g617
I1
sg618
F2.252750873565674
sg619
F0.08624458312988281
sg620
I2
sg621
I4
sasS'total_cqs'
p623
I10
ssI59
(dp624
S'iters'
p625
I4
sS'meta'
p626
(lp627
(dp628
S'objective'
p629
I1286
sS'query_time'
p630
F69.36713314056396
sS'comp_time'
p631
F2.0324323177337646
sS'exec_cq'
p632
I59
sS'total_cq'
p633
I59
sa(dp634
g629
I1180
sg630
F0.5224711894989014
sg631
F1.1706857681274414
sg632
I51
sg633
I51
sa(dp635
g629
I1020
sg630
F0.4860861301422119
sg631
F1.0708632469177246
sg632
I45
sg633
I45
sa(dp636
g629
I1069
sg630
F0.39579296112060547
sg631
F1.0264570713043213
sg632
I38
sg633
I38
sasS'total_cqs'
p637
I59
ssI60
(dp638
S'iters'
p639
I2
sS'meta'
p640
(lp641
(dp642
S'objective'
p643
I50
sS'query_time'
p644
F35.93080806732178
sS'comp_time'
p645
F0.025482892990112305
sS'exec_cq'
p646
I13
sS'total_cq'
p647
I15
sa(dp648
g643
I5
sg644
F0.489285945892334
sg645
F0.0004215240478515625
sg646
I2
sg647
I4
sasS'total_cqs'
p649
I15
ssI61
(dp650
S'iters'
p651
I2
sS'meta'
p652
(lp653
(dp654
S'objective'
p655
I25
sS'query_time'
p656
F43.96393394470215
sS'comp_time'
p657
F0.016960620880126953
sS'exec_cq'
p658
I14
sS'total_cq'
p659
I17
sa(dp660
g655
I30
sg656
F0.6100692749023438
sg657
F0.0004668235778808594
sg658
I7
sg659
I7
sasS'total_cqs'
p661
I17
ssI62
(dp662
S'iters'
p663
I6
sS'meta'
p664
(lp665
(dp666
S'objective'
p667
I10655
sS'query_time'
p668
F59.79321217536926
sS'comp_time'
p669
F1.0785677433013916
sS'exec_cq'
p670
I158
sS'total_cq'
p671
I158
sa(dp672
g667
I9802
sg668
F0.002788066864013672
sg669
F0.008097648620605469
sg670
I148
sg671
I148
sa(dp673
g667
I10113
sg668
F0.001135110855102539
sg669
F0.004189014434814453
sg670
I138
sg671
I138
sa(dp674
g667
I9933
sg668
F0.0006530284881591797
sg669
F0.0021522045135498047
sg670
I134
sg671
I134
sa(dp675
g667
I9843
sg668
F0.0005199909210205078
sg669
F0.0010945796966552734
sg670
I132
sg671
I132
sa(dp676
g667
I9691
sg668
F0.00043892860412597656
sg669
F0.0007352828979492188
sg670
I130
sg671
I130
sasS'total_cqs'
p677
I158
ssI63
(dp678
S'iters'
p679
I4
sS'meta'
p680
(lp681
(dp682
S'objective'
p683
I2509
sS'query_time'
p684
F90.32503771781921
sS'comp_time'
p685
F0.2753872871398926
sS'exec_cq'
p686
I77
sS'total_cq'
p687
I77
sa(dp688
g683
I2306
sg684
F0.0030150413513183594
sg685
F0.003038167953491211
sg686
I70
sg687
I70
sa(dp689
g683
I2361
sg684
F0.0008561611175537109
sg685
F0.0022521018981933594
sg686
I63
sg687
I63
sa(dp690
g683
I2292
sg684
F0.0002357959747314453
sg685
F0.0005624294281005859
sg686
I61
sg687
I61
sasS'total_cqs'
p691
I77
ssI64
(dp692
S'iters'
p693
I10
sS'meta'
p694
(lp695
(dp696
S'objective'
p697
I8158
sS'query_time'
p698
F116.14988493919373
sS'comp_time'
p699
F7.2930827140808105
sS'exec_cq'
p700
I135
sS'total_cq'
p701
I135
sa(dp702
g697
I8153
sg698
F1.5281519889831543
sg699
F4.89625096321106
sg700
I129
sg701
I129
sa(dp703
g697
I7925
sg698
F0.7371921539306641
sg699
F1.9914164543151855
sg700
I126
sg701
I126
sa(dp704
g697
I7716
sg698
F0.9060590267181396
sg699
F2.00419020652771
sg700
I124
sg701
I124
sa(dp705
g697
I7540
sg698
F0.7690250873565674
sg699
F2.0244343280792236
sg700
I122
sg701
I122
sa(dp706
g697
I7357
sg698
F1.0484139919281006
sg699
F2.0647499561309814
sg700
I120
sg701
I120
sa(dp707
g697
I7187
sg698
F0.19146108627319336
sg699
F0.4499020576477051
sg700
I118
sg701
I118
sa(dp708
g697
I7042
sg698
F0.053762197494506836
sg699
F0.44855475425720215
sg700
I116
sg701
I116
sa(dp709
g697
I6919
sg698
F0.054886817932128906
sg699
F0.44497108459472656
sg700
I114
sg701
I114
sa(dp710
g697
I6792
sg698
F0.19295978546142578
sg699
F0.2984433174133301
sg700
I112
sg701
I112
sasS'total_cqs'
p711
I135
ssI65
(dp712
S'iters'
p713
I2
sS'meta'
p714
(lp715
(dp716
S'objective'
p717
I279
sS'query_time'
p718
F40.634032011032104
sS'comp_time'
p719
F0.03164815902709961
sS'exec_cq'
p720
I26
sS'total_cq'
p721
I26
sa(dp722
g717
I263
sg718
F0.002020120620727539
sg719
F0.002455472946166992
sg720
I24
sg721
I24
sasS'total_cqs'
p723
I26
ssI66
(dp724
S'iters'
p725
I3
sS'meta'
p726
(lp727
(dp728
S'objective'
p729
I263
sS'query_time'
p730
F41.58419322967529
sS'comp_time'
p731
F0.11550474166870117
sS'exec_cq'
p732
I25
sS'total_cq'
p733
I25
sa(dp734
g729
I242
sg730
F0.010563135147094727
sg731
F0.024027347564697266
sg732
I23
sg733
I23
sa(dp735
g729
I218
sg730
F0.009846925735473633
sg731
F0.023550987243652344
sg732
I21
sg733
I21
sasS'total_cqs'
p736
I25
ssI67
(dp737
S'iters'
p738
I4
sS'meta'
p739
(lp740
(dp741
S'objective'
p742
I245
sS'query_time'
p743
F6.573906421661377
sS'comp_time'
p744
F0.10903000831604004
sS'exec_cq'
p745
I25
sS'total_cq'
p746
I25
sa(dp747
g742
I223
sg743
F0.028259992599487305
sg744
F0.1118466854095459
sg745
I23
sg746
I23
sa(dp748
g742
I202
sg743
F0.017706871032714844
sg744
F0.04693007469177246
sg745
I21
sg746
I21
sa(dp749
g742
I178
sg743
F0.03564810752868652
sg744
F0.03817105293273926
sg745
I19
sg746
I19
sasS'total_cqs'
p750
I25
ssI68
(dp751
S'iters'
p752
I5
sS'meta'
p753
(lp754
(dp755
S'objective'
p756
I1741
sS'query_time'
p757
F26.535475969314575
sS'comp_time'
p758
F0.2773916721343994
sS'exec_cq'
p759
I63
sS'total_cq'
p760
I73
sa(dp761
g756
I1371
sg757
F0.0005900859832763672
sg758
F0.002512693405151367
sg759
I52
sg760
I62
sa(dp762
g756
I948
sg757
F0.0004341602325439453
sg758
F0.0020492076873779297
sg759
I41
sg760
I51
sa(dp763
g756
I584
sg757
F0.0003681182861328125
sg758
F0.001463174819946289
sg759
I31
sg760
I41
sa(dp764
g756
I832
sg757
F0.05933117866516113
sg758
F0.0014412403106689453
sg759
I32
sg760
I32
sasS'total_cqs'
p765
I73
ssI69
(dp766
S'iters'
p767
I5
sS'meta'
p768
(lp769
(dp770
S'objective'
p771
I1820
sS'query_time'
p772
F33.104039907455444
sS'comp_time'
p773
F0.23113727569580078
sS'exec_cq'
p774
I72
sS'total_cq'
p775
I72
sa(dp776
g771
I1480
sg772
F0.0010290145874023438
sg773
F0.0027663707733154297
sg774
I61
sg775
I61
sa(dp777
g771
I1158
sg772
F0.0007710456848144531
sg773
F0.002305746078491211
sg774
I51
sg775
I51
sa(dp778
g771
I863
sg772
F0.0006108283996582031
sg773
F0.0019080638885498047
sg774
I41
sg775
I41
sa(dp779
g771
I1040
sg772
F0.00018978118896484375
sg773
F0.0007417201995849609
sg774
I30
sg775
I30
sasS'total_cqs'
p780
I72
ssI70
(dp781
S'iters'
p782
I7
sS'meta'
p783
(lp784
(dp785
S'objective'
p786
I5419
sS'query_time'
p787
F99.36567330360413
sS'comp_time'
p788
F3.4120020866394043
sS'exec_cq'
p789
I109
sS'total_cq'
p790
I109
sa(dp791
g786
I5293
sg787
F0.8066818714141846
sg788
F2.8132739067077637
sg789
I105
sg790
I105
sa(dp792
g786
I5128
sg787
F0.2895691394805908
sg788
F1.1960926055908203
sg789
I101
sg790
I101
sa(dp793
g786
I4962
sg787
F0.2704739570617676
sg788
F1.3626036643981934
sg789
I99
sg790
I99
sa(dp794
g786
I4868
sg787
F0.15346026420593262
sg788
F0.8246192932128906
sg789
I97
sg790
I97
sa(dp795
g786
I4779
sg787
F0.14644813537597656
sg788
F0.8301041126251221
sg789
I95
sg790
I95
sa(dp796
g786
I4673
sg787
F0.15790915489196777
sg788
F0.9731390476226807
sg789
I93
sg790
I93
sasS'total_cqs'
p797
I109
ssI71
(dp798
S'iters'
p799
I16
sS'meta'
p800
(lp801
(dp802
S'objective'
p803
I156804
sS'query_time'
p804
F188.75783491134644
sS'comp_time'
p805
F28.855628728866577
sS'exec_cq'
p806
I568
sS'total_cq'
p807
I568
sa(dp808
g803
I156610
sg804
F0.5647850036621094
sg805
F2.0404248237609863
sg806
I562
sg807
I562
sa(dp809
g803
I155779
sg804
F0.4656081199645996
sg805
F1.7844228744506836
sg806
I556
sg807
I556
sa(dp810
g803
I154728
sg804
F0.45992183685302734
sg805
F1.9426589012145996
sg806
I554
sg807
I554
sa(dp811
g803
I153787
sg804
F0.4687337875366211
sg805
F1.8076539039611816
sg806
I550
sg807
I550
sa(dp812
g803
I153110
sg804
F0.4606196880340576
sg805
F1.8256125450134277
sg806
I548
sg807
I548
sa(dp813
g803
I152362
sg804
F0.5427999496459961
sg805
F1.8499338626861572
sg806
I546
sg807
I546
sa(dp814
g803
I151575
sg804
F0.4655799865722656
sg805
F0.4978311061859131
sg806
I544
sg807
I544
sa(dp815
g803
I150937
sg804
F0.4511141777038574
sg805
F1.7305200099945068
sg806
I542
sg807
I542
sa(dp816
g803
I150227
sg804
F0.4392087459564209
sg805
F1.8144752979278564
sg806
I540
sg807
I540
sa(dp817
g803
I149525
sg804
F0.4464590549468994
sg805
F1.8049190044403076
sg806
I538
sg807
I538
sa(dp818
g803
I148912
sg804
F0.43747520446777344
sg805
F1.8090457916259766
sg806
I536
sg807
I536
sa(dp819
g803
I148258
sg804
F0.4484291076660156
sg805
F1.833003044128418
sg806
I534
sg807
I534
sa(dp820
g803
I147627
sg804
F0.4365379810333252
sg805
F0.5062038898468018
sg806
I532
sg807
I532
sa(dp821
g803
I147107
sg804
F0.43692874908447266
sg805
F1.7461438179016113
sg806
I530
sg807
I530
sa(dp822
g803
I146553
sg804
F0.4409346580505371
sg805
F1.7720575332641602
sg806
I528
sg807
I528
sasS'total_cqs'
p823
I568
ssI72
(dp824
S'iters'
p825
I2
sS'meta'
p826
(lp827
(dp828
S'objective'
p829
I7589
sS'query_time'
p830
F21.067074060440063
sS'comp_time'
p831
F0.7084147930145264
sS'exec_cq'
p832
I125
sS'total_cq'
p833
I125
sa(dp834
g829
I7482
sg830
F0.010437250137329102
sg831
F0.019315004348754883
sg832
I123
sg833
I123
sasS'total_cqs'
p835
I125
ssI73
(dp836
S'iters'
p837
I6
sS'meta'
p838
(lp839
(dp840
S'objective'
p841
I7511
sS'query_time'
p842
F45.30763602256775
sS'comp_time'
p843
F1.35687255859375
sS'exec_cq'
p844
I125
sS'total_cq'
p845
I125
sa(dp846
g841
I7359
sg842
F0.09066939353942871
sg843
F0.4311649799346924
sg844
I123
sg845
I123
sa(dp847
g841
I7214
sg842
F0.08043599128723145
sg843
F0.32100391387939453
sg844
I121
sg845
I121
sa(dp848
g841
I7088
sg842
F0.17832589149475098
sg843
F0.30414605140686035
sg844
I119
sg845
I119
sa(dp849
g841
I6949
sg842
F0.08231210708618164
sg843
F0.3215007781982422
sg844
I117
sg845
I117
sa(dp850
g841
I6839
sg842
F0.1477646827697754
sg843
F0.10006904602050781
sg844
I115
sg845
I115
sasS'total_cqs'
p851
I125
ssI138
(dp852
S'iters'
p853
I3
sS'meta'
p854
(lp855
(dp856
S'objective'
p857
I1728
sS'query_time'
p858
F2.067124128341675
sS'comp_time'
p859
F0.21510529518127441
sS'exec_cq'
p860
I61
sS'total_cq'
p861
I75
sa(dp862
g857
I2045
sg858
F0.10253691673278809
sg859
F0.0030088424682617188
sg860
I55
sg861
I55
sa(dp863
g857
I2017
sg858
F0.0004477500915527344
sg859
F0.0006685256958007812
sg860
I52
sg861
I52
sasS'total_cqs'
p864
I75
ssI141
(dp865
S'iters'
p866
I9
sS'meta'
p867
(lp868
(dp869
S'objective'
p870
I64044
sS'query_time'
p871
F55.50506901741028
sS'comp_time'
p872
F9.269835710525513
sS'exec_cq'
p873
I383
sS'total_cq'
p874
I383
sa(dp875
g870
I61024
sg871
F0.007998943328857422
sg872
F0.043978214263916016
sg873
I360
sg874
I360
sa(dp876
g870
I57945
sg871
F0.0057239532470703125
sg872
F0.01956796646118164
sg873
I337
sg874
I337
sa(dp877
g870
I59780
sg871
F0.00567317008972168
sg872
F0.014963150024414062
sg873
I319
sg874
I319
sa(dp878
g870
I58973
sg871
F0.004011869430541992
sg872
F0.007349252700805664
sg873
I315
sg874
I315
sa(dp879
g870
I58248
sg871
F0.003699064254760742
sg872
F0.005948781967163086
sg873
I311
sg874
I311
sa(dp880
g870
I57524
sg871
F0.0035829544067382812
sg872
F0.00680994987487793
sg873
I306
sg874
I306
sa(dp881
g870
I57459
sg871
F0.0008680820465087891
sg872
F0.0029289722442626953
sg873
I300
sg874
I300
sa(dp882
g870
I57099
sg871
F0.0006809234619140625
sg872
F0.002088785171508789
sg873
I297
sg874
I297
sasS'total_cqs'
p883
I383
ssI139
(dp884
S'iters'
p885
I7
sS'meta'
p886
(lp887
(dp888
S'objective'
p889
I78183
sS'query_time'
p890
F55.97195291519165
sS'comp_time'
p891
F14.248195886611938
sS'exec_cq'
p892
I425
sS'total_cq'
p893
I425
sa(dp894
g889
I75542
sg890
F0.09711980819702148
sg891
F0.05888009071350098
sg892
I398
sg893
I398
sa(dp895
g889
I72336
sg890
F0.001940011978149414
sg891
F0.009551763534545898
sg892
I377
sg893
I377
sa(dp896
g889
I74684
sg890
F0.001811981201171875
sg891
F0.008588790893554688
sg892
I358
sg893
I358
sa(dp897
g889
I74035
sg890
F0.0014662742614746094
sg891
F0.0031490325927734375
sg892
I355
sg893
I355
sa(dp898
g889
I73552
sg890
F0.0012927055358886719
sg891
F0.003159761428833008
sg892
I351
sg893
I351
sa(dp899
g889
I73288
sg890
F0.0008347034454345703
sg891
F0.0010638236999511719
sg892
I348
sg893
I348
sasS'total_cqs'
p900
I425
ssI142
(dp901
S'iters'
p902
I1
sS'meta'
p903
(lp904
(dp905
S'objective'
p906
I0
sS'query_time'
p907
F21.33283281326294
sS'comp_time'
p908
F0.0008349418640136719
sS'exec_cq'
p909
I3
sS'total_cq'
p910
I3
sasS'total_cqs'
p911
I3
ssI135
(dp912
S'iters'
p913
I2
sS'meta'
p914
(lp915
(dp916
S'objective'
p917
I10
sS'query_time'
p918
F28.43230700492859
sS'comp_time'
p919
F0.43949007987976074
sS'exec_cq'
p920
I7
sS'total_cq'
p921
I7
sa(dp922
g917
I5
sg918
F0.13372802734375
sg919
F0.3231978416442871
sg920
I2
sg921
I2
sasS'total_cqs'
p923
I7
ssI133
(dp924
S'iters'
p925
I1
sS'meta'
p926
(lp927
(dp928
S'objective'
p929
I1
sS'query_time'
p930
F21.739716053009033
sS'comp_time'
p931
F0.0007202625274658203
sS'exec_cq'
p932
I2
sS'total_cq'
p933
I2
sasS'total_cqs'
p934
I2
ssI148
(dp935
S'iters'
p936
I7
sS'meta'
p937
(lp938
(dp939
S'objective'
p940
I57098
sS'query_time'
p941
F27.447282791137695
sS'comp_time'
p942
F8.536972045898438
sS'exec_cq'
p943
I359
sS'total_cq'
p944
I359
sa(dp945
g940
I53827
sg941
F0.0018529891967773438
sg942
F0.01441335678100586
sg943
I340
sg944
I340
sa(dp946
g940
I52037
sg941
F0.001173257827758789
sg942
F0.008024215698242188
sg943
I321
sg944
I321
sa(dp947
g940
I53588
sg941
F0.0009171962738037109
sg942
F0.004643678665161133
sg943
I310
sg944
I310
sa(dp948
g940
I53115
sg941
F0.000762939453125
sg942
F0.0014081001281738281
sg943
I306
sg944
I306
sa(dp949
g940
I52713
sg941
F0.0007379055023193359
sg942
F0.001041412353515625
sg943
I302
sg944
I302
sa(dp950
g940
I52452
sg941
F0.0007278919219970703
sg942
F0.00128173828125
sg943
I300
sg944
I300
sasS'total_cqs'
p951
I359
ssI140
(dp952
S'iters'
p953
I0
sS'meta'
p954
(lp955
sS'total_cqs'
p956
I1
ssI137
(dp957
S'iters'
p958
I6
sS'meta'
p959
(lp960
(dp961
S'objective'
p962
I71038
sS'query_time'
p963
F48.49970197677612
sS'comp_time'
p964
F10.55076813697815
sS'exec_cq'
p965
I400
sS'total_cq'
p966
I400
sa(dp967
g962
I69083
sg963
F0.0036118030548095703
sg964
F0.048264265060424805
sg965
I382
sg966
I382
sa(dp968
g962
I66195
sg963
F0.0035622119903564453
sg964
F0.02860426902770996
sg965
I366
sg966
I366
sa(dp969
g962
I67797
sg963
F0.001461029052734375
sg964
F0.016010761260986328
sg965
I351
sg966
I351
sa(dp970
g962
I67729
sg963
F0.0011169910430908203
sg964
F0.003667116165161133
sg965
I348
sg966
I348
sa(dp971
g962
I67332
sg963
F0.001071929931640625
sg964
F0.003159046173095703
sg965
I344
sg966
I344
sasS'total_cqs'
p972
I400
ssI136
(dp973
S'iters'
p974
I3
sS'meta'
p975
(lp976
(dp977
S'objective'
p978
I337
sS'query_time'
p979
F18.914615869522095
sS'comp_time'
p980
F0.10495305061340332
sS'exec_cq'
p981
I46
sS'total_cq'
p982
I57
sa(dp983
g978
I813
sg979
F0.07249593734741211
sg980
F0.0015697479248046875
sg981
I35
sg982
I35
sa(dp984
g978
I790
sg979
F0.00014472007751464844
sg980
F0.00023126602172851562
sg981
I32
sg982
I32
sasS'total_cqs'
p985
I57
ss.