(dp0
I1
(dp1
S'iters'
p2
I1
sS'meta'
p3
(lp4
(dp5
S'objective'
p6
I2
sS'query_time'
p7
F40.139724016189575
sS'comp_time'
p8
F0.002125263214111328
sS'exec_cq'
p9
I4
sS'total_cq'
p10
I4
sasS'total_cqs'
p11
I4
ssI2
(dp12
S'iters'
p13
I1
sS'meta'
p14
(lp15
(dp16
S'objective'
p17
I2
sS'query_time'
p18
F0.014945030212402344
sS'comp_time'
p19
F0.002161741256713867
sS'exec_cq'
p20
I4
sS'total_cq'
p21
I4
sasS'total_cqs'
p22
I4
ssI3
(dp23
S'iters'
p24
I0
sS'meta'
p25
(lp26
sS'total_cqs'
p27
I1
ssI4
(dp28
S'iters'
p29
I0
sS'meta'
p30
(lp31
sS'total_cqs'
p32
I1
ssI5
(dp33
S'iters'
p34
I6
sS'meta'
p35
(lp36
(dp37
S'objective'
p38
I853
sS'query_time'
p39
F576.9336709976196
sS'comp_time'
p40
F0.8354496955871582
sS'exec_cq'
p41
I54
sS'total_cq'
p42
I54
sa(dp43
g38
I989
sg39
F0.32816600799560547
sg40
F0.6148471832275391
sg41
I42
sg42
I42
sa(dp44
g38
I931
sg39
F0.01058197021484375
sg40
F0.025849580764770508
sg41
I38
sg42
I38
sa(dp45
g38
I893
sg39
F0.0018420219421386719
sg40
F0.004054069519042969
sg41
I36
sg42
I36
sa(dp46
g38
I839
sg39
F0.0015609264373779297
sg40
F0.004032135009765625
sg41
I34
sg42
I34
sa(dp47
g38
I786
sg39
F0.001416921615600586
sg40
F0.003561258316040039
sg41
I32
sg42
I32
sasS'total_cqs'
p48
I54
ssI6
(dp49
S'iters'
p50
I1
sS'meta'
p51
(lp52
(dp53
S'objective'
p54
I2
sS'query_time'
p55
F40.136006116867065
sS'comp_time'
p56
F0.002046346664428711
sS'exec_cq'
p57
I4
sS'total_cq'
p58
I4
sasS'total_cqs'
p59
I4
ssI7
(dp60
S'iters'
p61
I0
sS'meta'
p62
(lp63
sS'total_cqs'
p64
I1
ssI8
(dp65
S'iters'
p66
I0
sS'meta'
p67
(lp68
sS'total_cqs'
p69
I1
ssI9
(dp70
S'iters'
p71
I1
sS'meta'
p72
(lp73
(dp74
S'objective'
p75
I0
sS'query_time'
p76
F27.934927940368652
sS'comp_time'
p77
F0.017366647720336914
sS'exec_cq'
p78
I3
sS'total_cq'
p79
I3
sasS'total_cqs'
p80
I3
ssI10
(dp81
S'iters'
p82
I1
sS'meta'
p83
(lp84
(dp85
S'objective'
p86
I2
sS'query_time'
p87
F3.161566972732544
sS'comp_time'
p88
F0.007532835006713867
sS'exec_cq'
p89
I4
sS'total_cq'
p90
I4
sasS'total_cqs'
p91
I4
ssI11
(dp92
S'iters'
p93
I1
sS'meta'
p94
(lp95
(dp96
S'objective'
p97
I14
sS'query_time'
p98
F77.5668511390686
sS'comp_time'
p99
F0.003621816635131836
sS'exec_cq'
p100
I7
sS'total_cq'
p101
I7
sasS'total_cqs'
p102
I7
ssI12
(dp103
S'iters'
p104
I3
sS'meta'
p105
(lp106
(dp107
S'objective'
p108
I8
sS'query_time'
p109
F77.16834902763367
sS'comp_time'
p110
F0.0045299530029296875
sS'exec_cq'
p111
I6
sS'total_cq'
p112
I7
sa(dp113
g108
I2
sg109
F9.298324584960938e-05
sg110
F0.0002892017364501953
sg111
I4
sg112
I5
sa(dp114
g108
I4
sg109
F5.793571472167969e-05
sg110
F0.0001800060272216797
sg111
I2
sg112
I3
sasS'total_cqs'
p115
I7
ssI13
(dp116
S'iters'
p117
I0
sS'meta'
p118
(lp119
sS'total_cqs'
p120
I1
ssI14
(dp121
S'iters'
p122
I2
sS'meta'
p123
(lp124
(dp125
S'objective'
p126
I243
sS'query_time'
p127
F345.88355112075806
sS'comp_time'
p128
F0.5375049114227295
sS'exec_cq'
p129
I25
sS'total_cq'
p130
I25
sa(dp131
g126
I234
sg127
F0.1167910099029541
sg128
F0.27817296981811523
sg129
I21
sg130
I21
sasS'total_cqs'
p132
I25
ssI15
(dp133
S'iters'
p134
I2
sS'meta'
p135
(lp136
(dp137
S'objective'
p138
I55
sS'query_time'
p139
F60.835448026657104
sS'comp_time'
p140
F0.010051727294921875
sS'exec_cq'
p141
I13
sS'total_cq'
p142
I13
sa(dp143
g138
I47
sg139
F7.104873657226562e-05
sg140
F0.0001761913299560547
sg141
I11
sg142
I11
sasS'total_cqs'
p144
I13
ssI16
(dp145
S'iters'
p146
I3
sS'meta'
p147
(lp148
(dp149
S'objective'
p150
I95
sS'query_time'
p151
F228.351665019989
sS'comp_time'
p152
F0.31675004959106445
sS'exec_cq'
p153
I17
sS'total_cq'
p154
I17
sa(dp155
g150
I86
sg151
F0.09378194808959961
sg152
F0.3901631832122803
sg153
I15
sg154
I15
sa(dp156
g150
I71
sg151
F7.009506225585938e-05
sg152
F0.00029587745666503906
sg153
I13
sg154
I13
sasS'total_cqs'
p157
I17
ssI17
(dp158
S'iters'
p159
I1
sS'meta'
p160
(lp161
(dp162
S'objective'
p163
I104
sS'query_time'
p164
F80.75848293304443
sS'comp_time'
p165
F0.013631820678710938
sS'exec_cq'
p166
I16
sS'total_cq'
p167
I16
sasS'total_cqs'
p168
I16
ssI18
(dp169
S'iters'
p170
I3
sS'meta'
p171
(lp172
(dp173
S'objective'
p174
I154
sS'query_time'
p175
F447.28038215637207
sS'comp_time'
p176
F0.9136667251586914
sS'exec_cq'
p177
I20
sS'total_cq'
p178
I20
sa(dp179
g174
I134
sg175
F0.00022220611572265625
sg176
F0.0007276535034179688
sg177
I18
sg178
I18
sa(dp180
g174
I118
sg175
F9.989738464355469e-05
sg176
F0.0004673004150390625
sg177
I15
sg178
I15
sasS'total_cqs'
p181
I20
ssI19
(dp182
S'iters'
p183
I5
sS'meta'
p184
(lp185
(dp186
S'objective'
p187
I3586
sS'query_time'
p188
F1350.4429759979248
sS'comp_time'
p189
F4.6571948528289795
sS'exec_cq'
p190
I88
sS'total_cq'
p191
I88
sa(dp192
g187
I3509
sg188
F1.8390679359436035
sg189
F3.7156498432159424
sg190
I86
sg191
I86
sa(dp193
g187
I3392
sg188
F0.991326093673706
sg189
F2.4256324768066406
sg190
I82
sg191
I82
sa(dp194
g187
I3315
sg188
F0.6196179389953613
sg189
F1.6027934551239014
sg190
I80
sg191
I80
sa(dp195
g187
I3237
sg188
F0.47119593620300293
sg189
F1.2356147766113281
sg190
I78
sg191
I78
sasS'total_cqs'
p196
I88
ssI148
(dp197
S'iters'
p198
I8
sS'meta'
p199
(lp200
(dp201
S'objective'
p202
I54534
sS'query_time'
p203
F132.1006259918213
sS'comp_time'
p204
F8.127675771713257
sS'exec_cq'
p205
I359
sS'total_cq'
p206
I359
sa(dp207
g202
I52233
sg203
F0.001967906951904297
sg204
F0.026969194412231445
sg205
I333
sg206
I333
sa(dp208
g202
I50075
sg203
F0.0012900829315185547
sg204
F0.014132976531982422
sg205
I314
sg206
I314
sa(dp209
g202
I51268
sg203
F0.0010001659393310547
sg204
F0.010455846786499023
sg205
I298
sg206
I298
sa(dp210
g202
I50875
sg203
F0.0007951259613037109
sg204
F0.0025055408477783203
sg205
I294
sg206
I294
sa(dp211
g202
I50324
sg203
F0.0007588863372802734
sg204
F0.003120899200439453
sg205
I291
sg206
I291
sa(dp212
g202
I50177
sg203
F0.0007271766662597656
sg204
F0.0017292499542236328
sg205
I287
sg206
I287
sa(dp213
g202
I49827
sg203
F0.0007278919219970703
sg204
F0.001967906951904297
sg205
I285
sg206
I285
sasS'total_cqs'
p214
I359
ssI21
(dp215
S'iters'
p216
I1
sS'meta'
p217
(lp218
(dp219
S'objective'
p220
I5
sS'query_time'
p221
F0.02416515350341797
sS'comp_time'
p222
F0.0020818710327148438
sS'exec_cq'
p223
I2
sS'total_cq'
p224
I5
sasS'total_cqs'
p225
I5
ssI22
(dp226
S'iters'
p227
I1
sS'meta'
p228
(lp229
(dp230
S'objective'
p231
I0
sS'query_time'
p232
F46.13143301010132
sS'comp_time'
p233
F0.5526580810546875
sS'exec_cq'
p234
I3
sS'total_cq'
p235
I3
sasS'total_cqs'
p236
I3
ssI23
(dp237
S'iters'
p238
I0
sS'meta'
p239
(lp240
sS'total_cqs'
p241
I1
ssI24
(dp242
S'iters'
p243
I1
sS'meta'
p244
(lp245
(dp246
S'objective'
p247
I0
sS'query_time'
p248
F9.275858879089355
sS'comp_time'
p249
F0.001953125
sS'exec_cq'
p250
I3
sS'total_cq'
p251
I3
sasS'total_cqs'
p252
I3
ssI25
(dp253
S'iters'
p254
I1
sS'meta'
p255
(lp256
(dp257
S'objective'
p258
I0
sS'query_time'
p259
F7.487626075744629
sS'comp_time'
p260
F0.0013310909271240234
sS'exec_cq'
p261
I3
sS'total_cq'
p262
I3
sasS'total_cqs'
p263
I3
ssI26
(dp264
S'iters'
p265
I0
sS'meta'
p266
(lp267
sS'total_cqs'
p268
I1
ssI27
(dp269
S'iters'
p270
I0
sS'meta'
p271
(lp272
sS'total_cqs'
p273
I1
ssI28
(dp274
S'iters'
p275
I0
sS'meta'
p276
(lp277
sS'total_cqs'
p278
I1
ssI29
(dp279
S'iters'
p280
I1
sS'meta'
p281
(lp282
(dp283
S'objective'
p284
I14
sS'query_time'
p285
F40.013550996780396
sS'comp_time'
p286
F0.0035071372985839844
sS'exec_cq'
p287
I6
sS'total_cq'
p288
I7
sasS'total_cqs'
p289
I7
ssI30
(dp290
S'iters'
p291
I2
sS'meta'
p292
(lp293
(dp294
S'objective'
p295
I12
sS'query_time'
p296
F76.94346284866333
sS'comp_time'
p297
F0.004078388214111328
sS'exec_cq'
p298
I6
sS'total_cq'
p299
I7
sa(dp300
g295
I6
sg296
F8.58306884765625e-05
sg297
F0.0002334117889404297
sg298
I4
sg299
I5
sasS'total_cqs'
p301
I7
ssI31
(dp302
S'iters'
p303
I2
sS'meta'
p304
(lp305
(dp306
S'objective'
p307
I33
sS'query_time'
p308
F2.5507209300994873
sS'comp_time'
p309
F0.00559687614440918
sS'exec_cq'
p310
I8
sS'total_cq'
p311
I10
sa(dp312
g307
I9
sg308
F0.02326512336730957
sg309
F0.00041174888610839844
sg310
I2
sg311
I2
sasS'total_cqs'
p313
I10
ssI32
(dp314
S'iters'
p315
I3
sS'meta'
p316
(lp317
(dp318
S'objective'
p319
I17
sS'query_time'
p320
F1.1070709228515625
sS'comp_time'
p321
F0.005499839782714844
sS'exec_cq'
p322
I8
sS'total_cq'
p323
I10
sa(dp324
g319
I4
sg320
F3.886222839355469e-05
sg321
F7.987022399902344e-05
sg322
I5
sg323
I7
sa(dp325
g319
I4
sg320
F0.24683189392089844
sg321
F0.0035779476165771484
sg322
I2
sg323
I2
sasS'total_cqs'
p326
I10
ssI33
(dp327
S'iters'
p328
I2
sS'meta'
p329
(lp330
(dp331
S'objective'
p332
I18
sS'query_time'
p333
F0.9812948703765869
sS'comp_time'
p334
F0.007107973098754883
sS'exec_cq'
p335
I8
sS'total_cq'
p336
I11
sa(dp337
g332
I2
sg333
F0.056327104568481445
sg334
F0.0013782978057861328
sg335
I3
sg336
I4
sasS'total_cqs'
p338
I11
ssI34
(dp339
S'iters'
p340
I5
sS'meta'
p341
(lp342
(dp343
S'objective'
p344
I1621
sS'query_time'
p345
F428.4543340206146
sS'comp_time'
p346
F0.7828631401062012
sS'exec_cq'
p347
I60
sS'total_cq'
p348
I70
sa(dp349
g344
I1605
sg345
F61.91694092750549
sg346
F0.008054494857788086
sg347
I59
sg348
I59
sa(dp350
g344
I1623
sg345
F0.0035500526428222656
sg346
F0.0074040889739990234
sg347
I50
sg348
I50
sa(dp351
g344
I1576
sg345
F0.0032300949096679688
sg346
F0.008450031280517578
sg347
I47
sg348
I47
sa(dp352
g344
I1511
sg345
F0.0016469955444335938
sg346
F0.0028543472290039062
sg347
I45
sg348
I45
sasS'total_cqs'
p353
I70
ssI35
(dp354
S'iters'
p355
I6
sS'meta'
p356
(lp357
(dp358
S'objective'
p359
I1659
sS'query_time'
p360
F441.79750204086304
sS'comp_time'
p361
F1.2150778770446777
sS'exec_cq'
p362
I60
sS'total_cq'
p363
I70
sa(dp364
g359
I1386
sg360
F61.03465509414673
sg361
F0.12494039535522461
sg362
I58
sg363
I58
sa(dp365
g359
I1131
sg360
F0.018496274948120117
sg361
F0.03367304801940918
sg362
I48
sg363
I48
sa(dp366
g359
I1062
sg360
F0.09570121765136719
sg361
F0.03222370147705078
sg362
I38
sg363
I38
sa(dp367
g359
I966
sg360
F0.016971826553344727
sg361
F0.11676692962646484
sg362
I34
sg363
I34
sa(dp368
g359
I966
sg360
F0.008025169372558594
sg361
F0.012189149856567383
sg362
I31
sg363
I31
sasS'total_cqs'
p369
I70
ssI36
(dp370
S'iters'
p371
I2
sS'meta'
p372
(lp373
(dp374
S'objective'
p375
I69
sS'query_time'
p376
F20.846148014068604
sS'comp_time'
p377
F0.040171146392822266
sS'exec_cq'
p378
I15
sS'total_cq'
p379
I17
sa(dp380
g375
I8
sg376
F0.023614168167114258
sg377
F0.0004239082336425781
sg378
I5
sg379
I5
sasS'total_cqs'
p381
I17
ssI134
(dp382
S'iters'
p383
I1
sS'meta'
p384
(lp385
(dp386
S'objective'
p387
I1
sS'query_time'
p388
F20.801945209503174
sS'comp_time'
p389
F0.0005941390991210938
sS'exec_cq'
p390
I2
sS'total_cq'
p391
I2
sasS'total_cqs'
p392
I2
ssI38
(dp393
S'iters'
p394
I4
sS'meta'
p395
(lp396
(dp397
S'objective'
p398
I914
sS'query_time'
p399
F122.41430592536926
sS'comp_time'
p400
F0.40773987770080566
sS'exec_cq'
p401
I49
sS'total_cq'
p402
I59
sa(dp403
g398
I844
sg399
F0.19437503814697266
sg400
F0.42500734329223633
sg401
I40
sg402
I50
sa(dp404
g398
I739
sg399
F0.1723179817199707
sg400
F0.0034427642822265625
sg401
I42
sg402
I42
sa(dp405
g398
I798
sg399
F0.0018138885498046875
sg400
F0.0030319690704345703
sg401
I34
sg402
I34
sasS'total_cqs'
p406
I59
ssI39
(dp407
S'iters'
p408
I5
sS'meta'
p409
(lp410
(dp411
S'objective'
p412
I2204
sS'query_time'
p413
F158.8053970336914
sS'comp_time'
p414
F0.3347041606903076
sS'exec_cq'
p415
I79
sS'total_cq'
p416
I79
sa(dp417
g412
I1784
sg413
F0.00033402442932128906
sg414
F0.00828099250793457
sg415
I68
sg416
I68
sa(dp418
g412
I1601
sg413
F0.0002219676971435547
sg414
F0.004869699478149414
sg415
I58
sg416
I58
sa(dp419
g412
I1677
sg413
F0.00016999244689941406
sg414
F0.003197908401489258
sg415
I48
sg416
I48
sa(dp420
g412
I1639
sg413
F0.00014472007751464844
sg414
F0.0009658336639404297
sg415
I45
sg416
I45
sasS'total_cqs'
p421
I79
ssI40
(dp422
S'iters'
p423
I5
sS'meta'
p424
(lp425
(dp426
S'objective'
p427
I1988
sS'query_time'
p428
F149.95371413230896
sS'comp_time'
p429
F0.3801279067993164
sS'exec_cq'
p430
I73
sS'total_cq'
p431
I83
sa(dp432
g427
I1583
sg428
F0.0003879070281982422
sg429
F0.002111196517944336
sg430
I55
sg431
I65
sa(dp433
g427
I1232
sg428
F0.10860085487365723
sg429
F0.0015664100646972656
sg430
I54
sg431
I54
sa(dp434
g427
I1402
sg428
F0.0004611015319824219
sg429
F0.0016598701477050781
sg430
I42
sg431
I42
sa(dp435
g427
I1383
sg428
F0.00018286705017089844
sg429
F0.0004487037658691406
sg430
I39
sg431
I39
sasS'total_cqs'
p436
I83
ssI41
(dp437
S'iters'
p438
I1
sS'meta'
p439
(lp440
(dp441
S'objective'
p442
I5
sS'query_time'
p443
F20.15513825416565
sS'comp_time'
p444
F0.0033292770385742188
sS'exec_cq'
p445
I3
sS'total_cq'
p446
I5
sasS'total_cqs'
p447
I5
ssI42
(dp448
S'iters'
p449
I1
sS'meta'
p450
(lp451
(dp452
S'objective'
p453
I0
sS'query_time'
p454
F80.69728589057922
sS'comp_time'
p455
F0.0009818077087402344
sS'exec_cq'
p456
I3
sS'total_cq'
p457
I3
sasS'total_cqs'
p458
I3
ssI43
(dp459
S'iters'
p460
I1
sS'meta'
p461
(lp462
(dp463
S'objective'
p464
I5
sS'query_time'
p465
F0.4147980213165283
sS'comp_time'
p466
F0.015259027481079102
sS'exec_cq'
p467
I5
sS'total_cq'
p468
I5
sasS'total_cqs'
p469
I5
ssI44
(dp470
S'iters'
p471
I2
sS'meta'
p472
(lp473
(dp474
S'objective'
p475
I23
sS'query_time'
p476
F45.083483934402466
sS'comp_time'
p477
F0.005870819091796875
sS'exec_cq'
p478
I8
sS'total_cq'
p479
I10
sa(dp480
g475
I4
sg476
F40.010021924972534
sg477
F0.00020933151245117188
sg478
I2
sg479
I3
sasS'total_cqs'
p481
I10
ssI45
(dp482
S'iters'
p483
I0
sS'meta'
p484
(lp485
sS'total_cqs'
p486
I1
ssI46
(dp487
S'iters'
p488
I1
sS'meta'
p489
(lp490
(dp491
S'objective'
p492
I1
sS'query_time'
p493
F0.8670029640197754
sS'comp_time'
p494
F0.020244121551513672
sS'exec_cq'
p495
I2
sS'total_cq'
p496
I2
sasS'total_cqs'
p497
I2
ssI47
(dp498
S'iters'
p499
I0
sS'meta'
p500
(lp501
sS'total_cqs'
p502
I1
ssI48
(dp503
S'iters'
p504
I0
sS'meta'
p505
(lp506
sS'total_cqs'
p507
I1
ssI49
(dp508
S'iters'
p509
I1
sS'meta'
p510
(lp511
(dp512
S'objective'
p513
I0
sS'query_time'
p514
F42.809409856796265
sS'comp_time'
p515
F0.0660700798034668
sS'exec_cq'
p516
I3
sS'total_cq'
p517
I3
sasS'total_cqs'
p518
I3
ssI50
(dp519
S'iters'
p520
I2
sS'meta'
p521
(lp522
(dp523
S'objective'
p524
I54
sS'query_time'
p525
F8.94597601890564
sS'comp_time'
p526
F0.008935213088989258
sS'exec_cq'
p527
I12
sS'total_cq'
p528
I12
sa(dp529
g524
I42
sg525
F5.4836273193359375e-05
sg526
F0.0001888275146484375
sg527
I9
sg528
I9
sasS'total_cqs'
p530
I12
ssI51
(dp531
S'iters'
p532
I2
sS'meta'
p533
(lp534
(dp535
S'objective'
p536
I8
sS'query_time'
p537
F21.126267910003662
sS'comp_time'
p538
F0.008872747421264648
sS'exec_cq'
p539
I10
sS'total_cq'
p540
I12
sa(dp541
g536
I19
sg537
F10.849703073501587
sg538
F0.0003666877746582031
sg539
I5
sg540
I5
sasS'total_cqs'
p542
I12
ssI52
(dp543
S'iters'
p544
I2
sS'meta'
p545
(lp546
(dp547
S'objective'
p548
I6
sS'query_time'
p549
F1.4258148670196533
sS'comp_time'
p550
F0.008991003036499023
sS'exec_cq'
p551
I10
sS'total_cq'
p552
I12
sa(dp553
g548
I12
sg549
F0.15558695793151855
sg550
F0.00043702125549316406
sg551
I4
sg552
I4
sasS'total_cqs'
p554
I12
ssI53
(dp555
S'iters'
p556
I1
sS'meta'
p557
(lp558
(dp559
S'objective'
p560
I0
sS'query_time'
p561
F80.03298497200012
sS'comp_time'
p562
F0.0009381771087646484
sS'exec_cq'
p563
I3
sS'total_cq'
p564
I3
sasS'total_cqs'
p565
I3
ssI54
(dp566
S'iters'
p567
I1
sS'meta'
p568
(lp569
(dp570
S'objective'
p571
I5
sS'query_time'
p572
F80.2371780872345
sS'comp_time'
p573
F0.009938716888427734
sS'exec_cq'
p574
I5
sS'total_cq'
p575
I5
sasS'total_cqs'
p576
I5
ssI55
(dp577
S'iters'
p578
I2
sS'meta'
p579
(lp580
(dp581
S'objective'
p582
I17
sS'query_time'
p583
F213.0650029182434
sS'comp_time'
p584
F0.016429424285888672
sS'exec_cq'
p585
I10
sS'total_cq'
p586
I10
sa(dp587
g582
I1
sg583
F0.005378007888793945
sg584
F0.0067517757415771484
sg585
I2
sg586
I2
sasS'total_cqs'
p588
I10
ssI56
(dp589
S'iters'
p590
I3
sS'meta'
p591
(lp592
(dp593
S'objective'
p594
I7
sS'query_time'
p595
F33.83174395561218
sS'comp_time'
p596
F0.48468732833862305
sS'exec_cq'
p597
I6
sS'total_cq'
p598
I6
sa(dp599
g594
I0
sg595
F0.09824299812316895
sg596
F0.1781308650970459
sg597
I4
sg598
I4
sa(dp600
g594
I5
sg595
F0.0005910396575927734
sg596
F0.000324249267578125
sg597
I1
sg598
I2
sasS'total_cqs'
p601
I6
ssI57
(dp602
S'iters'
p603
I2
sS'meta'
p604
(lp605
(dp606
S'objective'
p607
I292
sS'query_time'
p608
F15.72175407409668
sS'comp_time'
p609
F0.14250779151916504
sS'exec_cq'
p610
I27
sS'total_cq'
p611
I27
sa(dp612
g607
I281
sg608
F0.058013916015625
sg609
F0.061731815338134766
sg610
I23
sg611
I23
sasS'total_cqs'
p613
I27
ssI58
(dp614
S'iters'
p615
I2
sS'meta'
p616
(lp617
(dp618
S'objective'
p619
I5
sS'query_time'
p620
F44.98142099380493
sS'comp_time'
p621
F0.007807016372680664
sS'exec_cq'
p622
I8
sS'total_cq'
p623
I10
sa(dp624
g619
I5
sg620
F2.2241570949554443
sg621
F0.08239197731018066
sg622
I2
sg623
I3
sasS'total_cqs'
p625
I10
ssI59
(dp626
S'iters'
p627
I5
sS'meta'
p628
(lp629
(dp630
S'objective'
p631
I1138
sS'query_time'
p632
F338.64806509017944
sS'comp_time'
p633
F1.8003380298614502
sS'exec_cq'
p634
I59
sS'total_cq'
p635
I59
sa(dp636
g631
I1024
sg632
F0.6277608871459961
sg633
F3.0747504234313965
sg634
I47
sg635
I47
sa(dp637
g631
I817
sg632
F0.6582221984863281
sg633
F1.7651574611663818
sg634
I39
sg635
I39
sa(dp638
g631
I870
sg632
F0.3007209300994873
sg633
F0.9470162391662598
sg634
I32
sg635
I32
sa(dp639
g631
I831
sg632
F0.3627817630767822
sg633
F1.0017094612121582
sg634
I30
sg635
I30
sasS'total_cqs'
p640
I59
ssI60
(dp641
S'iters'
p642
I2
sS'meta'
p643
(lp644
(dp645
S'objective'
p646
I28
sS'query_time'
p647
F49.26957988739014
sS'comp_time'
p648
F0.017141342163085938
sS'exec_cq'
p649
I13
sS'total_cq'
p650
I15
sa(dp651
g646
I16
sg647
F0.755944013595581
sg648
F0.0004222393035888672
sg649
I4
sg650
I4
sasS'total_cqs'
p652
I15
ssI61
(dp653
S'iters'
p654
I2
sS'meta'
p655
(lp656
(dp657
S'objective'
p658
I23
sS'query_time'
p659
F42.486591815948486
sS'comp_time'
p660
F0.01507568359375
sS'exec_cq'
p661
I14
sS'total_cq'
p662
I17
sa(dp663
g658
I31
sg659
F1.011376142501831
sg660
F0.00041294097900390625
sg661
I7
sg662
I7
sasS'total_cqs'
p664
I17
ssI62
(dp665
S'iters'
p666
I8
sS'meta'
p667
(lp668
(dp669
S'objective'
p670
I8983
sS'query_time'
p671
F715.6515197753906
sS'comp_time'
p672
F1.734550952911377
sS'exec_cq'
p673
I158
sS'total_cq'
p674
I158
sa(dp675
g670
I7238
sg671
F0.10869097709655762
sg672
F0.03602123260498047
sg673
I137
sg674
I137
sa(dp676
g670
I6041
sg671
F0.10135173797607422
sg672
F0.04715085029602051
sg673
I116
sg674
I116
sa(dp677
g670
I6381
sg671
F0.0007307529449462891
sg672
F0.003436565399169922
sg673
I95
sg674
I95
sa(dp678
g670
I6478
sg671
F0.0005841255187988281
sg672
F0.002122640609741211
sg673
I87
sg674
I87
sa(dp679
g670
I6289
sg671
F0.00044608116149902344
sg672
F0.0013606548309326172
sg673
I85
sg674
I85
sa(dp680
g670
I6102
sg671
F0.0003857612609863281
sg672
F0.0010554790496826172
sg673
I83
sg674
I83
sa(dp681
g670
I5986
sg671
F0.0003848075866699219
sg672
F0.0009937286376953125
sg673
I81
sg674
I81
sasS'total_cqs'
p682
I158
ssI63
(dp683
S'iters'
p684
I6
sS'meta'
p685
(lp686
(dp687
S'objective'
p688
I2027
sS'query_time'
p689
F309.24812030792236
sS'comp_time'
p690
F0.23279523849487305
sS'exec_cq'
p691
I77
sS'total_cq'
p692
I77
sa(dp693
g688
I1831
sg689
F0.002012968063354492
sg690
F0.005602359771728516
sg691
I67
sg692
I67
sa(dp694
g688
I1503
sg689
F0.0011947154998779297
sg690
F0.0035343170166015625
sg691
I58
sg692
I58
sa(dp695
g688
I1636
sg689
F0.0010418891906738281
sg690
F0.002544879913330078
sg691
I48
sg692
I48
sa(dp696
g688
I1581
sg689
F0.0009260177612304688
sg690
F0.0022852420806884766
sg691
I46
sg692
I46
sa(dp697
g688
I1505
sg689
F0.00024008750915527344
sg690
F0.0007009506225585938
sg691
I44
sg692
I44
sasS'total_cqs'
p698
I77
ssI64
(dp699
S'iters'
p700
I7
sS'meta'
p701
(lp702
(dp703
S'objective'
p704
I8096
sS'query_time'
p705
F951.4942660331726
sS'comp_time'
p706
F6.957156658172607
sS'exec_cq'
p707
I135
sS'total_cq'
p708
I135
sa(dp709
g704
I8168
sg705
F1.154456377029419
sg706
F3.1883955001831055
sg707
I129
sg708
I129
sa(dp710
g704
I7933
sg705
F0.2089698314666748
sg706
F0.46603941917419434
sg707
I126
sg708
I126
sa(dp711
g704
I7800
sg705
F0.2178342342376709
sg706
F0.3181934356689453
sg707
I124
sg708
I124
sa(dp712
g704
I7688
sg705
F0.07023334503173828
sg706
F0.586338996887207
sg707
I122
sg708
I122
sa(dp713
g704
I7554
sg705
F0.21427297592163086
sg706
F0.4700789451599121
sg707
I120
sg708
I120
sa(dp714
g704
I7425
sg705
F0.059433937072753906
sg706
F0.4765961170196533
sg707
I118
sg708
I118
sasS'total_cqs'
p715
I135
ssI65
(dp716
S'iters'
p717
I3
sS'meta'
p718
(lp719
(dp720
S'objective'
p721
I271
sS'query_time'
p722
F271.80653715133667
sS'comp_time'
p723
F0.03347182273864746
sS'exec_cq'
p724
I26
sS'total_cq'
p725
I26
sa(dp726
g721
I249
sg722
F0.0007939338684082031
sg723
F0.0019860267639160156
sg724
I24
sg725
I24
sa(dp727
g721
I228
sg722
F0.0007140636444091797
sg723
F0.0017473697662353516
sg724
I22
sg725
I22
sasS'total_cqs'
p728
I26
ssI66
(dp729
S'iters'
p730
I3
sS'meta'
p731
(lp732
(dp733
S'objective'
p734
I249
sS'query_time'
p735
F184.46442103385925
sS'comp_time'
p736
F0.13196277618408203
sS'exec_cq'
p737
I25
sS'total_cq'
p738
I25
sa(dp739
g734
I227
sg735
F0.020964860916137695
sg736
F0.04261445999145508
sg737
I23
sg738
I23
sa(dp740
g734
I207
sg735
F0.01677989959716797
sg736
F0.03466391563415527
sg737
I21
sg738
I21
sasS'total_cqs'
p741
I25
ssI67
(dp742
S'iters'
p743
I4
sS'meta'
p744
(lp745
(dp746
S'objective'
p747
I243
sS'query_time'
p748
F3.181497097015381
sS'comp_time'
p749
F0.130418062210083
sS'exec_cq'
p750
I25
sS'total_cq'
p751
I25
sa(dp752
g747
I222
sg748
F0.028226852416992188
sg749
F0.10732316970825195
sg750
I23
sg751
I23
sa(dp753
g747
I201
sg748
F0.017792701721191406
sg749
F0.07055234909057617
sg750
I21
sg751
I21
sa(dp754
g747
I177
sg748
F0.016614913940429688
sg749
F0.04438424110412598
sg750
I19
sg751
I19
sasS'total_cqs'
p755
I25
ssI68
(dp756
S'iters'
p757
I5
sS'meta'
p758
(lp759
(dp760
S'objective'
p761
I1901
sS'query_time'
p762
F24.478425979614258
sS'comp_time'
p763
F0.21609282493591309
sS'exec_cq'
p764
I73
sS'total_cq'
p765
I73
sa(dp766
g761
I1583
sg762
F0.0006799697875976562
sg763
F0.0025348663330078125
sg764
I63
sg765
I63
sa(dp767
g761
I1256
sg762
F0.0004930496215820312
sg763
F0.0022308826446533203
sg764
I52
sg765
I52
sa(dp768
g761
I1241
sg762
F0.00041675567626953125
sg763
F0.0016357898712158203
sg764
I41
sg765
I41
sa(dp769
g761
I1274
sg762
F0.0002999305725097656
sg763
F0.0010938644409179688
sg764
I32
sg765
I32
sasS'total_cqs'
p770
I73
ssI69
(dp771
S'iters'
p772
I5
sS'meta'
p773
(lp774
(dp775
S'objective'
p776
I1564
sS'query_time'
p777
F41.89429306983948
sS'comp_time'
p778
F0.23195505142211914
sS'exec_cq'
p779
I62
sS'total_cq'
p780
I72
sa(dp781
g776
I1262
sg777
F0.0004379749298095703
sg778
F0.002102375030517578
sg779
I51
sg780
I61
sa(dp782
g776
I909
sg777
F0.08828186988830566
sg778
F0.002090930938720703
sg779
I49
sg780
I49
sa(dp783
g776
I604
sg777
F0.0004379749298095703
sg778
F0.0017170906066894531
sg779
I37
sg780
I37
sa(dp784
g776
I805
sg777
F0.00019884109497070312
sg778
F0.0007503032684326172
sg779
I27
sg780
I27
sasS'total_cqs'
p785
I72
ssI70
(dp786
S'iters'
p787
I8
sS'meta'
p788
(lp789
(dp790
S'objective'
p791
I5455
sS'query_time'
p792
F952.5329058170319
sS'comp_time'
p793
F3.5804736614227295
sS'exec_cq'
p794
I109
sS'total_cq'
p795
I109
sa(dp796
g791
I5341
sg792
F0.33650803565979004
sg793
F1.4517836570739746
sg794
I105
sg795
I105
sa(dp797
g791
I5163
sg792
F0.299968957901001
sg793
F1.4764196872711182
sg794
I101
sg795
I101
sa(dp798
g791
I5024
sg792
F0.15740299224853516
sg793
F0.9018628597259521
sg794
I99
sg795
I99
sa(dp799
g791
I4876
sg792
F0.24186086654663086
sg793
F0.9272809028625488
sg794
I97
sg795
I97
sa(dp800
g791
I4797
sg792
F0.254688024520874
sg793
F0.7969465255737305
sg794
I95
sg795
I95
sa(dp801
g791
I4686
sg792
F0.2262430191040039
sg793
F0.9047515392303467
sg794
I93
sg795
I93
sa(dp802
g791
I4582
sg792
F0.24331426620483398
sg793
F0.9125239849090576
sg794
I91
sg795
I91
sasS'total_cqs'
p803
I109
ssI71
(dp804
S'iters'
p805
I23
sS'meta'
p806
(lp807
(dp808
S'objective'
p809
I157114
sS'query_time'
p810
F1254.9363911151886
sS'comp_time'
p811
F50.97671723365784
sS'exec_cq'
p812
I568
sS'total_cq'
p813
I568
sa(dp814
g809
I155583
sg810
F7.925124168395996
sg811
F21.24600386619568
sg812
I560
sg813
I560
sa(dp815
g809
I154543
sg810
F7.662952899932861
sg811
F18.595072746276855
sg812
I554
sg813
I554
sa(dp816
g809
I153742
sg810
F10.694682121276855
sg811
F15.66618299484253
sg812
I550
sg813
I550
sa(dp817
g809
I152970
sg810
F8.73402190208435
sg811
F17.422415018081665
sg812
I546
sg813
I546
sa(dp818
g809
I152138
sg810
F6.143200874328613
sg811
F15.848507165908813
sg812
I543
sg813
I543
sa(dp819
g809
I151256
sg810
F11.794373989105225
sg811
F11.889912366867065
sg812
I541
sg813
I541
sa(dp820
g809
I150505
sg810
F6.211769104003906
sg811
F17.87420892715454
sg812
I539
sg813
I539
sa(dp821
g809
I149688
sg810
F8.016761064529419
sg811
F16.36034059524536
sg812
I537
sg813
I537
sa(dp822
g809
I149048
sg810
F5.4166059494018555
sg811
F11.635756492614746
sg812
I535
sg813
I535
sa(dp823
g809
I148371
sg810
F7.30522084236145
sg811
F9.864001035690308
sg812
I533
sg813
I533
sa(dp824
g809
I147678
sg810
F7.29413366317749
sg811
F10.86661434173584
sg812
I531
sg813
I531
sa(dp825
g809
I147000
sg810
F5.499919176101685
sg811
F11.935871839523315
sg812
I529
sg813
I529
sa(dp826
g809
I146352
sg810
F7.388639211654663
sg811
F10.547721147537231
sg812
I527
sg813
I527
sa(dp827
g809
I145688
sg810
F5.361393928527832
sg811
F12.03291392326355
sg812
I525
sg813
I525
sa(dp828
g809
I145044
sg810
F7.354618072509766
sg811
F10.59052586555481
sg812
I523
sg813
I523
sa(dp829
g809
I144407
sg810
F7.305258274078369
sg811
F9.99765133857727
sg812
I521
sg813
I521
sa(dp830
g809
I143773
sg810
F7.2858359813690186
sg811
F9.967985153198242
sg812
I519
sg813
I519
sa(dp831
g809
I143175
sg810
F8.975449085235596
sg811
F7.985615015029907
sg812
I517
sg813
I517
sa(dp832
g809
I142564
sg810
F5.35788369178772
sg811
F12.693668842315674
sg812
I515
sg813
I515
sa(dp833
g809
I141967
sg810
F5.373054027557373
sg811
F11.943472623825073
sg812
I513
sg813
I513
sa(dp834
g809
I141425
sg810
F5.3129706382751465
sg811
F14.051050186157227
sg812
I511
sg813
I511
sa(dp835
g809
I140863
sg810
F3.7914257049560547
sg811
F12.559524774551392
sg812
I509
sg813
I509
sasS'total_cqs'
p836
I568
ssI72
(dp837
S'iters'
p838
I4
sS'meta'
p839
(lp840
(dp841
S'objective'
p842
I7505
sS'query_time'
p843
F1191.6023137569427
sS'comp_time'
p844
F0.7566463947296143
sS'exec_cq'
p845
I125
sS'total_cq'
p846
I125
sa(dp847
g842
I7396
sg843
F0.01254725456237793
sg844
F0.038698673248291016
sg845
I123
sg846
I123
sa(dp848
g842
I7253
sg843
F0.00918269157409668
sg844
F0.13977408409118652
sg845
I121
sg846
I121
sa(dp849
g842
I7148
sg843
F0.004319906234741211
sg844
F0.011420249938964844
sg845
I119
sg846
I119
sasS'total_cqs'
p850
I125
ssI73
(dp851
S'iters'
p852
I5
sS'meta'
p853
(lp854
(dp855
S'objective'
p856
I7417
sS'query_time'
p857
F911.0494949817657
sS'comp_time'
p858
F1.1622707843780518
sS'exec_cq'
p859
I125
sS'total_cq'
p860
I125
sa(dp861
g856
I7272
sg857
F0.18866443634033203
sg858
F0.3083915710449219
sg859
I123
sg860
I123
sa(dp862
g856
I7125
sg857
F0.08519601821899414
sg858
F0.387645959854126
sg859
I121
sg860
I121
sa(dp863
g856
I7002
sg857
F0.17853331565856934
sg858
F0.3048269748687744
sg859
I119
sg860
I119
sa(dp864
g856
I6897
sg857
F0.19445514678955078
sg858
F0.3975698947906494
sg859
I117
sg860
I117
sasS'total_cqs'
p865
I125
ssI138
(dp866
S'iters'
p867
I2
sS'meta'
p868
(lp869
(dp870
S'objective'
p871
I1196
sS'query_time'
p872
F1.8548920154571533
sS'comp_time'
p873
F0.20852017402648926
sS'exec_cq'
p874
I61
sS'total_cq'
p875
I75
sa(dp876
g871
I1873
sg872
F0.0581209659576416
sg873
F0.0016341209411621094
sg874
I55
sg875
I55
sasS'total_cqs'
p877
I75
ssI141
(dp878
S'iters'
p879
I9
sS'meta'
p880
(lp881
(dp882
S'objective'
p883
I57348
sS'query_time'
p884
F508.81569719314575
sS'comp_time'
p885
F9.833307266235352
sS'exec_cq'
p886
I383
sS'total_cq'
p887
I383
sa(dp888
g883
I57342
sg884
F0.009835004806518555
sg885
F0.04940295219421387
sg886
I345
sg887
I345
sa(dp889
g883
I53702
sg884
F0.006573915481567383
sg885
F0.027930259704589844
sg886
I317
sg887
I317
sa(dp890
g883
I53041
sg884
F0.006150960922241211
sg885
F0.02008819580078125
sg886
I298
sg887
I298
sa(dp891
g883
I53048
sg884
F0.005256175994873047
sg885
F0.014420270919799805
sg886
I285
sg887
I285
sa(dp892
g883
I52753
sg884
F0.0015358924865722656
sg885
F0.0064697265625
sg886
I279
sg887
I279
sa(dp893
g883
I52062
sg884
F0.0008161067962646484
sg885
F0.0036978721618652344
sg886
I274
sg887
I274
sa(dp894
g883
I51540
sg884
F0.0007410049438476562
sg885
F0.003156900405883789
sg886
I269
sg887
I269
sa(dp895
g883
I51385
sg884
F0.0006890296936035156
sg885
F0.0022156238555908203
sg886
I265
sg887
I265
sasS'total_cqs'
p896
I383
ssI139
(dp897
S'iters'
p898
I7
sS'meta'
p899
(lp900
(dp901
S'objective'
p902
I78267
sS'query_time'
p903
F121.98398303985596
sS'comp_time'
p904
F15.499812841415405
sS'exec_cq'
p905
I425
sS'total_cq'
p906
I425
sa(dp907
g902
I74700
sg903
F1.491056203842163
sg904
F1.7726881504058838
sg905
I398
sg906
I398
sa(dp908
g902
I70108
sg903
F0.4579310417175293
sg904
F1.7292492389678955
sg905
I379
sg906
I379
sa(dp909
g902
I73028
sg903
F1.2774832248687744
sg904
F1.669635534286499
sg905
I356
sg906
I356
sa(dp910
g902
I72300
sg903
F0.3286318778991699
sg904
F1.59002685546875
sg905
I353
sg906
I353
sa(dp911
g902
I71490
sg903
F1.246372938156128
sg904
F1.8125300407409668
sg905
I349
sg906
I349
sa(dp912
g902
I71452
sg903
F0.0010161399841308594
sg904
F0.0017323493957519531
sg905
I345
sg906
I345
sasS'total_cqs'
p913
I425
ssI142
(dp914
S'iters'
p915
I1
sS'meta'
p916
(lp917
(dp918
S'objective'
p919
I0
sS'query_time'
p920
F61.40060496330261
sS'comp_time'
p921
F0.0008528232574462891
sS'exec_cq'
p922
I3
sS'total_cq'
p923
I3
sasS'total_cqs'
p924
I3
ssI135
(dp925
S'iters'
p926
I2
sS'meta'
p927
(lp928
(dp929
S'objective'
p930
I2
sS'query_time'
p931
F52.390801191329956
sS'comp_time'
p932
F0.4417130947113037
sS'exec_cq'
p933
I7
sS'total_cq'
p934
I7
sa(dp935
g930
I1
sg931
F0.13475489616394043
sg932
F0.31385016441345215
sg933
I2
sg934
I2
sasS'total_cqs'
p936
I7
ssI37
(dp937
S'iters'
p938
I2
sS'meta'
p939
(lp940
(dp941
S'objective'
p942
I58
sS'query_time'
p943
F21.459234952926636
sS'comp_time'
p944
F0.05958914756774902
sS'exec_cq'
p945
I14
sS'total_cq'
p946
I16
sa(dp947
g942
I7
sg943
F0.011206865310668945
sg944
F0.00035953521728515625
sg945
I2
sg946
I3
sasS'total_cqs'
p948
I16
ssI133
(dp949
S'iters'
p950
I1
sS'meta'
p951
(lp952
(dp953
S'objective'
p954
I1
sS'query_time'
p955
F21.53485894203186
sS'comp_time'
p956
F0.0006394386291503906
sS'exec_cq'
p957
I2
sS'total_cq'
p958
I2
sasS'total_cqs'
p959
I2
ssI140
(dp960
S'iters'
p961
I0
sS'meta'
p962
(lp963
sS'total_cqs'
p964
I1
ssI137
(dp965
S'iters'
p966
I9
sS'meta'
p967
(lp968
(dp969
S'objective'
p970
I71602
sS'query_time'
p971
F314.917680978775
sS'comp_time'
p972
F12.002202987670898
sS'exec_cq'
p973
I400
sS'total_cq'
p974
I400
sa(dp975
g970
I68281
sg971
F0.11844205856323242
sg972
F1.3418009281158447
sg973
I380
sg974
I380
sa(dp976
g970
I64641
sg971
F0.03343486785888672
sg972
F0.03842425346374512
sg973
I360
sg974
I360
sa(dp977
g970
I66004
sg971
F0.03152799606323242
sg972
F0.03746843338012695
sg973
I341
sg974
I341
sa(dp978
g970
I65319
sg971
F0.03178215026855469
sg972
F0.0433499813079834
sg973
I337
sg974
I337
sa(dp979
g970
I64530
sg971
F0.0010471343994140625
sg972
F0.0023522377014160156
sg973
I332
sg974
I332
sa(dp980
g970
I63693
sg971
F0.0008580684661865234
sg972
F0.0025582313537597656
sg973
I329
sg974
I329
sa(dp981
g970
I63330
sg971
F0.0008540153503417969
sg972
F0.003134012222290039
sg973
I323
sg974
I323
sa(dp982
g970
I63136
sg971
F0.0008141994476318359
sg972
F0.0013611316680908203
sg973
I320
sg974
I320
sasS'total_cqs'
p983
I400
ssI136
(dp984
S'iters'
p985
I3
sS'meta'
p986
(lp987
(dp988
S'objective'
p989
I285
sS'query_time'
p990
F22.742768049240112
sS'comp_time'
p991
F0.08685779571533203
sS'exec_cq'
p992
I46
sS'total_cq'
p993
I57
sa(dp994
g989
I745
sg990
F0.07442378997802734
sg991
F0.0014202594757080078
sg992
I35
sg993
I35
sa(dp995
g989
I743
sg990
F0.00013303756713867188
sg991
F0.00023984909057617188
sg992
I32
sg993
I32
sasS'total_cqs'
p996
I57
ss.