(dp0
I1
(dp1
S'iters'
p2
I1
sS'meta'
p3
(lp4
(dp5
S'objective'
p6
I2
sS'query_time'
p7
F0.00825190544128418
sS'comp_time'
p8
F6.413459777832031e-05
sS'exec_cq'
p9
I1
sS'total_cq'
p10
I4
sasS'total_cqs'
p11
I4
ssI2
(dp12
S'iters'
p13
I1
sS'meta'
p14
(lp15
(dp16
S'objective'
p17
I2
sS'query_time'
p18
F0.007766008377075195
sS'comp_time'
p19
F6.961822509765625e-05
sS'exec_cq'
p20
I1
sS'total_cq'
p21
I4
sasS'total_cqs'
p22
I4
ssI5
(dp23
S'iters'
p24
I9
sS'meta'
p25
(lp26
(dp27
S'objective'
p28
I1381
sS'query_time'
p29
F20.650588989257812
sS'comp_time'
p30
F0.0001289844512939453
sS'exec_cq'
p31
I2
sS'total_cq'
p32
I54
sa(dp33
g28
I1333
sg29
F0.05354595184326172
sg30
F0.00011301040649414062
sg31
I2
sg32
I53
sa(dp34
g28
I955
sg29
F3.828748941421509
sg30
F0.00012302398681640625
sg31
I4
sg32
I52
sa(dp35
g28
I793
sg29
F3.1763830184936523
sg30
F0.0001678466796875
sg31
I5
sg32
I44
sa(dp36
g28
I931
sg29
F30.350491046905518
sg30
F0.000141143798828125
sg31
I8
sg32
I37
sa(dp37
g28
I928
sg29
F0.046154022216796875
sg30
F9.202957153320312e-05
sg31
I9
sg32
I36
sa(dp38
g28
I926
sg29
F0.034098148345947266
sg30
F8.392333984375e-05
sg31
I10
sg32
I35
sa(dp39
g28
I920
sg29
F0.009942054748535156
sg30
F7.605552673339844e-05
sg31
I10
sg32
I34
sa(dp40
g28
I819
sg29
F0.010402202606201172
sg30
F7.62939453125e-05
sg31
I10
sg32
I33
sasS'total_cqs'
p41
I54
ssI6
(dp42
S'iters'
p43
I1
sS'meta'
p44
(lp45
(dp46
S'objective'
p47
I2
sS'query_time'
p48
F0.008066892623901367
sS'comp_time'
p49
F6.985664367675781e-05
sS'exec_cq'
p50
I1
sS'total_cq'
p51
I4
sasS'total_cqs'
p52
I4
ssI135
(dp53
S'iters'
p54
I1
sS'meta'
p55
(lp56
(dp57
S'objective'
p58
I14
sS'query_time'
p59
F1.1762280464172363
sS'comp_time'
p60
F7.295608520507812e-05
sS'exec_cq'
p61
I1
sS'total_cq'
p62
I7
sasS'total_cqs'
p63
I7
ssI136
(dp64
S'iters'
p65
I1
sS'meta'
p66
(lp67
(dp68
S'objective'
p69
I1539
sS'query_time'
p70
F0.02564406394958496
sS'comp_time'
p71
F0.0001361370086669922
sS'exec_cq'
p72
I1
sS'total_cq'
p73
I57
sasS'total_cqs'
p74
I57
ssI9
(dp75
S'iters'
p76
I2
sS'meta'
p77
(lp78
(dp79
S'objective'
p80
I2
sS'query_time'
p81
F0.1687932014465332
sS'comp_time'
p82
F7.796287536621094e-05
sS'exec_cq'
p83
I1
sS'total_cq'
p84
I3
sa(dp85
g80
I2
sg81
F0.003206014633178711
sg82
F7.486343383789062e-05
sg83
I1
sg84
I2
sasS'total_cqs'
p86
I3
ssI10
(dp87
S'iters'
p88
I1
sS'meta'
p89
(lp90
(dp91
S'objective'
p92
I2
sS'query_time'
p93
F0.008255958557128906
sS'comp_time'
p94
F6.699562072753906e-05
sS'exec_cq'
p95
I1
sS'total_cq'
p96
I4
sasS'total_cqs'
p97
I4
ssI11
(dp98
S'iters'
p99
I1
sS'meta'
p100
(lp101
(dp102
S'objective'
p103
I14
sS'query_time'
p104
F0.0029959678649902344
sS'comp_time'
p105
F9.775161743164062e-05
sS'exec_cq'
p106
I1
sS'total_cq'
p107
I7
sasS'total_cqs'
p108
I7
ssI12
(dp109
S'iters'
p110
I1
sS'meta'
p111
(lp112
(dp113
S'objective'
p114
I14
sS'query_time'
p115
F0.05179309844970703
sS'comp_time'
p116
F8.797645568847656e-05
sS'exec_cq'
p117
I1
sS'total_cq'
p118
I7
sasS'total_cqs'
p119
I7
ssI141
(dp120
S'iters'
p121
I1
sS'meta'
p122
(lp123
(dp124
S'objective'
p125
I72770
sS'query_time'
p126
F0.24030709266662598
sS'comp_time'
p127
F0.0005731582641601562
sS'exec_cq'
p128
I1
sS'total_cq'
p129
I383
sasS'total_cqs'
p130
I383
ssI14
(dp131
S'iters'
p132
I1
sS'meta'
p133
(lp134
(dp135
S'objective'
p136
I275
sS'query_time'
p137
F1.3556969165802002
sS'comp_time'
p138
F0.00011277198791503906
sS'exec_cq'
p139
I1
sS'total_cq'
p140
I25
sasS'total_cqs'
p141
I25
ssI15
(dp142
S'iters'
p143
I2
sS'meta'
p144
(lp145
(dp146
S'objective'
p147
I39
sS'query_time'
p148
F20.30296802520752
sS'comp_time'
p149
F0.00010585784912109375
sS'exec_cq'
p150
I2
sS'total_cq'
p151
I13
sa(dp152
g147
I39
sg148
F0.20947599411010742
sg149
F0.00011014938354492188
sg150
I6
sg151
I9
sasS'total_cqs'
p153
I13
ssI16
(dp154
S'iters'
p155
I3
sS'meta'
p156
(lp157
(dp158
S'objective'
p159
I127
sS'query_time'
p160
F44.77060604095459
sS'comp_time'
p161
F0.00012111663818359375
sS'exec_cq'
p162
I4
sS'total_cq'
p163
I17
sa(dp164
g159
I66
sg160
F0.20578694343566895
sg161
F0.0001049041748046875
sg162
I5
sg163
I15
sa(dp165
g159
I3
sg160
F0.2041919231414795
sg161
F8.20159912109375e-05
sg162
I1
sg163
I3
sasS'total_cqs'
p166
I17
ssI17
(dp167
S'iters'
p168
I2
sS'meta'
p169
(lp170
(dp171
S'objective'
p172
I84
sS'query_time'
p173
F23.485207080841064
sS'comp_time'
p174
F0.00015497207641601562
sS'exec_cq'
p175
I14
sS'total_cq'
p176
I16
sa(dp177
g172
I6
sg173
F0.3103938102722168
sg174
F0.00013494491577148438
sg175
I1
sg176
I2
sasS'total_cqs'
p178
I16
ssI18
(dp179
S'iters'
p180
I3
sS'meta'
p181
(lp182
(dp183
S'objective'
p184
I146
sS'query_time'
p185
F22.18759512901306
sS'comp_time'
p186
F9.703636169433594e-05
sS'exec_cq'
p187
I2
sS'total_cq'
p188
I20
sa(dp189
g184
I132
sg185
F2.8913400173187256
sg186
F0.0001590251922607422
sg187
I1
sg188
I17
sa(dp190
g184
I17
sg185
F0.07490086555480957
sg186
F0.0001266002655029297
sg187
I1
sg188
I2
sasS'total_cqs'
p191
I20
ssI19
(dp192
S'iters'
p193
I5
sS'meta'
p194
(lp195
(dp196
S'objective'
p197
I3580
sS'query_time'
p198
F43.87601113319397
sS'comp_time'
p199
F0.00031876564025878906
sS'exec_cq'
p200
I3
sS'total_cq'
p201
I88
sa(dp202
g197
I3630
sg198
F2.6897971630096436
sg199
F0.00021696090698242188
sg200
I6
sg201
I85
sa(dp203
g197
I3593
sg198
F0.22764301300048828
sg199
F0.00017404556274414062
sg200
I9
sg201
I84
sa(dp204
g197
I3447
sg198
F1.2442419528961182
sg199
F0.00019097328186035156
sg200
I12
sg201
I83
sa(dp205
g197
I79
sg198
F0.06200885772705078
sg199
F8.416175842285156e-05
sg200
I1
sg201
I2
sasS'total_cqs'
p206
I88
ssI134
(dp207
S'iters'
p208
I1
sS'meta'
p209
(lp210
(dp211
S'objective'
p212
I1
sS'query_time'
p213
F20.69689106941223
sS'comp_time'
p214
F8.893013000488281e-05
sS'exec_cq'
p215
I2
sS'total_cq'
p216
I2
sasS'total_cqs'
p217
I2
ssI21
(dp218
S'iters'
p219
I1
sS'meta'
p220
(lp221
(dp222
S'objective'
p223
I5
sS'query_time'
p224
F0.008428096771240234
sS'comp_time'
p225
F8.916854858398438e-05
sS'exec_cq'
p226
I1
sS'total_cq'
p227
I5
sasS'total_cqs'
p228
I5
ssI22
(dp229
S'iters'
p230
I1
sS'meta'
p231
(lp232
(dp233
S'objective'
p234
I0
sS'query_time'
p235
F24.580538034439087
sS'comp_time'
p236
F0.0002338886260986328
sS'exec_cq'
p237
I2
sS'total_cq'
p238
I3
sasS'total_cqs'
p239
I3
ssI24
(dp240
S'iters'
p241
I2
sS'meta'
p242
(lp243
(dp244
S'objective'
p245
I4
sS'query_time'
p246
F0.15515995025634766
sS'comp_time'
p247
F0.00010228157043457031
sS'exec_cq'
p248
I1
sS'total_cq'
p249
I3
sa(dp250
g245
I1
sg246
F0.06627821922302246
sg247
F0.00010704994201660156
sg248
I1
sg249
I2
sasS'total_cqs'
p251
I3
ssI25
(dp252
S'iters'
p253
I1
sS'meta'
p254
(lp255
(dp256
S'objective'
p257
I0
sS'query_time'
p258
F0.2837049961090088
sS'comp_time'
p259
F0.00010609626770019531
sS'exec_cq'
p260
I1
sS'total_cq'
p261
I3
sasS'total_cqs'
p262
I3
ssI29
(dp263
S'iters'
p264
I1
sS'meta'
p265
(lp266
(dp267
S'objective'
p268
I14
sS'query_time'
p269
F0.0025610923767089844
sS'comp_time'
p270
F7.915496826171875e-05
sS'exec_cq'
p271
I1
sS'total_cq'
p272
I7
sasS'total_cqs'
p273
I7
ssI30
(dp274
S'iters'
p275
I1
sS'meta'
p276
(lp277
(dp278
S'objective'
p279
I14
sS'query_time'
p280
F0.04018402099609375
sS'comp_time'
p281
F6.604194641113281e-05
sS'exec_cq'
p282
I1
sS'total_cq'
p283
I7
sasS'total_cqs'
p284
I7
ssI31
(dp285
S'iters'
p286
I1
sS'meta'
p287
(lp288
(dp289
S'objective'
p290
I35
sS'query_time'
p291
F0.04024100303649902
sS'comp_time'
p292
F8.296966552734375e-05
sS'exec_cq'
p293
I1
sS'total_cq'
p294
I10
sasS'total_cqs'
p295
I10
ssI32
(dp296
S'iters'
p297
I1
sS'meta'
p298
(lp299
(dp300
S'objective'
p301
I35
sS'query_time'
p302
F0.20447993278503418
sS'comp_time'
p303
F8.130073547363281e-05
sS'exec_cq'
p304
I1
sS'total_cq'
p305
I10
sasS'total_cqs'
p306
I10
ssI33
(dp307
S'iters'
p308
I1
sS'meta'
p309
(lp310
(dp311
S'objective'
p312
I44
sS'query_time'
p313
F0.05028414726257324
sS'comp_time'
p314
F7.414817810058594e-05
sS'exec_cq'
p315
I1
sS'total_cq'
p316
I11
sasS'total_cqs'
p317
I11
ssI34
(dp318
S'iters'
p319
I1
sS'meta'
p320
(lp321
(dp322
S'objective'
p323
I2345
sS'query_time'
p324
F0.06245088577270508
sS'comp_time'
p325
F0.00011301040649414062
sS'exec_cq'
p326
I1
sS'total_cq'
p327
I70
sasS'total_cqs'
p328
I70
ssI35
(dp329
S'iters'
p330
I1
sS'meta'
p331
(lp332
(dp333
S'objective'
p334
I2345
sS'query_time'
p335
F0.13136720657348633
sS'comp_time'
p336
F0.00012421607971191406
sS'exec_cq'
p337
I1
sS'total_cq'
p338
I70
sasS'total_cqs'
p339
I70
ssI36
(dp340
S'iters'
p341
I1
sS'meta'
p342
(lp343
(dp344
S'objective'
p345
I119
sS'query_time'
p346
F0.023263216018676758
sS'comp_time'
p347
F0.00010395050048828125
sS'exec_cq'
p348
I1
sS'total_cq'
p349
I17
sasS'total_cqs'
p350
I17
ssI37
(dp351
S'iters'
p352
I1
sS'meta'
p353
(lp354
(dp355
S'objective'
p356
I104
sS'query_time'
p357
F0.020626068115234375
sS'comp_time'
p358
F7.510185241699219e-05
sS'exec_cq'
p359
I1
sS'total_cq'
p360
I16
sasS'total_cqs'
p361
I16
ssI38
(dp362
S'iters'
p363
I1
sS'meta'
p364
(lp365
(dp366
S'objective'
p367
I1652
sS'query_time'
p368
F0.02626800537109375
sS'comp_time'
p369
F0.00014519691467285156
sS'exec_cq'
p370
I1
sS'total_cq'
p371
I59
sasS'total_cqs'
p372
I59
ssI39
(dp373
S'iters'
p374
I1
sS'meta'
p375
(lp376
(dp377
S'objective'
p378
I3002
sS'query_time'
p379
F0.027521133422851562
sS'comp_time'
p380
F0.00015497207641601562
sS'exec_cq'
p381
I1
sS'total_cq'
p382
I79
sasS'total_cqs'
p383
I79
ssI40
(dp384
S'iters'
p385
I1
sS'meta'
p386
(lp387
(dp388
S'objective'
p389
I3320
sS'query_time'
p390
F0.02136397361755371
sS'comp_time'
p391
F0.0001239776611328125
sS'exec_cq'
p392
I1
sS'total_cq'
p393
I83
sasS'total_cqs'
p394
I83
ssI41
(dp395
S'iters'
p396
I1
sS'meta'
p397
(lp398
(dp399
S'objective'
p400
I5
sS'query_time'
p401
F0.005757808685302734
sS'comp_time'
p402
F6.270408630371094e-05
sS'exec_cq'
p403
I1
sS'total_cq'
p404
I5
sasS'total_cqs'
p405
I5
ssI42
(dp406
S'iters'
p407
I1
sS'meta'
p408
(lp409
(dp410
S'objective'
p411
I0
sS'query_time'
p412
F30.730270862579346
sS'comp_time'
p413
F9.393692016601562e-05
sS'exec_cq'
p414
I1
sS'total_cq'
p415
I3
sasS'total_cqs'
p416
I3
ssI43
(dp417
S'iters'
p418
I1
sS'meta'
p419
(lp420
(dp421
S'objective'
p422
I5
sS'query_time'
p423
F0.43210506439208984
sS'comp_time'
p424
F0.0001289844512939453
sS'exec_cq'
p425
I1
sS'total_cq'
p426
I5
sasS'total_cqs'
p427
I5
ssI44
(dp428
S'iters'
p429
I2
sS'meta'
p430
(lp431
(dp432
S'objective'
p433
I25
sS'query_time'
p434
F20.022196054458618
sS'comp_time'
p435
F0.00010085105895996094
sS'exec_cq'
p436
I2
sS'total_cq'
p437
I10
sa(dp438
g433
I5
sg434
F0.004641056060791016
sg435
F4.982948303222656e-05
sg436
I1
sg437
I2
sasS'total_cqs'
p439
I10
ssI133
(dp440
S'iters'
p441
I1
sS'meta'
p442
(lp443
(dp444
S'objective'
p445
I1
sS'query_time'
p446
F21.255785942077637
sS'comp_time'
p447
F0.00011706352233886719
sS'exec_cq'
p448
I2
sS'total_cq'
p449
I2
sasS'total_cqs'
p450
I2
ssI46
(dp451
S'iters'
p452
I1
sS'meta'
p453
(lp454
(dp455
S'objective'
p456
I1
sS'query_time'
p457
F0.7709240913391113
sS'comp_time'
p458
F9.894371032714844e-05
sS'exec_cq'
p459
I1
sS'total_cq'
p460
I2
sasS'total_cqs'
p461
I2
ssI49
(dp462
S'iters'
p463
I2
sS'meta'
p464
(lp465
(dp466
S'objective'
p467
I2
sS'query_time'
p468
F82.39485192298889
sS'comp_time'
p469
F8.797645568847656e-05
sS'exec_cq'
p470
I1
sS'total_cq'
p471
I3
sa(dp472
g467
I2
sg468
F20.08716106414795
sg469
F0.00013709068298339844
sg470
I2
sg471
I2
sasS'total_cqs'
p473
I3
ssI50
(dp474
S'iters'
p475
I1
sS'meta'
p476
(lp477
(dp478
S'objective'
p479
I54
sS'query_time'
p480
F0.01530909538269043
sS'comp_time'
p481
F7.605552673339844e-05
sS'exec_cq'
p482
I1
sS'total_cq'
p483
I12
sasS'total_cqs'
p484
I12
ssI51
(dp485
S'iters'
p486
I1
sS'meta'
p487
(lp488
(dp489
S'objective'
p490
I54
sS'query_time'
p491
F0.020010948181152344
sS'comp_time'
p492
F8.20159912109375e-05
sS'exec_cq'
p493
I1
sS'total_cq'
p494
I12
sasS'total_cqs'
p495
I12
ssI52
(dp496
S'iters'
p497
I1
sS'meta'
p498
(lp499
(dp500
S'objective'
p501
I54
sS'query_time'
p502
F0.14058208465576172
sS'comp_time'
p503
F9.822845458984375e-05
sS'exec_cq'
p504
I1
sS'total_cq'
p505
I12
sasS'total_cqs'
p506
I12
ssI53
(dp507
S'iters'
p508
I2
sS'meta'
p509
(lp510
(dp511
S'objective'
p512
I4
sS'query_time'
p513
F20.032921075820923
sS'comp_time'
p514
F6.699562072753906e-05
sS'exec_cq'
p515
I1
sS'total_cq'
p516
I3
sa(dp517
g512
I1
sg513
F21.981431007385254
sg514
F0.00013494491577148438
sg515
I1
sg516
I2
sasS'total_cqs'
p518
I3
ssI54
(dp519
S'iters'
p520
I1
sS'meta'
p521
(lp522
(dp523
S'objective'
p524
I5
sS'query_time'
p525
F2.202954053878784
sS'comp_time'
p526
F8.797645568847656e-05
sS'exec_cq'
p527
I1
sS'total_cq'
p528
I5
sasS'total_cqs'
p529
I5
ssI55
(dp530
S'iters'
p531
I2
sS'meta'
p532
(lp533
(dp534
S'objective'
p535
I17
sS'query_time'
p536
F0.3056621551513672
sS'comp_time'
p537
F0.00011491775512695312
sS'exec_cq'
p538
I1
sS'total_cq'
p539
I10
sa(dp540
g535
I1
sg536
F3.243569850921631
sg537
F9.107589721679688e-05
sg538
I2
sg539
I2
sasS'total_cqs'
p541
I10
ssI56
(dp542
S'iters'
p543
I1
sS'meta'
p544
(lp545
(dp546
S'objective'
p547
I9
sS'query_time'
p548
F2.7008578777313232
sS'comp_time'
p549
F7.486343383789062e-05
sS'exec_cq'
p550
I1
sS'total_cq'
p551
I6
sasS'total_cqs'
p552
I6
ssI57
(dp553
S'iters'
p554
I1
sS'meta'
p555
(lp556
(dp557
S'objective'
p558
I324
sS'query_time'
p559
F0.24495506286621094
sS'comp_time'
p560
F0.00013589859008789062
sS'exec_cq'
p561
I1
sS'total_cq'
p562
I27
sasS'total_cqs'
p563
I27
ssI58
(dp564
S'iters'
p565
I1
sS'meta'
p566
(lp567
(dp568
S'objective'
p569
I35
sS'query_time'
p570
F2.31817889213562
sS'comp_time'
p571
F0.0007572174072265625
sS'exec_cq'
p572
I1
sS'total_cq'
p573
I10
sasS'total_cqs'
p574
I10
ssI59
(dp575
S'iters'
p576
I1
sS'meta'
p577
(lp578
(dp579
S'objective'
p580
I1652
sS'query_time'
p581
F1.6937389373779297
sS'comp_time'
p582
F0.00011682510375976562
sS'exec_cq'
p583
I1
sS'total_cq'
p584
I59
sasS'total_cqs'
p585
I59
ssI60
(dp586
S'iters'
p587
I1
sS'meta'
p588
(lp589
(dp590
S'objective'
p591
I90
sS'query_time'
p592
F1.1179301738739014
sS'comp_time'
p593
F9.894371032714844e-05
sS'exec_cq'
p594
I1
sS'total_cq'
p595
I15
sasS'total_cqs'
p596
I15
ssI61
(dp597
S'iters'
p598
I1
sS'meta'
p599
(lp600
(dp601
S'objective'
p602
I119
sS'query_time'
p603
F1.1137621402740479
sS'comp_time'
p604
F7.486343383789062e-05
sS'exec_cq'
p605
I1
sS'total_cq'
p606
I17
sasS'total_cqs'
p607
I17
ssI62
(dp608
S'iters'
p609
I1
sS'meta'
p610
(lp611
(dp612
S'objective'
p613
I12245
sS'query_time'
p614
F1.3822948932647705
sS'comp_time'
p615
F0.00022220611572265625
sS'exec_cq'
p616
I1
sS'total_cq'
p617
I158
sasS'total_cqs'
p618
I158
ssI63
(dp619
S'iters'
p620
I1
sS'meta'
p621
(lp622
(dp623
S'objective'
p624
I2849
sS'query_time'
p625
F1.107414960861206
sS'comp_time'
p626
F0.00014591217041015625
sS'exec_cq'
p627
I1
sS'total_cq'
p628
I77
sasS'total_cqs'
p629
I77
ssI64
(dp630
S'iters'
p631
I1
sS'meta'
p632
(lp633
(dp634
S'objective'
p635
I8910
sS'query_time'
p636
F0.9382820129394531
sS'comp_time'
p637
F0.0001900196075439453
sS'exec_cq'
p638
I1
sS'total_cq'
p639
I135
sasS'total_cqs'
p640
I135
ssI65
(dp641
S'iters'
p642
I1
sS'meta'
p643
(lp644
(dp645
S'objective'
p646
I299
sS'query_time'
p647
F0.7192680835723877
sS'comp_time'
p648
F0.00011396408081054688
sS'exec_cq'
p649
I1
sS'total_cq'
p650
I26
sasS'total_cqs'
p651
I26
ssI66
(dp652
S'iters'
p653
I1
sS'meta'
p654
(lp655
(dp656
S'objective'
p657
I275
sS'query_time'
p658
F0.09645199775695801
sS'comp_time'
p659
F0.00010013580322265625
sS'exec_cq'
p660
I1
sS'total_cq'
p661
I25
sasS'total_cqs'
p662
I25
ssI67
(dp663
S'iters'
p664
I1
sS'meta'
p665
(lp666
(dp667
S'objective'
p668
I275
sS'query_time'
p669
F0.05251908302307129
sS'comp_time'
p670
F0.00010395050048828125
sS'exec_cq'
p671
I1
sS'total_cq'
p672
I25
sasS'total_cqs'
p673
I25
ssI68
(dp674
S'iters'
p675
I1
sS'meta'
p676
(lp677
(dp678
S'objective'
p679
I2555
sS'query_time'
p680
F0.029556989669799805
sS'comp_time'
p681
F0.00014901161193847656
sS'exec_cq'
p682
I1
sS'total_cq'
p683
I73
sasS'total_cqs'
p684
I73
ssI69
(dp685
S'iters'
p686
I1
sS'meta'
p687
(lp688
(dp689
S'objective'
p690
I2484
sS'query_time'
p691
F0.017343997955322266
sS'comp_time'
p692
F0.0001380443572998047
sS'exec_cq'
p693
I1
sS'total_cq'
p694
I72
sasS'total_cqs'
p695
I72
ssI70
(dp696
S'iters'
p697
I1
sS'meta'
p698
(lp699
(dp700
S'objective'
p701
I5777
sS'query_time'
p702
F2.406264066696167
sS'comp_time'
p703
F0.00029397010803222656
sS'exec_cq'
p704
I1
sS'total_cq'
p705
I109
sasS'total_cqs'
p706
I109
ssI71
(dp707
S'iters'
p708
I1
sS'meta'
p709
(lp710
(dp711
S'objective'
p712
I160460
sS'query_time'
p713
F5.528461933135986
sS'comp_time'
p714
F0.0006880760192871094
sS'exec_cq'
p715
I1
sS'total_cq'
p716
I568
sasS'total_cqs'
p717
I568
ssI72
(dp718
S'iters'
p719
I1
sS'meta'
p720
(lp721
(dp722
S'objective'
p723
I7625
sS'query_time'
p724
F6.094525098800659
sS'comp_time'
p725
F0.0002009868621826172
sS'exec_cq'
p726
I1
sS'total_cq'
p727
I125
sasS'total_cqs'
p728
I125
ssI73
(dp729
S'iters'
p730
I1
sS'meta'
p731
(lp732
(dp733
S'objective'
p734
I7625
sS'query_time'
p735
F0.21296310424804688
sS'comp_time'
p736
F0.00021123886108398438
sS'exec_cq'
p737
I1
sS'total_cq'
p738
I125
sasS'total_cqs'
p739
I125
ssI138
(dp740
S'iters'
p741
I1
sS'meta'
p742
(lp743
(dp744
S'objective'
p745
I2700
sS'query_time'
p746
F0.0335080623626709
sS'comp_time'
p747
F0.0001442432403564453
sS'exec_cq'
p748
I1
sS'total_cq'
p749
I75
sasS'total_cqs'
p750
I75
ssI139
(dp751
S'iters'
p752
I1
sS'meta'
p753
(lp754
(dp755
S'objective'
p756
I89675
sS'query_time'
p757
F0.14511990547180176
sS'comp_time'
p758
F0.0005240440368652344
sS'exec_cq'
p759
I1
sS'total_cq'
p760
I425
sasS'total_cqs'
p761
I425
ssI142
(dp762
S'iters'
p763
I1
sS'meta'
p764
(lp765
(dp766
S'objective'
p767
I0
sS'query_time'
p768
F21.352833032608032
sS'comp_time'
p769
F7.605552673339844e-05
sS'exec_cq'
p770
I1
sS'total_cq'
p771
I3
sasS'total_cqs'
p772
I3
ssI148
(dp773
S'iters'
p774
I1
sS'meta'
p775
(lp776
(dp777
S'objective'
p778
I63902
sS'query_time'
p779
F0.07974505424499512
sS'comp_time'
p780
F0.00038313865661621094
sS'exec_cq'
p781
I1
sS'total_cq'
p782
I359
sasS'total_cqs'
p783
I359
ssI137
(dp784
S'iters'
p785
I1
sS'meta'
p786
(lp787
(dp788
S'objective'
p789
I79400
sS'query_time'
p790
F0.0917351245880127
sS'comp_time'
p791
F0.0003750324249267578
sS'exec_cq'
p792
I1
sS'total_cq'
p793
I400
sasS'total_cqs'
p794
I400
ss.