(dp0
I1
(dp1
S'iters'
p2
I1
sS'meta'
p3
(lp4
(dp5
S'objective'
p6
I2
sS'query_time'
p7
F20.028789043426514
sS'comp_time'
p8
F0.004929065704345703
sS'exec_cq'
p9
I4
sS'total_cq'
p10
I4
sasS'total_cqs'
p11
I4
ssI2
(dp12
S'iters'
p13
I1
sS'meta'
p14
(lp15
(dp16
S'objective'
p17
I2
sS'query_time'
p18
F0.1304311752319336
sS'comp_time'
p19
F0.0004150867462158203
sS'exec_cq'
p20
I4
sS'total_cq'
p21
I4
sasS'total_cqs'
p22
I4
ssI5
(dp23
S'iters'
p24
I8
sS'meta'
p25
(lp26
(dp27
S'objective'
p28
I555
sS'query_time'
p29
F32.83828902244568
sS'comp_time'
p30
F1.4741129875183105
sS'exec_cq'
p31
I54
sS'total_cq'
p32
I54
sa(dp33
g28
I920
sg29
F0.0010218620300292969
sg30
F0.025908946990966797
sg31
I39
sg32
I39
sa(dp34
g28
I872
sg29
F0.0005788803100585938
sg30
F1.2867860794067383
sg31
I38
sg32
I38
sa(dp35
g28
I849
sg29
F0.0005261898040771484
sg30
F0.017978906631469727
sg31
I37
sg32
I37
sa(dp36
g28
I817
sg29
F0.00047397613525390625
sg30
F0.31449389457702637
sg31
I36
sg32
I36
sa(dp37
g28
I839
sg29
F0.0004019737243652344
sg30
F0.008905887603759766
sg31
I35
sg32
I35
sa(dp38
g28
I843
sg29
F0.0001239776611328125
sg30
F0.005007266998291016
sg31
I34
sg32
I34
sa(dp39
g28
I736
sg29
F0.0054569244384765625
sg30
F0.004654884338378906
sg31
I33
sg32
I33
sasS'total_cqs'
p40
I54
ssI6
(dp41
S'iters'
p42
I1
sS'meta'
p43
(lp44
(dp45
S'objective'
p46
I2
sS'query_time'
p47
F21.447515964508057
sS'comp_time'
p48
F0.0073049068450927734
sS'exec_cq'
p49
I4
sS'total_cq'
p50
I4
sasS'total_cqs'
p51
I4
ssI135
(dp52
S'iters'
p53
I2
sS'meta'
p54
(lp55
(dp56
S'objective'
p57
I12
sS'query_time'
p58
F28.49805998802185
sS'comp_time'
p59
F0.9138309955596924
sS'exec_cq'
p60
I7
sS'total_cq'
p61
I7
sa(dp62
g57
I6
sg58
F0.1576979160308838
sg59
F0.6401529312133789
sg60
I2
sg61
I2
sasS'total_cqs'
p63
I7
ssI136
(dp64
S'iters'
p65
I3
sS'meta'
p66
(lp67
(dp68
S'objective'
p69
I421
sS'query_time'
p70
F23.603191137313843
sS'comp_time'
p71
F0.0008823871612548828
sS'exec_cq'
p72
I57
sS'total_cq'
p73
I57
sa(dp74
g69
I815
sg70
F0.0002090930938720703
sg71
F0.0003209114074707031
sg72
I35
sg73
I35
sa(dp75
g69
I812
sg70
F0.00012421607971191406
sg71
F0.0002090930938720703
sg72
I32
sg73
I32
sasS'total_cqs'
p76
I57
ssI9
(dp77
S'iters'
p78
I1
sS'meta'
p79
(lp80
(dp81
S'objective'
p82
I0
sS'query_time'
p83
F30.81253480911255
sS'comp_time'
p84
F0.06284570693969727
sS'exec_cq'
p85
I3
sS'total_cq'
p86
I3
sasS'total_cqs'
p87
I3
ssI10
(dp88
S'iters'
p89
I1
sS'meta'
p90
(lp91
(dp92
S'objective'
p93
I2
sS'query_time'
p94
F10.099478960037231
sS'comp_time'
p95
F0.01350092887878418
sS'exec_cq'
p96
I4
sS'total_cq'
p97
I4
sasS'total_cqs'
p98
I4
ssI11
(dp99
S'iters'
p100
I1
sS'meta'
p101
(lp102
(dp103
S'objective'
p104
I14
sS'query_time'
p105
F20.033080101013184
sS'comp_time'
p106
F0.0009870529174804688
sS'exec_cq'
p107
I7
sS'total_cq'
p108
I7
sasS'total_cqs'
p109
I7
ssI12
(dp110
S'iters'
p111
I2
sS'meta'
p112
(lp113
(dp114
S'objective'
p115
I14
sS'query_time'
p116
F20.147419929504395
sS'comp_time'
p117
F0.006443977355957031
sS'exec_cq'
p118
I7
sS'total_cq'
p119
I7
sa(dp120
g115
I7
sg116
F9.799003601074219e-05
sg117
F0.0025370121002197266
sg118
I5
sg119
I5
sasS'total_cqs'
p121
I7
ssI141
(dp122
S'iters'
p123
I9
sS'meta'
p124
(lp125
(dp126
S'objective'
p127
I62482
sS'query_time'
p128
F37.84847593307495
sS'comp_time'
p129
F0.9799849987030029
sS'exec_cq'
p130
I383
sS'total_cq'
p131
I383
sa(dp132
g127
I57191
sg128
F0.007950067520141602
sg129
F0.9212429523468018
sg130
I354
sg131
I354
sa(dp133
g127
I52676
sg128
F0.005650043487548828
sg129
F0.9349157810211182
sg130
I325
sg131
I325
sa(dp134
g127
I55302
sg128
F0.006081104278564453
sg129
F0.19957780838012695
sg130
I301
sg131
I301
sa(dp135
g127
I52634
sg128
F0.0017931461334228516
sg129
F0.06370306015014648
sg130
I295
sg131
I295
sa(dp136
g127
I53190
sg128
F0.0017778873443603516
sg129
F0.0463409423828125
sg130
I286
sg131
I286
sa(dp137
g127
I51397
sg128
F0.0016908645629882812
sg129
F0.05382680892944336
sg130
I282
sg131
I282
sa(dp138
g127
I43060
sg128
F0.0012259483337402344
sg129
F0.24195289611816406
sg130
I275
sg131
I275
sa(dp139
g127
I47081
sg128
F0.0010080337524414062
sg129
F0.04121565818786621
sg130
I250
sg131
I250
sasS'total_cqs'
p140
I383
ssI14
(dp141
S'iters'
p142
I2
sS'meta'
p143
(lp144
(dp145
S'objective'
p146
I95
sS'query_time'
p147
F30.557494163513184
sS'comp_time'
p148
F1.0173180103302002
sS'exec_cq'
p149
I25
sS'total_cq'
p150
I25
sa(dp151
g146
I160
sg147
F0.024358034133911133
sg148
F0.2506258487701416
sg149
I19
sg150
I19
sasS'total_cqs'
p152
I25
ssI15
(dp153
S'iters'
p154
I2
sS'meta'
p155
(lp156
(dp157
S'objective'
p158
I35
sS'query_time'
p159
F23.743381023406982
sS'comp_time'
p160
F0.10448288917541504
sS'exec_cq'
p161
I13
sS'total_cq'
p162
I13
sa(dp163
g158
I37
sg159
F0.06395125389099121
sg160
F0.10260415077209473
sg161
I9
sg162
I9
sasS'total_cqs'
p164
I13
ssI16
(dp165
S'iters'
p166
I3
sS'meta'
p167
(lp168
(dp169
S'objective'
p170
I125
sS'query_time'
p171
F30.807402849197388
sS'comp_time'
p172
F0.7708520889282227
sS'exec_cq'
p173
I17
sS'total_cq'
p174
I17
sa(dp175
g170
I59
sg171
F0.4339001178741455
sg172
F0.04896903038024902
sg173
I15
sg174
I15
sa(dp176
g170
I6
sg171
F0.40090489387512207
sg172
F0.036589860916137695
sg173
I3
sg174
I3
sasS'total_cqs'
p177
I17
ssI17
(dp178
S'iters'
p179
I2
sS'meta'
p180
(lp181
(dp182
S'objective'
p183
I76
sS'query_time'
p184
F24.26280117034912
sS'comp_time'
p185
F1.260002851486206
sS'exec_cq'
p186
I16
sS'total_cq'
p187
I16
sa(dp188
g183
I2
sg184
F0.1844313144683838
sg185
F0.015898942947387695
sg186
I2
sg187
I2
sasS'total_cqs'
p189
I16
ssI18
(dp190
S'iters'
p191
I3
sS'meta'
p192
(lp193
(dp194
S'objective'
p195
I170
sS'query_time'
p196
F22.720354080200195
sS'comp_time'
p197
F3.6882951259613037
sS'exec_cq'
p198
I20
sS'total_cq'
p199
I20
sa(dp200
g195
I124
sg196
F4.021829843521118
sg197
F3.902924060821533
sg198
I17
sg199
I17
sa(dp201
g195
I7
sg196
F0.10006499290466309
sg197
F0.0027790069580078125
sg198
I2
sg199
I2
sasS'total_cqs'
p202
I20
ssI19
(dp203
S'iters'
p204
I4
sS'meta'
p205
(lp206
(dp207
S'objective'
p208
I3524
sS'query_time'
p209
F28.991003036499023
sS'comp_time'
p210
F1.0380871295928955
sS'exec_cq'
p211
I88
sS'total_cq'
p212
I88
sa(dp213
g208
I3650
sg209
F0.0003101825714111328
sg210
F5.263176918029785
sg211
I83
sg212
I83
sa(dp214
g208
I3385
sg209
F2.7248950004577637
sg210
F2.620370626449585
sg211
I82
sg212
I82
sa(dp215
g208
I26
sg209
F0.12744522094726562
sg210
F0.0028901100158691406
sg211
I2
sg212
I2
sasS'total_cqs'
p216
I88
ssI134
(dp217
S'iters'
p218
I1
sS'meta'
p219
(lp220
(dp221
S'objective'
p222
I1
sS'query_time'
p223
F20.79763674736023
sS'comp_time'
p224
F0.9964218139648438
sS'exec_cq'
p225
I2
sS'total_cq'
p226
I2
sasS'total_cqs'
p227
I2
ssI21
(dp228
S'iters'
p229
I1
sS'meta'
p230
(lp231
(dp232
S'objective'
p233
I5
sS'query_time'
p234
F20.36425018310547
sS'comp_time'
p235
F0.006649017333984375
sS'exec_cq'
p236
I5
sS'total_cq'
p237
I5
sasS'total_cqs'
p238
I5
ssI22
(dp239
S'iters'
p240
I1
sS'meta'
p241
(lp242
(dp243
S'objective'
p244
I0
sS'query_time'
p245
F30.775187015533447
sS'comp_time'
p246
F0.8907248973846436
sS'exec_cq'
p247
I3
sS'total_cq'
p248
I3
sasS'total_cqs'
p249
I3
ssI24
(dp250
S'iters'
p251
I1
sS'meta'
p252
(lp253
(dp254
S'objective'
p255
I0
sS'query_time'
p256
F20.2249858379364
sS'comp_time'
p257
F0.0066070556640625
sS'exec_cq'
p258
I3
sS'total_cq'
p259
I3
sasS'total_cqs'
p260
I3
ssI25
(dp261
S'iters'
p262
I1
sS'meta'
p263
(lp264
(dp265
S'objective'
p266
I0
sS'query_time'
p267
F20.119650840759277
sS'comp_time'
p268
F0.019281387329101562
sS'exec_cq'
p269
I3
sS'total_cq'
p270
I3
sasS'total_cqs'
p271
I3
ssI29
(dp272
S'iters'
p273
I1
sS'meta'
p274
(lp275
(dp276
S'objective'
p277
I14
sS'query_time'
p278
F20.027684926986694
sS'comp_time'
p279
F0.0012040138244628906
sS'exec_cq'
p280
I7
sS'total_cq'
p281
I7
sasS'total_cqs'
p282
I7
ssI30
(dp283
S'iters'
p284
I2
sS'meta'
p285
(lp286
(dp287
S'objective'
p288
I14
sS'query_time'
p289
F20.136352062225342
sS'comp_time'
p290
F0.006257295608520508
sS'exec_cq'
p291
I7
sS'total_cq'
p292
I7
sa(dp293
g288
I7
sg289
F8.20159912109375e-05
sg290
F0.002266407012939453
sg291
I5
sg292
I5
sasS'total_cqs'
p294
I7
ssI31
(dp295
S'iters'
p296
I2
sS'meta'
p297
(lp298
(dp299
S'objective'
p300
I25
sS'query_time'
p301
F6.602850914001465
sS'comp_time'
p302
F0.00563812255859375
sS'exec_cq'
p303
I10
sS'total_cq'
p304
I10
sa(dp305
g300
I5
sg301
F0.00020503997802734375
sg302
F0.0011379718780517578
sg303
I2
sg304
I2
sasS'total_cqs'
p306
I10
ssI32
(dp307
S'iters'
p308
I3
sS'meta'
p309
(lp310
(dp311
S'objective'
p312
I13
sS'query_time'
p313
F3.756635904312134
sS'comp_time'
p314
F0.01451873779296875
sS'exec_cq'
p315
I10
sS'total_cq'
p316
I10
sa(dp317
g312
I4
sg313
F0.0022420883178710938
sg314
F0.011499881744384766
sg315
I7
sg316
I7
sa(dp318
g312
I1
sg313
F0.002089977264404297
sg314
F0.009930133819580078
sg315
I2
sg316
I2
sasS'total_cqs'
p319
I10
ssI33
(dp320
S'iters'
p321
I2
sS'meta'
p322
(lp323
(dp324
S'objective'
p325
I22
sS'query_time'
p326
F3.7603299617767334
sS'comp_time'
p327
F0.002773761749267578
sS'exec_cq'
p328
I11
sS'total_cq'
p329
I11
sa(dp330
g325
I0
sg326
F0.0003418922424316406
sg327
F0.0020818710327148438
sg328
I4
sg329
I4
sasS'total_cqs'
p331
I11
ssI34
(dp332
S'iters'
p333
I3
sS'meta'
p334
(lp335
(dp336
S'objective'
p337
I1513
sS'query_time'
p338
F42.86305594444275
sS'comp_time'
p339
F1.3076798915863037
sS'exec_cq'
p340
I70
sS'total_cq'
p341
I70
sa(dp342
g337
I1179
sg338
F0.004808902740478516
sg339
F7.222646951675415
sg340
I56
sg341
I56
sa(dp343
g337
I1449
sg338
F0.003567934036254883
sg339
F0.025223970413208008
sg340
I45
sg341
I45
sasS'total_cqs'
p344
I70
ssI35
(dp345
S'iters'
p346
I4
sS'meta'
p347
(lp348
(dp349
S'objective'
p350
I1583
sS'query_time'
p351
F42.8605170249939
sS'comp_time'
p352
F1.359936237335205
sS'exec_cq'
p353
I70
sS'total_cq'
p354
I70
sa(dp355
g350
I894
sg351
F0.4654579162597656
sg352
F1.0826499462127686
sg353
I59
sg354
I59
sa(dp356
g350
I912
sg351
F0.007977008819580078
sg352
F0.21097683906555176
sg353
I43
sg354
I43
sa(dp357
g350
I1048
sg351
F0.007590055465698242
sg352
F0.1777198314666748
sg353
I33
sg354
I33
sasS'total_cqs'
p358
I70
ssI36
(dp359
S'iters'
p360
I2
sS'meta'
p361
(lp362
(dp363
S'objective'
p364
I73
sS'query_time'
p365
F19.792117834091187
sS'comp_time'
p366
F0.00028395652770996094
sS'exec_cq'
p367
I17
sS'total_cq'
p368
I17
sa(dp369
g364
I6
sg365
F3.790855407714844e-05
sg366
F9.703636169433594e-05
sg367
I5
sg368
I5
sasS'total_cqs'
p370
I17
ssI37
(dp371
S'iters'
p372
I2
sS'meta'
p373
(lp374
(dp375
S'objective'
p376
I70
sS'query_time'
p377
F20.74900507926941
sS'comp_time'
p378
F0.0004260540008544922
sS'exec_cq'
p379
I16
sS'total_cq'
p380
I16
sa(dp381
g376
I1
sg377
F3.600120544433594e-05
sg378
F0.0001480579376220703
sg379
I3
sg380
I3
sasS'total_cqs'
p382
I16
ssI38
(dp383
S'iters'
p384
I4
sS'meta'
p385
(lp386
(dp387
S'objective'
p388
I1094
sS'query_time'
p389
F40.68085503578186
sS'comp_time'
p390
F0.6650919914245605
sS'exec_cq'
p391
I59
sS'total_cq'
p392
I59
sa(dp393
g388
I846
sg389
F0.23810505867004395
sg390
F0.7067179679870605
sg391
I51
sg392
I51
sa(dp394
g388
I715
sg389
F0.20321297645568848
sg390
F0.6730630397796631
sg391
I41
sg392
I41
sa(dp395
g388
I809
sg389
F0.0021119117736816406
sg390
F0.0062940120697021484
sg391
I31
sg392
I31
sasS'total_cqs'
p396
I59
ssI39
(dp397
S'iters'
p398
I4
sS'meta'
p399
(lp400
(dp401
S'objective'
p402
I2272
sS'query_time'
p403
F30.156574964523315
sS'comp_time'
p404
F0.0825510025024414
sS'exec_cq'
p405
I79
sS'total_cq'
p406
I79
sa(dp407
g402
I2056
sg403
F0.05471396446228027
sg404
F0.05429697036743164
sg405
I69
sg406
I69
sa(dp408
g402
I1266
sg403
F0.06370401382446289
sg404
F0.2528209686279297
sg405
I59
sg406
I59
sa(dp409
g402
I1668
sg403
F0.000209808349609375
sg404
F0.0040781497955322266
sg405
I43
sg406
I43
sasS'total_cqs'
p410
I79
ssI40
(dp411
S'iters'
p412
I4
sS'meta'
p413
(lp414
(dp415
S'objective'
p416
I1816
sS'query_time'
p417
F46.07167410850525
sS'comp_time'
p418
F0.1580209732055664
sS'exec_cq'
p419
I83
sS'total_cq'
p420
I83
sa(dp421
g416
I1549
sg417
F0.0007929801940917969
sg418
F0.006582975387573242
sg419
I60
sg420
I60
sa(dp422
g416
I1050
sg417
F0.0003600120544433594
sg418
F0.008090019226074219
sg419
I49
sg420
I49
sa(dp423
g416
I1409
sg417
F0.00023102760314941406
sg418
F0.0010459423065185547
sg419
I37
sg420
I37
sasS'total_cqs'
p424
I83
ssI41
(dp425
S'iters'
p426
I1
sS'meta'
p427
(lp428
(dp429
S'objective'
p430
I5
sS'query_time'
p431
F22.244920015335083
sS'comp_time'
p432
F0.009245872497558594
sS'exec_cq'
p433
I5
sS'total_cq'
p434
I5
sasS'total_cqs'
p435
I5
ssI42
(dp436
S'iters'
p437
I1
sS'meta'
p438
(lp439
(dp440
S'objective'
p441
I0
sS'query_time'
p442
F20.595314979553223
sS'comp_time'
p443
F0.047933101654052734
sS'exec_cq'
p444
I3
sS'total_cq'
p445
I3
sasS'total_cqs'
p446
I3
ssI43
(dp447
S'iters'
p448
I1
sS'meta'
p449
(lp450
(dp451
S'objective'
p452
I5
sS'query_time'
p453
F1.1949489116668701
sS'comp_time'
p454
F0.03216814994812012
sS'exec_cq'
p455
I5
sS'total_cq'
p456
I5
sasS'total_cqs'
p457
I5
ssI44
(dp458
S'iters'
p459
I2
sS'meta'
p460
(lp461
(dp462
S'objective'
p463
I29
sS'query_time'
p464
F20.02440595626831
sS'comp_time'
p465
F0.02405834197998047
sS'exec_cq'
p466
I10
sS'total_cq'
p467
I10
sa(dp468
g463
I7
sg464
F0.0020737648010253906
sg465
F0.0018360614776611328
sg466
I2
sg467
I2
sasS'total_cqs'
p469
I10
ssI133
(dp470
S'iters'
p471
I1
sS'meta'
p472
(lp473
(dp474
S'objective'
p475
I1
sS'query_time'
p476
F21.699517965316772
sS'comp_time'
p477
F0.0029230117797851562
sS'exec_cq'
p478
I2
sS'total_cq'
p479
I2
sasS'total_cqs'
p480
I2
ssI46
(dp481
S'iters'
p482
I1
sS'meta'
p483
(lp484
(dp485
S'objective'
p486
I1
sS'query_time'
p487
F0.7940399646759033
sS'comp_time'
p488
F0.08218598365783691
sS'exec_cq'
p489
I2
sS'total_cq'
p490
I2
sasS'total_cqs'
p491
I2
ssI49
(dp492
S'iters'
p493
I2
sS'meta'
p494
(lp495
(dp496
S'objective'
p497
I2
sS'query_time'
p498
F30.205219984054565
sS'comp_time'
p499
F42.59797430038452
sS'exec_cq'
p500
I3
sS'total_cq'
p501
I3
sa(dp502
g497
I2
sg498
F0.012011051177978516
sg499
F0.9695360660552979
sg500
I2
sg501
I2
sasS'total_cqs'
p503
I3
ssI50
(dp504
S'iters'
p505
I2
sS'meta'
p506
(lp507
(dp508
S'objective'
p509
I34
sS'query_time'
p510
F20.123390913009644
sS'comp_time'
p511
F0.7143340110778809
sS'exec_cq'
p512
I12
sS'total_cq'
p513
I12
sa(dp514
g509
I32
sg510
F5.602836608886719e-05
sg511
F0.00014781951904296875
sg512
I9
sg513
I9
sasS'total_cqs'
p515
I12
ssI51
(dp516
S'iters'
p517
I2
sS'meta'
p518
(lp519
(dp520
S'objective'
p521
I14
sS'query_time'
p522
F21.19447898864746
sS'comp_time'
p523
F0.10295295715332031
sS'exec_cq'
p524
I12
sS'total_cq'
p525
I12
sa(dp526
g521
I8
sg522
F5.602836608886719e-05
sg523
F0.002095937728881836
sg524
I4
sg525
I4
sasS'total_cqs'
p527
I12
ssI52
(dp528
S'iters'
p529
I2
sS'meta'
p530
(lp531
(dp532
S'objective'
p533
I14
sS'query_time'
p534
F1.1807551383972168
sS'comp_time'
p535
F0.0007259845733642578
sS'exec_cq'
p536
I12
sS'total_cq'
p537
I12
sa(dp538
g533
I8
sg534
F0.00010800361633300781
sg535
F0.0005757808685302734
sg536
I4
sg537
I4
sasS'total_cqs'
p539
I12
ssI53
(dp540
S'iters'
p541
I2
sS'meta'
p542
(lp543
(dp544
S'objective'
p545
I2
sS'query_time'
p546
F20.030550003051758
sS'comp_time'
p547
F0.019777297973632812
sS'exec_cq'
p548
I3
sS'total_cq'
p549
I3
sa(dp550
g545
I2
sg546
F22.778095960617065
sg547
F0.0017011165618896484
sg548
I2
sg549
I2
sasS'total_cqs'
p551
I3
ssI54
(dp552
S'iters'
p553
I1
sS'meta'
p554
(lp555
(dp556
S'objective'
p557
I5
sS'query_time'
p558
F21.835294008255005
sS'comp_time'
p559
F0.027518749237060547
sS'exec_cq'
p560
I5
sS'total_cq'
p561
I5
sasS'total_cqs'
p562
I5
ssI55
(dp563
S'iters'
p564
I2
sS'meta'
p565
(lp566
(dp567
S'objective'
p568
I27
sS'query_time'
p569
F38.54610204696655
sS'comp_time'
p570
F0.022001028060913086
sS'exec_cq'
p571
I10
sS'total_cq'
p572
I10
sa(dp573
g568
I6
sg569
F0.0039141178131103516
sg570
F0.015455007553100586
sg571
I2
sg572
I2
sasS'total_cqs'
p574
I10
ssI56
(dp575
S'iters'
p576
I2
sS'meta'
p577
(lp578
(dp579
S'objective'
p580
I5
sS'query_time'
p581
F37.099493980407715
sS'comp_time'
p582
F0.797595739364624
sS'exec_cq'
p583
I6
sS'total_cq'
p584
I6
sa(dp585
g580
I1
sg581
F0.12287402153015137
sg582
F0.4100069999694824
sg583
I4
sg584
I4
sasS'total_cqs'
p586
I6
ssI57
(dp587
S'iters'
p588
I2
sS'meta'
p589
(lp590
(dp591
S'objective'
p592
I316
sS'query_time'
p593
F25.762389183044434
sS'comp_time'
p594
F0.13592886924743652
sS'exec_cq'
p595
I27
sS'total_cq'
p596
I27
sa(dp597
g592
I293
sg593
F0.03169894218444824
sg594
F0.06806588172912598
sg595
I23
sg596
I23
sasS'total_cqs'
p598
I27
ssI58
(dp599
S'iters'
p600
I2
sS'meta'
p601
(lp602
(dp603
S'objective'
p604
I21
sS'query_time'
p605
F29.40404486656189
sS'comp_time'
p606
F0.24367403984069824
sS'exec_cq'
p607
I10
sS'total_cq'
p608
I10
sa(dp609
g604
I3
sg605
F0.02674698829650879
sg606
F0.16423606872558594
sg607
I2
sg608
I2
sasS'total_cqs'
p610
I10
ssI59
(dp611
S'iters'
p612
I5
sS'meta'
p613
(lp614
(dp615
S'objective'
p616
I1196
sS'query_time'
p617
F67.25006794929504
sS'comp_time'
p618
F3.337153911590576
sS'exec_cq'
p619
I59
sS'total_cq'
p620
I59
sa(dp621
g616
I955
sg617
F0.6081109046936035
sg618
F3.047377109527588
sg619
I47
sg620
I47
sa(dp622
g616
I819
sg617
F0.445206880569458
sg618
F1.8954730033874512
sg619
I37
sg620
I37
sa(dp623
g616
I811
sg617
F0.3377230167388916
sg618
F1.7731561660766602
sg619
I31
sg620
I31
sa(dp624
g616
I797
sg617
F0.4867990016937256
sg618
F1.7445659637451172
sg619
I29
sg620
I29
sasS'total_cqs'
p625
I59
ssI60
(dp626
S'iters'
p627
I2
sS'meta'
p628
(lp629
(dp630
S'objective'
p631
I70
sS'query_time'
p632
F32.688474893569946
sS'comp_time'
p633
F0.2425069808959961
sS'exec_cq'
p634
I15
sS'total_cq'
p635
I15
sa(dp636
g631
I5
sg632
F7.009506225585938e-05
sg633
F0.0003020763397216797
sg634
I3
sg635
I3
sasS'total_cqs'
p637
I15
ssI61
(dp638
S'iters'
p639
I2
sS'meta'
p640
(lp641
(dp642
S'objective'
p643
I53
sS'query_time'
p644
F43.335537910461426
sS'comp_time'
p645
F0.04756593704223633
sS'exec_cq'
p646
I17
sS'total_cq'
p647
I17
sa(dp648
g643
I16
sg644
F5.2928924560546875e-05
sg645
F0.00015616416931152344
sg646
I6
sg647
I6
sasS'total_cqs'
p649
I17
ssI62
(dp650
S'iters'
p651
I6
sS'meta'
p652
(lp653
(dp654
S'objective'
p655
I8839
sS'query_time'
p656
F41.99261212348938
sS'comp_time'
p657
F1.292747974395752
sS'exec_cq'
p658
I158
sS'total_cq'
p659
I158
sa(dp660
g655
I7376
sg656
F0.0026018619537353516
sg657
F0.11882877349853516
sg658
I138
sg659
I138
sa(dp661
g655
I3406
sg656
F0.0014150142669677734
sg657
F2.0788888931274414
sg658
I114
sg659
I114
sa(dp662
g655
I5784
sg656
F0.0009047985076904297
sg657
F0.015883922576904297
sg658
I80
sg659
I80
sa(dp663
g655
I5679
sg656
F0.0006999969482421875
sg657
F0.012609720230102539
sg658
I78
sg659
I78
sa(dp664
g655
I5525
sg656
F0.0004138946533203125
sg657
F0.011417150497436523
sg658
I76
sg659
I76
sasS'total_cqs'
p665
I158
ssI63
(dp666
S'iters'
p667
I3
sS'meta'
p668
(lp669
(dp670
S'objective'
p671
I2169
sS'query_time'
p672
F69.36455702781677
sS'comp_time'
p673
F0.059760093688964844
sS'exec_cq'
p674
I77
sS'total_cq'
p675
I77
sa(dp676
g671
I1982
sg672
F0.0014920234680175781
sg673
F0.5593380928039551
sg674
I67
sg675
I67
sa(dp677
g671
I2130
sg672
F0.0013480186462402344
sg673
F0.010952949523925781
sg674
I57
sg675
I57
sasS'total_cqs'
p678
I77
ssI64
(dp679
S'iters'
p680
I8
sS'meta'
p681
(lp682
(dp683
S'objective'
p684
I8160
sS'query_time'
p685
F110.56688594818115
sS'comp_time'
p686
F5.798362970352173
sS'exec_cq'
p687
I135
sS'total_cq'
p688
I135
sa(dp689
g684
I8180
sg685
F1.5400490760803223
sg686
F4.947109699249268
sg687
I129
sg688
I129
sa(dp690
g684
I7965
sg685
F1.2894699573516846
sg686
F4.886774778366089
sg687
I127
sg688
I127
sa(dp691
g684
I7859
sg685
F0.5188980102539062
sg686
F2.5878100395202637
sg687
I124
sg688
I124
sa(dp692
g684
I7711
sg685
F0.5836119651794434
sg686
F2.431689977645874
sg687
I122
sg688
I122
sa(dp693
g684
I7557
sg685
F0.6855430603027344
sg686
F2.413710117340088
sg687
I120
sg688
I120
sa(dp694
g684
I7435
sg685
F0.5486061573028564
sg686
F2.6141738891601562
sg687
I118
sg688
I118
sa(dp695
g684
I7304
sg685
F0.5869510173797607
sg686
F3.7660961151123047
sg687
I116
sg688
I116
sasS'total_cqs'
p696
I135
ssI65
(dp697
S'iters'
p698
I2
sS'meta'
p699
(lp700
(dp701
S'objective'
p702
I275
sS'query_time'
p703
F20.280887126922607
sS'comp_time'
p704
F0.030220985412597656
sS'exec_cq'
p705
I26
sS'total_cq'
p706
I26
sa(dp707
g702
I261
sg703
F0.00080108642578125
sg704
F0.01960921287536621
sg705
I24
sg706
I24
sasS'total_cqs'
p708
I26
ssI66
(dp709
S'iters'
p710
I3
sS'meta'
p711
(lp712
(dp713
S'objective'
p714
I265
sS'query_time'
p715
F21.14322805404663
sS'comp_time'
p716
F0.10936832427978516
sS'exec_cq'
p717
I25
sS'total_cq'
p718
I25
sa(dp719
g714
I203
sg715
F0.010601997375488281
sg716
F0.1914229393005371
sg717
I23
sg718
I23
sa(dp720
g714
I199
sg715
F0.007539033889770508
sg716
F0.04531097412109375
sg717
I19
sg718
I19
sasS'total_cqs'
p721
I25
ssI67
(dp722
S'iters'
p723
I3
sS'meta'
p724
(lp725
(dp726
S'objective'
p727
I261
sS'query_time'
p728
F5.6531829833984375
sS'comp_time'
p729
F0.18281292915344238
sS'exec_cq'
p730
I25
sS'total_cq'
p731
I25
sa(dp732
g727
I235
sg728
F0.005700826644897461
sg729
F0.022307157516479492
sg730
I23
sg731
I23
sa(dp733
g727
I214
sg728
F0.0034940242767333984
sg729
F0.01931309700012207
sg730
I21
sg731
I21
sasS'total_cqs'
p734
I25
ssI68
(dp735
S'iters'
p736
I5
sS'meta'
p737
(lp738
(dp739
S'objective'
p740
I1821
sS'query_time'
p741
F23.726155042648315
sS'comp_time'
p742
F0.0032601356506347656
sS'exec_cq'
p743
I73
sS'total_cq'
p744
I73
sa(dp745
g740
I1389
sg741
F0.0006661415100097656
sg742
F0.0026481151580810547
sg743
I63
sg744
I63
sa(dp746
g740
I1101
sg741
F0.0005509853363037109
sg742
F0.0021300315856933594
sg743
I52
sg744
I52
sa(dp747
g740
I801
sg741
F0.0004260540008544922
sg742
F0.0014417171478271484
sg743
I42
sg744
I42
sa(dp748
g740
I986
sg741
F0.0002181529998779297
sg742
F0.0009970664978027344
sg743
I32
sg744
I32
sasS'total_cqs'
p749
I73
ssI69
(dp750
S'iters'
p751
I5
sS'meta'
p752
(lp753
(dp754
S'objective'
p755
I1776
sS'query_time'
p756
F37.55750012397766
sS'comp_time'
p757
F0.0048980712890625
sS'exec_cq'
p758
I72
sS'total_cq'
p759
I72
sa(dp760
g755
I1390
sg756
F0.0012359619140625
sg757
F0.0029010772705078125
sg758
I60
sg759
I60
sa(dp761
g755
I1044
sg756
F0.0007250308990478516
sg757
F0.002084016799926758
sg758
I48
sg759
I48
sa(dp762
g755
I734
sg756
F0.00024890899658203125
sg757
F0.000926971435546875
sg758
I37
sg759
I37
sa(dp763
g755
I933
sg756
F0.00013017654418945312
sg757
F0.00045108795166015625
sg758
I27
sg759
I27
sasS'total_cqs'
p764
I72
ssI70
(dp765
S'iters'
p766
I4
sS'meta'
p767
(lp768
(dp769
S'objective'
p770
I5313
sS'query_time'
p771
F93.32263588905334
sS'comp_time'
p772
F3.5548839569091797
sS'exec_cq'
p773
I109
sS'total_cq'
p774
I109
sa(dp775
g770
I5288
sg771
F0.5554559230804443
sg772
F2.7673819065093994
sg773
I105
sg774
I105
sa(dp776
g770
I5207
sg771
F0.28899312019348145
sg772
F1.106841802597046
sg773
I101
sg774
I101
sa(dp777
g770
I5121
sg771
F0.2237248420715332
sg772
F1.8931939601898193
sg773
I99
sg774
I99
sasS'total_cqs'
p778
I109
ssI71
(dp779
S'iters'
p780
I16
sS'meta'
p781
(lp782
(dp783
S'objective'
p784
I157504
sS'query_time'
p785
F72.22189283370972
sS'comp_time'
p786
F5.771116256713867
sS'exec_cq'
p787
I568
sS'total_cq'
p788
I568
sa(dp789
g784
I156234
sg785
F0.8179938793182373
sg786
F2.251317024230957
sg787
I562
sg788
I562
sa(dp790
g784
I155828
sg785
F0.36489319801330566
sg786
F7.11689019203186
sg787
I556
sg788
I556
sa(dp791
g784
I154926
sg785
F0.40593910217285156
sg786
F4.407037019729614
sg787
I552
sg788
I552
sa(dp792
g784
I154083
sg785
F0.35749006271362305
sg786
F1.30246901512146
sg787
I550
sg788
I550
sa(dp793
g784
I153262
sg785
F0.3428671360015869
sg786
F1.4891319274902344
sg787
I548
sg788
I548
sa(dp794
g784
I152453
sg785
F0.34718990325927734
sg786
F1.3023149967193604
sg787
I546
sg788
I546
sa(dp795
g784
I151681
sg785
F0.3261740207672119
sg786
F4.001381874084473
sg787
I544
sg788
I544
sa(dp796
g784
I150933
sg785
F0.34873294830322266
sg786
F1.3077590465545654
sg787
I542
sg788
I542
sa(dp797
g784
I150279
sg785
F0.31958580017089844
sg786
F1.4700279235839844
sg787
I540
sg788
I540
sa(dp798
g784
I149602
sg785
F0.0724039077758789
sg786
F0.8581211566925049
sg787
I538
sg788
I538
sa(dp799
g784
I148920
sg785
F0.18067693710327148
sg786
F0.8112399578094482
sg787
I536
sg788
I536
sa(dp800
g784
I148319
sg785
F0.18520212173461914
sg786
F0.8587498664855957
sg787
I534
sg788
I534
sa(dp801
g784
I147778
sg785
F0.17096805572509766
sg786
F1.0009610652923584
sg787
I532
sg788
I532
sa(dp802
g784
I147233
sg785
F0.18973708152770996
sg786
F3.0570008754730225
sg787
I530
sg788
I530
sa(dp803
g784
I146666
sg785
F0.17330288887023926
sg786
F0.8391120433807373
sg787
I528
sg788
I528
sasS'total_cqs'
p804
I568
ssI72
(dp805
S'iters'
p806
I3
sS'meta'
p807
(lp808
(dp809
S'objective'
p810
I7535
sS'query_time'
p811
F20.78407096862793
sS'comp_time'
p812
F0.0885767936706543
sS'exec_cq'
p813
I125
sS'total_cq'
p814
I125
sa(dp815
g810
I7409
sg811
F0.005115985870361328
sg812
F0.08490991592407227
sg813
I123
sg814
I123
sa(dp816
g810
I7307
sg811
F0.004724025726318359
sg812
F0.11628389358520508
sg813
I121
sg814
I121
sasS'total_cqs'
p817
I125
ssI73
(dp818
S'iters'
p819
I5
sS'meta'
p820
(lp821
(dp822
S'objective'
p823
I7273
sS'query_time'
p824
F25.726324796676636
sS'comp_time'
p825
F0.4939920902252197
sS'exec_cq'
p826
I125
sS'total_cq'
p827
I125
sa(dp828
g823
I7270
sg824
F0.0790560245513916
sg825
F0.4080979824066162
sg826
I122
sg827
I122
sa(dp829
g823
I7154
sg824
F0.11021089553833008
sg825
F0.3513338565826416
sg826
I120
sg827
I120
sa(dp830
g823
I7034
sg824
F0.034993886947631836
sg825
F0.3536100387573242
sg826
I118
sg827
I118
sa(dp831
g823
I6911
sg824
F0.06920599937438965
sg825
F0.24514102935791016
sg826
I116
sg827
I116
sasS'total_cqs'
p832
I125
ssI138
(dp833
S'iters'
p834
I3
sS'meta'
p835
(lp836
(dp837
S'objective'
p838
I1348
sS'query_time'
p839
F2.081183910369873
sS'comp_time'
p840
F0.0006439685821533203
sS'exec_cq'
p841
I75
sS'total_cq'
p842
I75
sa(dp843
g838
I1937
sg839
F0.00024700164794921875
sg840
F0.0003962516784667969
sg841
I55
sg842
I55
sa(dp844
g838
I1868
sg839
F0.00017595291137695312
sg840
F0.00010991096496582031
sg841
I52
sg842
I52
sasS'total_cqs'
p845
I75
ssI139
(dp846
S'iters'
p847
I7
sS'meta'
p848
(lp849
(dp850
S'objective'
p851
I78819
sS'query_time'
p852
F22.516881942749023
sS'comp_time'
p853
F0.20307087898254395
sS'exec_cq'
p854
I425
sS'total_cq'
p855
I425
sa(dp856
g851
I73996
sg852
F0.0031690597534179688
sg853
F0.20485901832580566
sg854
I398
sg855
I398
sa(dp857
g851
I72806
sg852
F0.002618074417114258
sg853
F0.18612909317016602
sg854
I374
sg855
I374
sa(dp858
g851
I74518
sg852
F0.0024268627166748047
sg853
F0.04496407508850098
sg854
I355
sg855
I355
sa(dp859
g851
I73750
sg852
F0.0023720264434814453
sg853
F0.04534578323364258
sg854
I352
sg855
I352
sa(dp860
g851
I72680
sg852
F0.0019788742065429688
sg853
F0.05153536796569824
sg854
I348
sg855
I348
sa(dp861
g851
I72751
sg852
F0.0013051033020019531
sg853
F0.03866004943847656
sg854
I342
sg855
I342
sasS'total_cqs'
p862
I425
ssI142
(dp863
S'iters'
p864
I1
sS'meta'
p865
(lp866
(dp867
S'objective'
p868
I0
sS'query_time'
p869
F21.351062059402466
sS'comp_time'
p870
F0.0028448104858398438
sS'exec_cq'
p871
I3
sS'total_cq'
p872
I3
sasS'total_cqs'
p873
I3
ssI148
(dp874
S'iters'
p875
I7
sS'meta'
p876
(lp877
(dp878
S'objective'
p879
I54764
sS'query_time'
p880
F28.386812925338745
sS'comp_time'
p881
F0.1908550262451172
sS'exec_cq'
p882
I359
sS'total_cq'
p883
I359
sa(dp884
g879
I49694
sg880
F0.0020220279693603516
sg881
F0.15595483779907227
sg882
I334
sg883
I334
sa(dp885
g879
I49397
sg880
F0.0015361309051513672
sg881
F0.11959290504455566
sg882
I308
sg883
I308
sa(dp886
g879
I50105
sg880
F0.0010190010070800781
sg881
F0.017750024795532227
sg882
I292
sg883
I292
sa(dp887
g879
I49785
sg880
F0.0008130073547363281
sg881
F0.01723766326904297
sg882
I288
sg883
I288
sa(dp888
g879
I49622
sg880
F0.0007910728454589844
sg881
F0.10478591918945312
sg882
I284
sg883
I284
sa(dp889
g879
I49308
sg880
F0.0008180141448974609
sg881
F0.017038822174072266
sg882
I282
sg883
I282
sasS'total_cqs'
p890
I359
ssI137
(dp891
S'iters'
p892
I7
sS'meta'
p893
(lp894
(dp895
S'objective'
p896
I71328
sS'query_time'
p897
F31.773362159729004
sS'comp_time'
p898
F0.18938016891479492
sS'exec_cq'
p899
I400
sS'total_cq'
p900
I400
sa(dp901
g896
I64070
sg897
F0.00597691535949707
sg898
F0.17756390571594238
sg899
I377
sg900
I377
sa(dp902
g896
I62697
sg897
F0.0016019344329833984
sg898
F0.14133882522583008
sg899
I349
sg900
I349
sa(dp903
g896
I65207
sg897
F0.0013740062713623047
sg898
F0.03389286994934082
sg899
I328
sg900
I328
sa(dp904
g896
I64721
sg897
F0.0010759830474853516
sg898
F0.038941144943237305
sg899
I325
sg900
I325
sa(dp905
g896
I64433
sg897
F0.0012891292572021484
sg898
F0.03446793556213379
sg899
I322
sg900
I322
sa(dp906
g896
I64036
sg897
F0.0012249946594238281
sg898
F0.03400301933288574
sg899
I318
sg900
I318
sasS'total_cqs'
p907
I400
ss.