(dp0
I1
(dp1
S'iters'
p2
I1
sS'meta'
p3
(lp4
(dp5
S'objective'
p6
I2
sS'query_time'
p7
F0.010453939437866211
sS'comp_time'
p8
F9.202957153320312e-05
sS'exec_cq'
p9
I1
sS'total_cq'
p10
I4
sasS'total_cqs'
p11
I4
ssI2
(dp12
S'iters'
p13
I1
sS'meta'
p14
(lp15
(dp16
S'objective'
p17
I2
sS'query_time'
p18
F0.009382963180541992
sS'comp_time'
p19
F9.822845458984375e-05
sS'exec_cq'
p20
I1
sS'total_cq'
p21
I4
sasS'total_cqs'
p22
I4
ssI5
(dp23
S'iters'
p24
I10
sS'meta'
p25
(lp26
(dp27
S'objective'
p28
I1379
sS'query_time'
p29
F20.040202856063843
sS'comp_time'
p30
F0.0001251697540283203
sS'exec_cq'
p31
I2
sS'total_cq'
p32
I54
sa(dp33
g28
I1056
sg29
F14.622985124588013
sg30
F0.00015211105346679688
sg31
I2
sg32
I53
sa(dp34
g28
I760
sg29
F3.2397570610046387
sg30
F0.00015211105346679688
sg31
I3
sg32
I45
sa(dp35
g28
I604
sg29
F0.5386810302734375
sg30
F0.00014901161193847656
sg31
I3
sg32
I37
sa(dp36
g28
I727
sg29
F30.422751903533936
sg30
F0.00022721290588378906
sg31
I4
sg32
I30
sa(dp37
g28
I697
sg29
F0.024896860122680664
sg30
F0.00011396408081054688
sg31
I4
sg32
I29
sa(dp38
g28
I693
sg29
F0.5324280261993408
sg30
F0.0001659393310546875
sg31
I8
sg32
I28
sa(dp39
g28
I698
sg29
F0.04887199401855469
sg30
F7.700920104980469e-05
sg31
I10
sg32
I27
sa(dp40
g28
I699
sg29
F0.020287036895751953
sg30
F7.081031799316406e-05
sg31
I10
sg32
I26
sa(dp41
g28
I594
sg29
F0.0064389705657958984
sg30
F6.699562072753906e-05
sg31
I9
sg32
I25
sasS'total_cqs'
p42
I54
ssI6
(dp43
S'iters'
p44
I1
sS'meta'
p45
(lp46
(dp47
S'objective'
p48
I2
sS'query_time'
p49
F0.0062639713287353516
sS'comp_time'
p50
F6.604194641113281e-05
sS'exec_cq'
p51
I1
sS'total_cq'
p52
I4
sasS'total_cqs'
p53
I4
ssI135
(dp54
S'iters'
p55
I1
sS'meta'
p56
(lp57
(dp58
S'objective'
p59
I14
sS'query_time'
p60
F0.7927799224853516
sS'comp_time'
p61
F7.104873657226562e-05
sS'exec_cq'
p62
I1
sS'total_cq'
p63
I7
sasS'total_cqs'
p64
I7
ssI136
(dp65
S'iters'
p66
I1
sS'meta'
p67
(lp68
(dp69
S'objective'
p70
I1539
sS'query_time'
p71
F0.022212982177734375
sS'comp_time'
p72
F9.512901306152344e-05
sS'exec_cq'
p73
I1
sS'total_cq'
p74
I57
sasS'total_cqs'
p75
I57
ssI9
(dp76
S'iters'
p77
I2
sS'meta'
p78
(lp79
(dp80
S'objective'
p81
I2
sS'query_time'
p82
F0.16936111450195312
sS'comp_time'
p83
F8.606910705566406e-05
sS'exec_cq'
p84
I1
sS'total_cq'
p85
I3
sa(dp86
g81
I2
sg82
F0.003701925277709961
sg83
F4.601478576660156e-05
sg84
I1
sg85
I2
sasS'total_cqs'
p87
I3
ssI10
(dp88
S'iters'
p89
I1
sS'meta'
p90
(lp91
(dp92
S'objective'
p93
I2
sS'query_time'
p94
F0.006865978240966797
sS'comp_time'
p95
F6.318092346191406e-05
sS'exec_cq'
p96
I1
sS'total_cq'
p97
I4
sasS'total_cqs'
p98
I4
ssI11
(dp99
S'iters'
p100
I1
sS'meta'
p101
(lp102
(dp103
S'objective'
p104
I14
sS'query_time'
p105
F0.0029687881469726562
sS'comp_time'
p106
F7.700920104980469e-05
sS'exec_cq'
p107
I1
sS'total_cq'
p108
I7
sasS'total_cqs'
p109
I7
ssI12
(dp110
S'iters'
p111
I1
sS'meta'
p112
(lp113
(dp114
S'objective'
p115
I14
sS'query_time'
p116
F0.04993319511413574
sS'comp_time'
p117
F0.00013113021850585938
sS'exec_cq'
p118
I1
sS'total_cq'
p119
I7
sasS'total_cqs'
p120
I7
ssI141
(dp121
S'iters'
p122
I1
sS'meta'
p123
(lp124
(dp125
S'objective'
p126
I72770
sS'query_time'
p127
F0.2234499454498291
sS'comp_time'
p128
F0.00046896934509277344
sS'exec_cq'
p129
I1
sS'total_cq'
p130
I383
sasS'total_cqs'
p131
I383
ssI14
(dp132
S'iters'
p133
I1
sS'meta'
p134
(lp135
(dp136
S'objective'
p137
I275
sS'query_time'
p138
F1.1631829738616943
sS'comp_time'
p139
F0.00014901161193847656
sS'exec_cq'
p140
I1
sS'total_cq'
p141
I25
sasS'total_cqs'
p142
I25
ssI15
(dp143
S'iters'
p144
I2
sS'meta'
p145
(lp146
(dp147
S'objective'
p148
I35
sS'query_time'
p149
F20.837062120437622
sS'comp_time'
p150
F0.00012087821960449219
sS'exec_cq'
p151
I4
sS'total_cq'
p152
I13
sa(dp153
g148
I37
sg149
F0.1985609531402588
sg150
F0.00010824203491210938
sg151
I6
sg152
I9
sasS'total_cqs'
p154
I13
ssI16
(dp155
S'iters'
p156
I3
sS'meta'
p157
(lp158
(dp159
S'objective'
p160
I137
sS'query_time'
p161
F44.854660987854004
sS'comp_time'
p162
F0.00013589859008789062
sS'exec_cq'
p163
I6
sS'total_cq'
p164
I17
sa(dp165
g160
I75
sg161
F0.20043492317199707
sg162
F0.0001361370086669922
sg163
I5
sg164
I15
sa(dp166
g160
I1
sg161
F0.18573403358459473
sg162
F7.486343383789062e-05
sg163
I1
sg164
I3
sasS'total_cqs'
p167
I17
ssI17
(dp168
S'iters'
p169
I2
sS'meta'
p170
(lp171
(dp172
S'objective'
p173
I102
sS'query_time'
p174
F23.096905946731567
sS'comp_time'
p175
F0.00011515617370605469
sS'exec_cq'
p176
I14
sS'total_cq'
p177
I16
sa(dp178
g173
I15
sg174
F0.32462406158447266
sg175
F7.724761962890625e-05
sg176
I1
sg177
I2
sasS'total_cqs'
p179
I16
ssI18
(dp180
S'iters'
p181
I4
sS'meta'
p182
(lp183
(dp184
S'objective'
p185
I172
sS'query_time'
p186
F24.773038148880005
sS'comp_time'
p187
F0.00011205673217773438
sS'exec_cq'
p188
I2
sS'total_cq'
p189
I20
sa(dp190
g185
I161
sg186
F1.6613898277282715
sg187
F0.00015425682067871094
sg188
I2
sg189
I18
sa(dp191
g185
I120
sg186
F1.8808529376983643
sg187
F0.0001068115234375
sg188
I1
sg189
I17
sa(dp192
g185
I12
sg186
F0.0622708797454834
sg187
F7.271766662597656e-05
sg188
I1
sg189
I2
sasS'total_cqs'
p193
I20
ssI19
(dp194
S'iters'
p195
I5
sS'meta'
p196
(lp197
(dp198
S'objective'
p199
I3816
sS'query_time'
p200
F43.21058392524719
sS'comp_time'
p201
F0.00027489662170410156
sS'exec_cq'
p202
I6
sS'total_cq'
p203
I88
sa(dp204
g199
I3812
sg200
F3.8384180068969727
sg201
F0.0005080699920654297
sg202
I7
sg203
I87
sa(dp205
g199
I3479
sg200
F0.26894187927246094
sg201
F0.00013208389282226562
sg202
I7
sg203
I86
sa(dp206
g199
I3391
sg200
F1.2989590167999268
sg201
F0.00015306472778320312
sg202
I12
sg203
I82
sa(dp207
g199
I42
sg200
F0.06448793411254883
sg201
F6.628036499023438e-05
sg202
I1
sg203
I2
sasS'total_cqs'
p208
I88
ssI134
(dp209
S'iters'
p210
I1
sS'meta'
p211
(lp212
(dp213
S'objective'
p214
I1
sS'query_time'
p215
F20.701674938201904
sS'comp_time'
p216
F0.00010609626770019531
sS'exec_cq'
p217
I2
sS'total_cq'
p218
I2
sasS'total_cqs'
p219
I2
ssI21
(dp220
S'iters'
p221
I1
sS'meta'
p222
(lp223
(dp224
S'objective'
p225
I5
sS'query_time'
p226
F0.007032871246337891
sS'comp_time'
p227
F7.200241088867188e-05
sS'exec_cq'
p228
I1
sS'total_cq'
p229
I5
sasS'total_cqs'
p230
I5
ssI22
(dp231
S'iters'
p232
I1
sS'meta'
p233
(lp234
(dp235
S'objective'
p236
I0
sS'query_time'
p237
F24.718321084976196
sS'comp_time'
p238
F0.00016117095947265625
sS'exec_cq'
p239
I2
sS'total_cq'
p240
I3
sasS'total_cqs'
p241
I3
ssI24
(dp242
S'iters'
p243
I2
sS'meta'
p244
(lp245
(dp246
S'objective'
p247
I4
sS'query_time'
p248
F0.10968899726867676
sS'comp_time'
p249
F6.4849853515625e-05
sS'exec_cq'
p250
I1
sS'total_cq'
p251
I3
sa(dp252
g247
I1
sg248
F0.10524797439575195
sg249
F7.987022399902344e-05
sg250
I1
sg251
I2
sasS'total_cqs'
p253
I3
ssI25
(dp254
S'iters'
p255
I1
sS'meta'
p256
(lp257
(dp258
S'objective'
p259
I0
sS'query_time'
p260
F0.2658660411834717
sS'comp_time'
p261
F7.510185241699219e-05
sS'exec_cq'
p262
I1
sS'total_cq'
p263
I3
sasS'total_cqs'
p264
I3
ssI29
(dp265
S'iters'
p266
I1
sS'meta'
p267
(lp268
(dp269
S'objective'
p270
I14
sS'query_time'
p271
F0.002441883087158203
sS'comp_time'
p272
F6.29425048828125e-05
sS'exec_cq'
p273
I1
sS'total_cq'
p274
I7
sasS'total_cqs'
p275
I7
ssI30
(dp276
S'iters'
p277
I1
sS'meta'
p278
(lp279
(dp280
S'objective'
p281
I14
sS'query_time'
p282
F0.04542112350463867
sS'comp_time'
p283
F8.988380432128906e-05
sS'exec_cq'
p284
I1
sS'total_cq'
p285
I7
sasS'total_cqs'
p286
I7
ssI31
(dp287
S'iters'
p288
I1
sS'meta'
p289
(lp290
(dp291
S'objective'
p292
I35
sS'query_time'
p293
F0.021890878677368164
sS'comp_time'
p294
F7.224082946777344e-05
sS'exec_cq'
p295
I1
sS'total_cq'
p296
I10
sasS'total_cqs'
p297
I10
ssI32
(dp298
S'iters'
p299
I1
sS'meta'
p300
(lp301
(dp302
S'objective'
p303
I35
sS'query_time'
p304
F0.1940908432006836
sS'comp_time'
p305
F8.559226989746094e-05
sS'exec_cq'
p306
I1
sS'total_cq'
p307
I10
sasS'total_cqs'
p308
I10
ssI33
(dp309
S'iters'
p310
I1
sS'meta'
p311
(lp312
(dp313
S'objective'
p314
I44
sS'query_time'
p315
F0.040476083755493164
sS'comp_time'
p316
F8.20159912109375e-05
sS'exec_cq'
p317
I1
sS'total_cq'
p318
I11
sasS'total_cqs'
p319
I11
ssI34
(dp320
S'iters'
p321
I1
sS'meta'
p322
(lp323
(dp324
S'objective'
p325
I2345
sS'query_time'
p326
F0.05517888069152832
sS'comp_time'
p327
F0.00010395050048828125
sS'exec_cq'
p328
I1
sS'total_cq'
p329
I70
sasS'total_cqs'
p330
I70
ssI35
(dp331
S'iters'
p332
I1
sS'meta'
p333
(lp334
(dp335
S'objective'
p336
I2345
sS'query_time'
p337
F0.11332201957702637
sS'comp_time'
p338
F0.00011992454528808594
sS'exec_cq'
p339
I1
sS'total_cq'
p340
I70
sasS'total_cqs'
p341
I70
ssI36
(dp342
S'iters'
p343
I1
sS'meta'
p344
(lp345
(dp346
S'objective'
p347
I119
sS'query_time'
p348
F0.008549928665161133
sS'comp_time'
p349
F7.224082946777344e-05
sS'exec_cq'
p350
I1
sS'total_cq'
p351
I17
sasS'total_cqs'
p352
I17
ssI37
(dp353
S'iters'
p354
I1
sS'meta'
p355
(lp356
(dp357
S'objective'
p358
I104
sS'query_time'
p359
F0.019323110580444336
sS'comp_time'
p360
F8.392333984375e-05
sS'exec_cq'
p361
I1
sS'total_cq'
p362
I16
sasS'total_cqs'
p363
I16
ssI38
(dp364
S'iters'
p365
I1
sS'meta'
p366
(lp367
(dp368
S'objective'
p369
I1652
sS'query_time'
p370
F0.030641794204711914
sS'comp_time'
p371
F0.00012612342834472656
sS'exec_cq'
p372
I1
sS'total_cq'
p373
I59
sasS'total_cqs'
p374
I59
ssI39
(dp375
S'iters'
p376
I1
sS'meta'
p377
(lp378
(dp379
S'objective'
p380
I3002
sS'query_time'
p381
F0.022713184356689453
sS'comp_time'
p382
F0.00013303756713867188
sS'exec_cq'
p383
I1
sS'total_cq'
p384
I79
sasS'total_cqs'
p385
I79
ssI40
(dp386
S'iters'
p387
I1
sS'meta'
p388
(lp389
(dp390
S'objective'
p391
I3320
sS'query_time'
p392
F0.021753787994384766
sS'comp_time'
p393
F0.00015592575073242188
sS'exec_cq'
p394
I1
sS'total_cq'
p395
I83
sasS'total_cqs'
p396
I83
ssI41
(dp397
S'iters'
p398
I1
sS'meta'
p399
(lp400
(dp401
S'objective'
p402
I5
sS'query_time'
p403
F0.00763702392578125
sS'comp_time'
p404
F7.486343383789062e-05
sS'exec_cq'
p405
I1
sS'total_cq'
p406
I5
sasS'total_cqs'
p407
I5
ssI42
(dp408
S'iters'
p409
I1
sS'meta'
p410
(lp411
(dp412
S'objective'
p413
I0
sS'query_time'
p414
F30.977964878082275
sS'comp_time'
p415
F0.00013494491577148438
sS'exec_cq'
p416
I1
sS'total_cq'
p417
I3
sasS'total_cqs'
p418
I3
ssI43
(dp419
S'iters'
p420
I1
sS'meta'
p421
(lp422
(dp423
S'objective'
p424
I5
sS'query_time'
p425
F0.397050142288208
sS'comp_time'
p426
F7.82012939453125e-05
sS'exec_cq'
p427
I1
sS'total_cq'
p428
I5
sasS'total_cqs'
p429
I5
ssI44
(dp430
S'iters'
p431
I2
sS'meta'
p432
(lp433
(dp434
S'objective'
p435
I23
sS'query_time'
p436
F20.03594207763672
sS'comp_time'
p437
F9.894371032714844e-05
sS'exec_cq'
p438
I2
sS'total_cq'
p439
I10
sa(dp440
g435
I4
sg436
F0.0038940906524658203
sg437
F6.103515625e-05
sg438
I1
sg439
I2
sasS'total_cqs'
p441
I10
ssI133
(dp442
S'iters'
p443
I1
sS'meta'
p444
(lp445
(dp446
S'objective'
p447
I1
sS'query_time'
p448
F21.2240149974823
sS'comp_time'
p449
F0.0001480579376220703
sS'exec_cq'
p450
I2
sS'total_cq'
p451
I2
sasS'total_cqs'
p452
I2
ssI46
(dp453
S'iters'
p454
I1
sS'meta'
p455
(lp456
(dp457
S'objective'
p458
I1
sS'query_time'
p459
F0.7175610065460205
sS'comp_time'
p460
F9.489059448242188e-05
sS'exec_cq'
p461
I1
sS'total_cq'
p462
I2
sasS'total_cqs'
p463
I2
ssI49
(dp464
S'iters'
p465
I2
sS'meta'
p466
(lp467
(dp468
S'objective'
p469
I2
sS'query_time'
p470
F55.51154088973999
sS'comp_time'
p471
F0.0001327991485595703
sS'exec_cq'
p472
I1
sS'total_cq'
p473
I3
sa(dp474
g469
I2
sg470
F20.07075786590576
sg471
F0.0001442432403564453
sg472
I2
sg473
I2
sasS'total_cqs'
p475
I3
ssI50
(dp476
S'iters'
p477
I1
sS'meta'
p478
(lp479
(dp480
S'objective'
p481
I54
sS'query_time'
p482
F0.01180410385131836
sS'comp_time'
p483
F7.772445678710938e-05
sS'exec_cq'
p484
I1
sS'total_cq'
p485
I12
sasS'total_cqs'
p486
I12
ssI51
(dp487
S'iters'
p488
I1
sS'meta'
p489
(lp490
(dp491
S'objective'
p492
I54
sS'query_time'
p493
F0.014625072479248047
sS'comp_time'
p494
F7.796287536621094e-05
sS'exec_cq'
p495
I1
sS'total_cq'
p496
I12
sasS'total_cqs'
p497
I12
ssI52
(dp498
S'iters'
p499
I1
sS'meta'
p500
(lp501
(dp502
S'objective'
p503
I54
sS'query_time'
p504
F0.10961103439331055
sS'comp_time'
p505
F8.416175842285156e-05
sS'exec_cq'
p506
I1
sS'total_cq'
p507
I12
sasS'total_cqs'
p508
I12
ssI53
(dp509
S'iters'
p510
I2
sS'meta'
p511
(lp512
(dp513
S'objective'
p514
I4
sS'query_time'
p515
F20.03598403930664
sS'comp_time'
p516
F8.106231689453125e-05
sS'exec_cq'
p517
I1
sS'total_cq'
p518
I3
sa(dp519
g514
I1
sg515
F22.08075213432312
sg516
F6.914138793945312e-05
sg517
I1
sg518
I2
sasS'total_cqs'
p520
I3
ssI54
(dp521
S'iters'
p522
I1
sS'meta'
p523
(lp524
(dp525
S'objective'
p526
I5
sS'query_time'
p527
F2.0367019176483154
sS'comp_time'
p528
F7.295608520507812e-05
sS'exec_cq'
p529
I1
sS'total_cq'
p530
I5
sasS'total_cqs'
p531
I5
ssI55
(dp532
S'iters'
p533
I2
sS'meta'
p534
(lp535
(dp536
S'objective'
p537
I23
sS'query_time'
p538
F0.2849099636077881
sS'comp_time'
p539
F8.58306884765625e-05
sS'exec_cq'
p540
I1
sS'total_cq'
p541
I10
sa(dp542
g537
I4
sg538
F3.1591758728027344
sg539
F8.916854858398438e-05
sg540
I2
sg541
I2
sasS'total_cqs'
p543
I10
ssI56
(dp544
S'iters'
p545
I1
sS'meta'
p546
(lp547
(dp548
S'objective'
p549
I9
sS'query_time'
p550
F2.4114749431610107
sS'comp_time'
p551
F9.202957153320312e-05
sS'exec_cq'
p552
I1
sS'total_cq'
p553
I6
sasS'total_cqs'
p554
I6
ssI57
(dp555
S'iters'
p556
I1
sS'meta'
p557
(lp558
(dp559
S'objective'
p560
I324
sS'query_time'
p561
F0.2367079257965088
sS'comp_time'
p562
F0.0001423358917236328
sS'exec_cq'
p563
I1
sS'total_cq'
p564
I27
sasS'total_cqs'
p565
I27
ssI58
(dp566
S'iters'
p567
I1
sS'meta'
p568
(lp569
(dp570
S'objective'
p571
I35
sS'query_time'
p572
F1.6856460571289062
sS'comp_time'
p573
F8.296966552734375e-05
sS'exec_cq'
p574
I1
sS'total_cq'
p575
I10
sasS'total_cqs'
p576
I10
ssI59
(dp577
S'iters'
p578
I1
sS'meta'
p579
(lp580
(dp581
S'objective'
p582
I1652
sS'query_time'
p583
F1.1660499572753906
sS'comp_time'
p584
F0.00010204315185546875
sS'exec_cq'
p585
I1
sS'total_cq'
p586
I59
sasS'total_cqs'
p587
I59
ssI60
(dp588
S'iters'
p589
I1
sS'meta'
p590
(lp591
(dp592
S'objective'
p593
I90
sS'query_time'
p594
F0.5229551792144775
sS'comp_time'
p595
F8.177757263183594e-05
sS'exec_cq'
p596
I1
sS'total_cq'
p597
I15
sasS'total_cqs'
p598
I15
ssI61
(dp599
S'iters'
p600
I1
sS'meta'
p601
(lp602
(dp603
S'objective'
p604
I119
sS'query_time'
p605
F0.5131280422210693
sS'comp_time'
p606
F8.797645568847656e-05
sS'exec_cq'
p607
I1
sS'total_cq'
p608
I17
sasS'total_cqs'
p609
I17
ssI62
(dp610
S'iters'
p611
I1
sS'meta'
p612
(lp613
(dp614
S'objective'
p615
I12245
sS'query_time'
p616
F0.7741000652313232
sS'comp_time'
p617
F0.00019598007202148438
sS'exec_cq'
p618
I1
sS'total_cq'
p619
I158
sasS'total_cqs'
p620
I158
ssI63
(dp621
S'iters'
p622
I1
sS'meta'
p623
(lp624
(dp625
S'objective'
p626
I2849
sS'query_time'
p627
F0.5129659175872803
sS'comp_time'
p628
F0.000148773193359375
sS'exec_cq'
p629
I1
sS'total_cq'
p630
I77
sasS'total_cqs'
p631
I77
ssI64
(dp632
S'iters'
p633
I1
sS'meta'
p634
(lp635
(dp636
S'objective'
p637
I8910
sS'query_time'
p638
F0.6142950057983398
sS'comp_time'
p639
F0.000186920166015625
sS'exec_cq'
p640
I1
sS'total_cq'
p641
I135
sasS'total_cqs'
p642
I135
ssI65
(dp643
S'iters'
p644
I1
sS'meta'
p645
(lp646
(dp647
S'objective'
p648
I299
sS'query_time'
p649
F0.09063482284545898
sS'comp_time'
p650
F0.0001049041748046875
sS'exec_cq'
p651
I1
sS'total_cq'
p652
I26
sasS'total_cqs'
p653
I26
ssI66
(dp654
S'iters'
p655
I1
sS'meta'
p656
(lp657
(dp658
S'objective'
p659
I275
sS'query_time'
p660
F0.08298110961914062
sS'comp_time'
p661
F0.00012922286987304688
sS'exec_cq'
p662
I1
sS'total_cq'
p663
I25
sasS'total_cqs'
p664
I25
ssI67
(dp665
S'iters'
p666
I1
sS'meta'
p667
(lp668
(dp669
S'objective'
p670
I275
sS'query_time'
p671
F0.07194995880126953
sS'comp_time'
p672
F0.00011014938354492188
sS'exec_cq'
p673
I1
sS'total_cq'
p674
I25
sasS'total_cqs'
p675
I25
ssI68
(dp676
S'iters'
p677
I1
sS'meta'
p678
(lp679
(dp680
S'objective'
p681
I2555
sS'query_time'
p682
F0.02553701400756836
sS'comp_time'
p683
F0.00014495849609375
sS'exec_cq'
p684
I1
sS'total_cq'
p685
I73
sasS'total_cqs'
p686
I73
ssI69
(dp687
S'iters'
p688
I1
sS'meta'
p689
(lp690
(dp691
S'objective'
p692
I2484
sS'query_time'
p693
F0.019242048263549805
sS'comp_time'
p694
F0.00015211105346679688
sS'exec_cq'
p695
I1
sS'total_cq'
p696
I72
sasS'total_cqs'
p697
I72
ssI70
(dp698
S'iters'
p699
I1
sS'meta'
p700
(lp701
(dp702
S'objective'
p703
I5777
sS'query_time'
p704
F1.6005239486694336
sS'comp_time'
p705
F0.000202178955078125
sS'exec_cq'
p706
I1
sS'total_cq'
p707
I109
sasS'total_cqs'
p708
I109
ssI71
(dp709
S'iters'
p710
I1
sS'meta'
p711
(lp712
(dp713
S'objective'
p714
I160460
sS'query_time'
p715
F6.921097040176392
sS'comp_time'
p716
F0.0006651878356933594
sS'exec_cq'
p717
I1
sS'total_cq'
p718
I568
sasS'total_cqs'
p719
I568
ssI72
(dp720
S'iters'
p721
I1
sS'meta'
p722
(lp723
(dp724
S'objective'
p725
I7625
sS'query_time'
p726
F5.376729965209961
sS'comp_time'
p727
F0.00020003318786621094
sS'exec_cq'
p728
I1
sS'total_cq'
p729
I125
sasS'total_cqs'
p730
I125
ssI73
(dp731
S'iters'
p732
I1
sS'meta'
p733
(lp734
(dp735
S'objective'
p736
I7625
sS'query_time'
p737
F0.20423412322998047
sS'comp_time'
p738
F0.00016689300537109375
sS'exec_cq'
p739
I1
sS'total_cq'
p740
I125
sasS'total_cqs'
p741
I125
ssI138
(dp742
S'iters'
p743
I1
sS'meta'
p744
(lp745
(dp746
S'objective'
p747
I2700
sS'query_time'
p748
F0.02458500862121582
sS'comp_time'
p749
F0.00013399124145507812
sS'exec_cq'
p750
I1
sS'total_cq'
p751
I75
sasS'total_cqs'
p752
I75
ssI139
(dp753
S'iters'
p754
I1
sS'meta'
p755
(lp756
(dp757
S'objective'
p758
I89675
sS'query_time'
p759
F0.13115692138671875
sS'comp_time'
p760
F0.0005252361297607422
sS'exec_cq'
p761
I1
sS'total_cq'
p762
I425
sasS'total_cqs'
p763
I425
ssI142
(dp764
S'iters'
p765
I1
sS'meta'
p766
(lp767
(dp768
S'objective'
p769
I0
sS'query_time'
p770
F21.401156902313232
sS'comp_time'
p771
F8.0108642578125e-05
sS'exec_cq'
p772
I1
sS'total_cq'
p773
I3
sasS'total_cqs'
p774
I3
ssI148
(dp775
S'iters'
p776
I1
sS'meta'
p777
(lp778
(dp779
S'objective'
p780
I63902
sS'query_time'
p781
F0.06704998016357422
sS'comp_time'
p782
F0.00033593177795410156
sS'exec_cq'
p783
I1
sS'total_cq'
p784
I359
sasS'total_cqs'
p785
I359
ssI137
(dp786
S'iters'
p787
I1
sS'meta'
p788
(lp789
(dp790
S'objective'
p791
I79400
sS'query_time'
p792
F0.08569192886352539
sS'comp_time'
p793
F0.0004730224609375
sS'exec_cq'
p794
I1
sS'total_cq'
p795
I400
sasS'total_cqs'
p796
I400
ss.