(dp0
I1
(dp1
S'iters'
p2
I1
sS'meta'
p3
(lp4
(dp5
S'objective'
p6
I2
sS'query_time'
p7
F40.110514879226685
sS'comp_time'
p8
F0.004902839660644531
sS'exec_cq'
p9
I4
sS'total_cq'
p10
I4
sasS'total_cqs'
p11
I4
ssI2
(dp12
S'iters'
p13
I1
sS'meta'
p14
(lp15
(dp16
S'objective'
p17
I2
sS'query_time'
p18
F0.04781293869018555
sS'comp_time'
p19
F0.0012853145599365234
sS'exec_cq'
p20
I4
sS'total_cq'
p21
I4
sasS'total_cqs'
p22
I4
ssI3
(dp23
S'iters'
p24
I0
sS'meta'
p25
(lp26
sS'total_cqs'
p27
I1
ssI4
(dp28
S'iters'
p29
I0
sS'meta'
p30
(lp31
sS'total_cqs'
p32
I1
ssI5
(dp33
S'iters'
p34
I4
sS'meta'
p35
(lp36
(dp37
S'objective'
p38
I557
sS'query_time'
p39
F584.8968501091003
sS'comp_time'
p40
F3.0803017616271973
sS'exec_cq'
p41
I54
sS'total_cq'
p42
I54
sa(dp43
g38
I337
sg39
F0.4985768795013428
sg40
F1.7115578651428223
sg41
I39
sg42
I39
sa(dp44
g38
I287
sg39
F0.011047124862670898
sg40
F0.08664584159851074
sg41
I28
sg42
I28
sa(dp45
g38
I375
sg39
F0.008741140365600586
sg40
F0.07886195182800293
sg41
I21
sg42
I21
sasS'total_cqs'
p46
I54
ssI6
(dp47
S'iters'
p48
I1
sS'meta'
p49
(lp50
(dp51
S'objective'
p52
I2
sS'query_time'
p53
F40.12846398353577
sS'comp_time'
p54
F0.006793975830078125
sS'exec_cq'
p55
I4
sS'total_cq'
p56
I4
sasS'total_cqs'
p57
I4
ssI7
(dp58
S'iters'
p59
I0
sS'meta'
p60
(lp61
sS'total_cqs'
p62
I1
ssI8
(dp63
S'iters'
p64
I0
sS'meta'
p65
(lp66
sS'total_cqs'
p67
I1
ssI9
(dp68
S'iters'
p69
I1
sS'meta'
p70
(lp71
(dp72
S'objective'
p73
I0
sS'query_time'
p74
F29.45963478088379
sS'comp_time'
p75
F0.12498188018798828
sS'exec_cq'
p76
I3
sS'total_cq'
p77
I3
sasS'total_cqs'
p78
I3
ssI10
(dp79
S'iters'
p80
I1
sS'meta'
p81
(lp82
(dp83
S'objective'
p84
I2
sS'query_time'
p85
F11.022861003875732
sS'comp_time'
p86
F0.02544689178466797
sS'exec_cq'
p87
I4
sS'total_cq'
p88
I4
sasS'total_cqs'
p89
I4
ssI11
(dp90
S'iters'
p91
I1
sS'meta'
p92
(lp93
(dp94
S'objective'
p95
I14
sS'query_time'
p96
F73.83466410636902
sS'comp_time'
p97
F0.0012278556823730469
sS'exec_cq'
p98
I7
sS'total_cq'
p99
I7
sasS'total_cqs'
p100
I7
ssI12
(dp101
S'iters'
p102
I2
sS'meta'
p103
(lp104
(dp105
S'objective'
p106
I12
sS'query_time'
p107
F74.01098799705505
sS'comp_time'
p108
F0.16729497909545898
sS'exec_cq'
p109
I7
sS'total_cq'
p110
I7
sa(dp111
g106
I6
sg107
F0.00012087821960449219
sg108
F0.0014977455139160156
sg109
I5
sg110
I5
sasS'total_cqs'
p112
I7
ssI13
(dp113
S'iters'
p114
I0
sS'meta'
p115
(lp116
sS'total_cqs'
p117
I1
ssI14
(dp118
S'iters'
p119
I3
sS'meta'
p120
(lp121
(dp122
S'objective'
p123
I119
sS'query_time'
p124
F328.3415539264679
sS'comp_time'
p125
F1.151784896850586
sS'exec_cq'
p126
I25
sS'total_cq'
p127
I25
sa(dp128
g123
I154
sg124
F0.04299783706665039
sg125
F0.6940371990203857
sg126
I17
sg127
I17
sa(dp129
g123
I138
sg124
F0.014526844024658203
sg125
F0.24277997016906738
sg126
I15
sg127
I15
sasS'total_cqs'
p130
I25
ssI15
(dp131
S'iters'
p132
I2
sS'meta'
p133
(lp134
(dp135
S'objective'
p136
I43
sS'query_time'
p137
F60.9705548286438
sS'comp_time'
p138
F0.030534982681274414
sS'exec_cq'
p139
I13
sS'total_cq'
p140
I13
sa(dp141
g136
I2
sg137
F2.47955322265625e-05
sg138
F0.026977062225341797
sg139
I3
sg140
I3
sasS'total_cqs'
p142
I13
ssI16
(dp143
S'iters'
p144
I3
sS'meta'
p145
(lp146
(dp147
S'objective'
p148
I93
sS'query_time'
p149
F227.78720498085022
sS'comp_time'
p150
F1.2786409854888916
sS'exec_cq'
p151
I17
sS'total_cq'
p152
I17
sa(dp153
g148
I77
sg149
F0.2365272045135498
sg150
F1.6700549125671387
sg151
I15
sg152
I15
sa(dp154
g148
I11
sg149
F4.792213439941406e-05
sg150
F0.02760791778564453
sg151
I3
sg152
I3
sasS'total_cqs'
p155
I17
ssI17
(dp156
S'iters'
p157
I2
sS'meta'
p158
(lp159
(dp160
S'objective'
p161
I84
sS'query_time'
p162
F56.70071005821228
sS'comp_time'
p163
F0.023530006408691406
sS'exec_cq'
p164
I16
sS'total_cq'
p165
I16
sa(dp166
g161
I6
sg162
F2.2172927856445312e-05
sg163
F0.023576021194458008
sg164
I2
sg165
I2
sasS'total_cqs'
p167
I16
ssI18
(dp168
S'iters'
p169
I6
sS'meta'
p170
(lp171
(dp172
S'objective'
p173
I140
sS'query_time'
p174
F437.8944411277771
sS'comp_time'
p175
F5.310619115829468
sS'exec_cq'
p176
I20
sS'total_cq'
p177
I20
sa(dp178
g173
I113
sg174
F0.6032118797302246
sg175
F3.305225133895874
sg176
I17
sg177
I17
sa(dp179
g173
I86
sg174
F0.11313796043395996
sg175
F1.746000051498413
sg176
I15
sg177
I15
sa(dp180
g173
I71
sg174
F9.989738464355469e-05
sg175
F0.11243820190429688
sg176
I13
sg177
I13
sa(dp181
g173
I19
sg174
F7.295608520507812e-05
sg175
F0.15842580795288086
sg176
I11
sg177
I11
sa(dp182
g173
I3
sg174
F1.6927719116210938e-05
sg175
F0.010230779647827148
sg176
I2
sg177
I2
sasS'total_cqs'
p183
I20
ssI19
(dp184
S'iters'
p185
I6
sS'meta'
p186
(lp187
(dp188
S'objective'
p189
I3486
sS'query_time'
p190
F1354.5454590320587
sS'comp_time'
p191
F11.129737138748169
sS'exec_cq'
p192
I88
sS'total_cq'
p193
I88
sa(dp194
g189
I3435
sg190
F1.7154271602630615
sg191
F8.50033187866211
sg192
I83
sg193
I83
sa(dp195
g189
I3338
sg190
F1.4832139015197754
sg191
F7.355976819992065
sg192
I81
sg193
I81
sa(dp196
g189
I3263
sg190
F0.30327701568603516
sg191
F5.697296142578125
sg192
I79
sg193
I79
sa(dp197
g189
I3168
sg190
F0.9999599456787109
sg191
F3.8373239040374756
sg192
I77
sg193
I77
sa(dp198
g189
I81
sg190
F4.982948303222656e-05
sg191
F0.020823955535888672
sg192
I2
sg193
I2
sasS'total_cqs'
p199
I88
ssI148
(dp200
S'iters'
p201
I6
sS'meta'
p202
(lp203
(dp204
S'objective'
p205
I54724
sS'query_time'
p206
F130.4149432182312
sS'comp_time'
p207
F0.01891779899597168
sS'exec_cq'
p208
I359
sS'total_cq'
p209
I359
sa(dp210
g205
I50646
sg206
F0.0022950172424316406
sg207
F0.024398088455200195
sg208
I333
sg209
I333
sa(dp211
g205
I49263
sg206
F0.0015499591827392578
sg207
F0.004356861114501953
sg208
I308
sg209
I308
sa(dp212
g205
I49971
sg206
F0.0008528232574462891
sg207
F0.0020389556884765625
sg208
I292
sg209
I292
sa(dp213
g205
I50069
sg206
F0.0008168220520019531
sg207
F0.0016391277313232422
sg208
I288
sg209
I288
sa(dp214
g205
I49862
sg206
F0.0006999969482421875
sg207
F0.001039266586303711
sg208
I284
sg209
I284
sasS'total_cqs'
p215
I359
ssI21
(dp216
S'iters'
p217
I1
sS'meta'
p218
(lp219
(dp220
S'objective'
p221
I5
sS'query_time'
p222
F40.16554594039917
sS'comp_time'
p223
F0.005998134613037109
sS'exec_cq'
p224
I5
sS'total_cq'
p225
I5
sasS'total_cqs'
p226
I5
ssI22
(dp227
S'iters'
p228
I1
sS'meta'
p229
(lp230
(dp231
S'objective'
p232
I0
sS'query_time'
p233
F47.01767110824585
sS'comp_time'
p234
F1.1449339389801025
sS'exec_cq'
p235
I3
sS'total_cq'
p236
I3
sasS'total_cqs'
p237
I3
ssI23
(dp238
S'iters'
p239
I0
sS'meta'
p240
(lp241
sS'total_cqs'
p242
I1
ssI24
(dp243
S'iters'
p244
I1
sS'meta'
p245
(lp246
(dp247
S'objective'
p248
I0
sS'query_time'
p249
F15.850758075714111
sS'comp_time'
p250
F0.0041997432708740234
sS'exec_cq'
p251
I3
sS'total_cq'
p252
I3
sasS'total_cqs'
p253
I3
ssI25
(dp254
S'iters'
p255
I1
sS'meta'
p256
(lp257
(dp258
S'objective'
p259
I0
sS'query_time'
p260
F15.17169713973999
sS'comp_time'
p261
F0.0010688304901123047
sS'exec_cq'
p262
I3
sS'total_cq'
p263
I3
sasS'total_cqs'
p264
I3
ssI26
(dp265
S'iters'
p266
I0
sS'meta'
p267
(lp268
sS'total_cqs'
p269
I1
ssI27
(dp270
S'iters'
p271
I0
sS'meta'
p272
(lp273
sS'total_cqs'
p274
I1
ssI28
(dp275
S'iters'
p276
I0
sS'meta'
p277
(lp278
sS'total_cqs'
p279
I1
ssI29
(dp280
S'iters'
p281
I1
sS'meta'
p282
(lp283
(dp284
S'objective'
p285
I14
sS'query_time'
p286
F73.7250189781189
sS'comp_time'
p287
F0.00104522705078125
sS'exec_cq'
p288
I7
sS'total_cq'
p289
I7
sasS'total_cqs'
p290
I7
ssI30
(dp291
S'iters'
p292
I3
sS'meta'
p293
(lp294
(dp295
S'objective'
p296
I10
sS'query_time'
p297
F73.37599301338196
sS'comp_time'
p298
F0.005534172058105469
sS'exec_cq'
p299
I7
sS'total_cq'
p300
I7
sa(dp301
g296
I1
sg297
F8.320808410644531e-05
sg298
F0.1668398380279541
sg299
I5
sg300
I5
sa(dp302
g296
I4
sg297
F7.104873657226562e-05
sg298
F0.0012691020965576172
sg299
I3
sg300
I3
sasS'total_cqs'
p303
I7
ssI31
(dp304
S'iters'
p305
I2
sS'meta'
p306
(lp307
(dp308
S'objective'
p309
I27
sS'query_time'
p310
F6.458967924118042
sS'comp_time'
p311
F0.0034592151641845703
sS'exec_cq'
p312
I10
sS'total_cq'
p313
I10
sa(dp314
g309
I6
sg310
F0.0002491474151611328
sg311
F0.0023741722106933594
sg312
I2
sg313
I2
sasS'total_cqs'
p315
I10
ssI32
(dp316
S'iters'
p317
I3
sS'meta'
p318
(lp319
(dp320
S'objective'
p321
I19
sS'query_time'
p322
F4.669504880905151
sS'comp_time'
p323
F0.0236361026763916
sS'exec_cq'
p324
I10
sS'total_cq'
p325
I10
sa(dp326
g321
I13
sg322
F0.0025441646575927734
sg323
F0.0171048641204834
sg324
I7
sg325
I7
sa(dp327
g321
I8
sg322
F0.0027627944946289062
sg323
F0.01823711395263672
sg324
I2
sg325
I2
sasS'total_cqs'
p328
I10
ssI33
(dp329
S'iters'
p330
I2
sS'meta'
p331
(lp332
(dp333
S'objective'
p334
I10
sS'query_time'
p335
F3.4192938804626465
sS'comp_time'
p336
F0.007166147232055664
sS'exec_cq'
p337
I11
sS'total_cq'
p338
I11
sa(dp339
g334
I6
sg335
F0.00028014183044433594
sg336
F0.003141641616821289
sg337
I4
sg338
I4
sasS'total_cqs'
p340
I11
ssI34
(dp341
S'iters'
p342
I4
sS'meta'
p343
(lp344
(dp345
S'objective'
p346
I1661
sS'query_time'
p347
F492.0825538635254
sS'comp_time'
p348
F1.8491802215576172
sS'exec_cq'
p349
I70
sS'total_cq'
p350
I70
sa(dp351
g346
I1435
sg347
F0.004343986511230469
sg348
F3.3269338607788086
sg349
I58
sg350
I58
sa(dp352
g346
I1518
sg347
F0.00536799430847168
sg348
F0.039192914962768555
sg349
I48
sg350
I48
sa(dp353
g346
I1496
sg347
F0.002933979034423828
sg348
F0.4867129325866699
sg349
I45
sg350
I45
sasS'total_cqs'
p354
I70
ssI35
(dp355
S'iters'
p356
I5
sS'meta'
p357
(lp358
(dp359
S'objective'
p360
I1467
sS'query_time'
p361
F504.2425022125244
sS'comp_time'
p362
F5.1319499015808105
sS'exec_cq'
p363
I70
sS'total_cq'
p364
I70
sa(dp365
g360
I808
sg361
F0.9818260669708252
sg362
F2.336883068084717
sg363
I59
sg364
I59
sa(dp366
g360
I830
sg361
F0.00711512565612793
sg362
F0.06783318519592285
sg363
I43
sg364
I43
sa(dp367
g360
I771
sg361
F0.006597995758056641
sg362
F0.07358503341674805
sg363
I33
sg364
I33
sa(dp368
g360
I801
sg361
F0.007469892501831055
sg362
F0.062220096588134766
sg363
I29
sg364
I29
sasS'total_cqs'
p369
I70
ssI36
(dp370
S'iters'
p371
I2
sS'meta'
p372
(lp373
(dp374
S'objective'
p375
I13
sS'query_time'
p376
F18.865968942642212
sS'comp_time'
p377
F0.000431060791015625
sS'exec_cq'
p378
I17
sS'total_cq'
p379
I17
sa(dp380
g375
I36
sg376
F4.00543212890625e-05
sg377
F0.0001728534698486328
sg378
I5
sg379
I5
sasS'total_cqs'
p381
I17
ssI134
(dp382
S'iters'
p383
I1
sS'meta'
p384
(lp385
(dp386
S'objective'
p387
I1
sS'query_time'
p388
F20.99809694290161
sS'comp_time'
p389
F0.8535890579223633
sS'exec_cq'
p390
I2
sS'total_cq'
p391
I2
sasS'total_cqs'
p392
I2
ssI38
(dp393
S'iters'
p394
I4
sS'meta'
p395
(lp396
(dp397
S'objective'
p398
I1182
sS'query_time'
p399
F111.73478293418884
sS'comp_time'
p400
F2.0810580253601074
sS'exec_cq'
p401
I59
sS'total_cq'
p402
I59
sa(dp403
g398
I968
sg399
F0.19521498680114746
sg400
F1.5565378665924072
sg401
I49
sg402
I49
sa(dp404
g398
I680
sg399
F0.1484360694885254
sg400
F1.591958999633789
sg401
I41
sg402
I41
sa(dp405
g398
I833
sg399
F0.0019080638885498047
sg400
F0.013190031051635742
sg401
I31
sg402
I31
sasS'total_cqs'
p406
I59
ssI39
(dp407
S'iters'
p408
I4
sS'meta'
p409
(lp410
(dp411
S'objective'
p412
I2108
sS'query_time'
p413
F156.70220804214478
sS'comp_time'
p414
F0.07970595359802246
sS'exec_cq'
p415
I79
sS'total_cq'
p416
I79
sa(dp417
g412
I1330
sg413
F0.06747984886169434
sg414
F0.08681821823120117
sg415
I69
sg416
I69
sa(dp418
g412
I1172
sg413
F0.00036716461181640625
sg414
F0.0006580352783203125
sg415
I53
sg416
I53
sa(dp419
g412
I1419
sg413
F0.0001480579376220703
sg414
F0.0031518936157226562
sg415
I43
sg416
I43
sasS'total_cqs'
p420
I79
ssI40
(dp421
S'iters'
p422
I4
sS'meta'
p423
(lp424
(dp425
S'objective'
p426
I1670
sS'query_time'
p427
F150.85136198997498
sS'comp_time'
p428
F0.6964559555053711
sS'exec_cq'
p429
I83
sS'total_cq'
p430
I83
sa(dp431
g426
I1562
sg427
F0.0006630420684814453
sg428
F0.0025300979614257812
sg429
I60
sg430
I60
sa(dp432
g426
I1190
sg427
F0.000308990478515625
sg428
F0.0014362335205078125
sg429
I49
sg430
I49
sa(dp433
g426
I1464
sg427
F0.00020599365234375
sg428
F0.0013070106506347656
sg429
I37
sg430
I37
sasS'total_cqs'
p434
I83
ssI41
(dp435
S'iters'
p436
I1
sS'meta'
p437
(lp438
(dp439
S'objective'
p440
I5
sS'query_time'
p441
F40.270658016204834
sS'comp_time'
p442
F0.02784895896911621
sS'exec_cq'
p443
I5
sS'total_cq'
p444
I5
sasS'total_cqs'
p445
I5
ssI42
(dp446
S'iters'
p447
I1
sS'meta'
p448
(lp449
(dp450
S'objective'
p451
I0
sS'query_time'
p452
F63.39913988113403
sS'comp_time'
p453
F2.0020010471343994
sS'exec_cq'
p454
I3
sS'total_cq'
p455
I3
sasS'total_cqs'
p456
I3
ssI43
(dp457
S'iters'
p458
I1
sS'meta'
p459
(lp460
(dp461
S'objective'
p462
I5
sS'query_time'
p463
F1.4591450691223145
sS'comp_time'
p464
F0.08140397071838379
sS'exec_cq'
p465
I5
sS'total_cq'
p466
I5
sasS'total_cqs'
p467
I5
ssI44
(dp468
S'iters'
p469
I2
sS'meta'
p470
(lp471
(dp472
S'objective'
p473
I1
sS'query_time'
p474
F85.60030698776245
sS'comp_time'
p475
F0.024098873138427734
sS'exec_cq'
p476
I10
sS'total_cq'
p477
I10
sa(dp478
g473
I7
sg474
F3.0040740966796875e-05
sg475
F0.002880096435546875
sg476
I4
sg477
I4
sasS'total_cqs'
p479
I10
ssI45
(dp480
S'iters'
p481
I0
sS'meta'
p482
(lp483
sS'total_cqs'
p484
I1
ssI46
(dp485
S'iters'
p486
I1
sS'meta'
p487
(lp488
(dp489
S'objective'
p490
I1
sS'query_time'
p491
F0.8748881816864014
sS'comp_time'
p492
F0.1758410930633545
sS'exec_cq'
p493
I2
sS'total_cq'
p494
I2
sasS'total_cqs'
p495
I2
ssI47
(dp496
S'iters'
p497
I0
sS'meta'
p498
(lp499
sS'total_cqs'
p500
I1
ssI48
(dp501
S'iters'
p502
I0
sS'meta'
p503
(lp504
sS'total_cqs'
p505
I1
ssI49
(dp506
S'iters'
p507
I1
sS'meta'
p508
(lp509
(dp510
S'objective'
p511
I0
sS'query_time'
p512
F42.784788846969604
sS'comp_time'
p513
F14.866187810897827
sS'exec_cq'
p514
I3
sS'total_cq'
p515
I3
sasS'total_cqs'
p516
I3
ssI50
(dp517
S'iters'
p518
I2
sS'meta'
p519
(lp520
(dp521
S'objective'
p522
I34
sS'query_time'
p523
F17.0813090801239
sS'comp_time'
p524
F0.00043320655822753906
sS'exec_cq'
p525
I12
sS'total_cq'
p526
I12
sa(dp527
g522
I32
sg523
F4.601478576660156e-05
sg524
F0.0001480579376220703
sg525
I9
sg526
I9
sasS'total_cqs'
p528
I12
ssI51
(dp529
S'iters'
p530
I2
sS'meta'
p531
(lp532
(dp533
S'objective'
p534
I22
sS'query_time'
p535
F34.183603048324585
sS'comp_time'
p536
F0.022866010665893555
sS'exec_cq'
p537
I12
sS'total_cq'
p538
I12
sa(dp539
g534
I4
sg535
F4.887580871582031e-05
sg536
F0.00032401084899902344
sg537
I4
sg538
I4
sasS'total_cqs'
p540
I12
ssI52
(dp541
S'iters'
p542
I2
sS'meta'
p543
(lp544
(dp545
S'objective'
p546
I16
sS'query_time'
p547
F2.044883966445923
sS'comp_time'
p548
F0.0006380081176757812
sS'exec_cq'
p549
I12
sS'total_cq'
p550
I12
sa(dp551
g546
I7
sg547
F7.700920104980469e-05
sg548
F0.0007500648498535156
sg549
I4
sg550
I4
sasS'total_cqs'
p552
I12
ssI53
(dp553
S'iters'
p554
I1
sS'meta'
p555
(lp556
(dp557
S'objective'
p558
I0
sS'query_time'
p559
F80.0199818611145
sS'comp_time'
p560
F0.027425289154052734
sS'exec_cq'
p561
I3
sS'total_cq'
p562
I3
sasS'total_cqs'
p563
I3
ssI54
(dp564
S'iters'
p565
I1
sS'meta'
p566
(lp567
(dp568
S'objective'
p569
I5
sS'query_time'
p570
F73.72158885002136
sS'comp_time'
p571
F0.037903785705566406
sS'exec_cq'
p572
I5
sS'total_cq'
p573
I5
sasS'total_cqs'
p574
I5
ssI55
(dp575
S'iters'
p576
I2
sS'meta'
p577
(lp578
(dp579
S'objective'
p580
I19
sS'query_time'
p581
F191.48921084403992
sS'comp_time'
p582
F0.03289794921875
sS'exec_cq'
p583
I10
sS'total_cq'
p584
I10
sa(dp585
g580
I2
sg581
F0.003720998764038086
sg582
F0.16189289093017578
sg583
I2
sg584
I2
sasS'total_cqs'
p586
I10
ssI56
(dp587
S'iters'
p588
I3
sS'meta'
p589
(lp590
(dp591
S'objective'
p592
I7
sS'query_time'
p593
F32.50065612792969
sS'comp_time'
p594
F1.386263132095337
sS'exec_cq'
p595
I6
sS'total_cq'
p596
I6
sa(dp597
g592
I0
sg593
F0.1728370189666748
sg594
F0.47195005416870117
sg595
I4
sg596
I4
sa(dp598
g592
I5
sg593
F0.0036780834197998047
sg594
F0.028815031051635742
sg595
I2
sg596
I2
sasS'total_cqs'
p599
I6
ssI57
(dp600
S'iters'
p601
I2
sS'meta'
p602
(lp603
(dp604
S'objective'
p605
I262
sS'query_time'
p606
F13.61216402053833
sS'comp_time'
p607
F0.5390357971191406
sS'exec_cq'
p608
I27
sS'total_cq'
p609
I27
sa(dp610
g605
I266
sg606
F0.018229007720947266
sg607
F0.1608428955078125
sg608
I23
sg609
I23
sasS'total_cqs'
p611
I27
ssI58
(dp612
S'iters'
p613
I2
sS'meta'
p614
(lp615
(dp616
S'objective'
p617
I1
sS'query_time'
p618
F47.34949779510498
sS'comp_time'
p619
F0.42785096168518066
sS'exec_cq'
p620
I10
sS'total_cq'
p621
I10
sa(dp622
g617
I8
sg618
F0.16308093070983887
sg619
F0.3458859920501709
sg620
I4
sg621
I4
sasS'total_cqs'
p623
I10
ssI59
(dp624
S'iters'
p625
I5
sS'meta'
p626
(lp627
(dp628
S'objective'
p629
I718
sS'query_time'
p630
F307.59563302993774
sS'comp_time'
p631
F9.018114805221558
sS'exec_cq'
p632
I59
sS'total_cq'
p633
I59
sa(dp634
g629
I732
sg630
F1.2290089130401611
sg631
F5.556450843811035
sg632
I41
sg633
I41
sa(dp635
g629
I426
sg630
F0.3228940963745117
sg631
F5.193115949630737
sg632
I33
sg633
I33
sa(dp636
g629
I583
sg630
F0.8272380828857422
sg631
F3.1911771297454834
sg632
I24
sg633
I24
sa(dp637
g629
I527
sg630
F0.17948102951049805
sg631
F3.1731579303741455
sg632
I22
sg633
I22
sasS'total_cqs'
p638
I59
ssI60
(dp639
S'iters'
p640
I2
sS'meta'
p641
(lp642
(dp643
S'objective'
p644
I60
sS'query_time'
p645
F41.50674796104431
sS'comp_time'
p646
F0.3447999954223633
sS'exec_cq'
p647
I15
sS'total_cq'
p648
I15
sa(dp649
g644
I0
sg645
F6.699562072753906e-05
sg646
F0.0004940032958984375
sg647
I3
sg648
I3
sasS'total_cqs'
p650
I15
ssI61
(dp651
S'iters'
p652
I2
sS'meta'
p653
(lp654
(dp655
S'objective'
p656
I37
sS'query_time'
p657
F39.18088102340698
sS'comp_time'
p658
F0.049015045166015625
sS'exec_cq'
p659
I17
sS'total_cq'
p660
I17
sa(dp661
g656
I24
sg657
F5.7220458984375e-05
sg658
F0.0002868175506591797
sg659
I6
sg660
I6
sasS'total_cqs'
p662
I17
ssI62
(dp663
S'iters'
p664
I6
sS'meta'
p665
(lp666
(dp667
S'objective'
p668
I6955
sS'query_time'
p669
F717.3197300434113
sS'comp_time'
p670
F2.07704496383667
sS'exec_cq'
p671
I158
sS'total_cq'
p672
I158
sa(dp673
g668
I6586
sg669
F0.0030791759490966797
sg670
F0.014809846878051758
sg671
I124
sg672
I124
sa(dp674
g668
I5142
sg669
F0.0022089481353759766
sg670
F0.020670175552368164
sg671
I104
sg672
I104
sa(dp675
g668
I6217
sg669
F0.0006289482116699219
sg670
F0.0069620609283447266
sg671
I80
sg672
I80
sa(dp676
g668
I5999
sg669
F0.0003719329833984375
sg670
F0.004366159439086914
sg671
I78
sg672
I78
sa(dp677
g668
I5902
sg669
F0.0004119873046875
sg670
F0.004469871520996094
sg671
I76
sg672
I76
sasS'total_cqs'
p678
I158
ssI63
(dp679
S'iters'
p680
I6
sS'meta'
p681
(lp682
(dp683
S'objective'
p684
I1947
sS'query_time'
p685
F269.27627205848694
sS'comp_time'
p686
F0.06830096244812012
sS'exec_cq'
p687
I77
sS'total_cq'
p688
I77
sa(dp689
g684
I1643
sg685
F0.03293013572692871
sg686
F0.057611942291259766
sg687
I67
sg688
I67
sa(dp690
g684
I1277
sg685
F0.032462120056152344
sg686
F6.73141622543335
sg687
I57
sg688
I57
sa(dp691
g684
I1350
sg685
F0.0010318756103515625
sg686
F0.6770541667938232
sg687
I46
sg688
I46
sa(dp692
g684
I1307
sg685
F0.0004749298095703125
sg686
F3.469135046005249
sg687
I43
sg688
I43
sa(dp693
g684
I1254
sg685
F0.0004241466522216797
sg686
F0.0018570423126220703
sg687
I41
sg688
I41
sasS'total_cqs'
p694
I77
ssI64
(dp695
S'iters'
p696
I10
sS'meta'
p697
(lp698
(dp699
S'objective'
p700
I8046
sS'query_time'
p701
F965.0450098514557
sS'comp_time'
p702
F9.185762882232666
sS'exec_cq'
p703
I135
sS'total_cq'
p704
I135
sa(dp705
g700
I8173
sg701
F0.39432382583618164
sg702
F5.218004941940308
sg703
I129
sg704
I129
sa(dp706
g700
I7963
sg701
F1.072977066040039
sg702
F4.124794006347656
sg703
I127
sg704
I127
sa(dp707
g700
I7792
sg701
F0.049880027770996094
sg702
F1.175920009613037
sg703
I124
sg704
I124
sa(dp708
g700
I7617
sg701
F0.05446004867553711
sg702
F0.9665489196777344
sg703
I122
sg704
I122
sa(dp709
g700
I7441
sg701
F0.5162959098815918
sg702
F1.2686810493469238
sg703
I120
sg704
I120
sa(dp710
g700
I7153
sg701
F0.07148003578186035
sg702
F1.0204110145568848
sg703
I118
sg704
I118
sa(dp711
g700
I7057
sg701
F0.04703092575073242
sg702
F0.9168877601623535
sg703
I115
sg704
I115
sa(dp712
g700
I6942
sg701
F0.04862213134765625
sg702
F0.9017829895019531
sg703
I113
sg704
I113
sa(dp713
g700
I6812
sg701
F0.04908418655395508
sg702
F0.9076311588287354
sg703
I111
sg704
I111
sasS'total_cqs'
p714
I135
ssI65
(dp715
S'iters'
p716
I2
sS'meta'
p717
(lp718
(dp719
S'objective'
p720
I295
sS'query_time'
p721
F259.3697781562805
sS'comp_time'
p722
F0.03969573974609375
sS'exec_cq'
p723
I26
sS'total_cq'
p724
I26
sa(dp725
g720
I271
sg721
F0.00043010711669921875
sg722
F0.010323047637939453
sg723
I24
sg724
I24
sasS'total_cqs'
p726
I26
ssI66
(dp727
S'iters'
p728
I3
sS'meta'
p729
(lp730
(dp731
S'objective'
p732
I233
sS'query_time'
p733
F182.41548609733582
sS'comp_time'
p734
F0.1936018466949463
sS'exec_cq'
p735
I25
sS'total_cq'
p736
I25
sa(dp737
g732
I181
sg733
F0.007612943649291992
sg734
F0.14692306518554688
sg735
I23
sg736
I23
sa(dp738
g732
I180
sg733
F0.10643410682678223
sg734
F0.06743693351745605
sg735
I19
sg736
I19
sasS'total_cqs'
p739
I25
ssI67
(dp740
S'iters'
p741
I2
sS'meta'
p742
(lp743
(dp744
S'objective'
p745
I267
sS'query_time'
p746
F2.9557042121887207
sS'comp_time'
p747
F0.36785221099853516
sS'exec_cq'
p748
I25
sS'total_cq'
p749
I25
sa(dp750
g745
I246
sg746
F0.023473024368286133
sg747
F0.3482539653778076
sg748
I23
sg749
I23
sasS'total_cqs'
p751
I25
ssI68
(dp752
S'iters'
p753
I5
sS'meta'
p754
(lp755
(dp756
S'objective'
p757
I1745
sS'query_time'
p758
F25.43761706352234
sS'comp_time'
p759
F0.005768775939941406
sS'exec_cq'
p760
I73
sS'total_cq'
p761
I73
sa(dp762
g757
I1383
sg758
F0.0006151199340820312
sg759
F0.0034780502319335938
sg760
I63
sg761
I63
sa(dp763
g757
I1003
sg758
F0.0004448890686035156
sg759
F0.0028989315032958984
sg760
I53
sg761
I53
sa(dp764
g757
I697
sg758
F0.00031304359436035156
sg759
F0.002886056900024414
sg760
I42
sg761
I42
sa(dp765
g757
I904
sg758
F0.00030517578125
sg759
F0.003823995590209961
sg760
I32
sg761
I32
sasS'total_cqs'
p766
I73
ssI69
(dp767
S'iters'
p768
I5
sS'meta'
p769
(lp770
(dp771
S'objective'
p772
I1854
sS'query_time'
p773
F39.5641131401062
sS'comp_time'
p774
F0.015146255493164062
sS'exec_cq'
p775
I72
sS'total_cq'
p776
I72
sa(dp777
g772
I1481
sg773
F0.0011401176452636719
sg774
F0.01137089729309082
sg775
I60
sg776
I60
sa(dp778
g772
I1149
sg773
F0.0008080005645751953
sg774
F0.004240989685058594
sg775
I48
sg776
I48
sa(dp779
g772
I795
sg773
F0.00067901611328125
sg774
F0.0032279491424560547
sg775
I38
sg776
I38
sa(dp780
g772
I1006
sg773
F0.0001888275146484375
sg774
F0.0010368824005126953
sg775
I27
sg776
I27
sasS'total_cqs'
p781
I72
ssI70
(dp782
S'iters'
p783
I6
sS'meta'
p784
(lp785
(dp786
S'objective'
p787
I5541
sS'query_time'
p788
F922.0043618679047
sS'comp_time'
p789
F4.399433851242065
sS'exec_cq'
p790
I109
sS'total_cq'
p791
I109
sa(dp792
g787
I5382
sg788
F0.758552074432373
sg789
F6.670531988143921
sg790
I105
sg791
I105
sa(dp793
g787
I5217
sg788
F0.1263291835784912
sg789
F2.2675368785858154
sg790
I102
sg791
I102
sa(dp794
g787
I5132
sg788
F0.6774849891662598
sg789
F3.862990140914917
sg790
I100
sg791
I100
sa(dp795
g787
I5042
sg788
F0.5526101589202881
sg789
F2.48817777633667
sg790
I97
sg791
I97
sa(dp796
g787
I4935
sg788
F0.12645912170410156
sg789
F4.728219985961914
sg790
I95
sg791
I95
sasS'total_cqs'
p797
I109
ssI71
(dp798
S'iters'
p799
I20
sS'meta'
p800
(lp801
(dp802
S'objective'
p803
I157364
sS'query_time'
p804
F1157.681272983551
sS'comp_time'
p805
F37.92412090301514
sS'exec_cq'
p806
I568
sS'total_cq'
p807
I568
sa(dp808
g803
I155864
sg804
F10.934170961380005
sg805
F28.76523208618164
sg806
I560
sg807
I560
sa(dp809
g803
I155272
sg804
F10.64115595817566
sg805
F28.447838068008423
sg806
I554
sg807
I554
sa(dp810
g803
I154154
sg804
F9.71378493309021
sg805
F32.784400939941406
sg806
I551
sg807
I551
sa(dp811
g803
I153033
sg804
F3.145134925842285
sg805
F33.20216488838196
sg806
I547
sg807
I547
sa(dp812
g803
I152045
sg804
F2.504227876663208
sg805
F29.78389286994934
sg806
I542
sg807
I542
sa(dp813
g803
I151133
sg804
F5.993555068969727
sg805
F21.811681985855103
sg806
I540
sg807
I540
sa(dp814
g803
I150323
sg804
F2.314530849456787
sg805
F21.899463176727295
sg806
I538
sg807
I538
sa(dp815
g803
I149456
sg804
F5.552187919616699
sg805
F20.65929627418518
sg806
I536
sg807
I536
sa(dp816
g803
I148633
sg804
F5.600014925003052
sg805
F16.406172037124634
sg806
I534
sg807
I534
sa(dp817
g803
I147872
sg804
F4.437865972518921
sg805
F12.694231986999512
sg806
I532
sg807
I532
sa(dp818
g803
I147097
sg804
F4.196377992630005
sg805
F12.742176055908203
sg806
I530
sg807
I530
sa(dp819
g803
I146322
sg804
F1.1998069286346436
sg805
F13.339408159255981
sg806
I528
sg807
I528
sa(dp820
g803
I145617
sg804
F4.244988918304443
sg805
F13.02360486984253
sg806
I526
sg807
I526
sa(dp821
g803
I144873
sg804
F1.2087640762329102
sg805
F13.287712097167969
sg806
I524
sg807
I524
sa(dp822
g803
I144259
sg804
F3.8422799110412598
sg805
F7.046931743621826
sg806
I522
sg807
I522
sa(dp823
g803
I143606
sg804
F3.5872960090637207
sg805
F7.336099624633789
sg806
I520
sg807
I520
sa(dp824
g803
I143082
sg804
F3.7707839012145996
sg805
F7.364588975906372
sg806
I518
sg807
I518
sa(dp825
g803
I142489
sg804
F3.6505329608917236
sg805
F7.390803098678589
sg806
I516
sg807
I516
sa(dp826
g803
I141947
sg804
F3.607717990875244
sg805
F7.065261125564575
sg806
I514
sg807
I514
sasS'total_cqs'
p827
I568
ssI72
(dp828
S'iters'
p829
I3
sS'meta'
p830
(lp831
(dp832
S'objective'
p833
I7579
sS'query_time'
p834
F1166.6426680088043
sS'comp_time'
p835
F0.08723092079162598
sS'exec_cq'
p836
I125
sS'total_cq'
p837
I125
sa(dp838
g833
I7439
sg834
F0.004617929458618164
sg835
F0.09906697273254395
sg836
I123
sg837
I123
sa(dp839
g833
I7333
sg834
F0.00439000129699707
sg835
F0.09401822090148926
sg836
I121
sg837
I121
sasS'total_cqs'
p840
I125
ssI73
(dp841
S'iters'
p842
I4
sS'meta'
p843
(lp844
(dp845
S'objective'
p846
I7465
sS'query_time'
p847
F924.8406069278717
sS'comp_time'
p848
F0.9599759578704834
sS'exec_cq'
p849
I125
sS'total_cq'
p850
I125
sa(dp851
g846
I7320
sg847
F0.02868199348449707
sg848
F0.41279101371765137
sg849
I123
sg850
I123
sa(dp852
g846
I7225
sg847
F0.02094292640686035
sg848
F1.607956886291504
sg849
I121
sg850
I121
sa(dp853
g846
I7110
sg847
F0.5426158905029297
sg848
F0.22600293159484863
sg849
I119
sg850
I119
sasS'total_cqs'
p854
I125
ssI138
(dp855
S'iters'
p856
I3
sS'meta'
p857
(lp858
(dp859
S'objective'
p860
I1004
sS'query_time'
p861
F1.8242511749267578
sS'comp_time'
p862
F0.0011570453643798828
sS'exec_cq'
p863
I75
sS'total_cq'
p864
I75
sa(dp865
g860
I1687
sg861
F0.00028395652770996094
sg862
F0.0007259845733642578
sg863
I55
sg864
I55
sa(dp866
g860
I1657
sg861
F0.00018286705017089844
sg862
F0.0001480579376220703
sg863
I52
sg864
I52
sasS'total_cqs'
p867
I75
ssI141
(dp868
S'iters'
p869
I9
sS'meta'
p870
(lp871
(dp872
S'objective'
p873
I55928
sS'query_time'
p874
F490.66335916519165
sS'comp_time'
p875
F0.9443459510803223
sS'exec_cq'
p876
I383
sS'total_cq'
p877
I383
sa(dp878
g873
I52186
sg874
F0.010225057601928711
sg875
F0.11575603485107422
sg876
I337
sg877
I337
sa(dp879
g873
I49703
sg874
F0.006581783294677734
sg875
F3.282655715942383
sg876
I308
sg877
I308
sa(dp880
g873
I50515
sg874
F0.005372047424316406
sg875
F0.053488969802856445
sg876
I284
sg877
I284
sa(dp881
g873
I49054
sg874
F0.0050830841064453125
sg875
F0.026677846908569336
sg876
I275
sg877
I275
sa(dp882
g873
I47438
sg874
F0.004397869110107422
sg875
F0.022615909576416016
sg876
I267
sg877
I267
sa(dp883
g873
I46821
sg874
F0.004662990570068359
sg875
F0.012516021728515625
sg876
I260
sg877
I260
sa(dp884
g873
I46809
sg874
F0.0006530284881591797
sg875
F0.0009801387786865234
sg876
I254
sg877
I254
sa(dp885
g873
I46608
sg874
F0.0005850791931152344
sg875
F0.000530242919921875
sg876
I250
sg877
I250
sasS'total_cqs'
p886
I383
ssI139
(dp887
S'iters'
p888
I7
sS'meta'
p889
(lp890
(dp891
S'objective'
p892
I80235
sS'query_time'
p893
F113.90582990646362
sS'comp_time'
p894
F6.74859881401062
sS'exec_cq'
p895
I425
sS'total_cq'
p896
I425
sa(dp897
g892
I76314
sg893
F0.4928879737854004
sg894
F2.6295650005340576
sg895
I398
sg896
I398
sa(dp898
g892
I71487
sg893
F4.168246030807495
sg894
F2.6709423065185547
sg895
I379
sg896
I379
sa(dp899
g892
I73871
sg893
F0.33126306533813477
sg894
F5.929119825363159
sg895
I355
sg896
I355
sa(dp900
g892
I72667
sg893
F0.33763813972473145
sg894
F5.9757091999053955
sg895
I351
sg896
I351
sa(dp901
g892
I72621
sg893
F0.0011591911315917969
sg894
F0.0013971328735351562
sg895
I345
sg896
I345
sa(dp902
g892
I72382
sg893
F0.0008380413055419922
sg894
F0.0007598400115966797
sg895
I342
sg896
I342
sasS'total_cqs'
p903
I425
ssI142
(dp904
S'iters'
p905
I1
sS'meta'
p906
(lp907
(dp908
S'objective'
p909
I0
sS'query_time'
p910
F58.93267488479614
sS'comp_time'
p911
F0.020359039306640625
sS'exec_cq'
p912
I3
sS'total_cq'
p913
I3
sasS'total_cqs'
p914
I3
ssI135
(dp915
S'iters'
p916
I2
sS'meta'
p917
(lp918
(dp919
S'objective'
p920
I4
sS'query_time'
p921
F50.376272201538086
sS'comp_time'
p922
F1.62764310836792
sS'exec_cq'
p923
I7
sS'total_cq'
p924
I7
sa(dp925
g920
I2
sg921
F0.363051176071167
sg922
F1.5251140594482422
sg923
I2
sg924
I2
sasS'total_cqs'
p926
I7
ssI37
(dp927
S'iters'
p928
I2
sS'meta'
p929
(lp930
(dp931
S'objective'
p932
I80
sS'query_time'
p933
F20.943420886993408
sS'comp_time'
p934
F0.0007030963897705078
sS'exec_cq'
p935
I16
sS'total_cq'
p936
I16
sa(dp937
g932
I4
sg933
F4.220008850097656e-05
sg934
F0.00032210350036621094
sg935
I3
sg936
I3
sasS'total_cqs'
p938
I16
ssI133
(dp939
S'iters'
p940
I1
sS'meta'
p941
(lp942
(dp943
S'objective'
p944
I1
sS'query_time'
p945
F21.84020495414734
sS'comp_time'
p946
F0.005292177200317383
sS'exec_cq'
p947
I2
sS'total_cq'
p948
I2
sasS'total_cqs'
p949
I2
ssI140
(dp950
S'iters'
p951
I0
sS'meta'
p952
(lp953
sS'total_cqs'
p954
I1
ssI137
(dp955
S'iters'
p956
I7
sS'meta'
p957
(lp958
(dp959
S'objective'
p960
I69612
sS'query_time'
p961
F305.0935118198395
sS'comp_time'
p962
F0.5385401248931885
sS'exec_cq'
p963
I400
sS'total_cq'
p964
I400
sa(dp965
g960
I65968
sg961
F0.16005206108093262
sg962
F0.43905186653137207
sg963
I377
sg964
I377
sa(dp966
g960
I59623
sg961
F0.1296539306640625
sg962
F0.4725828170776367
sg963
I356
sg964
I356
sa(dp967
g960
I61820
sg961
F0.03319597244262695
sg962
F0.13936424255371094
sg963
I328
sg964
I328
sa(dp968
g960
I61785
sg961
F0.0011479854583740234
sg962
F0.002031087875366211
sg963
I322
sg964
I322
sa(dp969
g960
I61091
sg961
F0.0007550716400146484
sg962
F0.0017151832580566406
sg963
I318
sg964
I318
sa(dp970
g960
I61048
sg961
F0.000743865966796875
sg962
F0.0012199878692626953
sg963
I315
sg964
I315
sasS'total_cqs'
p971
I400
ssI136
(dp972
S'iters'
p973
I3
sS'meta'
p974
(lp975
(dp976
S'objective'
p977
I273
sS'query_time'
p978
F22.733914852142334
sS'comp_time'
p979
F0.001055002212524414
sS'exec_cq'
p980
I57
sS'total_cq'
p981
I57
sa(dp982
g977
I773
sg978
F0.00016188621520996094
sg979
F0.00044083595275878906
sg980
I35
sg981
I35
sa(dp983
g977
I754
sg978
F0.00011610984802246094
sg979
F0.0002999305725097656
sg980
I32
sg981
I32
sasS'total_cqs'
p984
I57
ss.