(dp0
I1
(dp1
S'iters'
p2
I1
sS'meta'
p3
(lp4
(dp5
S'objective'
p6
I2
sS'query_time'
p7
F0.00969386100769043
sS'comp_time'
p8
F0.00013208389282226562
sS'exec_cq'
p9
I1
sS'total_cq'
p10
I4
sasS'total_cqs'
p11
I4
ssI2
(dp12
S'iters'
p13
I1
sS'meta'
p14
(lp15
(dp16
S'objective'
p17
I2
sS'query_time'
p18
F0.007822036743164062
sS'comp_time'
p19
F8.0108642578125e-05
sS'exec_cq'
p20
I1
sS'total_cq'
p21
I4
sasS'total_cqs'
p22
I4
ssI3
(dp23
S'iters'
p24
I0
sS'meta'
p25
(lp26
sS'total_cqs'
p27
I1
ssI4
(dp28
S'iters'
p29
I0
sS'meta'
p30
(lp31
sS'total_cqs'
p32
I1
ssI5
(dp33
S'iters'
p34
I9
sS'meta'
p35
(lp36
(dp37
S'objective'
p38
I1381
sS'query_time'
p39
F21.5366690158844
sS'comp_time'
p40
F0.00010704994201660156
sS'exec_cq'
p41
I2
sS'total_cq'
p42
I54
sa(dp43
g38
I1335
sg39
F0.6244370937347412
sg40
F0.00010991096496582031
sg41
I2
sg42
I53
sa(dp44
g38
I848
sg39
F1.4317758083343506
sg40
F0.00012803077697753906
sg41
I2
sg42
I52
sa(dp45
g38
I1028
sg39
F0.043112993240356445
sg40
F9.274482727050781e-05
sg41
I2
sg42
I43
sa(dp46
g38
I994
sg39
F28.92331600189209
sg40
F0.00030493736267089844
sg41
I3
sg42
I42
sa(dp47
g38
I975
sg39
F0.0212860107421875
sg40
F8.0108642578125e-05
sg41
I5
sg42
I41
sa(dp48
g38
I970
sg39
F0.05516195297241211
sg40
F0.00012087821960449219
sg41
I8
sg42
I40
sa(dp49
g38
I803
sg39
F2.96193790435791
sg40
F0.00040602684020996094
sg41
I8
sg42
I39
sa(dp50
g38
I787
sg39
F0.015254020690917969
sg40
F8.296966552734375e-05
sg41
I9
sg42
I33
sasS'total_cqs'
p51
I54
ssI6
(dp52
S'iters'
p53
I1
sS'meta'
p54
(lp55
(dp56
S'objective'
p57
I2
sS'query_time'
p58
F0.00763392448425293
sS'comp_time'
p59
F7.200241088867188e-05
sS'exec_cq'
p60
I1
sS'total_cq'
p61
I4
sasS'total_cqs'
p62
I4
ssI7
(dp63
S'iters'
p64
I0
sS'meta'
p65
(lp66
sS'total_cqs'
p67
I1
ssI8
(dp68
S'iters'
p69
I0
sS'meta'
p70
(lp71
sS'total_cqs'
p72
I1
ssI9
(dp73
S'iters'
p74
I1
sS'meta'
p75
(lp76
(dp77
S'objective'
p78
I0
sS'query_time'
p79
F0.14635801315307617
sS'comp_time'
p80
F7.987022399902344e-05
sS'exec_cq'
p81
I1
sS'total_cq'
p82
I3
sasS'total_cqs'
p83
I3
ssI10
(dp84
S'iters'
p85
I1
sS'meta'
p86
(lp87
(dp88
S'objective'
p89
I2
sS'query_time'
p90
F0.00804901123046875
sS'comp_time'
p91
F6.4849853515625e-05
sS'exec_cq'
p92
I1
sS'total_cq'
p93
I4
sasS'total_cqs'
p94
I4
ssI11
(dp95
S'iters'
p96
I1
sS'meta'
p97
(lp98
(dp99
S'objective'
p100
I14
sS'query_time'
p101
F0.002062082290649414
sS'comp_time'
p102
F6.008148193359375e-05
sS'exec_cq'
p103
I1
sS'total_cq'
p104
I7
sasS'total_cqs'
p105
I7
ssI12
(dp106
S'iters'
p107
I1
sS'meta'
p108
(lp109
(dp110
S'objective'
p111
I14
sS'query_time'
p112
F0.049822092056274414
sS'comp_time'
p113
F7.390975952148438e-05
sS'exec_cq'
p114
I1
sS'total_cq'
p115
I7
sasS'total_cqs'
p116
I7
ssI13
(dp117
S'iters'
p118
I0
sS'meta'
p119
(lp120
sS'total_cqs'
p121
I1
ssI14
(dp122
S'iters'
p123
I1
sS'meta'
p124
(lp125
(dp126
S'objective'
p127
I275
sS'query_time'
p128
F1.1397578716278076
sS'comp_time'
p129
F0.00012803077697753906
sS'exec_cq'
p130
I1
sS'total_cq'
p131
I25
sasS'total_cqs'
p132
I25
ssI15
(dp133
S'iters'
p134
I2
sS'meta'
p135
(lp136
(dp137
S'objective'
p138
I57
sS'query_time'
p139
F20.900200128555298
sS'comp_time'
p140
F9.489059448242188e-05
sS'exec_cq'
p141
I5
sS'total_cq'
p142
I13
sa(dp143
g138
I48
sg139
F0.1865079402923584
sg140
F0.00010418891906738281
sg141
I6
sg142
I9
sasS'total_cqs'
p144
I13
ssI16
(dp145
S'iters'
p146
I3
sS'meta'
p147
(lp148
(dp149
S'objective'
p150
I101
sS'query_time'
p151
F25.158740997314453
sS'comp_time'
p152
F0.00011873245239257812
sS'exec_cq'
p153
I2
sS'total_cq'
p154
I17
sa(dp155
g150
I85
sg151
F20.20594096183777
sg152
F0.00010085105895996094
sg153
I5
sg154
I15
sa(dp156
g150
I13
sg151
F0.1637258529663086
sg152
F7.009506225585938e-05
sg153
I1
sg154
I3
sasS'total_cqs'
p157
I17
ssI17
(dp158
S'iters'
p159
I2
sS'meta'
p160
(lp161
(dp162
S'objective'
p163
I98
sS'query_time'
p164
F22.10672688484192
sS'comp_time'
p165
F9.512901306152344e-05
sS'exec_cq'
p166
I14
sS'total_cq'
p167
I16
sa(dp168
g163
I13
sg164
F0.4455239772796631
sg165
F7.104873657226562e-05
sg166
I1
sg167
I2
sasS'total_cqs'
p169
I16
ssI18
(dp170
S'iters'
p171
I4
sS'meta'
p172
(lp173
(dp174
S'objective'
p175
I168
sS'query_time'
p176
F22.61874508857727
sS'comp_time'
p177
F9.393692016601562e-05
sS'exec_cq'
p178
I2
sS'total_cq'
p179
I20
sa(dp180
g175
I181
sg176
F2.559046983718872
sg177
F0.00010514259338378906
sg178
I2
sg179
I18
sa(dp181
g175
I135
sg176
F2.2592878341674805
sg177
F0.00010418891906738281
sg178
I1
sg179
I17
sa(dp182
g175
I15
sg176
F0.07951998710632324
sg177
F8.225440979003906e-05
sg178
I1
sg179
I2
sasS'total_cqs'
p183
I20
ssI19
(dp184
S'iters'
p185
I4
sS'meta'
p186
(lp187
(dp188
S'objective'
p189
I3790
sS'query_time'
p190
F40.24847197532654
sS'comp_time'
p191
F0.0001220703125
sS'exec_cq'
p192
I7
sS'total_cq'
p193
I88
sa(dp194
g189
I3787
sg190
F2.001444101333618
sg191
F0.00016617774963378906
sg192
I9
sg193
I86
sa(dp195
g189
I3596
sg190
F1.3953979015350342
sg191
F0.000164031982421875
sg192
I13
sg193
I85
sa(dp196
g189
I64
sg190
F0.08010101318359375
sg191
F0.00013899803161621094
sg192
I1
sg193
I2
sasS'total_cqs'
p197
I88
ssI134
(dp198
S'iters'
p199
I1
sS'meta'
p200
(lp201
(dp202
S'objective'
p203
I1
sS'query_time'
p204
F20.630486965179443
sS'comp_time'
p205
F0.00010800361633300781
sS'exec_cq'
p206
I2
sS'total_cq'
p207
I2
sasS'total_cqs'
p208
I2
ssI21
(dp209
S'iters'
p210
I1
sS'meta'
p211
(lp212
(dp213
S'objective'
p214
I5
sS'query_time'
p215
F0.008582115173339844
sS'comp_time'
p216
F8.296966552734375e-05
sS'exec_cq'
p217
I1
sS'total_cq'
p218
I5
sasS'total_cqs'
p219
I5
ssI22
(dp220
S'iters'
p221
I1
sS'meta'
p222
(lp223
(dp224
S'objective'
p225
I0
sS'query_time'
p226
F24.61841106414795
sS'comp_time'
p227
F0.0002880096435546875
sS'exec_cq'
p228
I2
sS'total_cq'
p229
I3
sasS'total_cqs'
p230
I3
ssI23
(dp231
S'iters'
p232
I0
sS'meta'
p233
(lp234
sS'total_cqs'
p235
I1
ssI24
(dp236
S'iters'
p237
I1
sS'meta'
p238
(lp239
(dp240
S'objective'
p241
I0
sS'query_time'
p242
F0.07669615745544434
sS'comp_time'
p243
F0.0001049041748046875
sS'exec_cq'
p244
I1
sS'total_cq'
p245
I3
sasS'total_cqs'
p246
I3
ssI25
(dp247
S'iters'
p248
I1
sS'meta'
p249
(lp250
(dp251
S'objective'
p252
I0
sS'query_time'
p253
F0.3023991584777832
sS'comp_time'
p254
F8.511543273925781e-05
sS'exec_cq'
p255
I1
sS'total_cq'
p256
I3
sasS'total_cqs'
p257
I3
ssI26
(dp258
S'iters'
p259
I0
sS'meta'
p260
(lp261
sS'total_cqs'
p262
I1
ssI27
(dp263
S'iters'
p264
I0
sS'meta'
p265
(lp266
sS'total_cqs'
p267
I1
ssI28
(dp268
S'iters'
p269
I0
sS'meta'
p270
(lp271
sS'total_cqs'
p272
I1
ssI29
(dp273
S'iters'
p274
I1
sS'meta'
p275
(lp276
(dp277
S'objective'
p278
I14
sS'query_time'
p279
F0.0021800994873046875
sS'comp_time'
p280
F5.698204040527344e-05
sS'exec_cq'
p281
I1
sS'total_cq'
p282
I7
sasS'total_cqs'
p283
I7
ssI30
(dp284
S'iters'
p285
I1
sS'meta'
p286
(lp287
(dp288
S'objective'
p289
I14
sS'query_time'
p290
F0.038186073303222656
sS'comp_time'
p291
F7.390975952148438e-05
sS'exec_cq'
p292
I1
sS'total_cq'
p293
I7
sasS'total_cqs'
p294
I7
ssI31
(dp295
S'iters'
p296
I1
sS'meta'
p297
(lp298
(dp299
S'objective'
p300
I35
sS'query_time'
p301
F0.023953914642333984
sS'comp_time'
p302
F8.106231689453125e-05
sS'exec_cq'
p303
I1
sS'total_cq'
p304
I10
sasS'total_cqs'
p305
I10
ssI32
(dp306
S'iters'
p307
I1
sS'meta'
p308
(lp309
(dp310
S'objective'
p311
I35
sS'query_time'
p312
F0.1857471466064453
sS'comp_time'
p313
F7.510185241699219e-05
sS'exec_cq'
p314
I1
sS'total_cq'
p315
I10
sasS'total_cqs'
p316
I10
ssI33
(dp317
S'iters'
p318
I1
sS'meta'
p319
(lp320
(dp321
S'objective'
p322
I44
sS'query_time'
p323
F0.0426177978515625
sS'comp_time'
p324
F7.081031799316406e-05
sS'exec_cq'
p325
I1
sS'total_cq'
p326
I11
sasS'total_cqs'
p327
I11
ssI34
(dp328
S'iters'
p329
I1
sS'meta'
p330
(lp331
(dp332
S'objective'
p333
I2345
sS'query_time'
p334
F0.05201292037963867
sS'comp_time'
p335
F0.00014781951904296875
sS'exec_cq'
p336
I1
sS'total_cq'
p337
I70
sasS'total_cqs'
p338
I70
ssI35
(dp339
S'iters'
p340
I1
sS'meta'
p341
(lp342
(dp343
S'objective'
p344
I2345
sS'query_time'
p345
F0.11963009834289551
sS'comp_time'
p346
F0.00013589859008789062
sS'exec_cq'
p347
I1
sS'total_cq'
p348
I70
sasS'total_cqs'
p349
I70
ssI36
(dp350
S'iters'
p351
I1
sS'meta'
p352
(lp353
(dp354
S'objective'
p355
I119
sS'query_time'
p356
F0.014779090881347656
sS'comp_time'
p357
F9.107589721679688e-05
sS'exec_cq'
p358
I1
sS'total_cq'
p359
I17
sasS'total_cqs'
p360
I17
ssI37
(dp361
S'iters'
p362
I1
sS'meta'
p363
(lp364
(dp365
S'objective'
p366
I104
sS'query_time'
p367
F0.01220703125
sS'comp_time'
p368
F9.918212890625e-05
sS'exec_cq'
p369
I1
sS'total_cq'
p370
I16
sasS'total_cqs'
p371
I16
ssI38
(dp372
S'iters'
p373
I1
sS'meta'
p374
(lp375
(dp376
S'objective'
p377
I1652
sS'query_time'
p378
F0.025107145309448242
sS'comp_time'
p379
F8.893013000488281e-05
sS'exec_cq'
p380
I1
sS'total_cq'
p381
I59
sasS'total_cqs'
p382
I59
ssI39
(dp383
S'iters'
p384
I1
sS'meta'
p385
(lp386
(dp387
S'objective'
p388
I3002
sS'query_time'
p389
F0.023560047149658203
sS'comp_time'
p390
F0.00013518333435058594
sS'exec_cq'
p391
I1
sS'total_cq'
p392
I79
sasS'total_cqs'
p393
I79
ssI40
(dp394
S'iters'
p395
I1
sS'meta'
p396
(lp397
(dp398
S'objective'
p399
I3320
sS'query_time'
p400
F0.02548694610595703
sS'comp_time'
p401
F0.00015997886657714844
sS'exec_cq'
p402
I1
sS'total_cq'
p403
I83
sasS'total_cqs'
p404
I83
ssI41
(dp405
S'iters'
p406
I1
sS'meta'
p407
(lp408
(dp409
S'objective'
p410
I5
sS'query_time'
p411
F0.004966020584106445
sS'comp_time'
p412
F6.890296936035156e-05
sS'exec_cq'
p413
I1
sS'total_cq'
p414
I5
sasS'total_cqs'
p415
I5
ssI42
(dp416
S'iters'
p417
I1
sS'meta'
p418
(lp419
(dp420
S'objective'
p421
I0
sS'query_time'
p422
F30.488944053649902
sS'comp_time'
p423
F7.796287536621094e-05
sS'exec_cq'
p424
I1
sS'total_cq'
p425
I3
sasS'total_cqs'
p426
I3
ssI43
(dp427
S'iters'
p428
I1
sS'meta'
p429
(lp430
(dp431
S'objective'
p432
I5
sS'query_time'
p433
F0.4112279415130615
sS'comp_time'
p434
F7.581710815429688e-05
sS'exec_cq'
p435
I1
sS'total_cq'
p436
I5
sasS'total_cqs'
p437
I5
ssI44
(dp438
S'iters'
p439
I2
sS'meta'
p440
(lp441
(dp442
S'objective'
p443
I31
sS'query_time'
p444
F20.024869203567505
sS'comp_time'
p445
F7.891654968261719e-05
sS'exec_cq'
p446
I2
sS'total_cq'
p447
I10
sa(dp448
g443
I8
sg444
F0.0036330223083496094
sg445
F5.6743621826171875e-05
sg446
I1
sg447
I2
sasS'total_cqs'
p449
I10
ssI45
(dp450
S'iters'
p451
I0
sS'meta'
p452
(lp453
sS'total_cqs'
p454
I1
ssI46
(dp455
S'iters'
p456
I1
sS'meta'
p457
(lp458
(dp459
S'objective'
p460
I1
sS'query_time'
p461
F0.7308039665222168
sS'comp_time'
p462
F8.678436279296875e-05
sS'exec_cq'
p463
I1
sS'total_cq'
p464
I2
sasS'total_cqs'
p465
I2
ssI47
(dp466
S'iters'
p467
I0
sS'meta'
p468
(lp469
sS'total_cqs'
p470
I1
ssI48
(dp471
S'iters'
p472
I0
sS'meta'
p473
(lp474
sS'total_cqs'
p475
I1
ssI49
(dp476
S'iters'
p477
I2
sS'meta'
p478
(lp479
(dp480
S'objective'
p481
I2
sS'query_time'
p482
F23.445183992385864
sS'comp_time'
p483
F7.510185241699219e-05
sS'exec_cq'
p484
I1
sS'total_cq'
p485
I3
sa(dp486
g481
I2
sg482
F20.0938138961792
sg483
F9.512901306152344e-05
sg484
I2
sg485
I2
sasS'total_cqs'
p487
I3
ssI50
(dp488
S'iters'
p489
I1
sS'meta'
p490
(lp491
(dp492
S'objective'
p493
I54
sS'query_time'
p494
F0.01664900779724121
sS'comp_time'
p495
F7.510185241699219e-05
sS'exec_cq'
p496
I1
sS'total_cq'
p497
I12
sasS'total_cqs'
p498
I12
ssI51
(dp499
S'iters'
p500
I1
sS'meta'
p501
(lp502
(dp503
S'objective'
p504
I54
sS'query_time'
p505
F0.04369091987609863
sS'comp_time'
p506
F8.893013000488281e-05
sS'exec_cq'
p507
I1
sS'total_cq'
p508
I12
sasS'total_cqs'
p509
I12
ssI52
(dp510
S'iters'
p511
I1
sS'meta'
p512
(lp513
(dp514
S'objective'
p515
I54
sS'query_time'
p516
F0.1410830020904541
sS'comp_time'
p517
F0.00012302398681640625
sS'exec_cq'
p518
I1
sS'total_cq'
p519
I12
sasS'total_cqs'
p520
I12
ssI53
(dp521
S'iters'
p522
I2
sS'meta'
p523
(lp524
(dp525
S'objective'
p526
I4
sS'query_time'
p527
F20.03646993637085
sS'comp_time'
p528
F9.489059448242188e-05
sS'exec_cq'
p529
I1
sS'total_cq'
p530
I3
sa(dp531
g526
I1
sg527
F22.07751488685608
sg528
F9.202957153320312e-05
sg529
I1
sg530
I2
sasS'total_cqs'
p532
I3
ssI54
(dp533
S'iters'
p534
I1
sS'meta'
p535
(lp536
(dp537
S'objective'
p538
I5
sS'query_time'
p539
F2.003920078277588
sS'comp_time'
p540
F7.200241088867188e-05
sS'exec_cq'
p541
I1
sS'total_cq'
p542
I5
sasS'total_cqs'
p543
I5
ssI55
(dp544
S'iters'
p545
I2
sS'meta'
p546
(lp547
(dp548
S'objective'
p549
I21
sS'query_time'
p550
F0.29323506355285645
sS'comp_time'
p551
F8.606910705566406e-05
sS'exec_cq'
p552
I1
sS'total_cq'
p553
I10
sa(dp554
g549
I3
sg550
F2.9918949604034424
sg551
F9.274482727050781e-05
sg552
I2
sg553
I2
sasS'total_cqs'
p555
I10
ssI56
(dp556
S'iters'
p557
I1
sS'meta'
p558
(lp559
(dp560
S'objective'
p561
I9
sS'query_time'
p562
F2.3354499340057373
sS'comp_time'
p563
F0.00013494491577148438
sS'exec_cq'
p564
I1
sS'total_cq'
p565
I6
sasS'total_cqs'
p566
I6
ssI57
(dp567
S'iters'
p568
I1
sS'meta'
p569
(lp570
(dp571
S'objective'
p572
I324
sS'query_time'
p573
F0.21473288536071777
sS'comp_time'
p574
F0.00011110305786132812
sS'exec_cq'
p575
I1
sS'total_cq'
p576
I27
sasS'total_cqs'
p577
I27
ssI58
(dp578
S'iters'
p579
I1
sS'meta'
p580
(lp581
(dp582
S'objective'
p583
I35
sS'query_time'
p584
F1.8401219844818115
sS'comp_time'
p585
F0.0007369518280029297
sS'exec_cq'
p586
I1
sS'total_cq'
p587
I10
sasS'total_cqs'
p588
I10
ssI59
(dp589
S'iters'
p590
I1
sS'meta'
p591
(lp592
(dp593
S'objective'
p594
I1652
sS'query_time'
p595
F1.1916251182556152
sS'comp_time'
p596
F8.96453857421875e-05
sS'exec_cq'
p597
I1
sS'total_cq'
p598
I59
sasS'total_cqs'
p599
I59
ssI60
(dp600
S'iters'
p601
I1
sS'meta'
p602
(lp603
(dp604
S'objective'
p605
I90
sS'query_time'
p606
F0.6226539611816406
sS'comp_time'
p607
F8.058547973632812e-05
sS'exec_cq'
p608
I1
sS'total_cq'
p609
I15
sasS'total_cqs'
p610
I15
ssI61
(dp611
S'iters'
p612
I1
sS'meta'
p613
(lp614
(dp615
S'objective'
p616
I119
sS'query_time'
p617
F0.6410830020904541
sS'comp_time'
p618
F0.00010323524475097656
sS'exec_cq'
p619
I1
sS'total_cq'
p620
I17
sasS'total_cqs'
p621
I17
ssI62
(dp622
S'iters'
p623
I1
sS'meta'
p624
(lp625
(dp626
S'objective'
p627
I12245
sS'query_time'
p628
F0.8752050399780273
sS'comp_time'
p629
F0.000225067138671875
sS'exec_cq'
p630
I1
sS'total_cq'
p631
I158
sasS'total_cqs'
p632
I158
ssI63
(dp633
S'iters'
p634
I1
sS'meta'
p635
(lp636
(dp637
S'objective'
p638
I2849
sS'query_time'
p639
F0.5772089958190918
sS'comp_time'
p640
F0.00015091896057128906
sS'exec_cq'
p641
I1
sS'total_cq'
p642
I77
sasS'total_cqs'
p643
I77
ssI64
(dp644
S'iters'
p645
I1
sS'meta'
p646
(lp647
(dp648
S'objective'
p649
I8910
sS'query_time'
p650
F0.7438650131225586
sS'comp_time'
p651
F0.0001938343048095703
sS'exec_cq'
p652
I1
sS'total_cq'
p653
I135
sasS'total_cqs'
p654
I135
ssI65
(dp655
S'iters'
p656
I1
sS'meta'
p657
(lp658
(dp659
S'objective'
p660
I299
sS'query_time'
p661
F0.18433499336242676
sS'comp_time'
p662
F0.00014209747314453125
sS'exec_cq'
p663
I1
sS'total_cq'
p664
I26
sasS'total_cqs'
p665
I26
ssI66
(dp666
S'iters'
p667
I1
sS'meta'
p668
(lp669
(dp670
S'objective'
p671
I275
sS'query_time'
p672
F0.0822441577911377
sS'comp_time'
p673
F0.000102996826171875
sS'exec_cq'
p674
I1
sS'total_cq'
p675
I25
sasS'total_cqs'
p676
I25
ssI67
(dp677
S'iters'
p678
I1
sS'meta'
p679
(lp680
(dp681
S'objective'
p682
I275
sS'query_time'
p683
F0.04723811149597168
sS'comp_time'
p684
F8.487701416015625e-05
sS'exec_cq'
p685
I1
sS'total_cq'
p686
I25
sasS'total_cqs'
p687
I25
ssI68
(dp688
S'iters'
p689
I1
sS'meta'
p690
(lp691
(dp692
S'objective'
p693
I2555
sS'query_time'
p694
F0.024788856506347656
sS'comp_time'
p695
F0.00017189979553222656
sS'exec_cq'
p696
I1
sS'total_cq'
p697
I73
sasS'total_cqs'
p698
I73
ssI69
(dp699
S'iters'
p700
I1
sS'meta'
p701
(lp702
(dp703
S'objective'
p704
I2484
sS'query_time'
p705
F0.02299809455871582
sS'comp_time'
p706
F0.00013685226440429688
sS'exec_cq'
p707
I1
sS'total_cq'
p708
I72
sasS'total_cqs'
p709
I72
ssI70
(dp710
S'iters'
p711
I1
sS'meta'
p712
(lp713
(dp714
S'objective'
p715
I5777
sS'query_time'
p716
F1.7158310413360596
sS'comp_time'
p717
F0.0001971721649169922
sS'exec_cq'
p718
I1
sS'total_cq'
p719
I109
sasS'total_cqs'
p720
I109
ssI71
(dp721
S'iters'
p722
I1
sS'meta'
p723
(lp724
(dp725
S'objective'
p726
I160460
sS'query_time'
p727
F6.039264917373657
sS'comp_time'
p728
F0.0006120204925537109
sS'exec_cq'
p729
I1
sS'total_cq'
p730
I568
sasS'total_cqs'
p731
I568
ssI72
(dp732
S'iters'
p733
I1
sS'meta'
p734
(lp735
(dp736
S'objective'
p737
I7625
sS'query_time'
p738
F6.143722057342529
sS'comp_time'
p739
F0.00018906593322753906
sS'exec_cq'
p740
I1
sS'total_cq'
p741
I125
sasS'total_cqs'
p742
I125
ssI73
(dp743
S'iters'
p744
I1
sS'meta'
p745
(lp746
(dp747
S'objective'
p748
I7625
sS'query_time'
p749
F0.19364595413208008
sS'comp_time'
p750
F0.00016999244689941406
sS'exec_cq'
p751
I1
sS'total_cq'
p752
I125
sasS'total_cqs'
p753
I125
ssI138
(dp754
S'iters'
p755
I1
sS'meta'
p756
(lp757
(dp758
S'objective'
p759
I2700
sS'query_time'
p760
F0.02941298484802246
sS'comp_time'
p761
F0.00015687942504882812
sS'exec_cq'
p762
I1
sS'total_cq'
p763
I75
sasS'total_cqs'
p764
I75
ssI141
(dp765
S'iters'
p766
I1
sS'meta'
p767
(lp768
(dp769
S'objective'
p770
I72770
sS'query_time'
p771
F0.26984477043151855
sS'comp_time'
p772
F0.0003979206085205078
sS'exec_cq'
p773
I1
sS'total_cq'
p774
I383
sasS'total_cqs'
p775
I383
ssI139
(dp776
S'iters'
p777
I1
sS'meta'
p778
(lp779
(dp780
S'objective'
p781
I89675
sS'query_time'
p782
F0.12065815925598145
sS'comp_time'
p783
F0.0004260540008544922
sS'exec_cq'
p784
I1
sS'total_cq'
p785
I425
sasS'total_cqs'
p786
I425
ssI142
(dp787
S'iters'
p788
I1
sS'meta'
p789
(lp790
(dp791
S'objective'
p792
I0
sS'query_time'
p793
F21.40046501159668
sS'comp_time'
p794
F8.392333984375e-05
sS'exec_cq'
p795
I1
sS'total_cq'
p796
I3
sasS'total_cqs'
p797
I3
ssI135
(dp798
S'iters'
p799
I1
sS'meta'
p800
(lp801
(dp802
S'objective'
p803
I14
sS'query_time'
p804
F0.8556709289550781
sS'comp_time'
p805
F8.416175842285156e-05
sS'exec_cq'
p806
I1
sS'total_cq'
p807
I7
sasS'total_cqs'
p808
I7
ssI133
(dp809
S'iters'
p810
I1
sS'meta'
p811
(lp812
(dp813
S'objective'
p814
I1
sS'query_time'
p815
F21.31158995628357
sS'comp_time'
p816
F8.416175842285156e-05
sS'exec_cq'
p817
I2
sS'total_cq'
p818
I2
sasS'total_cqs'
p819
I2
ssI148
(dp820
S'iters'
p821
I1
sS'meta'
p822
(lp823
(dp824
S'objective'
p825
I63902
sS'query_time'
p826
F0.08345293998718262
sS'comp_time'
p827
F0.00040793418884277344
sS'exec_cq'
p828
I1
sS'total_cq'
p829
I359
sasS'total_cqs'
p830
I359
ssI140
(dp831
S'iters'
p832
I0
sS'meta'
p833
(lp834
sS'total_cqs'
p835
I1
ssI137
(dp836
S'iters'
p837
I1
sS'meta'
p838
(lp839
(dp840
S'objective'
p841
I79400
sS'query_time'
p842
F0.1148979663848877
sS'comp_time'
p843
F0.0005240440368652344
sS'exec_cq'
p844
I1
sS'total_cq'
p845
I400
sasS'total_cqs'
p846
I400
ssI136
(dp847
S'iters'
p848
I1
sS'meta'
p849
(lp850
(dp851
S'objective'
p852
I1539
sS'query_time'
p853
F0.024086952209472656
sS'comp_time'
p854
F0.00014781951904296875
sS'exec_cq'
p855
I1
sS'total_cq'
p856
I57
sasS'total_cqs'
p857
I57
ss.