(dp0
I1
(dp1
S'iters'
p2
I1
sS'meta'
p3
(lp4
(dp5
S'objective'
p6
I2
sS'query_time'
p7
F20.088234186172485
sS'comp_time'
p8
F0.001931905746459961
sS'exec_cq'
p9
I4
sS'total_cq'
p10
I4
sasS'total_cqs'
p11
I4
ssI2
(dp12
S'iters'
p13
I1
sS'meta'
p14
(lp15
(dp16
S'objective'
p17
I2
sS'query_time'
p18
F0.02100682258605957
sS'comp_time'
p19
F0.002229928970336914
sS'exec_cq'
p20
I4
sS'total_cq'
p21
I4
sasS'total_cqs'
p22
I4
ssI5
(dp23
S'iters'
p24
I13
sS'meta'
p25
(lp26
(dp27
S'objective'
p28
I1111
sS'query_time'
p29
F70.26627707481384
sS'comp_time'
p30
F0.7700018882751465
sS'exec_cq'
p31
I54
sS'total_cq'
p32
I54
sa(dp33
g28
I1224
sg29
F0.05823493003845215
sg30
F0.02148580551147461
sg31
I48
sg32
I48
sa(dp34
g28
I1189
sg29
F0.0004801750183105469
sg30
F0.0008270740509033203
sg31
I46
sg32
I46
sa(dp35
g28
I1163
sg29
F0.0003540515899658203
sg30
F0.0006780624389648438
sg31
I45
sg32
I45
sa(dp36
g28
I1184
sg29
F0.0003829002380371094
sg30
F0.0006825923919677734
sg31
I44
sg32
I44
sa(dp37
g28
I1185
sg29
F0.0001690387725830078
sg30
F0.0002529621124267578
sg31
I43
sg32
I43
sa(dp38
g28
I1185
sg29
F0.0001659393310546875
sg30
F0.0002276897430419922
sg31
I42
sg32
I42
sa(dp39
g28
I880
sg29
F5.599203109741211
sg30
F0.00022649765014648438
sg31
I41
sg32
I41
sa(dp40
g28
I431
sg29
F3.3883659839630127
sg30
F0.0004780292510986328
sg31
I32
sg32
I38
sa(dp41
g28
I642
sg29
F0.07283163070678711
sg30
F0.0009284019470214844
sg31
I27
sg32
I27
sa(dp42
g28
I163
sg29
F3.8327808380126953
sg30
F0.00018858909606933594
sg31
I20
sg32
I26
sa(dp43
g28
I369
sg29
F0.0040242671966552734
sg30
F0.0004489421844482422
sg31
I15
sg32
I15
sa(dp44
g28
I289
sg29
F0.005628108978271484
sg30
F9.083747863769531e-05
sg31
I14
sg32
I14
sasS'total_cqs'
p45
I54
ssI6
(dp46
S'iters'
p47
I1
sS'meta'
p48
(lp49
(dp50
S'objective'
p51
I2
sS'query_time'
p52
F20.02744197845459
sS'comp_time'
p53
F0.0021660327911376953
sS'exec_cq'
p54
I4
sS'total_cq'
p55
I4
sasS'total_cqs'
p56
I4
ssI135
(dp57
S'iters'
p58
I2
sS'meta'
p59
(lp60
(dp61
S'objective'
p62
I10
sS'query_time'
p63
F28.753548860549927
sS'comp_time'
p64
F0.45747995376586914
sS'exec_cq'
p65
I7
sS'total_cq'
p66
I7
sa(dp67
g62
I5
sg63
F0.1295640468597412
sg64
F0.3369307518005371
sg65
I2
sg66
I2
sasS'total_cqs'
p68
I7
ssI136
(dp69
S'iters'
p70
I3
sS'meta'
p71
(lp72
(dp73
S'objective'
p74
I279
sS'query_time'
p75
F18.162512063980103
sS'comp_time'
p76
F0.10825800895690918
sS'exec_cq'
p77
I46
sS'total_cq'
p78
I57
sa(dp79
g74
I804
sg75
F0.06521797180175781
sg76
F0.0014538764953613281
sg77
I35
sg78
I35
sa(dp80
g74
I771
sg75
F0.0001480579376220703
sg76
F0.0002028942108154297
sg77
I32
sg78
I32
sasS'total_cqs'
p81
I57
ssI9
(dp82
S'iters'
p83
I1
sS'meta'
p84
(lp85
(dp86
S'objective'
p87
I0
sS'query_time'
p88
F27.712193965911865
sS'comp_time'
p89
F0.020937681198120117
sS'exec_cq'
p90
I3
sS'total_cq'
p91
I3
sasS'total_cqs'
p92
I3
ssI10
(dp93
S'iters'
p94
I1
sS'meta'
p95
(lp96
(dp97
S'objective'
p98
I2
sS'query_time'
p99
F1.2238399982452393
sS'comp_time'
p100
F0.008342742919921875
sS'exec_cq'
p101
I4
sS'total_cq'
p102
I4
sasS'total_cqs'
p103
I4
ssI11
(dp104
S'iters'
p105
I1
sS'meta'
p106
(lp107
(dp108
S'objective'
p109
I14
sS'query_time'
p110
F20.037405967712402
sS'comp_time'
p111
F0.0036537647247314453
sS'exec_cq'
p112
I7
sS'total_cq'
p113
I7
sasS'total_cqs'
p114
I7
ssI12
(dp115
S'iters'
p116
I2
sS'meta'
p117
(lp118
(dp119
S'objective'
p120
I8
sS'query_time'
p121
F20.091792106628418
sS'comp_time'
p122
F0.004357099533081055
sS'exec_cq'
p123
I6
sS'total_cq'
p124
I7
sa(dp125
g120
I4
sg121
F7.915496826171875e-05
sg122
F0.00019025802612304688
sg123
I4
sg124
I5
sasS'total_cqs'
p126
I7
ssI141
(dp127
S'iters'
p128
I9
sS'meta'
p129
(lp130
(dp131
S'objective'
p132
I64712
sS'query_time'
p133
F54.9757342338562
sS'comp_time'
p134
F9.130608081817627
sS'exec_cq'
p135
I383
sS'total_cq'
p136
I383
sa(dp137
g132
I60906
sg133
F0.0063741207122802734
sg134
F0.023998737335205078
sg135
I360
sg136
I360
sa(dp138
g132
I57145
sg133
F0.005690097808837891
sg134
F0.023082256317138672
sg135
I337
sg136
I337
sa(dp139
g132
I58788
sg133
F0.005427122116088867
sg134
F0.015249013900756836
sg135
I319
sg136
I319
sa(dp140
g132
I57914
sg133
F0.004088878631591797
sg134
F0.008597373962402344
sg135
I314
sg136
I314
sa(dp141
g132
I57052
sg133
F0.001291036605834961
sg134
F0.0042209625244140625
sg135
I308
sg136
I308
sa(dp142
g132
I56492
sg133
F0.0009260177612304688
sg134
F0.002749204635620117
sg135
I304
sg136
I304
sa(dp143
g132
I56182
sg133
F0.0008890628814697266
sg134
F0.0026979446411132812
sg135
I300
sg136
I300
sa(dp144
g132
I55945
sg133
F0.0007369518280029297
sg134
F0.002050638198852539
sg135
I297
sg136
I297
sasS'total_cqs'
p145
I383
ssI14
(dp146
S'iters'
p147
I2
sS'meta'
p148
(lp149
(dp150
S'objective'
p151
I199
sS'query_time'
p152
F55.14291763305664
sS'comp_time'
p153
F0.41526317596435547
sS'exec_cq'
p154
I25
sS'total_cq'
p155
I25
sa(dp156
g151
I212
sg152
F0.07850790023803711
sg153
F0.16467785835266113
sg154
I21
sg155
I21
sasS'total_cqs'
p157
I25
ssI15
(dp158
S'iters'
p159
I3
sS'meta'
p160
(lp161
(dp162
S'objective'
p163
I75
sS'query_time'
p164
F21.07296109199524
sS'comp_time'
p165
F0.010545969009399414
sS'exec_cq'
p166
I13
sS'total_cq'
p167
I13
sa(dp168
g163
I41
sg164
F1.3920130729675293
sg165
F0.0002129077911376953
sg166
I11
sg167
I11
sa(dp169
g163
I5
sg164
F0.6195926666259766
sg165
F0.00021600723266601562
sg166
I3
sg167
I3
sasS'total_cqs'
p170
I13
ssI16
(dp171
S'iters'
p172
I3
sS'meta'
p173
(lp174
(dp175
S'objective'
p176
I149
sS'query_time'
p177
F27.015744924545288
sS'comp_time'
p178
F0.34076976776123047
sS'exec_cq'
p179
I17
sS'total_cq'
p180
I17
sa(dp181
g176
I91
sg177
F1.265064001083374
sg178
F0.00015807151794433594
sg179
I16
sg180
I16
sa(dp182
g176
I4
sg177
F0.7894918918609619
sg178
F0.00028705596923828125
sg179
I3
sg180
I3
sasS'total_cqs'
p183
I17
ssI17
(dp184
S'iters'
p185
I2
sS'meta'
p186
(lp187
(dp188
S'objective'
p189
I76
sS'query_time'
p190
F30.34206771850586
sS'comp_time'
p191
F0.01446986198425293
sS'exec_cq'
p192
I16
sS'total_cq'
p193
I16
sa(dp194
g189
I2
sg190
F0.21676898002624512
sg191
F0.0003101825714111328
sg192
I2
sg193
I2
sasS'total_cqs'
p195
I16
ssI18
(dp196
S'iters'
p197
I3
sS'meta'
p198
(lp199
(dp200
S'objective'
p201
I138
sS'query_time'
p202
F20.414407968521118
sS'comp_time'
p203
F0.0208737850189209
sS'exec_cq'
p204
I20
sS'total_cq'
p205
I20
sa(dp206
g201
I112
sg202
F9.716431856155396
sg203
F0.00023818016052246094
sg204
I17
sg205
I17
sa(dp207
g201
I9
sg202
F0.09436607360839844
sg203
F0.0003261566162109375
sg204
I2
sg205
I2
sasS'total_cqs'
p208
I20
ssI19
(dp209
S'iters'
p210
I4
sS'meta'
p211
(lp212
(dp213
S'objective'
p214
I3796
sS'query_time'
p215
F25.930421113967896
sS'comp_time'
p216
F0.6949441432952881
sS'exec_cq'
p217
I88
sS'total_cq'
p218
I88
sa(dp219
g214
I3736
sg215
F0.0003108978271484375
sg216
F0.00046896934509277344
sg217
I86
sg218
I86
sa(dp220
g214
I3538
sg215
F5.190585136413574
sg216
F0.00032019615173339844
sg217
I85
sg218
I85
sa(dp221
g214
I47
sg215
F0.20312905311584473
sg216
F0.004945278167724609
sg217
I2
sg218
I2
sasS'total_cqs'
p222
I88
ssI134
(dp223
S'iters'
p224
I1
sS'meta'
p225
(lp226
(dp227
S'objective'
p228
I1
sS'query_time'
p229
F20.844796895980835
sS'comp_time'
p230
F0.0005457401275634766
sS'exec_cq'
p231
I2
sS'total_cq'
p232
I2
sasS'total_cqs'
p233
I2
ssI21
(dp234
S'iters'
p235
I1
sS'meta'
p236
(lp237
(dp238
S'objective'
p239
I5
sS'query_time'
p240
F0.03120112419128418
sS'comp_time'
p241
F0.0022449493408203125
sS'exec_cq'
p242
I2
sS'total_cq'
p243
I5
sasS'total_cqs'
p244
I5
ssI22
(dp245
S'iters'
p246
I2
sS'meta'
p247
(lp248
(dp249
S'objective'
p250
I4
sS'query_time'
p251
F26.00667691230774
sS'comp_time'
p252
F0.2909369468688965
sS'exec_cq'
p253
I3
sS'total_cq'
p254
I3
sa(dp255
g250
I1
sg251
F0.08818197250366211
sg252
F0.00012421607971191406
sg253
I2
sg254
I2
sasS'total_cqs'
p256
I3
ssI24
(dp257
S'iters'
p258
I1
sS'meta'
p259
(lp260
(dp261
S'objective'
p262
I0
sS'query_time'
p263
F8.106029033660889
sS'comp_time'
p264
F0.001920938491821289
sS'exec_cq'
p265
I3
sS'total_cq'
p266
I3
sasS'total_cqs'
p267
I3
ssI25
(dp268
S'iters'
p269
I1
sS'meta'
p270
(lp271
(dp272
S'objective'
p273
I0
sS'query_time'
p274
F7.094084978103638
sS'comp_time'
p275
F0.0014102458953857422
sS'exec_cq'
p276
I3
sS'total_cq'
p277
I3
sasS'total_cqs'
p278
I3
ssI29
(dp279
S'iters'
p280
I1
sS'meta'
p281
(lp282
(dp283
S'objective'
p284
I14
sS'query_time'
p285
F20.043592929840088
sS'comp_time'
p286
F0.003954887390136719
sS'exec_cq'
p287
I7
sS'total_cq'
p288
I7
sasS'total_cqs'
p289
I7
ssI30
(dp290
S'iters'
p291
I1
sS'meta'
p292
(lp293
(dp294
S'objective'
p295
I14
sS'query_time'
p296
F20.11878991127014
sS'comp_time'
p297
F0.0044443607330322266
sS'exec_cq'
p298
I6
sS'total_cq'
p299
I7
sasS'total_cqs'
p300
I7
ssI31
(dp301
S'iters'
p302
I2
sS'meta'
p303
(lp304
(dp305
S'objective'
p306
I21
sS'query_time'
p307
F2.814142942428589
sS'comp_time'
p308
F0.006239891052246094
sS'exec_cq'
p309
I8
sS'total_cq'
p310
I10
sa(dp311
g306
I3
sg307
F0.043145179748535156
sg308
F0.0005209445953369141
sg309
I2
sg310
I2
sasS'total_cqs'
p312
I10
ssI32
(dp313
S'iters'
p314
I2
sS'meta'
p315
(lp316
(dp317
S'objective'
p318
I21
sS'query_time'
p319
F1.0755870342254639
sS'comp_time'
p320
F0.006504058837890625
sS'exec_cq'
p321
I8
sS'total_cq'
p322
I10
sa(dp323
g318
I3
sg319
F0.22506999969482422
sg320
F0.003916025161743164
sg321
I2
sg322
I2
sasS'total_cqs'
p324
I10
ssI33
(dp325
S'iters'
p326
I2
sS'meta'
p327
(lp328
(dp329
S'objective'
p330
I14
sS'query_time'
p331
F1.081847906112671
sS'comp_time'
p332
F0.007437229156494141
sS'exec_cq'
p333
I8
sS'total_cq'
p334
I11
sa(dp335
g330
I4
sg331
F0.047595977783203125
sg332
F0.0011341571807861328
sg333
I3
sg334
I4
sasS'total_cqs'
p336
I11
ssI34
(dp337
S'iters'
p338
I3
sS'meta'
p339
(lp340
(dp341
S'objective'
p342
I2091
sS'query_time'
p343
F60.709863901138306
sS'comp_time'
p344
F0.9077694416046143
sS'exec_cq'
p345
I70
sS'total_cq'
p346
I70
sa(dp347
g342
I1938
sg343
F0.0038139820098876953
sg344
F0.0068950653076171875
sg345
I63
sg346
I63
sa(dp348
g342
I1973
sg343
F0.002866983413696289
sg344
F0.005795717239379883
sg345
I57
sg346
I57
sasS'total_cqs'
p349
I70
ssI35
(dp350
S'iters'
p351
I4
sS'meta'
p352
(lp353
(dp354
S'objective'
p355
I1999
sS'query_time'
p356
F61.71214294433594
sS'comp_time'
p357
F0.8161380290985107
sS'exec_cq'
p358
I70
sS'total_cq'
p359
I70
sa(dp360
g355
I1934
sg356
F0.36582016944885254
sg357
F0.7182610034942627
sg358
I64
sg359
I64
sa(dp361
g355
I1826
sg356
F0.008256912231445312
sg357
F0.014255046844482422
sg358
I56
sg359
I56
sa(dp362
g355
I1817
sg356
F0.007503032684326172
sg357
F0.014329195022583008
sg358
I52
sg359
I52
sasS'total_cqs'
p363
I70
ssI36
(dp364
S'iters'
p365
I2
sS'meta'
p366
(lp367
(dp368
S'objective'
p369
I55
sS'query_time'
p370
F20.1938259601593
sS'comp_time'
p371
F0.03731894493103027
sS'exec_cq'
p372
I15
sS'total_cq'
p373
I17
sa(dp374
g369
I15
sg370
F0.018522262573242188
sg371
F0.0003409385681152344
sg372
I5
sg373
I5
sasS'total_cqs'
p375
I17
ssI37
(dp376
S'iters'
p377
I2
sS'meta'
p378
(lp379
(dp380
S'objective'
p381
I64
sS'query_time'
p382
F20.93958306312561
sS'comp_time'
p383
F0.07104706764221191
sS'exec_cq'
p384
I14
sS'total_cq'
p385
I16
sa(dp386
g381
I4
sg382
F0.03226494789123535
sg383
F0.0003809928894042969
sg384
I2
sg385
I3
sasS'total_cqs'
p387
I16
ssI38
(dp388
S'iters'
p389
I4
sS'meta'
p390
(lp391
(dp392
S'objective'
p393
I1240
sS'query_time'
p394
F39.891716957092285
sS'comp_time'
p395
F0.5588929653167725
sS'exec_cq'
p396
I59
sS'total_cq'
p397
I59
sa(dp398
g393
I1115
sg394
F0.15301012992858887
sg395
F0.44333434104919434
sg396
I52
sg397
I52
sa(dp399
g393
I978
sg394
F0.22147679328918457
sg395
F0.4326040744781494
sg396
I45
sg397
I45
sa(dp400
g393
I1026
sg394
F0.0017812252044677734
sg395
F0.0027930736541748047
sg396
I39
sg397
I39
sasS'total_cqs'
p401
I59
ssI39
(dp402
S'iters'
p403
I4
sS'meta'
p404
(lp405
(dp406
S'objective'
p407
I2312
sS'query_time'
p408
F50.65962195396423
sS'comp_time'
p409
F0.3115246295928955
sS'exec_cq'
p410
I79
sS'total_cq'
p411
I79
sa(dp412
g407
I2104
sg408
F0.046083927154541016
sg409
F0.016982555389404297
sg410
I69
sg411
I69
sa(dp413
g407
I1998
sg408
F0.038867950439453125
sg409
F0.06826376914978027
sg410
I59
sg411
I59
sa(dp414
g407
I2051
sg408
F0.00019598007202148438
sg409
F0.0007722377777099609
sg410
I50
sg411
I50
sasS'total_cqs'
p415
I79
ssI40
(dp416
S'iters'
p417
I4
sS'meta'
p418
(lp419
(dp420
S'objective'
p421
I2322
sS'query_time'
p422
F46.84931993484497
sS'comp_time'
p423
F0.534531831741333
sS'exec_cq'
p424
I73
sS'total_cq'
p425
I83
sa(dp426
g421
I1928
sg422
F0.0557398796081543
sg423
F0.003493070602416992
sg424
I67
sg425
I67
sa(dp427
g421
I1708
sg422
F0.00047278404235839844
sg423
F0.0016713142395019531
sg424
I56
sg425
I56
sa(dp428
g421
I1896
sg422
F0.00034999847412109375
sg423
F0.0013070106506347656
sg424
I45
sg425
I45
sasS'total_cqs'
p429
I83
ssI41
(dp430
S'iters'
p431
I1
sS'meta'
p432
(lp433
(dp434
S'objective'
p435
I5
sS'query_time'
p436
F0.09466385841369629
sS'comp_time'
p437
F0.001981019973754883
sS'exec_cq'
p438
I2
sS'total_cq'
p439
I5
sasS'total_cqs'
p440
I5
ssI42
(dp441
S'iters'
p442
I1
sS'meta'
p443
(lp444
(dp445
S'objective'
p446
I0
sS'query_time'
p447
F41.30494999885559
sS'comp_time'
p448
F0.0011703968048095703
sS'exec_cq'
p449
I3
sS'total_cq'
p450
I3
sasS'total_cqs'
p451
I3
ssI43
(dp452
S'iters'
p453
I1
sS'meta'
p454
(lp455
(dp456
S'objective'
p457
I5
sS'query_time'
p458
F0.46106505393981934
sS'comp_time'
p459
F0.016978740692138672
sS'exec_cq'
p460
I5
sS'total_cq'
p461
I5
sasS'total_cqs'
p462
I5
ssI44
(dp463
S'iters'
p464
I3
sS'meta'
p465
(lp466
(dp467
S'objective'
p468
I27
sS'query_time'
p469
F40.027193784713745
sS'comp_time'
p470
F0.005553007125854492
sS'exec_cq'
p471
I10
sS'total_cq'
p472
I10
sa(dp473
g468
I5
sg469
F0.013081073760986328
sg470
F0.00011801719665527344
sg471
I4
sg472
I6
sa(dp474
g468
I2
sg469
F0.021776199340820312
sg470
F0.000148773193359375
sg471
I2
sg472
I2
sasS'total_cqs'
p475
I10
ssI133
(dp476
S'iters'
p477
I1
sS'meta'
p478
(lp479
(dp480
S'objective'
p481
I1
sS'query_time'
p482
F21.434946298599243
sS'comp_time'
p483
F0.0008118152618408203
sS'exec_cq'
p484
I2
sS'total_cq'
p485
I2
sasS'total_cqs'
p486
I2
ssI46
(dp487
S'iters'
p488
I1
sS'meta'
p489
(lp490
(dp491
S'objective'
p492
I1
sS'query_time'
p493
F0.7737839221954346
sS'comp_time'
p494
F0.019852876663208008
sS'exec_cq'
p495
I2
sS'total_cq'
p496
I2
sasS'total_cqs'
p497
I2
ssI49
(dp498
S'iters'
p499
I1
sS'meta'
p500
(lp501
(dp502
S'objective'
p503
I0
sS'query_time'
p504
F23.177597045898438
sS'comp_time'
p505
F0.029318809509277344
sS'exec_cq'
p506
I3
sS'total_cq'
p507
I3
sasS'total_cqs'
p508
I3
ssI50
(dp509
S'iters'
p510
I2
sS'meta'
p511
(lp512
(dp513
S'objective'
p514
I20
sS'query_time'
p515
F17.319171905517578
sS'comp_time'
p516
F0.009219646453857422
sS'exec_cq'
p517
I10
sS'total_cq'
p518
I12
sa(dp519
g514
I25
sg515
F0.04589223861694336
sg516
F0.000270843505859375
sg517
I9
sg518
I9
sasS'total_cqs'
p520
I12
ssI51
(dp521
S'iters'
p522
I2
sS'meta'
p523
(lp524
(dp525
S'objective'
p526
I24
sS'query_time'
p527
F20.956793069839478
sS'comp_time'
p528
F0.00757598876953125
sS'exec_cq'
p529
I10
sS'total_cq'
p530
I12
sa(dp531
g526
I3
sg527
F12.263647079467773
sg528
F0.0002868175506591797
sg529
I2
sg530
I5
sasS'total_cqs'
p532
I12
ssI52
(dp533
S'iters'
p534
I2
sS'meta'
p535
(lp536
(dp537
S'objective'
p538
I8
sS'query_time'
p539
F1.5997960567474365
sS'comp_time'
p540
F0.010115861892700195
sS'exec_cq'
p541
I10
sS'total_cq'
p542
I12
sa(dp543
g538
I11
sg539
F0.16235113143920898
sg540
F0.0004119873046875
sg541
I4
sg542
I4
sasS'total_cqs'
p544
I12
ssI53
(dp545
S'iters'
p546
I2
sS'meta'
p547
(lp548
(dp549
S'objective'
p550
I4
sS'query_time'
p551
F20.089700937271118
sS'comp_time'
p552
F0.0008723735809326172
sS'exec_cq'
p553
I3
sS'total_cq'
p554
I3
sa(dp555
g550
I1
sg551
F23.586530923843384
sg552
F0.0001308917999267578
sg553
I2
sg554
I2
sasS'total_cqs'
p556
I3
ssI54
(dp557
S'iters'
p558
I1
sS'meta'
p559
(lp560
(dp561
S'objective'
p562
I5
sS'query_time'
p563
F34.797816038131714
sS'comp_time'
p564
F0.014485597610473633
sS'exec_cq'
p565
I5
sS'total_cq'
p566
I5
sasS'total_cqs'
p567
I5
ssI55
(dp568
S'iters'
p569
I2
sS'meta'
p570
(lp571
(dp572
S'objective'
p573
I27
sS'query_time'
p574
F26.32068920135498
sS'comp_time'
p575
F0.016701936721801758
sS'exec_cq'
p576
I10
sS'total_cq'
p577
I10
sa(dp578
g573
I6
sg574
F0.005385160446166992
sg575
F0.007314920425415039
sg576
I2
sg577
I2
sasS'total_cqs'
p579
I10
ssI56
(dp580
S'iters'
p581
I2
sS'meta'
p582
(lp583
(dp584
S'objective'
p585
I5
sS'query_time'
p586
F41.22994303703308
sS'comp_time'
p587
F0.5579769611358643
sS'exec_cq'
p588
I6
sS'total_cq'
p589
I6
sa(dp590
g585
I1
sg586
F0.09786796569824219
sg587
F0.29770779609680176
sg588
I4
sg589
I4
sasS'total_cqs'
p591
I6
ssI57
(dp592
S'iters'
p593
I2
sS'meta'
p594
(lp595
(dp596
S'objective'
p597
I240
sS'query_time'
p598
F29.994670152664185
sS'comp_time'
p599
F0.15180087089538574
sS'exec_cq'
p600
I27
sS'total_cq'
p601
I27
sa(dp602
g597
I255
sg598
F0.029822111129760742
sg599
F0.10086917877197266
sg600
I23
sg601
I23
sasS'total_cqs'
p603
I27
ssI58
(dp604
S'iters'
p605
I2
sS'meta'
p606
(lp607
(dp608
S'objective'
p609
I3
sS'query_time'
p610
F29.91712188720703
sS'comp_time'
p611
F0.00621795654296875
sS'exec_cq'
p612
I8
sS'total_cq'
p613
I10
sa(dp614
g609
I6
sg610
F2.0816760063171387
sg611
F0.0556645393371582
sg612
I2
sg613
I4
sasS'total_cqs'
p615
I10
ssI59
(dp616
S'iters'
p617
I5
sS'meta'
p618
(lp619
(dp620
S'objective'
p621
I1262
sS'query_time'
p622
F69.44503903388977
sS'comp_time'
p623
F2.0419864654541016
sS'exec_cq'
p624
I59
sS'total_cq'
p625
I59
sa(dp626
g621
I1158
sg622
F0.5156428813934326
sg623
F1.1438477039337158
sg624
I51
sg625
I51
sa(dp627
g621
I1033
sg622
F0.3414278030395508
sg623
F0.9642119407653809
sg624
I45
sg625
I45
sa(dp628
g621
I1045
sg622
F0.28768205642700195
sg623
F1.0260357856750488
sg624
I38
sg625
I38
sa(dp629
g621
I997
sg622
F0.31554198265075684
sg623
F0.7037880420684814
sg624
I36
sg625
I36
sasS'total_cqs'
p630
I59
ssI60
(dp631
S'iters'
p632
I2
sS'meta'
p633
(lp634
(dp635
S'objective'
p636
I44
sS'query_time'
p637
F36.28868389129639
sS'comp_time'
p638
F0.0190277099609375
sS'exec_cq'
p639
I13
sS'total_cq'
p640
I15
sa(dp641
g636
I8
sg637
F0.4942150115966797
sg638
F0.0003981590270996094
sg639
I4
sg640
I4
sasS'total_cqs'
p642
I15
ssI61
(dp643
S'iters'
p644
I2
sS'meta'
p645
(lp646
(dp647
S'objective'
p648
I35
sS'query_time'
p649
F44.85201907157898
sS'comp_time'
p650
F0.01796698570251465
sS'exec_cq'
p651
I14
sS'total_cq'
p652
I17
sa(dp653
g648
I25
sg649
F0.6416559219360352
sg650
F0.0003771781921386719
sg651
I7
sg652
I7
sasS'total_cqs'
p654
I17
ssI62
(dp655
S'iters'
p656
I5
sS'meta'
p657
(lp658
(dp659
S'objective'
p660
I10749
sS'query_time'
p661
F60.70810794830322
sS'comp_time'
p662
F1.200225591659546
sS'exec_cq'
p663
I158
sS'total_cq'
p664
I158
sa(dp665
g660
I10891
sg661
F0.00286102294921875
sg662
F0.007833003997802734
sg663
I148
sg664
I148
sa(dp666
g660
I10661
sg661
F0.00109100341796875
sg662
F0.0036840438842773438
sg663
I138
sg664
I138
sa(dp667
g660
I10631
sg661
F0.0006501674652099609
sg662
F0.0018291473388671875
sg663
I134
sg664
I134
sa(dp668
g660
I10483
sg661
F0.0005409717559814453
sg662
F0.000995635986328125
sg663
I132
sg664
I132
sasS'total_cqs'
p669
I158
ssI63
(dp670
S'iters'
p671
I4
sS'meta'
p672
(lp673
(dp674
S'objective'
p675
I2423
sS'query_time'
p676
F89.50729393959045
sS'comp_time'
p677
F0.30107593536376953
sS'exec_cq'
p678
I77
sS'total_cq'
p679
I77
sa(dp680
g675
I2373
sg676
F0.0022017955780029297
sg677
F0.0049228668212890625
sg678
I70
sg679
I70
sa(dp681
g675
I2331
sg676
F0.0008258819580078125
sg677
F0.002146005630493164
sg678
I63
sg679
I63
sa(dp682
g675
I2283
sg676
F0.0002410411834716797
sg677
F0.0005469322204589844
sg678
I61
sg679
I61
sasS'total_cqs'
p683
I77
ssI64
(dp684
S'iters'
p685
I6
sS'meta'
p686
(lp687
(dp688
S'objective'
p689
I8266
sS'query_time'
p690
F114.20225501060486
sS'comp_time'
p691
F7.738237142562866
sS'exec_cq'
p692
I135
sS'total_cq'
p693
I135
sa(dp694
g689
I8271
sg690
F1.6096200942993164
sg691
F4.909265041351318
sg692
I129
sg693
I129
sa(dp695
g689
I8067
sg690
F1.0580270290374756
sg691
F2.0198652744293213
sg692
I127
sg693
I127
sa(dp696
g689
I7948
sg690
F0.8449616432189941
sg691
F2.210235834121704
sg692
I125
sg693
I125
sa(dp697
g689
I7795
sg690
F1.213507890701294
sg691
F2.0764098167419434
sg692
I123
sg693
I123
sa(dp698
g689
I7685
sg690
F0.920332670211792
sg691
F1.9656152725219727
sg692
I121
sg693
I121
sasS'total_cqs'
p699
I135
ssI65
(dp700
S'iters'
p701
I3
sS'meta'
p702
(lp703
(dp704
S'objective'
p705
I263
sS'query_time'
p706
F40.57720899581909
sS'comp_time'
p707
F0.03724026679992676
sS'exec_cq'
p708
I26
sS'total_cq'
p709
I26
sa(dp710
g705
I239
sg706
F0.0009591579437255859
sg707
F0.0019137859344482422
sg708
I24
sg709
I24
sa(dp711
g705
I221
sg706
F0.0008370876312255859
sg707
F0.00151824951171875
sg708
I22
sg709
I22
sasS'total_cqs'
p712
I26
ssI66
(dp713
S'iters'
p714
I2
sS'meta'
p715
(lp716
(dp717
S'objective'
p718
I253
sS'query_time'
p719
F41.640223264694214
sS'comp_time'
p720
F0.10212326049804688
sS'exec_cq'
p721
I25
sS'total_cq'
p722
I25
sa(dp723
g718
I239
sg719
F0.01634383201599121
sg720
F0.03527975082397461
sg721
I23
sg722
I23
sasS'total_cqs'
p724
I25
ssI67
(dp725
S'iters'
p726
I3
sS'meta'
p727
(lp728
(dp729
S'objective'
p730
I255
sS'query_time'
p731
F5.135603904724121
sS'comp_time'
p732
F0.14160561561584473
sS'exec_cq'
p733
I25
sS'total_cq'
p734
I25
sa(dp735
g730
I236
sg731
F0.01865220069885254
sg732
F0.07156920433044434
sg733
I23
sg734
I23
sa(dp736
g730
I213
sg731
F0.014440774917602539
sg732
F0.03900265693664551
sg733
I21
sg734
I21
sasS'total_cqs'
p737
I25
ssI68
(dp738
S'iters'
p739
I5
sS'meta'
p740
(lp741
(dp742
S'objective'
p743
I1843
sS'query_time'
p744
F25.600810050964355
sS'comp_time'
p745
F0.2231884002685547
sS'exec_cq'
p746
I73
sS'total_cq'
p747
I73
sa(dp748
g743
I1436
sg744
F0.0006768703460693359
sg745
F0.0026235580444335938
sg746
I63
sg747
I63
sa(dp749
g743
I1180
sg744
F0.0004718303680419922
sg745
F0.002103090286254883
sg746
I53
sg747
I53
sa(dp750
g743
I947
sg744
F0.0003437995910644531
sg745
F0.001409769058227539
sg746
I43
sg747
I43
sa(dp751
g743
I1086
sg744
F0.0002911090850830078
sg745
F0.0011878013610839844
sg746
I32
sg747
I32
sasS'total_cqs'
p752
I73
ssI69
(dp753
S'iters'
p754
I5
sS'meta'
p755
(lp756
(dp757
S'objective'
p758
I1712
sS'query_time'
p759
F39.88227820396423
sS'comp_time'
p760
F0.17480683326721191
sS'exec_cq'
p761
I62
sS'total_cq'
p762
I72
sa(dp763
g758
I1270
sg759
F0.0008821487426757812
sg760
F0.0029947757720947266
sg761
I50
sg762
I60
sa(dp764
g758
I974
sg759
F0.05310988426208496
sg760
F0.0020902156829833984
sg761
I49
sg762
I49
sa(dp765
g758
I653
sg759
F0.000293731689453125
sg760
F0.0012211799621582031
sg761
I39
sg762
I39
sa(dp766
g758
I856
sg759
F0.00017023086547851562
sg760
F0.0007729530334472656
sg761
I27
sg762
I27
sasS'total_cqs'
p767
I72
ssI70
(dp768
S'iters'
p769
I5
sS'meta'
p770
(lp771
(dp772
S'objective'
p773
I5415
sS'query_time'
p774
F98.06378865242004
sS'comp_time'
p775
F3.920543670654297
sS'exec_cq'
p776
I109
sS'total_cq'
p777
I109
sa(dp778
g773
I5207
sg774
F0.3549830913543701
sg775
F1.2545685768127441
sg776
I105
sg777
I105
sa(dp779
g773
I5206
sg774
F0.36623287200927734
sg775
F1.198876142501831
sg776
I101
sg777
I101
sa(dp780
g773
I5111
sg774
F0.28761792182922363
sg775
F1.203949213027954
sg776
I99
sg777
I99
sa(dp781
g773
I5003
sg774
F0.2721877098083496
sg775
F1.195199728012085
sg776
I97
sg777
I97
sasS'total_cqs'
p782
I109
ssI71
(dp783
S'iters'
p784
I16
sS'meta'
p785
(lp786
(dp787
S'objective'
p788
I157710
sS'query_time'
p789
F185.11037302017212
sS'comp_time'
p790
F27.484891176223755
sS'exec_cq'
p791
I568
sS'total_cq'
p792
I568
sa(dp793
g788
I156105
sg789
F0.566857099533081
sg790
F2.0691781044006348
sg791
I562
sg792
I562
sa(dp794
g788
I155829
sg789
F0.47107696533203125
sg790
F1.798659324645996
sg791
I556
sg792
I556
sa(dp795
g788
I154896
sg789
F1.7121059894561768
sg790
F0.5306100845336914
sg791
I554
sg792
I554
sa(dp796
g788
I154115
sg789
F0.44881510734558105
sg790
F1.8323321342468262
sg791
I552
sg792
I552
sa(dp797
g788
I153261
sg789
F0.44537901878356934
sg790
F1.8471899032592773
sg791
I550
sg792
I550
sa(dp798
g788
I152598
sg789
F0.43633580207824707
sg790
F1.8126578330993652
sg791
I548
sg792
I548
sa(dp799
g788
I151843
sg789
F0.5378918647766113
sg790
F0.8674776554107666
sg791
I546
sg792
I546
sa(dp800
g788
I151231
sg789
F1.7030458450317383
sg790
F0.5334160327911377
sg791
I544
sg792
I544
sa(dp801
g788
I150551
sg789
F1.7111351490020752
sg790
F0.5120782852172852
sg791
I542
sg792
I542
sa(dp802
g788
I149882
sg789
F0.44468212127685547
sg790
F1.7834680080413818
sg791
I540
sg792
I540
sa(dp803
g788
I149234
sg789
F0.43546509742736816
sg790
F1.7993049621582031
sg791
I538
sg792
I538
sa(dp804
g788
I148648
sg789
F0.43495607376098633
sg790
F1.8460075855255127
sg791
I536
sg792
I536
sa(dp805
g788
I148044
sg789
F0.41507482528686523
sg790
F0.4756042957305908
sg791
I534
sg792
I534
sa(dp806
g788
I147492
sg789
F1.3216667175292969
sg790
F0.17801976203918457
sg791
I532
sg792
I532
sa(dp807
g788
I146939
sg789
F0.06512308120727539
sg790
F0.18558168411254883
sg791
I530
sg792
I530
sasS'total_cqs'
p808
I568
ssI72
(dp809
S'iters'
p810
I2
sS'meta'
p811
(lp812
(dp813
S'objective'
p814
I7469
sS'query_time'
p815
F21.215099096298218
sS'comp_time'
p816
F0.6735923290252686
sS'exec_cq'
p817
I125
sS'total_cq'
p818
I125
sa(dp819
g814
I7422
sg815
F0.012132883071899414
sg816
F0.02320694923400879
sg817
I123
sg818
I123
sasS'total_cqs'
p820
I125
ssI73
(dp821
S'iters'
p822
I7
sS'meta'
p823
(lp824
(dp825
S'objective'
p826
I7429
sS'query_time'
p827
F45.751599073410034
sS'comp_time'
p828
F1.1230108737945557
sS'exec_cq'
p829
I125
sS'total_cq'
p830
I125
sa(dp831
g826
I7298
sg827
F0.07340097427368164
sg828
F0.340069055557251
sg829
I123
sg830
I123
sa(dp832
g826
I7137
sg827
F0.06381797790527344
sg828
F0.25523877143859863
sg829
I121
sg830
I121
sa(dp833
g826
I6972
sg827
F0.14396190643310547
sg828
F0.24449729919433594
sg829
I119
sg830
I119
sa(dp834
g826
I6809
sg827
F0.08039569854736328
sg828
F0.3687758445739746
sg829
I117
sg830
I117
sa(dp835
g826
I6688
sg827
F0.0373687744140625
sg828
F0.17261409759521484
sg829
I115
sg830
I115
sa(dp836
g826
I6581
sg827
F0.034436941146850586
sg828
F0.16529011726379395
sg829
I113
sg830
I113
sasS'total_cqs'
p837
I125
ssI138
(dp838
S'iters'
p839
I3
sS'meta'
p840
(lp841
(dp842
S'objective'
p843
I1214
sS'query_time'
p844
F1.901106834411621
sS'comp_time'
p845
F0.2779219150543213
sS'exec_cq'
p846
I61
sS'total_cq'
p847
I75
sa(dp848
g843
I1680
sg844
F0.10169291496276855
sg845
F0.0018341541290283203
sg846
I55
sg847
I55
sa(dp849
g843
I1706
sg844
F0.00021696090698242188
sg845
F0.0003361701965332031
sg846
I52
sg847
I52
sasS'total_cqs'
p850
I75
ssI139
(dp851
S'iters'
p852
I7
sS'meta'
p853
(lp854
(dp855
S'objective'
p856
I79831
sS'query_time'
p857
F57.25843381881714
sS'comp_time'
p858
F16.400959014892578
sS'exec_cq'
p859
I425
sS'total_cq'
p860
I425
sa(dp861
g856
I77312
sg857
F0.10736393928527832
sg858
F0.08432698249816895
sg859
I398
sg860
I398
sa(dp862
g856
I73789
sg857
F0.10759806632995605
sg858
F0.07517313957214355
sg859
I379
sg860
I379
sa(dp863
g856
I75775
sg857
F0.0017690658569335938
sg858
F0.02369999885559082
sg859
I358
sg860
I358
sa(dp864
g856
I75284
sg857
F0.0014338493347167969
sg858
F0.005106925964355469
sg859
I354
sg860
I354
sa(dp865
g856
I74961
sg857
F0.000827789306640625
sg858
F0.0025577545166015625
sg859
I351
sg860
I351
sa(dp866
g856
I74613
sg857
F0.0007829666137695312
sg858
F0.0020165443420410156
sg859
I348
sg860
I348
sasS'total_cqs'
p867
I425
ssI142
(dp868
S'iters'
p869
I1
sS'meta'
p870
(lp871
(dp872
S'objective'
p873
I0
sS'query_time'
p874
F21.43776226043701
sS'comp_time'
p875
F0.0009031295776367188
sS'exec_cq'
p876
I3
sS'total_cq'
p877
I3
sasS'total_cqs'
p878
I3
ssI148
(dp879
S'iters'
p880
I6
sS'meta'
p881
(lp882
(dp883
S'objective'
p884
I57410
sS'query_time'
p885
F27.120810985565186
sS'comp_time'
p886
F8.769630670547485
sS'exec_cq'
p887
I359
sS'total_cq'
p888
I359
sa(dp889
g884
I54035
sg885
F0.0019290447235107422
sg886
F0.014941215515136719
sg887
I340
sg888
I340
sa(dp890
g884
I52739
sg885
F0.0011610984802246094
sg886
F0.009090900421142578
sg887
I321
sg888
I321
sa(dp891
g884
I53486
sg885
F0.0009131431579589844
sg886
F0.005166530609130859
sg887
I310
sg888
I310
sa(dp892
g884
I52919
sg885
F0.0007669925689697266
sg886
F0.0013949871063232422
sg887
I306
sg888
I306
sa(dp893
g884
I52896
sg885
F0.0007288455963134766
sg886
F0.0010750293731689453
sg887
I302
sg888
I302
sasS'total_cqs'
p894
I359
ssI137
(dp895
S'iters'
p896
I7
sS'meta'
p897
(lp898
(dp899
S'objective'
p900
I72172
sS'query_time'
p901
F47.3326199054718
sS'comp_time'
p902
F10.563717126846313
sS'exec_cq'
p903
I400
sS'total_cq'
p904
I400
sa(dp905
g900
I68218
sg901
F0.0016019344329833984
sg902
F0.01210784912109375
sg903
I385
sg904
I385
sa(dp906
g900
I65470
sg901
F0.0013420581817626953
sg902
F0.008499622344970703
sg903
I367
sg904
I367
sa(dp907
g900
I67518
sg901
F0.0011777877807617188
sg902
F0.00682520866394043
sg903
I351
sg904
I351
sa(dp908
g900
I66897
sg901
F0.0010030269622802734
sg902
F0.0020170211791992188
sg903
I347
sg904
I347
sa(dp909
g900
I66485
sg901
F0.0010368824005126953
sg902
F0.0017604827880859375
sg903
I344
sg904
I344
sa(dp910
g900
I66211
sg901
F0.000820159912109375
sg902
F0.0010080337524414062
sg903
I341
sg904
I341
sasS'total_cqs'
p911
I400
ss.