(dp0
I1
(dp1
S'iters'
p2
I1
sS'meta'
p3
(lp4
(dp5
S'objective'
p6
I2
sS'query_time'
p7
F20.226053953170776
sS'comp_time'
p8
F0.005324125289916992
sS'exec_cq'
p9
I4
sS'total_cq'
p10
I4
sasS'total_cqs'
p11
I4
ssI2
(dp12
S'iters'
p13
I1
sS'meta'
p14
(lp15
(dp16
S'objective'
p17
I2
sS'query_time'
p18
F0.26940202713012695
sS'comp_time'
p19
F0.0004177093505859375
sS'exec_cq'
p20
I4
sS'total_cq'
p21
I4
sasS'total_cqs'
p22
I4
ssI3
(dp23
S'iters'
p24
I0
sS'meta'
p25
(lp26
sS'total_cqs'
p27
I1
ssI4
(dp28
S'iters'
p29
I0
sS'meta'
p30
(lp31
sS'total_cqs'
p32
I1
ssI5
(dp33
S'iters'
p34
I8
sS'meta'
p35
(lp36
(dp37
S'objective'
p38
I551
sS'query_time'
p39
F29.951847076416016
sS'comp_time'
p40
F1.1048829555511475
sS'exec_cq'
p41
I54
sS'total_cq'
p42
I54
sa(dp43
g38
I946
sg39
F0.0006020069122314453
sg40
F0.07090592384338379
sg41
I39
sg42
I39
sa(dp44
g38
I950
sg39
F0.0003190040588378906
sg40
F1.0721383094787598
sg41
I38
sg42
I38
sa(dp45
g38
I942
sg39
F0.0003399848937988281
sg40
F0.028748035430908203
sg41
I37
sg42
I37
sa(dp46
g38
I932
sg39
F0.0002238750457763672
sg40
F0.005609273910522461
sg41
I36
sg42
I36
sa(dp47
g38
I937
sg39
F0.00019598007202148438
sg40
F0.015923023223876953
sg41
I35
sg42
I35
sa(dp48
g38
I938
sg39
F0.00015497207641601562
sg40
F0.01820993423461914
sg41
I34
sg42
I34
sa(dp49
g38
I831
sg39
F0.005056858062744141
sg40
F0.003912925720214844
sg41
I33
sg42
I33
sasS'total_cqs'
p50
I54
ssI6
(dp51
S'iters'
p52
I1
sS'meta'
p53
(lp54
(dp55
S'objective'
p56
I2
sS'query_time'
p57
F20.49268913269043
sS'comp_time'
p58
F0.004421234130859375
sS'exec_cq'
p59
I4
sS'total_cq'
p60
I4
sasS'total_cqs'
p61
I4
ssI7
(dp62
S'iters'
p63
I0
sS'meta'
p64
(lp65
sS'total_cqs'
p66
I1
ssI8
(dp67
S'iters'
p68
I0
sS'meta'
p69
(lp70
sS'total_cqs'
p71
I1
ssI9
(dp72
S'iters'
p73
I1
sS'meta'
p74
(lp75
(dp76
S'objective'
p77
I0
sS'query_time'
p78
F30.04412007331848
sS'comp_time'
p79
F0.04530906677246094
sS'exec_cq'
p80
I3
sS'total_cq'
p81
I3
sasS'total_cqs'
p82
I3
ssI10
(dp83
S'iters'
p84
I1
sS'meta'
p85
(lp86
(dp87
S'objective'
p88
I2
sS'query_time'
p89
F8.078011989593506
sS'comp_time'
p90
F0.015074014663696289
sS'exec_cq'
p91
I4
sS'total_cq'
p92
I4
sasS'total_cqs'
p93
I4
ssI11
(dp94
S'iters'
p95
I1
sS'meta'
p96
(lp97
(dp98
S'objective'
p99
I14
sS'query_time'
p100
F20.036416053771973
sS'comp_time'
p101
F0.0010058879852294922
sS'exec_cq'
p102
I7
sS'total_cq'
p103
I7
sasS'total_cqs'
p104
I7
ssI12
(dp105
S'iters'
p106
I2
sS'meta'
p107
(lp108
(dp109
S'objective'
p110
I6
sS'query_time'
p111
F20.25374412536621
sS'comp_time'
p112
F0.006963968276977539
sS'exec_cq'
p113
I7
sS'total_cq'
p114
I7
sa(dp115
g110
I3
sg111
F0.0001068115234375
sg112
F0.0022552013397216797
sg113
I5
sg114
I5
sasS'total_cqs'
p116
I7
ssI13
(dp117
S'iters'
p118
I0
sS'meta'
p119
(lp120
sS'total_cqs'
p121
I1
ssI14
(dp122
S'iters'
p123
I3
sS'meta'
p124
(lp125
(dp126
S'objective'
p127
I159
sS'query_time'
p128
F29.15881109237671
sS'comp_time'
p129
F1.1935529708862305
sS'exec_cq'
p130
I25
sS'total_cq'
p131
I25
sa(dp132
g127
I168
sg128
F0.03147602081298828
sg129
F0.2715480327606201
sg130
I19
sg131
I19
sa(dp133
g127
I155
sg128
F0.016398906707763672
sg129
F0.8449380397796631
sg130
I17
sg131
I17
sasS'total_cqs'
p134
I25
ssI15
(dp135
S'iters'
p136
I2
sS'meta'
p137
(lp138
(dp139
S'objective'
p140
I31
sS'query_time'
p141
F21.6879940032959
sS'comp_time'
p142
F0.3406040668487549
sS'exec_cq'
p143
I13
sS'total_cq'
p144
I13
sa(dp145
g140
I35
sg141
F0.2554001808166504
sg142
F0.09363579750061035
sg143
I9
sg144
I9
sasS'total_cqs'
p146
I13
ssI16
(dp147
S'iters'
p148
I3
sS'meta'
p149
(lp150
(dp151
S'objective'
p152
I97
sS'query_time'
p153
F26.90916895866394
sS'comp_time'
p154
F0.6621990203857422
sS'exec_cq'
p155
I17
sS'total_cq'
p156
I17
sa(dp157
g152
I63
sg153
F0.3803901672363281
sg154
F0.05102205276489258
sg155
I15
sg156
I15
sa(dp158
g152
I3
sg153
F0.3877081871032715
sg154
F0.03527402877807617
sg155
I3
sg156
I3
sasS'total_cqs'
p159
I17
ssI17
(dp160
S'iters'
p161
I2
sS'meta'
p162
(lp163
(dp164
S'objective'
p165
I80
sS'query_time'
p166
F25.433270931243896
sS'comp_time'
p167
F1.5400090217590332
sS'exec_cq'
p168
I16
sS'total_cq'
p169
I16
sa(dp170
g165
I4
sg166
F0.2909238338470459
sg167
F0.005213260650634766
sg168
I2
sg169
I2
sasS'total_cqs'
p171
I16
ssI18
(dp172
S'iters'
p173
I3
sS'meta'
p174
(lp175
(dp176
S'objective'
p177
I150
sS'query_time'
p178
F21.698782920837402
sS'comp_time'
p179
F3.8493659496307373
sS'exec_cq'
p180
I20
sS'total_cq'
p181
I20
sa(dp182
g177
I138
sg178
F4.186977863311768
sg179
F2.8856117725372314
sg180
I17
sg181
I17
sa(dp183
g177
I19
sg178
F0.17803025245666504
sg179
F0.003737211227416992
sg180
I2
sg181
I2
sasS'total_cqs'
p184
I20
ssI19
(dp185
S'iters'
p186
I4
sS'meta'
p187
(lp188
(dp189
S'objective'
p190
I3602
sS'query_time'
p191
F27.331331968307495
sS'comp_time'
p192
F0.5894420146942139
sS'exec_cq'
p193
I88
sS'total_cq'
p194
I88
sa(dp195
g190
I3745
sg191
F0.0003190040588378906
sg192
F7.857251882553101
sg193
I83
sg194
I83
sa(dp196
g190
I3518
sg191
F2.894016981124878
sg192
F2.476552963256836
sg193
I82
sg194
I82
sa(dp197
g190
I59
sg191
F0.11470532417297363
sg192
F0.002819061279296875
sg193
I2
sg194
I2
sasS'total_cqs'
p198
I88
ssI134
(dp199
S'iters'
p200
I1
sS'meta'
p201
(lp202
(dp203
S'objective'
p204
I1
sS'query_time'
p205
F20.797544956207275
sS'comp_time'
p206
F1.0502591133117676
sS'exec_cq'
p207
I2
sS'total_cq'
p208
I2
sasS'total_cqs'
p209
I2
ssI21
(dp210
S'iters'
p211
I1
sS'meta'
p212
(lp213
(dp214
S'objective'
p215
I5
sS'query_time'
p216
F20.413763999938965
sS'comp_time'
p217
F0.006517887115478516
sS'exec_cq'
p218
I5
sS'total_cq'
p219
I5
sasS'total_cqs'
p220
I5
ssI22
(dp221
S'iters'
p222
I1
sS'meta'
p223
(lp224
(dp225
S'objective'
p226
I0
sS'query_time'
p227
F29.605458974838257
sS'comp_time'
p228
F0.7748172283172607
sS'exec_cq'
p229
I3
sS'total_cq'
p230
I3
sasS'total_cqs'
p231
I3
ssI23
(dp232
S'iters'
p233
I0
sS'meta'
p234
(lp235
sS'total_cqs'
p236
I1
ssI24
(dp237
S'iters'
p238
I1
sS'meta'
p239
(lp240
(dp241
S'objective'
p242
I0
sS'query_time'
p243
F19.53885316848755
sS'comp_time'
p244
F0.005277156829833984
sS'exec_cq'
p245
I3
sS'total_cq'
p246
I3
sasS'total_cqs'
p247
I3
ssI25
(dp248
S'iters'
p249
I1
sS'meta'
p250
(lp251
(dp252
S'objective'
p253
I0
sS'query_time'
p254
F19.52450203895569
sS'comp_time'
p255
F0.0006840229034423828
sS'exec_cq'
p256
I3
sS'total_cq'
p257
I3
sasS'total_cqs'
p258
I3
ssI26
(dp259
S'iters'
p260
I0
sS'meta'
p261
(lp262
sS'total_cqs'
p263
I1
ssI27
(dp264
S'iters'
p265
I0
sS'meta'
p266
(lp267
sS'total_cqs'
p268
I1
ssI28
(dp269
S'iters'
p270
I0
sS'meta'
p271
(lp272
sS'total_cqs'
p273
I1
ssI29
(dp274
S'iters'
p275
I1
sS'meta'
p276
(lp277
(dp278
S'objective'
p279
I14
sS'query_time'
p280
F20.022966146469116
sS'comp_time'
p281
F0.0010271072387695312
sS'exec_cq'
p282
I7
sS'total_cq'
p283
I7
sasS'total_cqs'
p284
I7
ssI30
(dp285
S'iters'
p286
I1
sS'meta'
p287
(lp288
(dp289
S'objective'
p290
I14
sS'query_time'
p291
F20.183061838150024
sS'comp_time'
p292
F0.006137847900390625
sS'exec_cq'
p293
I7
sS'total_cq'
p294
I7
sasS'total_cqs'
p295
I7
ssI31
(dp296
S'iters'
p297
I2
sS'meta'
p298
(lp299
(dp300
S'objective'
p301
I17
sS'query_time'
p302
F5.080857992172241
sS'comp_time'
p303
F0.0016040802001953125
sS'exec_cq'
p304
I10
sS'total_cq'
p305
I10
sa(dp306
g301
I1
sg302
F0.00017213821411132812
sg303
F0.001064300537109375
sg304
I2
sg305
I2
sasS'total_cqs'
p307
I10
ssI32
(dp308
S'iters'
p309
I3
sS'meta'
p310
(lp311
(dp312
S'objective'
p313
I25
sS'query_time'
p314
F2.49173903465271
sS'comp_time'
p315
F0.015275955200195312
sS'exec_cq'
p316
I10
sS'total_cq'
p317
I10
sa(dp318
g313
I12
sg314
F0.0020830631256103516
sg315
F0.010833024978637695
sg316
I7
sg317
I7
sa(dp319
g313
I6
sg314
F0.0018410682678222656
sg315
F0.007955074310302734
sg316
I2
sg317
I2
sasS'total_cqs'
p320
I10
ssI33
(dp321
S'iters'
p322
I2
sS'meta'
p323
(lp324
(dp325
S'objective'
p326
I6
sS'query_time'
p327
F2.5043439865112305
sS'comp_time'
p328
F0.0031719207763671875
sS'exec_cq'
p329
I11
sS'total_cq'
p330
I11
sa(dp331
g326
I8
sg327
F0.0003578662872314453
sg328
F0.0022661685943603516
sg329
I4
sg330
I4
sasS'total_cqs'
p332
I11
ssI34
(dp333
S'iters'
p334
I3
sS'meta'
p335
(lp336
(dp337
S'objective'
p338
I1285
sS'query_time'
p339
F43.13699007034302
sS'comp_time'
p340
F1.1660349369049072
sS'exec_cq'
p341
I70
sS'total_cq'
p342
I70
sa(dp343
g338
I1169
sg339
F0.004695892333984375
sg340
F8.187928199768066
sg341
I56
sg342
I56
sa(dp344
g338
I1387
sg339
F0.003618955612182617
sg340
F0.023989200592041016
sg341
I45
sg342
I45
sasS'total_cqs'
p345
I70
ssI35
(dp346
S'iters'
p347
I4
sS'meta'
p348
(lp349
(dp350
S'objective'
p351
I1427
sS'query_time'
p352
F43.564613819122314
sS'comp_time'
p353
F1.1322381496429443
sS'exec_cq'
p354
I70
sS'total_cq'
p355
I70
sa(dp356
g351
I1276
sg352
F0.01102590560913086
sg353
F0.2904822826385498
sg354
I54
sg355
I54
sa(dp357
g351
I910
sg352
F0.010055065155029297
sg353
F6.858115911483765
sg354
I44
sg355
I44
sa(dp358
g351
I1123
sg352
F0.009875059127807617
sg353
F0.13688898086547852
sg354
I33
sg355
I33
sasS'total_cqs'
p359
I70
ssI36
(dp360
S'iters'
p361
I2
sS'meta'
p362
(lp363
(dp364
S'objective'
p365
I45
sS'query_time'
p366
F19.12580704689026
sS'comp_time'
p367
F0.0002720355987548828
sS'exec_cq'
p368
I17
sS'total_cq'
p369
I17
sa(dp370
g365
I20
sg366
F3.814697265625e-05
sg367
F9.989738464355469e-05
sg368
I5
sg369
I5
sasS'total_cqs'
p371
I17
ssI37
(dp372
S'iters'
p373
I2
sS'meta'
p374
(lp375
(dp376
S'objective'
p377
I52
sS'query_time'
p378
F20.407259941101074
sS'comp_time'
p379
F0.0005438327789306641
sS'exec_cq'
p380
I16
sS'total_cq'
p381
I16
sa(dp382
g377
I10
sg378
F4.601478576660156e-05
sg379
F0.0034711360931396484
sg380
I3
sg381
I3
sasS'total_cqs'
p383
I16
ssI38
(dp384
S'iters'
p385
I4
sS'meta'
p386
(lp387
(dp388
S'objective'
p389
I1102
sS'query_time'
p390
F40.903663873672485
sS'comp_time'
p391
F0.863245964050293
sS'exec_cq'
p392
I59
sS'total_cq'
p393
I59
sa(dp394
g389
I914
sg390
F0.2083268165588379
sg391
F0.6921367645263672
sg392
I49
sg393
I49
sa(dp395
g389
I577
sg390
F0.22057700157165527
sg391
F0.6960251331329346
sg392
I41
sg393
I41
sa(dp396
g389
I758
sg390
F0.0017650127410888672
sg391
F0.006414175033569336
sg392
I31
sg393
I31
sasS'total_cqs'
p397
I59
ssI39
(dp398
S'iters'
p399
I4
sS'meta'
p400
(lp401
(dp402
S'objective'
p403
I2124
sS'query_time'
p404
F30.495747089385986
sS'comp_time'
p405
F0.10612106323242188
sS'exec_cq'
p406
I79
sS'total_cq'
p407
I79
sa(dp408
g403
I1956
sg404
F0.04191112518310547
sg405
F0.04136991500854492
sg406
I69
sg407
I69
sa(dp409
g403
I1041
sg404
F0.04626202583312988
sg405
F0.08414173126220703
sg406
I59
sg407
I59
sa(dp410
g403
I1512
sg404
F0.0002620220184326172
sg405
F0.0027608871459960938
sg406
I43
sg407
I43
sasS'total_cqs'
p411
I79
ssI40
(dp412
S'iters'
p413
I4
sS'meta'
p414
(lp415
(dp416
S'objective'
p417
I1292
sS'query_time'
p418
F63.850123167037964
sS'comp_time'
p419
F0.12627482414245605
sS'exec_cq'
p420
I83
sS'total_cq'
p421
I83
sa(dp422
g417
I1237
sg418
F0.0007128715515136719
sg419
F0.004152059555053711
sg420
I60
sg421
I60
sa(dp423
g417
I1085
sg418
F0.0003159046173095703
sg419
F0.0037810802459716797
sg420
I48
sg421
I48
sa(dp424
g417
I1283
sg418
F0.0002129077911376953
sg419
F0.000782012939453125
sg420
I37
sg421
I37
sasS'total_cqs'
p425
I83
ssI41
(dp426
S'iters'
p427
I1
sS'meta'
p428
(lp429
(dp430
S'objective'
p431
I5
sS'query_time'
p432
F20.845662117004395
sS'comp_time'
p433
F0.008867979049682617
sS'exec_cq'
p434
I5
sS'total_cq'
p435
I5
sasS'total_cqs'
p436
I5
ssI42
(dp437
S'iters'
p438
I1
sS'meta'
p439
(lp440
(dp441
S'objective'
p442
I0
sS'query_time'
p443
F40.67806601524353
sS'comp_time'
p444
F0.05771493911743164
sS'exec_cq'
p445
I3
sS'total_cq'
p446
I3
sasS'total_cqs'
p447
I3
ssI43
(dp448
S'iters'
p449
I1
sS'meta'
p450
(lp451
(dp452
S'objective'
p453
I5
sS'query_time'
p454
F0.52593994140625
sS'comp_time'
p455
F0.026497364044189453
sS'exec_cq'
p456
I5
sS'total_cq'
p457
I5
sasS'total_cqs'
p458
I5
ssI44
(dp459
S'iters'
p460
I2
sS'meta'
p461
(lp462
(dp463
S'objective'
p464
I19
sS'query_time'
p465
F20.026937007904053
sS'comp_time'
p466
F0.013360738754272461
sS'exec_cq'
p467
I10
sS'total_cq'
p468
I10
sa(dp469
g464
I2
sg465
F0.002382993698120117
sg466
F0.005906105041503906
sg467
I2
sg468
I2
sasS'total_cqs'
p470
I10
ssI45
(dp471
S'iters'
p472
I0
sS'meta'
p473
(lp474
sS'total_cqs'
p475
I1
ssI46
(dp476
S'iters'
p477
I1
sS'meta'
p478
(lp479
(dp480
S'objective'
p481
I1
sS'query_time'
p482
F0.7397620677947998
sS'comp_time'
p483
F0.07393884658813477
sS'exec_cq'
p484
I2
sS'total_cq'
p485
I2
sasS'total_cqs'
p486
I2
ssI47
(dp487
S'iters'
p488
I0
sS'meta'
p489
(lp490
sS'total_cqs'
p491
I1
ssI48
(dp492
S'iters'
p493
I0
sS'meta'
p494
(lp495
sS'total_cqs'
p496
I1
ssI49
(dp497
S'iters'
p498
I2
sS'meta'
p499
(lp500
(dp501
S'objective'
p502
I2
sS'query_time'
p503
F26.39507508277893
sS'comp_time'
p504
F20.131102085113525
sS'exec_cq'
p505
I3
sS'total_cq'
p506
I3
sa(dp507
g502
I2
sg503
F0.015470027923583984
sg504
F1.649831771850586
sg505
I2
sg506
I2
sasS'total_cqs'
p508
I3
ssI50
(dp509
S'iters'
p510
I2
sS'meta'
p511
(lp512
(dp513
S'objective'
p514
I48
sS'query_time'
p515
F20.130295038223267
sS'comp_time'
p516
F0.34476709365844727
sS'exec_cq'
p517
I12
sS'total_cq'
p518
I12
sa(dp519
g514
I39
sg515
F5.0067901611328125e-05
sg516
F0.0001537799835205078
sg517
I9
sg518
I9
sasS'total_cqs'
p520
I12
ssI51
(dp521
S'iters'
p522
I2
sS'meta'
p523
(lp524
(dp525
S'objective'
p526
I0
sS'query_time'
p527
F21.12056016921997
sS'comp_time'
p528
F0.1502399444580078
sS'exec_cq'
p529
I12
sS'total_cq'
p530
I12
sa(dp531
g526
I15
sg527
F5.2928924560546875e-05
sg528
F0.0019578933715820312
sg529
I4
sg530
I4
sasS'total_cqs'
p532
I12
ssI52
(dp533
S'iters'
p534
I2
sS'meta'
p535
(lp536
(dp537
S'objective'
p538
I12
sS'query_time'
p539
F1.70607590675354
sS'comp_time'
p540
F0.0006649494171142578
sS'exec_cq'
p541
I12
sS'total_cq'
p542
I12
sa(dp543
g538
I9
sg539
F0.00012087821960449219
sg540
F0.0005452632904052734
sg541
I4
sg542
I4
sasS'total_cqs'
p544
I12
ssI53
(dp545
S'iters'
p546
I2
sS'meta'
p547
(lp548
(dp549
S'objective'
p550
I2
sS'query_time'
p551
F20.034640789031982
sS'comp_time'
p552
F0.01642894744873047
sS'exec_cq'
p553
I3
sS'total_cq'
p554
I3
sa(dp555
g550
I2
sg551
F23.1655170917511
sg552
F0.0020837783813476562
sg553
I2
sg554
I2
sasS'total_cqs'
p556
I3
ssI54
(dp557
S'iters'
p558
I1
sS'meta'
p559
(lp560
(dp561
S'objective'
p562
I5
sS'query_time'
p563
F41.667953968048096
sS'comp_time'
p564
F0.024263381958007812
sS'exec_cq'
p565
I5
sS'total_cq'
p566
I5
sasS'total_cqs'
p567
I5
ssI55
(dp568
S'iters'
p569
I2
sS'meta'
p570
(lp571
(dp572
S'objective'
p573
I17
sS'query_time'
p574
F31.213268995285034
sS'comp_time'
p575
F0.02881598472595215
sS'exec_cq'
p576
I10
sS'total_cq'
p577
I10
sa(dp578
g573
I1
sg574
F0.005344867706298828
sg575
F0.0198972225189209
sg576
I2
sg577
I2
sasS'total_cqs'
p579
I10
ssI56
(dp580
S'iters'
p581
I1
sS'meta'
p582
(lp583
(dp584
S'objective'
p585
I9
sS'query_time'
p586
F36.594645977020264
sS'comp_time'
p587
F0.9383528232574463
sS'exec_cq'
p588
I6
sS'total_cq'
p589
I6
sasS'total_cqs'
p590
I6
ssI57
(dp591
S'iters'
p592
I3
sS'meta'
p593
(lp594
(dp595
S'objective'
p596
I266
sS'query_time'
p597
F17.667420148849487
sS'comp_time'
p598
F0.14326095581054688
sS'exec_cq'
p599
I27
sS'total_cq'
p600
I27
sa(dp601
g596
I256
sg597
F0.030675888061523438
sg598
F0.07066893577575684
sg599
I23
sg600
I23
sa(dp602
g596
I235
sg597
F0.01680302619934082
sg598
F0.08811688423156738
sg599
I21
sg600
I21
sasS'total_cqs'
p603
I27
ssI58
(dp604
S'iters'
p605
I2
sS'meta'
p606
(lp607
(dp608
S'objective'
p609
I23
sS'query_time'
p610
F29.25142478942871
sS'comp_time'
p611
F0.22102117538452148
sS'exec_cq'
p612
I10
sS'total_cq'
p613
I10
sa(dp614
g609
I4
sg610
F0.02356886863708496
sg611
F0.15902495384216309
sg612
I2
sg613
I2
sasS'total_cqs'
p615
I10
ssI59
(dp616
S'iters'
p617
I4
sS'meta'
p618
(lp619
(dp620
S'objective'
p621
I1050
sS'query_time'
p622
F65.93975687026978
sS'comp_time'
p623
F3.6599349975585938
sS'exec_cq'
p624
I59
sS'total_cq'
p625
I59
sa(dp626
g621
I984
sg622
F0.7600228786468506
sg623
F3.354598045349121
sg624
I47
sg625
I47
sa(dp627
g621
I767
sg622
F0.7503199577331543
sg623
F3.1543078422546387
sg624
I41
sg625
I41
sa(dp628
g621
I864
sg622
F0.4552881717681885
sg623
F2.1039390563964844
sg624
I31
sg625
I31
sasS'total_cqs'
p629
I59
ssI60
(dp630
S'iters'
p631
I2
sS'meta'
p632
(lp633
(dp634
S'objective'
p635
I62
sS'query_time'
p636
F34.03135108947754
sS'comp_time'
p637
F0.2017509937286377
sS'exec_cq'
p638
I15
sS'total_cq'
p639
I15
sa(dp640
g635
I1
sg636
F5.817413330078125e-05
sg637
F0.0002589225769042969
sg638
I3
sg639
I3
sasS'total_cqs'
p641
I15
ssI61
(dp642
S'iters'
p643
I2
sS'meta'
p644
(lp645
(dp646
S'objective'
p647
I1
sS'query_time'
p648
F43.57653188705444
sS'comp_time'
p649
F0.03978896141052246
sS'exec_cq'
p650
I17
sS'total_cq'
p651
I17
sa(dp652
g647
I42
sg648
F6.198883056640625e-05
sg649
F0.00018024444580078125
sg650
I6
sg651
I6
sasS'total_cqs'
p653
I17
ssI62
(dp654
S'iters'
p655
I4
sS'meta'
p656
(lp657
(dp658
S'objective'
p659
I9097
sS'query_time'
p660
F39.92408013343811
sS'comp_time'
p661
F1.4628448486328125
sS'exec_cq'
p662
I158
sS'total_cq'
p663
I158
sa(dp664
g659
I7141
sg660
F0.002282857894897461
sg661
F0.10594391822814941
sg662
I138
sg663
I138
sa(dp665
g659
I3675
sg660
F0.0012831687927246094
sg661
F2.0841050148010254
sg662
I114
sg663
I114
sa(dp666
g659
I6014
sg660
F0.0007269382476806641
sg661
F0.011413335800170898
sg662
I80
sg663
I80
sasS'total_cqs'
p667
I158
ssI63
(dp668
S'iters'
p669
I3
sS'meta'
p670
(lp671
(dp672
S'objective'
p673
I2309
sS'query_time'
p674
F67.54134011268616
sS'comp_time'
p675
F0.05641603469848633
sS'exec_cq'
p676
I77
sS'total_cq'
p677
I77
sa(dp678
g673
I1934
sg674
F0.0015020370483398438
sg675
F0.5304620265960693
sg676
I67
sg677
I67
sa(dp679
g673
I2141
sg674
F0.0016188621520996094
sg675
F0.0068628787994384766
sg676
I57
sg677
I57
sasS'total_cqs'
p680
I77
ssI64
(dp681
S'iters'
p682
I10
sS'meta'
p683
(lp684
(dp685
S'objective'
p686
I8122
sS'query_time'
p687
F110.31860208511353
sS'comp_time'
p688
F6.63668417930603
sS'exec_cq'
p689
I135
sS'total_cq'
p690
I135
sa(dp691
g686
I8241
sg687
F1.6876628398895264
sg688
F4.9349751472473145
sg689
I129
sg690
I129
sa(dp692
g686
I8090
sg687
F0.5248360633850098
sg688
F2.635533094406128
sg689
I126
sg690
I126
sa(dp693
g686
I7912
sg687
F0.6067280769348145
sg688
F2.3796229362487793
sg689
I124
sg690
I124
sa(dp694
g686
I7744
sg687
F0.5612640380859375
sg688
F2.6242146492004395
sg689
I122
sg690
I122
sa(dp695
g686
I7601
sg687
F0.6006121635437012
sg688
F2.334162950515747
sg689
I120
sg690
I120
sa(dp696
g686
I7447
sg687
F0.6851208209991455
sg688
F2.3569910526275635
sg689
I118
sg690
I118
sa(dp697
g686
I6555
sg687
F0.5557990074157715
sg688
F2.6097919940948486
sg689
I116
sg690
I116
sa(dp698
g686
I6799
sg687
F0.051553964614868164
sg688
F0.6140468120574951
sg689
I110
sg690
I110
sa(dp699
g686
I6669
sg687
F0.16629505157470703
sg688
F0.5298309326171875
sg689
I108
sg690
I108
sasS'total_cqs'
p700
I135
ssI65
(dp701
S'iters'
p702
I3
sS'meta'
p703
(lp704
(dp705
S'objective'
p706
I269
sS'query_time'
p707
F20.430469036102295
sS'comp_time'
p708
F0.03229022026062012
sS'exec_cq'
p709
I26
sS'total_cq'
p710
I26
sa(dp711
g706
I248
sg707
F0.0009150505065917969
sg708
F0.06672406196594238
sg709
I24
sg710
I24
sa(dp712
g706
I227
sg707
F0.0004699230194091797
sg708
F0.01921391487121582
sg709
I22
sg710
I22
sasS'total_cqs'
p713
I26
ssI66
(dp714
S'iters'
p715
I3
sS'meta'
p716
(lp717
(dp718
S'objective'
p719
I231
sS'query_time'
p720
F21.77576994895935
sS'comp_time'
p721
F0.16855502128601074
sS'exec_cq'
p722
I25
sS'total_cq'
p723
I25
sa(dp724
g719
I226
sg720
F0.00853109359741211
sg721
F0.04494285583496094
sg722
I21
sg723
I21
sa(dp725
g719
I202
sg720
F0.0067729949951171875
sg721
F0.06488919258117676
sg722
I19
sg723
I19
sasS'total_cqs'
p726
I25
ssI67
(dp727
S'iters'
p728
I4
sS'meta'
p729
(lp730
(dp731
S'objective'
p732
I257
sS'query_time'
p733
F4.263370990753174
sS'comp_time'
p734
F0.19695711135864258
sS'exec_cq'
p735
I25
sS'total_cq'
p736
I25
sa(dp737
g732
I233
sg733
F0.032251834869384766
sg734
F0.21709585189819336
sg735
I23
sg736
I23
sa(dp738
g732
I206
sg733
F0.02234506607055664
sg734
F0.1391429901123047
sg735
I21
sg736
I21
sa(dp739
g732
I184
sg733
F0.019320964813232422
sg734
F0.13674688339233398
sg735
I19
sg736
I19
sasS'total_cqs'
p740
I25
ssI68
(dp741
S'iters'
p742
I5
sS'meta'
p743
(lp744
(dp745
S'objective'
p746
I1909
sS'query_time'
p747
F24.59317398071289
sS'comp_time'
p748
F0.0028328895568847656
sS'exec_cq'
p749
I73
sS'total_cq'
p750
I73
sa(dp751
g746
I1617
sg747
F0.000659942626953125
sg748
F0.0022859573364257812
sg749
I63
sg750
I63
sa(dp752
g746
I1289
sg747
F0.00044608116149902344
sg748
F0.0014660358428955078
sg749
I52
sg750
I52
sa(dp753
g746
I1081
sg747
F0.0003437995910644531
sg748
F0.0015270709991455078
sg749
I41
sg750
I41
sa(dp754
g746
I1207
sg747
F0.00029087066650390625
sg748
F0.001196146011352539
sg749
I32
sg750
I32
sasS'total_cqs'
p755
I73
ssI69
(dp756
S'iters'
p757
I5
sS'meta'
p758
(lp759
(dp760
S'objective'
p761
I1496
sS'query_time'
p762
F31.2602219581604
sS'comp_time'
p763
F0.016492843627929688
sS'exec_cq'
p764
I72
sS'total_cq'
p765
I72
sa(dp766
g761
I1188
sg762
F0.0009019374847412109
sg763
F0.0070607662200927734
sg764
I60
sg765
I60
sa(dp767
g761
I967
sg762
F0.00039196014404296875
sg763
F0.005984067916870117
sg764
I49
sg765
I49
sa(dp768
g761
I616
sg762
F0.000244140625
sg763
F0.0073451995849609375
sg764
I39
sg765
I39
sa(dp769
g761
I812
sg762
F0.000164031982421875
sg763
F0.0006628036499023438
sg764
I27
sg765
I27
sasS'total_cqs'
p770
I72
ssI70
(dp771
S'iters'
p772
I7
sS'meta'
p773
(lp774
(dp775
S'objective'
p776
I5537
sS'query_time'
p777
F96.45354700088501
sS'comp_time'
p778
F3.4952096939086914
sS'exec_cq'
p779
I109
sS'total_cq'
p780
I109
sa(dp781
g776
I5418
sg777
F0.7313821315765381
sg778
F3.305219888687134
sg779
I105
sg780
I105
sa(dp782
g776
I5266
sg777
F0.7048900127410889
sg778
F2.68351411819458
sg779
I103
sg780
I103
sa(dp783
g776
I5143
sg777
F0.27805399894714355
sg778
F1.089966058731079
sg779
I99
sg780
I99
sa(dp784
g776
I5004
sg777
F0.2899630069732666
sg778
F1.1112961769104004
sg779
I97
sg780
I97
sa(dp785
g776
I4889
sg777
F0.2282710075378418
sg778
F1.0777201652526855
sg779
I95
sg780
I95
sa(dp786
g776
I4799
sg777
F0.21624183654785156
sg778
F1.9028780460357666
sg779
I93
sg780
I93
sasS'total_cqs'
p787
I109
ssI71
(dp788
S'iters'
p789
I13
sS'meta'
p790
(lp791
(dp792
S'objective'
p793
I157150
sS'query_time'
p794
F73.31447410583496
sS'comp_time'
p795
F5.884050130844116
sS'exec_cq'
p796
I568
sS'total_cq'
p797
I568
sa(dp798
g793
I156391
sg794
F0.8441882133483887
sg795
F2.310124635696411
sg796
I562
sg797
I562
sa(dp799
g793
I156000
sg794
F0.36713385581970215
sg795
F7.0541911125183105
sg796
I556
sg797
I556
sa(dp800
g793
I155129
sg794
F0.31964707374572754
sg795
F1.4413669109344482
sg796
I552
sg797
I552
sa(dp801
g793
I154299
sg794
F0.3352680206298828
sg795
F1.2968122959136963
sg796
I550
sg797
I550
sa(dp802
g793
I153489
sg794
F0.32155799865722656
sg795
F1.4361929893493652
sg796
I548
sg797
I548
sa(dp803
g793
I152668
sg794
F0.33811402320861816
sg795
F1.2909281253814697
sg796
I546
sg797
I546
sa(dp804
g793
I151854
sg794
F0.4192698001861572
sg795
F1.7037551403045654
sg796
I544
sg797
I544
sa(dp805
g793
I151080
sg794
F0.5640828609466553
sg795
F1.5630590915679932
sg796
I542
sg797
I542
sa(dp806
g793
I150334
sg794
F0.424623966217041
sg795
F1.8693287372589111
sg796
I540
sg797
I540
sa(dp807
g793
I149682
sg794
F0.4595060348510742
sg795
F4.069693088531494
sg796
I538
sg797
I538
sa(dp808
g793
I149124
sg794
F0.38019704818725586
sg795
F3.7013931274414062
sg796
I536
sg797
I536
sa(dp809
g793
I148623
sg794
F0.3111710548400879
sg795
F1.2544398307800293
sg796
I534
sg797
I534
sasS'total_cqs'
p810
I568
ssI72
(dp811
S'iters'
p812
I3
sS'meta'
p813
(lp814
(dp815
S'objective'
p816
I7475
sS'query_time'
p817
F21.039116144180298
sS'comp_time'
p818
F0.12865281105041504
sS'exec_cq'
p819
I125
sS'total_cq'
p820
I125
sa(dp821
g816
I7333
sg817
F0.00506591796875
sg818
F0.15215396881103516
sg819
I123
sg820
I123
sa(dp822
g816
I7254
sg817
F0.0016689300537109375
sg818
F0.1312870979309082
sg819
I121
sg820
I121
sasS'total_cqs'
p823
I125
ssI73
(dp824
S'iters'
p825
I6
sS'meta'
p826
(lp827
(dp828
S'objective'
p829
I7471
sS'query_time'
p830
F26.47776699066162
sS'comp_time'
p831
F0.33733415603637695
sS'exec_cq'
p832
I125
sS'total_cq'
p833
I125
sa(dp834
g829
I7329
sg830
F0.08910489082336426
sg831
F0.303325891494751
sg832
I123
sg833
I123
sa(dp835
g829
I7171
sg830
F0.08974313735961914
sg831
F0.3099069595336914
sg832
I121
sg833
I121
sa(dp836
g829
I7064
sg830
F0.03303694725036621
sg831
F0.4210197925567627
sg832
I119
sg833
I119
sa(dp837
g829
I6942
sg830
F0.019284963607788086
sg831
F0.3196849822998047
sg832
I117
sg833
I117
sa(dp838
g829
I6821
sg830
F0.019159793853759766
sg831
F0.18148589134216309
sg832
I115
sg833
I115
sasS'total_cqs'
p839
I125
ssI138
(dp840
S'iters'
p841
I3
sS'meta'
p842
(lp843
(dp844
S'objective'
p845
I1600
sS'query_time'
p846
F1.8631160259246826
sS'comp_time'
p847
F0.0007100105285644531
sS'exec_cq'
p848
I75
sS'total_cq'
p849
I75
sa(dp850
g845
I1833
sg846
F0.00024890899658203125
sg847
F0.0003769397735595703
sg848
I55
sg849
I55
sa(dp851
g845
I1879
sg846
F0.00015282630920410156
sg847
F9.512901306152344e-05
sg848
I52
sg849
I52
sasS'total_cqs'
p852
I75
ssI141
(dp853
S'iters'
p854
I9
sS'meta'
p855
(lp856
(dp857
S'objective'
p858
I62174
sS'query_time'
p859
F40.1325581073761
sS'comp_time'
p860
F0.9734728336334229
sS'exec_cq'
p861
I383
sS'total_cq'
p862
I383
sa(dp863
g858
I57799
sg859
F0.010036945343017578
sg860
F1.0026001930236816
sg861
I354
sg862
I354
sa(dp864
g858
I54577
sg859
F0.0069370269775390625
sg860
F0.9007289409637451
sg861
I325
sg862
I325
sa(dp865
g858
I56112
sg859
F0.0061550140380859375
sg860
F0.1895301342010498
sg861
I301
sg862
I301
sa(dp866
g858
I53321
sg859
F0.0018529891967773438
sg860
F0.06516718864440918
sg861
I295
sg862
I295
sa(dp867
g858
I52120
sg859
F0.001920938491821289
sg860
F0.0530550479888916
sg861
I286
sg862
I286
sa(dp868
g858
I51984
sg859
F0.001399993896484375
sg860
F0.039344072341918945
sg861
I279
sg862
I279
sa(dp869
g858
I44393
sg859
F0.0010769367218017578
sg860
F0.25488710403442383
sg861
I275
sg862
I275
sa(dp870
g858
I47862
sg859
F0.0010499954223632812
sg860
F0.04066801071166992
sg861
I250
sg862
I250
sasS'total_cqs'
p871
I383
ssI139
(dp872
S'iters'
p873
I7
sS'meta'
p874
(lp875
(dp876
S'objective'
p877
I76743
sS'query_time'
p878
F22.330684900283813
sS'comp_time'
p879
F0.2295551300048828
sS'exec_cq'
p880
I425
sS'total_cq'
p881
I425
sa(dp882
g877
I77860
sg878
F0.0032339096069335938
sg879
F0.2086772918701172
sg880
I398
sg881
I398
sa(dp883
g877
I70155
sg878
F0.0026650428771972656
sg879
F0.20601415634155273
sg880
I379
sg881
I379
sa(dp884
g877
I73395
sg878
F0.003874063491821289
sg879
F0.04737281799316406
sg880
I355
sg881
I355
sa(dp885
g877
I70975
sg878
F0.0022439956665039062
sg879
F0.05332803726196289
sg880
I351
sg881
I351
sa(dp886
g877
I71727
sg878
F0.0013508796691894531
sg879
F0.03975677490234375
sg880
I345
sg881
I345
sa(dp887
g877
I71363
sg878
F0.0013079643249511719
sg879
F0.03918099403381348
sg880
I342
sg881
I342
sasS'total_cqs'
p888
I425
ssI142
(dp889
S'iters'
p890
I1
sS'meta'
p891
(lp892
(dp893
S'objective'
p894
I0
sS'query_time'
p895
F21.388598203659058
sS'comp_time'
p896
F0.0031011104583740234
sS'exec_cq'
p897
I3
sS'total_cq'
p898
I3
sasS'total_cqs'
p899
I3
ssI135
(dp900
S'iters'
p901
I2
sS'meta'
p902
(lp903
(dp904
S'objective'
p905
I10
sS'query_time'
p906
F28.87004590034485
sS'comp_time'
p907
F0.8965239524841309
sS'exec_cq'
p908
I7
sS'total_cq'
p909
I7
sa(dp910
g905
I5
sg906
F0.21401596069335938
sg907
F0.8198397159576416
sg908
I2
sg909
I2
sasS'total_cqs'
p911
I7
ssI133
(dp912
S'iters'
p913
I1
sS'meta'
p914
(lp915
(dp916
S'objective'
p917
I1
sS'query_time'
p918
F21.600615978240967
sS'comp_time'
p919
F0.002277851104736328
sS'exec_cq'
p920
I2
sS'total_cq'
p921
I2
sasS'total_cqs'
p922
I2
ssI148
(dp923
S'iters'
p924
I6
sS'meta'
p925
(lp926
(dp927
S'objective'
p928
I55508
sS'query_time'
p929
F30.521486043930054
sS'comp_time'
p930
F0.20650291442871094
sS'exec_cq'
p931
I359
sS'total_cq'
p932
I359
sa(dp933
g928
I50732
sg929
F0.0021140575408935547
sg930
F0.18706297874450684
sg931
I334
sg932
I334
sa(dp934
g928
I48470
sg929
F0.001583099365234375
sg930
F0.16397690773010254
sg931
I308
sg932
I308
sa(dp935
g928
I50366
sg929
F0.001374959945678711
sg930
F0.024554014205932617
sg931
I292
sg932
I292
sa(dp936
g928
I50088
sg929
F0.001116037368774414
sg930
F0.023571014404296875
sg931
I288
sg932
I288
sa(dp937
g928
I49901
sg929
F0.0010440349578857422
sg930
F0.023992061614990234
sg931
I284
sg932
I284
sasS'total_cqs'
p938
I359
ssI140
(dp939
S'iters'
p940
I0
sS'meta'
p941
(lp942
sS'total_cqs'
p943
I1
ssI137
(dp944
S'iters'
p945
I6
sS'meta'
p946
(lp947
(dp948
S'objective'
p949
I70766
sS'query_time'
p950
F34.14461612701416
sS'comp_time'
p951
F0.17041707038879395
sS'exec_cq'
p952
I400
sS'total_cq'
p953
I400
sa(dp954
g949
I65215
sg950
F0.0036399364471435547
sg951
F0.16446590423583984
sg952
I377
sg953
I377
sa(dp955
g949
I60565
sg950
F0.003962993621826172
sg951
F0.18712997436523438
sg952
I356
sg953
I356
sa(dp956
g949
I64061
sg950
F0.0016031265258789062
sg951
F0.03990507125854492
sg952
I328
sg953
I328
sa(dp957
g949
I63719
sg950
F0.0013298988342285156
sg951
F0.03421497344970703
sg952
I325
sg953
I325
sa(dp958
g949
I63439
sg950
F0.0015189647674560547
sg951
F0.03544807434082031
sg952
I321
sg953
I321
sasS'total_cqs'
p959
I400
ssI136
(dp960
S'iters'
p961
I3
sS'meta'
p962
(lp963
(dp964
S'objective'
p965
I503
sS'query_time'
p966
F27.693065881729126
sS'comp_time'
p967
F0.0007638931274414062
sS'exec_cq'
p968
I57
sS'total_cq'
p969
I57
sa(dp970
g965
I910
sg966
F0.00016498565673828125
sg967
F0.0002892017364501953
sg968
I35
sg969
I35
sa(dp971
g965
I880
sg966
F0.00011420249938964844
sg967
F0.00018215179443359375
sg968
I32
sg969
I32
sasS'total_cqs'
p972
I57
ss.