(dp0
I1
(dp1
S'iters'
p2
I1
sS'meta'
p3
(lp4
(dp5
S'objective'
p6
I2
sS'query_time'
p7
F20.02057909965515
sS'comp_time'
p8
F0.002061128616333008
sS'exec_cq'
p9
I4
sS'total_cq'
p10
I4
sasS'total_cqs'
p11
I4
ssI2
(dp12
S'iters'
p13
I1
sS'meta'
p14
(lp15
(dp16
S'objective'
p17
I2
sS'query_time'
p18
F0.033454179763793945
sS'comp_time'
p19
F0.002239227294921875
sS'exec_cq'
p20
I4
sS'total_cq'
p21
I4
sasS'total_cqs'
p22
I4
ssI3
(dp23
S'iters'
p24
I0
sS'meta'
p25
(lp26
sS'total_cqs'
p27
I1
ssI4
(dp28
S'iters'
p29
I0
sS'meta'
p30
(lp31
sS'total_cqs'
p32
I1
ssI5
(dp33
S'iters'
p34
I13
sS'meta'
p35
(lp36
(dp37
S'objective'
p38
I1127
sS'query_time'
p39
F70.86384582519531
sS'comp_time'
p40
F1.0429878234863281
sS'exec_cq'
p41
I54
sS'total_cq'
p42
I54
sa(dp43
g38
I1220
sg39
F0.09544205665588379
sg40
F0.023504018783569336
sg41
I48
sg42
I48
sa(dp44
g38
I1181
sg39
F0.0004801750183105469
sg40
F0.000701904296875
sg41
I46
sg42
I46
sa(dp45
g38
I1158
sg39
F0.0003399848937988281
sg40
F0.00064849853515625
sg41
I45
sg42
I45
sa(dp46
g38
I1140
sg39
F0.00015592575073242188
sg40
F0.00023293495178222656
sg41
I44
sg42
I44
sa(dp47
g38
I1137
sg39
F0.00012874603271484375
sg40
F0.00022721290588378906
sg41
I43
sg42
I43
sa(dp48
g38
I1127
sg39
F0.00010418891906738281
sg40
F0.00011682510375976562
sg41
I42
sg42
I42
sa(dp49
g38
I571
sg39
F2.182925224304199
sg40
F0.00017499923706054688
sg41
I35
sg42
I41
sa(dp50
g38
I743
sg39
F0.02777886390686035
sg40
F0.0005402565002441406
sg41
I32
sg42
I32
sa(dp51
g38
I179
sg39
F0.06183290481567383
sg40
F0.00023698806762695312
sg41
I24
sg42
I30
sa(dp52
g38
I391
sg39
F3.9863879680633545
sg40
F0.0004317760467529297
sg41
I17
sg42
I17
sa(dp53
g38
I362
sg39
F0.0023751258850097656
sg40
F0.000125885009765625
sg41
I15
sg42
I15
sa(dp54
g38
I293
sg39
F0.0055959224700927734
sg40
F0.0001232624053955078
sg41
I14
sg42
I14
sasS'total_cqs'
p55
I54
ssI6
(dp56
S'iters'
p57
I1
sS'meta'
p58
(lp59
(dp60
S'objective'
p61
I2
sS'query_time'
p62
F20.024569988250732
sS'comp_time'
p63
F0.0019822120666503906
sS'exec_cq'
p64
I4
sS'total_cq'
p65
I4
sasS'total_cqs'
p66
I4
ssI7
(dp67
S'iters'
p68
I0
sS'meta'
p69
(lp70
sS'total_cqs'
p71
I1
ssI8
(dp72
S'iters'
p73
I0
sS'meta'
p74
(lp75
sS'total_cqs'
p76
I1
ssI9
(dp77
S'iters'
p78
I1
sS'meta'
p79
(lp80
(dp81
S'objective'
p82
I0
sS'query_time'
p83
F27.24622416496277
sS'comp_time'
p84
F0.018439769744873047
sS'exec_cq'
p85
I3
sS'total_cq'
p86
I3
sasS'total_cqs'
p87
I3
ssI10
(dp88
S'iters'
p89
I1
sS'meta'
p90
(lp91
(dp92
S'objective'
p93
I2
sS'query_time'
p94
F1.2683990001678467
sS'comp_time'
p95
F0.02200627326965332
sS'exec_cq'
p96
I4
sS'total_cq'
p97
I4
sasS'total_cqs'
p98
I4
ssI11
(dp99
S'iters'
p100
I1
sS'meta'
p101
(lp102
(dp103
S'objective'
p104
I14
sS'query_time'
p105
F20.03178572654724
sS'comp_time'
p106
F0.0035753250122070312
sS'exec_cq'
p107
I7
sS'total_cq'
p108
I7
sasS'total_cqs'
p109
I7
ssI12
(dp110
S'iters'
p111
I1
sS'meta'
p112
(lp113
(dp114
S'objective'
p115
I14
sS'query_time'
p116
F20.096389055252075
sS'comp_time'
p117
F0.004306316375732422
sS'exec_cq'
p118
I6
sS'total_cq'
p119
I7
sasS'total_cqs'
p120
I7
ssI13
(dp121
S'iters'
p122
I0
sS'meta'
p123
(lp124
sS'total_cqs'
p125
I1
ssI14
(dp126
S'iters'
p127
I2
sS'meta'
p128
(lp129
(dp130
S'objective'
p131
I229
sS'query_time'
p132
F56.916404724121094
sS'comp_time'
p133
F0.32103633880615234
sS'exec_cq'
p134
I25
sS'total_cq'
p135
I25
sa(dp136
g131
I227
sg132
F0.05617403984069824
sg133
F0.12768101692199707
sg134
I21
sg135
I21
sasS'total_cqs'
p137
I25
ssI15
(dp138
S'iters'
p139
I3
sS'meta'
p140
(lp141
(dp142
S'objective'
p143
I61
sS'query_time'
p144
F21.005290985107422
sS'comp_time'
p145
F0.010746240615844727
sS'exec_cq'
p146
I13
sS'total_cq'
p147
I13
sa(dp148
g143
I18
sg144
F1.4710581302642822
sg145
F0.00021314620971679688
sg146
I11
sg147
I11
sa(dp149
g143
I3
sg144
F0.6453921794891357
sg145
F0.00035881996154785156
sg146
I3
sg147
I3
sasS'total_cqs'
p150
I13
ssI16
(dp151
S'iters'
p152
I3
sS'meta'
p153
(lp154
(dp155
S'objective'
p156
I145
sS'query_time'
p157
F26.600598096847534
sS'comp_time'
p158
F0.3127007484436035
sS'exec_cq'
p159
I17
sS'total_cq'
p160
I17
sa(dp161
g156
I69
sg157
F1.17153000831604
sg158
F0.0001327991485595703
sg159
I16
sg160
I16
sa(dp162
g156
I6
sg157
F0.7937262058258057
sg158
F0.0002875328063964844
sg159
I3
sg160
I3
sasS'total_cqs'
p163
I17
ssI17
(dp164
S'iters'
p165
I2
sS'meta'
p166
(lp167
(dp168
S'objective'
p169
I80
sS'query_time'
p170
F29.379374027252197
sS'comp_time'
p171
F0.015279769897460938
sS'exec_cq'
p172
I16
sS'total_cq'
p173
I16
sa(dp174
g169
I4
sg170
F0.24326181411743164
sg171
F0.0003604888916015625
sg172
I2
sg173
I2
sasS'total_cqs'
p175
I16
ssI18
(dp176
S'iters'
p177
I3
sS'meta'
p178
(lp179
(dp180
S'objective'
p181
I174
sS'query_time'
p182
F20.419209957122803
sS'comp_time'
p183
F0.020913124084472656
sS'exec_cq'
p184
I20
sS'total_cq'
p185
I20
sa(dp186
g181
I116
sg182
F9.177669048309326
sg183
F0.00019979476928710938
sg184
I17
sg185
I17
sa(dp187
g181
I2
sg182
F0.11372208595275879
sg183
F0.0003120899200439453
sg184
I2
sg185
I2
sasS'total_cqs'
p188
I20
ssI19
(dp189
S'iters'
p190
I4
sS'meta'
p191
(lp192
(dp193
S'objective'
p194
I3726
sS'query_time'
p195
F25.875753164291382
sS'comp_time'
p196
F0.6468207836151123
sS'exec_cq'
p197
I88
sS'total_cq'
p198
I88
sa(dp199
g194
I3685
sg195
F0.0003311634063720703
sg196
F0.0004825592041015625
sg197
I86
sg198
I86
sa(dp200
g194
I3447
sg195
F4.569582939147949
sg196
F0.00029015541076660156
sg197
I85
sg198
I85
sa(dp201
g194
I23
sg195
F0.22745299339294434
sg196
F0.004309177398681641
sg197
I2
sg198
I2
sasS'total_cqs'
p202
I88
ssI134
(dp203
S'iters'
p204
I1
sS'meta'
p205
(lp206
(dp207
S'objective'
p208
I1
sS'query_time'
p209
F20.963601112365723
sS'comp_time'
p210
F0.000621795654296875
sS'exec_cq'
p211
I2
sS'total_cq'
p212
I2
sasS'total_cqs'
p213
I2
ssI21
(dp214
S'iters'
p215
I1
sS'meta'
p216
(lp217
(dp218
S'objective'
p219
I5
sS'query_time'
p220
F20.034868955612183
sS'comp_time'
p221
F0.0024690628051757812
sS'exec_cq'
p222
I3
sS'total_cq'
p223
I5
sasS'total_cqs'
p224
I5
ssI22
(dp225
S'iters'
p226
I2
sS'meta'
p227
(lp228
(dp229
S'objective'
p230
I2
sS'query_time'
p231
F26.2807400226593
sS'comp_time'
p232
F0.28934335708618164
sS'exec_cq'
p233
I3
sS'total_cq'
p234
I3
sa(dp235
g230
I2
sg231
F0.10316014289855957
sg232
F9.989738464355469e-05
sg233
I2
sg234
I2
sasS'total_cqs'
p236
I3
ssI23
(dp237
S'iters'
p238
I0
sS'meta'
p239
(lp240
sS'total_cqs'
p241
I1
ssI24
(dp242
S'iters'
p243
I1
sS'meta'
p244
(lp245
(dp246
S'objective'
p247
I0
sS'query_time'
p248
F11.012986183166504
sS'comp_time'
p249
F0.0018031597137451172
sS'exec_cq'
p250
I3
sS'total_cq'
p251
I3
sasS'total_cqs'
p252
I3
ssI25
(dp253
S'iters'
p254
I1
sS'meta'
p255
(lp256
(dp257
S'objective'
p258
I0
sS'query_time'
p259
F8.06308889389038
sS'comp_time'
p260
F0.0014221668243408203
sS'exec_cq'
p261
I3
sS'total_cq'
p262
I3
sasS'total_cqs'
p263
I3
ssI26
(dp264
S'iters'
p265
I0
sS'meta'
p266
(lp267
sS'total_cqs'
p268
I1
ssI27
(dp269
S'iters'
p270
I0
sS'meta'
p271
(lp272
sS'total_cqs'
p273
I1
ssI28
(dp274
S'iters'
p275
I0
sS'meta'
p276
(lp277
sS'total_cqs'
p278
I1
ssI29
(dp279
S'iters'
p280
I1
sS'meta'
p281
(lp282
(dp283
S'objective'
p284
I14
sS'query_time'
p285
F20.018553972244263
sS'comp_time'
p286
F0.0034890174865722656
sS'exec_cq'
p287
I7
sS'total_cq'
p288
I7
sasS'total_cqs'
p289
I7
ssI30
(dp290
S'iters'
p291
I2
sS'meta'
p292
(lp293
(dp294
S'objective'
p295
I10
sS'query_time'
p296
F20.093700170516968
sS'comp_time'
p297
F0.004415750503540039
sS'exec_cq'
p298
I6
sS'total_cq'
p299
I7
sa(dp300
g295
I5
sg296
F6.008148193359375e-05
sg297
F0.0001900196075439453
sg298
I4
sg299
I5
sasS'total_cqs'
p301
I7
ssI31
(dp302
S'iters'
p303
I2
sS'meta'
p304
(lp305
(dp306
S'objective'
p307
I17
sS'query_time'
p308
F2.690885066986084
sS'comp_time'
p309
F0.006190061569213867
sS'exec_cq'
p310
I8
sS'total_cq'
p311
I10
sa(dp312
g307
I1
sg308
F0.04570603370666504
sg309
F0.0005538463592529297
sg310
I2
sg311
I2
sasS'total_cqs'
p313
I10
ssI32
(dp314
S'iters'
p315
I2
sS'meta'
p316
(lp317
(dp318
S'objective'
p319
I19
sS'query_time'
p320
F1.0659570693969727
sS'comp_time'
p321
F0.006294965744018555
sS'exec_cq'
p322
I8
sS'total_cq'
p323
I10
sa(dp324
g319
I2
sg320
F0.23612499237060547
sg321
F0.004254579544067383
sg322
I2
sg323
I2
sasS'total_cqs'
p325
I10
ssI33
(dp326
S'iters'
p327
I2
sS'meta'
p328
(lp329
(dp330
S'objective'
p331
I14
sS'query_time'
p332
F1.048807144165039
sS'comp_time'
p333
F0.006776332855224609
sS'exec_cq'
p334
I8
sS'total_cq'
p335
I11
sa(dp336
g331
I4
sg332
F0.048071861267089844
sg333
F0.0013127326965332031
sg334
I3
sg335
I4
sasS'total_cqs'
p337
I11
ssI34
(dp338
S'iters'
p339
I3
sS'meta'
p340
(lp341
(dp342
S'objective'
p343
I1807
sS'query_time'
p344
F61.08975911140442
sS'comp_time'
p345
F1.050964117050171
sS'exec_cq'
p346
I70
sS'total_cq'
p347
I70
sa(dp348
g343
I1690
sg344
F0.004343748092651367
sg345
F0.0059092044830322266
sg346
I63
sg347
I63
sa(dp349
g343
I1778
sg344
F0.003144979476928711
sg345
F0.00513005256652832
sg346
I57
sg347
I57
sasS'total_cqs'
p350
I70
ssI35
(dp351
S'iters'
p352
I4
sS'meta'
p353
(lp354
(dp355
S'objective'
p356
I1787
sS'query_time'
p357
F40.94700002670288
sS'comp_time'
p358
F1.012260913848877
sS'exec_cq'
p359
I60
sS'total_cq'
p360
I70
sa(dp361
g356
I1660
sg357
F20.762532949447632
sg358
F0.020086050033569336
sg359
I62
sg360
I62
sa(dp362
g356
I1610
sg357
F0.09845209121704102
sg358
F0.013637304306030273
sg359
I56
sg360
I56
sa(dp363
g356
I1614
sg357
F0.007302045822143555
sg358
F0.013361215591430664
sg359
I52
sg360
I52
sasS'total_cqs'
p364
I70
ssI36
(dp365
S'iters'
p366
I2
sS'meta'
p367
(lp368
(dp369
S'objective'
p370
I57
sS'query_time'
p371
F20.40696096420288
sS'comp_time'
p372
F0.03572893142700195
sS'exec_cq'
p373
I15
sS'total_cq'
p374
I17
sa(dp375
g370
I14
sg371
F0.02376103401184082
sg372
F0.0003361701965332031
sg373
I5
sg374
I5
sasS'total_cqs'
p376
I17
ssI37
(dp377
S'iters'
p378
I2
sS'meta'
p379
(lp380
(dp381
S'objective'
p382
I78
sS'query_time'
p383
F20.338553190231323
sS'comp_time'
p384
F0.08240604400634766
sS'exec_cq'
p385
I14
sS'total_cq'
p386
I16
sa(dp387
g382
I3
sg383
F0.027044057846069336
sg384
F0.0003409385681152344
sg385
I2
sg386
I3
sasS'total_cqs'
p388
I16
ssI38
(dp389
S'iters'
p390
I4
sS'meta'
p391
(lp392
(dp393
S'objective'
p394
I1330
sS'query_time'
p395
F40.73436999320984
sS'comp_time'
p396
F0.6585071086883545
sS'exec_cq'
p397
I59
sS'total_cq'
p398
I59
sa(dp399
g394
I1140
sg395
F0.168684720993042
sg396
F0.49885988235473633
sg397
I52
sg398
I52
sa(dp400
g394
I1059
sg395
F0.20856595039367676
sg396
F0.5235519409179688
sg397
I45
sg398
I45
sa(dp401
g394
I1084
sg395
F0.00179290771484375
sg396
F0.002686738967895508
sg397
I39
sg398
I39
sasS'total_cqs'
p402
I59
ssI39
(dp403
S'iters'
p404
I4
sS'meta'
p405
(lp406
(dp407
S'objective'
p408
I2282
sS'query_time'
p409
F29.931286096572876
sS'comp_time'
p410
F0.34099364280700684
sS'exec_cq'
p411
I68
sS'total_cq'
p412
I79
sa(dp413
g408
I1887
sg409
F0.05446600914001465
sg410
F0.04523491859436035
sg411
I58
sg412
I69
sa(dp414
g408
I1556
sg409
F20.0718777179718
sg410
F0.004834175109863281
sg411
I60
sg412
I60
sa(dp415
g408
I1772
sg409
F0.00027489662170410156
sg410
F0.0036690235137939453
sg411
I50
sg412
I50
sasS'total_cqs'
p416
I79
ssI40
(dp417
S'iters'
p418
I4
sS'meta'
p419
(lp420
(dp421
S'objective'
p422
I2056
sS'query_time'
p423
F46.22000598907471
sS'comp_time'
p424
F0.46916627883911133
sS'exec_cq'
p425
I73
sS'total_cq'
p426
I83
sa(dp427
g422
I1595
sg423
F0.0005140304565429688
sg424
F0.0023088455200195312
sg425
I57
sg426
I67
sa(dp428
g422
I1267
sg423
F0.00018715858459472656
sg424
F0.0010061264038085938
sg425
I46
sg426
I56
sa(dp429
g422
I1559
sg423
F0.07640290260314941
sg424
F0.0010628700256347656
sg425
I45
sg426
I45
sasS'total_cqs'
p430
I83
ssI41
(dp431
S'iters'
p432
I1
sS'meta'
p433
(lp434
(dp435
S'objective'
p436
I5
sS'query_time'
p437
F0.09745287895202637
sS'comp_time'
p438
F0.002649068832397461
sS'exec_cq'
p439
I2
sS'total_cq'
p440
I5
sasS'total_cqs'
p441
I5
ssI42
(dp442
S'iters'
p443
I1
sS'meta'
p444
(lp445
(dp446
S'objective'
p447
I0
sS'query_time'
p448
F21.5185489654541
sS'comp_time'
p449
F0.0012679100036621094
sS'exec_cq'
p450
I3
sS'total_cq'
p451
I3
sasS'total_cqs'
p452
I3
ssI43
(dp453
S'iters'
p454
I1
sS'meta'
p455
(lp456
(dp457
S'objective'
p458
I5
sS'query_time'
p459
F0.4331958293914795
sS'comp_time'
p460
F0.014920234680175781
sS'exec_cq'
p461
I5
sS'total_cq'
p462
I5
sasS'total_cqs'
p463
I5
ssI44
(dp464
S'iters'
p465
I3
sS'meta'
p466
(lp467
(dp468
S'objective'
p469
I25
sS'query_time'
p470
F40.033498764038086
sS'comp_time'
p471
F0.005316972732543945
sS'exec_cq'
p472
I10
sS'total_cq'
p473
I10
sa(dp474
g469
I10
sg470
F0.009653091430664062
sg471
F0.00010418891906738281
sg472
I4
sg473
I6
sa(dp475
g469
I5
sg470
F0.002419710159301758
sg471
F0.00010395050048828125
sg472
I2
sg473
I2
sasS'total_cqs'
p476
I10
ssI45
(dp477
S'iters'
p478
I0
sS'meta'
p479
(lp480
sS'total_cqs'
p481
I1
ssI46
(dp482
S'iters'
p483
I1
sS'meta'
p484
(lp485
(dp486
S'objective'
p487
I1
sS'query_time'
p488
F0.8731520175933838
sS'comp_time'
p489
F0.01624298095703125
sS'exec_cq'
p490
I2
sS'total_cq'
p491
I2
sasS'total_cqs'
p492
I2
ssI47
(dp493
S'iters'
p494
I0
sS'meta'
p495
(lp496
sS'total_cqs'
p497
I1
ssI48
(dp498
S'iters'
p499
I0
sS'meta'
p500
(lp501
sS'total_cqs'
p502
I1
ssI49
(dp503
S'iters'
p504
I1
sS'meta'
p505
(lp506
(dp507
S'objective'
p508
I0
sS'query_time'
p509
F24.436662912368774
sS'comp_time'
p510
F0.08290505409240723
sS'exec_cq'
p511
I3
sS'total_cq'
p512
I3
sasS'total_cqs'
p513
I3
ssI50
(dp514
S'iters'
p515
I1
sS'meta'
p516
(lp517
(dp518
S'objective'
p519
I54
sS'query_time'
p520
F17.48965287208557
sS'comp_time'
p521
F0.010772943496704102
sS'exec_cq'
p522
I12
sS'total_cq'
p523
I12
sasS'total_cqs'
p524
I12
ssI51
(dp525
S'iters'
p526
I2
sS'meta'
p527
(lp528
(dp529
S'objective'
p530
I4
sS'query_time'
p531
F21.000006914138794
sS'comp_time'
p532
F0.011298894882202148
sS'exec_cq'
p533
I10
sS'total_cq'
p534
I12
sa(dp535
g530
I17
sg531
F12.187643051147461
sg532
F0.00036215782165527344
sg533
I5
sg534
I5
sasS'total_cqs'
p536
I12
ssI52
(dp537
S'iters'
p538
I2
sS'meta'
p539
(lp540
(dp541
S'objective'
p542
I28
sS'query_time'
p543
F1.4439427852630615
sS'comp_time'
p544
F0.00807499885559082
sS'exec_cq'
p545
I10
sS'total_cq'
p546
I12
sa(dp547
g542
I1
sg543
F0.20031404495239258
sg544
F0.00029778480529785156
sg545
I2
sg546
I4
sasS'total_cqs'
p548
I12
ssI53
(dp549
S'iters'
p550
I2
sS'meta'
p551
(lp552
(dp553
S'objective'
p554
I4
sS'query_time'
p555
F20.05275797843933
sS'comp_time'
p556
F0.0006949901580810547
sS'exec_cq'
p557
I3
sS'total_cq'
p558
I3
sa(dp559
g554
I1
sg555
F23.39495015144348
sg556
F0.00012111663818359375
sg557
I2
sg558
I2
sasS'total_cqs'
p560
I3
ssI54
(dp561
S'iters'
p562
I1
sS'meta'
p563
(lp564
(dp565
S'objective'
p566
I5
sS'query_time'
p567
F35.17599010467529
sS'comp_time'
p568
F0.010612249374389648
sS'exec_cq'
p569
I5
sS'total_cq'
p570
I5
sasS'total_cqs'
p571
I5
ssI55
(dp572
S'iters'
p573
I2
sS'meta'
p574
(lp575
(dp576
S'objective'
p577
I23
sS'query_time'
p578
F26.77493190765381
sS'comp_time'
p579
F0.016668081283569336
sS'exec_cq'
p580
I10
sS'total_cq'
p581
I10
sa(dp582
g577
I4
sg578
F0.006489992141723633
sg579
F0.006755828857421875
sg580
I2
sg581
I2
sasS'total_cqs'
p583
I10
ssI56
(dp584
S'iters'
p585
I1
sS'meta'
p586
(lp587
(dp588
S'objective'
p589
I9
sS'query_time'
p590
F43.11061716079712
sS'comp_time'
p591
F0.3267197608947754
sS'exec_cq'
p592
I5
sS'total_cq'
p593
I6
sasS'total_cqs'
p594
I6
ssI57
(dp595
S'iters'
p596
I2
sS'meta'
p597
(lp598
(dp599
S'objective'
p600
I258
sS'query_time'
p601
F22.38411593437195
sS'comp_time'
p602
F0.11685919761657715
sS'exec_cq'
p603
I27
sS'total_cq'
p604
I27
sa(dp605
g600
I264
sg601
F0.03425884246826172
sg602
F0.10557413101196289
sg603
I23
sg604
I23
sasS'total_cqs'
p606
I27
ssI58
(dp607
S'iters'
p608
I3
sS'meta'
p609
(lp610
(dp611
S'objective'
p612
I9
sS'query_time'
p613
F29.76290798187256
sS'comp_time'
p614
F0.006703853607177734
sS'exec_cq'
p615
I8
sS'total_cq'
p616
I10
sa(dp617
g612
I1
sg613
F0.07930994033813477
sg614
F0.00011801719665527344
sg615
I2
sg616
I4
sa(dp618
g612
I8
sg613
F2.125194787979126
sg614
F0.08575201034545898
sg615
I2
sg616
I2
sasS'total_cqs'
p619
I10
ssI59
(dp620
S'iters'
p621
I5
sS'meta'
p622
(lp623
(dp624
S'objective'
p625
I1252
sS'query_time'
p626
F68.10315585136414
sS'comp_time'
p627
F1.5979433059692383
sS'exec_cq'
p628
I59
sS'total_cq'
p629
I59
sa(dp630
g625
I1119
sg626
F0.5387568473815918
sg627
F1.8003411293029785
sg628
I52
sg629
I52
sa(dp631
g625
I1057
sg626
F0.28655505180358887
sg627
F0.9487001895904541
sg628
I45
sg629
I45
sa(dp632
g625
I1060
sg626
F0.28594398498535156
sg627
F1.0153148174285889
sg628
I38
sg629
I38
sa(dp633
g625
I1005
sg626
F0.31087708473205566
sg627
F0.698206901550293
sg628
I36
sg629
I36
sasS'total_cqs'
p634
I59
ssI60
(dp635
S'iters'
p636
I2
sS'meta'
p637
(lp638
(dp639
S'objective'
p640
I22
sS'query_time'
p641
F35.974032163619995
sS'comp_time'
p642
F0.015178918838500977
sS'exec_cq'
p643
I13
sS'total_cq'
p644
I15
sa(dp645
g640
I19
sg641
F0.5201148986816406
sg642
F0.0003676414489746094
sg643
I4
sg644
I4
sasS'total_cqs'
p646
I15
ssI61
(dp647
S'iters'
p648
I2
sS'meta'
p649
(lp650
(dp651
S'objective'
p652
I27
sS'query_time'
p653
F43.573436975479126
sS'comp_time'
p654
F0.012931108474731445
sS'exec_cq'
p655
I14
sS'total_cq'
p656
I17
sa(dp657
g652
I29
sg653
F0.593599796295166
sg654
F0.0003311634063720703
sg655
I7
sg656
I7
sasS'total_cqs'
p658
I17
ssI62
(dp659
S'iters'
p660
I5
sS'meta'
p661
(lp662
(dp663
S'objective'
p664
I10791
sS'query_time'
p665
F59.42042422294617
sS'comp_time'
p666
F1.178612232208252
sS'exec_cq'
p667
I158
sS'total_cq'
p668
I158
sa(dp669
g664
I10160
sg665
F0.0032548904418945312
sg666
F0.006354808807373047
sg667
I148
sg668
I148
sa(dp670
g664
I10584
sg665
F0.0010421276092529297
sg666
F0.0031402111053466797
sg667
I138
sg668
I138
sa(dp671
g664
I10435
sg665
F0.0009520053863525391
sg666
F0.0019207000732421875
sg667
I136
sg668
I136
sa(dp672
g664
I10277
sg665
F0.0005712509155273438
sg666
F0.0014057159423828125
sg667
I132
sg668
I132
sasS'total_cqs'
p673
I158
ssI63
(dp674
S'iters'
p675
I3
sS'meta'
p676
(lp677
(dp678
S'objective'
p679
I2365
sS'query_time'
p680
F89.01139068603516
sS'comp_time'
p681
F0.26166510581970215
sS'exec_cq'
p682
I77
sS'total_cq'
p683
I77
sa(dp684
g679
I2068
sg680
F0.0016820430755615234
sg681
F0.0024073123931884766
sg682
I70
sg683
I70
sa(dp685
g679
I2222
sg680
F0.0008540153503417969
sg681
F0.0018138885498046875
sg682
I63
sg683
I63
sasS'total_cqs'
p686
I77
ssI64
(dp687
S'iters'
p688
I7
sS'meta'
p689
(lp690
(dp691
S'objective'
p692
I8026
sS'query_time'
p693
F115.85214114189148
sS'comp_time'
p694
F7.643806457519531
sS'exec_cq'
p695
I135
sS'total_cq'
p696
I135
sa(dp697
g692
I8055
sg693
F1.6168029308319092
sg694
F4.959546327590942
sg695
I129
sg696
I129
sa(dp698
g692
I7889
sg693
F0.7357029914855957
sg694
F1.9838271141052246
sg695
I126
sg696
I126
sa(dp699
g692
I7697
sg693
F0.9014971256256104
sg694
F2.009404182434082
sg695
I124
sg696
I124
sa(dp700
g692
I7533
sg693
F0.7673220634460449
sg694
F2.0192081928253174
sg695
I122
sg696
I122
sa(dp701
g692
I7420
sg693
F0.8865342140197754
sg694
F1.847783088684082
sg695
I120
sg696
I120
sa(dp702
g692
I7299
sg693
F0.9261620044708252
sg694
F2.0298986434936523
sg695
I118
sg696
I118
sasS'total_cqs'
p703
I135
ssI65
(dp704
S'iters'
p705
I2
sS'meta'
p706
(lp707
(dp708
S'objective'
p709
I293
sS'query_time'
p710
F40.54340600967407
sS'comp_time'
p711
F0.033119916915893555
sS'exec_cq'
p712
I26
sS'total_cq'
p713
I26
sa(dp714
g709
I270
sg710
F0.0018680095672607422
sg711
F0.003015279769897461
sg712
I24
sg713
I24
sasS'total_cqs'
p715
I26
ssI66
(dp716
S'iters'
p717
I2
sS'meta'
p718
(lp719
(dp720
S'objective'
p721
I263
sS'query_time'
p722
F41.75163793563843
sS'comp_time'
p723
F0.11959147453308105
sS'exec_cq'
p724
I25
sS'total_cq'
p725
I25
sa(dp726
g721
I244
sg722
F0.012733936309814453
sg723
F0.02933955192565918
sg724
I23
sg725
I23
sasS'total_cqs'
p727
I25
ssI67
(dp728
S'iters'
p729
I5
sS'meta'
p730
(lp731
(dp732
S'objective'
p733
I259
sS'query_time'
p734
F6.959872007369995
sS'comp_time'
p735
F0.1722548007965088
sS'exec_cq'
p736
I25
sS'total_cq'
p737
I25
sa(dp738
g733
I228
sg734
F0.03233194351196289
sg735
F0.12309598922729492
sg736
I23
sg737
I23
sa(dp739
g733
I202
sg734
F0.029471874237060547
sg735
F0.12720775604248047
sg736
I21
sg737
I21
sa(dp740
g733
I179
sg734
F0.02880072593688965
sg735
F0.17645835876464844
sg736
I19
sg737
I19
sa(dp741
g733
I155
sg734
F0.005243062973022461
sg735
F0.011210203170776367
sg736
I17
sg737
I17
sasS'total_cqs'
p742
I25
ssI68
(dp743
S'iters'
p744
I5
sS'meta'
p745
(lp746
(dp747
S'objective'
p748
I1951
sS'query_time'
p749
F27.443105936050415
sS'comp_time'
p750
F0.28072571754455566
sS'exec_cq'
p751
I73
sS'total_cq'
p752
I73
sa(dp753
g748
I1608
sg749
F0.0008478164672851562
sg750
F0.0030400753021240234
sg751
I62
sg752
I62
sa(dp754
g748
I1271
sg749
F0.0005090236663818359
sg750
F0.002351045608520508
sg751
I52
sg752
I52
sa(dp755
g748
I975
sg749
F0.00038909912109375
sg750
F0.001706838607788086
sg751
I42
sg752
I42
sa(dp756
g748
I1151
sg749
F0.0002911090850830078
sg750
F0.0011181831359863281
sg751
I32
sg752
I32
sasS'total_cqs'
p757
I73
ssI69
(dp758
S'iters'
p759
I5
sS'meta'
p760
(lp761
(dp762
S'objective'
p763
I1748
sS'query_time'
p764
F32.40539598464966
sS'comp_time'
p765
F0.21875596046447754
sS'exec_cq'
p766
I62
sS'total_cq'
p767
I72
sa(dp768
g763
I1320
sg764
F0.0008339881896972656
sg765
F0.002869844436645508
sg766
I52
sg767
I62
sa(dp769
g763
I896
sg764
F0.0002942085266113281
sg765
F0.0016667842864990234
sg766
I41
sg767
I51
sa(dp770
g763
I631
sg764
F0.0001380443572998047
sg765
F0.0008931159973144531
sg766
I31
sg767
I41
sa(dp771
g763
I834
sg764
F0.05028891563415527
sg765
F0.0009398460388183594
sg766
I30
sg767
I30
sasS'total_cqs'
p772
I72
ssI70
(dp773
S'iters'
p774
I5
sS'meta'
p775
(lp776
(dp777
S'objective'
p778
I5633
sS'query_time'
p779
F98.73065996170044
sS'comp_time'
p780
F3.5617432594299316
sS'exec_cq'
p781
I109
sS'total_cq'
p782
I109
sa(dp783
g778
I5470
sg779
F0.7845349311828613
sg780
F2.7199461460113525
sg781
I105
sg782
I105
sa(dp784
g778
I5394
sg779
F0.3567049503326416
sg780
F1.45827054977417
sg781
I101
sg782
I101
sa(dp785
g778
I5288
sg779
F0.22677206993103027
sg780
F0.7196812629699707
sg781
I99
sg782
I99
sa(dp786
g778
I5185
sg779
F0.2230088710784912
sg780
F0.71183180809021
sg781
I97
sg782
I97
sasS'total_cqs'
p787
I109
ssI71
(dp788
S'iters'
p789
I17
sS'meta'
p790
(lp791
(dp792
S'objective'
p793
I157782
sS'query_time'
p794
F187.460218667984
sS'comp_time'
p795
F28.720839023590088
sS'exec_cq'
p796
I568
sS'total_cq'
p797
I568
sa(dp798
g793
I157017
sg794
F2.509894609451294
sg795
F2.1590359210968018
sg796
I562
sg797
I562
sa(dp799
g793
I156013
sg794
F1.146554946899414
sg795
F2.2246551513671875
sg796
I558
sg797
I558
sa(dp800
g793
I155273
sg794
F0.2198348045349121
sg795
F0.3289473056793213
sg796
I554
sg797
I554
sa(dp801
g793
I154390
sg794
F1.5520920753479004
sg795
F0.42609453201293945
sg796
I552
sg797
I552
sa(dp802
g793
I153669
sg794
F0.21573901176452637
sg795
F1.597900152206421
sg796
I550
sg797
I550
sa(dp803
g793
I152857
sg794
F0.21829605102539062
sg795
F0.3265507221221924
sg796
I548
sg797
I548
sa(dp804
g793
I152053
sg794
F1.452375888824463
sg795
F0.3227417469024658
sg796
I546
sg797
I546
sa(dp805
g793
I151367
sg794
F0.22096014022827148
sg795
F1.6359522342681885
sg796
I544
sg797
I544
sa(dp806
g793
I150639
sg794
F0.10274219512939453
sg795
F0.2536625862121582
sg796
I540
sg797
I540
sa(dp807
g793
I149973
sg794
F0.1008141040802002
sg795
F1.5070228576660156
sg796
I538
sg797
I538
sa(dp808
g793
I149405
sg794
F0.10051369667053223
sg795
F0.24792122840881348
sg796
I536
sg797
I536
sa(dp809
g793
I148834
sg794
F0.10073518753051758
sg795
F1.5015778541564941
sg796
I534
sg797
I534
sa(dp810
g793
I148231
sg794
F0.10244274139404297
sg795
F0.243927001953125
sg796
I532
sg797
I532
sa(dp811
g793
I147674
sg794
F0.10042762756347656
sg795
F0.24458932876586914
sg796
I530
sg797
I530
sa(dp812
g793
I147096
sg794
F0.10265183448791504
sg795
F1.4599061012268066
sg796
I528
sg797
I528
sa(dp813
g793
I146539
sg794
F0.10103774070739746
sg795
F0.24132561683654785
sg796
I526
sg797
I526
sasS'total_cqs'
p814
I568
ssI72
(dp815
S'iters'
p816
I3
sS'meta'
p817
(lp818
(dp819
S'objective'
p820
I7559
sS'query_time'
p821
F21.04494047164917
sS'comp_time'
p822
F0.6158230304718018
sS'exec_cq'
p823
I125
sS'total_cq'
p824
I125
sa(dp825
g820
I7421
sg821
F0.0075092315673828125
sg822
F0.016875505447387695
sg823
I123
sg824
I123
sa(dp826
g820
I7319
sg821
F0.0032579898834228516
sg822
F0.0070629119873046875
sg823
I121
sg824
I121
sasS'total_cqs'
p827
I125
ssI73
(dp828
S'iters'
p829
I3
sS'meta'
p830
(lp831
(dp832
S'objective'
p833
I7589
sS'query_time'
p834
F45.529489040374756
sS'comp_time'
p835
F1.1094026565551758
sS'exec_cq'
p836
I125
sS'total_cq'
p837
I125
sa(dp838
g833
I7462
sg834
F0.1875300407409668
sg835
F0.32529592514038086
sg836
I123
sg837
I123
sa(dp839
g833
I7347
sg834
F0.18843984603881836
sg835
F0.424105167388916
sg836
I121
sg837
I121
sasS'total_cqs'
p840
I125
ssI138
(dp841
S'iters'
p842
I2
sS'meta'
p843
(lp844
(dp845
S'objective'
p846
I1370
sS'query_time'
p847
F1.876429796218872
sS'comp_time'
p848
F0.25383639335632324
sS'exec_cq'
p849
I61
sS'total_cq'
p850
I75
sa(dp851
g846
I1960
sg847
F0.1322951316833496
sg848
F0.0021262168884277344
sg849
I55
sg850
I55
sasS'total_cqs'
p852
I75
ssI141
(dp853
S'iters'
p854
I8
sS'meta'
p855
(lp856
(dp857
S'objective'
p858
I62390
sS'query_time'
p859
F54.3953742980957
sS'comp_time'
p860
F9.64467191696167
sS'exec_cq'
p861
I383
sS'total_cq'
p862
I383
sa(dp863
g858
I58421
sg859
F0.005707979202270508
sg860
F0.03170275688171387
sg861
I360
sg862
I360
sa(dp864
g858
I56618
sg859
F0.0051381587982177734
sg860
F0.025356054306030273
sg861
I337
sg862
I337
sa(dp865
g858
I57165
sg859
F0.004795074462890625
sg860
F0.01900315284729004
sg861
I319
sg862
I319
sa(dp866
g858
I55899
sg859
F0.0013599395751953125
sg860
F0.005221366882324219
sg861
I313
sg862
I313
sa(dp867
g858
I55781
sg859
F0.0011749267578125
sg860
F0.004029750823974609
sg861
I308
sg862
I308
sa(dp868
g858
I55427
sg859
F0.0011029243469238281
sg860
F0.003566265106201172
sg861
I304
sg862
I304
sa(dp869
g858
I55197
sg859
F0.0009641647338867188
sg860
F0.003062009811401367
sg861
I301
sg862
I301
sasS'total_cqs'
p870
I383
ssI139
(dp871
S'iters'
p872
I6
sS'meta'
p873
(lp874
(dp875
S'objective'
p876
I78985
sS'query_time'
p877
F55.23436784744263
sS'comp_time'
p878
F17.645647287368774
sS'exec_cq'
p879
I425
sS'total_cq'
p880
I425
sa(dp881
g876
I77073
sg877
F0.10561490058898926
sg878
F0.07964706420898438
sg879
I398
sg880
I398
sa(dp882
g876
I74134
sg877
F0.0019609928131103516
sg878
F0.010962724685668945
sg879
I377
sg880
I377
sa(dp883
g876
I75396
sg877
F0.0017669200897216797
sg878
F0.01079249382019043
sg879
I358
sg880
I358
sa(dp884
g876
I74906
sg877
F0.0014481544494628906
sg878
F0.0031948089599609375
sg879
I354
sg880
I354
sa(dp885
g876
I74833
sg877
F0.0012240409851074219
sg878
F0.002190828323364258
sg879
I351
sg880
I351
sasS'total_cqs'
p886
I425
ssI142
(dp887
S'iters'
p888
I1
sS'meta'
p889
(lp890
(dp891
S'objective'
p892
I0
sS'query_time'
p893
F21.36758303642273
sS'comp_time'
p894
F0.0007960796356201172
sS'exec_cq'
p895
I3
sS'total_cq'
p896
I3
sasS'total_cqs'
p897
I3
ssI135
(dp898
S'iters'
p899
I2
sS'meta'
p900
(lp901
(dp902
S'objective'
p903
I6
sS'query_time'
p904
F28.182257890701294
sS'comp_time'
p905
F0.4126710891723633
sS'exec_cq'
p906
I7
sS'total_cq'
p907
I7
sa(dp908
g903
I3
sg904
F0.12441396713256836
sg905
F0.3116481304168701
sg906
I2
sg907
I2
sasS'total_cqs'
p909
I7
ssI133
(dp910
S'iters'
p911
I1
sS'meta'
p912
(lp913
(dp914
S'objective'
p915
I1
sS'query_time'
p916
F21.371506929397583
sS'comp_time'
p917
F0.0007750988006591797
sS'exec_cq'
p918
I2
sS'total_cq'
p919
I2
sasS'total_cqs'
p920
I2
ssI148
(dp921
S'iters'
p922
I6
sS'meta'
p923
(lp924
(dp925
S'objective'
p926
I56334
sS'query_time'
p927
F27.04336977005005
sS'comp_time'
p928
F8.253328561782837
sS'exec_cq'
p929
I359
sS'total_cq'
p930
I359
sa(dp931
g926
I52579
sg927
F0.0019412040710449219
sg928
F0.01455998420715332
sg929
I340
sg930
I340
sa(dp932
g926
I52852
sg927
F0.0012178421020507812
sg928
F0.009065866470336914
sg929
I321
sg930
I321
sa(dp933
g926
I52480
sg927
F0.0008969306945800781
sg928
F0.0049953460693359375
sg929
I310
sg930
I310
sa(dp934
g926
I52169
sg927
F0.0007879734039306641
sg928
F0.001744985580444336
sg929
I306
sg930
I306
sa(dp935
g926
I52159
sg927
F0.0006990432739257812
sg928
F0.0010366439819335938
sg929
I302
sg930
I302
sasS'total_cqs'
p936
I359
ssI140
(dp937
S'iters'
p938
I0
sS'meta'
p939
(lp940
sS'total_cqs'
p941
I1
ssI137
(dp942
S'iters'
p943
I7
sS'meta'
p944
(lp945
(dp946
S'objective'
p947
I73264
sS'query_time'
p948
F47.9782018661499
sS'comp_time'
p949
F10.450475692749023
sS'exec_cq'
p950
I400
sS'total_cq'
p951
I400
sa(dp952
g947
I70794
sg948
F0.003938913345336914
sg949
F0.016960859298706055
sg950
I382
sg951
I382
sa(dp953
g947
I68347
sg948
F0.003515958786010742
sg949
F0.01578497886657715
sg950
I366
sg951
I366
sa(dp954
g947
I69213
sg948
F0.0014140605926513672
sg949
F0.00900888442993164
sg950
I351
sg951
I351
sa(dp955
g947
I68332
sg948
F0.0008890628814697266
sg949
F0.0019669532775878906
sg950
I348
sg951
I348
sa(dp956
g947
I67723
sg948
F0.0008533000946044922
sg949
F0.0016636848449707031
sg950
I344
sg951
I344
sa(dp957
g947
I67678
sg948
F0.0008380413055419922
sg949
F0.0010838508605957031
sg950
I341
sg951
I341
sasS'total_cqs'
p958
I400
ssI136
(dp959
S'iters'
p960
I3
sS'meta'
p961
(lp962
(dp963
S'objective'
p964
I485
sS'query_time'
p965
F19.594959020614624
sS'comp_time'
p966
F0.11521387100219727
sS'exec_cq'
p967
I46
sS'total_cq'
p968
I57
sa(dp969
g964
I929
sg965
F0.06476807594299316
sg966
F0.0015530586242675781
sg967
I35
sg968
I35
sa(dp970
g964
I885
sg965
F0.00014495849609375
sg966
F0.00025582313537597656
sg967
I32
sg968
I32
sasS'total_cqs'
p971
I57
ss.