(dp0
I1
(dp1
S'iters'
p2
I1
sS'meta'
p3
(lp4
(dp5
S'objective'
p6
I2
sS'query_time'
p7
F40.21335983276367
sS'comp_time'
p8
F0.0021262168884277344
sS'exec_cq'
p9
I4
sS'total_cq'
p10
I4
sasS'total_cqs'
p11
I4
ssI2
(dp12
S'iters'
p13
I1
sS'meta'
p14
(lp15
(dp16
S'objective'
p17
I2
sS'query_time'
p18
F0.01938915252685547
sS'comp_time'
p19
F0.002171039581298828
sS'exec_cq'
p20
I4
sS'total_cq'
p21
I4
sasS'total_cqs'
p22
I4
ssI3
(dp23
S'iters'
p24
I0
sS'meta'
p25
(lp26
sS'total_cqs'
p27
I1
ssI4
(dp28
S'iters'
p29
I0
sS'meta'
p30
(lp31
sS'total_cqs'
p32
I1
ssI5
(dp33
S'iters'
p34
I4
sS'meta'
p35
(lp36
(dp37
S'objective'
p38
I665
sS'query_time'
p39
F471.4568738937378
sS'comp_time'
p40
F0.5576260089874268
sS'exec_cq'
p41
I44
sS'total_cq'
p42
I54
sa(dp43
g38
I657
sg39
F105.7655577659607
sg40
F1.0542466640472412
sg41
I42
sg42
I42
sa(dp44
g38
I704
sg39
F0.009803056716918945
sg40
F0.022333383560180664
sg41
I36
sg42
I36
sa(dp45
g38
I677
sg39
F0.0005190372467041016
sg40
F0.0014553070068359375
sg41
I34
sg42
I34
sasS'total_cqs'
p46
I54
ssI6
(dp47
S'iters'
p48
I1
sS'meta'
p49
(lp50
(dp51
S'objective'
p52
I2
sS'query_time'
p53
F40.18502187728882
sS'comp_time'
p54
F0.002161264419555664
sS'exec_cq'
p55
I4
sS'total_cq'
p56
I4
sasS'total_cqs'
p57
I4
ssI7
(dp58
S'iters'
p59
I0
sS'meta'
p60
(lp61
sS'total_cqs'
p62
I1
ssI8
(dp63
S'iters'
p64
I0
sS'meta'
p65
(lp66
sS'total_cqs'
p67
I1
ssI9
(dp68
S'iters'
p69
I1
sS'meta'
p70
(lp71
(dp72
S'objective'
p73
I0
sS'query_time'
p74
F28.56922221183777
sS'comp_time'
p75
F0.016995668411254883
sS'exec_cq'
p76
I3
sS'total_cq'
p77
I3
sasS'total_cqs'
p78
I3
ssI10
(dp79
S'iters'
p80
I1
sS'meta'
p81
(lp82
(dp83
S'objective'
p84
I2
sS'query_time'
p85
F1.77656888961792
sS'comp_time'
p86
F0.007504701614379883
sS'exec_cq'
p87
I4
sS'total_cq'
p88
I4
sasS'total_cqs'
p89
I4
ssI11
(dp90
S'iters'
p91
I1
sS'meta'
p92
(lp93
(dp94
S'objective'
p95
I14
sS'query_time'
p96
F76.73875188827515
sS'comp_time'
p97
F0.0035855770111083984
sS'exec_cq'
p98
I7
sS'total_cq'
p99
I7
sasS'total_cqs'
p100
I7
ssI12
(dp101
S'iters'
p102
I2
sS'meta'
p103
(lp104
(dp105
S'objective'
p106
I6
sS'query_time'
p107
F77.04245209693909
sS'comp_time'
p108
F0.004509687423706055
sS'exec_cq'
p109
I6
sS'total_cq'
p110
I7
sa(dp111
g106
I3
sg107
F9.298324584960938e-05
sg108
F0.0002732276916503906
sg109
I4
sg110
I5
sasS'total_cqs'
p112
I7
ssI13
(dp113
S'iters'
p114
I0
sS'meta'
p115
(lp116
sS'total_cqs'
p117
I1
ssI14
(dp118
S'iters'
p119
I2
sS'meta'
p120
(lp121
(dp122
S'objective'
p123
I193
sS'query_time'
p124
F338.0461518764496
sS'comp_time'
p125
F0.39113330841064453
sS'exec_cq'
p126
I25
sS'total_cq'
p127
I25
sa(dp128
g123
I209
sg124
F0.06003379821777344
sg125
F0.22320318222045898
sg126
I21
sg127
I21
sasS'total_cqs'
p129
I25
ssI15
(dp130
S'iters'
p131
I2
sS'meta'
p132
(lp133
(dp134
S'objective'
p135
I47
sS'query_time'
p136
F60.775656938552856
sS'comp_time'
p137
F0.010688066482543945
sS'exec_cq'
p138
I13
sS'total_cq'
p139
I13
sa(dp140
g135
I43
sg136
F8.20159912109375e-05
sg137
F0.0001709461212158203
sg138
I11
sg139
I11
sasS'total_cqs'
p141
I13
ssI16
(dp142
S'iters'
p143
I3
sS'meta'
p144
(lp145
(dp146
S'objective'
p147
I111
sS'query_time'
p148
F227.60687494277954
sS'comp_time'
p149
F0.3110692501068115
sS'exec_cq'
p150
I17
sS'total_cq'
p151
I17
sa(dp152
g147
I96
sg148
F0.13100814819335938
sg149
F0.3553802967071533
sg150
I15
sg151
I15
sa(dp153
g147
I80
sg148
F7.081031799316406e-05
sg149
F0.00023102760314941406
sg150
I13
sg151
I13
sasS'total_cqs'
p154
I17
ssI17
(dp155
S'iters'
p156
I1
sS'meta'
p157
(lp158
(dp159
S'objective'
p160
I104
sS'query_time'
p161
F58.427738904953
sS'comp_time'
p162
F0.014866828918457031
sS'exec_cq'
p163
I16
sS'total_cq'
p164
I16
sasS'total_cqs'
p165
I16
ssI18
(dp166
S'iters'
p167
I3
sS'meta'
p168
(lp169
(dp170
S'objective'
p171
I144
sS'query_time'
p172
F441.83212304115295
sS'comp_time'
p173
F0.5657498836517334
sS'exec_cq'
p174
I20
sS'total_cq'
p175
I20
sa(dp176
g171
I117
sg172
F0.00012302398681640625
sg173
F0.00037789344787597656
sg174
I18
sg175
I18
sa(dp177
g171
I107
sg172
F7.987022399902344e-05
sg173
F0.00028705596923828125
sg174
I16
sg175
I16
sasS'total_cqs'
p178
I20
ssI19
(dp179
S'iters'
p180
I5
sS'meta'
p181
(lp182
(dp183
S'objective'
p184
I3670
sS'query_time'
p185
F1340.3508689403534
sS'comp_time'
p186
F5.537059307098389
sS'exec_cq'
p187
I88
sS'total_cq'
p188
I88
sa(dp189
g184
I3575
sg185
F1.7940189838409424
sg186
F3.3602726459503174
sg187
I86
sg188
I86
sa(dp190
g184
I3474
sg185
F0.9922339916229248
sg186
F2.479177474975586
sg187
I82
sg188
I82
sa(dp191
g184
I3385
sg185
F0.6809680461883545
sg186
F2.1491963863372803
sg187
I80
sg188
I80
sa(dp192
g184
I3306
sg185
F0.6732010841369629
sg186
F1.3538272380828857
sg187
I78
sg188
I78
sasS'total_cqs'
p193
I88
ssI148
(dp194
S'iters'
p195
I6
sS'meta'
p196
(lp197
(dp198
S'objective'
p199
I56532
sS'query_time'
p200
F132.3757839202881
sS'comp_time'
p201
F9.266218900680542
sS'exec_cq'
p202
I359
sS'total_cq'
p203
I359
sa(dp204
g199
I53362
sg200
F0.0023539066314697266
sg201
F0.0500178337097168
sg202
I333
sg203
I333
sa(dp205
g199
I51177
sg200
F0.0015451908111572266
sg201
F0.027346134185791016
sg202
I313
sg203
I313
sa(dp206
g199
I52663
sg200
F0.001071929931640625
sg201
F0.012696981430053711
sg202
I297
sg203
I297
sa(dp207
g199
I52334
sg200
F0.0008187294006347656
sg201
F0.002249002456665039
sg202
I293
sg203
I293
sa(dp208
g199
I52133
sg200
F0.0008561611175537109
sg201
F0.0024232864379882812
sg202
I291
sg203
I291
sasS'total_cqs'
p209
I359
ssI21
(dp210
S'iters'
p211
I1
sS'meta'
p212
(lp213
(dp214
S'objective'
p215
I5
sS'query_time'
p216
F20.31485867500305
sS'comp_time'
p217
F0.0023059844970703125
sS'exec_cq'
p218
I3
sS'total_cq'
p219
I5
sasS'total_cqs'
p220
I5
ssI22
(dp221
S'iters'
p222
I1
sS'meta'
p223
(lp224
(dp225
S'objective'
p226
I0
sS'query_time'
p227
F46.168696880340576
sS'comp_time'
p228
F0.596747875213623
sS'exec_cq'
p229
I3
sS'total_cq'
p230
I3
sasS'total_cqs'
p231
I3
ssI23
(dp232
S'iters'
p233
I0
sS'meta'
p234
(lp235
sS'total_cqs'
p236
I1
ssI24
(dp237
S'iters'
p238
I1
sS'meta'
p239
(lp240
(dp241
S'objective'
p242
I0
sS'query_time'
p243
F7.86941385269165
sS'comp_time'
p244
F0.0019888877868652344
sS'exec_cq'
p245
I3
sS'total_cq'
p246
I3
sasS'total_cqs'
p247
I3
ssI25
(dp248
S'iters'
p249
I1
sS'meta'
p250
(lp251
(dp252
S'objective'
p253
I0
sS'query_time'
p254
F6.168494939804077
sS'comp_time'
p255
F0.001416921615600586
sS'exec_cq'
p256
I3
sS'total_cq'
p257
I3
sasS'total_cqs'
p258
I3
ssI26
(dp259
S'iters'
p260
I0
sS'meta'
p261
(lp262
sS'total_cqs'
p263
I1
ssI27
(dp264
S'iters'
p265
I0
sS'meta'
p266
(lp267
sS'total_cqs'
p268
I1
ssI28
(dp269
S'iters'
p270
I0
sS'meta'
p271
(lp272
sS'total_cqs'
p273
I1
ssI29
(dp274
S'iters'
p275
I1
sS'meta'
p276
(lp277
(dp278
S'objective'
p279
I14
sS'query_time'
p280
F76.76317071914673
sS'comp_time'
p281
F0.0033092498779296875
sS'exec_cq'
p282
I7
sS'total_cq'
p283
I7
sasS'total_cqs'
p284
I7
ssI30
(dp285
S'iters'
p286
I2
sS'meta'
p287
(lp288
(dp289
S'objective'
p290
I10
sS'query_time'
p291
F76.39985489845276
sS'comp_time'
p292
F0.004728078842163086
sS'exec_cq'
p293
I6
sS'total_cq'
p294
I7
sa(dp295
g290
I5
sg291
F8.487701416015625e-05
sg292
F0.00023889541625976562
sg293
I4
sg294
I5
sasS'total_cqs'
p296
I7
ssI31
(dp297
S'iters'
p298
I2
sS'meta'
p299
(lp300
(dp301
S'objective'
p302
I27
sS'query_time'
p303
F2.6118030548095703
sS'comp_time'
p304
F0.005954742431640625
sS'exec_cq'
p305
I8
sS'total_cq'
p306
I10
sa(dp307
g302
I6
sg303
F0.021605968475341797
sg304
F0.00046372413635253906
sg305
I2
sg306
I2
sasS'total_cqs'
p308
I10
ssI32
(dp309
S'iters'
p310
I2
sS'meta'
p311
(lp312
(dp313
S'objective'
p314
I17
sS'query_time'
p315
F0.9521868228912354
sS'comp_time'
p316
F0.006604909896850586
sS'exec_cq'
p317
I8
sS'total_cq'
p318
I10
sa(dp319
g314
I1
sg315
F0.2236180305480957
sg316
F0.003854036331176758
sg317
I2
sg318
I2
sasS'total_cqs'
p320
I10
ssI33
(dp321
S'iters'
p322
I2
sS'meta'
p323
(lp324
(dp325
S'objective'
p326
I22
sS'query_time'
p327
F0.9746930599212646
sS'comp_time'
p328
F0.007119894027709961
sS'exec_cq'
p329
I8
sS'total_cq'
p330
I11
sa(dp331
g326
I0
sg327
F0.04732513427734375
sg328
F0.0012409687042236328
sg329
I3
sg330
I4
sasS'total_cqs'
p332
I11
ssI34
(dp333
S'iters'
p334
I5
sS'meta'
p335
(lp336
(dp337
S'objective'
p338
I1657
sS'query_time'
p339
F431.4579920768738
sS'comp_time'
p340
F0.8039519786834717
sS'exec_cq'
p341
I60
sS'total_cq'
p342
I70
sa(dp343
g338
I1589
sg339
F61.02704405784607
sg340
F0.007901191711425781
sg341
I59
sg342
I59
sa(dp344
g338
I1650
sg339
F0.003660917282104492
sg340
F0.007299184799194336
sg341
I50
sg342
I50
sa(dp345
g338
I1594
sg339
F0.0034782886505126953
sg340
F0.008327245712280273
sg341
I47
sg342
I47
sa(dp346
g338
I1527
sg339
F0.0017170906066894531
sg340
F0.0028541088104248047
sg341
I45
sg342
I45
sasS'total_cqs'
p347
I70
ssI35
(dp348
S'iters'
p349
I5
sS'meta'
p350
(lp351
(dp352
S'objective'
p353
I1845
sS'query_time'
p354
F502.8139319419861
sS'comp_time'
p355
F1.3008170127868652
sS'exec_cq'
p356
I70
sS'total_cq'
p357
I70
sa(dp358
g353
I1561
sg354
F0.04351806640625
sg355
F0.1405470371246338
sg356
I61
sg357
I61
sa(dp359
g353
I1263
sg354
F0.04323983192443848
sg355
F0.05184578895568848
sg356
I51
sg357
I51
sa(dp360
g353
I1151
sg354
F0.11451125144958496
sg355
F0.056848764419555664
sg356
I41
sg357
I41
sa(dp361
g353
I1217
sg354
F0.08610987663269043
sg355
F0.025954723358154297
sg356
I34
sg357
I34
sasS'total_cqs'
p362
I70
ssI36
(dp363
S'iters'
p364
I2
sS'meta'
p365
(lp366
(dp367
S'objective'
p368
I47
sS'query_time'
p369
F19.789384126663208
sS'comp_time'
p370
F0.030281782150268555
sS'exec_cq'
p371
I15
sS'total_cq'
p372
I17
sa(dp373
g368
I19
sg369
F0.01147007942199707
sg370
F0.00043010711669921875
sg371
I5
sg372
I5
sasS'total_cqs'
p374
I17
ssI134
(dp375
S'iters'
p376
I1
sS'meta'
p377
(lp378
(dp379
S'objective'
p380
I1
sS'query_time'
p381
F21.018223762512207
sS'comp_time'
p382
F0.0005335807800292969
sS'exec_cq'
p383
I2
sS'total_cq'
p384
I2
sasS'total_cqs'
p385
I2
ssI38
(dp386
S'iters'
p387
I4
sS'meta'
p388
(lp389
(dp390
S'objective'
p391
I1204
sS'query_time'
p392
F112.80043888092041
sS'comp_time'
p393
F0.5789117813110352
sS'exec_cq'
p394
I59
sS'total_cq'
p395
I59
sa(dp396
g391
I989
sg392
F0.25089383125305176
sg393
F0.5162618160247803
sg394
I51
sg395
I51
sa(dp397
g391
I786
sg392
F0.0017528533935546875
sg393
F0.003488302230834961
sg394
I43
sg395
I43
sa(dp398
g391
I894
sg392
F0.0011470317840576172
sg393
F0.002113819122314453
sg394
I34
sg395
I34
sasS'total_cqs'
p399
I59
ssI39
(dp400
S'iters'
p401
I5
sS'meta'
p402
(lp403
(dp404
S'objective'
p405
I2184
sS'query_time'
p406
F144.46396398544312
sS'comp_time'
p407
F0.33237147331237793
sS'exec_cq'
p408
I68
sS'total_cq'
p409
I79
sa(dp410
g405
I1838
sg406
F20.05413794517517
sg407
F0.013138771057128906
sg408
I68
sg409
I68
sa(dp411
g405
I1743
sg406
F0.0011179447174072266
sg407
F0.006447553634643555
sg408
I58
sg409
I58
sa(dp412
g405
I1839
sg406
F0.0008070468902587891
sg407
F0.0037441253662109375
sg408
I48
sg409
I48
sa(dp413
g405
I1761
sg406
F0.00014901161193847656
sg407
F0.0006144046783447266
sg408
I46
sg409
I46
sasS'total_cqs'
p414
I79
ssI40
(dp415
S'iters'
p416
I4
sS'meta'
p417
(lp418
(dp419
S'objective'
p420
I1780
sS'query_time'
p421
F148.07486510276794
sS'comp_time'
p422
F0.36237454414367676
sS'exec_cq'
p423
I73
sS'total_cq'
p424
I83
sa(dp425
g420
I1471
sg421
F0.0003750324249267578
sg422
F0.002110004425048828
sg423
I55
sg424
I65
sa(dp426
g420
I1112
sg421
F0.00014495849609375
sg422
F0.0008971691131591797
sg423
I44
sg424
I54
sa(dp427
g420
I1416
sg421
F0.050994873046875
sg422
F0.0009355545043945312
sg423
I42
sg424
I42
sasS'total_cqs'
p428
I83
ssI41
(dp429
S'iters'
p430
I1
sS'meta'
p431
(lp432
(dp433
S'objective'
p434
I5
sS'query_time'
p435
F0.10089898109436035
sS'comp_time'
p436
F0.002524852752685547
sS'exec_cq'
p437
I2
sS'total_cq'
p438
I5
sasS'total_cqs'
p439
I5
ssI42
(dp440
S'iters'
p441
I1
sS'meta'
p442
(lp443
(dp444
S'objective'
p445
I0
sS'query_time'
p446
F79.78464603424072
sS'comp_time'
p447
F0.0013232231140136719
sS'exec_cq'
p448
I3
sS'total_cq'
p449
I3
sasS'total_cqs'
p450
I3
ssI43
(dp451
S'iters'
p452
I1
sS'meta'
p453
(lp454
(dp455
S'objective'
p456
I5
sS'query_time'
p457
F0.43926000595092773
sS'comp_time'
p458
F0.016254901885986328
sS'exec_cq'
p459
I5
sS'total_cq'
p460
I5
sasS'total_cqs'
p461
I5
ssI44
(dp462
S'iters'
p463
I2
sS'meta'
p464
(lp465
(dp466
S'objective'
p467
I1
sS'query_time'
p468
F45.63655686378479
sS'comp_time'
p469
F0.005463838577270508
sS'exec_cq'
p470
I8
sS'total_cq'
p471
I10
sa(dp472
g467
I7
sg468
F40.009819984436035
sg469
F0.00022482872009277344
sg470
I2
sg471
I3
sasS'total_cqs'
p473
I10
ssI45
(dp474
S'iters'
p475
I0
sS'meta'
p476
(lp477
sS'total_cqs'
p478
I1
ssI46
(dp479
S'iters'
p480
I1
sS'meta'
p481
(lp482
(dp483
S'objective'
p484
I1
sS'query_time'
p485
F0.8824551105499268
sS'comp_time'
p486
F0.01710200309753418
sS'exec_cq'
p487
I2
sS'total_cq'
p488
I2
sasS'total_cqs'
p489
I2
ssI47
(dp490
S'iters'
p491
I0
sS'meta'
p492
(lp493
sS'total_cqs'
p494
I1
ssI48
(dp495
S'iters'
p496
I0
sS'meta'
p497
(lp498
sS'total_cqs'
p499
I1
ssI49
(dp500
S'iters'
p501
I1
sS'meta'
p502
(lp503
(dp504
S'objective'
p505
I0
sS'query_time'
p506
F42.809093952178955
sS'comp_time'
p507
F0.07652664184570312
sS'exec_cq'
p508
I3
sS'total_cq'
p509
I3
sasS'total_cqs'
p510
I3
ssI50
(dp511
S'iters'
p512
I2
sS'meta'
p513
(lp514
(dp515
S'objective'
p516
I42
sS'query_time'
p517
F8.431571006774902
sS'comp_time'
p518
F0.007626056671142578
sS'exec_cq'
p519
I10
sS'total_cq'
p520
I12
sa(dp521
g516
I36
sg517
F0.013895034790039062
sg518
F0.00023603439331054688
sg519
I9
sg520
I9
sasS'total_cqs'
p522
I12
ssI51
(dp523
S'iters'
p524
I2
sS'meta'
p525
(lp526
(dp527
S'objective'
p528
I18
sS'query_time'
p529
F21.096284866333008
sS'comp_time'
p530
F0.007092952728271484
sS'exec_cq'
p531
I10
sS'total_cq'
p532
I12
sa(dp533
g528
I6
sg529
F11.391407012939453
sg530
F0.0002627372741699219
sg531
I2
sg532
I5
sasS'total_cqs'
p534
I12
ssI52
(dp535
S'iters'
p536
I2
sS'meta'
p537
(lp538
(dp539
S'objective'
p540
I18
sS'query_time'
p541
F1.4358980655670166
sS'comp_time'
p542
F0.009610652923583984
sS'exec_cq'
p543
I10
sS'total_cq'
p544
I12
sa(dp545
g540
I6
sg541
F0.12628984451293945
sg542
F0.00032806396484375
sg543
I2
sg544
I4
sasS'total_cqs'
p546
I12
ssI53
(dp547
S'iters'
p548
I1
sS'meta'
p549
(lp550
(dp551
S'objective'
p552
I0
sS'query_time'
p553
F80.01557207107544
sS'comp_time'
p554
F0.0007448196411132812
sS'exec_cq'
p555
I3
sS'total_cq'
p556
I3
sasS'total_cqs'
p557
I3
ssI54
(dp558
S'iters'
p559
I1
sS'meta'
p560
(lp561
(dp562
S'objective'
p563
I5
sS'query_time'
p564
F77.6634111404419
sS'comp_time'
p565
F0.009408950805664062
sS'exec_cq'
p566
I5
sS'total_cq'
p567
I5
sasS'total_cqs'
p568
I5
ssI55
(dp569
S'iters'
p570
I2
sS'meta'
p571
(lp572
(dp573
S'objective'
p574
I23
sS'query_time'
p575
F205.2399458885193
sS'comp_time'
p576
F0.016524791717529297
sS'exec_cq'
p577
I10
sS'total_cq'
p578
I10
sa(dp579
g574
I4
sg575
F0.0047800540924072266
sg576
F0.005950212478637695
sg577
I2
sg578
I2
sasS'total_cqs'
p580
I10
ssI56
(dp581
S'iters'
p582
I3
sS'meta'
p583
(lp584
(dp585
S'objective'
p586
I9
sS'query_time'
p587
F30.914191007614136
sS'comp_time'
p588
F0.555687665939331
sS'exec_cq'
p589
I5
sS'total_cq'
p590
I6
sa(dp591
g586
I3
sg587
F1.6350319385528564
sg588
F0.08173942565917969
sg589
I4
sg590
I4
sa(dp592
g586
I3
sg587
F3.504753112792969e-05
sg588
F0.000141143798828125
sg589
I1
sg590
I2
sasS'total_cqs'
p593
I6
ssI57
(dp594
S'iters'
p595
I2
sS'meta'
p596
(lp597
(dp598
S'objective'
p599
I244
sS'query_time'
p600
F17.494781970977783
sS'comp_time'
p601
F0.13524580001831055
sS'exec_cq'
p602
I27
sS'total_cq'
p603
I27
sa(dp604
g599
I257
sg600
F0.06817197799682617
sg601
F0.07818913459777832
sg602
I23
sg603
I23
sasS'total_cqs'
p605
I27
ssI58
(dp606
S'iters'
p607
I2
sS'meta'
p608
(lp609
(dp610
S'objective'
p611
I13
sS'query_time'
p612
F44.88011598587036
sS'comp_time'
p613
F0.00795435905456543
sS'exec_cq'
p614
I8
sS'total_cq'
p615
I10
sa(dp616
g611
I1
sg612
F2.4214727878570557
sg613
F0.08143162727355957
sg614
I2
sg615
I3
sasS'total_cqs'
p617
I10
ssI59
(dp618
S'iters'
p619
I6
sS'meta'
p620
(lp621
(dp622
S'objective'
p623
I1050
sS'query_time'
p624
F293.5660209655762
sS'comp_time'
p625
F0.6845681667327881
sS'exec_cq'
p626
I49
sS'total_cq'
p627
I59
sa(dp628
g623
I892
sg624
F0.21907591819763184
sg625
F0.48360776901245117
sg626
I37
sg627
I47
sa(dp629
g623
I659
sg624
F0.1847209930419922
sg625
F0.495358943939209
sg626
I29
sg627
I39
sa(dp630
g623
I751
sg624
F16.93707799911499
sg625
F1.3519039154052734
sg626
I32
sg627
I32
sa(dp631
g623
I696
sg624
F0.39614295959472656
sg625
F1.0084948539733887
sg626
I30
sg627
I30
sa(dp632
g623
I644
sg624
F0.24818205833435059
sg625
F0.7843780517578125
sg626
I28
sg627
I28
sasS'total_cqs'
p633
I59
ssI60
(dp634
S'iters'
p635
I2
sS'meta'
p636
(lp637
(dp638
S'objective'
p639
I42
sS'query_time'
p640
F50.6683349609375
sS'comp_time'
p641
F0.021767616271972656
sS'exec_cq'
p642
I13
sS'total_cq'
p643
I15
sa(dp644
g639
I9
sg640
F0.6899030208587646
sg641
F0.0004038810729980469
sg642
I2
sg643
I4
sasS'total_cqs'
p645
I15
ssI61
(dp646
S'iters'
p647
I2
sS'meta'
p648
(lp649
(dp650
S'objective'
p651
I11
sS'query_time'
p652
F44.419066190719604
sS'comp_time'
p653
F0.01365208625793457
sS'exec_cq'
p654
I14
sS'total_cq'
p655
I17
sa(dp656
g651
I37
sg652
F1.2838528156280518
sg653
F0.00040912628173828125
sg654
I7
sg655
I7
sasS'total_cqs'
p657
I17
ssI62
(dp658
S'iters'
p659
I7
sS'meta'
p660
(lp661
(dp662
S'objective'
p663
I8547
sS'query_time'
p664
F669.9480299949646
sS'comp_time'
p665
F1.5017921924591064
sS'exec_cq'
p666
I137
sS'total_cq'
p667
I158
sa(dp668
g663
I6734
sg664
F0.33144283294677734
sg665
F0.11892509460449219
sg666
I116
sg667
I137
sa(dp669
g663
I5518
sg664
F27.413209915161133
sg665
F0.2042248249053955
sg666
I116
sg667
I116
sa(dp670
g663
I6311
sg664
F0.0009949207305908203
sg665
F0.005040168762207031
sg666
I95
sg667
I95
sa(dp671
g663
I6188
sg664
F0.000720977783203125
sg665
F0.002566099166870117
sg666
I87
sg667
I87
sa(dp672
g663
I6062
sg664
F0.0006940364837646484
sg665
F0.001970052719116211
sg666
I85
sg667
I85
sa(dp673
g663
I5936
sg664
F0.0007319450378417969
sg665
F0.001661539077758789
sg666
I83
sg667
I83
sasS'total_cqs'
p674
I158
ssI63
(dp675
S'iters'
p676
I4
sS'meta'
p677
(lp678
(dp679
S'objective'
p680
I2093
sS'query_time'
p681
F283.4669201374054
sS'comp_time'
p682
F0.21418976783752441
sS'exec_cq'
p683
I77
sS'total_cq'
p684
I77
sa(dp685
g680
I1728
sg681
F0.0432889461517334
sg682
F0.030855417251586914
sg683
I67
sg684
I67
sa(dp686
g680
I1482
sg681
F0.0015211105346679688
sg682
F0.004559755325317383
sg683
I57
sg684
I57
sa(dp687
g680
I1656
sg681
F0.0008158683776855469
sg682
F0.0031168460845947266
sg683
I48
sg684
I48
sasS'total_cqs'
p688
I77
ssI64
(dp689
S'iters'
p690
I9
sS'meta'
p691
(lp692
(dp693
S'objective'
p694
I8138
sS'query_time'
p695
F942.5755491256714
sS'comp_time'
p696
F8.176806926727295
sS'exec_cq'
p697
I135
sS'total_cq'
p698
I135
sa(dp699
g694
I8229
sg695
F1.4291939735412598
sg696
F5.665956258773804
sg697
I129
sg698
I129
sa(dp700
g694
I8050
sg695
F1.7926263809204102
sg696
F4.999562978744507
sg697
I127
sg698
I127
sa(dp701
g694
I7889
sg695
F2.5653276443481445
sg696
F5.027946472167969
sg697
I125
sg698
I125
sa(dp702
g694
I7738
sg695
F1.9367105960845947
sg696
F5.064452171325684
sg697
I123
sg698
I123
sa(dp703
g694
I7573
sg695
F0.5445652008056641
sg696
F2.3599283695220947
sg697
I120
sg698
I120
sa(dp704
g694
I7420
sg695
F0.9312520027160645
sg696
F2.1278538703918457
sg697
I118
sg698
I118
sa(dp705
g694
I7283
sg695
F0.7679970264434814
sg696
F2.116478681564331
sg697
I116
sg698
I116
sa(dp706
g694
I7161
sg695
F1.0498719215393066
sg696
F2.169917106628418
sg697
I114
sg698
I114
sasS'total_cqs'
p707
I135
ssI65
(dp708
S'iters'
p709
I2
sS'meta'
p710
(lp711
(dp712
S'objective'
p713
I297
sS'query_time'
p714
F264.8117628097534
sS'comp_time'
p715
F0.032965660095214844
sS'exec_cq'
p716
I26
sS'total_cq'
p717
I26
sa(dp718
g713
I272
sg714
F0.0018320083618164062
sg715
F0.0034339427947998047
sg716
I24
sg717
I24
sasS'total_cqs'
p719
I26
ssI66
(dp720
S'iters'
p721
I2
sS'meta'
p722
(lp723
(dp724
S'objective'
p725
I247
sS'query_time'
p726
F183.30647492408752
sS'comp_time'
p727
F0.10289645195007324
sS'exec_cq'
p728
I25
sS'total_cq'
p729
I25
sa(dp730
g725
I236
sg726
F0.013728857040405273
sg727
F0.03192615509033203
sg728
I23
sg729
I23
sasS'total_cqs'
p731
I25
ssI67
(dp732
S'iters'
p733
I4
sS'meta'
p734
(lp735
(dp736
S'objective'
p737
I259
sS'query_time'
p738
F3.141786813735962
sS'comp_time'
p739
F0.1748204231262207
sS'exec_cq'
p740
I25
sS'total_cq'
p741
I25
sa(dp742
g737
I230
sg738
F0.06920099258422852
sg739
F0.10065245628356934
sg740
I23
sg741
I23
sa(dp743
g737
I201
sg738
F0.06685709953308105
sg739
F0.0792238712310791
sg740
I21
sg741
I21
sa(dp744
g737
I181
sg738
F0.050695180892944336
sg739
F0.11105942726135254
sg740
I19
sg741
I19
sasS'total_cqs'
p745
I25
ssI68
(dp746
S'iters'
p747
I5
sS'meta'
p748
(lp749
(dp750
S'objective'
p751
I1827
sS'query_time'
p752
F24.63898777961731
sS'comp_time'
p753
F0.2667813301086426
sS'exec_cq'
p754
I73
sS'total_cq'
p755
I73
sa(dp756
g751
I1434
sg752
F0.000701904296875
sg753
F0.002599000930786133
sg754
I63
sg755
I63
sa(dp757
g751
I1101
sg752
F0.0004870891571044922
sg753
F0.0022821426391601562
sg754
I52
sg755
I52
sa(dp758
g751
I867
sg752
F0.0003917217254638672
sg753
F0.0016591548919677734
sg754
I42
sg755
I42
sa(dp759
g751
I1025
sg752
F0.0003108978271484375
sg753
F0.001178741455078125
sg754
I32
sg755
I32
sasS'total_cqs'
p760
I73
ssI69
(dp761
S'iters'
p762
I5
sS'meta'
p763
(lp764
(dp765
S'objective'
p766
I1770
sS'query_time'
p767
F40.94091820716858
sS'comp_time'
p768
F0.22739887237548828
sS'exec_cq'
p769
I72
sS'total_cq'
p770
I72
sa(dp771
g766
I1351
sg767
F0.0008938312530517578
sg768
F0.0026328563690185547
sg769
I62
sg770
I62
sa(dp772
g766
I997
sg767
F0.0007390975952148438
sg768
F0.0022118091583251953
sg769
I50
sg770
I50
sa(dp773
g766
I696
sg767
F0.0006699562072753906
sg768
F0.0022079944610595703
sg769
I38
sg770
I38
sa(dp774
g766
I897
sg767
F0.00017404556274414062
sg768
F0.0007448196411132812
sg769
I27
sg770
I27
sasS'total_cqs'
p775
I72
ssI70
(dp776
S'iters'
p777
I5
sS'meta'
p778
(lp779
(dp780
S'objective'
p781
I5353
sS'query_time'
p782
F928.60289478302
sS'comp_time'
p783
F3.702221155166626
sS'exec_cq'
p784
I109
sS'total_cq'
p785
I109
sa(dp786
g781
I5342
sg782
F0.23827481269836426
sg783
F1.3104679584503174
sg784
I105
sg785
I105
sa(dp787
g781
I5198
sg782
F0.4196193218231201
sg783
F1.5237150192260742
sg784
I103
sg785
I103
sa(dp788
g781
I5117
sg782
F0.313831090927124
sg783
F1.4206748008728027
sg784
I100
sg785
I100
sa(dp789
g781
I5017
sg782
F0.33494997024536133
sg783
F1.4435863494873047
sg784
I98
sg785
I98
sasS'total_cqs'
p790
I109
ssI71
(dp791
S'iters'
p792
I25
sS'meta'
p793
(lp794
(dp795
S'objective'
p796
I157088
sS'query_time'
p797
F1205.3166501522064
sS'comp_time'
p798
F46.31777596473694
sS'exec_cq'
p799
I568
sS'total_cq'
p800
I568
sa(dp801
g796
I155676
sg797
F7.970487117767334
sg798
F21.28959321975708
sg799
I562
sg800
I562
sa(dp802
g796
I155069
sg797
F8.894200086593628
sg798
F22.21685552597046
sg799
I554
sg800
I554
sa(dp803
g796
I154097
sg797
F9.102444171905518
sg798
F18.2570161819458
sg799
I550
sg800
I550
sa(dp804
g796
I153149
sg797
F6.267790079116821
sg798
F13.765619277954102
sg799
I547
sg800
I547
sa(dp805
g796
I152153
sg797
F5.975113153457642
sg798
F15.979284048080444
sg799
I545
sg800
I545
sa(dp806
g796
I151280
sg797
F6.1101391315460205
sg798
F13.883958101272583
sg799
I543
sg800
I543
sa(dp807
g796
I150345
sg797
F7.1409900188446045
sg798
F12.557831764221191
sg799
I540
sg800
I540
sa(dp808
g796
I149575
sg797
F7.287496089935303
sg798
F12.677716732025146
sg799
I538
sg800
I538
sa(dp809
g796
I148833
sg797
F5.4528868198394775
sg798
F12.629655838012695
sg799
I536
sg800
I536
sa(dp810
g796
I148165
sg797
F7.095130205154419
sg798
F12.678134679794312
sg799
I534
sg800
I534
sa(dp811
g796
I147434
sg797
F5.223620176315308
sg798
F14.671791791915894
sg799
I532
sg800
I532
sa(dp812
g796
I146722
sg797
F3.712873697280884
sg798
F14.778846025466919
sg799
I530
sg800
I530
sa(dp813
g796
I146022
sg797
F3.5218899250030518
sg798
F12.90062689781189
sg799
I528
sg800
I528
sa(dp814
g796
I145343
sg797
F8.731913089752197
sg798
F10.976189136505127
sg799
I526
sg800
I526
sa(dp815
g796
I144666
sg797
F4.67582106590271
sg798
F6.8042097091674805
sg799
I524
sg800
I524
sa(dp816
g796
I143996
sg797
F2.7144429683685303
sg798
F10.672104120254517
sg799
I522
sg800
I522
sa(dp817
g796
I143332
sg797
F1.31109619140625
sg798
F10.197076082229614
sg799
I520
sg800
I520
sa(dp818
g796
I142685
sg797
F5.092051029205322
sg798
F8.665788173675537
sg799
I518
sg800
I518
sa(dp819
g796
I142056
sg797
F0.8498730659484863
sg798
F7.11474347114563
sg799
I516
sg800
I516
sa(dp820
g796
I141416
sg797
F0.7921860218048096
sg798
F7.401257038116455
sg799
I514
sg800
I514
sa(dp821
g796
I140782
sg797
F2.4963676929473877
sg798
F7.122239351272583
sg799
I512
sg800
I512
sa(dp822
g796
I140278
sg797
F2.619539976119995
sg798
F5.283285617828369
sg799
I510
sg800
I510
sa(dp823
g796
I139709
sg797
F0.8524007797241211
sg798
F7.048588514328003
sg799
I508
sg800
I508
sa(dp824
g796
I139143
sg797
F4.1984758377075195
sg798
F5.311100959777832
sg799
I506
sg800
I506
sasS'total_cqs'
p825
I568
ssI72
(dp826
S'iters'
p827
I3
sS'meta'
p828
(lp829
(dp830
S'objective'
p831
I7517
sS'query_time'
p832
F1169.7786149978638
sS'comp_time'
p833
F0.7475402355194092
sS'exec_cq'
p834
I125
sS'total_cq'
p835
I125
sa(dp836
g831
I7402
sg832
F0.009148120880126953
sg833
F0.022953510284423828
sg834
I123
sg835
I123
sa(dp837
g831
I7299
sg832
F0.00829315185546875
sg833
F0.02156233787536621
sg834
I121
sg835
I121
sasS'total_cqs'
p838
I125
ssI73
(dp839
S'iters'
p840
I8
sS'meta'
p841
(lp842
(dp843
S'objective'
p844
I7391
sS'query_time'
p845
F896.3448989391327
sS'comp_time'
p846
F1.1910395622253418
sS'exec_cq'
p847
I125
sS'total_cq'
p848
I125
sa(dp849
g844
I7233
sg845
F0.09473514556884766
sg846
F0.44480109214782715
sg847
I123
sg848
I123
sa(dp850
g844
I7043
sg845
F0.08771800994873047
sg846
F0.45528435707092285
sg847
I121
sg848
I121
sa(dp851
g844
I6858
sg845
F0.16640472412109375
sg846
F0.2748887538909912
sg847
I119
sg848
I119
sa(dp852
g844
I6732
sg845
F0.07415103912353516
sg846
F0.2720019817352295
sg847
I117
sg848
I117
sa(dp853
g844
I6582
sg845
F0.1741800308227539
sg846
F0.24369478225708008
sg847
I115
sg848
I115
sa(dp854
g844
I6446
sg845
F0.05974411964416504
sg846
F0.2508978843688965
sg847
I113
sg848
I113
sa(dp855
g844
I6341
sg845
F0.17988872528076172
sg846
F0.29864978790283203
sg847
I111
sg848
I111
sasS'total_cqs'
p856
I125
ssI138
(dp857
S'iters'
p858
I3
sS'meta'
p859
(lp860
(dp861
S'objective'
p862
I1480
sS'query_time'
p863
F2.0051188468933105
sS'comp_time'
p864
F0.24126839637756348
sS'exec_cq'
p865
I61
sS'total_cq'
p866
I75
sa(dp867
g862
I1907
sg863
F0.06178903579711914
sg864
F0.0018808841705322266
sg865
I55
sg866
I55
sa(dp868
g862
I1886
sg863
F0.00017976760864257812
sg864
F0.0002338886260986328
sg865
I52
sg866
I52
sasS'total_cqs'
p869
I75
ssI141
(dp870
S'iters'
p871
I11
sS'meta'
p872
(lp873
(dp874
S'objective'
p875
I57924
sS'query_time'
p876
F505.95586800575256
sS'comp_time'
p877
F9.78813123703003
sS'exec_cq'
p878
I383
sS'total_cq'
p879
I383
sa(dp880
g875
I55202
sg876
F0.01009225845336914
sg877
F0.0475926399230957
sg878
I345
sg879
I345
sa(dp881
g875
I52328
sg876
F0.006617069244384766
sg877
F0.027065753936767578
sg878
I317
sg879
I317
sa(dp882
g875
I51787
sg876
F0.0061070919036865234
sg877
F0.021157503128051758
sg878
I298
sg879
I298
sa(dp883
g875
I51712
sg876
F0.005003929138183594
sg877
F0.012305259704589844
sg878
I285
sg879
I285
sa(dp884
g875
I50876
sg876
F0.004938840866088867
sg877
F0.009783029556274414
sg878
I278
sg879
I278
sa(dp885
g875
I49875
sg876
F0.0013322830200195312
sg877
F0.0056798458099365234
sg878
I272
sg879
I272
sa(dp886
g875
I48906
sg876
F0.0007011890411376953
sg877
F0.0029082298278808594
sg878
I267
sg879
I267
sa(dp887
g875
I48824
sg876
F0.0006480216979980469
sg877
F0.0019791126251220703
sg878
I263
sg879
I263
sa(dp888
g875
I48405
sg876
F0.0006299018859863281
sg877
F0.0016720294952392578
sg878
I261
sg879
I261
sa(dp889
g875
I48116
sg876
F0.0006220340728759766
sg877
F0.0018267631530761719
sg878
I259
sg879
I259
sasS'total_cqs'
p890
I383
ssI139
(dp891
S'iters'
p892
I7
sS'meta'
p893
(lp894
(dp895
S'objective'
p896
I79613
sS'query_time'
p897
F125.93044781684875
sS'comp_time'
p898
F17.81878972053528
sS'exec_cq'
p899
I425
sS'total_cq'
p900
I425
sa(dp901
g896
I74227
sg897
F0.4731581211090088
sg898
F1.7816107273101807
sg899
I398
sg900
I398
sa(dp902
g896
I69326
sg897
F1.3357861042022705
sg898
F1.7345249652862549
sg899
I375
sg900
I375
sa(dp903
g896
I72985
sg897
F0.3342761993408203
sg898
F1.9017126560211182
sg899
I356
sg900
I356
sa(dp904
g896
I72452
sg897
F0.0012118816375732422
sg898
F0.002733945846557617
sg899
I352
sg900
I352
sa(dp905
g896
I72004
sg897
F0.0008521080017089844
sg898
F0.002076864242553711
sg899
I348
sg900
I348
sa(dp906
g896
I71699
sg897
F0.0008058547973632812
sg898
F0.001310110092163086
sg899
I345
sg900
I345
sasS'total_cqs'
p907
I425
ssI142
(dp908
S'iters'
p909
I1
sS'meta'
p910
(lp911
(dp912
S'objective'
p913
I0
sS'query_time'
p914
F61.97948408126831
sS'comp_time'
p915
F0.0008130073547363281
sS'exec_cq'
p916
I3
sS'total_cq'
p917
I3
sasS'total_cqs'
p918
I3
ssI135
(dp919
S'iters'
p920
I2
sS'meta'
p921
(lp922
(dp923
S'objective'
p924
I4
sS'query_time'
p925
F51.515429973602295
sS'comp_time'
p926
F0.6091644763946533
sS'exec_cq'
p927
I7
sS'total_cq'
p928
I7
sa(dp929
g924
I2
sg925
F0.16229796409606934
sg926
F0.394528865814209
sg927
I2
sg928
I2
sasS'total_cqs'
p930
I7
ssI37
(dp931
S'iters'
p932
I2
sS'meta'
p933
(lp934
(dp935
S'objective'
p936
I74
sS'query_time'
p937
F21.691627025604248
sS'comp_time'
p938
F0.0848689079284668
sS'exec_cq'
p939
I14
sS'total_cq'
p940
I16
sa(dp941
g936
I1
sg937
F0.012515068054199219
sg938
F0.00037169456481933594
sg939
I2
sg940
I3
sasS'total_cqs'
p942
I16
ssI133
(dp943
S'iters'
p944
I1
sS'meta'
p945
(lp946
(dp947
S'objective'
p948
I1
sS'query_time'
p949
F21.756727933883667
sS'comp_time'
p950
F0.0005948543548583984
sS'exec_cq'
p951
I2
sS'total_cq'
p952
I2
sasS'total_cqs'
p953
I2
ssI140
(dp954
S'iters'
p955
I0
sS'meta'
p956
(lp957
sS'total_cqs'
p958
I1
ssI137
(dp959
S'iters'
p960
I8
sS'meta'
p961
(lp962
(dp963
S'objective'
p964
I72032
sS'query_time'
p965
F313.58823800086975
sS'comp_time'
p966
F11.73630404472351
sS'exec_cq'
p967
I400
sS'total_cq'
p968
I400
sa(dp969
g964
I68044
sg965
F0.03409409523010254
sg966
F0.04628348350524902
sg967
I380
sg968
I380
sa(dp970
g964
I64894
sg965
F0.03445577621459961
sg966
F0.7711977958679199
sg967
I359
sg968
I359
sa(dp971
g964
I66445
sg965
F0.03229093551635742
sg966
F0.03553628921508789
sg967
I339
sg968
I339
sa(dp972
g964
I65502
sg965
F0.03244614601135254
sg966
F0.04477381706237793
sg967
I335
sg968
I335
sa(dp973
g964
I64724
sg965
F0.0010638236999511719
sg966
F0.0020830631256103516
sg967
I330
sg968
I330
sa(dp974
g964
I64676
sg965
F0.0008556842803955078
sg966
F0.003364086151123047
sg967
I324
sg968
I324
sa(dp975
g964
I64340
sg965
F0.0008170604705810547
sg966
F0.00148773193359375
sg967
I321
sg968
I321
sasS'total_cqs'
p976
I400
ssI136
(dp977
S'iters'
p978
I3
sS'meta'
p979
(lp980
(dp981
S'objective'
p982
I279
sS'query_time'
p983
F21.01729702949524
sS'comp_time'
p984
F0.10546302795410156
sS'exec_cq'
p985
I46
sS'total_cq'
p986
I57
sa(dp987
g982
I786
sg983
F0.04793405532836914
sg984
F0.0014531612396240234
sg985
I35
sg986
I35
sa(dp988
g982
I762
sg983
F0.00013589859008789062
sg984
F0.00026488304138183594
sg985
I32
sg986
I32
sasS'total_cqs'
p989
I57
ss.