(dp0
I1
(dp1
S'iters'
p2
I1
sS'meta'
p3
(lp4
(dp5
S'objective'
p6
I2
sS'query_time'
p7
F0.007867813110351562
sS'comp_time'
p8
F7.987022399902344e-05
sS'exec_cq'
p9
I1
sS'total_cq'
p10
I4
sasS'total_cqs'
p11
I4
ssI2
(dp12
S'iters'
p13
I1
sS'meta'
p14
(lp15
(dp16
S'objective'
p17
I2
sS'query_time'
p18
F0.007261037826538086
sS'comp_time'
p19
F0.0001380443572998047
sS'exec_cq'
p20
I1
sS'total_cq'
p21
I4
sasS'total_cqs'
p22
I4
ssI3
(dp23
S'iters'
p24
I0
sS'meta'
p25
(lp26
sS'total_cqs'
p27
I1
ssI4
(dp28
S'iters'
p29
I0
sS'meta'
p30
(lp31
sS'total_cqs'
p32
I1
ssI5
(dp33
S'iters'
p34
I10
sS'meta'
p35
(lp36
(dp37
S'objective'
p38
I905
sS'query_time'
p39
F23.24685788154602
sS'comp_time'
p40
F0.0001277923583984375
sS'exec_cq'
p41
I2
sS'total_cq'
p42
I54
sa(dp43
g38
I1091
sg39
F0.03830385208129883
sg40
F8.20159912109375e-05
sg41
I2
sg42
I46
sa(dp44
g38
I941
sg39
F29.759802103042603
sg40
F0.0002849102020263672
sg41
I7
sg42
I45
sa(dp45
g38
I978
sg39
F0.010627031326293945
sg40
F7.867813110351562e-05
sg41
I7
sg42
I40
sa(dp46
g38
I960
sg39
F0.8807029724121094
sg40
F0.0001220703125
sg41
I7
sg42
I39
sa(dp47
g38
I959
sg39
F0.04482388496398926
sg40
F0.0002899169921875
sg41
I9
sg42
I38
sa(dp48
g38
I950
sg39
F0.5240991115570068
sg40
F0.00010609626770019531
sg41
I9
sg42
I37
sa(dp49
g38
I941
sg39
F1.0670108795166016
sg40
F9.298324584960938e-05
sg41
I9
sg42
I36
sa(dp50
g38
I937
sg39
F0.26967883110046387
sg40
F0.00013303756713867188
sg41
I10
sg42
I35
sa(dp51
g38
I836
sg39
F0.00935983657836914
sg40
F7.987022399902344e-05
sg41
I9
sg42
I33
sasS'total_cqs'
p52
I54
ssI6
(dp53
S'iters'
p54
I1
sS'meta'
p55
(lp56
(dp57
S'objective'
p58
I2
sS'query_time'
p59
F0.007325172424316406
sS'comp_time'
p60
F7.796287536621094e-05
sS'exec_cq'
p61
I1
sS'total_cq'
p62
I4
sasS'total_cqs'
p63
I4
ssI7
(dp64
S'iters'
p65
I0
sS'meta'
p66
(lp67
sS'total_cqs'
p68
I1
ssI8
(dp69
S'iters'
p70
I0
sS'meta'
p71
(lp72
sS'total_cqs'
p73
I1
ssI9
(dp74
S'iters'
p75
I2
sS'meta'
p76
(lp77
(dp78
S'objective'
p79
I4
sS'query_time'
p80
F0.15244197845458984
sS'comp_time'
p81
F7.700920104980469e-05
sS'exec_cq'
p82
I1
sS'total_cq'
p83
I3
sa(dp84
g79
I1
sg80
F0.008172035217285156
sg81
F6.508827209472656e-05
sg82
I1
sg83
I2
sasS'total_cqs'
p85
I3
ssI10
(dp86
S'iters'
p87
I1
sS'meta'
p88
(lp89
(dp90
S'objective'
p91
I2
sS'query_time'
p92
F0.006991863250732422
sS'comp_time'
p93
F6.508827209472656e-05
sS'exec_cq'
p94
I1
sS'total_cq'
p95
I4
sasS'total_cqs'
p96
I4
ssI11
(dp97
S'iters'
p98
I1
sS'meta'
p99
(lp100
(dp101
S'objective'
p102
I14
sS'query_time'
p103
F0.0024220943450927734
sS'comp_time'
p104
F0.00013399124145507812
sS'exec_cq'
p105
I1
sS'total_cq'
p106
I7
sasS'total_cqs'
p107
I7
ssI12
(dp108
S'iters'
p109
I1
sS'meta'
p110
(lp111
(dp112
S'objective'
p113
I14
sS'query_time'
p114
F0.0500330924987793
sS'comp_time'
p115
F8.296966552734375e-05
sS'exec_cq'
p116
I1
sS'total_cq'
p117
I7
sasS'total_cqs'
p118
I7
ssI13
(dp119
S'iters'
p120
I0
sS'meta'
p121
(lp122
sS'total_cqs'
p123
I1
ssI14
(dp124
S'iters'
p125
I1
sS'meta'
p126
(lp127
(dp128
S'objective'
p129
I275
sS'query_time'
p130
F1.1831378936767578
sS'comp_time'
p131
F0.0001220703125
sS'exec_cq'
p132
I1
sS'total_cq'
p133
I25
sasS'total_cqs'
p134
I25
ssI15
(dp135
S'iters'
p136
I2
sS'meta'
p137
(lp138
(dp139
S'objective'
p140
I41
sS'query_time'
p141
F20.721957206726074
sS'comp_time'
p142
F0.00012302398681640625
sS'exec_cq'
p143
I2
sS'total_cq'
p144
I13
sa(dp145
g140
I40
sg141
F0.13817596435546875
sg142
F0.00011396408081054688
sg143
I6
sg144
I9
sasS'total_cqs'
p146
I13
ssI16
(dp147
S'iters'
p148
I3
sS'meta'
p149
(lp150
(dp151
S'objective'
p152
I125
sS'query_time'
p153
F25.053201913833618
sS'comp_time'
p154
F0.0001392364501953125
sS'exec_cq'
p155
I3
sS'total_cq'
p156
I17
sa(dp157
g152
I67
sg153
F20.347213983535767
sg154
F9.918212890625e-05
sg155
I5
sg156
I15
sa(dp158
g152
I2
sg153
F0.2890329360961914
sg154
F9.298324584960938e-05
sg155
I1
sg156
I3
sasS'total_cqs'
p159
I17
ssI17
(dp160
S'iters'
p161
I2
sS'meta'
p162
(lp163
(dp164
S'objective'
p165
I84
sS'query_time'
p166
F21.213237047195435
sS'comp_time'
p167
F9.322166442871094e-05
sS'exec_cq'
p168
I14
sS'total_cq'
p169
I16
sa(dp170
g165
I6
sg166
F0.1712629795074463
sg167
F0.00013589859008789062
sg168
I1
sg169
I2
sasS'total_cqs'
p171
I16
ssI18
(dp172
S'iters'
p173
I4
sS'meta'
p174
(lp175
(dp176
S'objective'
p177
I166
sS'query_time'
p178
F20.698204040527344
sS'comp_time'
p179
F0.00013113021850585938
sS'exec_cq'
p180
I2
sS'total_cq'
p181
I20
sa(dp182
g177
I160
sg178
F0.9296360015869141
sg179
F9.083747863769531e-05
sg180
I2
sg181
I18
sa(dp183
g177
I122
sg178
F1.2446730136871338
sg179
F0.00010991096496582031
sg180
I1
sg181
I17
sa(dp184
g177
I14
sg178
F0.05683708190917969
sg179
F7.081031799316406e-05
sg180
I1
sg181
I2
sasS'total_cqs'
p185
I20
ssI19
(dp186
S'iters'
p187
I5
sS'meta'
p188
(lp189
(dp190
S'objective'
p191
I3776
sS'query_time'
p192
F24.08144497871399
sS'comp_time'
p193
F0.0003757476806640625
sS'exec_cq'
p194
I2
sS'total_cq'
p195
I88
sa(dp196
g191
I3802
sg192
F24.592477083206177
sg193
F0.0001480579376220703
sg194
I10
sg195
I87
sa(dp197
g191
I3726
sg192
F0.2591390609741211
sg193
F0.0001468658447265625
sg194
I14
sg195
I86
sa(dp198
g191
I3433
sg192
F1.4304449558258057
sg193
F0.00018286705017089844
sg194
I13
sg195
I82
sa(dp199
g191
I5
sg192
F0.07001090049743652
sg193
F0.00011277198791503906
sg194
I1
sg195
I2
sasS'total_cqs'
p200
I88
ssI134
(dp201
S'iters'
p202
I1
sS'meta'
p203
(lp204
(dp205
S'objective'
p206
I1
sS'query_time'
p207
F20.629644870758057
sS'comp_time'
p208
F0.00014519691467285156
sS'exec_cq'
p209
I2
sS'total_cq'
p210
I2
sasS'total_cqs'
p211
I2
ssI21
(dp212
S'iters'
p213
I1
sS'meta'
p214
(lp215
(dp216
S'objective'
p217
I5
sS'query_time'
p218
F0.0068111419677734375
sS'comp_time'
p219
F6.985664367675781e-05
sS'exec_cq'
p220
I1
sS'total_cq'
p221
I5
sasS'total_cqs'
p222
I5
ssI22
(dp223
S'iters'
p224
I1
sS'meta'
p225
(lp226
(dp227
S'objective'
p228
I0
sS'query_time'
p229
F24.437539100646973
sS'comp_time'
p230
F7.700920104980469e-05
sS'exec_cq'
p231
I2
sS'total_cq'
p232
I3
sasS'total_cqs'
p233
I3
ssI23
(dp234
S'iters'
p235
I0
sS'meta'
p236
(lp237
sS'total_cqs'
p238
I1
ssI24
(dp239
S'iters'
p240
I1
sS'meta'
p241
(lp242
(dp243
S'objective'
p244
I0
sS'query_time'
p245
F0.08956122398376465
sS'comp_time'
p246
F0.00011491775512695312
sS'exec_cq'
p247
I1
sS'total_cq'
p248
I3
sasS'total_cqs'
p249
I3
ssI25
(dp250
S'iters'
p251
I1
sS'meta'
p252
(lp253
(dp254
S'objective'
p255
I0
sS'query_time'
p256
F0.5754320621490479
sS'comp_time'
p257
F9.512901306152344e-05
sS'exec_cq'
p258
I1
sS'total_cq'
p259
I3
sasS'total_cqs'
p260
I3
ssI26
(dp261
S'iters'
p262
I0
sS'meta'
p263
(lp264
sS'total_cqs'
p265
I1
ssI27
(dp266
S'iters'
p267
I0
sS'meta'
p268
(lp269
sS'total_cqs'
p270
I1
ssI28
(dp271
S'iters'
p272
I0
sS'meta'
p273
(lp274
sS'total_cqs'
p275
I1
ssI29
(dp276
S'iters'
p277
I1
sS'meta'
p278
(lp279
(dp280
S'objective'
p281
I14
sS'query_time'
p282
F0.0023179054260253906
sS'comp_time'
p283
F5.5789947509765625e-05
sS'exec_cq'
p284
I1
sS'total_cq'
p285
I7
sasS'total_cqs'
p286
I7
ssI30
(dp287
S'iters'
p288
I1
sS'meta'
p289
(lp290
(dp291
S'objective'
p292
I14
sS'query_time'
p293
F0.04836297035217285
sS'comp_time'
p294
F7.605552673339844e-05
sS'exec_cq'
p295
I1
sS'total_cq'
p296
I7
sasS'total_cqs'
p297
I7
ssI31
(dp298
S'iters'
p299
I1
sS'meta'
p300
(lp301
(dp302
S'objective'
p303
I35
sS'query_time'
p304
F0.022654056549072266
sS'comp_time'
p305
F6.389617919921875e-05
sS'exec_cq'
p306
I1
sS'total_cq'
p307
I10
sasS'total_cqs'
p308
I10
ssI32
(dp309
S'iters'
p310
I1
sS'meta'
p311
(lp312
(dp313
S'objective'
p314
I35
sS'query_time'
p315
F0.19562697410583496
sS'comp_time'
p316
F8.988380432128906e-05
sS'exec_cq'
p317
I1
sS'total_cq'
p318
I10
sasS'total_cqs'
p319
I10
ssI33
(dp320
S'iters'
p321
I1
sS'meta'
p322
(lp323
(dp324
S'objective'
p325
I44
sS'query_time'
p326
F0.0400080680847168
sS'comp_time'
p327
F8.606910705566406e-05
sS'exec_cq'
p328
I1
sS'total_cq'
p329
I11
sasS'total_cqs'
p330
I11
ssI34
(dp331
S'iters'
p332
I1
sS'meta'
p333
(lp334
(dp335
S'objective'
p336
I2345
sS'query_time'
p337
F0.05234384536743164
sS'comp_time'
p338
F0.00011396408081054688
sS'exec_cq'
p339
I1
sS'total_cq'
p340
I70
sasS'total_cqs'
p341
I70
ssI35
(dp342
S'iters'
p343
I1
sS'meta'
p344
(lp345
(dp346
S'objective'
p347
I2345
sS'query_time'
p348
F0.1255359649658203
sS'comp_time'
p349
F0.00014781951904296875
sS'exec_cq'
p350
I1
sS'total_cq'
p351
I70
sasS'total_cqs'
p352
I70
ssI36
(dp353
S'iters'
p354
I1
sS'meta'
p355
(lp356
(dp357
S'objective'
p358
I119
sS'query_time'
p359
F0.008538007736206055
sS'comp_time'
p360
F7.700920104980469e-05
sS'exec_cq'
p361
I1
sS'total_cq'
p362
I17
sasS'total_cqs'
p363
I17
ssI37
(dp364
S'iters'
p365
I1
sS'meta'
p366
(lp367
(dp368
S'objective'
p369
I104
sS'query_time'
p370
F0.013687849044799805
sS'comp_time'
p371
F7.414817810058594e-05
sS'exec_cq'
p372
I1
sS'total_cq'
p373
I16
sasS'total_cqs'
p374
I16
ssI38
(dp375
S'iters'
p376
I1
sS'meta'
p377
(lp378
(dp379
S'objective'
p380
I1652
sS'query_time'
p381
F0.024237871170043945
sS'comp_time'
p382
F0.00011587142944335938
sS'exec_cq'
p383
I1
sS'total_cq'
p384
I59
sasS'total_cqs'
p385
I59
ssI39
(dp386
S'iters'
p387
I1
sS'meta'
p388
(lp389
(dp390
S'objective'
p391
I3002
sS'query_time'
p392
F0.020085811614990234
sS'comp_time'
p393
F0.00011587142944335938
sS'exec_cq'
p394
I1
sS'total_cq'
p395
I79
sasS'total_cqs'
p396
I79
ssI40
(dp397
S'iters'
p398
I1
sS'meta'
p399
(lp400
(dp401
S'objective'
p402
I3320
sS'query_time'
p403
F0.02051711082458496
sS'comp_time'
p404
F0.00012493133544921875
sS'exec_cq'
p405
I1
sS'total_cq'
p406
I83
sasS'total_cqs'
p407
I83
ssI41
(dp408
S'iters'
p409
I1
sS'meta'
p410
(lp411
(dp412
S'objective'
p413
I5
sS'query_time'
p414
F0.004987001419067383
sS'comp_time'
p415
F7.510185241699219e-05
sS'exec_cq'
p416
I1
sS'total_cq'
p417
I5
sasS'total_cqs'
p418
I5
ssI42
(dp419
S'iters'
p420
I1
sS'meta'
p421
(lp422
(dp423
S'objective'
p424
I0
sS'query_time'
p425
F20.223875045776367
sS'comp_time'
p426
F9.489059448242188e-05
sS'exec_cq'
p427
I1
sS'total_cq'
p428
I3
sasS'total_cqs'
p429
I3
ssI43
(dp430
S'iters'
p431
I1
sS'meta'
p432
(lp433
(dp434
S'objective'
p435
I5
sS'query_time'
p436
F0.40805506706237793
sS'comp_time'
p437
F7.319450378417969e-05
sS'exec_cq'
p438
I1
sS'total_cq'
p439
I5
sasS'total_cqs'
p440
I5
ssI44
(dp441
S'iters'
p442
I2
sS'meta'
p443
(lp444
(dp445
S'objective'
p446
I27
sS'query_time'
p447
F20.025152921676636
sS'comp_time'
p448
F0.00010919570922851562
sS'exec_cq'
p449
I2
sS'total_cq'
p450
I10
sa(dp451
g446
I6
sg447
F0.00437617301940918
sg448
F5.793571472167969e-05
sg449
I1
sg450
I2
sasS'total_cqs'
p452
I10
ssI45
(dp453
S'iters'
p454
I0
sS'meta'
p455
(lp456
sS'total_cqs'
p457
I1
ssI46
(dp458
S'iters'
p459
I1
sS'meta'
p460
(lp461
(dp462
S'objective'
p463
I1
sS'query_time'
p464
F0.6824009418487549
sS'comp_time'
p465
F7.605552673339844e-05
sS'exec_cq'
p466
I1
sS'total_cq'
p467
I2
sasS'total_cqs'
p468
I2
ssI47
(dp469
S'iters'
p470
I0
sS'meta'
p471
(lp472
sS'total_cqs'
p473
I1
ssI48
(dp474
S'iters'
p475
I0
sS'meta'
p476
(lp477
sS'total_cqs'
p478
I1
ssI49
(dp479
S'iters'
p480
I2
sS'meta'
p481
(lp482
(dp483
S'objective'
p484
I2
sS'query_time'
p485
F30.81536602973938
sS'comp_time'
p486
F0.0001289844512939453
sS'exec_cq'
p487
I1
sS'total_cq'
p488
I3
sa(dp489
g484
I2
sg485
F20.074772119522095
sg486
F0.00013899803161621094
sg487
I2
sg488
I2
sasS'total_cqs'
p490
I3
ssI50
(dp491
S'iters'
p492
I1
sS'meta'
p493
(lp494
(dp495
S'objective'
p496
I54
sS'query_time'
p497
F0.016203880310058594
sS'comp_time'
p498
F8.988380432128906e-05
sS'exec_cq'
p499
I1
sS'total_cq'
p500
I12
sasS'total_cqs'
p501
I12
ssI51
(dp502
S'iters'
p503
I1
sS'meta'
p504
(lp505
(dp506
S'objective'
p507
I54
sS'query_time'
p508
F0.06006312370300293
sS'comp_time'
p509
F8.58306884765625e-05
sS'exec_cq'
p510
I1
sS'total_cq'
p511
I12
sasS'total_cqs'
p512
I12
ssI52
(dp513
S'iters'
p514
I1
sS'meta'
p515
(lp516
(dp517
S'objective'
p518
I54
sS'query_time'
p519
F0.11493897438049316
sS'comp_time'
p520
F7.915496826171875e-05
sS'exec_cq'
p521
I1
sS'total_cq'
p522
I12
sasS'total_cqs'
p523
I12
ssI53
(dp524
S'iters'
p525
I2
sS'meta'
p526
(lp527
(dp528
S'objective'
p529
I2
sS'query_time'
p530
F20.03881597518921
sS'comp_time'
p531
F9.298324584960938e-05
sS'exec_cq'
p532
I1
sS'total_cq'
p533
I3
sa(dp534
g529
I2
sg530
F22.022932052612305
sg531
F0.00012993812561035156
sg532
I1
sg533
I2
sasS'total_cqs'
p535
I3
ssI54
(dp536
S'iters'
p537
I1
sS'meta'
p538
(lp539
(dp540
S'objective'
p541
I5
sS'query_time'
p542
F2.1170661449432373
sS'comp_time'
p543
F8.106231689453125e-05
sS'exec_cq'
p544
I1
sS'total_cq'
p545
I5
sasS'total_cqs'
p546
I5
ssI55
(dp547
S'iters'
p548
I2
sS'meta'
p549
(lp550
(dp551
S'objective'
p552
I19
sS'query_time'
p553
F0.270550012588501
sS'comp_time'
p554
F9.512901306152344e-05
sS'exec_cq'
p555
I1
sS'total_cq'
p556
I10
sa(dp557
g552
I2
sg553
F3.1784000396728516
sg554
F9.489059448242188e-05
sg555
I2
sg556
I2
sasS'total_cqs'
p558
I10
ssI56
(dp559
S'iters'
p560
I1
sS'meta'
p561
(lp562
(dp563
S'objective'
p564
I9
sS'query_time'
p565
F2.389202833175659
sS'comp_time'
p566
F0.0001270771026611328
sS'exec_cq'
p567
I1
sS'total_cq'
p568
I6
sasS'total_cqs'
p569
I6
ssI57
(dp570
S'iters'
p571
I1
sS'meta'
p572
(lp573
(dp574
S'objective'
p575
I324
sS'query_time'
p576
F0.23483800888061523
sS'comp_time'
p577
F0.00010204315185546875
sS'exec_cq'
p578
I1
sS'total_cq'
p579
I27
sasS'total_cqs'
p580
I27
ssI58
(dp581
S'iters'
p582
I1
sS'meta'
p583
(lp584
(dp585
S'objective'
p586
I35
sS'query_time'
p587
F1.72452712059021
sS'comp_time'
p588
F7.605552673339844e-05
sS'exec_cq'
p589
I1
sS'total_cq'
p590
I10
sasS'total_cqs'
p591
I10
ssI59
(dp592
S'iters'
p593
I1
sS'meta'
p594
(lp595
(dp596
S'objective'
p597
I1652
sS'query_time'
p598
F1.0771541595458984
sS'comp_time'
p599
F0.00011706352233886719
sS'exec_cq'
p600
I1
sS'total_cq'
p601
I59
sasS'total_cqs'
p602
I59
ssI60
(dp603
S'iters'
p604
I1
sS'meta'
p605
(lp606
(dp607
S'objective'
p608
I90
sS'query_time'
p609
F0.5299451351165771
sS'comp_time'
p610
F0.00010824203491210938
sS'exec_cq'
p611
I1
sS'total_cq'
p612
I15
sasS'total_cqs'
p613
I15
ssI61
(dp614
S'iters'
p615
I1
sS'meta'
p616
(lp617
(dp618
S'objective'
p619
I119
sS'query_time'
p620
F0.5364151000976562
sS'comp_time'
p621
F9.918212890625e-05
sS'exec_cq'
p622
I1
sS'total_cq'
p623
I17
sasS'total_cqs'
p624
I17
ssI62
(dp625
S'iters'
p626
I1
sS'meta'
p627
(lp628
(dp629
S'objective'
p630
I12245
sS'query_time'
p631
F1.0072410106658936
sS'comp_time'
p632
F0.0002377033233642578
sS'exec_cq'
p633
I1
sS'total_cq'
p634
I158
sasS'total_cqs'
p635
I158
ssI63
(dp636
S'iters'
p637
I1
sS'meta'
p638
(lp639
(dp640
S'objective'
p641
I2849
sS'query_time'
p642
F0.5466549396514893
sS'comp_time'
p643
F0.0001518726348876953
sS'exec_cq'
p644
I1
sS'total_cq'
p645
I77
sasS'total_cqs'
p646
I77
ssI64
(dp647
S'iters'
p648
I1
sS'meta'
p649
(lp650
(dp651
S'objective'
p652
I8910
sS'query_time'
p653
F0.6944890022277832
sS'comp_time'
p654
F0.0002110004425048828
sS'exec_cq'
p655
I1
sS'total_cq'
p656
I135
sasS'total_cqs'
p657
I135
ssI65
(dp658
S'iters'
p659
I1
sS'meta'
p660
(lp661
(dp662
S'objective'
p663
I299
sS'query_time'
p664
F0.08249807357788086
sS'comp_time'
p665
F0.000125885009765625
sS'exec_cq'
p666
I1
sS'total_cq'
p667
I26
sasS'total_cqs'
p668
I26
ssI66
(dp669
S'iters'
p670
I1
sS'meta'
p671
(lp672
(dp673
S'objective'
p674
I275
sS'query_time'
p675
F0.09215188026428223
sS'comp_time'
p676
F0.00011587142944335938
sS'exec_cq'
p677
I1
sS'total_cq'
p678
I25
sasS'total_cqs'
p679
I25
ssI67
(dp680
S'iters'
p681
I1
sS'meta'
p682
(lp683
(dp684
S'objective'
p685
I275
sS'query_time'
p686
F0.05048203468322754
sS'comp_time'
p687
F0.00011587142944335938
sS'exec_cq'
p688
I1
sS'total_cq'
p689
I25
sasS'total_cqs'
p690
I25
ssI68
(dp691
S'iters'
p692
I1
sS'meta'
p693
(lp694
(dp695
S'objective'
p696
I2555
sS'query_time'
p697
F0.026957035064697266
sS'comp_time'
p698
F0.000164031982421875
sS'exec_cq'
p699
I1
sS'total_cq'
p700
I73
sasS'total_cqs'
p701
I73
ssI69
(dp702
S'iters'
p703
I1
sS'meta'
p704
(lp705
(dp706
S'objective'
p707
I2484
sS'query_time'
p708
F0.022372007369995117
sS'comp_time'
p709
F0.00012683868408203125
sS'exec_cq'
p710
I1
sS'total_cq'
p711
I72
sasS'total_cqs'
p712
I72
ssI70
(dp713
S'iters'
p714
I1
sS'meta'
p715
(lp716
(dp717
S'objective'
p718
I5777
sS'query_time'
p719
F1.7420868873596191
sS'comp_time'
p720
F0.00020170211791992188
sS'exec_cq'
p721
I1
sS'total_cq'
p722
I109
sasS'total_cqs'
p723
I109
ssI71
(dp724
S'iters'
p725
I1
sS'meta'
p726
(lp727
(dp728
S'objective'
p729
I160460
sS'query_time'
p730
F4.223814964294434
sS'comp_time'
p731
F0.0005457401275634766
sS'exec_cq'
p732
I1
sS'total_cq'
p733
I568
sasS'total_cqs'
p734
I568
ssI72
(dp735
S'iters'
p736
I1
sS'meta'
p737
(lp738
(dp739
S'objective'
p740
I7625
sS'query_time'
p741
F5.318594932556152
sS'comp_time'
p742
F0.0002219676971435547
sS'exec_cq'
p743
I1
sS'total_cq'
p744
I125
sasS'total_cqs'
p745
I125
ssI73
(dp746
S'iters'
p747
I1
sS'meta'
p748
(lp749
(dp750
S'objective'
p751
I7625
sS'query_time'
p752
F0.16418695449829102
sS'comp_time'
p753
F0.00019598007202148438
sS'exec_cq'
p754
I1
sS'total_cq'
p755
I125
sasS'total_cqs'
p756
I125
ssI138
(dp757
S'iters'
p758
I1
sS'meta'
p759
(lp760
(dp761
S'objective'
p762
I2700
sS'query_time'
p763
F0.0252988338470459
sS'comp_time'
p764
F0.0001480579376220703
sS'exec_cq'
p765
I1
sS'total_cq'
p766
I75
sasS'total_cqs'
p767
I75
ssI141
(dp768
S'iters'
p769
I1
sS'meta'
p770
(lp771
(dp772
S'objective'
p773
I72770
sS'query_time'
p774
F0.2128288745880127
sS'comp_time'
p775
F0.0004429817199707031
sS'exec_cq'
p776
I1
sS'total_cq'
p777
I383
sasS'total_cqs'
p778
I383
ssI139
(dp779
S'iters'
p780
I1
sS'meta'
p781
(lp782
(dp783
S'objective'
p784
I89675
sS'query_time'
p785
F0.11435413360595703
sS'comp_time'
p786
F0.00048422813415527344
sS'exec_cq'
p787
I1
sS'total_cq'
p788
I425
sasS'total_cqs'
p789
I425
ssI142
(dp790
S'iters'
p791
I1
sS'meta'
p792
(lp793
(dp794
S'objective'
p795
I0
sS'query_time'
p796
F21.376374006271362
sS'comp_time'
p797
F7.009506225585938e-05
sS'exec_cq'
p798
I1
sS'total_cq'
p799
I3
sasS'total_cqs'
p800
I3
ssI135
(dp801
S'iters'
p802
I1
sS'meta'
p803
(lp804
(dp805
S'objective'
p806
I14
sS'query_time'
p807
F0.8757309913635254
sS'comp_time'
p808
F7.700920104980469e-05
sS'exec_cq'
p809
I1
sS'total_cq'
p810
I7
sasS'total_cqs'
p811
I7
ssI133
(dp812
S'iters'
p813
I1
sS'meta'
p814
(lp815
(dp816
S'objective'
p817
I1
sS'query_time'
p818
F21.361095905303955
sS'comp_time'
p819
F9.107589721679688e-05
sS'exec_cq'
p820
I2
sS'total_cq'
p821
I2
sasS'total_cqs'
p822
I2
ssI148
(dp823
S'iters'
p824
I1
sS'meta'
p825
(lp826
(dp827
S'objective'
p828
I63902
sS'query_time'
p829
F0.0753779411315918
sS'comp_time'
p830
F0.00041604042053222656
sS'exec_cq'
p831
I1
sS'total_cq'
p832
I359
sasS'total_cqs'
p833
I359
ssI140
(dp834
S'iters'
p835
I0
sS'meta'
p836
(lp837
sS'total_cqs'
p838
I1
ssI137
(dp839
S'iters'
p840
I1
sS'meta'
p841
(lp842
(dp843
S'objective'
p844
I79400
sS'query_time'
p845
F0.08645915985107422
sS'comp_time'
p846
F0.0004069805145263672
sS'exec_cq'
p847
I1
sS'total_cq'
p848
I400
sasS'total_cqs'
p849
I400
ssI136
(dp850
S'iters'
p851
I1
sS'meta'
p852
(lp853
(dp854
S'objective'
p855
I1539
sS'query_time'
p856
F0.02197098731994629
sS'comp_time'
p857
F0.00010085105895996094
sS'exec_cq'
p858
I1
sS'total_cq'
p859
I57
sasS'total_cqs'
p860
I57
ss.