(dp0
I1
(dp1
S'iters'
p2
I1
sS'meta'
p3
(lp4
(dp5
S'objective'
p6
I2
sS'query_time'
p7
F0.010569095611572266
sS'comp_time'
p8
F4.696846008300781e-05
sS'exec_cq'
p9
I1
sS'total_cq'
p10
I4
sasS'total_cqs'
p11
I4
ssI2
(dp12
S'iters'
p13
I1
sS'meta'
p14
(lp15
(dp16
S'objective'
p17
I2
sS'query_time'
p18
F0.008089065551757812
sS'comp_time'
p19
F4.8160552978515625e-05
sS'exec_cq'
p20
I1
sS'total_cq'
p21
I4
sasS'total_cqs'
p22
I4
ssI3
(dp23
S'iters'
p24
I0
sS'meta'
p25
(lp26
sS'total_cqs'
p27
I1
ssI4
(dp28
S'iters'
p29
I0
sS'meta'
p30
(lp31
sS'total_cqs'
p32
I1
ssI5
(dp33
S'iters'
p34
I1
sS'meta'
p35
(lp36
(dp37
S'objective'
p38
I1377
sS'query_time'
p39
F20.04238510131836
sS'comp_time'
p40
F9.202957153320312e-05
sS'exec_cq'
p41
I1
sS'total_cq'
p42
I54
sasS'total_cqs'
p43
I54
ssI6
(dp44
S'iters'
p45
I1
sS'meta'
p46
(lp47
(dp48
S'objective'
p49
I2
sS'query_time'
p50
F0.01240396499633789
sS'comp_time'
p51
F4.315376281738281e-05
sS'exec_cq'
p52
I1
sS'total_cq'
p53
I4
sasS'total_cqs'
p54
I4
ssI7
(dp55
S'iters'
p56
I0
sS'meta'
p57
(lp58
sS'total_cqs'
p59
I1
ssI8
(dp60
S'iters'
p61
I0
sS'meta'
p62
(lp63
sS'total_cqs'
p64
I1
ssI9
(dp65
S'iters'
p66
I2
sS'meta'
p67
(lp68
(dp69
S'objective'
p70
I4
sS'query_time'
p71
F0.17883801460266113
sS'comp_time'
p72
F6.794929504394531e-05
sS'exec_cq'
p73
I1
sS'total_cq'
p74
I3
sa(dp75
g70
I1
sg71
F0.0166628360748291
sg72
F4.601478576660156e-05
sg73
I1
sg74
I2
sasS'total_cqs'
p76
I3
ssI10
(dp77
S'iters'
p78
I1
sS'meta'
p79
(lp80
(dp81
S'objective'
p82
I2
sS'query_time'
p83
F0.008371114730834961
sS'comp_time'
p84
F4.291534423828125e-05
sS'exec_cq'
p85
I1
sS'total_cq'
p86
I4
sasS'total_cqs'
p87
I4
ssI11
(dp88
S'iters'
p89
I1
sS'meta'
p90
(lp91
(dp92
S'objective'
p93
I14
sS'query_time'
p94
F0.0025968551635742188
sS'comp_time'
p95
F3.600120544433594e-05
sS'exec_cq'
p96
I1
sS'total_cq'
p97
I7
sasS'total_cqs'
p98
I7
ssI12
(dp99
S'iters'
p100
I1
sS'meta'
p101
(lp102
(dp103
S'objective'
p104
I14
sS'query_time'
p105
F0.04660391807556152
sS'comp_time'
p106
F4.696846008300781e-05
sS'exec_cq'
p107
I1
sS'total_cq'
p108
I7
sasS'total_cqs'
p109
I7
ssI13
(dp110
S'iters'
p111
I0
sS'meta'
p112
(lp113
sS'total_cqs'
p114
I1
ssI14
(dp115
S'iters'
p116
I1
sS'meta'
p117
(lp118
(dp119
S'objective'
p120
I275
sS'query_time'
p121
F1.8638229370117188
sS'comp_time'
p122
F9.107589721679688e-05
sS'exec_cq'
p123
I1
sS'total_cq'
p124
I25
sasS'total_cqs'
p125
I25
ssI15
(dp126
S'iters'
p127
I2
sS'meta'
p128
(lp129
(dp130
S'objective'
p131
I57
sS'query_time'
p132
F20.19805097579956
sS'comp_time'
p133
F6.890296936035156e-05
sS'exec_cq'
p134
I1
sS'total_cq'
p135
I13
sa(dp136
g131
I9
sg132
F20.059102058410645
sg133
F0.00010395050048828125
sg134
I2
sg135
I3
sasS'total_cqs'
p137
I13
ssI16
(dp138
S'iters'
p139
I2
sS'meta'
p140
(lp141
(dp142
S'objective'
p143
I75
sS'query_time'
p144
F20.736913919448853
sS'comp_time'
p145
F7.700920104980469e-05
sS'exec_cq'
p146
I1
sS'total_cq'
p147
I17
sa(dp148
g143
I5
sg144
F25.23736000061035
sg145
F0.00043892860412597656
sg146
I2
sg147
I3
sasS'total_cqs'
p149
I17
ssI17
(dp150
S'iters'
p151
I2
sS'meta'
p152
(lp153
(dp154
S'objective'
p155
I96
sS'query_time'
p156
F21.532775163650513
sS'comp_time'
p157
F7.200241088867188e-05
sS'exec_cq'
p158
I1
sS'total_cq'
p159
I16
sa(dp160
g155
I12
sg156
F20.019418001174927
sg157
F0.00011277198791503906
sg158
I2
sg159
I2
sasS'total_cqs'
p161
I16
ssI18
(dp162
S'iters'
p163
I2
sS'meta'
p164
(lp165
(dp166
S'objective'
p167
I136
sS'query_time'
p168
F21.91399312019348
sS'comp_time'
p169
F6.794929504394531e-05
sS'exec_cq'
p170
I1
sS'total_cq'
p171
I20
sa(dp172
g167
I3
sg168
F20.026395797729492
sg169
F0.00011110305786132812
sg170
I2
sg171
I2
sasS'total_cqs'
p173
I20
ssI19
(dp174
S'iters'
p175
I2
sS'meta'
p176
(lp177
(dp178
S'objective'
p179
I3614
sS'query_time'
p180
F22.297141075134277
sS'comp_time'
p181
F0.0001201629638671875
sS'exec_cq'
p182
I1
sS'total_cq'
p183
I88
sa(dp184
g179
I25
sg180
F20.025866985321045
sg181
F9.703636169433594e-05
sg182
I2
sg183
I2
sasS'total_cqs'
p185
I88
ssI148
(dp186
S'iters'
p187
I1
sS'meta'
p188
(lp189
(dp190
S'objective'
p191
I63902
sS'query_time'
p192
F0.09624385833740234
sS'comp_time'
p193
F0.00024509429931640625
sS'exec_cq'
p194
I1
sS'total_cq'
p195
I359
sasS'total_cqs'
p196
I359
ssI21
(dp197
S'iters'
p198
I1
sS'meta'
p199
(lp200
(dp201
S'objective'
p202
I5
sS'query_time'
p203
F0.009546995162963867
sS'comp_time'
p204
F4.792213439941406e-05
sS'exec_cq'
p205
I1
sS'total_cq'
p206
I5
sasS'total_cqs'
p207
I5
ssI22
(dp208
S'iters'
p209
I1
sS'meta'
p210
(lp211
(dp212
S'objective'
p213
I0
sS'query_time'
p214
F24.390583038330078
sS'comp_time'
p215
F0.0034139156341552734
sS'exec_cq'
p216
I2
sS'total_cq'
p217
I3
sasS'total_cqs'
p218
I3
ssI23
(dp219
S'iters'
p220
I0
sS'meta'
p221
(lp222
sS'total_cqs'
p223
I1
ssI24
(dp224
S'iters'
p225
I2
sS'meta'
p226
(lp227
(dp228
S'objective'
p229
I4
sS'query_time'
p230
F0.025735855102539062
sS'comp_time'
p231
F4.506111145019531e-05
sS'exec_cq'
p232
I1
sS'total_cq'
p233
I3
sa(dp234
g229
I1
sg230
F0.028636932373046875
sg231
F4.696846008300781e-05
sg232
I1
sg233
I2
sasS'total_cqs'
p235
I3
ssI25
(dp236
S'iters'
p237
I1
sS'meta'
p238
(lp239
(dp240
S'objective'
p241
I0
sS'query_time'
p242
F0.3105189800262451
sS'comp_time'
p243
F4.506111145019531e-05
sS'exec_cq'
p244
I1
sS'total_cq'
p245
I3
sasS'total_cqs'
p246
I3
ssI26
(dp247
S'iters'
p248
I0
sS'meta'
p249
(lp250
sS'total_cqs'
p251
I1
ssI27
(dp252
S'iters'
p253
I0
sS'meta'
p254
(lp255
sS'total_cqs'
p256
I1
ssI28
(dp257
S'iters'
p258
I0
sS'meta'
p259
(lp260
sS'total_cqs'
p261
I1
ssI29
(dp262
S'iters'
p263
I1
sS'meta'
p264
(lp265
(dp266
S'objective'
p267
I14
sS'query_time'
p268
F0.004354000091552734
sS'comp_time'
p269
F7.104873657226562e-05
sS'exec_cq'
p270
I1
sS'total_cq'
p271
I7
sasS'total_cqs'
p272
I7
ssI30
(dp273
S'iters'
p274
I1
sS'meta'
p275
(lp276
(dp277
S'objective'
p278
I14
sS'query_time'
p279
F0.044902801513671875
sS'comp_time'
p280
F3.910064697265625e-05
sS'exec_cq'
p281
I1
sS'total_cq'
p282
I7
sasS'total_cqs'
p283
I7
ssI31
(dp284
S'iters'
p285
I1
sS'meta'
p286
(lp287
(dp288
S'objective'
p289
I35
sS'query_time'
p290
F0.029340028762817383
sS'comp_time'
p291
F6.198883056640625e-05
sS'exec_cq'
p292
I1
sS'total_cq'
p293
I10
sasS'total_cqs'
p294
I10
ssI32
(dp295
S'iters'
p296
I1
sS'meta'
p297
(lp298
(dp299
S'objective'
p300
I35
sS'query_time'
p301
F0.21556711196899414
sS'comp_time'
p302
F6.985664367675781e-05
sS'exec_cq'
p303
I1
sS'total_cq'
p304
I10
sasS'total_cqs'
p305
I10
ssI33
(dp306
S'iters'
p307
I1
sS'meta'
p308
(lp309
(dp310
S'objective'
p311
I44
sS'query_time'
p312
F0.07001090049743652
sS'comp_time'
p313
F7.891654968261719e-05
sS'exec_cq'
p314
I1
sS'total_cq'
p315
I11
sasS'total_cqs'
p316
I11
ssI34
(dp317
S'iters'
p318
I1
sS'meta'
p319
(lp320
(dp321
S'objective'
p322
I2345
sS'query_time'
p323
F0.0663909912109375
sS'comp_time'
p324
F0.00011491775512695312
sS'exec_cq'
p325
I1
sS'total_cq'
p326
I70
sasS'total_cqs'
p327
I70
ssI35
(dp328
S'iters'
p329
I1
sS'meta'
p330
(lp331
(dp332
S'objective'
p333
I2345
sS'query_time'
p334
F0.1287550926208496
sS'comp_time'
p335
F0.00011491775512695312
sS'exec_cq'
p336
I1
sS'total_cq'
p337
I70
sasS'total_cqs'
p338
I70
ssI36
(dp339
S'iters'
p340
I1
sS'meta'
p341
(lp342
(dp343
S'objective'
p344
I119
sS'query_time'
p345
F0.017512083053588867
sS'comp_time'
p346
F9.608268737792969e-05
sS'exec_cq'
p347
I1
sS'total_cq'
p348
I17
sasS'total_cqs'
p349
I17
ssI134
(dp350
S'iters'
p351
I1
sS'meta'
p352
(lp353
(dp354
S'objective'
p355
I1
sS'query_time'
p356
F20.601804971694946
sS'comp_time'
p357
F0.00012087821960449219
sS'exec_cq'
p358
I1
sS'total_cq'
p359
I2
sasS'total_cqs'
p360
I2
ssI38
(dp361
S'iters'
p362
I1
sS'meta'
p363
(lp364
(dp365
S'objective'
p366
I1652
sS'query_time'
p367
F0.031616926193237305
sS'comp_time'
p368
F0.00010585784912109375
sS'exec_cq'
p369
I1
sS'total_cq'
p370
I59
sasS'total_cqs'
p371
I59
ssI39
(dp372
S'iters'
p373
I1
sS'meta'
p374
(lp375
(dp376
S'objective'
p377
I3002
sS'query_time'
p378
F0.024936199188232422
sS'comp_time'
p379
F8.082389831542969e-05
sS'exec_cq'
p380
I1
sS'total_cq'
p381
I79
sasS'total_cqs'
p382
I79
ssI40
(dp383
S'iters'
p384
I1
sS'meta'
p385
(lp386
(dp387
S'objective'
p388
I3320
sS'query_time'
p389
F0.026468992233276367
sS'comp_time'
p390
F0.0004608631134033203
sS'exec_cq'
p391
I1
sS'total_cq'
p392
I83
sasS'total_cqs'
p393
I83
ssI41
(dp394
S'iters'
p395
I1
sS'meta'
p396
(lp397
(dp398
S'objective'
p399
I5
sS'query_time'
p400
F0.006006956100463867
sS'comp_time'
p401
F4.00543212890625e-05
sS'exec_cq'
p402
I1
sS'total_cq'
p403
I5
sasS'total_cqs'
p404
I5
ssI42
(dp405
S'iters'
p406
I1
sS'meta'
p407
(lp408
(dp409
S'objective'
p410
I0
sS'query_time'
p411
F40.21465992927551
sS'comp_time'
p412
F0.00010895729064941406
sS'exec_cq'
p413
I2
sS'total_cq'
p414
I3
sasS'total_cqs'
p415
I3
ssI43
(dp416
S'iters'
p417
I1
sS'meta'
p418
(lp419
(dp420
S'objective'
p421
I5
sS'query_time'
p422
F0.4111299514770508
sS'comp_time'
p423
F8.606910705566406e-05
sS'exec_cq'
p424
I1
sS'total_cq'
p425
I5
sasS'total_cqs'
p426
I5
ssI44
(dp427
S'iters'
p428
I1
sS'meta'
p429
(lp430
(dp431
S'objective'
p432
I35
sS'query_time'
p433
F20.008219003677368
sS'comp_time'
p434
F0.00010800361633300781
sS'exec_cq'
p435
I1
sS'total_cq'
p436
I10
sasS'total_cqs'
p437
I10
ssI45
(dp438
S'iters'
p439
I0
sS'meta'
p440
(lp441
sS'total_cqs'
p442
I1
ssI46
(dp443
S'iters'
p444
I1
sS'meta'
p445
(lp446
(dp447
S'objective'
p448
I1
sS'query_time'
p449
F0.7722299098968506
sS'comp_time'
p450
F9.083747863769531e-05
sS'exec_cq'
p451
I1
sS'total_cq'
p452
I2
sasS'total_cqs'
p453
I2
ssI47
(dp454
S'iters'
p455
I0
sS'meta'
p456
(lp457
sS'total_cqs'
p458
I1
ssI48
(dp459
S'iters'
p460
I0
sS'meta'
p461
(lp462
sS'total_cqs'
p463
I1
ssI49
(dp464
S'iters'
p465
I2
sS'meta'
p466
(lp467
(dp468
S'objective'
p469
I4
sS'query_time'
p470
F22.915490865707397
sS'comp_time'
p471
F7.486343383789062e-05
sS'exec_cq'
p472
I1
sS'total_cq'
p473
I3
sa(dp474
g469
I1
sg470
F0.916632890701294
sg471
F3.2901763916015625e-05
sg472
I1
sg473
I2
sasS'total_cqs'
p475
I3
ssI50
(dp476
S'iters'
p477
I1
sS'meta'
p478
(lp479
(dp480
S'objective'
p481
I54
sS'query_time'
p482
F0.01843404769897461
sS'comp_time'
p483
F6.29425048828125e-05
sS'exec_cq'
p484
I1
sS'total_cq'
p485
I12
sasS'total_cqs'
p486
I12
ssI51
(dp487
S'iters'
p488
I1
sS'meta'
p489
(lp490
(dp491
S'objective'
p492
I54
sS'query_time'
p493
F0.02480006217956543
sS'comp_time'
p494
F6.008148193359375e-05
sS'exec_cq'
p495
I1
sS'total_cq'
p496
I12
sasS'total_cqs'
p497
I12
ssI52
(dp498
S'iters'
p499
I1
sS'meta'
p500
(lp501
(dp502
S'objective'
p503
I54
sS'query_time'
p504
F0.15385198593139648
sS'comp_time'
p505
F6.29425048828125e-05
sS'exec_cq'
p506
I1
sS'total_cq'
p507
I12
sasS'total_cqs'
p508
I12
ssI53
(dp509
S'iters'
p510
I14
sS'meta'
p511
(lp512
(dp513
S'objective'
p514
I4
sS'query_time'
p515
F20.03336000442505
sS'comp_time'
p516
F5.1975250244140625e-05
sS'exec_cq'
p517
I1
sS'total_cq'
p518
I3
sa(dp519
g514
I5
sg515
F40.01546502113342
sg516
F5.602836608886719e-05
sg517
I2
sg518
I2
sa(dp520
g514
I5
sg515
F0.009801149368286133
sg516
F3.695487976074219e-05
sg517
I2
sg518
I2
sa(dp521
g514
I5
sg515
F0.0380101203918457
sg516
F6.008148193359375e-05
sg517
I2
sg518
I2
sa(dp522
g514
I5
sg515
F0.034893035888671875
sg516
F5.698204040527344e-05
sg517
I2
sg518
I2
sa(dp523
g514
I5
sg515
F0.07200503349304199
sg516
F7.796287536621094e-05
sg517
I2
sg518
I2
sa(dp524
g514
I5
sg515
F0.08993697166442871
sg516
F0.00011801719665527344
sg517
I2
sg518
I2
sa(dp525
g514
I5
sg515
F0.10093212127685547
sg516
F0.00011610984802246094
sg517
I2
sg518
I2
sa(dp526
g514
I5
sg515
F0.10551309585571289
sg516
F0.00011777877807617188
sg517
I2
sg518
I2
sa(dp527
g514
I5
sg515
F0.1825411319732666
sg516
F0.00011706352233886719
sg517
I2
sg518
I2
sa(dp528
g514
I5
sg515
F0.1982719898223877
sg516
F0.00011420249938964844
sg517
I2
sg518
I2
sa(dp529
g514
I5
sg515
F0.33021116256713867
sg516
F7.796287536621094e-05
sg517
I2
sg518
I2
sa(dp530
g514
I5
sg515
F0.268388032913208
sg516
F0.00011897087097167969
sg517
I2
sg518
I2
sa(dp531
g514
I1
sg515
F0.2789950370788574
sg516
F8.0108642578125e-05
sg517
I1
sg518
I2
sasS'total_cqs'
p532
I3
ssI54
(dp533
S'iters'
p534
I1
sS'meta'
p535
(lp536
(dp537
S'objective'
p538
I5
sS'query_time'
p539
F2.120539903640747
sS'comp_time'
p540
F8.916854858398438e-05
sS'exec_cq'
p541
I1
sS'total_cq'
p542
I5
sasS'total_cqs'
p543
I5
ssI55
(dp544
S'iters'
p545
I2
sS'meta'
p546
(lp547
(dp548
S'objective'
p549
I33
sS'query_time'
p550
F0.2951319217681885
sS'comp_time'
p551
F9.608268737792969e-05
sS'exec_cq'
p552
I1
sS'total_cq'
p553
I10
sa(dp554
g549
I9
sg550
F3.6762030124664307
sg551
F0.00013208389282226562
sg552
I2
sg553
I2
sasS'total_cqs'
p555
I10
ssI56
(dp556
S'iters'
p557
I1
sS'meta'
p558
(lp559
(dp560
S'objective'
p561
I9
sS'query_time'
p562
F2.698312997817993
sS'comp_time'
p563
F0.00010895729064941406
sS'exec_cq'
p564
I1
sS'total_cq'
p565
I6
sasS'total_cqs'
p566
I6
ssI57
(dp567
S'iters'
p568
I1
sS'meta'
p569
(lp570
(dp571
S'objective'
p572
I324
sS'query_time'
p573
F0.2244551181793213
sS'comp_time'
p574
F0.00010609626770019531
sS'exec_cq'
p575
I1
sS'total_cq'
p576
I27
sasS'total_cqs'
p577
I27
ssI58
(dp578
S'iters'
p579
I1
sS'meta'
p580
(lp581
(dp582
S'objective'
p583
I35
sS'query_time'
p584
F2.5804059505462646
sS'comp_time'
p585
F8.702278137207031e-05
sS'exec_cq'
p586
I1
sS'total_cq'
p587
I10
sasS'total_cqs'
p588
I10
ssI59
(dp589
S'iters'
p590
I1
sS'meta'
p591
(lp592
(dp593
S'objective'
p594
I1652
sS'query_time'
p595
F1.9925000667572021
sS'comp_time'
p596
F0.00011110305786132812
sS'exec_cq'
p597
I1
sS'total_cq'
p598
I59
sasS'total_cqs'
p599
I59
ssI60
(dp600
S'iters'
p601
I1
sS'meta'
p602
(lp603
(dp604
S'objective'
p605
I90
sS'query_time'
p606
F1.553515911102295
sS'comp_time'
p607
F7.700920104980469e-05
sS'exec_cq'
p608
I1
sS'total_cq'
p609
I15
sasS'total_cqs'
p610
I15
ssI61
(dp611
S'iters'
p612
I1
sS'meta'
p613
(lp614
(dp615
S'objective'
p616
I119
sS'query_time'
p617
F1.548306941986084
sS'comp_time'
p618
F7.700920104980469e-05
sS'exec_cq'
p619
I1
sS'total_cq'
p620
I17
sasS'total_cqs'
p621
I17
ssI62
(dp622
S'iters'
p623
I1
sS'meta'
p624
(lp625
(dp626
S'objective'
p627
I12245
sS'query_time'
p628
F1.8482270240783691
sS'comp_time'
p629
F0.00015306472778320312
sS'exec_cq'
p630
I1
sS'total_cq'
p631
I158
sasS'total_cqs'
p632
I158
ssI63
(dp633
S'iters'
p634
I1
sS'meta'
p635
(lp636
(dp637
S'objective'
p638
I2849
sS'query_time'
p639
F1.533750057220459
sS'comp_time'
p640
F0.00012683868408203125
sS'exec_cq'
p641
I1
sS'total_cq'
p642
I77
sasS'total_cqs'
p643
I77
ssI64
(dp644
S'iters'
p645
I1
sS'meta'
p646
(lp647
(dp648
S'objective'
p649
I8910
sS'query_time'
p650
F1.1283750534057617
sS'comp_time'
p651
F0.00015997886657714844
sS'exec_cq'
p652
I1
sS'total_cq'
p653
I135
sasS'total_cqs'
p654
I135
ssI65
(dp655
S'iters'
p656
I1
sS'meta'
p657
(lp658
(dp659
S'objective'
p660
I299
sS'query_time'
p661
F0.3682129383087158
sS'comp_time'
p662
F4.9114227294921875e-05
sS'exec_cq'
p663
I1
sS'total_cq'
p664
I26
sasS'total_cqs'
p665
I26
ssI66
(dp666
S'iters'
p667
I1
sS'meta'
p668
(lp669
(dp670
S'objective'
p671
I275
sS'query_time'
p672
F0.13696599006652832
sS'comp_time'
p673
F9.393692016601562e-05
sS'exec_cq'
p674
I1
sS'total_cq'
p675
I25
sasS'total_cqs'
p676
I25
ssI67
(dp677
S'iters'
p678
I1
sS'meta'
p679
(lp680
(dp681
S'objective'
p682
I275
sS'query_time'
p683
F0.036852121353149414
sS'comp_time'
p684
F6.29425048828125e-05
sS'exec_cq'
p685
I1
sS'total_cq'
p686
I25
sasS'total_cqs'
p687
I25
ssI68
(dp688
S'iters'
p689
I1
sS'meta'
p690
(lp691
(dp692
S'objective'
p693
I2555
sS'query_time'
p694
F0.03982901573181152
sS'comp_time'
p695
F0.00014495849609375
sS'exec_cq'
p696
I1
sS'total_cq'
p697
I73
sasS'total_cqs'
p698
I73
ssI69
(dp699
S'iters'
p700
I1
sS'meta'
p701
(lp702
(dp703
S'objective'
p704
I2484
sS'query_time'
p705
F0.03461003303527832
sS'comp_time'
p706
F9.107589721679688e-05
sS'exec_cq'
p707
I1
sS'total_cq'
p708
I72
sasS'total_cqs'
p709
I72
ssI70
(dp710
S'iters'
p711
I1
sS'meta'
p712
(lp713
(dp714
S'objective'
p715
I5777
sS'query_time'
p716
F3.090254068374634
sS'comp_time'
p717
F0.000202178955078125
sS'exec_cq'
p718
I1
sS'total_cq'
p719
I109
sasS'total_cqs'
p720
I109
ssI71
(dp721
S'iters'
p722
I1
sS'meta'
p723
(lp724
(dp725
S'objective'
p726
I160460
sS'query_time'
p727
F4.640851974487305
sS'comp_time'
p728
F0.0003190040588378906
sS'exec_cq'
p729
I1
sS'total_cq'
p730
I568
sasS'total_cqs'
p731
I568
ssI72
(dp732
S'iters'
p733
I1
sS'meta'
p734
(lp735
(dp736
S'objective'
p737
I7625
sS'query_time'
p738
F7.3543500900268555
sS'comp_time'
p739
F0.00010395050048828125
sS'exec_cq'
p740
I1
sS'total_cq'
p741
I125
sasS'total_cqs'
p742
I125
ssI73
(dp743
S'iters'
p744
I1
sS'meta'
p745
(lp746
(dp747
S'objective'
p748
I7625
sS'query_time'
p749
F0.2176380157470703
sS'comp_time'
p750
F0.00013303756713867188
sS'exec_cq'
p751
I1
sS'total_cq'
p752
I125
sasS'total_cqs'
p753
I125
ssI138
(dp754
S'iters'
p755
I1
sS'meta'
p756
(lp757
(dp758
S'objective'
p759
I2700
sS'query_time'
p760
F0.028706073760986328
sS'comp_time'
p761
F7.891654968261719e-05
sS'exec_cq'
p762
I1
sS'total_cq'
p763
I75
sasS'total_cqs'
p764
I75
ssI141
(dp765
S'iters'
p766
I1
sS'meta'
p767
(lp768
(dp769
S'objective'
p770
I72770
sS'query_time'
p771
F0.2266230583190918
sS'comp_time'
p772
F0.0002560615539550781
sS'exec_cq'
p773
I1
sS'total_cq'
p774
I383
sasS'total_cqs'
p775
I383
ssI139
(dp776
S'iters'
p777
I1
sS'meta'
p778
(lp779
(dp780
S'objective'
p781
I89675
sS'query_time'
p782
F0.14735889434814453
sS'comp_time'
p783
F0.00023698806762695312
sS'exec_cq'
p784
I1
sS'total_cq'
p785
I425
sasS'total_cqs'
p786
I425
ssI142
(dp787
S'iters'
p788
I1
sS'meta'
p789
(lp790
(dp791
S'objective'
p792
I0
sS'query_time'
p793
F30.618797063827515
sS'comp_time'
p794
F6.794929504394531e-05
sS'exec_cq'
p795
I2
sS'total_cq'
p796
I3
sasS'total_cqs'
p797
I3
ssI135
(dp798
S'iters'
p799
I1
sS'meta'
p800
(lp801
(dp802
S'objective'
p803
I14
sS'query_time'
p804
F1.673940896987915
sS'comp_time'
p805
F8.797645568847656e-05
sS'exec_cq'
p806
I1
sS'total_cq'
p807
I7
sasS'total_cqs'
p808
I7
ssI37
(dp809
S'iters'
p810
I1
sS'meta'
p811
(lp812
(dp813
S'objective'
p814
I104
sS'query_time'
p815
F0.026018142700195312
sS'comp_time'
p816
F8.296966552734375e-05
sS'exec_cq'
p817
I1
sS'total_cq'
p818
I16
sasS'total_cqs'
p819
I16
ssI133
(dp820
S'iters'
p821
I1
sS'meta'
p822
(lp823
(dp824
S'objective'
p825
I1
sS'query_time'
p826
F21.206560134887695
sS'comp_time'
p827
F7.581710815429688e-05
sS'exec_cq'
p828
I1
sS'total_cq'
p829
I2
sasS'total_cqs'
p830
I2
ssI140
(dp831
S'iters'
p832
I0
sS'meta'
p833
(lp834
sS'total_cqs'
p835
I1
ssI137
(dp836
S'iters'
p837
I1
sS'meta'
p838
(lp839
(dp840
S'objective'
p841
I79400
sS'query_time'
p842
F0.09785294532775879
sS'comp_time'
p843
F0.00021505355834960938
sS'exec_cq'
p844
I1
sS'total_cq'
p845
I400
sasS'total_cqs'
p846
I400
ssI136
(dp847
S'iters'
p848
I1
sS'meta'
p849
(lp850
(dp851
S'objective'
p852
I1539
sS'query_time'
p853
F0.02820611000061035
sS'comp_time'
p854
F9.298324584960938e-05
sS'exec_cq'
p855
I1
sS'total_cq'
p856
I57
sasS'total_cqs'
p857
I57
ss.