(dp0
I1
(dp1
S'iters'
p2
I3
sS'meta'
p3
(lp4
(dp5
S'objective'
p6
I2
sS'query_time'
p7
F38.49223184585571
sS'total_cq'
p8
I4
sS'comp_time'
p9
F0.009272098541259766
sa(dp10
g6
I1
sg7
F0.0012359619140625
sg8
I3
sg9
F0.002832174301147461
sa(dp11
g6
I0
sg7
F0.0012500286102294922
sg8
I2
sg9
F9.799003601074219e-05
sasS'total_cqs'
p12
I4
ssI2
(dp13
g2
I2
sg3
(lp14
(dp15
g6
I2
sg7
F0.015828847885131836
sg8
I4
sg9
F0.0007529258728027344
sa(dp16
g6
I1
sg7
F0.0013058185577392578
sg8
I3
sg9
F0.000370025634765625
sasg12
I4
ssI3
(dp17
g2
I0
sg3
(lp18
sg12
I1
ssI4
(dp19
g2
I0
sg3
(lp20
sg12
I1
ssI5
(dp21
g2
I8
sg3
(lp22
(dp23
g6
I24
sg7
F563.1223909854889
sg8
I54
sg9
F2.0671706199645996
sa(dp24
g6
I7
sg7
F0.39053797721862793
sg8
I39
sg9
F4.451027870178223
sa(dp25
g6
I19
sg7
F0.016709089279174805
sg8
I23
sg9
F0.23598384857177734
sa(dp26
g6
I17
sg7
F0.016256093978881836
sg8
I21
sg9
F0.2723560333251953
sa(dp27
g6
I17
sg7
F0.0012390613555908203
sg8
I19
sg9
F0.010008811950683594
sa(dp28
g6
I16
sg7
F0.00131988525390625
sg8
I18
sg9
F0.13023805618286133
sa(dp29
g6
I15
sg7
F0.0012159347534179688
sg8
I17
sg9
F0.0057048797607421875
sa(dp30
g6
I14
sg7
F0.0014119148254394531
sg8
I16
sg9
F0.003667116165161133
sasg12
I54
ssI6
(dp31
g2
I3
sg3
(lp32
(dp33
g6
I2
sg7
F34.02779984474182
sg8
I4
sg9
F0.010163307189941406
sa(dp34
g6
I1
sg7
F0.0013051033020019531
sg8
I3
sg9
F0.002130270004272461
sa(dp35
g6
I0
sg7
F0.0012660026550292969
sg8
I2
sg9
F0.00011801719665527344
sasg12
I4
ssI7
(dp36
g2
I0
sg3
(lp37
sg12
I1
ssI8
(dp38
g2
I0
sg3
(lp39
sg12
I1
ssI9
(dp40
g2
I2
sg3
(lp41
(dp42
g6
I1
sg7
F24.53002905845642
sg8
I3
sg9
F0.10679388046264648
sa(dp43
g6
I0
sg7
F0.0033931732177734375
sg8
I2
sg9
F0.02349114418029785
sasg12
I3
ssI10
(dp44
g2
I3
sg3
(lp45
(dp46
g6
I2
sg7
F0.6161959171295166
sg8
I4
sg9
F0.01915121078491211
sa(dp47
g6
I1
sg7
F0.003559112548828125
sg8
I3
sg9
F0.010435104370117188
sa(dp48
g6
I0
sg7
F0.001325845718383789
sg8
I2
sg9
F0.00557708740234375
sasg12
I4
ssI11
(dp49
g2
I6
sg3
(lp50
(dp51
g6
I5
sg7
F52.77487277984619
sg8
I7
sg9
F0.0025930404663085938
sa(dp52
g6
I4
sg7
F0.0011720657348632812
sg8
I6
sg9
F0.0038449764251708984
sa(dp53
g6
I3
sg7
F0.0012331008911132812
sg8
I5
sg9
F0.0012340545654296875
sa(dp54
g6
I2
sg7
F0.0012691020965576172
sg8
I4
sg9
F0.0011768341064453125
sa(dp55
g6
I1
sg7
F0.0014729499816894531
sg8
I3
sg9
F0.06196308135986328
sa(dp56
g6
I0
sg7
F0.0013570785522460938
sg8
I2
sg9
F0.00012493133544921875
sasg12
I7
ssI12
(dp57
g2
I4
sg3
(lp58
(dp59
g6
I3
sg7
F52.473119020462036
sg8
I7
sg9
F0.0035469532012939453
sa(dp60
g6
I1
sg7
F0.0016498565673828125
sg8
I5
sg9
F0.11208605766296387
sa(dp61
g6
I1
sg7
F0.001538991928100586
sg8
I3
sg9
F0.0008668899536132812
sa(dp62
g6
I0
sg7
F0.0013401508331298828
sg8
I2
sg9
F0.0001323223114013672
sasg12
I7
ssI13
(dp63
g2
I0
sg3
(lp64
sg12
I1
ssI14
(dp65
g2
I4
sg3
(lp66
(dp67
g6
I9
sg7
F341.1892318725586
sg8
I25
sg9
F1.0309970378875732
sa(dp68
g6
I13
sg7
F0.14583182334899902
sg8
I17
sg9
F0.6558380126953125
sa(dp69
g6
I13
sg7
F0.16312408447265625
sg8
I15
sg9
F1.7562360763549805
sa(dp70
g6
I12
sg7
F0.032588958740234375
sg8
I14
sg9
F0.20006918907165527
sasg12
I25
ssI15
(dp71
g2
I3
sg3
(lp72
(dp73
g6
I9
sg7
F60.417515993118286
sg8
I13
sg9
F0.013190031051635742
sa(dp74
g6
I7
sg7
F0.0013530254364013672
sg8
I11
sg9
F0.0015218257904052734
sa(dp75
g6
I7
sg7
F0.0012030601501464844
sg8
I9
sg9
F0.002621889114379883
sasg12
I13
ssI16
(dp76
g2
I2
sg3
(lp77
(dp78
g6
I11
sg7
F234.2363030910492
sg8
I17
sg9
F4.200527906417847
sa(dp79
g6
I1
sg7
F0.4517061710357666
sg8
I3
sg9
F2.599565029144287
sasg12
I17
ssI17
(dp80
g2
I2
sg3
(lp81
(dp82
g6
I12
sg7
F44.07823395729065
sg8
I16
sg9
F0.006154060363769531
sa(dp83
g6
I0
sg7
F0.0013530254364013672
sg8
I2
sg9
F0.0036649703979492188
sasg12
I16
ssI18
(dp84
g2
I6
sg3
(lp85
(dp86
g6
I14
sg7
F391.22992300987244
sg8
I20
sg9
F1.8802697658538818
sa(dp87
g6
I13
sg7
F0.19196200370788574
sg8
I17
sg9
F1.7374279499053955
sa(dp88
g6
I5
sg7
F0.257824182510376
sg8
I15
sg9
F1.4112908840179443
sa(dp89
g6
I6
sg7
F0.0011861324310302734
sg8
I10
sg9
F0.052047014236450195
sa(dp90
g6
I4
sg7
F0.0011699199676513672
sg8
I8
sg9
F0.0696721076965332
sa(dp91
g6
I0
sg7
F0.0014460086822509766
sg8
I2
sg9
F0.013686895370483398
sasg12
I20
ssI19
(dp92
g2
I17
sg3
(lp93
(dp94
g6
I78
sg7
F1298.2849659919739
sg8
I88
sg9
F11.039926052093506
sa(dp95
g6
I79
sg7
F1.6513099670410156
sg8
I83
sg9
F8.92043399810791
sa(dp96
g6
I73
sg7
F1.5950751304626465
sg8
I81
sg9
F7.30731201171875
sa(dp97
g6
I73
sg7
F1.1274189949035645
sg8
I77
sg9
F5.562652111053467
sa(dp98
g6
I69
sg7
F0.26813316345214844
sg8
I75
sg9
F4.520473003387451
sa(dp99
g6
I62
sg7
F0.11578202247619629
sg8
I72
sg9
F1.9384779930114746
sa(dp100
g6
I63
sg7
F0.0011951923370361328
sg8
I67
sg9
F0.02139592170715332
sa(dp101
g6
I63
sg7
F0.001405954360961914
sg8
I65
sg9
F0.7753510475158691
sa(dp102
g6
I62
sg7
F0.0014460086822509766
sg8
I64
sg9
F0.01438283920288086
sa(dp103
g6
I59
sg7
F0.001210927963256836
sg8
I63
sg9
F0.013454198837280273
sa(dp104
g6
I59
sg7
F0.0019769668579101562
sg8
I61
sg9
F0.009348869323730469
sa(dp105
g6
I58
sg7
F0.0008630752563476562
sg8
I60
sg9
F0.007528066635131836
sa(dp106
g6
I57
sg7
F0.0016071796417236328
sg8
I59
sg9
F0.006477832794189453
sa(dp107
g6
I56
sg7
F0.0014119148254394531
sg8
I58
sg9
F0.006290912628173828
sa(dp108
g6
I55
sg7
F0.0013241767883300781
sg8
I57
sg9
F0.0044710636138916016
sa(dp109
g6
I52
sg7
F0.001249074935913086
sg8
I56
sg9
F0.02197885513305664
sa(dp110
g6
I0
sg7
F0.0012178421020507812
sg8
I2
sg9
F0.010271072387695312
sasg12
I88
ssI134
(dp111
g2
I1
sg3
(lp112
(dp113
g6
I0
sg7
F20.616780042648315
sg8
I2
sg9
F0.4218709468841553
sasg12
I2
ssI21
(dp114
g2
I3
sg3
(lp115
(dp116
g6
I1
sg7
F39.49451017379761
sg8
I5
sg9
F0.0025882720947265625
sa(dp117
g6
I1
sg7
F0.0012149810791015625
sg8
I3
sg9
F0.0001728534698486328
sa(dp118
g6
I0
sg7
F0.0013740062713623047
sg8
I2
sg9
F0.03371095657348633
sasg12
I5
ssI22
(dp119
g2
I1
sg3
(lp120
(dp121
g6
I1
sg7
F44.52962684631348
sg8
I3
sg9
F0.946394681930542
sasg12
I3
ssI23
(dp122
g2
I0
sg3
(lp123
sg12
I1
ssI24
(dp124
g2
I2
sg3
(lp125
(dp126
g6
I1
sg7
F3.525034189224243
sg8
I3
sg9
F0.0029098987579345703
sa(dp127
g6
I0
sg7
F0.0015180110931396484
sg8
I2
sg9
F0.0003657341003417969
sasg12
I3
ssI25
(dp128
g2
I1
sg3
(lp129
(dp130
g6
I1
sg7
F2.8729500770568848
sg8
I3
sg9
F0.0008180141448974609
sasg12
I3
ssI26
(dp131
g2
I0
sg3
(lp132
sg12
I1
ssI27
(dp133
g2
I0
sg3
(lp134
sg12
I1
ssI28
(dp135
g2
I0
sg3
(lp136
sg12
I1
ssI29
(dp137
g2
I6
sg3
(lp138
(dp139
g6
I5
sg7
F52.32294511795044
sg8
I7
sg9
F0.002888917922973633
sa(dp140
g6
I4
sg7
F0.0012099742889404297
sg8
I6
sg9
F0.0036258697509765625
sa(dp141
g6
I3
sg7
F0.0014679431915283203
sg8
I5
sg9
F0.001379251480102539
sa(dp142
g6
I2
sg7
F0.0012280941009521484
sg8
I4
sg9
F0.001361846923828125
sa(dp143
g6
I1
sg7
F0.0012810230255126953
sg8
I3
sg9
F0.05511784553527832
sa(dp144
g6
I0
sg7
F0.0012390613555908203
sg8
I2
sg9
F7.987022399902344e-05
sasg12
I7
ssI30
(dp145
g2
I4
sg3
(lp146
(dp147
g6
I3
sg7
F52.42294406890869
sg8
I7
sg9
F0.0032041072845458984
sa(dp148
g6
I1
sg7
F0.0012199878692626953
sg8
I5
sg9
F0.11355185508728027
sa(dp149
g6
I1
sg7
F0.0012969970703125
sg8
I3
sg9
F0.0015077590942382812
sa(dp150
g6
I0
sg7
F0.0015859603881835938
sg8
I2
sg9
F0.00016689300537109375
sasg12
I7
ssI31
(dp151
g2
I2
sg3
(lp152
(dp153
g6
I6
sg7
F1.8196959495544434
sg8
I10
sg9
F0.0029630661010742188
sa(dp154
g6
I0
sg7
F0.0012590885162353516
sg8
I2
sg9
F0.0020432472229003906
sasg12
I10
ssI32
(dp155
g2
I3
sg3
(lp156
(dp157
g6
I4
sg7
F0.8668019771575928
sg8
I10
sg9
F0.016303062438964844
sa(dp158
g6
I3
sg7
F0.003815174102783203
sg8
I7
sg9
F0.016490936279296875
sa(dp159
g6
I0
sg7
F0.0036220550537109375
sg8
I2
sg9
F0.016138076782226562
sasg12
I10
ssI33
(dp160
g2
I2
sg3
(lp161
(dp162
g6
I3
sg7
F0.7163920402526855
sg8
I11
sg9
F0.003404855728149414
sa(dp163
g6
I2
sg7
F0.0012040138244628906
sg8
I4
sg9
F0.0030901432037353516
sasg12
I11
ssI34
(dp164
g2
I6
sg3
(lp165
(dp166
g6
I46
sg7
F473.8457748889923
sg8
I70
sg9
F1.3402159214019775
sa(dp167
g6
I38
sg7
F0.007853984832763672
sg8
I58
sg9
F1.5938448905944824
sa(dp168
g6
I40
sg7
F0.01307988166809082
sg8
I48
sg9
F0.15965914726257324
sa(dp169
g6
I38
sg7
F0.0035941600799560547
sg8
I44
sg9
F0.0447080135345459
sa(dp170
g6
I39
sg7
F0.0036110877990722656
sg8
I41
sg9
F0.02683401107788086
sa(dp171
g6
I38
sg7
F0.001302957534790039
sg8
I40
sg9
F0.005773067474365234
sasg12
I70
ssI35
(dp172
g2
I6
sg3
(lp173
(dp174
g6
I38
sg7
F452.84083890914917
sg8
I70
sg9
F2.1417911052703857
sa(dp175
g6
I34
sg7
F0.17057585716247559
sg8
I54
sg9
F0.08653378486633301
sa(dp176
g6
I22
sg7
F0.00854802131652832
sg8
I44
sg9
F1.2083640098571777
sa(dp177
g6
I23
sg7
F0.0077168941497802734
sg8
I33
sg9
F0.1805739402770996
sa(dp178
g6
I26
sg7
F0.008048057556152344
sg8
I28
sg9
F0.07091808319091797
sa(dp179
g6
I25
sg7
F0.0013408660888671875
sg8
I27
sg9
F0.009689092636108398
sasg12
I70
ssI36
(dp180
g2
I2
sg3
(lp181
(dp182
g6
I7
sg7
F13.876313924789429
sg8
I17
sg9
F0.0002791881561279297
sa(dp183
g6
I3
sg7
F0.0014889240264892578
sg8
I5
sg9
F0.0001857280731201172
sasg12
I17
ssI37
(dp184
g2
I2
sg3
(lp185
(dp186
g6
I10
sg7
F14.879841089248657
sg8
I16
sg9
F0.0007419586181640625
sa(dp187
g6
I1
sg7
F0.0012159347534179688
sg8
I3
sg9
F0.00040030479431152344
sasg12
I16
ssI38
(dp188
g2
I8
sg3
(lp189
(dp190
g6
I39
sg7
F81.7519781589508
sg8
I59
sg9
F1.6685819625854492
sa(dp191
g6
I29
sg7
F0.33966898918151855
sg8
I49
sg9
F1.7579669952392578
sa(dp192
g6
I23
sg7
F0.0038270950317382812
sg8
I39
sg9
F0.011364936828613281
sa(dp193
g6
I29
sg7
F0.0015070438385009766
sg8
I31
sg9
F0.010124921798706055
sa(dp194
g6
I28
sg7
F0.0014600753784179688
sg8
I30
sg9
F0.0043909549713134766
sa(dp195
g6
I27
sg7
F0.0012159347534179688
sg8
I29
sg9
F0.004248142242431641
sa(dp196
g6
I26
sg7
F0.001667022705078125
sg8
I28
sg9
F0.0025200843811035156
sa(dp197
g6
I25
sg7
F0.0015790462493896484
sg8
I27
sg9
F0.0010080337524414062
sasg12
I59
ssI39
(dp198
g2
I7
sg3
(lp199
(dp200
g6
I47
sg7
F148.1033251285553
sg8
I79
sg9
F0.07089710235595703
sa(dp201
g6
I43
sg7
F0.001096963882446289
sg8
I63
sg9
F0.0007960796356201172
sa(dp202
g6
I33
sg7
F0.0014119148254394531
sg8
I53
sg9
F0.0005059242248535156
sa(dp203
g6
I39
sg7
F0.0012400150299072266
sg8
I43
sg9
F0.0029828548431396484
sa(dp204
g6
I39
sg7
F0.001402139663696289
sg8
I41
sg9
F0.00045680999755859375
sa(dp205
g6
I38
sg7
F0.0013129711151123047
sg8
I40
sg9
F0.00039696693420410156
sa(dp206
g6
I37
sg7
F0.001255035400390625
sg8
I39
sg9
F0.0003643035888671875
sasg12
I79
ssI40
(dp207
g2
I6
sg3
(lp208
(dp209
g6
I37
sg7
F132.93755888938904
sg8
I83
sg9
F0.29107093811035156
sa(dp210
g6
I36
sg7
F0.001132965087890625
sg8
I60
sg9
F0.002043008804321289
sa(dp211
g6
I26
sg7
F0.0012440681457519531
sg8
I48
sg9
F0.002196073532104492
sa(dp212
g6
I35
sg7
F0.0013430118560791016
sg8
I37
sg9
F0.0011870861053466797
sa(dp213
g6
I34
sg7
F0.0013210773468017578
sg8
I36
sg9
F0.00048089027404785156
sa(dp214
g6
I33
sg7
F0.0005631446838378906
sg8
I35
sg9
F0.0002200603485107422
sasg12
I83
ssI41
(dp215
g2
I3
sg3
(lp216
(dp217
g6
I1
sg7
F28.339811086654663
sg8
I5
sg9
F0.01650691032409668
sa(dp218
g6
I1
sg7
F0.0012598037719726562
sg8
I3
sg9
F0.004734992980957031
sa(dp219
g6
I0
sg7
F0.0012760162353515625
sg8
I2
sg9
F0.0003631114959716797
sasg12
I5
ssI42
(dp220
g2
I1
sg3
(lp221
(dp222
g6
I1
sg7
F49.74597501754761
sg8
I3
sg9
F1.2634079456329346
sasg12
I3
ssI43
(dp223
g2
I2
sg3
(lp224
(dp225
g6
I3
sg7
F0.36551594734191895
sg8
I5
sg9
F0.04284191131591797
sa(dp226
g6
I2
sg7
F0.008126974105834961
sg8
I4
sg9
F0.16524720191955566
sasg12
I5
ssI44
(dp227
g2
I3
sg3
(lp228
(dp229
g6
I2
sg7
F83.47704577445984
sg8
I10
sg9
F0.013750076293945312
sa(dp230
g6
I0
sg7
F0.0013091564178466797
sg8
I4
sg9
F0.003461122512817383
sa(dp231
g6
I0
sg7
F0.0014538764953613281
sg8
I2
sg9
F0.0020411014556884766
sasg12
I10
ssI45
(dp232
g2
I0
sg3
(lp233
sg12
I1
ssI46
(dp234
g2
I1
sg3
(lp235
(dp236
g6
I0
sg7
F0.5665328502655029
sg8
I2
sg9
F0.11053609848022461
sasg12
I2
ssI47
(dp237
g2
I0
sg3
(lp238
sg12
I1
ssI48
(dp239
g2
I0
sg3
(lp240
sg12
I1
ssI49
(dp241
g2
I1
sg3
(lp242
(dp243
g6
I1
sg7
F41.72167682647705
sg8
I3
sg9
F9.724840879440308
sasg12
I3
ssI50
(dp244
g2
I3
sg3
(lp245
(dp246
g6
I6
sg7
F4.026496887207031
sg8
I12
sg9
F0.00046706199645996094
sa(dp247
g6
I7
sg7
F0.0012850761413574219
sg8
I9
sg9
F0.0002410411834716797
sa(dp248
g6
I6
sg7
F0.0012309551239013672
sg8
I8
sg9
F0.00023889541625976562
sasg12
I12
ssI51
(dp249
g2
I2
sg3
(lp250
(dp251
g6
I4
sg7
F27.739436149597168
sg8
I12
sg9
F0.00464320182800293
sa(dp252
g6
I2
sg7
F0.0012290477752685547
sg8
I4
sg9
F0.0003159046173095703
sasg12
I12
ssI52
(dp253
g2
I2
sg3
(lp254
(dp255
g6
I4
sg7
F0.9669229984283447
sg8
I12
sg9
F0.0013217926025390625
sa(dp256
g6
I2
sg7
F0.0013010501861572266
sg8
I4
sg9
F0.00122833251953125
sasg12
I12
ssI53
(dp257
g2
I2
sg3
(lp258
(dp259
g6
I1
sg7
F80.0187258720398
sg8
I3
sg9
F0.004945993423461914
sa(dp260
g6
I0
sg7
F0.0015671253204345703
sg8
I2
sg9
F0.003548860549926758
sasg12
I3
ssI54
(dp261
g2
I1
sg3
(lp262
(dp263
g6
I3
sg7
F66.93806791305542
sg8
I5
sg9
F0.038308143615722656
sasg12
I5
ssI55
(dp264
g2
I2
sg3
(lp265
(dp266
g6
I6
sg7
F150.16903495788574
sg8
I10
sg9
F0.03258204460144043
sa(dp267
g6
I0
sg7
F0.00781393051147461
sg8
I2
sg9
F0.029812097549438477
sasg12
I10
ssI56
(dp268
g2
I3
sg3
(lp269
(dp270
g6
I2
sg7
F27.66221594810486
sg8
I6
sg9
F0.9903559684753418
sa(dp271
g6
I0
sg7
F0.06466889381408691
sg8
I4
sg9
F0.45383381843566895
sa(dp272
g6
I0
sg7
F0.0045468807220458984
sg8
I2
sg9
F0.024950265884399414
sasg12
I6
ssI57
(dp273
g2
I6
sg3
(lp274
(dp275
g6
I19
sg7
F6.86403489112854
sg8
I27
sg9
F0.17471909523010254
sa(dp276
g6
I19
sg7
F0.03879594802856445
sg8
I23
sg9
F0.13782191276550293
sa(dp277
g6
I19
sg7
F0.022799968719482422
sg8
I21
sg9
F0.14747905731201172
sa(dp278
g6
I18
sg7
F0.0011501312255859375
sg8
I20
sg9
F0.0012912750244140625
sa(dp279
g6
I17
sg7
F0.0013458728790283203
sg8
I19
sg9
F0.0011949539184570312
sa(dp280
g6
I16
sg7
F0.0013468265533447266
sg8
I18
sg9
F0.0008990764617919922
sasg12
I27
ssI58
(dp281
g2
I3
sg3
(lp282
(dp283
g6
I2
sg7
F44.6611750125885
sg8
I10
sg9
F0.23436307907104492
sa(dp284
g6
I2
sg7
F0.032598018646240234
sg8
I4
sg9
F0.17576289176940918
sa(dp285
g6
I1
sg7
F0.033312082290649414
sg8
I3
sg9
F0.16415119171142578
sasg12
I10
ssI59
(dp286
g2
I7
sg3
(lp287
(dp288
g6
I23
sg7
F289.4532871246338
sg8
I59
sg9
F4.672079801559448
sa(dp289
g6
I25
sg7
F0.8199310302734375
sg8
I41
sg9
F4.438632249832153
sa(dp290
g6
I15
sg7
F0.6410059928894043
sg8
I33
sg9
F4.612024784088135
sa(dp291
g6
I20
sg7
F0.5439391136169434
sg8
I24
sg9
F2.7951340675354004
sa(dp292
g6
I20
sg7
F0.3766670227050781
sg8
I22
sg9
F2.328988790512085
sa(dp293
g6
I19
sg7
F0.33449292182922363
sg8
I21
sg9
F1.693248987197876
sa(dp294
g6
I18
sg7
F0.19626808166503906
sg8
I20
sg9
F0.3793048858642578
sasg12
I59
ssI60
(dp295
g2
I2
sg3
(lp296
(dp297
g6
I9
sg7
F13.324793815612793
sg8
I15
sg9
F0.0008580684661865234
sa(dp298
g6
I1
sg7
F0.0013480186462402344
sg8
I3
sg9
F0.00040411949157714844
sasg12
I15
ssI61
(dp299
g2
I3
sg3
(lp300
(dp301
g6
I5
sg7
F26.98627495765686
sg8
I17
sg9
F0.02456378936767578
sa(dp302
g6
I4
sg7
F0.001199960708618164
sg8
I6
sg9
F0.000270843505859375
sa(dp303
g6
I3
sg7
F0.0012471675872802734
sg8
I5
sg9
F0.00019598007202148438
sasg12
I17
ssI62
(dp304
g2
I15
sg3
(lp305
(dp306
g6
I110
sg7
F630.3388891220093
sg8
I158
sg9
F3.837778091430664
sa(dp307
g6
I90
sg7
F0.01955389976501465
sg8
I134
sg9
F0.05626106262207031
sa(dp308
g6
I72
sg7
F0.008067846298217773
sg8
I112
sg9
F3.122399091720581
sa(dp309
g6
I72
sg7
F0.008265018463134766
sg8
I92
sg9
F0.5607748031616211
sa(dp310
g6
I78
sg7
F0.001268148422241211
sg8
I82
sg9
F0.0043010711669921875
sa(dp311
g6
I76
sg7
F0.0011959075927734375
sg8
I80
sg9
F0.0056209564208984375
sa(dp312
g6
I74
sg7
F0.0012249946594238281
sg8
I78
sg9
F0.004363298416137695
sa(dp313
g6
I72
sg7
F0.0013380050659179688
sg8
I76
sg9
F0.0038149356842041016
sa(dp314
g6
I70
sg7
F0.0012979507446289062
sg8
I74
sg9
F0.11522603034973145
sa(dp315
g6
I70
sg7
F0.0014140605926513672
sg8
I72
sg9
F0.003014087677001953
sa(dp316
g6
I69
sg7
F0.0012269020080566406
sg8
I71
sg9
F0.0005621910095214844
sa(dp317
g6
I68
sg7
F0.0012140274047851562
sg8
I70
sg9
F0.0006070137023925781
sa(dp318
g6
I67
sg7
F0.0013699531555175781
sg8
I69
sg9
F0.00036787986755371094
sa(dp319
g6
I66
sg7
F0.001332998275756836
sg8
I68
sg9
F0.00044798851013183594
sa(dp320
g6
I65
sg7
F0.0012290477752685547
sg8
I67
sg9
F0.0003571510314941406
sasg12
I158
ssI63
(dp321
g2
I7
sg3
(lp322
(dp323
g6
I57
sg7
F216.9944851398468
sg8
I77
sg9
F0.06983399391174316
sa(dp324
g6
I45
sg7
F0.04584503173828125
sg8
I67
sg9
F0.3248460292816162
sa(dp325
g6
I36
sg7
F0.0036339759826660156
sg8
I56
sg9
F0.010665178298950195
sa(dp326
g6
I40
sg7
F0.0014081001281738281
sg8
I46
sg9
F0.12154722213745117
sa(dp327
g6
I39
sg7
F0.0013289451599121094
sg8
I43
sg9
F0.1121978759765625
sa(dp328
g6
I39
sg7
F0.0011761188507080078
sg8
I41
sg9
F0.001817941665649414
sa(dp329
g6
I38
sg7
F0.0011019706726074219
sg8
I40
sg9
F0.0009491443634033203
sasg12
I77
ssI64
(dp330
g2
I19
sg3
(lp331
(dp332
g6
I115
sg7
F913.4821510314941
sg8
I135
sg9
F25.434436082839966
sa(dp333
g6
I119
sg7
F2.8540220260620117
sg8
I125
sg9
F16.657604932785034
sa(dp334
g6
I118
sg7
F2.974555015563965
sg8
I122
sg9
F13.23147201538086
sa(dp335
g6
I116
sg7
F1.549921989440918
sg8
I120
sg9
F11.27500319480896
sa(dp336
g6
I114
sg7
F2.120306968688965
sg8
I118
sg9
F10.894108057022095
sa(dp337
g6
I112
sg7
F1.7304961681365967
sg8
I116
sg9
F10.336124897003174
sa(dp338
g6
I110
sg7
F1.1461498737335205
sg8
I114
sg9
F7.554549932479858
sa(dp339
g6
I108
sg7
F1.1098120212554932
sg8
I112
sg9
F7.80303692817688
sa(dp340
g6
I106
sg7
F0.06912589073181152
sg8
I110
sg9
F0.45052599906921387
sa(dp341
g6
I104
sg7
F0.833521842956543
sg8
I108
sg9
F1.3042187690734863
sa(dp342
g6
I102
sg7
F0.29867005348205566
sg8
I106
sg9
F1.2623100280761719
sa(dp343
g6
I100
sg7
F0.29644107818603516
sg8
I104
sg9
F1.5575261116027832
sa(dp344
g6
I98
sg7
F0.2871119976043701
sg8
I102
sg9
F1.2166731357574463
sa(dp345
g6
I96
sg7
F0.31816697120666504
sg8
I100
sg9
F1.1700952053070068
sa(dp346
g6
I94
sg7
F0.28800296783447266
sg8
I98
sg9
F1.2979681491851807
sa(dp347
g6
I92
sg7
F0.3082559108734131
sg8
I96
sg9
F1.1718223094940186
sa(dp348
g6
I90
sg7
F0.29068708419799805
sg8
I94
sg9
F1.3114302158355713
sa(dp349
g6
I90
sg7
F0.3209819793701172
sg8
I92
sg9
F1.1362221240997314
sa(dp350
g6
I89
sg7
F0.0036590099334716797
sg8
I91
sg9
F0.04372596740722656
sasg12
I135
ssI65
(dp351
g2
I6
sg3
(lp352
(dp353
g6
I22
sg7
F246.04071807861328
sg8
I26
sg9
F0.03899502754211426
sa(dp354
g6
I20
sg7
F0.0011210441589355469
sg8
I24
sg9
F0.015913009643554688
sa(dp355
g6
I20
sg7
F0.0013399124145507812
sg8
I22
sg9
F0.01583695411682129
sa(dp356
g6
I19
sg7
F0.0011749267578125
sg8
I21
sg9
F0.011701107025146484
sa(dp357
g6
I18
sg7
F0.001216888427734375
sg8
I20
sg9
F0.010821104049682617
sa(dp358
g6
I17
sg7
F0.0013570785522460938
sg8
I19
sg9
F0.010191917419433594
sasg12
I26
ssI66
(dp359
g2
I6
sg3
(lp360
(dp361
g6
I21
sg7
F165.4386420249939
sg8
I25
sg9
F0.21733808517456055
sa(dp362
g6
I19
sg7
F0.007993936538696289
sg8
I23
sg9
F0.07485508918762207
sa(dp363
g6
I13
sg7
F0.008199930191040039
sg8
I21
sg9
F0.1131601333618164
sa(dp364
g6
I15
sg7
F0.007831096649169922
sg8
I17
sg9
F0.0684199333190918
sa(dp365
g6
I14
sg7
F0.0036721229553222656
sg8
I16
sg9
F0.03328108787536621
sa(dp366
g6
I13
sg7
F0.0012710094451904297
sg8
I15
sg9
F0.008764982223510742
sasg12
I25
ssI67
(dp367
g2
I12
sg3
(lp368
(dp369
g6
I21
sg7
F1.8220798969268799
sg8
I25
sg9
F0.21242499351501465
sa(dp370
g6
I19
sg7
F0.007791042327880859
sg8
I23
sg9
F0.034034013748168945
sa(dp371
g6
I17
sg7
F0.003493785858154297
sg8
I21
sg9
F0.02736973762512207
sa(dp372
g6
I15
sg7
F0.003493070602416992
sg8
I19
sg9
F0.02771782875061035
sa(dp373
g6
I13
sg7
F0.003454923629760742
sg8
I17
sg9
F0.02554607391357422
sa(dp374
g6
I13
sg7
F0.0036199092864990234
sg8
I15
sg9
F0.024322032928466797
sa(dp375
g6
I12
sg7
F0.0012869834899902344
sg8
I14
sg9
F0.0057277679443359375
sa(dp376
g6
I11
sg7
F0.0012478828430175781
sg8
I13
sg9
F0.005738019943237305
sa(dp377
g6
I10
sg7
F0.0013608932495117188
sg8
I12
sg9
F0.0040130615234375
sa(dp378
g6
I9
sg7
F0.0012390613555908203
sg8
I11
sg9
F0.0031549930572509766
sa(dp379
g6
I8
sg7
F0.0012199878692626953
sg8
I10
sg9
F0.0023059844970703125
sa(dp380
g6
I7
sg7
F0.0014729499816894531
sg8
I9
sg9
F0.0004608631134033203
sasg12
I25
ssI68
(dp381
g2
I9
sg3
(lp382
(dp383
g6
I51
sg7
F16.986165046691895
sg8
I73
sg9
F0.003858804702758789
sa(dp384
g6
I40
sg7
F0.0011970996856689453
sg8
I62
sg9
F0.0029571056365966797
sa(dp385
g6
I31
sg7
F0.0014691352844238281
sg8
I51
sg9
F0.002254009246826172
sa(dp386
g6
I23
sg7
F0.0013539791107177734
sg8
I41
sg9
F0.0021333694458007812
sa(dp387
g6
I30
sg7
F0.0015368461608886719
sg8
I32
sg9
F0.0023479461669921875
sa(dp388
g6
I29
sg7
F0.0013778209686279297
sg8
I31
sg9
F0.003979206085205078
sa(dp389
g6
I28
sg7
F0.0013871192932128906
sg8
I30
sg9
F0.0003590583801269531
sa(dp390
g6
I27
sg7
F0.0016460418701171875
sg8
I29
sg9
F0.00033283233642578125
sa(dp391
g6
I26
sg7
F0.0012447834014892578
sg8
I28
sg9
F0.000270843505859375
sasg12
I73
ssI69
(dp392
g2
I9
sg3
(lp393
(dp394
g6
I48
sg7
F27.18737292289734
sg8
I72
sg9
F0.0069789886474609375
sa(dp395
g6
I36
sg7
F0.0012068748474121094
sg8
I60
sg9
F0.003545045852661133
sa(dp396
g6
I26
sg7
F0.0014798641204833984
sg8
I48
sg9
F0.003770112991333008
sa(dp397
g6
I17
sg7
F0.0012791156768798828
sg8
I37
sg9
F0.0021162033081054688
sa(dp398
g6
I25
sg7
F0.0013689994812011719
sg8
I27
sg9
F0.0007617473602294922
sa(dp399
g6
I24
sg7
F0.0013360977172851562
sg8
I26
sg9
F0.0005671977996826172
sa(dp400
g6
I23
sg7
F0.0013759136199951172
sg8
I25
sg9
F0.0005190372467041016
sa(dp401
g6
I22
sg7
F0.0012538433074951172
sg8
I24
sg9
F0.00021409988403320312
sa(dp402
g6
I21
sg7
F0.0012578964233398438
sg8
I23
sg9
F0.00016427040100097656
sasg12
I72
ssI70
(dp403
g2
I13
sg3
(lp404
(dp405
g6
I101
sg7
F892.5922870635986
sg8
I109
sg9
F5.186026096343994
sa(dp406
g6
I97
sg7
F0.8021378517150879
sg8
I105
sg9
F4.33019495010376
sa(dp407
g6
I97
sg7
F0.1658790111541748
sg8
I101
sg9
F2.2906007766723633
sa(dp408
g6
I95
sg7
F0.30733799934387207
sg8
I99
sg9
F2.03364896774292
sa(dp409
g6
I93
sg7
F0.26494693756103516
sg8
I97
sg9
F1.3168258666992188
sa(dp410
g6
I91
sg7
F0.20098614692687988
sg8
I95
sg9
F1.2632839679718018
sa(dp411
g6
I89
sg7
F0.22487998008728027
sg8
I93
sg9
F1.3763940334320068
sa(dp412
g6
I87
sg7
F0.23981881141662598
sg8
I91
sg9
F2.092607021331787
sa(dp413
g6
I85
sg7
F0.21166682243347168
sg8
I89
sg9
F1.8136780261993408
sa(dp414
g6
I83
sg7
F0.23894000053405762
sg8
I87
sg9
F1.0738468170166016
sa(dp415
g6
I83
sg7
F0.21115398406982422
sg8
I85
sg9
F1.059715986251831
sa(dp416
g6
I82
sg7
F0.017567873001098633
sg8
I84
sg9
F0.23051714897155762
sa(dp417
g6
I81
sg7
F0.007636070251464844
sg8
I83
sg9
F0.648190975189209
sasg12
I109
ssI71
(dp418
g2
I64
sg3
(lp419
(dp420
g6
I552
sg7
F1098.9508969783783
sg8
I568
sg9
F38.095097064971924
sa(dp421
g6
I548
sg7
F7.829698085784912
sg8
I560
sg9
F33.75769519805908
sa(dp422
g6
I544
sg7
F9.493077039718628
sg8
I554
sg9
F28.750504732131958
sa(dp423
g6
I541
sg7
F5.904207944869995
sg8
I549
sg9
F26.817286014556885
sa(dp424
g6
I539
sg7
F4.6911280155181885
sg8
I545
sg9
F24.542211055755615
sa(dp425
g6
I538
sg7
F7.012470960617065
sg8
I542
sg9
F23.920418977737427
sa(dp426
g6
I536
sg7
F5.258502960205078
sg8
I540
sg9
F17.06316089630127
sa(dp427
g6
I534
sg7
F3.4938302040100098
sg8
I538
sg9
F12.704923152923584
sa(dp428
g6
I532
sg7
F3.224064826965332
sg8
I536
sg9
F9.511348009109497
sa(dp429
g6
I530
sg7
F2.4721670150756836
sg8
I534
sg9
F9.159854888916016
sa(dp430
g6
I528
sg7
F1.5460000038146973
sg8
I532
sg9
F10.11843991279602
sa(dp431
g6
I526
sg7
F2.1448700428009033
sg8
I530
sg9
F10.021632194519043
sa(dp432
g6
I524
sg7
F1.8389160633087158
sg8
I528
sg9
F9.151087999343872
sa(dp433
g6
I522
sg7
F2.4227960109710693
sg8
I526
sg9
F10.403710842132568
sa(dp434
g6
I520
sg7
F1.6855039596557617
sg8
I524
sg9
F9.677257776260376
sa(dp435
g6
I518
sg7
F2.4220168590545654
sg8
I522
sg9
F8.93417477607727
sa(dp436
g6
I516
sg7
F3.003955125808716
sg8
I520
sg9
F9.392404079437256
sa(dp437
g6
I514
sg7
F2.0863711833953857
sg8
I518
sg9
F10.359478950500488
sa(dp438
g6
I512
sg7
F1.857680082321167
sg8
I516
sg9
F9.997243165969849
sa(dp439
g6
I510
sg7
F1.777867078781128
sg8
I514
sg9
F9.1045401096344
sa(dp440
g6
I508
sg7
F0.9359099864959717
sg8
I512
sg9
F6.31571888923645
sa(dp441
g6
I506
sg7
F1.722782850265503
sg8
I510
sg9
F7.328938961029053
sa(dp442
g6
I504
sg7
F1.210866928100586
sg8
I508
sg9
F5.854336977005005
sa(dp443
g6
I502
sg7
F1.738049030303955
sg8
I506
sg9
F5.477014064788818
sa(dp444
g6
I500
sg7
F1.1469500064849854
sg8
I504
sg9
F6.23925518989563
sa(dp445
g6
I498
sg7
F1.1668510437011719
sg8
I502
sg9
F5.130829095840454
sa(dp446
g6
I496
sg7
F1.1549510955810547
sg8
I500
sg9
F6.443194150924683
sa(dp447
g6
I494
sg7
F0.8850297927856445
sg8
I498
sg9
F5.774326801300049
sa(dp448
g6
I492
sg7
F0.7972650527954102
sg8
I496
sg9
F4.991837978363037
sa(dp449
g6
I490
sg7
F1.1351039409637451
sg8
I494
sg9
F5.55315899848938
sa(dp450
g6
I488
sg7
F0.7529551982879639
sg8
I492
sg9
F5.760248184204102
sa(dp451
g6
I486
sg7
F0.7737500667572021
sg8
I490
sg9
F5.4268481731414795
sa(dp452
g6
I484
sg7
F1.131559133529663
sg8
I488
sg9
F5.215129137039185
sa(dp453
g6
I482
sg7
F1.207190990447998
sg8
I486
sg9
F5.533809185028076
sa(dp454
g6
I480
sg7
F0.7597999572753906
sg8
I484
sg9
F6.294921159744263
sa(dp455
g6
I478
sg7
F1.125727891921997
sg8
I482
sg9
F7.148403882980347
sa(dp456
g6
I476
sg7
F0.7254190444946289
sg8
I480
sg9
F5.63238000869751
sa(dp457
g6
I474
sg7
F1.1600089073181152
sg8
I478
sg9
F5.016751050949097
sa(dp458
g6
I472
sg7
F1.1417388916015625
sg8
I476
sg9
F4.985297203063965
sa(dp459
g6
I470
sg7
F1.111656904220581
sg8
I474
sg9
F4.883034706115723
sa(dp460
g6
I468
sg7
F1.1174728870391846
sg8
I472
sg9
F6.252342939376831
sa(dp461
g6
I468
sg7
F0.7273609638214111
sg8
I470
sg9
F5.7544920444488525
sa(dp462
g6
I467
sg7
F0.6924941539764404
sg8
I469
sg9
F3.83137583732605
sa(dp463
g6
I466
sg7
F0.6092398166656494
sg8
I468
sg9
F3.3582658767700195
sa(dp464
g6
I465
sg7
F0.4711010456085205
sg8
I467
sg9
F1.012063980102539
sa(dp465
g6
I464
sg7
F0.01660013198852539
sg8
I466
sg9
F0.4777810573577881
sa(dp466
g6
I463
sg7
F0.016630887985229492
sg8
I465
sg9
F0.4478471279144287
sa(dp467
g6
I462
sg7
F0.017018795013427734
sg8
I464
sg9
F0.07784581184387207
sa(dp468
g6
I461
sg7
F0.016190052032470703
sg8
I463
sg9
F0.08707308769226074
sa(dp469
g6
I460
sg7
F0.007844924926757812
sg8
I462
sg9
F0.07124114036560059
sa(dp470
g6
I459
sg7
F0.01125788688659668
sg8
I461
sg9
F0.06157088279724121
sa(dp471
g6
I458
sg7
F0.008271932601928711
sg8
I460
sg9
F0.058435916900634766
sa(dp472
g6
I457
sg7
F0.00792384147644043
sg8
I459
sg9
F0.04497408866882324
sa(dp473
g6
I456
sg7
F0.007831096649169922
sg8
I458
sg9
F0.391402006149292
sa(dp474
g6
I455
sg7
F0.007772922515869141
sg8
I457
sg9
F0.042304277420043945
sa(dp475
g6
I454
sg7
F0.007730007171630859
sg8
I456
sg9
F0.04717588424682617
sa(dp476
g6
I453
sg7
F0.007915019989013672
sg8
I455
sg9
F0.039170026779174805
sa(dp477
g6
I452
sg7
F0.008950948715209961
sg8
I454
sg9
F0.03698992729187012
sa(dp478
g6
I451
sg7
F0.007612943649291992
sg8
I453
sg9
F0.026826858520507812
sa(dp479
g6
I450
sg7
F0.005582094192504883
sg8
I452
sg9
F0.028668880462646484
sa(dp480
g6
I449
sg7
F0.0035958290100097656
sg8
I451
sg9
F0.026927947998046875
sa(dp481
g6
I448
sg7
F0.00368499755859375
sg8
I450
sg9
F0.021476030349731445
sa(dp482
g6
I447
sg7
F0.004371166229248047
sg8
I449
sg9
F0.020417213439941406
sa(dp483
g6
I446
sg7
F0.0037970542907714844
sg8
I448
sg9
F0.017400741577148438
sasg12
I568
ssI72
(dp484
g2
I18
sg3
(lp485
(dp486
g6
I121
sg7
F1127.2717809677124
sg8
I125
sg9
F0.19010615348815918
sa(dp487
g6
I119
sg7
F0.003412961959838867
sg8
I123
sg9
F0.05683183670043945
sa(dp488
g6
I117
sg7
F0.003468036651611328
sg8
I121
sg9
F0.08138608932495117
sa(dp489
g6
I115
sg7
F0.004676103591918945
sg8
I119
sg9
F0.05471992492675781
sa(dp490
g6
I115
sg7
F0.003523111343383789
sg8
I117
sg9
F0.07650589942932129
sa(dp491
g6
I114
sg7
F0.0013360977172851562
sg8
I116
sg9
F0.040062904357910156
sa(dp492
g6
I113
sg7
F0.0012240409851074219
sg8
I115
sg9
F0.04071307182312012
sa(dp493
g6
I112
sg7
F0.0013480186462402344
sg8
I114
sg9
F0.029646873474121094
sa(dp494
g6
I111
sg7
F0.0014340877532958984
sg8
I113
sg9
F0.0976097583770752
sa(dp495
g6
I110
sg7
F0.0012288093566894531
sg8
I112
sg9
F0.035054922103881836
sa(dp496
g6
I109
sg7
F0.001249074935913086
sg8
I111
sg9
F0.0443110466003418
sa(dp497
g6
I108
sg7
F0.0012159347534179688
sg8
I110
sg9
F0.032389163970947266
sa(dp498
g6
I107
sg7
F0.0011980533599853516
sg8
I109
sg9
F0.04265904426574707
sa(dp499
g6
I106
sg7
F0.0012249946594238281
sg8
I108
sg9
F0.03159022331237793
sa(dp500
g6
I105
sg7
F0.001329183578491211
sg8
I107
sg9
F0.03305816650390625
sa(dp501
g6
I104
sg7
F0.0013611316680908203
sg8
I106
sg9
F0.03172492980957031
sa(dp502
g6
I103
sg7
F0.0013818740844726562
sg8
I105
sg9
F0.030432939529418945
sa(dp503
g6
I102
sg7
F0.001199960708618164
sg8
I104
sg9
F0.038558006286621094
sasg12
I125
ssI73
(dp504
g2
I17
sg3
(lp505
(dp506
g6
I121
sg7
F843.9137570858002
sg8
I125
sg9
F0.6610100269317627
sa(dp507
g6
I119
sg7
F0.10925483703613281
sg8
I123
sg9
F0.4561891555786133
sa(dp508
g6
I117
sg7
F0.032713890075683594
sg8
I121
sg9
F1.2376720905303955
sa(dp509
g6
I115
sg7
F0.03405904769897461
sg8
I119
sg9
F0.2714688777923584
sa(dp510
g6
I113
sg7
F0.03349494934082031
sg8
I117
sg9
F0.2537987232208252
sa(dp511
g6
I111
sg7
F0.03404808044433594
sg8
I115
sg9
F0.305617094039917
sa(dp512
g6
I109
sg7
F0.06039118766784668
sg8
I113
sg9
F0.27308106422424316
sa(dp513
g6
I107
sg7
F0.08335399627685547
sg8
I111
sg9
F0.2559940814971924
sa(dp514
g6
I105
sg7
F0.032373905181884766
sg8
I109
sg9
F0.40043091773986816
sa(dp515
g6
I103
sg7
F0.034793853759765625
sg8
I107
sg9
F0.2551138401031494
sa(dp516
g6
I103
sg7
F0.03256106376647949
sg8
I105
sg9
F0.2478160858154297
sa(dp517
g6
I102
sg7
F0.016983985900878906
sg8
I104
sg9
F0.16461181640625
sa(dp518
g6
I101
sg7
F0.004452943801879883
sg8
I103
sg9
F0.14336204528808594
sa(dp519
g6
I100
sg7
F0.0034329891204833984
sg8
I102
sg9
F0.04885101318359375
sa(dp520
g6
I99
sg7
F0.003559112548828125
sg8
I101
sg9
F0.04789590835571289
sa(dp521
g6
I98
sg7
F0.0012059211730957031
sg8
I100
sg9
F0.03689098358154297
sa(dp522
g6
I97
sg7
F0.003718852996826172
sg8
I99
sg9
F0.03933906555175781
sasg12
I125
ssI138
(dp523
g2
I3
sg3
(lp524
(dp525
g6
I35
sg7
F1.2180261611938477
sg8
I75
sg9
F0.0014312267303466797
sa(dp526
g6
I49
sg7
F0.00119781494140625
sg8
I55
sg9
F0.001071929931640625
sa(dp527
g6
I50
sg7
F0.001219034194946289
sg8
I52
sg9
F0.0002448558807373047
sasg12
I75
ssI141
(dp528
g2
I10
sg3
(lp529
(dp530
g6
I291
sg7
F436.8486969470978
sg8
I383
sg9
F0.7442529201507568
sa(dp531
g6
I279
sg7
F0.01732921600341797
sg8
I337
sg9
F0.5242099761962891
sa(dp532
g6
I260
sg7
F0.007681846618652344
sg8
I308
sg9
F0.11120200157165527
sa(dp533
g6
I266
sg7
F0.010920047760009766
sg8
I284
sg9
F0.03003072738647461
sa(dp534
g6
I263
sg7
F0.009781122207641602
sg8
I275
sg9
F0.026732921600341797
sa(dp535
g6
I253
sg7
F0.005970001220703125
sg8
I269
sg9
F0.017520904541015625
sa(dp536
g6
I247
sg7
F0.005522966384887695
sg8
I261
sg9
F0.013687849044799805
sa(dp537
g6
I246
sg7
F0.003908872604370117
sg8
I254
sg9
F0.0011188983917236328
sa(dp538
g6
I248
sg7
F0.0020058155059814453
sg8
I250
sg9
F0.0006608963012695312
sa(dp539
g6
I247
sg7
F0.0034410953521728516
sg8
I249
sg9
F0.0005221366882324219
sasg12
I383
ssI139
(dp540
g2
I9
sg3
(lp541
(dp542
g6
I371
sg7
F108.78156208992004
sg8
I425
sg9
F5.070563077926636
sa(dp543
g6
I350
sg7
F1.2590150833129883
sg8
I398
sg9
F5.5332350730896
sa(dp544
g6
I336
sg7
F1.0059940814971924
sg8
I374
sg9
F4.457993984222412
sa(dp545
g6
I343
sg7
F1.0748119354248047
sg8
I355
sg9
F4.427077054977417
sa(dp546
g6
I341
sg7
F0.0035479068756103516
sg8
I349
sg9
F0.002106189727783203
sa(dp547
g6
I339
sg7
F0.0035479068756103516
sg8
I345
sg9
F0.0018849372863769531
sa(dp548
g6
I340
sg7
F0.003693103790283203
sg8
I342
sg9
F0.0010287761688232422
sa(dp549
g6
I339
sg7
F0.003999948501586914
sg8
I341
sg9
F0.0007269382476806641
sa(dp550
g6
I338
sg7
F0.003774881362915039
sg8
I340
sg9
F0.0006692409515380859
sasg12
I425
ssI142
(dp551
g2
I1
sg3
(lp552
(dp553
g6
I1
sg7
F49.29457116127014
sg8
I3
sg9
F0.02087712287902832
sasg12
I3
ssI135
(dp554
g2
I2
sg3
(lp555
(dp556
g6
I1
sg7
F46.182985067367554
sg8
I7
sg9
F1.2465660572052002
sa(dp557
g6
I1
sg7
F0.008884906768798828
sg8
I3
sg9
F0.05456995964050293
sasg12
I7
ssI133
(dp558
g2
I1
sg3
(lp559
(dp560
g6
I0
sg7
F21.16839098930359
sg8
I2
sg9
F0.0031669139862060547
sasg12
I2
ssI148
(dp561
g2
I9
sg3
(lp562
(dp563
g6
I307
sg7
F123.82733201980591
sg8
I359
sg9
F0.022300004959106445
sa(dp564
g6
I283
sg7
F0.005220890045166016
sg8
I333
sg9
F0.028280019760131836
sa(dp565
g6
I276
sg7
F0.003412008285522461
sg8
I308
sg9
F0.004142045974731445
sa(dp566
g6
I284
sg7
F0.0036029815673828125
sg8
I292
sg9
F0.002229928970336914
sa(dp567
g6
I280
sg7
F0.0037679672241210938
sg8
I288
sg9
F0.0026628971099853516
sa(dp568
g6
I280
sg7
F0.003526926040649414
sg8
I284
sg9
F0.0016911029815673828
sa(dp569
g6
I280
sg7
F0.004431009292602539
sg8
I282
sg9
F0.0020940303802490234
sa(dp570
g6
I279
sg7
F0.0032989978790283203
sg8
I281
sg9
F0.0009870529174804688
sa(dp571
g6
I278
sg7
F0.0016770362854003906
sg8
I280
sg9
F0.0006167888641357422
sasg12
I359
ssI140
(dp572
g2
I0
sg3
(lp573
sg12
I1
ssI137
(dp574
g2
I9
sg3
(lp575
(dp576
g6
I344
sg7
F252.98770308494568
sg8
I400
sg9
F0.7631950378417969
sa(dp577
g6
I326
sg7
F0.04232001304626465
sg8
I372
sg9
F0.21840596199035645
sa(dp578
g6
I307
sg7
F0.051872968673706055
sg8
I349
sg9
F0.18093299865722656
sa(dp579
g6
I316
sg7
F0.03711700439453125
sg8
I328
sg9
F0.19167518615722656
sa(dp580
g6
I314
sg7
F0.003548860549926758
sg8
I322
sg9
F0.0019979476928710938
sa(dp581
g6
I312
sg7
F0.003612995147705078
sg8
I318
sg9
F0.002249002456665039
sa(dp582
g6
I313
sg7
F0.0036079883575439453
sg8
I315
sg9
F0.0019059181213378906
sa(dp583
g6
I312
sg7
F0.003643035888671875
sg8
I314
sg9
F0.0013489723205566406
sa(dp584
g6
I311
sg7
F0.0038170814514160156
sg8
I313
sg9
F0.0010073184967041016
sasg12
I400
ssI136
(dp585
g2
I3
sg3
(lp586
(dp587
g6
I13
sg7
F9.04058289527893
sg8
I57
sg9
F0.0017180442810058594
sa(dp588
g6
I29
sg7
F0.0013921260833740234
sg8
I35
sg9
F0.0008461475372314453
sa(dp589
g6
I30
sg7
F0.0011091232299804688
sg8
I32
sg9
F0.0003120899200439453
sasg12
I57
ss.