(dp0
I1
(dp1
S'iters'
p2
I1
sS'meta'
p3
(lp4
(dp5
S'objective'
p6
I2
sS'query_time'
p7
F20.01364779472351
sS'comp_time'
p8
F0.0020372867584228516
sS'exec_cq'
p9
I4
sS'total_cq'
p10
I4
sasS'total_cqs'
p11
I4
ssI2
(dp12
S'iters'
p13
I1
sS'meta'
p14
(lp15
(dp16
S'objective'
p17
I2
sS'query_time'
p18
F0.02175593376159668
sS'comp_time'
p19
F0.002068758010864258
sS'exec_cq'
p20
I4
sS'total_cq'
p21
I4
sasS'total_cqs'
p22
I4
ssI5
(dp23
S'iters'
p24
I12
sS'meta'
p25
(lp26
(dp27
S'objective'
p28
I1167
sS'query_time'
p29
F67.41035890579224
sS'comp_time'
p30
F1.0309522151947021
sS'exec_cq'
p31
I54
sS'total_cq'
p32
I54
sa(dp33
g28
I1238
sg29
F0.009800910949707031
sg30
F0.016091108322143555
sg31
I48
sg32
I48
sa(dp34
g28
I1208
sg29
F0.007941961288452148
sg30
F0.02021312713623047
sg31
I47
sg32
I47
sa(dp35
g28
I1179
sg29
F0.0002276897430419922
sg30
F0.0003876686096191406
sg31
I45
sg32
I45
sa(dp36
g28
I1172
sg29
F0.0001881122589111328
sg30
F0.0003769397735595703
sg31
I44
sg32
I44
sa(dp37
g28
I1178
sg29
F0.00012636184692382812
sg30
F0.00019097328186035156
sg31
I43
sg32
I43
sa(dp38
g28
I393
sg29
F0.8106508255004883
sg30
F0.00020384788513183594
sg31
I35
sg32
I42
sa(dp39
g28
I515
sg29
F1.7030117511749268
sg30
F0.0008800029754638672
sg31
I30
sg32
I30
sa(dp40
g28
I324
sg29
F0.11896920204162598
sg30
F0.0004329681396484375
sg31
I25
sg32
I25
sa(dp41
g28
I318
sg29
F0.19792866706848145
sg30
F0.0003840923309326172
sg31
I18
sg32
I18
sa(dp42
g28
I395
sg29
F6.389617919921875e-05
sg30
F0.00013494491577148438
sg31
I16
sg32
I16
sa(dp43
g28
I291
sg29
F0.006386995315551758
sg30
F0.00012922286987304688
sg31
I15
sg32
I15
sasS'total_cqs'
p44
I54
ssI6
(dp45
S'iters'
p46
I1
sS'meta'
p47
(lp48
(dp49
S'objective'
p50
I2
sS'query_time'
p51
F20.02741289138794
sS'comp_time'
p52
F0.001981019973754883
sS'exec_cq'
p53
I4
sS'total_cq'
p54
I4
sasS'total_cqs'
p55
I4
ssI135
(dp56
S'iters'
p57
I2
sS'meta'
p58
(lp59
(dp60
S'objective'
p61
I2
sS'query_time'
p62
F28.300403833389282
sS'comp_time'
p63
F0.4126262664794922
sS'exec_cq'
p64
I7
sS'total_cq'
p65
I7
sa(dp66
g61
I1
sg62
F0.1269218921661377
sg63
F0.3142852783203125
sg64
I2
sg65
I2
sasS'total_cqs'
p67
I7
ssI136
(dp68
S'iters'
p69
I3
sS'meta'
p70
(lp71
(dp72
S'objective'
p73
I491
sS'query_time'
p74
F20.186251878738403
sS'comp_time'
p75
F0.10406994819641113
sS'exec_cq'
p76
I46
sS'total_cq'
p77
I57
sa(dp78
g73
I914
sg74
F0.07152390480041504
sg75
F0.0014460086822509766
sg76
I35
sg77
I35
sa(dp79
g73
I879
sg74
F0.00013899803161621094
sg75
F0.00019788742065429688
sg76
I32
sg77
I32
sasS'total_cqs'
p80
I57
ssI9
(dp81
S'iters'
p82
I1
sS'meta'
p83
(lp84
(dp85
S'objective'
p86
I0
sS'query_time'
p87
F26.937726974487305
sS'comp_time'
p88
F0.018368005752563477
sS'exec_cq'
p89
I3
sS'total_cq'
p90
I3
sasS'total_cqs'
p91
I3
ssI10
(dp92
S'iters'
p93
I1
sS'meta'
p94
(lp95
(dp96
S'objective'
p97
I2
sS'query_time'
p98
F1.360234022140503
sS'comp_time'
p99
F0.008507490158081055
sS'exec_cq'
p100
I4
sS'total_cq'
p101
I4
sasS'total_cqs'
p102
I4
ssI11
(dp103
S'iters'
p104
I1
sS'meta'
p105
(lp106
(dp107
S'objective'
p108
I14
sS'query_time'
p109
F20.020936965942383
sS'comp_time'
p110
F0.0035409927368164062
sS'exec_cq'
p111
I7
sS'total_cq'
p112
I7
sasS'total_cqs'
p113
I7
ssI12
(dp114
S'iters'
p115
I1
sS'meta'
p116
(lp117
(dp118
S'objective'
p119
I14
sS'query_time'
p120
F20.098247051239014
sS'comp_time'
p121
F0.004509925842285156
sS'exec_cq'
p122
I6
sS'total_cq'
p123
I7
sasS'total_cqs'
p124
I7
ssI141
(dp125
S'iters'
p126
I9
sS'meta'
p127
(lp128
(dp129
S'objective'
p130
I64066
sS'query_time'
p131
F55.0783429145813
sS'comp_time'
p132
F9.36111068725586
sS'exec_cq'
p133
I383
sS'total_cq'
p134
I383
sa(dp135
g130
I59909
sg131
F0.008363008499145508
sg132
F0.02315807342529297
sg133
I360
sg134
I360
sa(dp136
g130
I55903
sg131
F0.0060541629791259766
sg132
F0.017622709274291992
sg133
I337
sg134
I337
sa(dp137
g130
I57689
sg131
F0.005651712417602539
sg132
F0.014834165573120117
sg133
I319
sg134
I319
sa(dp138
g130
I57083
sg131
F0.0014328956604003906
sg132
F0.004191160202026367
sg133
I313
sg134
I313
sa(dp139
g130
I56304
sg131
F0.0011751651763916016
sg132
F0.003178119659423828
sg133
I308
sg134
I308
sa(dp140
g130
I55738
sg131
F0.0010960102081298828
sg132
F0.0029518604278564453
sg133
I304
sg134
I304
sa(dp141
g130
I55202
sg131
F0.0008401870727539062
sg132
F0.0023851394653320312
sg133
I300
sg134
I300
sa(dp142
g130
I55057
sg131
F0.0006961822509765625
sg132
F0.0017733573913574219
sg133
I297
sg134
I297
sasS'total_cqs'
p143
I383
ssI14
(dp144
S'iters'
p145
I3
sS'meta'
p146
(lp147
(dp148
S'objective'
p149
I201
sS'query_time'
p150
F55.12971591949463
sS'comp_time'
p151
F0.28192782402038574
sS'exec_cq'
p152
I25
sS'total_cq'
p153
I25
sa(dp154
g149
I199
sg150
F0.03778505325317383
sg151
F0.12552237510681152
sg152
I21
sg153
I21
sa(dp155
g149
I181
sg150
F0.032801151275634766
sg151
F0.0763702392578125
sg152
I19
sg153
I19
sasS'total_cqs'
p156
I25
ssI15
(dp157
S'iters'
p158
I3
sS'meta'
p159
(lp160
(dp161
S'objective'
p162
I65
sS'query_time'
p163
F21.108960151672363
sS'comp_time'
p164
F0.010905981063842773
sS'exec_cq'
p165
I13
sS'total_cq'
p166
I13
sa(dp167
g162
I12
sg163
F1.2952148914337158
sg164
F0.0002009868621826172
sg165
I11
sg166
I11
sa(dp168
g162
I7
sg163
F0.6291041374206543
sg164
F0.00030684471130371094
sg165
I3
sg166
I3
sasS'total_cqs'
p169
I13
ssI16
(dp170
S'iters'
p171
I3
sS'meta'
p172
(lp173
(dp174
S'objective'
p175
I143
sS'query_time'
p176
F26.37906503677368
sS'comp_time'
p177
F0.3084559440612793
sS'exec_cq'
p178
I17
sS'total_cq'
p179
I17
sa(dp180
g175
I74
sg176
F1.3283300399780273
sg177
F0.00043392181396484375
sg178
I16
sg179
I16
sa(dp181
g175
I3
sg176
F0.9181878566741943
sg177
F0.0003662109375
sg178
I3
sg179
I3
sasS'total_cqs'
p182
I17
ssI17
(dp183
S'iters'
p184
I2
sS'meta'
p185
(lp186
(dp187
S'objective'
p188
I94
sS'query_time'
p189
F29.83611512184143
sS'comp_time'
p190
F0.015220880508422852
sS'exec_cq'
p191
I16
sS'total_cq'
p192
I16
sa(dp193
g188
I11
sg189
F0.22145485877990723
sg190
F0.00032210350036621094
sg191
I2
sg192
I2
sasS'total_cqs'
p194
I16
ssI18
(dp195
S'iters'
p196
I3
sS'meta'
p197
(lp198
(dp199
S'objective'
p200
I170
sS'query_time'
p201
F20.431780099868774
sS'comp_time'
p202
F0.020802974700927734
sS'exec_cq'
p203
I20
sS'total_cq'
p204
I20
sa(dp205
g200
I134
sg201
F9.321091890335083
sg202
F0.00023818016052246094
sg203
I17
sg204
I17
sa(dp206
g200
I12
sg201
F0.11661005020141602
sg202
F0.0003991127014160156
sg203
I2
sg204
I2
sasS'total_cqs'
p207
I20
ssI19
(dp208
S'iters'
p209
I4
sS'meta'
p210
(lp211
(dp212
S'objective'
p213
I3784
sS'query_time'
p214
F26.103718042373657
sS'comp_time'
p215
F0.634981632232666
sS'exec_cq'
p216
I88
sS'total_cq'
p217
I88
sa(dp218
g213
I3762
sg214
F0.00030517578125
sg215
F0.0004591941833496094
sg216
I86
sg217
I86
sa(dp219
g213
I3598
sg214
F4.712982892990112
sg215
F0.00026607513427734375
sg216
I85
sg217
I85
sa(dp220
g213
I72
sg214
F0.21272826194763184
sg215
F0.004551887512207031
sg216
I2
sg217
I2
sasS'total_cqs'
p221
I88
ssI134
(dp222
S'iters'
p223
I1
sS'meta'
p224
(lp225
(dp226
S'objective'
p227
I1
sS'query_time'
p228
F20.82033371925354
sS'comp_time'
p229
F0.0005650520324707031
sS'exec_cq'
p230
I2
sS'total_cq'
p231
I2
sasS'total_cqs'
p232
I2
ssI21
(dp233
S'iters'
p234
I1
sS'meta'
p235
(lp236
(dp237
S'objective'
p238
I5
sS'query_time'
p239
F20.041418075561523
sS'comp_time'
p240
F0.002596139907836914
sS'exec_cq'
p241
I3
sS'total_cq'
p242
I5
sasS'total_cqs'
p243
I5
ssI22
(dp244
S'iters'
p245
I2
sS'meta'
p246
(lp247
(dp248
S'objective'
p249
I2
sS'query_time'
p250
F26.154281854629517
sS'comp_time'
p251
F0.30023789405822754
sS'exec_cq'
p252
I3
sS'total_cq'
p253
I3
sa(dp254
g249
I2
sg250
F0.0853266716003418
sg251
F0.00011372566223144531
sg252
I2
sg253
I2
sasS'total_cqs'
p255
I3
ssI24
(dp256
S'iters'
p257
I1
sS'meta'
p258
(lp259
(dp260
S'objective'
p261
I0
sS'query_time'
p262
F8.63332200050354
sS'comp_time'
p263
F0.0017428398132324219
sS'exec_cq'
p264
I3
sS'total_cq'
p265
I3
sasS'total_cqs'
p266
I3
ssI25
(dp267
S'iters'
p268
I1
sS'meta'
p269
(lp270
(dp271
S'objective'
p272
I0
sS'query_time'
p273
F7.211627960205078
sS'comp_time'
p274
F0.0014567375183105469
sS'exec_cq'
p275
I3
sS'total_cq'
p276
I3
sasS'total_cqs'
p277
I3
ssI29
(dp278
S'iters'
p279
I1
sS'meta'
p280
(lp281
(dp282
S'objective'
p283
I14
sS'query_time'
p284
F20.02789282798767
sS'comp_time'
p285
F0.0035448074340820312
sS'exec_cq'
p286
I7
sS'total_cq'
p287
I7
sasS'total_cqs'
p288
I7
ssI30
(dp289
S'iters'
p290
I1
sS'meta'
p291
(lp292
(dp293
S'objective'
p294
I14
sS'query_time'
p295
F20.09145712852478
sS'comp_time'
p296
F0.0042378902435302734
sS'exec_cq'
p297
I6
sS'total_cq'
p298
I7
sasS'total_cqs'
p299
I7
ssI31
(dp300
S'iters'
p301
I3
sS'meta'
p302
(lp303
(dp304
S'objective'
p305
I25
sS'query_time'
p306
F2.7293639183044434
sS'comp_time'
p307
F0.006818056106567383
sS'exec_cq'
p308
I8
sS'total_cq'
p309
I10
sa(dp310
g305
I12
sg306
F6.103515625e-05
sg307
F8.678436279296875e-05
sg308
I6
sg309
I8
sa(dp311
g305
I6
sg306
F0.03814506530761719
sg307
F0.0006051063537597656
sg308
I2
sg309
I2
sasS'total_cqs'
p312
I10
ssI32
(dp313
S'iters'
p314
I2
sS'meta'
p315
(lp316
(dp317
S'objective'
p318
I23
sS'query_time'
p319
F1.0076110363006592
sS'comp_time'
p320
F0.006360054016113281
sS'exec_cq'
p321
I8
sS'total_cq'
p322
I10
sa(dp323
g318
I4
sg319
F0.20465898513793945
sg320
F0.004148006439208984
sg321
I2
sg322
I2
sasS'total_cqs'
p324
I10
ssI33
(dp325
S'iters'
p326
I2
sS'meta'
p327
(lp328
(dp329
S'objective'
p330
I18
sS'query_time'
p331
F1.0252211093902588
sS'comp_time'
p332
F0.007230043411254883
sS'exec_cq'
p333
I8
sS'total_cq'
p334
I11
sa(dp335
g330
I2
sg331
F0.04997587203979492
sg332
F0.0012791156768798828
sg333
I3
sg334
I4
sasS'total_cqs'
p336
I11
ssI34
(dp337
S'iters'
p338
I3
sS'meta'
p339
(lp340
(dp341
S'objective'
p342
I1869
sS'query_time'
p343
F40.497286796569824
sS'comp_time'
p344
F0.7307589054107666
sS'exec_cq'
p345
I60
sS'total_cq'
p346
I70
sa(dp347
g342
I1749
sg343
F20.176865100860596
sg344
F0.007261991500854492
sg345
I63
sg346
I63
sa(dp348
g342
I1823
sg343
F0.003576993942260742
sg344
F0.0051898956298828125
sg345
I57
sg346
I57
sasS'total_cqs'
p349
I70
ssI35
(dp350
S'iters'
p351
I4
sS'meta'
p352
(lp353
(dp354
S'objective'
p355
I2023
sS'query_time'
p356
F61.39426302909851
sS'comp_time'
p357
F1.124624252319336
sS'exec_cq'
p358
I70
sS'total_cq'
p359
I70
sa(dp360
g355
I1928
sg356
F0.008246898651123047
sg357
F0.07079291343688965
sg358
I62
sg359
I62
sa(dp361
g355
I1835
sg356
F0.007749080657958984
sg357
F0.014233827590942383
sg358
I56
sg359
I56
sa(dp362
g355
I1823
sg356
F0.007234334945678711
sg357
F0.014358997344970703
sg358
I52
sg359
I52
sasS'total_cqs'
p363
I70
ssI36
(dp364
S'iters'
p365
I2
sS'meta'
p366
(lp367
(dp368
S'objective'
p369
I39
sS'query_time'
p370
F19.439095973968506
sS'comp_time'
p371
F0.024309873580932617
sS'exec_cq'
p372
I15
sS'total_cq'
p373
I17
sa(dp374
g369
I23
sg370
F0.02150702476501465
sg371
F0.00036597251892089844
sg372
I5
sg373
I5
sasS'total_cqs'
p375
I17
ssI37
(dp376
S'iters'
p377
I2
sS'meta'
p378
(lp379
(dp380
S'objective'
p381
I58
sS'query_time'
p382
F20.89891815185547
sS'comp_time'
p383
F0.0703582763671875
sS'exec_cq'
p384
I14
sS'total_cq'
p385
I16
sa(dp386
g381
I7
sg382
F0.02780604362487793
sg383
F0.0004208087921142578
sg384
I2
sg385
I3
sasS'total_cqs'
p387
I16
ssI38
(dp388
S'iters'
p389
I4
sS'meta'
p390
(lp391
(dp392
S'objective'
p393
I1370
sS'query_time'
p394
F40.32830476760864
sS'comp_time'
p395
F0.6857407093048096
sS'exec_cq'
p396
I59
sS'total_cq'
p397
I59
sa(dp398
g393
I1228
sg394
F0.0029709339141845703
sg395
F0.005472898483276367
sg396
I53
sg397
I53
sa(dp399
g393
I1125
sg394
F0.0022852420806884766
sg395
F0.005604267120361328
sg396
I46
sg397
I46
sa(dp400
g393
I1144
sg394
F0.001870870590209961
sg395
F0.0027298927307128906
sg396
I39
sg397
I39
sasS'total_cqs'
p401
I59
ssI39
(dp402
S'iters'
p403
I4
sS'meta'
p404
(lp405
(dp406
S'objective'
p407
I2260
sS'query_time'
p408
F30.531328201293945
sS'comp_time'
p409
F0.31774401664733887
sS'exec_cq'
p410
I68
sS'total_cq'
p411
I79
sa(dp412
g407
I1844
sg408
F0.061521053314208984
sg409
F0.04580402374267578
sg410
I58
sg411
I69
sa(dp413
g407
I1609
sg408
F20.05260968208313
sg409
F0.004053831100463867
sg410
I60
sg411
I60
sa(dp414
g407
I1785
sg408
F0.0006089210510253906
sg409
F0.006037235260009766
sg410
I50
sg411
I50
sasS'total_cqs'
p415
I79
ssI40
(dp416
S'iters'
p417
I4
sS'meta'
p418
(lp419
(dp420
S'objective'
p421
I2286
sS'query_time'
p422
F64.70119905471802
sS'comp_time'
p423
F0.4572479724884033
sS'exec_cq'
p424
I73
sS'total_cq'
p425
I83
sa(dp426
g421
I1730
sg422
F0.06106996536254883
sg423
F0.037482261657714844
sg424
I61
sg425
I71
sa(dp427
g421
I1406
sg422
F0.0584101676940918
sg423
F0.002130270004272461
sg424
I55
sg425
I55
sa(dp428
g421
I1691
sg422
F0.0002071857452392578
sg423
F0.0007381439208984375
sg424
I44
sg425
I44
sasS'total_cqs'
p429
I83
ssI41
(dp430
S'iters'
p431
I1
sS'meta'
p432
(lp433
(dp434
S'objective'
p435
I5
sS'query_time'
p436
F20.10625720024109
sS'comp_time'
p437
F0.0028557777404785156
sS'exec_cq'
p438
I3
sS'total_cq'
p439
I5
sasS'total_cqs'
p440
I5
ssI42
(dp441
S'iters'
p442
I1
sS'meta'
p443
(lp444
(dp445
S'objective'
p446
I0
sS'query_time'
p447
F21.67069697380066
sS'comp_time'
p448
F0.0013461112976074219
sS'exec_cq'
p449
I3
sS'total_cq'
p450
I3
sasS'total_cqs'
p451
I3
ssI43
(dp452
S'iters'
p453
I1
sS'meta'
p454
(lp455
(dp456
S'objective'
p457
I5
sS'query_time'
p458
F0.4487159252166748
sS'comp_time'
p459
F0.015381097793579102
sS'exec_cq'
p460
I5
sS'total_cq'
p461
I5
sasS'total_cqs'
p462
I5
ssI44
(dp463
S'iters'
p464
I3
sS'meta'
p465
(lp466
(dp467
S'objective'
p468
I1
sS'query_time'
p469
F20.021322011947632
sS'comp_time'
p470
F0.00420069694519043
sS'exec_cq'
p471
I8
sS'total_cq'
p472
I10
sa(dp473
g468
I3
sg469
F0.011667013168334961
sg470
F0.00011515617370605469
sg471
I4
sg472
I6
sa(dp474
g468
I5
sg469
F20.00680685043335
sg470
F0.00012183189392089844
sg471
I2
sg472
I2
sasS'total_cqs'
p475
I10
ssI133
(dp476
S'iters'
p477
I1
sS'meta'
p478
(lp479
(dp480
S'objective'
p481
I1
sS'query_time'
p482
F21.553700923919678
sS'comp_time'
p483
F0.0007848739624023438
sS'exec_cq'
p484
I2
sS'total_cq'
p485
I2
sasS'total_cqs'
p486
I2
ssI46
(dp487
S'iters'
p488
I1
sS'meta'
p489
(lp490
(dp491
S'objective'
p492
I1
sS'query_time'
p493
F0.8565568923950195
sS'comp_time'
p494
F0.020400285720825195
sS'exec_cq'
p495
I2
sS'total_cq'
p496
I2
sasS'total_cqs'
p497
I2
ssI49
(dp498
S'iters'
p499
I1
sS'meta'
p500
(lp501
(dp502
S'objective'
p503
I0
sS'query_time'
p504
F23.159860849380493
sS'comp_time'
p505
F0.07975101470947266
sS'exec_cq'
p506
I3
sS'total_cq'
p507
I3
sasS'total_cqs'
p508
I3
ssI50
(dp509
S'iters'
p510
I2
sS'meta'
p511
(lp512
(dp513
S'objective'
p514
I36
sS'query_time'
p515
F17.48987603187561
sS'comp_time'
p516
F0.009783744812011719
sS'exec_cq'
p517
I10
sS'total_cq'
p518
I12
sa(dp519
g514
I33
sg515
F0.02071070671081543
sg516
F0.0002880096435546875
sg517
I9
sg518
I9
sasS'total_cqs'
p520
I12
ssI51
(dp521
S'iters'
p522
I2
sS'meta'
p523
(lp524
(dp525
S'objective'
p526
I12
sS'query_time'
p527
F21.202505111694336
sS'comp_time'
p528
F0.011244773864746094
sS'exec_cq'
p529
I10
sS'total_cq'
p530
I12
sa(dp531
g526
I9
sg527
F12.35807991027832
sg528
F0.00026988983154296875
sg529
I2
sg530
I5
sasS'total_cqs'
p532
I12
ssI52
(dp533
S'iters'
p534
I2
sS'meta'
p535
(lp536
(dp537
S'objective'
p538
I28
sS'query_time'
p539
F1.3956470489501953
sS'comp_time'
p540
F0.010512113571166992
sS'exec_cq'
p541
I10
sS'total_cq'
p542
I12
sa(dp543
g538
I1
sg539
F0.17696619033813477
sg540
F0.0004513263702392578
sg541
I4
sg542
I4
sasS'total_cqs'
p544
I12
ssI53
(dp545
S'iters'
p546
I2
sS'meta'
p547
(lp548
(dp549
S'objective'
p550
I4
sS'query_time'
p551
F20.060632944107056
sS'comp_time'
p552
F0.0010170936584472656
sS'exec_cq'
p553
I3
sS'total_cq'
p554
I3
sa(dp555
g550
I1
sg551
F23.82602024078369
sg552
F0.00013518333435058594
sg553
I2
sg554
I2
sasS'total_cqs'
p556
I3
ssI54
(dp557
S'iters'
p558
I1
sS'meta'
p559
(lp560
(dp561
S'objective'
p562
I5
sS'query_time'
p563
F35.461485862731934
sS'comp_time'
p564
F0.01474905014038086
sS'exec_cq'
p565
I5
sS'total_cq'
p566
I5
sasS'total_cqs'
p567
I5
ssI55
(dp568
S'iters'
p569
I2
sS'meta'
p570
(lp571
(dp572
S'objective'
p573
I31
sS'query_time'
p574
F26.487488985061646
sS'comp_time'
p575
F0.016741037368774414
sS'exec_cq'
p576
I10
sS'total_cq'
p577
I10
sa(dp578
g573
I8
sg574
F0.0056760311126708984
sg575
F0.006273984909057617
sg576
I2
sg577
I2
sasS'total_cqs'
p579
I10
ssI56
(dp580
S'iters'
p581
I1
sS'meta'
p582
(lp583
(dp584
S'objective'
p585
I9
sS'query_time'
p586
F36.752866983413696
sS'comp_time'
p587
F0.44333815574645996
sS'exec_cq'
p588
I5
sS'total_cq'
p589
I6
sasS'total_cqs'
p590
I6
ssI57
(dp591
S'iters'
p592
I3
sS'meta'
p593
(lp594
(dp595
S'objective'
p596
I252
sS'query_time'
p597
F21.418304204940796
sS'comp_time'
p598
F0.1528022289276123
sS'exec_cq'
p599
I27
sS'total_cq'
p600
I27
sa(dp601
g596
I233
sg597
F0.0376276969909668
sg598
F0.13940167427062988
sg599
I23
sg600
I23
sa(dp602
g596
I220
sg597
F0.03812599182128906
sg598
F0.1316671371459961
sg599
I21
sg600
I21
sasS'total_cqs'
p603
I27
ssI58
(dp604
S'iters'
p605
I3
sS'meta'
p606
(lp607
(dp608
S'objective'
p609
I7
sS'query_time'
p610
F29.497886180877686
sS'comp_time'
p611
F0.006305217742919922
sS'exec_cq'
p612
I8
sS'total_cq'
p613
I10
sa(dp614
g609
I5
sg610
F0.08909296989440918
sg611
F0.000125885009765625
sg612
I2
sg613
I4
sa(dp615
g609
I2
sg610
F2.2309300899505615
sg611
F0.06891512870788574
sg612
I2
sg613
I2
sasS'total_cqs'
p616
I10
ssI59
(dp617
S'iters'
p618
I4
sS'meta'
p619
(lp620
(dp621
S'objective'
p622
I1280
sS'query_time'
p623
F69.56946420669556
sS'comp_time'
p624
F1.7272331714630127
sS'exec_cq'
p625
I59
sS'total_cq'
p626
I59
sa(dp627
g622
I1151
sg623
F0.5670897960662842
sg624
F1.8373651504516602
sg625
I50
sg626
I50
sa(dp628
g622
I1038
sg623
F0.38248109817504883
sg624
F1.2070770263671875
sg625
I43
sg626
I43
sa(dp629
g622
I1070
sg623
F0.3470439910888672
sg624
F1.2227551937103271
sg625
I38
sg626
I38
sasS'total_cqs'
p630
I59
ssI60
(dp631
S'iters'
p632
I2
sS'meta'
p633
(lp634
(dp635
S'objective'
p636
I44
sS'query_time'
p637
F36.34354305267334
sS'comp_time'
p638
F0.020899295806884766
sS'exec_cq'
p639
I13
sS'total_cq'
p640
I15
sa(dp641
g636
I8
sg637
F0.4709300994873047
sg638
F0.00035762786865234375
sg639
I2
sg640
I4
sasS'total_cqs'
p642
I15
ssI61
(dp643
S'iters'
p644
I2
sS'meta'
p645
(lp646
(dp647
S'objective'
p648
I7
sS'query_time'
p649
F44.72342896461487
sS'comp_time'
p650
F0.01585221290588379
sS'exec_cq'
p651
I14
sS'total_cq'
p652
I17
sa(dp653
g648
I39
sg649
F0.62337327003479
sg650
F0.0003895759582519531
sg651
I7
sg652
I7
sasS'total_cqs'
p654
I17
ssI62
(dp655
S'iters'
p656
I4
sS'meta'
p657
(lp658
(dp659
S'objective'
p660
I10095
sS'query_time'
p661
F60.78390693664551
sS'comp_time'
p662
F1.1517682075500488
sS'exec_cq'
p663
I158
sS'total_cq'
p664
I158
sa(dp665
g660
I10076
sg661
F0.0017011165618896484
sg662
F0.006139993667602539
sg663
I148
sg664
I148
sa(dp666
g660
I10290
sg661
F0.0010800361633300781
sg662
F0.004004955291748047
sg663
I138
sg664
I138
sa(dp667
g660
I10180
sg661
F0.0006058216094970703
sg662
F0.001842498779296875
sg663
I134
sg664
I134
sasS'total_cqs'
p668
I158
ssI63
(dp669
S'iters'
p670
I4
sS'meta'
p671
(lp672
(dp673
S'objective'
p674
I2381
sS'query_time'
p675
F90.59615278244019
sS'comp_time'
p676
F0.307391881942749
sS'exec_cq'
p677
I77
sS'total_cq'
p678
I77
sa(dp679
g674
I2132
sg675
F0.0015690326690673828
sg676
F0.0035250186920166016
sg677
I70
sg678
I70
sa(dp680
g674
I2206
sg675
F0.0008590221405029297
sg676
F0.0023653507232666016
sg677
I63
sg678
I63
sa(dp681
g674
I2155
sg675
F0.00023794174194335938
sg676
F0.0005769729614257812
sg677
I61
sg678
I61
sasS'total_cqs'
p682
I77
ssI64
(dp683
S'iters'
p684
I7
sS'meta'
p685
(lp686
(dp687
S'objective'
p688
I8220
sS'query_time'
p689
F116.44303798675537
sS'comp_time'
p690
F8.411941528320312
sS'exec_cq'
p691
I135
sS'total_cq'
p692
I135
sa(dp693
g688
I8238
sg689
F1.6153068542480469
sg690
F5.03814697265625
sg691
I129
sg692
I129
sa(dp694
g688
I8069
sg689
F0.7436139583587646
sg690
F2.007643222808838
sg691
I126
sg692
I126
sa(dp695
g688
I7965
sg689
F0.9035887718200684
sg690
F2.170790433883667
sg691
I124
sg692
I124
sa(dp696
g688
I7819
sg689
F0.05454421043395996
sg690
F0.4427759647369385
sg691
I122
sg692
I122
sa(dp697
g688
I7684
sg689
F0.05387687683105469
sg690
F0.4433140754699707
sg691
I120
sg692
I120
sa(dp698
g688
I7556
sg689
F0.2008500099182129
sg690
F0.3028600215911865
sg691
I118
sg692
I118
sasS'total_cqs'
p699
I135
ssI65
(dp700
S'iters'
p701
I2
sS'meta'
p702
(lp703
(dp704
S'objective'
p705
I283
sS'query_time'
p706
F40.52013301849365
sS'comp_time'
p707
F0.03356218338012695
sS'exec_cq'
p708
I26
sS'total_cq'
p709
I26
sa(dp710
g705
I265
sg706
F0.0009429454803466797
sg707
F0.0018110275268554688
sg708
I24
sg709
I24
sasS'total_cqs'
p711
I26
ssI66
(dp712
S'iters'
p713
I2
sS'meta'
p714
(lp715
(dp716
S'objective'
p717
I271
sS'query_time'
p718
F41.71239185333252
sS'comp_time'
p719
F0.1247401237487793
sS'exec_cq'
p720
I25
sS'total_cq'
p721
I25
sa(dp722
g717
I248
sg718
F0.027485132217407227
sg719
F0.04534316062927246
sg720
I23
sg721
I23
sasS'total_cqs'
p723
I25
ssI67
(dp724
S'iters'
p725
I3
sS'meta'
p726
(lp727
(dp728
S'objective'
p729
I247
sS'query_time'
p730
F6.826432228088379
sS'comp_time'
p731
F0.14654278755187988
sS'exec_cq'
p732
I25
sS'total_cq'
p733
I25
sa(dp734
g729
I230
sg730
F0.0074121952056884766
sg731
F0.015422582626342773
sg732
I23
sg733
I23
sa(dp735
g729
I208
sg730
F0.006781816482543945
sg731
F0.01461935043334961
sg732
I21
sg733
I21
sasS'total_cqs'
p736
I25
ssI68
(dp737
S'iters'
p738
I5
sS'meta'
p739
(lp740
(dp741
S'objective'
p742
I1853
sS'query_time'
p743
F24.317793130874634
sS'comp_time'
p744
F0.25567007064819336
sS'exec_cq'
p745
I63
sS'total_cq'
p746
I73
sa(dp747
g742
I1525
sg743
F0.05206704139709473
sg744
F0.003192901611328125
sg745
I62
sg746
I62
sa(dp748
g742
I1181
sg743
F0.00067901611328125
sg744
F0.0024862289428710938
sg745
I52
sg746
I52
sa(dp749
g742
I1043
sg743
F0.0003859996795654297
sg744
F0.0016548633575439453
sg745
I41
sg746
I41
sa(dp750
g742
I1146
sg743
F0.0003180503845214844
sg744
F0.001081705093383789
sg745
I32
sg746
I32
sasS'total_cqs'
p751
I73
ssI69
(dp752
S'iters'
p753
I5
sS'meta'
p754
(lp755
(dp756
S'objective'
p757
I1702
sS'query_time'
p758
F31.69854998588562
sS'comp_time'
p759
F0.20636320114135742
sS'exec_cq'
p760
I62
sS'total_cq'
p761
I72
sa(dp762
g757
I1289
sg758
F0.0004711151123046875
sg759
F0.001916646957397461
sg760
I51
sg761
I61
sa(dp763
g757
I1005
sg758
F0.00028705596923828125
sg759
F0.0015058517456054688
sg760
I40
sg761
I50
sa(dp764
g757
I702
sg758
F0.05359005928039551
sg759
F0.0016171932220458984
sg760
I40
sg761
I40
sa(dp765
g757
I890
sg758
F0.00021314620971679688
sg759
F0.0008285045623779297
sg760
I30
sg761
I30
sasS'total_cqs'
p766
I72
ssI70
(dp767
S'iters'
p768
I6
sS'meta'
p769
(lp770
(dp771
S'objective'
p772
I5601
sS'query_time'
p773
F98.54241800308228
sS'comp_time'
p774
F3.6579391956329346
sS'exec_cq'
p775
I109
sS'total_cq'
p776
I109
sa(dp777
g772
I5474
sg773
F0.6081140041351318
sg774
F2.8527820110321045
sg775
I105
sg776
I105
sa(dp778
g772
I5338
sg773
F0.734187126159668
sg774
F2.8987839221954346
sg775
I103
sg776
I103
sa(dp779
g772
I5205
sg773
F0.585597038269043
sg774
F2.871293067932129
sg775
I101
sg776
I101
sa(dp780
g772
I5098
sg773
F0.3025965690612793
sg774
F1.1941869258880615
sg775
I97
sg776
I97
sa(dp781
g772
I5004
sg773
F0.28780388832092285
sg774
F1.1887931823730469
sg775
I95
sg776
I95
sasS'total_cqs'
p782
I109
ssI71
(dp783
S'iters'
p784
I15
sS'meta'
p785
(lp786
(dp787
S'objective'
p788
I157506
sS'query_time'
p789
F187.93478083610535
sS'comp_time'
p790
F27.083662748336792
sS'exec_cq'
p791
I568
sS'total_cq'
p792
I568
sa(dp793
g788
I155869
sg789
F2.4870970249176025
sg790
F2.222256898880005
sg791
I562
sg792
I562
sa(dp794
g788
I155670
sg789
F0.5483691692352295
sg790
F0.586998462677002
sg791
I556
sg792
I556
sa(dp795
g788
I154658
sg789
F1.7197110652923584
sg790
F0.5060241222381592
sg791
I552
sg792
I552
sa(dp796
g788
I153748
sg789
F0.4363858699798584
sg790
F1.807072639465332
sg791
I550
sg792
I550
sa(dp797
g788
I152827
sg789
F0.4393620491027832
sg790
F1.8051741123199463
sg791
I548
sg792
I548
sa(dp798
g788
I152005
sg789
F0.4351050853729248
sg790
F1.8253238201141357
sg791
I546
sg792
I546
sa(dp799
g788
I151317
sg789
F0.40056610107421875
sg790
F1.7359821796417236
sg791
I544
sg792
I544
sa(dp800
g788
I150562
sg789
F0.39957284927368164
sg790
F0.44767308235168457
sg791
I542
sg792
I542
sa(dp801
g788
I149840
sg789
F1.7315022945404053
sg790
F0.5895705223083496
sg791
I540
sg792
I540
sa(dp802
g788
I149112
sg789
F0.4004859924316406
sg790
F1.7246623039245605
sg791
I538
sg792
I538
sa(dp803
g788
I148577
sg789
F0.3984959125518799
sg790
F1.7424452304840088
sg791
I536
sg792
I536
sa(dp804
g788
I147943
sg789
F0.4014909267425537
sg790
F0.4568495750427246
sg791
I534
sg792
I534
sa(dp805
g788
I147348
sg789
F1.6650912761688232
sg790
F0.44283294677734375
sg791
I532
sg792
I532
sa(dp806
g788
I146827
sg789
F0.4083569049835205
sg790
F1.7107338905334473
sg791
I530
sg792
I530
sasS'total_cqs'
p807
I568
ssI72
(dp808
S'iters'
p809
I4
sS'meta'
p810
(lp811
(dp812
S'objective'
p813
I7455
sS'query_time'
p814
F21.098433017730713
sS'comp_time'
p815
F0.7954685688018799
sS'exec_cq'
p816
I125
sS'total_cq'
p817
I125
sa(dp818
g813
I7365
sg814
F0.009763002395629883
sg815
F0.019226789474487305
sg816
I123
sg817
I123
sa(dp819
g813
I7219
sg814
F0.01042032241821289
sg815
F0.02106332778930664
sg816
I121
sg817
I121
sa(dp820
g813
I7117
sg814
F0.0034399032592773438
sg815
F0.006764411926269531
sg816
I119
sg817
I119
sasS'total_cqs'
p821
I125
ssI73
(dp822
S'iters'
p823
I6
sS'meta'
p824
(lp825
(dp826
S'objective'
p827
I7465
sS'query_time'
p828
F45.32193398475647
sS'comp_time'
p829
F1.290281057357788
sS'exec_cq'
p830
I125
sS'total_cq'
p831
I125
sa(dp832
g827
I7338
sg828
F0.08564901351928711
sg829
F0.5263557434082031
sg830
I123
sg831
I123
sa(dp833
g827
I7184
sg828
F0.06937885284423828
sg829
F0.2664361000061035
sg830
I121
sg831
I121
sa(dp834
g827
I7026
sg828
F0.1531369686126709
sg829
F0.2488570213317871
sg830
I119
sg831
I119
sa(dp835
g827
I6903
sg828
F0.0682210922241211
sg829
F0.2601633071899414
sg830
I117
sg831
I117
sa(dp836
g827
I6794
sg828
F0.15376567840576172
sg829
F0.26286792755126953
sg830
I115
sg831
I115
sasS'total_cqs'
p837
I125
ssI138
(dp838
S'iters'
p839
I3
sS'meta'
p840
(lp841
(dp842
S'objective'
p843
I1594
sS'query_time'
p844
F2.0438809394836426
sS'comp_time'
p845
F0.2670743465423584
sS'exec_cq'
p846
I61
sS'total_cq'
p847
I75
sa(dp848
g843
I1972
sg844
F0.08257603645324707
sg845
F0.0020017623901367188
sg846
I55
sg847
I55
sa(dp849
g843
I1947
sg844
F0.00020170211791992188
sg845
F0.0002899169921875
sg846
I52
sg847
I52
sasS'total_cqs'
p850
I75
ssI139
(dp851
S'iters'
p852
I7
sS'meta'
p853
(lp854
(dp855
S'objective'
p856
I80657
sS'query_time'
p857
F55.66359210014343
sS'comp_time'
p858
F16.4841787815094
sS'exec_cq'
p859
I425
sS'total_cq'
p860
I425
sa(dp861
g856
I76373
sg857
F0.11727714538574219
sg858
F0.06570267677307129
sg859
I398
sg860
I398
sa(dp862
g856
I74932
sg857
F0.0019850730895996094
sg858
F0.010865211486816406
sg859
I377
sg860
I377
sa(dp863
g856
I76129
sg857
F0.0017540454864501953
sg858
F0.010920524597167969
sg859
I358
sg860
I358
sa(dp864
g856
I75327
sg857
F0.001486063003540039
sg858
F0.0031158924102783203
sg859
I354
sg860
I354
sa(dp865
g856
I75009
sg857
F0.0012209415435791016
sg858
F0.003022909164428711
sg859
I351
sg860
I351
sa(dp866
g856
I74747
sg857
F0.0007982254028320312
sg858
F0.0010323524475097656
sg859
I348
sg860
I348
sasS'total_cqs'
p867
I425
ssI142
(dp868
S'iters'
p869
I1
sS'meta'
p870
(lp871
(dp872
S'objective'
p873
I0
sS'query_time'
p874
F21.425430059432983
sS'comp_time'
p875
F0.0007979869842529297
sS'exec_cq'
p876
I3
sS'total_cq'
p877
I3
sasS'total_cqs'
p878
I3
ssI148
(dp879
S'iters'
p880
I6
sS'meta'
p881
(lp882
(dp883
S'objective'
p884
I56868
sS'query_time'
p885
F27.50712013244629
sS'comp_time'
p886
F7.520378589630127
sS'exec_cq'
p887
I359
sS'total_cq'
p888
I359
sa(dp889
g884
I55134
sg885
F0.0018928050994873047
sg886
F0.013471841812133789
sg887
I340
sg888
I340
sa(dp890
g884
I54133
sg885
F0.001188039779663086
sg886
F0.00800180435180664
sg887
I321
sg888
I321
sa(dp891
g884
I54334
sg885
F0.0009908676147460938
sg886
F0.004476308822631836
sg887
I310
sg888
I310
sa(dp892
g884
I54345
sg885
F0.0008389949798583984
sg886
F0.0017902851104736328
sg887
I306
sg888
I306
sa(dp893
g884
I54047
sg885
F0.0007421970367431641
sg886
F0.0010447502136230469
sg887
I302
sg888
I302
sasS'total_cqs'
p894
I359
ssI137
(dp895
S'iters'
p896
I7
sS'meta'
p897
(lp898
(dp899
S'objective'
p900
I72534
sS'query_time'
p901
F48.85807204246521
sS'comp_time'
p902
F9.909520864486694
sS'exec_cq'
p903
I400
sS'total_cq'
p904
I400
sa(dp905
g900
I69299
sg901
F0.003749847412109375
sg902
F0.01464390754699707
sg903
I382
sg904
I382
sa(dp906
g900
I66711
sg901
F0.0032918453216552734
sg902
F0.014597415924072266
sg903
I366
sg904
I366
sa(dp907
g900
I67986
sg901
F0.0029098987579345703
sg902
F0.012424468994140625
sg903
I351
sg904
I351
sa(dp908
g900
I67627
sg901
F0.0010221004486083984
sg902
F0.0022280216217041016
sg903
I347
sg904
I347
sa(dp909
g900
I67445
sg901
F0.0008540153503417969
sg902
F0.0015630722045898438
sg903
I344
sg904
I344
sa(dp910
g900
I67049
sg901
F0.0008311271667480469
sg902
F0.0010793209075927734
sg903
I341
sg904
I341
sasS'total_cqs'
p911
I400
ss.