(dp0
I1
(dp1
S'iters'
p2
I1
sS'meta'
p3
(lp4
(dp5
S'objective'
p6
I2
sS'query_time'
p7
F20.020375967025757
sS'comp_time'
p8
F0.0019009113311767578
sS'exec_cq'
p9
I4
sS'total_cq'
p10
I4
sasS'total_cqs'
p11
I4
ssI2
(dp12
S'iters'
p13
I1
sS'meta'
p14
(lp15
(dp16
S'objective'
p17
I2
sS'query_time'
p18
F0.029533863067626953
sS'comp_time'
p19
F0.002087831497192383
sS'exec_cq'
p20
I4
sS'total_cq'
p21
I4
sasS'total_cqs'
p22
I4
ssI3
(dp23
S'iters'
p24
I0
sS'meta'
p25
(lp26
sS'total_cqs'
p27
I1
ssI4
(dp28
S'iters'
p29
I0
sS'meta'
p30
(lp31
sS'total_cqs'
p32
I1
ssI5
(dp33
S'iters'
p34
I13
sS'meta'
p35
(lp36
(dp37
S'objective'
p38
I1059
sS'query_time'
p39
F64.13876700401306
sS'comp_time'
p40
F1.0520508289337158
sS'exec_cq'
p41
I54
sS'total_cq'
p42
I54
sa(dp43
g38
I1140
sg39
F0.011791229248046875
sg40
F0.023415565490722656
sg41
I48
sg42
I48
sa(dp44
g38
I1110
sg39
F0.0004889965057373047
sg40
F0.0006930828094482422
sg41
I46
sg42
I46
sa(dp45
g38
I1084
sg39
F0.0003478527069091797
sg40
F0.0006797313690185547
sg41
I45
sg42
I45
sa(dp46
g38
I1065
sg39
F0.00034999847412109375
sg40
F0.0005719661712646484
sg41
I44
sg42
I44
sa(dp47
g38
I1041
sg39
F0.0003192424774169922
sg40
F0.0005779266357421875
sg41
I43
sg42
I43
sa(dp48
g38
I1039
sg39
F0.004408121109008789
sg40
F0.0003247261047363281
sg41
I42
sg42
I42
sa(dp49
g38
I779
sg39
F1.8475370407104492
sg40
F0.0005228519439697266
sg41
I41
sg42
I41
sa(dp50
g38
I754
sg39
F1.9773502349853516
sg40
F0.0008578300476074219
sg41
I36
sg42
I36
sa(dp51
g38
I289
sg39
F0.998291015625
sg40
F0.0003349781036376953
sg41
I27
sg42
I33
sa(dp52
g38
I342
sg39
F0.06663990020751953
sg40
F0.0006308555603027344
sg41
I21
sg42
I21
sa(dp53
g38
I376
sg39
F3.6811089515686035
sg40
F0.0002560615539550781
sg41
I15
sg42
I15
sa(dp54
g38
I306
sg39
F0.004441976547241211
sg40
F9.417533874511719e-05
sg41
I14
sg42
I14
sasS'total_cqs'
p55
I54
ssI6
(dp56
S'iters'
p57
I1
sS'meta'
p58
(lp59
(dp60
S'objective'
p61
I2
sS'query_time'
p62
F20.029930114746094
sS'comp_time'
p63
F0.002038240432739258
sS'exec_cq'
p64
I4
sS'total_cq'
p65
I4
sasS'total_cqs'
p66
I4
ssI7
(dp67
S'iters'
p68
I0
sS'meta'
p69
(lp70
sS'total_cqs'
p71
I1
ssI8
(dp72
S'iters'
p73
I0
sS'meta'
p74
(lp75
sS'total_cqs'
p76
I1
ssI9
(dp77
S'iters'
p78
I1
sS'meta'
p79
(lp80
(dp81
S'objective'
p82
I0
sS'query_time'
p83
F27.424208879470825
sS'comp_time'
p84
F0.017514944076538086
sS'exec_cq'
p85
I3
sS'total_cq'
p86
I3
sasS'total_cqs'
p87
I3
ssI10
(dp88
S'iters'
p89
I1
sS'meta'
p90
(lp91
(dp92
S'objective'
p93
I2
sS'query_time'
p94
F1.3537039756774902
sS'comp_time'
p95
F0.009137392044067383
sS'exec_cq'
p96
I4
sS'total_cq'
p97
I4
sasS'total_cqs'
p98
I4
ssI11
(dp99
S'iters'
p100
I1
sS'meta'
p101
(lp102
(dp103
S'objective'
p104
I14
sS'query_time'
p105
F20.023488759994507
sS'comp_time'
p106
F0.003958702087402344
sS'exec_cq'
p107
I7
sS'total_cq'
p108
I7
sasS'total_cqs'
p109
I7
ssI12
(dp110
S'iters'
p111
I2
sS'meta'
p112
(lp113
(dp114
S'objective'
p115
I6
sS'query_time'
p116
F20.09707498550415
sS'comp_time'
p117
F0.004289388656616211
sS'exec_cq'
p118
I6
sS'total_cq'
p119
I7
sa(dp120
g115
I3
sg116
F0.00010800361633300781
sg117
F0.0002722740173339844
sg118
I4
sg119
I5
sasS'total_cqs'
p121
I7
ssI13
(dp122
S'iters'
p123
I0
sS'meta'
p124
(lp125
sS'total_cqs'
p126
I1
ssI14
(dp127
S'iters'
p128
I2
sS'meta'
p129
(lp130
(dp131
S'objective'
p132
I207
sS'query_time'
p133
F56.65071392059326
sS'comp_time'
p134
F0.3397960662841797
sS'exec_cq'
p135
I25
sS'total_cq'
p136
I25
sa(dp137
g132
I216
sg133
F0.06109189987182617
sg134
F0.135664701461792
sg135
I21
sg136
I21
sasS'total_cqs'
p138
I25
ssI15
(dp139
S'iters'
p140
I3
sS'meta'
p141
(lp142
(dp143
S'objective'
p144
I71
sS'query_time'
p145
F20.91069197654724
sS'comp_time'
p146
F0.010725021362304688
sS'exec_cq'
p147
I13
sS'total_cq'
p148
I13
sa(dp149
g144
I19
sg145
F1.3852930068969727
sg146
F0.00019288063049316406
sg147
I11
sg148
I11
sa(dp150
g144
I5
sg145
F0.6015820503234863
sg146
F0.00024819374084472656
sg147
I3
sg148
I3
sasS'total_cqs'
p151
I13
ssI16
(dp152
S'iters'
p153
I3
sS'meta'
p154
(lp155
(dp156
S'objective'
p157
I127
sS'query_time'
p158
F26.673873901367188
sS'comp_time'
p159
F0.35575413703918457
sS'exec_cq'
p160
I17
sS'total_cq'
p161
I17
sa(dp162
g157
I72
sg158
F1.3188221454620361
sg159
F0.00019884109497070312
sg160
I16
sg161
I16
sa(dp163
g157
I0
sg158
F0.8233177661895752
sg159
F0.0007760524749755859
sg160
I3
sg161
I3
sasS'total_cqs'
p164
I17
ssI17
(dp165
S'iters'
p166
I2
sS'meta'
p167
(lp168
(dp169
S'objective'
p170
I84
sS'query_time'
p171
F30.22346806526184
sS'comp_time'
p172
F0.0152130126953125
sS'exec_cq'
p173
I16
sS'total_cq'
p174
I16
sa(dp175
g170
I6
sg171
F0.29248595237731934
sg172
F0.0003261566162109375
sg173
I2
sg174
I2
sasS'total_cqs'
p176
I16
ssI18
(dp177
S'iters'
p178
I3
sS'meta'
p179
(lp180
(dp181
S'objective'
p182
I136
sS'query_time'
p183
F20.440738916397095
sS'comp_time'
p184
F0.021431922912597656
sS'exec_cq'
p185
I20
sS'total_cq'
p186
I20
sa(dp187
g182
I121
sg183
F9.70303988456726
sg184
F0.0002532005310058594
sg185
I17
sg186
I17
sa(dp188
g182
I14
sg183
F0.11389803886413574
sg184
F0.0003361701965332031
sg185
I2
sg186
I2
sasS'total_cqs'
p189
I20
ssI19
(dp190
S'iters'
p191
I4
sS'meta'
p192
(lp193
(dp194
S'objective'
p195
I3702
sS'query_time'
p196
F25.91443681716919
sS'comp_time'
p197
F0.6303596496582031
sS'exec_cq'
p198
I88
sS'total_cq'
p199
I88
sa(dp200
g195
I3741
sg196
F0.0003077983856201172
sg197
F0.0004923343658447266
sg198
I86
sg199
I86
sa(dp201
g195
I3519
sg196
F5.016549825668335
sg197
F0.00030422210693359375
sg198
I85
sg199
I85
sa(dp202
g195
I48
sg196
F0.1250619888305664
sg197
F0.004195213317871094
sg198
I2
sg199
I2
sasS'total_cqs'
p203
I88
ssI134
(dp204
S'iters'
p205
I1
sS'meta'
p206
(lp207
(dp208
S'objective'
p209
I1
sS'query_time'
p210
F21.027897834777832
sS'comp_time'
p211
F0.0006012916564941406
sS'exec_cq'
p212
I2
sS'total_cq'
p213
I2
sasS'total_cqs'
p214
I2
ssI21
(dp215
S'iters'
p216
I1
sS'meta'
p217
(lp218
(dp219
S'objective'
p220
I5
sS'query_time'
p221
F0.03148293495178223
sS'comp_time'
p222
F0.001905679702758789
sS'exec_cq'
p223
I2
sS'total_cq'
p224
I5
sasS'total_cqs'
p225
I5
ssI22
(dp226
S'iters'
p227
I2
sS'meta'
p228
(lp229
(dp230
S'objective'
p231
I4
sS'query_time'
p232
F26.025330066680908
sS'comp_time'
p233
F0.32563328742980957
sS'exec_cq'
p234
I3
sS'total_cq'
p235
I3
sa(dp236
g231
I1
sg232
F0.09799790382385254
sg233
F0.00017189979553222656
sg234
I2
sg235
I2
sasS'total_cqs'
p237
I3
ssI23
(dp238
S'iters'
p239
I0
sS'meta'
p240
(lp241
sS'total_cqs'
p242
I1
ssI24
(dp243
S'iters'
p244
I1
sS'meta'
p245
(lp246
(dp247
S'objective'
p248
I0
sS'query_time'
p249
F8.434069156646729
sS'comp_time'
p250
F0.0020270347595214844
sS'exec_cq'
p251
I3
sS'total_cq'
p252
I3
sasS'total_cqs'
p253
I3
ssI25
(dp254
S'iters'
p255
I1
sS'meta'
p256
(lp257
(dp258
S'objective'
p259
I0
sS'query_time'
p260
F7.11466383934021
sS'comp_time'
p261
F0.0017778873443603516
sS'exec_cq'
p262
I3
sS'total_cq'
p263
I3
sasS'total_cqs'
p264
I3
ssI26
(dp265
S'iters'
p266
I0
sS'meta'
p267
(lp268
sS'total_cqs'
p269
I1
ssI27
(dp270
S'iters'
p271
I0
sS'meta'
p272
(lp273
sS'total_cqs'
p274
I1
ssI28
(dp275
S'iters'
p276
I0
sS'meta'
p277
(lp278
sS'total_cqs'
p279
I1
ssI29
(dp280
S'iters'
p281
I1
sS'meta'
p282
(lp283
(dp284
S'objective'
p285
I14
sS'query_time'
p286
F20.022884607315063
sS'comp_time'
p287
F0.003749370574951172
sS'exec_cq'
p288
I7
sS'total_cq'
p289
I7
sasS'total_cqs'
p290
I7
ssI30
(dp291
S'iters'
p292
I2
sS'meta'
p293
(lp294
(dp295
S'objective'
p296
I8
sS'query_time'
p297
F20.098754167556763
sS'comp_time'
p298
F0.004513263702392578
sS'exec_cq'
p299
I6
sS'total_cq'
p300
I7
sa(dp301
g296
I4
sg297
F0.00010204315185546875
sg298
F0.0001990795135498047
sg299
I4
sg300
I5
sasS'total_cqs'
p302
I7
ssI31
(dp303
S'iters'
p304
I2
sS'meta'
p305
(lp306
(dp307
S'objective'
p308
I19
sS'query_time'
p309
F2.908069133758545
sS'comp_time'
p310
F0.005940675735473633
sS'exec_cq'
p311
I8
sS'total_cq'
p312
I10
sa(dp313
g308
I2
sg309
F0.03239798545837402
sg310
F0.0005440711975097656
sg311
I2
sg312
I2
sasS'total_cqs'
p314
I10
ssI32
(dp315
S'iters'
p316
I3
sS'meta'
p317
(lp318
(dp319
S'objective'
p320
I23
sS'query_time'
p321
F1.0993561744689941
sS'comp_time'
p322
F0.008949041366577148
sS'exec_cq'
p323
I8
sS'total_cq'
p324
I10
sa(dp325
g320
I9
sg321
F4.1961669921875e-05
sg322
F9.274482727050781e-05
sg323
I5
sg324
I7
sa(dp326
g320
I5
sg321
F0.20725703239440918
sg322
F0.004426479339599609
sg323
I2
sg324
I2
sasS'total_cqs'
p327
I10
ssI33
(dp328
S'iters'
p329
I2
sS'meta'
p330
(lp331
(dp332
S'objective'
p333
I6
sS'query_time'
p334
F1.1040990352630615
sS'comp_time'
p335
F0.006899833679199219
sS'exec_cq'
p336
I8
sS'total_cq'
p337
I11
sa(dp338
g333
I8
sg334
F0.05159187316894531
sg335
F0.0012929439544677734
sg336
I3
sg337
I4
sasS'total_cqs'
p339
I11
ssI34
(dp340
S'iters'
p341
I3
sS'meta'
p342
(lp343
(dp344
S'objective'
p345
I2007
sS'query_time'
p346
F60.04438877105713
sS'comp_time'
p347
F0.7662231922149658
sS'exec_cq'
p348
I70
sS'total_cq'
p349
I70
sa(dp350
g345
I1852
sg346
F0.004010200500488281
sg347
F0.0057451725006103516
sg348
I63
sg349
I63
sa(dp351
g345
I1909
sg346
F0.003330230712890625
sg347
F0.005008697509765625
sg348
I57
sg349
I57
sasS'total_cqs'
p352
I70
ssI35
(dp353
S'iters'
p354
I4
sS'meta'
p355
(lp356
(dp357
S'objective'
p358
I1907
sS'query_time'
p359
F61.67637801170349
sS'comp_time'
p360
F0.9193718433380127
sS'exec_cq'
p361
I70
sS'total_cq'
p362
I70
sa(dp363
g358
I1778
sg359
F0.0615999698638916
sg360
F0.015851497650146484
sg361
I62
sg362
I62
sa(dp364
g358
I1699
sg359
F0.00887298583984375
sg360
F0.014524698257446289
sg361
I56
sg362
I56
sa(dp365
g358
I1703
sg359
F0.008520841598510742
sg360
F0.014491796493530273
sg361
I52
sg362
I52
sasS'total_cqs'
p366
I70
ssI36
(dp367
S'iters'
p368
I2
sS'meta'
p369
(lp370
(dp371
S'objective'
p372
I51
sS'query_time'
p373
F19.896099090576172
sS'comp_time'
p374
F0.035822153091430664
sS'exec_cq'
p375
I15
sS'total_cq'
p376
I17
sa(dp377
g372
I17
sg373
F0.18744492530822754
sg374
F0.00038313865661621094
sg375
I5
sg376
I5
sasS'total_cqs'
p378
I17
ssI37
(dp379
S'iters'
p380
I2
sS'meta'
p381
(lp382
(dp383
S'objective'
p384
I72
sS'query_time'
p385
F19.066412210464478
sS'comp_time'
p386
F0.08369088172912598
sS'exec_cq'
p387
I14
sS'total_cq'
p388
I16
sa(dp389
g384
I0
sg385
F0.02055501937866211
sg386
F0.0003037452697753906
sg387
I2
sg388
I3
sasS'total_cqs'
p390
I16
ssI38
(dp391
S'iters'
p392
I4
sS'meta'
p393
(lp394
(dp395
S'objective'
p396
I1270
sS'query_time'
p397
F40.5737202167511
sS'comp_time'
p398
F0.6536166667938232
sS'exec_cq'
p399
I59
sS'total_cq'
p400
I59
sa(dp401
g396
I1172
sg397
F0.20977282524108887
sg398
F0.7211310863494873
sg399
I52
sg400
I52
sa(dp402
g396
I1088
sg397
F0.002429962158203125
sg398
F0.0033669471740722656
sg399
I46
sg400
I46
sa(dp403
g396
I1099
sg397
F0.0014879703521728516
sg398
F0.0026390552520751953
sg399
I39
sg400
I39
sasS'total_cqs'
p404
I59
ssI39
(dp405
S'iters'
p406
I4
sS'meta'
p407
(lp408
(dp409
S'objective'
p410
I2300
sS'query_time'
p411
F50.085578203201294
sS'comp_time'
p412
F0.3522331714630127
sS'exec_cq'
p413
I79
sS'total_cq'
p414
I79
sa(dp415
g410
I1926
sg411
F0.07188773155212402
sg412
F0.0448606014251709
sg413
I69
sg414
I69
sa(dp416
g410
I1548
sg411
F0.0003998279571533203
sg412
F0.00420379638671875
sg413
I60
sg414
I60
sa(dp417
g410
I1780
sg411
F0.00022411346435546875
sg412
F0.003429889678955078
sg413
I50
sg414
I50
sasS'total_cqs'
p418
I79
ssI40
(dp419
S'iters'
p420
I4
sS'meta'
p421
(lp422
(dp423
S'objective'
p424
I2022
sS'query_time'
p425
F66.10045599937439
sS'comp_time'
p426
F0.4471914768218994
sS'exec_cq'
p427
I73
sS'total_cq'
p428
I83
sa(dp429
g424
I1970
sg425
F0.0646829605102539
sg426
F0.0022110939025878906
sg427
I67
sg428
I67
sa(dp430
g424
I1586
sg425
F0.0004971027374267578
sg426
F0.0018928050994873047
sg427
I55
sg428
I55
sa(dp431
g424
I1808
sg425
F0.0001919269561767578
sg426
F0.0007140636444091797
sg427
I44
sg428
I44
sasS'total_cqs'
p432
I83
ssI41
(dp433
S'iters'
p434
I1
sS'meta'
p435
(lp436
(dp437
S'objective'
p438
I5
sS'query_time'
p439
F0.10399889945983887
sS'comp_time'
p440
F0.0026628971099853516
sS'exec_cq'
p441
I2
sS'total_cq'
p442
I5
sasS'total_cqs'
p443
I5
ssI42
(dp444
S'iters'
p445
I1
sS'meta'
p446
(lp447
(dp448
S'objective'
p449
I0
sS'query_time'
p450
F41.86190986633301
sS'comp_time'
p451
F0.0008256435394287109
sS'exec_cq'
p452
I3
sS'total_cq'
p453
I3
sasS'total_cqs'
p454
I3
ssI43
(dp455
S'iters'
p456
I1
sS'meta'
p457
(lp458
(dp459
S'objective'
p460
I5
sS'query_time'
p461
F0.5071640014648438
sS'comp_time'
p462
F0.016871929168701172
sS'exec_cq'
p463
I5
sS'total_cq'
p464
I5
sasS'total_cqs'
p465
I5
ssI44
(dp466
S'iters'
p467
I4
sS'meta'
p468
(lp469
(dp470
S'objective'
p471
I15
sS'query_time'
p472
F20.022114992141724
sS'comp_time'
p473
F0.005926847457885742
sS'exec_cq'
p474
I8
sS'total_cq'
p475
I10
sa(dp476
g471
I7
sg472
F0.028568267822265625
sg473
F0.00017976760864257812
sg474
I4
sg475
I6
sa(dp477
g471
I1
sg472
F0.002807140350341797
sg473
F5.7220458984375e-05
sg474
I2
sg475
I4
sa(dp478
g471
I9
sg472
F20.007683992385864
sg473
F0.00010204315185546875
sg474
I2
sg475
I2
sasS'total_cqs'
p479
I10
ssI45
(dp480
S'iters'
p481
I0
sS'meta'
p482
(lp483
sS'total_cqs'
p484
I1
ssI46
(dp485
S'iters'
p486
I1
sS'meta'
p487
(lp488
(dp489
S'objective'
p490
I1
sS'query_time'
p491
F0.6775112152099609
sS'comp_time'
p492
F0.01607203483581543
sS'exec_cq'
p493
I2
sS'total_cq'
p494
I2
sasS'total_cqs'
p495
I2
ssI47
(dp496
S'iters'
p497
I0
sS'meta'
p498
(lp499
sS'total_cqs'
p500
I1
ssI48
(dp501
S'iters'
p502
I0
sS'meta'
p503
(lp504
sS'total_cqs'
p505
I1
ssI49
(dp506
S'iters'
p507
I1
sS'meta'
p508
(lp509
(dp510
S'objective'
p511
I0
sS'query_time'
p512
F23.640882968902588
sS'comp_time'
p513
F0.03968501091003418
sS'exec_cq'
p514
I3
sS'total_cq'
p515
I3
sasS'total_cqs'
p516
I3
ssI50
(dp517
S'iters'
p518
I2
sS'meta'
p519
(lp520
(dp521
S'objective'
p522
I52
sS'query_time'
p523
F17.282164096832275
sS'comp_time'
p524
F0.011733293533325195
sS'exec_cq'
p525
I12
sS'total_cq'
p526
I12
sa(dp527
g522
I41
sg523
F5.1975250244140625e-05
sg524
F0.0001742839813232422
sg525
I9
sg526
I9
sasS'total_cqs'
p528
I12
ssI51
(dp529
S'iters'
p530
I2
sS'meta'
p531
(lp532
(dp533
S'objective'
p534
I22
sS'query_time'
p535
F21.324033975601196
sS'comp_time'
p536
F0.009671688079833984
sS'exec_cq'
p537
I10
sS'total_cq'
p538
I12
sa(dp539
g534
I4
sg535
F12.327765226364136
sg536
F0.0002949237823486328
sg537
I5
sg538
I5
sasS'total_cqs'
p540
I12
ssI52
(dp541
S'iters'
p542
I2
sS'meta'
p543
(lp544
(dp545
S'objective'
p546
I26
sS'query_time'
p547
F1.4831171035766602
sS'comp_time'
p548
F0.010783910751342773
sS'exec_cq'
p549
I10
sS'total_cq'
p550
I12
sa(dp551
g546
I2
sg547
F0.21705389022827148
sg548
F0.0004119873046875
sg549
I4
sg550
I4
sasS'total_cqs'
p552
I12
ssI53
(dp553
S'iters'
p554
I2
sS'meta'
p555
(lp556
(dp557
S'objective'
p558
I4
sS'query_time'
p559
F20.07938575744629
sS'comp_time'
p560
F0.0009720325469970703
sS'exec_cq'
p561
I3
sS'total_cq'
p562
I3
sa(dp563
g558
I1
sg559
F23.686280012130737
sg560
F0.00012493133544921875
sg561
I2
sg562
I2
sasS'total_cqs'
p564
I3
ssI54
(dp565
S'iters'
p566
I1
sS'meta'
p567
(lp568
(dp569
S'objective'
p570
I5
sS'query_time'
p571
F34.74755001068115
sS'comp_time'
p572
F0.009844541549682617
sS'exec_cq'
p573
I5
sS'total_cq'
p574
I5
sasS'total_cqs'
p575
I5
ssI55
(dp576
S'iters'
p577
I2
sS'meta'
p578
(lp579
(dp580
S'objective'
p581
I19
sS'query_time'
p582
F26.116918087005615
sS'comp_time'
p583
F0.01652693748474121
sS'exec_cq'
p584
I10
sS'total_cq'
p585
I10
sa(dp586
g581
I2
sg582
F0.005450010299682617
sg583
F0.01616215705871582
sg584
I2
sg585
I2
sasS'total_cqs'
p587
I10
ssI56
(dp588
S'iters'
p589
I2
sS'meta'
p590
(lp591
(dp592
S'objective'
p593
I7
sS'query_time'
p594
F42.45673179626465
sS'comp_time'
p595
F0.5638289451599121
sS'exec_cq'
p596
I6
sS'total_cq'
p597
I6
sa(dp598
g593
I2
sg594
F0.09278297424316406
sg595
F0.2734489440917969
sg596
I4
sg597
I4
sasS'total_cqs'
p599
I6
ssI57
(dp600
S'iters'
p601
I2
sS'meta'
p602
(lp603
(dp604
S'objective'
p605
I274
sS'query_time'
p606
F31.49783492088318
sS'comp_time'
p607
F0.15532827377319336
sS'exec_cq'
p608
I27
sS'total_cq'
p609
I27
sa(dp610
g605
I272
sg606
F0.031141042709350586
sg607
F0.10142183303833008
sg608
I23
sg609
I23
sasS'total_cqs'
p611
I27
ssI58
(dp612
S'iters'
p613
I2
sS'meta'
p614
(lp615
(dp616
S'objective'
p617
I7
sS'query_time'
p618
F30.200003147125244
sS'comp_time'
p619
F0.006349325180053711
sS'exec_cq'
p620
I8
sS'total_cq'
p621
I10
sa(dp622
g617
I4
sg618
F2.1286780834198
sg619
F0.04404854774475098
sg620
I2
sg621
I4
sasS'total_cqs'
p623
I10
ssI59
(dp624
S'iters'
p625
I4
sS'meta'
p626
(lp627
(dp628
S'objective'
p629
I1162
sS'query_time'
p630
F69.87900114059448
sS'comp_time'
p631
F1.7829430103302002
sS'exec_cq'
p632
I59
sS'total_cq'
p633
I59
sa(dp634
g629
I1144
sg630
F0.605963945388794
sg631
F1.511610984802246
sg632
I50
sg633
I50
sa(dp635
g629
I989
sg630
F0.442857027053833
sg631
F0.8270089626312256
sg632
I43
sg633
I43
sa(dp636
g629
I1029
sg630
F0.2912442684173584
sg631
F1.0224480628967285
sg632
I38
sg633
I38
sasS'total_cqs'
p637
I59
ssI60
(dp638
S'iters'
p639
I2
sS'meta'
p640
(lp641
(dp642
S'objective'
p643
I70
sS'query_time'
p644
F36.31916689872742
sS'comp_time'
p645
F0.02993941307067871
sS'exec_cq'
p646
I13
sS'total_cq'
p647
I15
sa(dp648
g643
I5
sg644
F0.5457370281219482
sg645
F0.0004379749298095703
sg646
I2
sg647
I4
sasS'total_cqs'
p649
I15
ssI61
(dp650
S'iters'
p651
I2
sS'meta'
p652
(lp653
(dp654
S'objective'
p655
I5
sS'query_time'
p656
F45.28848195075989
sS'comp_time'
p657
F0.011614799499511719
sS'exec_cq'
p658
I14
sS'total_cq'
p659
I17
sa(dp660
g655
I40
sg656
F0.6060521602630615
sg657
F0.0003612041473388672
sg658
I7
sg659
I7
sasS'total_cqs'
p661
I17
ssI62
(dp662
S'iters'
p663
I5
sS'meta'
p664
(lp665
(dp666
S'objective'
p667
I10893
sS'query_time'
p668
F61.03503608703613
sS'comp_time'
p669
F1.1615524291992188
sS'exec_cq'
p670
I158
sS'total_cq'
p671
I158
sa(dp672
g667
I10339
sg668
F0.002156972885131836
sg669
F0.005690813064575195
sg670
I148
sg671
I148
sa(dp673
g667
I10533
sg668
F0.0011749267578125
sg669
F0.00372314453125
sg670
I138
sg671
I138
sa(dp674
g667
I10413
sg668
F0.0006442070007324219
sg669
F0.0019123554229736328
sg670
I135
sg671
I135
sa(dp675
g667
I10282
sg668
F0.0005910396575927734
sg669
F0.0011832714080810547
sg670
I133
sg671
I133
sasS'total_cqs'
p676
I158
ssI63
(dp677
S'iters'
p678
I4
sS'meta'
p679
(lp680
(dp681
S'objective'
p682
I2385
sS'query_time'
p683
F91.09555506706238
sS'comp_time'
p684
F0.26960253715515137
sS'exec_cq'
p685
I77
sS'total_cq'
p686
I77
sa(dp687
g682
I2196
sg683
F0.0021648406982421875
sg684
F0.002754688262939453
sg685
I70
sg686
I70
sa(dp688
g682
I2223
sg683
F0.0007920265197753906
sg684
F0.002113819122314453
sg685
I63
sg686
I63
sa(dp689
g682
I2180
sg683
F0.0002219676971435547
sg684
F0.0005221366882324219
sg685
I61
sg686
I61
sasS'total_cqs'
p690
I77
ssI64
(dp691
S'iters'
p692
I8
sS'meta'
p693
(lp694
(dp695
S'objective'
p696
I8098
sS'query_time'
p697
F117.59535264968872
sS'comp_time'
p698
F8.321449041366577
sS'exec_cq'
p699
I135
sS'total_cq'
p700
I135
sa(dp701
g696
I8107
sg697
F1.7357499599456787
sg698
F4.933319807052612
sg699
I129
sg700
I129
sa(dp702
g696
I7909
sg697
F0.733177900314331
sg698
F1.994333028793335
sg699
I126
sg700
I126
sa(dp703
g696
I7733
sg697
F0.8966701030731201
sg698
F2.0079519748687744
sg699
I124
sg700
I124
sa(dp704
g696
I7551
sg697
F0.7680747509002686
sg698
F2.0351312160491943
sg699
I122
sg700
I122
sa(dp705
g696
I7430
sg697
F0.9055089950561523
sg698
F1.9735126495361328
sg699
I120
sg700
I120
sa(dp706
g696
I7299
sg697
F0.18979787826538086
sg698
F0.44876813888549805
sg699
I118
sg700
I118
sa(dp707
g696
I7173
sg697
F0.05433225631713867
sg698
F0.44086194038391113
sg699
I116
sg700
I116
sasS'total_cqs'
p708
I135
ssI65
(dp709
S'iters'
p710
I2
sS'meta'
p711
(lp712
(dp713
S'objective'
p714
I253
sS'query_time'
p715
F40.50248432159424
sS'comp_time'
p716
F0.03632712364196777
sS'exec_cq'
p717
I26
sS'total_cq'
p718
I26
sa(dp719
g714
I250
sg715
F0.0009899139404296875
sg716
F0.0016925334930419922
sg717
I24
sg718
I24
sasS'total_cqs'
p720
I26
ssI66
(dp721
S'iters'
p722
I2
sS'meta'
p723
(lp724
(dp725
S'objective'
p726
I239
sS'query_time'
p727
F42.014071226119995
sS'comp_time'
p728
F0.08595061302185059
sS'exec_cq'
p729
I25
sS'total_cq'
p730
I25
sa(dp731
g726
I232
sg727
F0.013225078582763672
sg728
F0.02637648582458496
sg729
I23
sg730
I23
sasS'total_cqs'
p732
I25
ssI67
(dp733
S'iters'
p734
I3
sS'meta'
p735
(lp736
(dp737
S'objective'
p738
I243
sS'query_time'
p739
F5.3225860595703125
sS'comp_time'
p740
F0.16798734664916992
sS'exec_cq'
p741
I25
sS'total_cq'
p742
I25
sa(dp743
g738
I204
sg739
F0.03423881530761719
sg740
F0.14066672325134277
sg741
I23
sg742
I23
sa(dp744
g738
I194
sg739
F0.03774213790893555
sg740
F0.11471366882324219
sg741
I21
sg742
I21
sasS'total_cqs'
p745
I25
ssI68
(dp746
S'iters'
p747
I5
sS'meta'
p748
(lp749
(dp750
S'objective'
p751
I1871
sS'query_time'
p752
F24.71454119682312
sS'comp_time'
p753
F0.2366631031036377
sS'exec_cq'
p754
I63
sS'total_cq'
p755
I73
sa(dp756
g751
I1494
sg752
F0.000514984130859375
sg753
F0.0020596981048583984
sg754
I52
sg755
I62
sa(dp757
g751
I1114
sg752
F0.0004971027374267578
sg753
F0.0021660327911376953
sg754
I41
sg755
I51
sa(dp758
g751
I944
sg752
F0.05018210411071777
sg753
F0.0016210079193115234
sg754
I41
sg755
I41
sa(dp759
g751
I1077
sg752
F0.00035881996154785156
sg753
F0.0010712146759033203
sg754
I32
sg755
I32
sasS'total_cqs'
p760
I73
ssI69
(dp761
S'iters'
p762
I5
sS'meta'
p763
(lp764
(dp765
S'objective'
p766
I1660
sS'query_time'
p767
F32.94251608848572
sS'comp_time'
p768
F0.19900751113891602
sS'exec_cq'
p769
I62
sS'total_cq'
p770
I72
sa(dp771
g766
I1272
sg767
F0.056603193283081055
sg768
F0.003686666488647461
sg769
I62
sg770
I62
sa(dp772
g766
I884
sg767
F0.0005211830139160156
sg768
F0.0019843578338623047
sg769
I51
sg770
I51
sa(dp773
g766
I482
sg767
F0.0003361701965332031
sg768
F0.0016512870788574219
sg769
I40
sg770
I40
sa(dp774
g766
I745
sg767
F0.00020384788513183594
sg768
F0.0008041858673095703
sg769
I30
sg770
I30
sasS'total_cqs'
p775
I72
ssI70
(dp776
S'iters'
p777
I5
sS'meta'
p778
(lp779
(dp780
S'objective'
p781
I5479
sS'query_time'
p782
F99.65855741500854
sS'comp_time'
p783
F3.482290267944336
sS'exec_cq'
p784
I109
sS'total_cq'
p785
I109
sa(dp786
g781
I5409
sg782
F0.22231101989746094
sg783
F1.3944001197814941
sg784
I105
sg785
I105
sa(dp787
g781
I5289
sg782
F0.40083909034729004
sg783
F1.3765490055084229
sg784
I103
sg785
I103
sa(dp788
g781
I5161
sg782
F0.27399206161499023
sg783
F1.150650978088379
sg784
I99
sg785
I99
sa(dp789
g781
I5078
sg782
F0.3750278949737549
sg783
F1.191133975982666
sg784
I97
sg785
I97
sasS'total_cqs'
p790
I109
ssI71
(dp791
S'iters'
p792
I19
sS'meta'
p793
(lp794
(dp795
S'objective'
p796
I156810
sS'query_time'
p797
F187.5262370109558
sS'comp_time'
p798
F28.916385889053345
sS'exec_cq'
p799
I568
sS'total_cq'
p800
I568
sa(dp801
g796
I156797
sg797
F2.5347659587860107
sg798
F2.236454963684082
sg799
I562
sg800
I562
sa(dp802
g796
I155902
sg797
F0.4771883487701416
sg798
F0.5290102958679199
sg799
I556
sg800
I556
sa(dp803
g796
I155121
sg797
F1.7135791778564453
sg798
F0.5312185287475586
sg799
I554
sg800
I554
sa(dp804
g796
I154228
sg797
F0.4671001434326172
sg798
F1.7672786712646484
sg799
I552
sg800
I552
sa(dp805
g796
I153440
sg797
F1.7501568794250488
sg798
F0.5153260231018066
sg799
I550
sg800
I550
sa(dp806
g796
I152604
sg797
F1.6856958866119385
sg798
F0.4201846122741699
sg799
I548
sg800
I548
sa(dp807
g796
I151821
sg797
F0.4253058433532715
sg798
F1.7051920890808105
sg799
I546
sg800
I546
sa(dp808
g796
I151033
sg797
F0.45916080474853516
sg798
F0.5140442848205566
sg799
I544
sg800
I544
sa(dp809
g796
I150303
sg797
F2.3460493087768555
sg798
F0.522212028503418
sg799
I542
sg800
I542
sa(dp810
g796
I149594
sg797
F0.5412578582763672
sg798
F2.3500218391418457
sg799
I540
sg800
I540
sa(dp811
g796
I148909
sg797
F0.5140998363494873
sg798
F1.825641393661499
sg799
I538
sg800
I538
sa(dp812
g796
I148216
sg797
F0.4050567150115967
sg798
F0.45018696784973145
sg799
I534
sg800
I534
sa(dp813
g796
I147530
sg797
F1.6681740283966064
sg798
F0.4450967311859131
sg799
I532
sg800
I532
sa(dp814
g796
I146882
sg797
F0.40239596366882324
sg798
F1.707859754562378
sg799
I530
sg800
I530
sa(dp815
g796
I146219
sg797
F0.40430617332458496
sg798
F0.44315528869628906
sg799
I528
sg800
I528
sa(dp816
g796
I145690
sg797
F1.6295599937438965
sg798
F0.4355895519256592
sg799
I526
sg800
I526
sa(dp817
g796
I145148
sg797
F1.672205924987793
sg798
F0.43442749977111816
sg799
I524
sg800
I524
sa(dp818
g796
I144582
sg797
F0.4017598628997803
sg798
F1.7078073024749756
sg799
I522
sg800
I522
sasS'total_cqs'
p819
I568
ssI72
(dp820
S'iters'
p821
I2
sS'meta'
p822
(lp823
(dp824
S'objective'
p825
I7447
sS'query_time'
p826
F21.051711797714233
sS'comp_time'
p827
F0.6734051704406738
sS'exec_cq'
p828
I125
sS'total_cq'
p829
I125
sa(dp830
g825
I7411
sg826
F0.008981704711914062
sg827
F0.015889883041381836
sg828
I123
sg829
I123
sasS'total_cqs'
p831
I125
ssI73
(dp832
S'iters'
p833
I8
sS'meta'
p834
(lp835
(dp836
S'objective'
p837
I7413
sS'query_time'
p838
F45.33782196044922
sS'comp_time'
p839
F1.0506761074066162
sS'exec_cq'
p840
I125
sS'total_cq'
p841
I125
sa(dp842
g837
I7220
sg838
F0.06993293762207031
sg839
F0.3504617214202881
sg840
I123
sg841
I123
sa(dp843
g837
I7050
sg838
F0.15352797508239746
sg839
F0.3675413131713867
sg840
I121
sg841
I121
sa(dp844
g837
I6899
sg838
F0.10608720779418945
sg839
F0.4015083312988281
sg840
I119
sg841
I119
sa(dp845
g837
I6732
sg838
F0.22890901565551758
sg839
F0.31931519508361816
sg840
I117
sg841
I117
sa(dp846
g837
I6573
sg838
F0.2064518928527832
sg839
F0.30884242057800293
sg840
I115
sg841
I115
sa(dp847
g837
I6477
sg838
F0.04054903984069824
sg839
F0.09312057495117188
sg840
I113
sg841
I113
sa(dp848
g837
I6357
sg838
F0.1409001350402832
sg839
F0.09041380882263184
sg840
I111
sg841
I111
sasS'total_cqs'
p849
I125
ssI138
(dp850
S'iters'
p851
I3
sS'meta'
p852
(lp853
(dp854
S'objective'
p855
I1446
sS'query_time'
p856
F1.8488709926605225
sS'comp_time'
p857
F0.23895883560180664
sS'exec_cq'
p858
I61
sS'total_cq'
p859
I75
sa(dp860
g855
I1966
sg856
F0.09585285186767578
sg857
F0.0020563602447509766
sg858
I55
sg859
I55
sa(dp861
g855
I1907
sg856
F0.00020384788513183594
sg857
F0.000335693359375
sg858
I52
sg859
I52
sasS'total_cqs'
p862
I75
ssI141
(dp863
S'iters'
p864
I8
sS'meta'
p865
(lp866
(dp867
S'objective'
p868
I63768
sS'query_time'
p869
F55.13196897506714
sS'comp_time'
p870
F9.354406833648682
sS'exec_cq'
p871
I383
sS'total_cq'
p872
I383
sa(dp873
g868
I59038
sg869
F0.006214141845703125
sg870
F0.03308916091918945
sg871
I360
sg872
I360
sa(dp874
g868
I57555
sg869
F0.0051500797271728516
sg870
F0.018308162689208984
sg871
I337
sg872
I337
sa(dp875
g868
I58754
sg869
F0.004568815231323242
sg870
F0.012252092361450195
sg871
I319
sg872
I319
sa(dp876
g868
I57993
sg869
F0.003824949264526367
sg870
F0.007707118988037109
sg871
I314
sg872
I314
sa(dp877
g868
I57662
sg869
F0.0012018680572509766
sg870
F0.003583669662475586
sg871
I308
sg872
I308
sa(dp878
g868
I57397
sg869
F0.0008771419525146484
sg870
F0.0023698806762695312
sg871
I304
sg872
I304
sa(dp879
g868
I57063
sg869
F0.0008258819580078125
sg870
F0.0016360282897949219
sg871
I300
sg872
I300
sasS'total_cqs'
p880
I383
ssI139
(dp881
S'iters'
p882
I6
sS'meta'
p883
(lp884
(dp885
S'objective'
p886
I79493
sS'query_time'
p887
F55.11143493652344
sS'comp_time'
p888
F15.638787508010864
sS'exec_cq'
p889
I425
sS'total_cq'
p890
I425
sa(dp891
g886
I76795
sg887
F0.12073707580566406
sg888
F0.06852006912231445
sg889
I398
sg890
I398
sa(dp892
g886
I72808
sg887
F0.0021080970764160156
sg888
F0.01073002815246582
sg889
I377
sg890
I377
sa(dp893
g886
I74943
sg887
F0.0018329620361328125
sg888
F0.009779214859008789
sg889
I358
sg890
I358
sa(dp894
g886
I74799
sg887
F0.0008981227874755859
sg888
F0.0022683143615722656
sg889
I355
sg890
I355
sa(dp895
g886
I74499
sg887
F0.0008261203765869141
sg888
F0.0015292167663574219
sg889
I351
sg890
I351
sasS'total_cqs'
p896
I425
ssI142
(dp897
S'iters'
p898
I1
sS'meta'
p899
(lp900
(dp901
S'objective'
p902
I0
sS'query_time'
p903
F21.452375888824463
sS'comp_time'
p904
F0.0008192062377929688
sS'exec_cq'
p905
I3
sS'total_cq'
p906
I3
sasS'total_cqs'
p907
I3
ssI135
(dp908
S'iters'
p909
I2
sS'meta'
p910
(lp911
(dp912
S'objective'
p913
I4
sS'query_time'
p914
F28.473602056503296
sS'comp_time'
p915
F0.609752893447876
sS'exec_cq'
p916
I7
sS'total_cq'
p917
I7
sa(dp918
g913
I2
sg914
F0.15170598030090332
sg915
F0.41240406036376953
sg916
I2
sg917
I2
sasS'total_cqs'
p919
I7
ssI133
(dp920
S'iters'
p921
I1
sS'meta'
p922
(lp923
(dp924
S'objective'
p925
I1
sS'query_time'
p926
F21.633708000183105
sS'comp_time'
p927
F0.0006096363067626953
sS'exec_cq'
p928
I2
sS'total_cq'
p929
I2
sasS'total_cqs'
p930
I2
ssI148
(dp931
S'iters'
p932
I6
sS'meta'
p933
(lp934
(dp935
S'objective'
p936
I57396
sS'query_time'
p937
F27.614251852035522
sS'comp_time'
p938
F7.862213850021362
sS'exec_cq'
p939
I359
sS'total_cq'
p940
I359
sa(dp941
g936
I54194
sg937
F0.0016150474548339844
sg938
F0.011266469955444336
sg939
I340
sg940
I340
sa(dp942
g936
I52721
sg937
F0.0011470317840576172
sg938
F0.008130073547363281
sg939
I321
sg940
I321
sa(dp943
g936
I53349
sg937
F0.0008959770202636719
sg938
F0.0045642852783203125
sg939
I310
sg940
I310
sa(dp944
g936
I52955
sg937
F0.0008158683776855469
sg938
F0.001786947250366211
sg939
I306
sg940
I306
sa(dp945
g936
I52887
sg937
F0.0007221698760986328
sg938
F0.001089334487915039
sg939
I302
sg940
I302
sasS'total_cqs'
p946
I359
ssI140
(dp947
S'iters'
p948
I0
sS'meta'
p949
(lp950
sS'total_cqs'
p951
I1
ssI137
(dp952
S'iters'
p953
I6
sS'meta'
p954
(lp955
(dp956
S'objective'
p957
I74580
sS'query_time'
p958
F48.45508885383606
sS'comp_time'
p959
F9.723648071289062
sS'exec_cq'
p960
I400
sS'total_cq'
p961
I400
sa(dp962
g957
I72094
sg958
F0.003984928131103516
sg959
F0.018932819366455078
sg960
I382
sg961
I382
sa(dp963
g957
I69726
sg958
F0.003055095672607422
sg959
F0.013976335525512695
sg960
I367
sg961
I367
sa(dp964
g957
I70120
sg958
F0.0011839866638183594
sg959
F0.0074727535247802734
sg960
I351
sg961
I351
sa(dp965
g957
I69921
sg958
F0.0010118484497070312
sg959
F0.0020952224731445312
sg960
I347
sg961
I347
sa(dp966
g957
I69749
sg958
F0.0008580684661865234
sg959
F0.0013086795806884766
sg960
I344
sg961
I344
sasS'total_cqs'
p967
I400
ssI136
(dp968
S'iters'
p969
I3
sS'meta'
p970
(lp971
(dp972
S'objective'
p973
I385
sS'query_time'
p974
F19.162533044815063
sS'comp_time'
p975
F0.10888004302978516
sS'exec_cq'
p976
I46
sS'total_cq'
p977
I57
sa(dp978
g973
I863
sg974
F0.07837176322937012
sg975
F0.0015292167663574219
sg976
I35
sg977
I35
sa(dp979
g973
I827
sg974
F0.00015878677368164062
sg975
F0.0003428459167480469
sg976
I32
sg977
I32
sasS'total_cqs'
p980
I57
ss.