(dp0
I1
(dp1
S'iters'
p2
I1
sS'meta'
p3
(lp4
(dp5
S'objective'
p6
I2
sS'query_time'
p7
F0.010761022567749023
sS'comp_time'
p8
F5.984306335449219e-05
sS'exec_cq'
p9
I1
sS'total_cq'
p10
I4
sasS'total_cqs'
p11
I4
ssI2
(dp12
S'iters'
p13
I1
sS'meta'
p14
(lp15
(dp16
S'objective'
p17
I2
sS'query_time'
p18
F0.015505075454711914
sS'comp_time'
p19
F6.008148193359375e-05
sS'exec_cq'
p20
I1
sS'total_cq'
p21
I4
sasS'total_cqs'
p22
I4
ssI3
(dp23
S'iters'
p24
I0
sS'meta'
p25
(lp26
sS'total_cqs'
p27
I1
ssI4
(dp28
S'iters'
p29
I0
sS'meta'
p30
(lp31
sS'total_cqs'
p32
I1
ssI5
(dp33
S'iters'
p34
I1
sS'meta'
p35
(lp36
(dp37
S'objective'
p38
I1377
sS'query_time'
p39
F20.041149139404297
sS'comp_time'
p40
F0.00012993812561035156
sS'exec_cq'
p41
I1
sS'total_cq'
p42
I54
sasS'total_cqs'
p43
I54
ssI6
(dp44
S'iters'
p45
I1
sS'meta'
p46
(lp47
(dp48
S'objective'
p49
I2
sS'query_time'
p50
F0.007239818572998047
sS'comp_time'
p51
F4.601478576660156e-05
sS'exec_cq'
p52
I1
sS'total_cq'
p53
I4
sasS'total_cqs'
p54
I4
ssI7
(dp55
S'iters'
p56
I0
sS'meta'
p57
(lp58
sS'total_cqs'
p59
I1
ssI8
(dp60
S'iters'
p61
I0
sS'meta'
p62
(lp63
sS'total_cqs'
p64
I1
ssI9
(dp65
S'iters'
p66
I1
sS'meta'
p67
(lp68
(dp69
S'objective'
p70
I0
sS'query_time'
p71
F0.1639869213104248
sS'comp_time'
p72
F7.009506225585938e-05
sS'exec_cq'
p73
I1
sS'total_cq'
p74
I3
sasS'total_cqs'
p75
I3
ssI10
(dp76
S'iters'
p77
I1
sS'meta'
p78
(lp79
(dp80
S'objective'
p81
I2
sS'query_time'
p82
F0.007595062255859375
sS'comp_time'
p83
F3.886222839355469e-05
sS'exec_cq'
p84
I1
sS'total_cq'
p85
I4
sasS'total_cqs'
p86
I4
ssI11
(dp87
S'iters'
p88
I1
sS'meta'
p89
(lp90
(dp91
S'objective'
p92
I14
sS'query_time'
p93
F0.002624988555908203
sS'comp_time'
p94
F4.696846008300781e-05
sS'exec_cq'
p95
I1
sS'total_cq'
p96
I7
sasS'total_cqs'
p97
I7
ssI12
(dp98
S'iters'
p99
I1
sS'meta'
p100
(lp101
(dp102
S'objective'
p103
I14
sS'query_time'
p104
F0.055883169174194336
sS'comp_time'
p105
F6.008148193359375e-05
sS'exec_cq'
p106
I1
sS'total_cq'
p107
I7
sasS'total_cqs'
p108
I7
ssI13
(dp109
S'iters'
p110
I0
sS'meta'
p111
(lp112
sS'total_cqs'
p113
I1
ssI14
(dp114
S'iters'
p115
I1
sS'meta'
p116
(lp117
(dp118
S'objective'
p119
I275
sS'query_time'
p120
F2.5063788890838623
sS'comp_time'
p121
F8.392333984375e-05
sS'exec_cq'
p122
I1
sS'total_cq'
p123
I25
sasS'total_cqs'
p124
I25
ssI15
(dp125
S'iters'
p126
I2
sS'meta'
p127
(lp128
(dp129
S'objective'
p130
I25
sS'query_time'
p131
F20.195470094680786
sS'comp_time'
p132
F6.103515625e-05
sS'exec_cq'
p133
I1
sS'total_cq'
p134
I13
sa(dp135
g130
I7
sg131
F20.05068278312683
sg132
F0.00010204315185546875
sg133
I2
sg134
I3
sasS'total_cqs'
p136
I13
ssI16
(dp137
S'iters'
p138
I2
sS'meta'
p139
(lp140
(dp141
S'objective'
p142
I73
sS'query_time'
p143
F20.559478998184204
sS'comp_time'
p144
F8.416175842285156e-05
sS'exec_cq'
p145
I1
sS'total_cq'
p146
I17
sa(dp147
g142
I6
sg143
F24.97380495071411
sg144
F0.0003418922424316406
sg145
I2
sg146
I3
sasS'total_cqs'
p148
I17
ssI17
(dp149
S'iters'
p150
I2
sS'meta'
p151
(lp152
(dp153
S'objective'
p154
I78
sS'query_time'
p155
F21.289897918701172
sS'comp_time'
p156
F9.393692016601562e-05
sS'exec_cq'
p157
I1
sS'total_cq'
p158
I16
sa(dp159
g154
I3
sg155
F20.018146991729736
sg156
F0.0001049041748046875
sg157
I2
sg158
I2
sasS'total_cqs'
p160
I16
ssI18
(dp161
S'iters'
p162
I2
sS'meta'
p163
(lp164
(dp165
S'objective'
p166
I164
sS'query_time'
p167
F21.82229208946228
sS'comp_time'
p168
F6.508827209472656e-05
sS'exec_cq'
p169
I1
sS'total_cq'
p170
I20
sa(dp171
g166
I17
sg167
F20.029083013534546
sg168
F0.00010800361633300781
sg169
I2
sg170
I2
sasS'total_cqs'
p172
I20
ssI19
(dp173
S'iters'
p174
I2
sS'meta'
p175
(lp176
(dp177
S'objective'
p178
I3608
sS'query_time'
p179
F22.02116107940674
sS'comp_time'
p180
F0.00011205673217773438
sS'exec_cq'
p181
I1
sS'total_cq'
p182
I88
sa(dp183
g178
I22
sg179
F20.028132915496826
sg180
F0.00010800361633300781
sg181
I2
sg182
I2
sasS'total_cqs'
p184
I88
ssI148
(dp185
S'iters'
p186
I1
sS'meta'
p187
(lp188
(dp189
S'objective'
p190
I63902
sS'query_time'
p191
F0.09565901756286621
sS'comp_time'
p192
F0.0003180503845214844
sS'exec_cq'
p193
I1
sS'total_cq'
p194
I359
sasS'total_cqs'
p195
I359
ssI21
(dp196
S'iters'
p197
I1
sS'meta'
p198
(lp199
(dp200
S'objective'
p201
I5
sS'query_time'
p202
F0.009232044219970703
sS'comp_time'
p203
F5.793571472167969e-05
sS'exec_cq'
p204
I1
sS'total_cq'
p205
I5
sasS'total_cqs'
p206
I5
ssI22
(dp207
S'iters'
p208
I1
sS'meta'
p209
(lp210
(dp211
S'objective'
p212
I0
sS'query_time'
p213
F24.528876781463623
sS'comp_time'
p214
F0.003606081008911133
sS'exec_cq'
p215
I2
sS'total_cq'
p216
I3
sasS'total_cqs'
p217
I3
ssI23
(dp218
S'iters'
p219
I0
sS'meta'
p220
(lp221
sS'total_cqs'
p222
I1
ssI24
(dp223
S'iters'
p224
I2
sS'meta'
p225
(lp226
(dp227
S'objective'
p228
I4
sS'query_time'
p229
F0.03394794464111328
sS'comp_time'
p230
F7.200241088867188e-05
sS'exec_cq'
p231
I1
sS'total_cq'
p232
I3
sa(dp233
g228
I1
sg229
F0.03243613243103027
sg230
F3.0994415283203125e-05
sg231
I1
sg232
I2
sasS'total_cqs'
p234
I3
ssI25
(dp235
S'iters'
p236
I1
sS'meta'
p237
(lp238
(dp239
S'objective'
p240
I0
sS'query_time'
p241
F0.15797686576843262
sS'comp_time'
p242
F3.0040740966796875e-05
sS'exec_cq'
p243
I1
sS'total_cq'
p244
I3
sasS'total_cqs'
p245
I3
ssI26
(dp246
S'iters'
p247
I0
sS'meta'
p248
(lp249
sS'total_cqs'
p250
I1
ssI27
(dp251
S'iters'
p252
I0
sS'meta'
p253
(lp254
sS'total_cqs'
p255
I1
ssI28
(dp256
S'iters'
p257
I0
sS'meta'
p258
(lp259
sS'total_cqs'
p260
I1
ssI29
(dp261
S'iters'
p262
I1
sS'meta'
p263
(lp264
(dp265
S'objective'
p266
I14
sS'query_time'
p267
F0.0025942325592041016
sS'comp_time'
p268
F4.291534423828125e-05
sS'exec_cq'
p269
I1
sS'total_cq'
p270
I7
sasS'total_cqs'
p271
I7
ssI30
(dp272
S'iters'
p273
I1
sS'meta'
p274
(lp275
(dp276
S'objective'
p277
I14
sS'query_time'
p278
F0.045552968978881836
sS'comp_time'
p279
F4.887580871582031e-05
sS'exec_cq'
p280
I1
sS'total_cq'
p281
I7
sasS'total_cqs'
p282
I7
ssI31
(dp283
S'iters'
p284
I1
sS'meta'
p285
(lp286
(dp287
S'objective'
p288
I35
sS'query_time'
p289
F0.025229930877685547
sS'comp_time'
p290
F8.58306884765625e-05
sS'exec_cq'
p291
I1
sS'total_cq'
p292
I10
sasS'total_cqs'
p293
I10
ssI32
(dp294
S'iters'
p295
I1
sS'meta'
p296
(lp297
(dp298
S'objective'
p299
I35
sS'query_time'
p300
F0.1958329677581787
sS'comp_time'
p301
F7.510185241699219e-05
sS'exec_cq'
p302
I1
sS'total_cq'
p303
I10
sasS'total_cqs'
p304
I10
ssI33
(dp305
S'iters'
p306
I1
sS'meta'
p307
(lp308
(dp309
S'objective'
p310
I44
sS'query_time'
p311
F0.043595075607299805
sS'comp_time'
p312
F5.91278076171875e-05
sS'exec_cq'
p313
I1
sS'total_cq'
p314
I11
sasS'total_cqs'
p315
I11
ssI34
(dp316
S'iters'
p317
I1
sS'meta'
p318
(lp319
(dp320
S'objective'
p321
I2345
sS'query_time'
p322
F0.06682991981506348
sS'comp_time'
p323
F0.0001049041748046875
sS'exec_cq'
p324
I1
sS'total_cq'
p325
I70
sasS'total_cqs'
p326
I70
ssI35
(dp327
S'iters'
p328
I1
sS'meta'
p329
(lp330
(dp331
S'objective'
p332
I2345
sS'query_time'
p333
F0.13191890716552734
sS'comp_time'
p334
F0.00016307830810546875
sS'exec_cq'
p335
I1
sS'total_cq'
p336
I70
sasS'total_cqs'
p337
I70
ssI36
(dp338
S'iters'
p339
I1
sS'meta'
p340
(lp341
(dp342
S'objective'
p343
I119
sS'query_time'
p344
F0.016288042068481445
sS'comp_time'
p345
F6.508827209472656e-05
sS'exec_cq'
p346
I1
sS'total_cq'
p347
I17
sasS'total_cqs'
p348
I17
ssI134
(dp349
S'iters'
p350
I1
sS'meta'
p351
(lp352
(dp353
S'objective'
p354
I1
sS'query_time'
p355
F20.623103141784668
sS'comp_time'
p356
F9.393692016601562e-05
sS'exec_cq'
p357
I1
sS'total_cq'
p358
I2
sasS'total_cqs'
p359
I2
ssI38
(dp360
S'iters'
p361
I1
sS'meta'
p362
(lp363
(dp364
S'objective'
p365
I1652
sS'query_time'
p366
F0.03170299530029297
sS'comp_time'
p367
F8.797645568847656e-05
sS'exec_cq'
p368
I1
sS'total_cq'
p369
I59
sasS'total_cqs'
p370
I59
ssI39
(dp371
S'iters'
p372
I1
sS'meta'
p373
(lp374
(dp375
S'objective'
p376
I3002
sS'query_time'
p377
F0.023193836212158203
sS'comp_time'
p378
F6.914138793945312e-05
sS'exec_cq'
p379
I1
sS'total_cq'
p380
I79
sasS'total_cqs'
p381
I79
ssI40
(dp382
S'iters'
p383
I1
sS'meta'
p384
(lp385
(dp386
S'objective'
p387
I3320
sS'query_time'
p388
F0.02415299415588379
sS'comp_time'
p389
F9.489059448242188e-05
sS'exec_cq'
p390
I1
sS'total_cq'
p391
I83
sasS'total_cqs'
p392
I83
ssI41
(dp393
S'iters'
p394
I1
sS'meta'
p395
(lp396
(dp397
S'objective'
p398
I5
sS'query_time'
p399
F0.0064580440521240234
sS'comp_time'
p400
F4.100799560546875e-05
sS'exec_cq'
p401
I1
sS'total_cq'
p402
I5
sasS'total_cqs'
p403
I5
ssI42
(dp404
S'iters'
p405
I1
sS'meta'
p406
(lp407
(dp408
S'objective'
p409
I0
sS'query_time'
p410
F40.212761878967285
sS'comp_time'
p411
F0.00010895729064941406
sS'exec_cq'
p412
I2
sS'total_cq'
p413
I3
sasS'total_cqs'
p414
I3
ssI43
(dp415
S'iters'
p416
I1
sS'meta'
p417
(lp418
(dp419
S'objective'
p420
I5
sS'query_time'
p421
F0.42531299591064453
sS'comp_time'
p422
F8.416175842285156e-05
sS'exec_cq'
p423
I1
sS'total_cq'
p424
I5
sasS'total_cqs'
p425
I5
ssI44
(dp426
S'iters'
p427
I1
sS'meta'
p428
(lp429
(dp430
S'objective'
p431
I35
sS'query_time'
p432
F20.00446391105652
sS'comp_time'
p433
F6.604194641113281e-05
sS'exec_cq'
p434
I1
sS'total_cq'
p435
I10
sasS'total_cqs'
p436
I10
ssI45
(dp437
S'iters'
p438
I0
sS'meta'
p439
(lp440
sS'total_cqs'
p441
I1
ssI46
(dp442
S'iters'
p443
I1
sS'meta'
p444
(lp445
(dp446
S'objective'
p447
I1
sS'query_time'
p448
F0.7069878578186035
sS'comp_time'
p449
F0.0001049041748046875
sS'exec_cq'
p450
I1
sS'total_cq'
p451
I2
sasS'total_cqs'
p452
I2
ssI47
(dp453
S'iters'
p454
I0
sS'meta'
p455
(lp456
sS'total_cqs'
p457
I1
ssI48
(dp458
S'iters'
p459
I0
sS'meta'
p460
(lp461
sS'total_cqs'
p462
I1
ssI49
(dp463
S'iters'
p464
I2
sS'meta'
p465
(lp466
(dp467
S'objective'
p468
I4
sS'query_time'
p469
F25.424784898757935
sS'comp_time'
p470
F4.410743713378906e-05
sS'exec_cq'
p471
I1
sS'total_cq'
p472
I3
sa(dp473
g468
I1
sg469
F20.068317890167236
sg470
F7.414817810058594e-05
sg471
I2
sg472
I2
sasS'total_cqs'
p474
I3
ssI50
(dp475
S'iters'
p476
I1
sS'meta'
p477
(lp478
(dp479
S'objective'
p480
I54
sS'query_time'
p481
F0.012480020523071289
sS'comp_time'
p482
F5.888938903808594e-05
sS'exec_cq'
p483
I1
sS'total_cq'
p484
I12
sasS'total_cqs'
p485
I12
ssI51
(dp486
S'iters'
p487
I1
sS'meta'
p488
(lp489
(dp490
S'objective'
p491
I54
sS'query_time'
p492
F0.01767897605895996
sS'comp_time'
p493
F6.604194641113281e-05
sS'exec_cq'
p494
I1
sS'total_cq'
p495
I12
sasS'total_cqs'
p496
I12
ssI52
(dp497
S'iters'
p498
I1
sS'meta'
p499
(lp500
(dp501
S'objective'
p502
I54
sS'query_time'
p503
F0.14380812644958496
sS'comp_time'
p504
F8.511543273925781e-05
sS'exec_cq'
p505
I1
sS'total_cq'
p506
I12
sasS'total_cqs'
p507
I12
ssI53
(dp508
S'iters'
p509
I14
sS'meta'
p510
(lp511
(dp512
S'objective'
p513
I4
sS'query_time'
p514
F20.023200035095215
sS'comp_time'
p515
F9.512901306152344e-05
sS'exec_cq'
p516
I1
sS'total_cq'
p517
I3
sa(dp518
g513
I5
sg514
F40.019596099853516
sg515
F5.602836608886719e-05
sg516
I2
sg517
I2
sa(dp519
g513
I5
sg514
F0.011322021484375
sg515
F4.410743713378906e-05
sg516
I2
sg517
I2
sa(dp520
g513
I5
sg514
F0.04470515251159668
sg515
F0.00010800361633300781
sg516
I2
sg517
I2
sa(dp521
g513
I5
sg514
F0.03505301475524902
sg515
F0.00011396408081054688
sg516
I2
sg517
I2
sa(dp522
g513
I5
sg514
F0.07131600379943848
sg515
F0.0001220703125
sg516
I2
sg517
I2
sa(dp523
g513
I5
sg514
F0.0908210277557373
sg515
F0.0001239776611328125
sg516
I2
sg517
I2
sa(dp524
g513
I5
sg514
F0.10386800765991211
sg515
F9.202957153320312e-05
sg516
I2
sg517
I2
sa(dp525
g513
I5
sg514
F0.10870981216430664
sg515
F0.00011992454528808594
sg516
I2
sg517
I2
sa(dp526
g513
I5
sg514
F0.18468689918518066
sg515
F0.0001220703125
sg516
I2
sg517
I2
sa(dp527
g513
I5
sg514
F0.2012338638305664
sg515
F0.0001220703125
sg516
I2
sg517
I2
sa(dp528
g513
I5
sg514
F0.32845282554626465
sg515
F0.00011992454528808594
sg516
I2
sg517
I2
sa(dp529
g513
I5
sg514
F0.25885915756225586
sg515
F0.0001220703125
sg516
I2
sg517
I2
sa(dp530
g513
I1
sg514
F0.2720351219177246
sg515
F0.00012111663818359375
sg516
I1
sg517
I2
sasS'total_cqs'
p531
I3
ssI54
(dp532
S'iters'
p533
I1
sS'meta'
p534
(lp535
(dp536
S'objective'
p537
I5
sS'query_time'
p538
F2.2437071800231934
sS'comp_time'
p539
F6.604194641113281e-05
sS'exec_cq'
p540
I1
sS'total_cq'
p541
I5
sasS'total_cqs'
p542
I5
ssI55
(dp543
S'iters'
p544
I2
sS'meta'
p545
(lp546
(dp547
S'objective'
p548
I27
sS'query_time'
p549
F0.2869689464569092
sS'comp_time'
p550
F0.00010800361633300781
sS'exec_cq'
p551
I1
sS'total_cq'
p552
I10
sa(dp553
g548
I6
sg549
F3.905951976776123
sg550
F0.0012738704681396484
sg551
I2
sg552
I2
sasS'total_cqs'
p554
I10
ssI56
(dp555
S'iters'
p556
I1
sS'meta'
p557
(lp558
(dp559
S'objective'
p560
I9
sS'query_time'
p561
F2.990225076675415
sS'comp_time'
p562
F8.58306884765625e-05
sS'exec_cq'
p563
I1
sS'total_cq'
p564
I6
sasS'total_cqs'
p565
I6
ssI57
(dp566
S'iters'
p567
I1
sS'meta'
p568
(lp569
(dp570
S'objective'
p571
I324
sS'query_time'
p572
F0.2216808795928955
sS'comp_time'
p573
F8.511543273925781e-05
sS'exec_cq'
p574
I1
sS'total_cq'
p575
I27
sasS'total_cqs'
p576
I27
ssI58
(dp577
S'iters'
p578
I1
sS'meta'
p579
(lp580
(dp581
S'objective'
p582
I35
sS'query_time'
p583
F3.363029956817627
sS'comp_time'
p584
F7.414817810058594e-05
sS'exec_cq'
p585
I1
sS'total_cq'
p586
I10
sasS'total_cqs'
p587
I10
ssI59
(dp588
S'iters'
p589
I1
sS'meta'
p590
(lp591
(dp592
S'objective'
p593
I1652
sS'query_time'
p594
F3.0180020332336426
sS'comp_time'
p595
F9.608268737792969e-05
sS'exec_cq'
p596
I1
sS'total_cq'
p597
I59
sasS'total_cqs'
p598
I59
ssI60
(dp599
S'iters'
p600
I1
sS'meta'
p601
(lp602
(dp603
S'objective'
p604
I90
sS'query_time'
p605
F2.541703939437866
sS'comp_time'
p606
F9.298324584960938e-05
sS'exec_cq'
p607
I1
sS'total_cq'
p608
I15
sasS'total_cqs'
p609
I15
ssI61
(dp610
S'iters'
p611
I1
sS'meta'
p612
(lp613
(dp614
S'objective'
p615
I119
sS'query_time'
p616
F2.5359151363372803
sS'comp_time'
p617
F0.00010204315185546875
sS'exec_cq'
p618
I1
sS'total_cq'
p619
I17
sasS'total_cqs'
p620
I17
ssI62
(dp621
S'iters'
p622
I1
sS'meta'
p623
(lp624
(dp625
S'objective'
p626
I12245
sS'query_time'
p627
F2.7587709426879883
sS'comp_time'
p628
F0.0002410411834716797
sS'exec_cq'
p629
I1
sS'total_cq'
p630
I158
sasS'total_cqs'
p631
I158
ssI63
(dp632
S'iters'
p633
I1
sS'meta'
p634
(lp635
(dp636
S'objective'
p637
I2849
sS'query_time'
p638
F2.5278549194335938
sS'comp_time'
p639
F0.00012302398681640625
sS'exec_cq'
p640
I1
sS'total_cq'
p641
I77
sasS'total_cqs'
p642
I77
ssI64
(dp643
S'iters'
p644
I1
sS'meta'
p645
(lp646
(dp647
S'objective'
p648
I8910
sS'query_time'
p649
F1.717616081237793
sS'comp_time'
p650
F0.00014591217041015625
sS'exec_cq'
p651
I1
sS'total_cq'
p652
I135
sasS'total_cqs'
p653
I135
ssI65
(dp654
S'iters'
p655
I1
sS'meta'
p656
(lp657
(dp658
S'objective'
p659
I299
sS'query_time'
p660
F0.9381170272827148
sS'comp_time'
p661
F8.511543273925781e-05
sS'exec_cq'
p662
I1
sS'total_cq'
p663
I26
sasS'total_cqs'
p664
I26
ssI66
(dp665
S'iters'
p666
I1
sS'meta'
p667
(lp668
(dp669
S'objective'
p670
I275
sS'query_time'
p671
F0.15804600715637207
sS'comp_time'
p672
F0.00010991096496582031
sS'exec_cq'
p673
I1
sS'total_cq'
p674
I25
sasS'total_cqs'
p675
I25
ssI67
(dp676
S'iters'
p677
I1
sS'meta'
p678
(lp679
(dp680
S'objective'
p681
I275
sS'query_time'
p682
F0.04523205757141113
sS'comp_time'
p683
F5.3882598876953125e-05
sS'exec_cq'
p684
I1
sS'total_cq'
p685
I25
sasS'total_cqs'
p686
I25
ssI68
(dp687
S'iters'
p688
I1
sS'meta'
p689
(lp690
(dp691
S'objective'
p692
I2555
sS'query_time'
p693
F0.03320884704589844
sS'comp_time'
p694
F7.891654968261719e-05
sS'exec_cq'
p695
I1
sS'total_cq'
p696
I73
sasS'total_cqs'
p697
I73
ssI69
(dp698
S'iters'
p699
I1
sS'meta'
p700
(lp701
(dp702
S'objective'
p703
I2484
sS'query_time'
p704
F0.02158808708190918
sS'comp_time'
p705
F6.508827209472656e-05
sS'exec_cq'
p706
I1
sS'total_cq'
p707
I72
sasS'total_cqs'
p708
I72
ssI70
(dp709
S'iters'
p710
I1
sS'meta'
p711
(lp712
(dp713
S'objective'
p714
I5777
sS'query_time'
p715
F3.8956289291381836
sS'comp_time'
p716
F0.00016999244689941406
sS'exec_cq'
p717
I1
sS'total_cq'
p718
I109
sasS'total_cqs'
p719
I109
ssI71
(dp720
S'iters'
p721
I1
sS'meta'
p722
(lp723
(dp724
S'objective'
p725
I160460
sS'query_time'
p726
F7.9858880043029785
sS'comp_time'
p727
F0.00041413307189941406
sS'exec_cq'
p728
I1
sS'total_cq'
p729
I568
sasS'total_cqs'
p730
I568
ssI72
(dp731
S'iters'
p732
I1
sS'meta'
p733
(lp734
(dp735
S'objective'
p736
I7625
sS'query_time'
p737
F9.278382062911987
sS'comp_time'
p738
F0.00014209747314453125
sS'exec_cq'
p739
I1
sS'total_cq'
p740
I125
sasS'total_cqs'
p741
I125
ssI73
(dp742
S'iters'
p743
I1
sS'meta'
p744
(lp745
(dp746
S'objective'
p747
I7625
sS'query_time'
p748
F0.2364509105682373
sS'comp_time'
p749
F0.00020003318786621094
sS'exec_cq'
p750
I1
sS'total_cq'
p751
I125
sasS'total_cqs'
p752
I125
ssI138
(dp753
S'iters'
p754
I1
sS'meta'
p755
(lp756
(dp757
S'objective'
p758
I2700
sS'query_time'
p759
F0.032171010971069336
sS'comp_time'
p760
F0.00011491775512695312
sS'exec_cq'
p761
I1
sS'total_cq'
p762
I75
sasS'total_cqs'
p763
I75
ssI141
(dp764
S'iters'
p765
I1
sS'meta'
p766
(lp767
(dp768
S'objective'
p769
I72770
sS'query_time'
p770
F0.22493410110473633
sS'comp_time'
p771
F0.0002560615539550781
sS'exec_cq'
p772
I1
sS'total_cq'
p773
I383
sasS'total_cqs'
p774
I383
ssI139
(dp775
S'iters'
p776
I1
sS'meta'
p777
(lp778
(dp779
S'objective'
p780
I89675
sS'query_time'
p781
F0.11567902565002441
sS'comp_time'
p782
F0.0003409385681152344
sS'exec_cq'
p783
I1
sS'total_cq'
p784
I425
sasS'total_cqs'
p785
I425
ssI142
(dp786
S'iters'
p787
I1
sS'meta'
p788
(lp789
(dp790
S'objective'
p791
I0
sS'query_time'
p792
F41.36739206314087
sS'comp_time'
p793
F6.890296936035156e-05
sS'exec_cq'
p794
I2
sS'total_cq'
p795
I3
sasS'total_cqs'
p796
I3
ssI135
(dp797
S'iters'
p798
I1
sS'meta'
p799
(lp800
(dp801
S'objective'
p802
I14
sS'query_time'
p803
F2.61688494682312
sS'comp_time'
p804
F8.296966552734375e-05
sS'exec_cq'
p805
I1
sS'total_cq'
p806
I7
sasS'total_cqs'
p807
I7
ssI37
(dp808
S'iters'
p809
I1
sS'meta'
p810
(lp811
(dp812
S'objective'
p813
I104
sS'query_time'
p814
F0.011408090591430664
sS'comp_time'
p815
F6.699562072753906e-05
sS'exec_cq'
p816
I1
sS'total_cq'
p817
I16
sasS'total_cqs'
p818
I16
ssI133
(dp819
S'iters'
p820
I1
sS'meta'
p821
(lp822
(dp823
S'objective'
p824
I1
sS'query_time'
p825
F21.329985857009888
sS'comp_time'
p826
F7.295608520507812e-05
sS'exec_cq'
p827
I1
sS'total_cq'
p828
I2
sasS'total_cqs'
p829
I2
ssI140
(dp830
S'iters'
p831
I0
sS'meta'
p832
(lp833
sS'total_cqs'
p834
I1
ssI137
(dp835
S'iters'
p836
I1
sS'meta'
p837
(lp838
(dp839
S'objective'
p840
I79400
sS'query_time'
p841
F0.09924983978271484
sS'comp_time'
p842
F0.0003662109375
sS'exec_cq'
p843
I1
sS'total_cq'
p844
I400
sasS'total_cqs'
p845
I400
ssI136
(dp846
S'iters'
p847
I1
sS'meta'
p848
(lp849
(dp850
S'objective'
p851
I1539
sS'query_time'
p852
F0.022309064865112305
sS'comp_time'
p853
F7.796287536621094e-05
sS'exec_cq'
p854
I1
sS'total_cq'
p855
I57
sasS'total_cqs'
p856
I57
ss.