(dp0
I1
(dp1
S'iters'
p2
I1
sS'meta'
p3
(lp4
(dp5
S'objective'
p6
I2
sS'query_time'
p7
F20.028077840805054
sS'comp_time'
p8
F0.0076711177825927734
sS'exec_cq'
p9
I4
sS'total_cq'
p10
I4
sasS'total_cqs'
p11
I4
ssI2
(dp12
S'iters'
p13
I1
sS'meta'
p14
(lp15
(dp16
S'objective'
p17
I2
sS'query_time'
p18
F0.08939218521118164
sS'comp_time'
p19
F0.0004971027374267578
sS'exec_cq'
p20
I4
sS'total_cq'
p21
I4
sasS'total_cqs'
p22
I4
ssI5
(dp23
S'iters'
p24
I8
sS'meta'
p25
(lp26
(dp27
S'objective'
p28
I771
sS'query_time'
p29
F29.996845960617065
sS'comp_time'
p30
F1.5544049739837646
sS'exec_cq'
p31
I54
sS'total_cq'
p32
I54
sa(dp33
g28
I1062
sg29
F0.0007359981536865234
sg30
F0.007137775421142578
sg31
I39
sg32
I39
sa(dp34
g28
I1043
sg29
F0.00041103363037109375
sg30
F1.6906590461730957
sg31
I38
sg32
I38
sa(dp35
g28
I1027
sg29
F0.0005719661712646484
sg30
F0.01881885528564453
sg31
I37
sg32
I37
sa(dp36
g28
I1008
sg29
F0.0005371570587158203
sg30
F0.017814159393310547
sg31
I36
sg32
I36
sa(dp37
g28
I990
sg29
F0.0004909038543701172
sg30
F0.010600805282592773
sg31
I35
sg32
I35
sa(dp38
g28
I985
sg29
F0.00024700164794921875
sg30
F0.006027936935424805
sg31
I34
sg32
I34
sa(dp39
g28
I889
sg29
F0.00604701042175293
sg30
F0.00494694709777832
sg31
I33
sg32
I33
sasS'total_cqs'
p40
I54
ssI6
(dp41
S'iters'
p42
I1
sS'meta'
p43
(lp44
(dp45
S'objective'
p46
I2
sS'query_time'
p47
F20.42528200149536
sS'comp_time'
p48
F0.0061719417572021484
sS'exec_cq'
p49
I4
sS'total_cq'
p50
I4
sasS'total_cqs'
p51
I4
ssI135
(dp52
S'iters'
p53
I2
sS'meta'
p54
(lp55
(dp56
S'objective'
p57
I4
sS'query_time'
p58
F28.70493793487549
sS'comp_time'
p59
F0.8597731590270996
sS'exec_cq'
p60
I7
sS'total_cq'
p61
I7
sa(dp62
g57
I2
sg58
F0.15245389938354492
sg59
F0.6289889812469482
sg60
I2
sg61
I2
sasS'total_cqs'
p63
I7
ssI136
(dp64
S'iters'
p65
I2
sS'meta'
p66
(lp67
(dp68
S'objective'
p69
I291
sS'query_time'
p70
F23.98716402053833
sS'comp_time'
p71
F0.000762939453125
sS'exec_cq'
p72
I57
sS'total_cq'
p73
I57
sa(dp74
g69
I858
sg70
F0.00016689300537109375
sg71
F0.00029277801513671875
sg72
I35
sg73
I35
sasS'total_cqs'
p75
I57
ssI9
(dp76
S'iters'
p77
I1
sS'meta'
p78
(lp79
(dp80
S'objective'
p81
I0
sS'query_time'
p82
F30.048298835754395
sS'comp_time'
p83
F0.054757118225097656
sS'exec_cq'
p84
I3
sS'total_cq'
p85
I3
sasS'total_cqs'
p86
I3
ssI10
(dp87
S'iters'
p88
I1
sS'meta'
p89
(lp90
(dp91
S'objective'
p92
I2
sS'query_time'
p93
F9.33626103401184
sS'comp_time'
p94
F0.014662027359008789
sS'exec_cq'
p95
I4
sS'total_cq'
p96
I4
sasS'total_cqs'
p97
I4
ssI11
(dp98
S'iters'
p99
I1
sS'meta'
p100
(lp101
(dp102
S'objective'
p103
I14
sS'query_time'
p104
F20.02944016456604
sS'comp_time'
p105
F0.0010459423065185547
sS'exec_cq'
p106
I7
sS'total_cq'
p107
I7
sasS'total_cqs'
p108
I7
ssI12
(dp109
S'iters'
p110
I2
sS'meta'
p111
(lp112
(dp113
S'objective'
p114
I6
sS'query_time'
p115
F20.135898113250732
sS'comp_time'
p116
F0.008577823638916016
sS'exec_cq'
p117
I7
sS'total_cq'
p118
I7
sa(dp119
g114
I3
sg115
F8.606910705566406e-05
sg116
F0.0018968582153320312
sg117
I5
sg118
I5
sasS'total_cqs'
p120
I7
ssI141
(dp121
S'iters'
p122
I9
sS'meta'
p123
(lp124
(dp125
S'objective'
p126
I62212
sS'query_time'
p127
F37.52574610710144
sS'comp_time'
p128
F1.0232598781585693
sS'exec_cq'
p129
I383
sS'total_cq'
p130
I383
sa(dp131
g126
I56892
sg127
F0.008080005645751953
sg128
F0.9584081172943115
sg129
I354
sg130
I354
sa(dp132
g126
I54507
sg127
F0.006906986236572266
sg128
F0.9654638767242432
sg129
I325
sg130
I325
sa(dp133
g126
I56111
sg127
F0.006316184997558594
sg128
F0.18259811401367188
sg129
I301
sg130
I301
sa(dp134
g126
I53518
sg127
F0.005975961685180664
sg128
F0.07411789894104004
sg129
I297
sg130
I297
sa(dp135
g126
I51986
sg127
F0.006767988204956055
sg128
F0.06730294227600098
sg129
I288
sg130
I288
sa(dp136
g126
I52000
sg127
F0.005424022674560547
sg128
F0.05270695686340332
sg129
I281
sg130
I281
sa(dp137
g126
I42066
sg127
F0.0013659000396728516
sg128
F0.25753116607666016
sg129
I275
sg130
I275
sa(dp138
g126
I46690
sg127
F0.0010859966278076172
sg128
F0.04218006134033203
sg129
I250
sg130
I250
sasS'total_cqs'
p139
I383
ssI14
(dp140
S'iters'
p141
I3
sS'meta'
p142
(lp143
(dp144
S'objective'
p145
I159
sS'query_time'
p146
F29.891807079315186
sS'comp_time'
p147
F1.002920150756836
sS'exec_cq'
p148
I25
sS'total_cq'
p149
I25
sa(dp150
g145
I172
sg146
F0.029292821884155273
sg147
F0.35585689544677734
sg148
I19
sg149
I19
sa(dp151
g145
I157
sg146
F0.02241206169128418
sg147
F0.21741700172424316
sg148
I17
sg149
I17
sasS'total_cqs'
p152
I25
ssI15
(dp153
S'iters'
p154
I2
sS'meta'
p155
(lp156
(dp157
S'objective'
p158
I43
sS'query_time'
p159
F23.059345960617065
sS'comp_time'
p160
F0.13898396492004395
sS'exec_cq'
p161
I13
sS'total_cq'
p162
I13
sa(dp163
g158
I41
sg159
F0.05591583251953125
sg160
F0.08735013008117676
sg161
I9
sg162
I9
sasS'total_cqs'
p164
I13
ssI16
(dp165
S'iters'
p166
I3
sS'meta'
p167
(lp168
(dp169
S'objective'
p170
I107
sS'query_time'
p171
F30.483202934265137
sS'comp_time'
p172
F0.7021417617797852
sS'exec_cq'
p173
I17
sS'total_cq'
p174
I17
sa(dp175
g170
I58
sg171
F0.4928281307220459
sg172
F0.0477299690246582
sg173
I15
sg174
I15
sa(dp176
g170
I2
sg171
F0.431041955947876
sg172
F0.044866323471069336
sg173
I3
sg174
I3
sasS'total_cqs'
p177
I17
ssI17
(dp178
S'iters'
p179
I2
sS'meta'
p180
(lp181
(dp182
S'objective'
p183
I94
sS'query_time'
p184
F24.301491022109985
sS'comp_time'
p185
F1.296832799911499
sS'exec_cq'
p186
I16
sS'total_cq'
p187
I16
sa(dp188
g183
I11
sg184
F0.20197296142578125
sg185
F0.02204585075378418
sg186
I2
sg187
I2
sasS'total_cqs'
p189
I16
ssI18
(dp190
S'iters'
p191
I3
sS'meta'
p192
(lp193
(dp194
S'objective'
p195
I136
sS'query_time'
p196
F22.423614978790283
sS'comp_time'
p197
F3.622523069381714
sS'exec_cq'
p198
I20
sS'total_cq'
p199
I20
sa(dp200
g195
I109
sg196
F3.3034260272979736
sg197
F3.181152105331421
sg198
I17
sg199
I17
sa(dp201
g195
I8
sg196
F0.10576796531677246
sg197
F0.0031659603118896484
sg198
I2
sg199
I2
sasS'total_cqs'
p202
I20
ssI19
(dp203
S'iters'
p204
I4
sS'meta'
p205
(lp206
(dp207
S'objective'
p208
I3212
sS'query_time'
p209
F28.15498399734497
sS'comp_time'
p210
F0.7466142177581787
sS'exec_cq'
p211
I88
sS'total_cq'
p212
I88
sa(dp213
g208
I3436
sg209
F0.00033593177795410156
sg210
F5.121150016784668
sg211
I83
sg212
I83
sa(dp214
g208
I3308
sg209
F2.737889051437378
sg210
F2.535924196243286
sg211
I82
sg212
I82
sa(dp215
g208
I80
sg209
F0.1519780158996582
sg210
F0.008050203323364258
sg211
I2
sg212
I2
sasS'total_cqs'
p216
I88
ssI134
(dp217
S'iters'
p218
I1
sS'meta'
p219
(lp220
(dp221
S'objective'
p222
I1
sS'query_time'
p223
F20.75175189971924
sS'comp_time'
p224
F0.9522109031677246
sS'exec_cq'
p225
I2
sS'total_cq'
p226
I2
sasS'total_cqs'
p227
I2
ssI21
(dp228
S'iters'
p229
I1
sS'meta'
p230
(lp231
(dp232
S'objective'
p233
I5
sS'query_time'
p234
F20.179364919662476
sS'comp_time'
p235
F0.025599956512451172
sS'exec_cq'
p236
I5
sS'total_cq'
p237
I5
sasS'total_cqs'
p238
I5
ssI22
(dp239
S'iters'
p240
I1
sS'meta'
p241
(lp242
(dp243
S'objective'
p244
I0
sS'query_time'
p245
F30.29875898361206
sS'comp_time'
p246
F0.8771960735321045
sS'exec_cq'
p247
I3
sS'total_cq'
p248
I3
sasS'total_cqs'
p249
I3
ssI24
(dp250
S'iters'
p251
I1
sS'meta'
p252
(lp253
(dp254
S'objective'
p255
I0
sS'query_time'
p256
F19.03191089630127
sS'comp_time'
p257
F0.005226850509643555
sS'exec_cq'
p258
I3
sS'total_cq'
p259
I3
sasS'total_cqs'
p260
I3
ssI25
(dp261
S'iters'
p262
I1
sS'meta'
p263
(lp264
(dp265
S'objective'
p266
I0
sS'query_time'
p267
F19.017083883285522
sS'comp_time'
p268
F0.0008180141448974609
sS'exec_cq'
p269
I3
sS'total_cq'
p270
I3
sasS'total_cqs'
p271
I3
ssI29
(dp272
S'iters'
p273
I1
sS'meta'
p274
(lp275
(dp276
S'objective'
p277
I14
sS'query_time'
p278
F20.039574146270752
sS'comp_time'
p279
F0.0011210441589355469
sS'exec_cq'
p280
I7
sS'total_cq'
p281
I7
sasS'total_cqs'
p282
I7
ssI30
(dp283
S'iters'
p284
I1
sS'meta'
p285
(lp286
(dp287
S'objective'
p288
I14
sS'query_time'
p289
F20.1493079662323
sS'comp_time'
p290
F0.004369974136352539
sS'exec_cq'
p291
I7
sS'total_cq'
p292
I7
sasS'total_cqs'
p293
I7
ssI31
(dp294
S'iters'
p295
I3
sS'meta'
p296
(lp297
(dp298
S'objective'
p299
I31
sS'query_time'
p300
F6.17782187461853
sS'comp_time'
p301
F0.006328105926513672
sS'exec_cq'
p302
I10
sS'total_cq'
p303
I10
sa(dp304
g299
I21
sg300
F0.0002448558807373047
sg301
F0.0013272762298583984
sg302
I8
sg303
I8
sa(dp305
g299
I9
sg300
F0.00018906593322753906
sg301
F0.0014591217041015625
sg302
I2
sg303
I2
sasS'total_cqs'
p306
I10
ssI32
(dp307
S'iters'
p308
I2
sS'meta'
p309
(lp310
(dp311
S'objective'
p312
I27
sS'query_time'
p313
F3.0361251831054688
sS'comp_time'
p314
F0.016746044158935547
sS'exec_cq'
p315
I10
sS'total_cq'
p316
I10
sa(dp317
g312
I6
sg313
F0.0018188953399658203
sg314
F0.009932756423950195
sg315
I2
sg316
I2
sasS'total_cqs'
p318
I10
ssI33
(dp319
S'iters'
p320
I2
sS'meta'
p321
(lp322
(dp323
S'objective'
p324
I2
sS'query_time'
p325
F3.0584850311279297
sS'comp_time'
p326
F0.003007173538208008
sS'exec_cq'
p327
I11
sS'total_cq'
p328
I11
sa(dp329
g324
I10
sg325
F0.0003979206085205078
sg326
F0.002237081527709961
sg327
I4
sg328
I4
sasS'total_cqs'
p330
I11
ssI34
(dp331
S'iters'
p332
I3
sS'meta'
p333
(lp334
(dp335
S'objective'
p336
I1393
sS'query_time'
p337
F43.31272101402283
sS'comp_time'
p338
F1.1372668743133545
sS'exec_cq'
p339
I70
sS'total_cq'
p340
I70
sa(dp341
g336
I1097
sg337
F0.0033409595489501953
sg338
F7.689283132553101
sg339
I56
sg340
I56
sa(dp342
g336
I1378
sg337
F0.0033028125762939453
sg338
F0.02587103843688965
sg339
I45
sg340
I45
sasS'total_cqs'
p343
I70
ssI35
(dp344
S'iters'
p345
I4
sS'meta'
p346
(lp347
(dp348
S'objective'
p349
I1585
sS'query_time'
p350
F42.91832995414734
sS'comp_time'
p351
F1.3254659175872803
sS'exec_cq'
p352
I70
sS'total_cq'
p353
I70
sa(dp354
g349
I1029
sg350
F0.43595409393310547
sg351
F1.3074121475219727
sg352
I59
sg353
I59
sa(dp355
g349
I900
sg350
F0.012252092361450195
sg351
F0.2770969867706299
sg352
I43
sg353
I43
sa(dp356
g349
I1076
sg350
F0.011085987091064453
sg351
F0.18132996559143066
sg352
I33
sg353
I33
sasS'total_cqs'
p357
I70
ssI36
(dp358
S'iters'
p359
I2
sS'meta'
p360
(lp361
(dp362
S'objective'
p363
I35
sS'query_time'
p364
F18.931368112564087
sS'comp_time'
p365
F0.00028586387634277344
sS'exec_cq'
p366
I17
sS'total_cq'
p367
I17
sa(dp368
g363
I25
sg364
F5.412101745605469e-05
sg365
F0.0001220703125
sg366
I5
sg367
I5
sasS'total_cqs'
p369
I17
ssI37
(dp370
S'iters'
p371
I2
sS'meta'
p372
(lp373
(dp374
S'objective'
p375
I62
sS'query_time'
p376
F19.461014986038208
sS'comp_time'
p377
F0.0005159378051757812
sS'exec_cq'
p378
I16
sS'total_cq'
p379
I16
sa(dp380
g375
I5
sg376
F4.887580871582031e-05
sg377
F0.00019621849060058594
sg378
I3
sg379
I3
sasS'total_cqs'
p381
I16
ssI38
(dp382
S'iters'
p383
I4
sS'meta'
p384
(lp385
(dp386
S'objective'
p387
I1044
sS'query_time'
p388
F39.92036414146423
sS'comp_time'
p389
F0.7577342987060547
sS'exec_cq'
p390
I59
sS'total_cq'
p391
I59
sa(dp392
g387
I837
sg388
F0.23689508438110352
sg389
F0.6936309337615967
sg390
I49
sg391
I49
sa(dp393
g387
I560
sg388
F0.2188260555267334
sg389
F0.6378920078277588
sg390
I41
sg391
I41
sa(dp394
g387
I723
sg388
F0.0018358230590820312
sg389
F0.007341146469116211
sg390
I31
sg391
I31
sasS'total_cqs'
p395
I59
ssI39
(dp396
S'iters'
p397
I4
sS'meta'
p398
(lp399
(dp400
S'objective'
p401
I2352
sS'query_time'
p402
F29.976059913635254
sS'comp_time'
p403
F0.10486817359924316
sS'exec_cq'
p404
I79
sS'total_cq'
p405
I79
sa(dp406
g401
I1318
sg402
F0.0598750114440918
sg403
F0.220458984375
sg404
I69
sg405
I69
sa(dp407
g401
I1529
sg402
F0.00041604042053222656
sg403
F0.0051670074462890625
sg404
I53
sg405
I53
sa(dp408
g401
I1625
sg402
F0.0002040863037109375
sg403
F0.0019888877868652344
sg404
I43
sg405
I43
sasS'total_cqs'
p409
I79
ssI40
(dp410
S'iters'
p411
I4
sS'meta'
p412
(lp413
(dp414
S'objective'
p415
I2270
sS'query_time'
p416
F63.53881216049194
sS'comp_time'
p417
F0.07960891723632812
sS'exec_cq'
p418
I83
sS'total_cq'
p419
I83
sa(dp420
g415
I1086
sg416
F0.07358193397521973
sg417
F0.1390678882598877
sg418
I71
sg419
I71
sa(dp421
g415
I1186
sg416
F0.0004889965057373047
sg417
F0.0052661895751953125
sg418
I48
sg419
I48
sa(dp422
g415
I1418
sg416
F0.00022912025451660156
sg417
F0.0007958412170410156
sg418
I37
sg419
I37
sasS'total_cqs'
p423
I83
ssI41
(dp424
S'iters'
p425
I1
sS'meta'
p426
(lp427
(dp428
S'objective'
p429
I5
sS'query_time'
p430
F20.83644390106201
sS'comp_time'
p431
F0.009074926376342773
sS'exec_cq'
p432
I5
sS'total_cq'
p433
I5
sasS'total_cqs'
p434
I5
ssI42
(dp435
S'iters'
p436
I1
sS'meta'
p437
(lp438
(dp439
S'objective'
p440
I0
sS'query_time'
p441
F39.77355217933655
sS'comp_time'
p442
F0.029722929000854492
sS'exec_cq'
p443
I3
sS'total_cq'
p444
I3
sasS'total_cqs'
p445
I3
ssI43
(dp446
S'iters'
p447
I1
sS'meta'
p448
(lp449
(dp450
S'objective'
p451
I5
sS'query_time'
p452
F0.6066210269927979
sS'comp_time'
p453
F0.028606176376342773
sS'exec_cq'
p454
I5
sS'total_cq'
p455
I5
sasS'total_cqs'
p456
I5
ssI44
(dp457
S'iters'
p458
I2
sS'meta'
p459
(lp460
(dp461
S'objective'
p462
I17
sS'query_time'
p463
F20.02691411972046
sS'comp_time'
p464
F0.023059844970703125
sS'exec_cq'
p465
I10
sS'total_cq'
p466
I10
sa(dp467
g462
I1
sg463
F0.002568960189819336
sg464
F0.019237995147705078
sg465
I2
sg466
I2
sasS'total_cqs'
p468
I10
ssI133
(dp469
S'iters'
p470
I1
sS'meta'
p471
(lp472
(dp473
S'objective'
p474
I1
sS'query_time'
p475
F21.228302001953125
sS'comp_time'
p476
F0.0019407272338867188
sS'exec_cq'
p477
I2
sS'total_cq'
p478
I2
sasS'total_cqs'
p479
I2
ssI46
(dp480
S'iters'
p481
I1
sS'meta'
p482
(lp483
(dp484
S'objective'
p485
I1
sS'query_time'
p486
F0.6958651542663574
sS'comp_time'
p487
F0.08111906051635742
sS'exec_cq'
p488
I2
sS'total_cq'
p489
I2
sasS'total_cqs'
p490
I2
ssI49
(dp491
S'iters'
p492
I2
sS'meta'
p493
(lp494
(dp495
S'objective'
p496
I2
sS'query_time'
p497
F30.2857928276062
sS'comp_time'
p498
F43.39354419708252
sS'exec_cq'
p499
I3
sS'total_cq'
p500
I3
sa(dp501
g496
I2
sg497
F0.012063026428222656
sg498
F0.9706850051879883
sg499
I2
sg500
I2
sasS'total_cqs'
p502
I3
ssI50
(dp503
S'iters'
p504
I2
sS'meta'
p505
(lp506
(dp507
S'objective'
p508
I36
sS'query_time'
p509
F20.266863107681274
sS'comp_time'
p510
F0.5664427280426025
sS'exec_cq'
p511
I12
sS'total_cq'
p512
I12
sa(dp513
g508
I33
sg509
F5.984306335449219e-05
sg510
F0.00015401840209960938
sg511
I9
sg512
I9
sasS'total_cqs'
p514
I12
ssI51
(dp515
S'iters'
p516
I2
sS'meta'
p517
(lp518
(dp519
S'objective'
p520
I32
sS'query_time'
p521
F21.277677059173584
sS'comp_time'
p522
F0.010711908340454102
sS'exec_cq'
p523
I12
sS'total_cq'
p524
I12
sa(dp525
g520
I1
sg521
F4.696846008300781e-05
sg522
F0.001352071762084961
sg523
I4
sg524
I4
sasS'total_cqs'
p526
I12
ssI52
(dp527
S'iters'
p528
I2
sS'meta'
p529
(lp530
(dp531
S'objective'
p532
I24
sS'query_time'
p533
F1.3858070373535156
sS'comp_time'
p534
F0.0007021427154541016
sS'exec_cq'
p535
I12
sS'total_cq'
p536
I12
sa(dp537
g532
I3
sg533
F9.799003601074219e-05
sg534
F0.0004620552062988281
sg535
I4
sg536
I4
sasS'total_cqs'
p538
I12
ssI53
(dp539
S'iters'
p540
I2
sS'meta'
p541
(lp542
(dp543
S'objective'
p544
I4
sS'query_time'
p545
F20.03387188911438
sS'comp_time'
p546
F0.02285313606262207
sS'exec_cq'
p547
I3
sS'total_cq'
p548
I3
sa(dp549
g544
I1
sg545
F22.811070919036865
sg546
F0.0016829967498779297
sg547
I2
sg548
I2
sasS'total_cqs'
p550
I3
ssI54
(dp551
S'iters'
p552
I1
sS'meta'
p553
(lp554
(dp555
S'objective'
p556
I5
sS'query_time'
p557
F21.818729162216187
sS'comp_time'
p558
F0.025840282440185547
sS'exec_cq'
p559
I5
sS'total_cq'
p560
I5
sasS'total_cqs'
p561
I5
ssI55
(dp562
S'iters'
p563
I2
sS'meta'
p564
(lp565
(dp566
S'objective'
p567
I21
sS'query_time'
p568
F37.59297704696655
sS'comp_time'
p569
F0.0296781063079834
sS'exec_cq'
p570
I10
sS'total_cq'
p571
I10
sa(dp572
g567
I3
sg568
F0.00539398193359375
sg569
F0.01941990852355957
sg570
I2
sg571
I2
sasS'total_cqs'
p573
I10
ssI56
(dp574
S'iters'
p575
I1
sS'meta'
p576
(lp577
(dp578
S'objective'
p579
I9
sS'query_time'
p580
F36.490033864974976
sS'comp_time'
p581
F0.7461481094360352
sS'exec_cq'
p582
I6
sS'total_cq'
p583
I6
sasS'total_cqs'
p584
I6
ssI57
(dp585
S'iters'
p586
I3
sS'meta'
p587
(lp588
(dp589
S'objective'
p590
I256
sS'query_time'
p591
F23.5328631401062
sS'comp_time'
p592
F0.1440720558166504
sS'exec_cq'
p593
I27
sS'total_cq'
p594
I27
sa(dp595
g590
I243
sg591
F0.038076162338256836
sg592
F0.09013772010803223
sg593
I23
sg594
I23
sa(dp596
g590
I226
sg591
F0.018126964569091797
sg592
F0.08828592300415039
sg593
I21
sg594
I21
sasS'total_cqs'
p597
I27
ssI58
(dp598
S'iters'
p599
I2
sS'meta'
p600
(lp601
(dp602
S'objective'
p603
I21
sS'query_time'
p604
F28.081412076950073
sS'comp_time'
p605
F0.20954084396362305
sS'exec_cq'
p606
I10
sS'total_cq'
p607
I10
sa(dp608
g603
I3
sg604
F0.021147966384887695
sg605
F0.13914179801940918
sg606
I2
sg607
I2
sasS'total_cqs'
p609
I10
ssI59
(dp610
S'iters'
p611
I4
sS'meta'
p612
(lp613
(dp614
S'objective'
p615
I1098
sS'query_time'
p616
F67.3487617969513
sS'comp_time'
p617
F3.9327750205993652
sS'exec_cq'
p618
I59
sS'total_cq'
p619
I59
sa(dp620
g615
I942
sg616
F0.6305530071258545
sg617
F3.298798084259033
sg618
I47
sg619
I47
sa(dp621
g615
I888
sg616
F0.36714887619018555
sg617
F1.8657848834991455
sg618
I37
sg619
I37
sa(dp622
g615
I920
sg616
F0.6195590496063232
sg617
F1.9415979385375977
sg618
I31
sg619
I31
sasS'total_cqs'
p623
I59
ssI60
(dp624
S'iters'
p625
I2
sS'meta'
p626
(lp627
(dp628
S'objective'
p629
I50
sS'query_time'
p630
F32.49474596977234
sS'comp_time'
p631
F0.21467804908752441
sS'exec_cq'
p632
I15
sS'total_cq'
p633
I15
sa(dp634
g629
I5
sg630
F6.008148193359375e-05
sg631
F0.0002720355987548828
sg632
I3
sg633
I3
sasS'total_cqs'
p635
I15
ssI61
(dp636
S'iters'
p637
I2
sS'meta'
p638
(lp639
(dp640
S'objective'
p641
I25
sS'query_time'
p642
F43.1000611782074
sS'comp_time'
p643
F0.04448509216308594
sS'exec_cq'
p644
I17
sS'total_cq'
p645
I17
sa(dp646
g641
I30
sg642
F5.793571472167969e-05
sg643
F0.00016689300537109375
sg644
I6
sg645
I6
sasS'total_cqs'
p647
I17
ssI62
(dp648
S'iters'
p649
I6
sS'meta'
p650
(lp651
(dp652
S'objective'
p653
I9089
sS'query_time'
p654
F41.67925810813904
sS'comp_time'
p655
F0.12635588645935059
sS'exec_cq'
p656
I158
sS'total_cq'
p657
I158
sa(dp658
g653
I7581
sg654
F0.0016779899597167969
sg655
F1.3826758861541748
sg656
I134
sg657
I134
sa(dp659
g653
I4509
sg654
F0.0012059211730957031
sg655
F3.9022748470306396
sg656
I114
sg657
I114
sa(dp660
g653
I6414
sg654
F0.0012969970703125
sg655
F0.013638973236083984
sg656
I83
sg657
I83
sa(dp661
g653
I6195
sg654
F0.0005240440368652344
sg655
F0.010102033615112305
sg656
I81
sg657
I81
sa(dp662
g653
I6099
sg654
F0.00044798851013183594
sg655
F0.010123968124389648
sg656
I79
sg657
I79
sasS'total_cqs'
p663
I158
ssI63
(dp664
S'iters'
p665
I3
sS'meta'
p666
(lp667
(dp668
S'objective'
p669
I2141
sS'query_time'
p670
F69.51864504814148
sS'comp_time'
p671
F0.05270099639892578
sS'exec_cq'
p672
I77
sS'total_cq'
p673
I77
sa(dp674
g669
I1942
sg670
F0.0014870166778564453
sg671
F0.5590958595275879
sg672
I67
sg673
I67
sa(dp675
g669
I2103
sg670
F0.0011889934539794922
sg671
F0.010619878768920898
sg672
I57
sg673
I57
sasS'total_cqs'
p676
I77
ssI64
(dp677
S'iters'
p678
I8
sS'meta'
p679
(lp680
(dp681
S'objective'
p682
I8020
sS'query_time'
p683
F111.2247679233551
sS'comp_time'
p684
F6.085613965988159
sS'exec_cq'
p685
I135
sS'total_cq'
p686
I135
sa(dp687
g682
I8156
sg683
F1.5793280601501465
sg684
F4.946002960205078
sg685
I129
sg686
I129
sa(dp688
g682
I8018
sg683
F0.5367069244384766
sg684
F2.6378908157348633
sg685
I126
sg686
I126
sa(dp689
g682
I7846
sg683
F0.6537320613861084
sg684
F2.409482002258301
sg685
I124
sg686
I124
sa(dp690
g682
I7732
sg683
F0.5700619220733643
sg684
F2.6563520431518555
sg685
I122
sg686
I122
sa(dp691
g682
I7599
sg683
F0.7124340534210205
sg684
F2.4600989818573
sg685
I120
sg686
I120
sa(dp692
g682
I7464
sg683
F0.6817131042480469
sg684
F2.4020469188690186
sg685
I118
sg686
I118
sa(dp693
g682
I7331
sg683
F0.6850249767303467
sg684
F2.4149169921875
sg685
I116
sg686
I116
sasS'total_cqs'
p694
I135
ssI65
(dp695
S'iters'
p696
I3
sS'meta'
p697
(lp698
(dp699
S'objective'
p700
I269
sS'query_time'
p701
F20.437565803527832
sS'comp_time'
p702
F0.08266472816467285
sS'exec_cq'
p703
I26
sS'total_cq'
p704
I26
sa(dp705
g700
I246
sg701
F0.0005130767822265625
sg702
F0.09360599517822266
sg703
I24
sg704
I24
sa(dp706
g700
I226
sg701
F0.00045800209045410156
sg702
F0.01384878158569336
sg703
I22
sg704
I22
sasS'total_cqs'
p707
I26
ssI66
(dp708
S'iters'
p709
I2
sS'meta'
p710
(lp711
(dp712
S'objective'
p713
I229
sS'query_time'
p714
F21.51655602455139
sS'comp_time'
p715
F0.16287016868591309
sS'exec_cq'
p716
I25
sS'total_cq'
p717
I25
sa(dp718
g713
I227
sg714
F0.0072290897369384766
sg715
F0.04400205612182617
sg716
I21
sg717
I21
sasS'total_cqs'
p719
I25
ssI67
(dp720
S'iters'
p721
I4
sS'meta'
p722
(lp723
(dp724
S'objective'
p725
I235
sS'query_time'
p726
F4.362029075622559
sS'comp_time'
p727
F0.20087289810180664
sS'exec_cq'
p728
I25
sS'total_cq'
p729
I25
sa(dp730
g725
I218
sg726
F0.02534008026123047
sg727
F0.1815948486328125
sg728
I23
sg729
I23
sa(dp731
g725
I189
sg726
F0.023303985595703125
sg727
F0.15612006187438965
sg728
I21
sg729
I21
sa(dp732
g725
I169
sg726
F0.0269010066986084
sg727
F0.1622180938720703
sg728
I19
sg729
I19
sasS'total_cqs'
p733
I25
ssI68
(dp734
S'iters'
p735
I5
sS'meta'
p736
(lp737
(dp738
S'objective'
p739
I1799
sS'query_time'
p740
F24.908847093582153
sS'comp_time'
p741
F0.0025870800018310547
sS'exec_cq'
p742
I73
sS'total_cq'
p743
I73
sa(dp744
g739
I1482
sg740
F0.0006279945373535156
sg741
F0.002264738082885742
sg742
I63
sg743
I63
sa(dp745
g739
I1114
sg740
F0.0005040168762207031
sg741
F0.0018978118896484375
sg742
I52
sg743
I52
sa(dp746
g739
I782
sg740
F0.0004000663757324219
sg741
F0.002034902572631836
sg742
I42
sg743
I42
sa(dp747
g739
I990
sg740
F0.00029587745666503906
sg741
F0.0012459754943847656
sg742
I32
sg743
I32
sasS'total_cqs'
p748
I73
ssI69
(dp749
S'iters'
p750
I5
sS'meta'
p751
(lp752
(dp753
S'objective'
p754
I1884
sS'query_time'
p755
F31.348827123641968
sS'comp_time'
p756
F0.010105133056640625
sS'exec_cq'
p757
I72
sS'total_cq'
p758
I72
sa(dp759
g754
I1574
sg755
F0.0008800029754638672
sg756
F0.00879216194152832
sg757
I62
sg758
I62
sa(dp760
g754
I1067
sg755
F0.00032806396484375
sg756
F0.011472940444946289
sg757
I51
sg758
I51
sa(dp761
g754
I695
sg755
F0.0002548694610595703
sg756
F0.006775856018066406
sg757
I39
sg758
I39
sa(dp762
g754
I949
sg755
F0.00018095970153808594
sg756
F0.0006680488586425781
sg757
I27
sg758
I27
sasS'total_cqs'
p763
I72
ssI70
(dp764
S'iters'
p765
I3
sS'meta'
p766
(lp767
(dp768
S'objective'
p769
I5565
sS'query_time'
p770
F93.20967698097229
sS'comp_time'
p771
F3.0859670639038086
sS'exec_cq'
p772
I109
sS'total_cq'
p773
I109
sa(dp774
g769
I5484
sg770
F0.29181599617004395
sg771
F2.26629900932312
sg772
I105
sg773
I105
sa(dp775
g769
I5414
sg770
F0.3127579689025879
sg771
F1.984576940536499
sg772
I102
sg773
I102
sasS'total_cqs'
p776
I109
ssI71
(dp777
S'iters'
p778
I14
sS'meta'
p779
(lp780
(dp781
S'objective'
p782
I157172
sS'query_time'
p783
F73.09943509101868
sS'comp_time'
p784
F6.351337909698486
sS'exec_cq'
p785
I568
sS'total_cq'
p786
I568
sa(dp787
g782
I155248
sg783
F0.85111403465271
sg784
F2.2840347290039062
sg785
I562
sg786
I562
sa(dp788
g782
I155366
sg783
F0.3746609687805176
sg784
F1.3135371208190918
sg785
I556
sg786
I556
sa(dp789
g782
I154417
sg783
F0.3225700855255127
sg784
F7.445008993148804
sg785
I554
sg786
I554
sa(dp790
g782
I153705
sg783
F0.34979796409606934
sg784
F1.2992401123046875
sg785
I550
sg786
I550
sa(dp791
g782
I152942
sg783
F0.44307899475097656
sg784
F4.478670835494995
sg785
I548
sg786
I548
sa(dp792
g782
I152178
sg783
F0.3415708541870117
sg784
F1.3199291229248047
sg785
I546
sg786
I546
sa(dp793
g782
I151416
sg783
F0.33594584465026855
sg784
F1.731837272644043
sg785
I544
sg786
I544
sa(dp794
g782
I150700
sg783
F0.3383359909057617
sg784
F4.217128038406372
sg785
I542
sg786
I542
sa(dp795
g782
I150158
sg783
F0.324368953704834
sg784
F3.8453259468078613
sg785
I540
sg786
I540
sa(dp796
g782
I149537
sg783
F0.3846909999847412
sg784
F3.9572930335998535
sg785
I538
sg786
I538
sa(dp797
g782
I148959
sg783
F0.3146190643310547
sg784
F1.2321839332580566
sg785
I536
sg786
I536
sa(dp798
g782
I148392
sg783
F0.31424999237060547
sg784
F1.229475975036621
sg785
I534
sg786
I534
sa(dp799
g782
I147842
sg783
F0.31299591064453125
sg784
F1.2523541450500488
sg785
I532
sg786
I532
sasS'total_cqs'
p800
I568
ssI72
(dp801
S'iters'
p802
I4
sS'meta'
p803
(lp804
(dp805
S'objective'
p806
I7525
sS'query_time'
p807
F21.033479928970337
sS'comp_time'
p808
F0.13772106170654297
sS'exec_cq'
p809
I125
sS'total_cq'
p810
I125
sa(dp811
g806
I7422
sg807
F0.005505084991455078
sg808
F0.09026026725769043
sg809
I123
sg810
I123
sa(dp812
g806
I7301
sg807
F0.005136966705322266
sg808
F0.12629008293151855
sg809
I121
sg810
I121
sa(dp813
g806
I7181
sg807
F0.0019490718841552734
sg808
F0.09575200080871582
sg809
I119
sg810
I119
sasS'total_cqs'
p814
I125
ssI73
(dp815
S'iters'
p816
I6
sS'meta'
p817
(lp818
(dp819
S'objective'
p820
I7475
sS'query_time'
p821
F25.374733924865723
sS'comp_time'
p822
F0.38980579376220703
sS'exec_cq'
p823
I125
sS'total_cq'
p824
I125
sa(dp825
g820
I7359
sg821
F0.09073209762573242
sg822
F0.3102748394012451
sg823
I123
sg824
I123
sa(dp826
g820
I6749
sg821
F0.0885322093963623
sg822
F0.38792920112609863
sg823
I121
sg824
I121
sa(dp827
g820
I6855
sg821
F0.11122012138366699
sg822
F0.3033590316772461
sg823
I117
sg824
I117
sa(dp828
g820
I6718
sg821
F0.08554720878601074
sg822
F0.43182992935180664
sg823
I115
sg824
I115
sa(dp829
g820
I6606
sg821
F0.045912981033325195
sg822
F0.4390289783477783
sg823
I113
sg824
I113
sasS'total_cqs'
p830
I125
ssI138
(dp831
S'iters'
p832
I3
sS'meta'
p833
(lp834
(dp835
S'objective'
p836
I1420
sS'query_time'
p837
F2.008476972579956
sS'comp_time'
p838
F0.0008251667022705078
sS'exec_cq'
p839
I75
sS'total_cq'
p840
I75
sa(dp841
g836
I1735
sg837
F0.00023603439331054688
sg838
F0.0004260540008544922
sg839
I55
sg840
I55
sa(dp842
g836
I1785
sg837
F0.00017404556274414062
sg838
F0.00010609626770019531
sg839
I52
sg840
I52
sasS'total_cqs'
p843
I75
ssI139
(dp844
S'iters'
p845
I7
sS'meta'
p846
(lp847
(dp848
S'objective'
p849
I82303
sS'query_time'
p850
F22.725824117660522
sS'comp_time'
p851
F0.20040392875671387
sS'exec_cq'
p852
I425
sS'total_cq'
p853
I425
sa(dp854
g849
I78548
sg850
F0.0031991004943847656
sg851
F0.15984129905700684
sg852
I398
sg853
I398
sa(dp855
g849
I72187
sg850
F0.0025320053100585938
sg851
F0.1979520320892334
sg852
I379
sg853
I379
sa(dp856
g849
I75238
sg850
F0.0017070770263671875
sg851
F0.037165164947509766
sg852
I355
sg853
I355
sa(dp857
g849
I73530
sg850
F0.0015788078308105469
sg851
F0.04722881317138672
sg852
I351
sg853
I351
sa(dp858
g849
I73812
sg850
F0.0013661384582519531
sg851
F0.03543710708618164
sg852
I345
sg853
I345
sa(dp859
g849
I73510
sg850
F0.0012841224670410156
sg851
F0.0421142578125
sg852
I342
sg853
I342
sasS'total_cqs'
p860
I425
ssI142
(dp861
S'iters'
p862
I1
sS'meta'
p863
(lp864
(dp865
S'objective'
p866
I0
sS'query_time'
p867
F21.353155851364136
sS'comp_time'
p868
F0.003013134002685547
sS'exec_cq'
p869
I3
sS'total_cq'
p870
I3
sasS'total_cqs'
p871
I3
ssI148
(dp872
S'iters'
p873
I7
sS'meta'
p874
(lp875
(dp876
S'objective'
p877
I53686
sS'query_time'
p878
F28.692442178726196
sS'comp_time'
p879
F0.19681692123413086
sS'exec_cq'
p880
I359
sS'total_cq'
p881
I359
sa(dp882
g877
I50049
sg878
F0.0024199485778808594
sg879
F0.17916607856750488
sg880
I333
sg881
I333
sa(dp883
g877
I49707
sg878
F0.0015680789947509766
sg879
F0.17296981811523438
sg880
I308
sg881
I308
sa(dp884
g877
I50976
sg878
F0.0013098716735839844
sg879
F0.023888826370239258
sg880
I292
sg881
I292
sa(dp885
g877
I50701
sg878
F0.0011930465698242188
sg879
F0.0230100154876709
sg880
I288
sg881
I288
sa(dp886
g877
I50381
sg878
F0.001024007797241211
sg879
F0.16467928886413574
sg880
I284
sg881
I284
sa(dp887
g877
I50039
sg878
F0.0012729167938232422
sg879
F0.02742290496826172
sg880
I282
sg881
I282
sasS'total_cqs'
p888
I359
ssI137
(dp889
S'iters'
p890
I6
sS'meta'
p891
(lp892
(dp893
S'objective'
p894
I69252
sS'query_time'
p895
F31.59646987915039
sS'comp_time'
p896
F0.180344820022583
sS'exec_cq'
p897
I400
sS'total_cq'
p898
I400
sa(dp899
g894
I61804
sg895
F0.004443168640136719
sg896
F0.20193696022033691
sg897
I377
sg898
I377
sa(dp900
g894
I60733
sg895
F0.0020380020141601562
sg896
F0.1543281078338623
sg897
I349
sg898
I349
sa(dp901
g894
I62249
sg895
F0.001461029052734375
sg896
F0.028076171875
sg897
I328
sg898
I328
sa(dp902
g894
I61970
sg895
F0.0016040802001953125
sg896
F0.03285479545593262
sg897
I324
sg898
I324
sa(dp903
g894
I61872
sg895
F0.0015141963958740234
sg896
F0.03389930725097656
sg897
I321
sg898
I321
sasS'total_cqs'
p904
I400
ss.