(dp0
I1
(dp1
S'iters'
p2
I1
sS'meta'
p3
(lp4
(dp5
S'objective'
p6
I2
sS'query_time'
p7
F20.033095121383667
sS'comp_time'
p8
F0.005837917327880859
sS'exec_cq'
p9
I4
sS'total_cq'
p10
I4
sasS'total_cqs'
p11
I4
ssI2
(dp12
S'iters'
p13
I1
sS'meta'
p14
(lp15
(dp16
S'objective'
p17
I2
sS'query_time'
p18
F0.10021400451660156
sS'comp_time'
p19
F0.0005350112915039062
sS'exec_cq'
p20
I4
sS'total_cq'
p21
I4
sasS'total_cqs'
p22
I4
ssI3
(dp23
S'iters'
p24
I0
sS'meta'
p25
(lp26
sS'total_cqs'
p27
I1
ssI4
(dp28
S'iters'
p29
I0
sS'meta'
p30
(lp31
sS'total_cqs'
p32
I1
ssI5
(dp33
S'iters'
p34
I8
sS'meta'
p35
(lp36
(dp37
S'objective'
p38
I537
sS'query_time'
p39
F31.93590998649597
sS'comp_time'
p40
F1.1807279586791992
sS'exec_cq'
p41
I54
sS'total_cq'
p42
I54
sa(dp43
g38
I921
sg39
F0.000614166259765625
sg40
F0.17548680305480957
sg41
I39
sg42
I39
sa(dp44
g38
I882
sg39
F0.0007588863372802734
sg40
F1.1773591041564941
sg41
I38
sg42
I38
sa(dp45
g38
I864
sg39
F0.0005750656127929688
sg40
F0.017061233520507812
sg41
I37
sg42
I37
sa(dp46
g38
I842
sg39
F0.0005218982696533203
sg40
F0.007673978805541992
sg41
I36
sg42
I36
sa(dp47
g38
I822
sg39
F0.0004010200500488281
sg40
F0.008791208267211914
sg41
I35
sg42
I35
sa(dp48
g38
I821
sg39
F0.0001709461212158203
sg40
F0.014893054962158203
sg41
I34
sg42
I34
sa(dp49
g38
I725
sg39
F0.007012128829956055
sg40
F0.005340099334716797
sg41
I33
sg42
I33
sasS'total_cqs'
p50
I54
ssI6
(dp51
S'iters'
p52
I1
sS'meta'
p53
(lp54
(dp55
S'objective'
p56
I2
sS'query_time'
p57
F20.412878036499023
sS'comp_time'
p58
F0.007853031158447266
sS'exec_cq'
p59
I4
sS'total_cq'
p60
I4
sasS'total_cqs'
p61
I4
ssI7
(dp62
S'iters'
p63
I0
sS'meta'
p64
(lp65
sS'total_cqs'
p66
I1
ssI8
(dp67
S'iters'
p68
I0
sS'meta'
p69
(lp70
sS'total_cqs'
p71
I1
ssI9
(dp72
S'iters'
p73
I1
sS'meta'
p74
(lp75
(dp76
S'objective'
p77
I0
sS'query_time'
p78
F29.72868013381958
sS'comp_time'
p79
F0.04850888252258301
sS'exec_cq'
p80
I3
sS'total_cq'
p81
I3
sasS'total_cqs'
p82
I3
ssI10
(dp83
S'iters'
p84
I1
sS'meta'
p85
(lp86
(dp87
S'objective'
p88
I2
sS'query_time'
p89
F12.937705993652344
sS'comp_time'
p90
F0.013911008834838867
sS'exec_cq'
p91
I4
sS'total_cq'
p92
I4
sasS'total_cqs'
p93
I4
ssI11
(dp94
S'iters'
p95
I1
sS'meta'
p96
(lp97
(dp98
S'objective'
p99
I14
sS'query_time'
p100
F20.036875009536743
sS'comp_time'
p101
F0.0013668537139892578
sS'exec_cq'
p102
I7
sS'total_cq'
p103
I7
sasS'total_cqs'
p104
I7
ssI12
(dp105
S'iters'
p106
I2
sS'meta'
p107
(lp108
(dp109
S'objective'
p110
I6
sS'query_time'
p111
F20.177000045776367
sS'comp_time'
p112
F0.006038188934326172
sS'exec_cq'
p113
I7
sS'total_cq'
p114
I7
sa(dp115
g110
I3
sg111
F6.604194641113281e-05
sg112
F0.002185821533203125
sg113
I5
sg114
I5
sasS'total_cqs'
p116
I7
ssI13
(dp117
S'iters'
p118
I0
sS'meta'
p119
(lp120
sS'total_cqs'
p121
I1
ssI14
(dp122
S'iters'
p123
I2
sS'meta'
p124
(lp125
(dp126
S'objective'
p127
I181
sS'query_time'
p128
F30.246840953826904
sS'comp_time'
p129
F1.2025208473205566
sS'exec_cq'
p130
I25
sS'total_cq'
p131
I25
sa(dp132
g127
I203
sg128
F0.027122020721435547
sg129
F0.2245340347290039
sg130
I19
sg131
I19
sasS'total_cqs'
p133
I25
ssI15
(dp134
S'iters'
p135
I2
sS'meta'
p136
(lp137
(dp138
S'objective'
p139
I41
sS'query_time'
p140
F23.158427000045776
sS'comp_time'
p141
F0.1557321548461914
sS'exec_cq'
p142
I13
sS'total_cq'
p143
I13
sa(dp144
g139
I40
sg140
F0.12444496154785156
sg141
F0.08057808876037598
sg142
I9
sg143
I9
sasS'total_cqs'
p145
I13
ssI16
(dp146
S'iters'
p147
I3
sS'meta'
p148
(lp149
(dp150
S'objective'
p151
I121
sS'query_time'
p152
F30.61158299446106
sS'comp_time'
p153
F0.855557918548584
sS'exec_cq'
p154
I17
sS'total_cq'
p155
I17
sa(dp156
g151
I55
sg152
F0.45958495140075684
sg153
F0.03834080696105957
sg154
I15
sg155
I15
sa(dp157
g151
I7
sg152
F0.3902730941772461
sg153
F0.024782896041870117
sg154
I3
sg155
I3
sasS'total_cqs'
p158
I17
ssI17
(dp159
S'iters'
p160
I2
sS'meta'
p161
(lp162
(dp163
S'objective'
p164
I78
sS'query_time'
p165
F24.55032992362976
sS'comp_time'
p166
F1.6289889812469482
sS'exec_cq'
p167
I16
sS'total_cq'
p168
I16
sa(dp169
g164
I3
sg165
F0.19032025337219238
sg166
F0.0045299530029296875
sg167
I2
sg168
I2
sasS'total_cqs'
p170
I16
ssI18
(dp171
S'iters'
p172
I3
sS'meta'
p173
(lp174
(dp175
S'objective'
p176
I184
sS'query_time'
p177
F21.904858112335205
sS'comp_time'
p178
F3.896354913711548
sS'exec_cq'
p179
I20
sS'total_cq'
p180
I20
sa(dp181
g176
I145
sg177
F3.4586310386657715
sg178
F3.2385129928588867
sg179
I17
sg180
I17
sa(dp182
g176
I14
sg177
F0.1022491455078125
sg178
F0.003985881805419922
sg179
I2
sg180
I2
sasS'total_cqs'
p183
I20
ssI19
(dp184
S'iters'
p185
I4
sS'meta'
p186
(lp187
(dp188
S'objective'
p189
I3498
sS'query_time'
p190
F27.9862380027771
sS'comp_time'
p191
F0.7064371109008789
sS'exec_cq'
p192
I88
sS'total_cq'
p193
I88
sa(dp194
g189
I3687
sg190
F0.00038695335388183594
sg191
F5.1134560108184814
sg192
I83
sg193
I83
sa(dp195
g189
I3401
sg190
F2.8657889366149902
sg191
F2.67275071144104
sg192
I82
sg193
I82
sa(dp196
g189
I28
sg190
F0.18199372291564941
sg191
F0.002722024917602539
sg192
I2
sg193
I2
sasS'total_cqs'
p197
I88
ssI134
(dp198
S'iters'
p199
I1
sS'meta'
p200
(lp201
(dp202
S'objective'
p203
I1
sS'query_time'
p204
F20.764995098114014
sS'comp_time'
p205
F1.0347850322723389
sS'exec_cq'
p206
I2
sS'total_cq'
p207
I2
sasS'total_cqs'
p208
I2
ssI21
(dp209
S'iters'
p210
I1
sS'meta'
p211
(lp212
(dp213
S'objective'
p214
I5
sS'query_time'
p215
F20.3597149848938
sS'comp_time'
p216
F0.004833221435546875
sS'exec_cq'
p217
I5
sS'total_cq'
p218
I5
sasS'total_cqs'
p219
I5
ssI22
(dp220
S'iters'
p221
I1
sS'meta'
p222
(lp223
(dp224
S'objective'
p225
I0
sS'query_time'
p226
F30.43032193183899
sS'comp_time'
p227
F0.8535211086273193
sS'exec_cq'
p228
I3
sS'total_cq'
p229
I3
sasS'total_cqs'
p230
I3
ssI23
(dp231
S'iters'
p232
I0
sS'meta'
p233
(lp234
sS'total_cqs'
p235
I1
ssI24
(dp236
S'iters'
p237
I1
sS'meta'
p238
(lp239
(dp240
S'objective'
p241
I0
sS'query_time'
p242
F20.218396186828613
sS'comp_time'
p243
F0.005611896514892578
sS'exec_cq'
p244
I3
sS'total_cq'
p245
I3
sasS'total_cqs'
p246
I3
ssI25
(dp247
S'iters'
p248
I1
sS'meta'
p249
(lp250
(dp251
S'objective'
p252
I0
sS'query_time'
p253
F20.07789897918701
sS'comp_time'
p254
F0.030534029006958008
sS'exec_cq'
p255
I3
sS'total_cq'
p256
I3
sasS'total_cqs'
p257
I3
ssI26
(dp258
S'iters'
p259
I0
sS'meta'
p260
(lp261
sS'total_cqs'
p262
I1
ssI27
(dp263
S'iters'
p264
I0
sS'meta'
p265
(lp266
sS'total_cqs'
p267
I1
ssI28
(dp268
S'iters'
p269
I0
sS'meta'
p270
(lp271
sS'total_cqs'
p272
I1
ssI29
(dp273
S'iters'
p274
I1
sS'meta'
p275
(lp276
(dp277
S'objective'
p278
I14
sS'query_time'
p279
F20.022414922714233
sS'comp_time'
p280
F0.0012679100036621094
sS'exec_cq'
p281
I7
sS'total_cq'
p282
I7
sasS'total_cqs'
p283
I7
ssI30
(dp284
S'iters'
p285
I2
sS'meta'
p286
(lp287
(dp288
S'objective'
p289
I6
sS'query_time'
p290
F20.16409993171692
sS'comp_time'
p291
F0.004664897918701172
sS'exec_cq'
p292
I7
sS'total_cq'
p293
I7
sa(dp294
g289
I3
sg290
F7.915496826171875e-05
sg291
F0.0017621517181396484
sg292
I5
sg293
I5
sasS'total_cqs'
p295
I7
ssI31
(dp296
S'iters'
p297
I3
sS'meta'
p298
(lp299
(dp300
S'objective'
p301
I27
sS'query_time'
p302
F6.4960081577301025
sS'comp_time'
p303
F0.0019488334655761719
sS'exec_cq'
p304
I10
sS'total_cq'
p305
I10
sa(dp306
g301
I17
sg302
F0.0002319812774658203
sg303
F0.0011179447174072266
sg304
I8
sg305
I8
sa(dp307
g301
I8
sg302
F0.0001780986785888672
sg303
F0.0012059211730957031
sg304
I2
sg305
I2
sasS'total_cqs'
p308
I10
ssI32
(dp309
S'iters'
p310
I2
sS'meta'
p311
(lp312
(dp313
S'objective'
p314
I19
sS'query_time'
p315
F2.9509339332580566
sS'comp_time'
p316
F0.015939950942993164
sS'exec_cq'
p317
I10
sS'total_cq'
p318
I10
sa(dp319
g314
I2
sg315
F0.0019598007202148438
sg316
F0.01074671745300293
sg317
I2
sg318
I2
sasS'total_cqs'
p320
I10
ssI33
(dp321
S'iters'
p322
I2
sS'meta'
p323
(lp324
(dp325
S'objective'
p326
I18
sS'query_time'
p327
F2.9509761333465576
sS'comp_time'
p328
F0.003135204315185547
sS'exec_cq'
p329
I11
sS'total_cq'
p330
I11
sa(dp331
g326
I2
sg327
F0.00047016143798828125
sg328
F0.0027170181274414062
sg329
I4
sg330
I4
sasS'total_cqs'
p332
I11
ssI34
(dp333
S'iters'
p334
I3
sS'meta'
p335
(lp336
(dp337
S'objective'
p338
I1385
sS'query_time'
p339
F43.02011585235596
sS'comp_time'
p340
F1.3144330978393555
sS'exec_cq'
p341
I70
sS'total_cq'
p342
I70
sa(dp343
g338
I1281
sg339
F0.005172014236450195
sg340
F8.550221920013428
sg341
I56
sg342
I56
sa(dp344
g338
I1468
sg339
F0.003754854202270508
sg340
F0.023080110549926758
sg341
I45
sg342
I45
sasS'total_cqs'
p345
I70
ssI35
(dp346
S'iters'
p347
I4
sS'meta'
p348
(lp349
(dp350
S'objective'
p351
I1379
sS'query_time'
p352
F42.87326097488403
sS'comp_time'
p353
F1.1830077171325684
sS'exec_cq'
p354
I70
sS'total_cq'
p355
I70
sa(dp356
g351
I1162
sg352
F0.008786916732788086
sg353
F0.2688000202178955
sg354
I54
sg355
I54
sa(dp357
g351
I903
sg352
F0.00939488410949707
sg353
F7.1455748081207275
sg354
I44
sg355
I44
sa(dp358
g351
I1085
sg352
F0.00687098503112793
sg353
F0.12057089805603027
sg354
I33
sg355
I33
sasS'total_cqs'
p359
I70
ssI36
(dp360
S'iters'
p361
I2
sS'meta'
p362
(lp363
(dp364
S'objective'
p365
I31
sS'query_time'
p366
F19.21561098098755
sS'comp_time'
p367
F0.0002560615539550781
sS'exec_cq'
p368
I17
sS'total_cq'
p369
I17
sa(dp370
g365
I27
sg366
F3.695487976074219e-05
sg367
F9.512901306152344e-05
sg368
I5
sg369
I5
sasS'total_cqs'
p371
I17
ssI37
(dp372
S'iters'
p373
I2
sS'meta'
p374
(lp375
(dp376
S'objective'
p377
I74
sS'query_time'
p378
F20.29814100265503
sS'comp_time'
p379
F0.0005629062652587891
sS'exec_cq'
p380
I16
sS'total_cq'
p381
I16
sa(dp382
g377
I1
sg378
F8.0108642578125e-05
sg379
F0.00016999244689941406
sg380
I3
sg381
I3
sasS'total_cqs'
p383
I16
ssI38
(dp384
S'iters'
p385
I4
sS'meta'
p386
(lp387
(dp388
S'objective'
p389
I1356
sS'query_time'
p390
F41.4313178062439
sS'comp_time'
p391
F0.8937499523162842
sS'exec_cq'
p392
I59
sS'total_cq'
p393
I59
sa(dp394
g389
I995
sg390
F0.22182393074035645
sg391
F0.727449893951416
sg392
I51
sg393
I51
sa(dp395
g389
I767
sg390
F0.21562600135803223
sg391
F0.7323968410491943
sg392
I41
sg393
I41
sa(dp396
g389
I905
sg390
F0.0015540122985839844
sg391
F0.005938053131103516
sg392
I31
sg393
I31
sasS'total_cqs'
p397
I59
ssI39
(dp398
S'iters'
p399
I4
sS'meta'
p400
(lp401
(dp402
S'objective'
p403
I2196
sS'query_time'
p404
F30.63912606239319
sS'comp_time'
p405
F0.09690189361572266
sS'exec_cq'
p406
I79
sS'total_cq'
p407
I79
sa(dp408
g403
I2030
sg404
F0.06000494956970215
sg405
F0.05130410194396973
sg406
I69
sg407
I69
sa(dp409
g403
I1196
sg404
F0.0673980712890625
sg405
F0.10487580299377441
sg406
I59
sg407
I59
sa(dp410
g403
I1617
sg404
F0.00024890899658203125
sg405
F0.002655029296875
sg406
I43
sg407
I43
sasS'total_cqs'
p411
I79
ssI40
(dp412
S'iters'
p413
I4
sS'meta'
p414
(lp415
(dp416
S'objective'
p417
I1578
sS'query_time'
p418
F64.98733115196228
sS'comp_time'
p419
F0.1173090934753418
sS'exec_cq'
p420
I83
sS'total_cq'
p421
I83
sa(dp422
g417
I1528
sg418
F0.0006029605865478516
sg419
F0.005074977874755859
sg420
I60
sg421
I60
sa(dp423
g417
I1148
sg418
F0.0002338886260986328
sg419
F0.0038988590240478516
sg420
I49
sg421
I49
sa(dp424
g417
I1423
sg418
F0.00021696090698242188
sg419
F0.0009698867797851562
sg420
I37
sg421
I37
sasS'total_cqs'
p425
I83
ssI41
(dp426
S'iters'
p427
I1
sS'meta'
p428
(lp429
(dp430
S'objective'
p431
I5
sS'query_time'
p432
F20.969039916992188
sS'comp_time'
p433
F0.006907939910888672
sS'exec_cq'
p434
I5
sS'total_cq'
p435
I5
sasS'total_cqs'
p436
I5
ssI42
(dp437
S'iters'
p438
I1
sS'meta'
p439
(lp440
(dp441
S'objective'
p442
I0
sS'query_time'
p443
F40.69198489189148
sS'comp_time'
p444
F0.03501701354980469
sS'exec_cq'
p445
I3
sS'total_cq'
p446
I3
sasS'total_cqs'
p447
I3
ssI43
(dp448
S'iters'
p449
I1
sS'meta'
p450
(lp451
(dp452
S'objective'
p453
I5
sS'query_time'
p454
F0.6315531730651855
sS'comp_time'
p455
F0.02660512924194336
sS'exec_cq'
p456
I5
sS'total_cq'
p457
I5
sasS'total_cqs'
p458
I5
ssI44
(dp459
S'iters'
p460
I2
sS'meta'
p461
(lp462
(dp463
S'objective'
p464
I21
sS'query_time'
p465
F20.029992818832397
sS'comp_time'
p466
F0.03606700897216797
sS'exec_cq'
p467
I10
sS'total_cq'
p468
I10
sa(dp469
g464
I3
sg465
F0.003083944320678711
sg466
F0.003431081771850586
sg467
I2
sg468
I2
sasS'total_cqs'
p470
I10
ssI45
(dp471
S'iters'
p472
I0
sS'meta'
p473
(lp474
sS'total_cqs'
p475
I1
ssI46
(dp476
S'iters'
p477
I1
sS'meta'
p478
(lp479
(dp480
S'objective'
p481
I1
sS'query_time'
p482
F0.8549981117248535
sS'comp_time'
p483
F0.08216500282287598
sS'exec_cq'
p484
I2
sS'total_cq'
p485
I2
sasS'total_cqs'
p486
I2
ssI47
(dp487
S'iters'
p488
I0
sS'meta'
p489
(lp490
sS'total_cqs'
p491
I1
ssI48
(dp492
S'iters'
p493
I0
sS'meta'
p494
(lp495
sS'total_cqs'
p496
I1
ssI49
(dp497
S'iters'
p498
I2
sS'meta'
p499
(lp500
(dp501
S'objective'
p502
I4
sS'query_time'
p503
F30.539731979370117
sS'comp_time'
p504
F44.35409903526306
sS'exec_cq'
p505
I3
sS'total_cq'
p506
I3
sa(dp507
g502
I1
sg503
F0.010844945907592773
sg504
F1.0007939338684082
sg505
I2
sg506
I2
sasS'total_cqs'
p508
I3
ssI50
(dp509
S'iters'
p510
I2
sS'meta'
p511
(lp512
(dp513
S'objective'
p514
I36
sS'query_time'
p515
F20.116715908050537
sS'comp_time'
p516
F0.10671186447143555
sS'exec_cq'
p517
I12
sS'total_cq'
p518
I12
sa(dp519
g514
I33
sg515
F8.606910705566406e-05
sg516
F0.00015091896057128906
sg517
I9
sg518
I9
sasS'total_cqs'
p520
I12
ssI51
(dp521
S'iters'
p522
I2
sS'meta'
p523
(lp524
(dp525
S'objective'
p526
I22
sS'query_time'
p527
F21.294140100479126
sS'comp_time'
p528
F0.10295486450195312
sS'exec_cq'
p529
I12
sS'total_cq'
p530
I12
sa(dp531
g526
I4
sg527
F4.982948303222656e-05
sg528
F0.00167083740234375
sg529
I4
sg530
I4
sasS'total_cqs'
p532
I12
ssI52
(dp533
S'iters'
p534
I2
sS'meta'
p535
(lp536
(dp537
S'objective'
p538
I22
sS'query_time'
p539
F1.7400610446929932
sS'comp_time'
p540
F0.0005061626434326172
sS'exec_cq'
p541
I12
sS'total_cq'
p542
I12
sa(dp543
g538
I4
sg539
F6.699562072753906e-05
sg540
F0.00033020973205566406
sg541
I4
sg542
I4
sasS'total_cqs'
p544
I12
ssI53
(dp545
S'iters'
p546
I2
sS'meta'
p547
(lp548
(dp549
S'objective'
p550
I4
sS'query_time'
p551
F20.031423091888428
sS'comp_time'
p552
F0.01799607276916504
sS'exec_cq'
p553
I3
sS'total_cq'
p554
I3
sa(dp555
g550
I1
sg551
F22.82373595237732
sg552
F0.0018210411071777344
sg553
I2
sg554
I2
sasS'total_cqs'
p556
I3
ssI54
(dp557
S'iters'
p558
I1
sS'meta'
p559
(lp560
(dp561
S'objective'
p562
I5
sS'query_time'
p563
F41.58430290222168
sS'comp_time'
p564
F0.023854970932006836
sS'exec_cq'
p565
I5
sS'total_cq'
p566
I5
sasS'total_cqs'
p567
I5
ssI55
(dp568
S'iters'
p569
I2
sS'meta'
p570
(lp571
(dp572
S'objective'
p573
I17
sS'query_time'
p574
F33.38899493217468
sS'comp_time'
p575
F0.027125835418701172
sS'exec_cq'
p576
I10
sS'total_cq'
p577
I10
sa(dp578
g573
I1
sg574
F0.004936933517456055
sg575
F0.019319772720336914
sg576
I2
sg577
I2
sasS'total_cqs'
p579
I10
ssI56
(dp580
S'iters'
p581
I2
sS'meta'
p582
(lp583
(dp584
S'objective'
p585
I1
sS'query_time'
p586
F35.04274106025696
sS'comp_time'
p587
F0.8193047046661377
sS'exec_cq'
p588
I6
sS'total_cq'
p589
I6
sa(dp590
g585
I2
sg586
F0.03721213340759277
sg587
F0.2833700180053711
sg588
I3
sg589
I3
sasS'total_cqs'
p591
I6
ssI57
(dp592
S'iters'
p593
I3
sS'meta'
p594
(lp595
(dp596
S'objective'
p597
I252
sS'query_time'
p598
F20.467234134674072
sS'comp_time'
p599
F0.1426541805267334
sS'exec_cq'
p600
I27
sS'total_cq'
p601
I27
sa(dp602
g597
I251
sg598
F0.03492403030395508
sg599
F0.0834810733795166
sg600
I23
sg601
I23
sa(dp603
g597
I229
sg598
F0.019188880920410156
sg599
F0.08429622650146484
sg600
I21
sg601
I21
sasS'total_cqs'
p604
I27
ssI58
(dp605
S'iters'
p606
I2
sS'meta'
p607
(lp608
(dp609
S'objective'
p610
I29
sS'query_time'
p611
F28.66031312942505
sS'comp_time'
p612
F0.23481988906860352
sS'exec_cq'
p613
I10
sS'total_cq'
p614
I10
sa(dp615
g610
I7
sg611
F0.02413201332092285
sg612
F0.15914416313171387
sg613
I2
sg614
I2
sasS'total_cqs'
p616
I10
ssI59
(dp617
S'iters'
p618
I4
sS'meta'
p619
(lp620
(dp621
S'objective'
p622
I1186
sS'query_time'
p623
F67.20318007469177
sS'comp_time'
p624
F3.749173879623413
sS'exec_cq'
p625
I59
sS'total_cq'
p626
I59
sa(dp627
g622
I696
sg623
F0.6902370452880859
sg624
F3.008664846420288
sg625
I51
sg626
I51
sa(dp628
g622
I651
sg623
F0.6513500213623047
sg624
F2.530797004699707
sg625
I39
sg626
I39
sa(dp629
g622
I751
sg623
F0.5246541500091553
sg624
F2.11548113822937
sg625
I31
sg626
I31
sasS'total_cqs'
p630
I59
ssI60
(dp631
S'iters'
p632
I2
sS'meta'
p633
(lp634
(dp635
S'objective'
p636
I56
sS'query_time'
p637
F32.67610502243042
sS'comp_time'
p638
F0.26688289642333984
sS'exec_cq'
p639
I15
sS'total_cq'
p640
I15
sa(dp641
g636
I2
sg637
F6.699562072753906e-05
sg638
F0.0002818107604980469
sg639
I3
sg640
I3
sasS'total_cqs'
p642
I15
ssI61
(dp643
S'iters'
p644
I2
sS'meta'
p645
(lp646
(dp647
S'objective'
p648
I33
sS'query_time'
p649
F42.8399760723114
sS'comp_time'
p650
F0.04904460906982422
sS'exec_cq'
p651
I17
sS'total_cq'
p652
I17
sa(dp653
g648
I26
sg649
F5.507469177246094e-05
sg650
F0.00015306472778320312
sg651
I6
sg652
I6
sasS'total_cqs'
p654
I17
ssI62
(dp655
S'iters'
p656
I6
sS'meta'
p657
(lp658
(dp659
S'objective'
p660
I9349
sS'query_time'
p661
F40.26418614387512
sS'comp_time'
p662
F1.3935508728027344
sS'exec_cq'
p663
I158
sS'total_cq'
p664
I158
sa(dp665
g660
I8217
sg661
F0.0023801326751708984
sg662
F0.0971078872680664
sg663
I138
sg664
I138
sa(dp666
g660
I3604
sg661
F0.0012969970703125
sg662
F2.342316150665283
sg663
I114
sg664
I114
sa(dp667
g660
I6049
sg661
F0.0012099742889404297
sg662
F0.015230178833007812
sg663
I80
sg664
I80
sa(dp668
g660
I5976
sg661
F0.0006771087646484375
sg662
F0.012923955917358398
sg663
I78
sg664
I78
sa(dp669
g660
I5833
sg661
F0.0004961490631103516
sg662
F0.011997222900390625
sg663
I76
sg664
I76
sasS'total_cqs'
p670
I158
ssI63
(dp671
S'iters'
p672
I3
sS'meta'
p673
(lp674
(dp675
S'objective'
p676
I2475
sS'query_time'
p677
F68.78944182395935
sS'comp_time'
p678
F0.552954912185669
sS'exec_cq'
p679
I77
sS'total_cq'
p680
I77
sa(dp681
g676
I2203
sg677
F0.0028939247131347656
sg678
F0.04607796669006348
sg679
I67
sg680
I67
sa(dp682
g676
I2317
sg677
F0.001260995864868164
sg678
F0.01104593276977539
sg679
I57
sg680
I57
sasS'total_cqs'
p683
I77
ssI64
(dp684
S'iters'
p685
I9
sS'meta'
p686
(lp687
(dp688
S'objective'
p689
I8274
sS'query_time'
p690
F109.66471314430237
sS'comp_time'
p691
F5.872560024261475
sS'exec_cq'
p692
I135
sS'total_cq'
p693
I135
sa(dp694
g689
I8227
sg690
F1.5443811416625977
sg691
F4.885235071182251
sg692
I129
sg693
I129
sa(dp695
g689
I8125
sg690
F1.2928290367126465
sg691
F6.134681940078735
sg692
I127
sg693
I127
sa(dp696
g689
I7957
sg690
F0.5363740921020508
sg691
F2.6263580322265625
sg692
I124
sg693
I124
sa(dp697
g689
I7789
sg690
F0.8936400413513184
sg691
F2.891343116760254
sg692
I122
sg693
I122
sa(dp698
g689
I7651
sg690
F0.6819310188293457
sg691
F2.3771169185638428
sg692
I120
sg693
I120
sa(dp699
g689
I7525
sg690
F0.8435909748077393
sg691
F3.6767709255218506
sg692
I118
sg693
I118
sa(dp700
g689
I7391
sg690
F0.6388809680938721
sg691
F2.640660047531128
sg692
I116
sg693
I116
sa(dp701
g689
I7258
sg690
F0.6144218444824219
sg691
F2.389153003692627
sg692
I114
sg693
I114
sasS'total_cqs'
p702
I135
ssI65
(dp703
S'iters'
p704
I2
sS'meta'
p705
(lp706
(dp707
S'objective'
p708
I297
sS'query_time'
p709
F20.28131103515625
sS'comp_time'
p710
F0.06437015533447266
sS'exec_cq'
p711
I26
sS'total_cq'
p712
I26
sa(dp713
g708
I272
sg709
F0.000885009765625
sg710
F0.01302790641784668
sg711
I24
sg712
I24
sasS'total_cqs'
p714
I26
ssI66
(dp715
S'iters'
p716
I2
sS'meta'
p717
(lp718
(dp719
S'objective'
p720
I239
sS'query_time'
p721
F21.4374520778656
sS'comp_time'
p722
F0.1491999626159668
sS'exec_cq'
p723
I25
sS'total_cq'
p724
I25
sa(dp725
g720
I232
sg721
F0.014078855514526367
sg722
F0.08838200569152832
sg723
I23
sg724
I23
sasS'total_cqs'
p726
I25
ssI67
(dp727
S'iters'
p728
I4
sS'meta'
p729
(lp730
(dp731
S'objective'
p732
I249
sS'query_time'
p733
F4.485863208770752
sS'comp_time'
p734
F0.1763927936553955
sS'exec_cq'
p735
I25
sS'total_cq'
p736
I25
sa(dp737
g732
I217
sg733
F0.0204620361328125
sg734
F0.16410398483276367
sg735
I23
sg736
I23
sa(dp738
g732
I198
sg733
F0.022150039672851562
sg734
F0.14106392860412598
sg735
I21
sg736
I21
sa(dp739
g732
I175
sg733
F0.022192001342773438
sg734
F0.15121817588806152
sg735
I19
sg736
I19
sasS'total_cqs'
p740
I25
ssI68
(dp741
S'iters'
p742
I5
sS'meta'
p743
(lp744
(dp745
S'objective'
p746
I1721
sS'query_time'
p747
F26.61589217185974
sS'comp_time'
p748
F0.003773927688598633
sS'exec_cq'
p749
I73
sS'total_cq'
p750
I73
sa(dp751
g746
I1469
sg747
F0.0007140636444091797
sg748
F0.002017974853515625
sg749
I62
sg750
I62
sa(dp752
g746
I1214
sg747
F0.0004889965057373047
sg748
F0.0018239021301269531
sg749
I51
sg750
I51
sa(dp753
g746
I1059
sg747
F0.0003600120544433594
sg748
F0.0015380382537841797
sg749
I41
sg750
I41
sa(dp754
g746
I1147
sg747
F0.00029015541076660156
sg748
F0.001322031021118164
sg749
I32
sg750
I32
sasS'total_cqs'
p755
I73
ssI69
(dp756
S'iters'
p757
I5
sS'meta'
p758
(lp759
(dp760
S'objective'
p761
I1594
sS'query_time'
p762
F37.82530212402344
sS'comp_time'
p763
F0.0026679039001464844
sS'exec_cq'
p764
I72
sS'total_cq'
p765
I72
sa(dp766
g761
I1219
sg762
F0.0007369518280029297
sg763
F0.0021860599517822266
sg764
I60
sg765
I60
sa(dp767
g761
I857
sg762
F0.0003349781036376953
sg763
F0.0010559558868408203
sg764
I49
sg765
I49
sa(dp768
g761
I601
sg762
F0.0001900196075439453
sg763
F0.0006098747253417969
sg764
I39
sg765
I39
sa(dp769
g761
I787
sg762
F0.00013494491577148438
sg763
F0.0004410743713378906
sg764
I27
sg765
I27
sasS'total_cqs'
p770
I72
ssI70
(dp771
S'iters'
p772
I4
sS'meta'
p773
(lp774
(dp775
S'objective'
p776
I5605
sS'query_time'
p777
F93.64041209220886
sS'comp_time'
p778
F2.9546680450439453
sS'exec_cq'
p779
I109
sS'total_cq'
p780
I109
sa(dp781
g776
I5428
sg777
F0.5464179515838623
sg778
F2.1213488578796387
sg779
I107
sg780
I107
sa(dp782
g776
I5316
sg777
F0.21097588539123535
sg778
F1.2942590713500977
sg779
I103
sg780
I103
sa(dp783
g776
I5247
sg777
F0.15386199951171875
sg778
F1.3783178329467773
sg779
I99
sg780
I99
sasS'total_cqs'
p784
I109
ssI71
(dp785
S'iters'
p786
I16
sS'meta'
p787
(lp788
(dp789
S'objective'
p790
I157446
sS'query_time'
p791
F72.03742909431458
sS'comp_time'
p792
F2.975044012069702
sS'exec_cq'
p793
I568
sS'total_cq'
p794
I568
sa(dp795
g790
I156383
sg791
F0.44029903411865234
sg792
F7.595465898513794
sg793
I562
sg794
I562
sa(dp796
g790
I155018
sg791
F0.7028319835662842
sg792
F4.954814195632935
sg793
I558
sg794
I558
sa(dp797
g790
I154391
sg791
F0.4446849822998047
sg792
F1.4016830921173096
sg793
I552
sg794
I552
sa(dp798
g790
I153746
sg791
F0.32880115509033203
sg792
F1.4608919620513916
sg793
I550
sg794
I550
sa(dp799
g790
I153034
sg791
F0.3329310417175293
sg792
F1.3084909915924072
sg793
I548
sg794
I548
sa(dp800
g790
I152345
sg791
F0.41876888275146484
sg792
F1.3610477447509766
sg793
I546
sg794
I546
sa(dp801
g790
I151649
sg791
F0.3554420471191406
sg792
F1.3033900260925293
sg793
I544
sg794
I544
sa(dp802
g790
I150964
sg791
F0.424177885055542
sg792
F1.5297129154205322
sg793
I542
sg794
I542
sa(dp803
g790
I150280
sg791
F0.47368693351745605
sg792
F1.7096331119537354
sg793
I540
sg794
I540
sa(dp804
g790
I149682
sg791
F0.6020989418029785
sg792
F1.3662631511688232
sg793
I538
sg794
I538
sa(dp805
g790
I149099
sg791
F0.4194009304046631
sg792
F1.2920920848846436
sg793
I536
sg794
I536
sa(dp806
g790
I148521
sg791
F0.408519983291626
sg792
F1.361994981765747
sg793
I534
sg794
I534
sa(dp807
g790
I147929
sg791
F0.3297710418701172
sg792
F1.290968894958496
sg793
I532
sg794
I532
sa(dp808
g790
I147343
sg791
F0.40939998626708984
sg792
F3.66092586517334
sg793
I530
sg794
I530
sa(dp809
g790
I146797
sg791
F0.3268129825592041
sg792
F1.6441853046417236
sg793
I528
sg794
I528
sasS'total_cqs'
p810
I568
ssI72
(dp811
S'iters'
p812
I3
sS'meta'
p813
(lp814
(dp815
S'objective'
p816
I7551
sS'query_time'
p817
F21.056898832321167
sS'comp_time'
p818
F0.12806963920593262
sS'exec_cq'
p819
I125
sS'total_cq'
p820
I125
sa(dp821
g816
I7443
sg817
F0.004796028137207031
sg818
F0.13737201690673828
sg819
I123
sg820
I123
sa(dp822
g816
I7328
sg817
F0.0023758411407470703
sg818
F0.10254383087158203
sg819
I121
sg820
I121
sasS'total_cqs'
p823
I125
ssI73
(dp824
S'iters'
p825
I3
sS'meta'
p826
(lp827
(dp828
S'objective'
p829
I7535
sS'query_time'
p830
F26.00248908996582
sS'comp_time'
p831
F0.6079580783843994
sS'exec_cq'
p832
I125
sS'total_cq'
p833
I125
sa(dp834
g829
I7441
sg830
F0.0781240463256836
sg831
F0.3691740036010742
sg832
I123
sg833
I123
sa(dp835
g829
I7323
sg830
F0.0879218578338623
sg831
F0.3742482662200928
sg832
I121
sg833
I121
sasS'total_cqs'
p836
I125
ssI138
(dp837
S'iters'
p838
I3
sS'meta'
p839
(lp840
(dp841
S'objective'
p842
I1252
sS'query_time'
p843
F1.9446489810943604
sS'comp_time'
p844
F0.0009050369262695312
sS'exec_cq'
p845
I75
sS'total_cq'
p846
I75
sa(dp847
g842
I1777
sg843
F0.0002338886260986328
sg844
F0.0004000663757324219
sg845
I55
sg846
I55
sa(dp848
g842
I1764
sg843
F0.00016117095947265625
sg844
F0.0001010894775390625
sg845
I52
sg846
I52
sasS'total_cqs'
p849
I75
ssI141
(dp850
S'iters'
p851
I9
sS'meta'
p852
(lp853
(dp854
S'objective'
p855
I60940
sS'query_time'
p856
F38.72175097465515
sS'comp_time'
p857
F1.0754830837249756
sS'exec_cq'
p858
I383
sS'total_cq'
p859
I383
sa(dp860
g855
I56508
sg856
F0.007692098617553711
sg857
F0.9696359634399414
sg858
I354
sg859
I354
sa(dp861
g855
I51383
sg856
F0.010067939758300781
sg857
F0.9614307880401611
sg858
I325
sg859
I325
sa(dp862
g855
I54108
sg856
F0.00574493408203125
sg857
F0.19832921028137207
sg858
I301
sg859
I301
sa(dp863
g855
I51936
sg856
F0.0018110275268554688
sg857
F0.06154489517211914
sg858
I295
sg859
I295
sa(dp864
g855
I52280
sg856
F0.0014832019805908203
sg857
F0.18507790565490723
sg858
I288
sg859
I288
sa(dp865
g855
I45102
sg856
F0.0014519691467285156
sg857
F0.2590758800506592
sg858
I284
sg859
I284
sa(dp866
g855
I46912
sg856
F0.0012149810791015625
sg857
F0.07343006134033203
sg858
I259
sg859
I259
sa(dp867
g855
I47207
sg856
F0.001004934310913086
sg857
F0.04426908493041992
sg858
I250
sg859
I250
sasS'total_cqs'
p868
I383
ssI139
(dp869
S'iters'
p870
I6
sS'meta'
p871
(lp872
(dp873
S'objective'
p874
I77987
sS'query_time'
p875
F22.356568098068237
sS'comp_time'
p876
F0.21987700462341309
sS'exec_cq'
p877
I425
sS'total_cq'
p878
I425
sa(dp879
g874
I74476
sg875
F0.0035741329193115234
sg876
F0.19994783401489258
sg877
I398
sg878
I398
sa(dp880
g874
I71150
sg875
F0.0026700496673583984
sg876
F0.184495210647583
sg877
I379
sg878
I379
sa(dp881
g874
I74026
sg875
F0.0021300315856933594
sg876
F0.042856693267822266
sg877
I355
sg878
I355
sa(dp882
g874
I73658
sg875
F0.0016090869903564453
sg876
F0.0374758243560791
sg877
I352
sg878
I352
sa(dp883
g874
I73300
sg875
F0.0013589859008789062
sg876
F0.0372929573059082
sg877
I348
sg878
I348
sasS'total_cqs'
p884
I425
ssI142
(dp885
S'iters'
p886
I1
sS'meta'
p887
(lp888
(dp889
S'objective'
p890
I0
sS'query_time'
p891
F21.371886014938354
sS'comp_time'
p892
F0.0031290054321289062
sS'exec_cq'
p893
I3
sS'total_cq'
p894
I3
sasS'total_cqs'
p895
I3
ssI135
(dp896
S'iters'
p897
I2
sS'meta'
p898
(lp899
(dp900
S'objective'
p901
I10
sS'query_time'
p902
F28.36007809638977
sS'comp_time'
p903
F0.6876931190490723
sS'exec_cq'
p904
I7
sS'total_cq'
p905
I7
sa(dp906
g901
I5
sg902
F0.14483380317687988
sg903
F0.6096160411834717
sg904
I2
sg905
I2
sasS'total_cqs'
p907
I7
ssI133
(dp908
S'iters'
p909
I1
sS'meta'
p910
(lp911
(dp912
S'objective'
p913
I1
sS'query_time'
p914
F21.514261960983276
sS'comp_time'
p915
F0.0022902488708496094
sS'exec_cq'
p916
I2
sS'total_cq'
p917
I2
sasS'total_cqs'
p918
I2
ssI148
(dp919
S'iters'
p920
I6
sS'meta'
p921
(lp922
(dp923
S'objective'
p924
I55070
sS'query_time'
p925
F29.77376699447632
sS'comp_time'
p926
F0.19163990020751953
sS'exec_cq'
p927
I359
sS'total_cq'
p928
I359
sa(dp929
g924
I51927
sg925
F0.002228975296020508
sg926
F0.17593789100646973
sg927
I333
sg928
I333
sa(dp930
g924
I50592
sg925
F0.0015451908111572266
sg926
F0.1617422103881836
sg927
I308
sg928
I308
sa(dp931
g924
I51847
sg925
F0.0014469623565673828
sg926
F0.027709007263183594
sg927
I292
sg928
I292
sa(dp932
g924
I51263
sg925
F0.001219034194946289
sg926
F0.023957014083862305
sg927
I288
sg928
I288
sa(dp933
g924
I51185
sg925
F0.001085042953491211
sg926
F0.023486852645874023
sg927
I284
sg928
I284
sasS'total_cqs'
p934
I359
ssI140
(dp935
S'iters'
p936
I0
sS'meta'
p937
(lp938
sS'total_cqs'
p939
I1
ssI137
(dp940
S'iters'
p941
I6
sS'meta'
p942
(lp943
(dp944
S'objective'
p945
I67668
sS'query_time'
p946
F31.57034707069397
sS'comp_time'
p947
F0.21105217933654785
sS'exec_cq'
p948
I400
sS'total_cq'
p949
I400
sa(dp950
g945
I65924
sg946
F0.002012968063354492
sg947
F0.1704120635986328
sg948
I372
sg949
I372
sa(dp951
g945
I63067
sg946
F0.0018699169158935547
sg947
F0.15798330307006836
sg948
I349
sg949
I349
sa(dp952
g945
I65302
sg946
F0.0016858577728271484
sg947
F0.035688161849975586
sg948
I328
sg949
I328
sa(dp953
g945
I65014
sg946
F0.0019040107727050781
sg947
F0.03594708442687988
sg948
I324
sg949
I324
sa(dp954
g945
I64657
sg946
F0.0014660358428955078
sg947
F0.03285789489746094
sg948
I321
sg949
I321
sasS'total_cqs'
p955
I400
ssI136
(dp956
S'iters'
p957
I3
sS'meta'
p958
(lp959
(dp960
S'objective'
p961
I525
sS'query_time'
p962
F24.738794088363647
sS'comp_time'
p963
F0.0007750988006591797
sS'exec_cq'
p964
I57
sS'total_cq'
p965
I57
sa(dp966
g961
I861
sg962
F0.00016808509826660156
sg963
F0.0002949237823486328
sg964
I35
sg965
I35
sa(dp967
g961
I861
sg962
F0.00013899803161621094
sg963
F0.0002498626708984375
sg964
I32
sg965
I32
sasS'total_cqs'
p968
I57
ss.