(dp0
I1
(dp1
S'iters'
p2
I1
sS'meta'
p3
(lp4
(dp5
S'objective'
p6
I2
sS'query_time'
p7
F20.058045148849487
sS'comp_time'
p8
F0.037284135818481445
sS'exec_cq'
p9
I4
sS'total_cq'
p10
I4
sasS'total_cqs'
p11
I4
ssI2
(dp12
S'iters'
p13
I1
sS'meta'
p14
(lp15
(dp16
S'objective'
p17
I2
sS'query_time'
p18
F0.14616107940673828
sS'comp_time'
p19
F0.0005550384521484375
sS'exec_cq'
p20
I4
sS'total_cq'
p21
I4
sasS'total_cqs'
p22
I4
ssI3
(dp23
S'iters'
p24
I0
sS'meta'
p25
(lp26
sS'total_cqs'
p27
I1
ssI4
(dp28
S'iters'
p29
I0
sS'meta'
p30
(lp31
sS'total_cqs'
p32
I1
ssI5
(dp33
S'iters'
p34
I8
sS'meta'
p35
(lp36
(dp37
S'objective'
p38
I475
sS'query_time'
p39
F32.15696907043457
sS'comp_time'
p40
F0.9956231117248535
sS'exec_cq'
p41
I54
sS'total_cq'
p42
I54
sa(dp43
g38
I904
sg39
F0.0008759498596191406
sg40
F0.009861946105957031
sg41
I38
sg42
I38
sa(dp44
g38
I884
sg39
F0.0006849765777587891
sg40
F0.9745960235595703
sg41
I37
sg42
I37
sa(dp45
g38
I885
sg39
F0.00072479248046875
sg40
F0.05202889442443848
sg41
I36
sg42
I36
sa(dp46
g38
I875
sg39
F0.000621795654296875
sg40
F0.02573871612548828
sg41
I35
sg42
I35
sa(dp47
g38
I875
sg39
F0.0004019737243652344
sg40
F0.017138004302978516
sg41
I34
sg42
I34
sa(dp48
g38
I875
sg39
F0.0002338886260986328
sg40
F0.023628950119018555
sg41
I33
sg42
I33
sa(dp49
g38
I770
sg39
F0.005616903305053711
sg40
F0.004591941833496094
sg41
I32
sg42
I32
sasS'total_cqs'
p50
I54
ssI6
(dp51
S'iters'
p52
I1
sS'meta'
p53
(lp54
(dp55
S'objective'
p56
I2
sS'query_time'
p57
F20.470799922943115
sS'comp_time'
p58
F0.005897045135498047
sS'exec_cq'
p59
I4
sS'total_cq'
p60
I4
sasS'total_cqs'
p61
I4
ssI7
(dp62
S'iters'
p63
I0
sS'meta'
p64
(lp65
sS'total_cqs'
p66
I1
ssI8
(dp67
S'iters'
p68
I0
sS'meta'
p69
(lp70
sS'total_cqs'
p71
I1
ssI9
(dp72
S'iters'
p73
I1
sS'meta'
p74
(lp75
(dp76
S'objective'
p77
I0
sS'query_time'
p78
F29.758883953094482
sS'comp_time'
p79
F0.05497169494628906
sS'exec_cq'
p80
I3
sS'total_cq'
p81
I3
sasS'total_cqs'
p82
I3
ssI10
(dp83
S'iters'
p84
I1
sS'meta'
p85
(lp86
(dp87
S'objective'
p88
I2
sS'query_time'
p89
F9.10764193534851
sS'comp_time'
p90
F0.014344930648803711
sS'exec_cq'
p91
I4
sS'total_cq'
p92
I4
sasS'total_cqs'
p93
I4
ssI11
(dp94
S'iters'
p95
I1
sS'meta'
p96
(lp97
(dp98
S'objective'
p99
I14
sS'query_time'
p100
F20.06478214263916
sS'comp_time'
p101
F0.001199960708618164
sS'exec_cq'
p102
I7
sS'total_cq'
p103
I7
sasS'total_cqs'
p104
I7
ssI12
(dp105
S'iters'
p106
I2
sS'meta'
p107
(lp108
(dp109
S'objective'
p110
I14
sS'query_time'
p111
F20.20536780357361
sS'comp_time'
p112
F0.004426002502441406
sS'exec_cq'
p113
I7
sS'total_cq'
p114
I7
sa(dp115
g110
I7
sg111
F8.0108642578125e-05
sg112
F0.0020160675048828125
sg113
I5
sg114
I5
sasS'total_cqs'
p116
I7
ssI13
(dp117
S'iters'
p118
I0
sS'meta'
p119
(lp120
sS'total_cqs'
p121
I1
ssI14
(dp122
S'iters'
p123
I2
sS'meta'
p124
(lp125
(dp126
S'objective'
p127
I165
sS'query_time'
p128
F30.264075994491577
sS'comp_time'
p129
F1.0561490058898926
sS'exec_cq'
p130
I25
sS'total_cq'
p131
I25
sa(dp132
g127
I195
sg128
F0.030297040939331055
sg129
F0.19177794456481934
sg130
I19
sg131
I19
sasS'total_cqs'
p133
I25
ssI15
(dp134
S'iters'
p135
I2
sS'meta'
p136
(lp137
(dp138
S'objective'
p139
I27
sS'query_time'
p140
F23.272686004638672
sS'comp_time'
p141
F0.08694767951965332
sS'exec_cq'
p142
I13
sS'total_cq'
p143
I13
sa(dp144
g139
I33
sg140
F0.06907391548156738
sg141
F0.04375815391540527
sg142
I9
sg143
I9
sasS'total_cqs'
p145
I13
ssI16
(dp146
S'iters'
p147
I3
sS'meta'
p148
(lp149
(dp150
S'objective'
p151
I101
sS'query_time'
p152
F30.21836018562317
sS'comp_time'
p153
F0.8893718719482422
sS'exec_cq'
p154
I17
sS'total_cq'
p155
I17
sa(dp156
g151
I77
sg152
F0.4398040771484375
sg153
F0.06843090057373047
sg154
I15
sg155
I15
sa(dp157
g151
I9
sg152
F0.4382050037384033
sg153
F0.03408670425415039
sg154
I3
sg155
I3
sasS'total_cqs'
p158
I17
ssI17
(dp159
S'iters'
p160
I2
sS'meta'
p161
(lp162
(dp163
S'objective'
p164
I84
sS'query_time'
p165
F23.951700925827026
sS'comp_time'
p166
F1.613710880279541
sS'exec_cq'
p167
I16
sS'total_cq'
p168
I16
sa(dp169
g164
I6
sg165
F0.3032841682434082
sg166
F0.006957054138183594
sg167
I2
sg168
I2
sasS'total_cqs'
p170
I16
ssI18
(dp171
S'iters'
p172
I3
sS'meta'
p173
(lp174
(dp175
S'objective'
p176
I162
sS'query_time'
p177
F21.996498823165894
sS'comp_time'
p178
F3.268174886703491
sS'exec_cq'
p179
I20
sS'total_cq'
p180
I20
sa(dp181
g176
I124
sg177
F4.078335762023926
sg178
F3.6787028312683105
sg179
I17
sg180
I17
sa(dp182
g176
I9
sg177
F0.11892199516296387
sg178
F0.002585887908935547
sg179
I2
sg180
I2
sasS'total_cqs'
p183
I20
ssI19
(dp184
S'iters'
p185
I4
sS'meta'
p186
(lp187
(dp188
S'objective'
p189
I3366
sS'query_time'
p190
F28.769954919815063
sS'comp_time'
p191
F0.6817810535430908
sS'exec_cq'
p192
I88
sS'total_cq'
p193
I88
sa(dp194
g189
I3567
sg190
F0.000308990478515625
sg191
F4.8320698738098145
sg192
I83
sg193
I83
sa(dp195
g189
I3356
sg190
F2.8642008304595947
sg191
F2.912393093109131
sg192
I82
sg193
I82
sa(dp196
g189
I52
sg190
F0.13326811790466309
sg191
F0.00335693359375
sg192
I2
sg193
I2
sasS'total_cqs'
p197
I88
ssI134
(dp198
S'iters'
p199
I1
sS'meta'
p200
(lp201
(dp202
S'objective'
p203
I1
sS'query_time'
p204
F20.802051067352295
sS'comp_time'
p205
F0.9464209079742432
sS'exec_cq'
p206
I2
sS'total_cq'
p207
I2
sasS'total_cqs'
p208
I2
ssI21
(dp209
S'iters'
p210
I1
sS'meta'
p211
(lp212
(dp213
S'objective'
p214
I5
sS'query_time'
p215
F20.30634903907776
sS'comp_time'
p216
F0.005799055099487305
sS'exec_cq'
p217
I5
sS'total_cq'
p218
I5
sasS'total_cqs'
p219
I5
ssI22
(dp220
S'iters'
p221
I1
sS'meta'
p222
(lp223
(dp224
S'objective'
p225
I0
sS'query_time'
p226
F30.19405484199524
sS'comp_time'
p227
F0.7707738876342773
sS'exec_cq'
p228
I3
sS'total_cq'
p229
I3
sasS'total_cqs'
p230
I3
ssI23
(dp231
S'iters'
p232
I0
sS'meta'
p233
(lp234
sS'total_cqs'
p235
I1
ssI24
(dp236
S'iters'
p237
I1
sS'meta'
p238
(lp239
(dp240
S'objective'
p241
I0
sS'query_time'
p242
F19.621926069259644
sS'comp_time'
p243
F0.005059003829956055
sS'exec_cq'
p244
I3
sS'total_cq'
p245
I3
sasS'total_cqs'
p246
I3
ssI25
(dp247
S'iters'
p248
I1
sS'meta'
p249
(lp250
(dp251
S'objective'
p252
I0
sS'query_time'
p253
F19.608487844467163
sS'comp_time'
p254
F0.0009541511535644531
sS'exec_cq'
p255
I3
sS'total_cq'
p256
I3
sasS'total_cqs'
p257
I3
ssI26
(dp258
S'iters'
p259
I0
sS'meta'
p260
(lp261
sS'total_cqs'
p262
I1
ssI27
(dp263
S'iters'
p264
I0
sS'meta'
p265
(lp266
sS'total_cqs'
p267
I1
ssI28
(dp268
S'iters'
p269
I0
sS'meta'
p270
(lp271
sS'total_cqs'
p272
I1
ssI29
(dp273
S'iters'
p274
I1
sS'meta'
p275
(lp276
(dp277
S'objective'
p278
I14
sS'query_time'
p279
F20.042712926864624
sS'comp_time'
p280
F0.000988006591796875
sS'exec_cq'
p281
I7
sS'total_cq'
p282
I7
sasS'total_cqs'
p283
I7
ssI30
(dp284
S'iters'
p285
I1
sS'meta'
p286
(lp287
(dp288
S'objective'
p289
I14
sS'query_time'
p290
F20.168202877044678
sS'comp_time'
p291
F0.005743980407714844
sS'exec_cq'
p292
I7
sS'total_cq'
p293
I7
sasS'total_cqs'
p294
I7
ssI31
(dp295
S'iters'
p296
I2
sS'meta'
p297
(lp298
(dp299
S'objective'
p300
I25
sS'query_time'
p301
F6.532197952270508
sS'comp_time'
p302
F0.0021200180053710938
sS'exec_cq'
p303
I10
sS'total_cq'
p304
I10
sa(dp305
g300
I5
sg301
F0.00020194053649902344
sg302
F0.0011477470397949219
sg303
I2
sg304
I2
sasS'total_cqs'
p306
I10
ssI32
(dp307
S'iters'
p308
I2
sS'meta'
p309
(lp310
(dp311
S'objective'
p312
I23
sS'query_time'
p313
F3.262579917907715
sS'comp_time'
p314
F0.015722036361694336
sS'exec_cq'
p315
I10
sS'total_cq'
p316
I10
sa(dp317
g312
I4
sg313
F0.0025451183319091797
sg314
F0.012768030166625977
sg315
I2
sg316
I2
sasS'total_cqs'
p318
I10
ssI33
(dp319
S'iters'
p320
I2
sS'meta'
p321
(lp322
(dp323
S'objective'
p324
I14
sS'query_time'
p325
F3.2476890087127686
sS'comp_time'
p326
F0.003718852996826172
sS'exec_cq'
p327
I11
sS'total_cq'
p328
I11
sa(dp329
g324
I4
sg325
F0.0005280971527099609
sg326
F0.0028760433197021484
sg327
I4
sg328
I4
sasS'total_cqs'
p330
I11
ssI34
(dp331
S'iters'
p332
I3
sS'meta'
p333
(lp334
(dp335
S'objective'
p336
I1475
sS'query_time'
p337
F42.79633593559265
sS'comp_time'
p338
F1.2822411060333252
sS'exec_cq'
p339
I70
sS'total_cq'
p340
I70
sa(dp341
g336
I1286
sg337
F0.004492044448852539
sg338
F7.59751296043396
sg339
I56
sg340
I56
sa(dp342
g336
I1493
sg337
F0.0036268234252929688
sg338
F0.030237913131713867
sg339
I45
sg340
I45
sasS'total_cqs'
p343
I70
ssI35
(dp344
S'iters'
p345
I3
sS'meta'
p346
(lp347
(dp348
S'objective'
p349
I1533
sS'query_time'
p350
F42.84073209762573
sS'comp_time'
p351
F1.5305259227752686
sS'exec_cq'
p352
I70
sS'total_cq'
p353
I70
sa(dp354
g349
I1115
sg350
F0.49926185607910156
sg351
F1.260380744934082
sg352
I59
sg353
I59
sa(dp355
g349
I1422
sg350
F0.010735034942626953
sg351
F0.05118894577026367
sg352
I43
sg353
I43
sasS'total_cqs'
p356
I70
ssI36
(dp357
S'iters'
p358
I2
sS'meta'
p359
(lp360
(dp361
S'objective'
p362
I57
sS'query_time'
p363
F19.11614203453064
sS'comp_time'
p364
F0.0002582073211669922
sS'exec_cq'
p365
I17
sS'total_cq'
p366
I17
sa(dp367
g362
I14
sg363
F3.910064697265625e-05
sg364
F0.00010085105895996094
sg365
I5
sg366
I5
sasS'total_cqs'
p368
I17
ssI37
(dp369
S'iters'
p370
I2
sS'meta'
p371
(lp372
(dp373
S'objective'
p374
I58
sS'query_time'
p375
F19.37313199043274
sS'comp_time'
p376
F0.0006649494171142578
sS'exec_cq'
p377
I16
sS'total_cq'
p378
I16
sa(dp379
g374
I7
sg375
F6.222724914550781e-05
sg376
F0.00025391578674316406
sg377
I3
sg378
I3
sasS'total_cqs'
p380
I16
ssI38
(dp381
S'iters'
p382
I4
sS'meta'
p383
(lp384
(dp385
S'objective'
p386
I1072
sS'query_time'
p387
F40.63703203201294
sS'comp_time'
p388
F0.7757270336151123
sS'exec_cq'
p389
I59
sS'total_cq'
p390
I59
sa(dp391
g386
I997
sg387
F0.210892915725708
sg388
F0.6793711185455322
sg389
I49
sg390
I49
sa(dp392
g386
I649
sg387
F0.2114720344543457
sg388
F0.6972768306732178
sg389
I41
sg390
I41
sa(dp393
g386
I811
sg387
F0.0017158985137939453
sg388
F0.00713801383972168
sg389
I31
sg390
I31
sasS'total_cqs'
p394
I59
ssI39
(dp395
S'iters'
p396
I4
sS'meta'
p397
(lp398
(dp399
S'objective'
p400
I2320
sS'query_time'
p401
F30.565001010894775
sS'comp_time'
p402
F0.10099220275878906
sS'exec_cq'
p403
I79
sS'total_cq'
p404
I79
sa(dp405
g400
I2032
sg401
F0.07001090049743652
sg402
F0.047540903091430664
sg403
I69
sg404
I69
sa(dp406
g400
I1318
sg401
F0.07122492790222168
sg402
F0.12108588218688965
sg403
I59
sg404
I59
sa(dp407
g400
I1694
sg401
F0.00024700164794921875
sg402
F0.0022568702697753906
sg403
I43
sg404
I43
sasS'total_cqs'
p408
I79
ssI40
(dp409
S'iters'
p410
I4
sS'meta'
p411
(lp412
(dp413
S'objective'
p414
I1422
sS'query_time'
p415
F64.70362496376038
sS'comp_time'
p416
F0.11776399612426758
sS'exec_cq'
p417
I83
sS'total_cq'
p418
I83
sa(dp419
g414
I1450
sg415
F0.0006079673767089844
sg416
F0.004453897476196289
sg417
I60
sg418
I60
sa(dp420
g414
I1092
sg415
F0.0003211498260498047
sg416
F0.0037322044372558594
sg417
I48
sg418
I48
sa(dp421
g414
I1356
sg415
F0.00017595291137695312
sg416
F0.0006232261657714844
sg417
I37
sg418
I37
sasS'total_cqs'
p422
I83
ssI41
(dp423
S'iters'
p424
I1
sS'meta'
p425
(lp426
(dp427
S'objective'
p428
I5
sS'query_time'
p429
F20.808465003967285
sS'comp_time'
p430
F0.0068438053131103516
sS'exec_cq'
p431
I5
sS'total_cq'
p432
I5
sasS'total_cqs'
p433
I5
ssI42
(dp434
S'iters'
p435
I1
sS'meta'
p436
(lp437
(dp438
S'objective'
p439
I0
sS'query_time'
p440
F40.5289990901947
sS'comp_time'
p441
F0.04398989677429199
sS'exec_cq'
p442
I3
sS'total_cq'
p443
I3
sasS'total_cqs'
p444
I3
ssI43
(dp445
S'iters'
p446
I1
sS'meta'
p447
(lp448
(dp449
S'objective'
p450
I5
sS'query_time'
p451
F0.5342180728912354
sS'comp_time'
p452
F0.03021693229675293
sS'exec_cq'
p453
I5
sS'total_cq'
p454
I5
sasS'total_cqs'
p455
I5
ssI44
(dp456
S'iters'
p457
I2
sS'meta'
p458
(lp459
(dp460
S'objective'
p461
I29
sS'query_time'
p462
F20.0263569355011
sS'comp_time'
p463
F0.02431201934814453
sS'exec_cq'
p464
I10
sS'total_cq'
p465
I10
sa(dp466
g461
I7
sg462
F0.0024759769439697266
sg463
F0.0026030540466308594
sg464
I2
sg465
I2
sasS'total_cqs'
p467
I10
ssI45
(dp468
S'iters'
p469
I0
sS'meta'
p470
(lp471
sS'total_cqs'
p472
I1
ssI46
(dp473
S'iters'
p474
I1
sS'meta'
p475
(lp476
(dp477
S'objective'
p478
I1
sS'query_time'
p479
F0.716580867767334
sS'comp_time'
p480
F0.0794820785522461
sS'exec_cq'
p481
I2
sS'total_cq'
p482
I2
sasS'total_cqs'
p483
I2
ssI47
(dp484
S'iters'
p485
I0
sS'meta'
p486
(lp487
sS'total_cqs'
p488
I1
ssI48
(dp489
S'iters'
p490
I0
sS'meta'
p491
(lp492
sS'total_cqs'
p493
I1
ssI49
(dp494
S'iters'
p495
I2
sS'meta'
p496
(lp497
(dp498
S'objective'
p499
I2
sS'query_time'
p500
F29.962797164916992
sS'comp_time'
p501
F42.29228591918945
sS'exec_cq'
p502
I3
sS'total_cq'
p503
I3
sa(dp504
g499
I2
sg500
F0.01105809211730957
sg501
F0.9424190521240234
sg502
I2
sg503
I2
sasS'total_cqs'
p505
I3
ssI50
(dp506
S'iters'
p507
I1
sS'meta'
p508
(lp509
(dp510
S'objective'
p511
I54
sS'query_time'
p512
F20.203244924545288
sS'comp_time'
p513
F0.0007700920104980469
sS'exec_cq'
p514
I12
sS'total_cq'
p515
I12
sasS'total_cqs'
p516
I12
ssI51
(dp517
S'iters'
p518
I2
sS'meta'
p519
(lp520
(dp521
S'objective'
p522
I32
sS'query_time'
p523
F21.40712881088257
sS'comp_time'
p524
F0.022973060607910156
sS'exec_cq'
p525
I12
sS'total_cq'
p526
I12
sa(dp527
g522
I1
sg523
F5.3882598876953125e-05
sg524
F0.0023140907287597656
sg525
I4
sg526
I4
sasS'total_cqs'
p528
I12
ssI52
(dp529
S'iters'
p530
I2
sS'meta'
p531
(lp532
(dp533
S'objective'
p534
I24
sS'query_time'
p535
F1.340770959854126
sS'comp_time'
p536
F0.0009481906890869141
sS'exec_cq'
p537
I12
sS'total_cq'
p538
I12
sa(dp539
g534
I3
sg535
F0.00013899803161621094
sg536
F0.0006868839263916016
sg537
I4
sg538
I4
sasS'total_cqs'
p540
I12
ssI53
(dp541
S'iters'
p542
I2
sS'meta'
p543
(lp544
(dp545
S'objective'
p546
I4
sS'query_time'
p547
F20.03907084465027
sS'comp_time'
p548
F0.018925189971923828
sS'exec_cq'
p549
I3
sS'total_cq'
p550
I3
sa(dp551
g546
I1
sg547
F22.95781183242798
sg548
F0.0016758441925048828
sg549
I2
sg550
I2
sasS'total_cqs'
p552
I3
ssI54
(dp553
S'iters'
p554
I1
sS'meta'
p555
(lp556
(dp557
S'objective'
p558
I5
sS'query_time'
p559
F21.892033100128174
sS'comp_time'
p560
F0.028341054916381836
sS'exec_cq'
p561
I5
sS'total_cq'
p562
I5
sasS'total_cqs'
p563
I5
ssI55
(dp564
S'iters'
p565
I2
sS'meta'
p566
(lp567
(dp568
S'objective'
p569
I19
sS'query_time'
p570
F35.06414604187012
sS'comp_time'
p571
F0.029170989990234375
sS'exec_cq'
p572
I10
sS'total_cq'
p573
I10
sa(dp574
g569
I2
sg570
F0.004787921905517578
sg571
F0.01975703239440918
sg572
I2
sg573
I2
sasS'total_cqs'
p575
I10
ssI56
(dp576
S'iters'
p577
I2
sS'meta'
p578
(lp579
(dp580
S'objective'
p581
I7
sS'query_time'
p582
F35.39465880393982
sS'comp_time'
p583
F0.9230937957763672
sS'exec_cq'
p584
I6
sS'total_cq'
p585
I6
sa(dp586
g581
I2
sg582
F0.12822794914245605
sg583
F0.4415731430053711
sg584
I4
sg585
I4
sasS'total_cqs'
p587
I6
ssI57
(dp588
S'iters'
p589
I3
sS'meta'
p590
(lp591
(dp592
S'objective'
p593
I238
sS'query_time'
p594
F21.094002962112427
sS'comp_time'
p595
F0.12601923942565918
sS'exec_cq'
p596
I27
sS'total_cq'
p597
I27
sa(dp598
g593
I230
sg594
F0.0367121696472168
sg595
F0.08577799797058105
sg596
I23
sg597
I23
sa(dp599
g593
I215
sg594
F0.014419078826904297
sg595
F0.08291006088256836
sg596
I21
sg597
I21
sasS'total_cqs'
p600
I27
ssI58
(dp601
S'iters'
p602
I2
sS'meta'
p603
(lp604
(dp605
S'objective'
p606
I27
sS'query_time'
p607
F28.301104068756104
sS'comp_time'
p608
F0.22758197784423828
sS'exec_cq'
p609
I10
sS'total_cq'
p610
I10
sa(dp611
g606
I6
sg607
F0.02205681800842285
sg608
F0.1570570468902588
sg609
I2
sg610
I2
sasS'total_cqs'
p612
I10
ssI59
(dp613
S'iters'
p614
I4
sS'meta'
p615
(lp616
(dp617
S'objective'
p618
I980
sS'query_time'
p619
F66.12457704544067
sS'comp_time'
p620
F3.319586992263794
sS'exec_cq'
p621
I59
sS'total_cq'
p622
I59
sa(dp623
g618
I935
sg619
F0.5751581192016602
sg620
F2.5365450382232666
sg621
I47
sg622
I47
sa(dp624
g618
I739
sg619
F0.5477750301361084
sg620
F2.5085721015930176
sg621
I39
sg622
I39
sa(dp625
g618
I829
sg619
F0.3480398654937744
sg620
F1.7784411907196045
sg621
I31
sg622
I31
sasS'total_cqs'
p626
I59
ssI60
(dp627
S'iters'
p628
I2
sS'meta'
p629
(lp630
(dp631
S'objective'
p632
I64
sS'query_time'
p633
F32.39077091217041
sS'comp_time'
p634
F0.23996901512145996
sS'exec_cq'
p635
I15
sS'total_cq'
p636
I15
sa(dp637
g632
I2
sg633
F7.200241088867188e-05
sg634
F0.00033020973205566406
sg635
I3
sg636
I3
sasS'total_cqs'
p638
I15
ssI61
(dp639
S'iters'
p640
I2
sS'meta'
p641
(lp642
(dp643
S'objective'
p644
I27
sS'query_time'
p645
F42.47574806213379
sS'comp_time'
p646
F0.04845404624938965
sS'exec_cq'
p647
I17
sS'total_cq'
p648
I17
sa(dp649
g644
I29
sg645
F5.3882598876953125e-05
sg646
F0.00015807151794433594
sg647
I6
sg648
I6
sasS'total_cqs'
p650
I17
ssI62
(dp651
S'iters'
p652
I6
sS'meta'
p653
(lp654
(dp655
S'objective'
p656
I9577
sS'query_time'
p657
F40.35532808303833
sS'comp_time'
p658
F1.3661491870880127
sS'exec_cq'
p659
I158
sS'total_cq'
p660
I158
sa(dp661
g656
I7873
sg657
F0.0025720596313476562
sg658
F0.12603116035461426
sg659
I138
sg660
I138
sa(dp662
g656
I4595
sg657
F0.0015230178833007812
sg658
F2.082401990890503
sg659
I114
sg660
I114
sa(dp663
g656
I6457
sg657
F0.0007128715515136719
sg658
F0.011347770690917969
sg659
I80
sg660
I80
sa(dp664
g656
I6373
sg657
F0.0006132125854492188
sg658
F0.010658025741577148
sg659
I78
sg660
I78
sa(dp665
g656
I6243
sg657
F0.00042700767517089844
sg658
F0.010534048080444336
sg659
I76
sg660
I76
sasS'total_cqs'
p666
I158
ssI63
(dp667
S'iters'
p668
I3
sS'meta'
p669
(lp670
(dp671
S'objective'
p672
I2147
sS'query_time'
p673
F68.3841540813446
sS'comp_time'
p674
F0.0559539794921875
sS'exec_cq'
p675
I77
sS'total_cq'
p676
I77
sa(dp677
g672
I1939
sg673
F0.001425027847290039
sg674
F0.5813331604003906
sg675
I67
sg676
I67
sa(dp678
g672
I2103
sg673
F0.0013310909271240234
sg674
F0.012291908264160156
sg675
I57
sg676
I57
sasS'total_cqs'
p679
I77
ssI64
(dp680
S'iters'
p681
I8
sS'meta'
p682
(lp683
(dp684
S'objective'
p685
I8240
sS'query_time'
p686
F110.34987592697144
sS'comp_time'
p687
F5.939523220062256
sS'exec_cq'
p688
I135
sS'total_cq'
p689
I135
sa(dp690
g685
I8210
sg686
F0.9263181686401367
sg687
F2.9205501079559326
sg688
I129
sg689
I129
sa(dp691
g685
I7964
sg686
F1.1441338062286377
sg687
F3.122727155685425
sg688
I127
sg689
I127
sa(dp692
g685
I7784
sg686
F0.053375959396362305
sg687
F0.7616808414459229
sg688
I124
sg689
I124
sa(dp693
g685
I7640
sg686
F0.16905784606933594
sg687
F0.5403361320495605
sg688
I122
sg689
I122
sa(dp694
g685
I7501
sg686
F0.17054009437561035
sg687
F0.5418288707733154
sg688
I120
sg689
I120
sa(dp695
g685
I7380
sg686
F0.16422700881958008
sg687
F0.5513689517974854
sg688
I118
sg689
I118
sa(dp696
g685
I7250
sg686
F0.16820907592773438
sg687
F0.5355570316314697
sg688
I116
sg689
I116
sasS'total_cqs'
p697
I135
ssI65
(dp698
S'iters'
p699
I3
sS'meta'
p700
(lp701
(dp702
S'objective'
p703
I283
sS'query_time'
p704
F20.38533902168274
sS'comp_time'
p705
F0.06513714790344238
sS'exec_cq'
p706
I26
sS'total_cq'
p707
I26
sa(dp708
g703
I259
sg704
F0.0005469322204589844
sg705
F0.014042854309082031
sg706
I24
sg707
I24
sa(dp709
g703
I236
sg704
F0.0004410743713378906
sg705
F0.015078067779541016
sg706
I22
sg707
I22
sasS'total_cqs'
p710
I26
ssI66
(dp711
S'iters'
p712
I2
sS'meta'
p713
(lp714
(dp715
S'objective'
p716
I243
sS'query_time'
p717
F21.466649055480957
sS'comp_time'
p718
F0.06475687026977539
sS'exec_cq'
p719
I25
sS'total_cq'
p720
I25
sa(dp721
g716
I234
sg717
F0.009963035583496094
sg718
F0.05660891532897949
sg719
I23
sg720
I23
sasS'total_cqs'
p722
I25
ssI67
(dp723
S'iters'
p724
I2
sS'meta'
p725
(lp726
(dp727
S'objective'
p728
I251
sS'query_time'
p729
F4.101517915725708
sS'comp_time'
p730
F0.1862928867340088
sS'exec_cq'
p731
I25
sS'total_cq'
p732
I25
sa(dp733
g728
I238
sg729
F0.02541494369506836
sg730
F0.16136813163757324
sg731
I23
sg732
I23
sasS'total_cqs'
p734
I25
ssI68
(dp735
S'iters'
p736
I5
sS'meta'
p737
(lp738
(dp739
S'objective'
p740
I1751
sS'query_time'
p741
F24.526575088500977
sS'comp_time'
p742
F0.0021691322326660156
sS'exec_cq'
p743
I73
sS'total_cq'
p744
I73
sa(dp745
g740
I1386
sg741
F0.0005600452423095703
sg742
F0.002064943313598633
sg743
I62
sg744
I62
sa(dp746
g740
I1050
sg741
F0.00033593177795410156
sg742
F0.0013229846954345703
sg743
I51
sg744
I51
sa(dp747
g740
I830
sg741
F0.0003001689910888672
sg742
F0.0013909339904785156
sg743
I42
sg744
I42
sa(dp748
g740
I983
sg741
F0.0002570152282714844
sg742
F0.0010881423950195312
sg743
I32
sg744
I32
sasS'total_cqs'
p749
I73
ssI69
(dp750
S'iters'
p751
I5
sS'meta'
p752
(lp753
(dp754
S'objective'
p755
I1702
sS'query_time'
p756
F30.84581184387207
sS'comp_time'
p757
F0.011968135833740234
sS'exec_cq'
p758
I72
sS'total_cq'
p759
I72
sa(dp760
g755
I1405
sg756
F0.0009050369262695312
sg757
F0.007786989212036133
sg758
I60
sg759
I60
sa(dp761
g755
I1043
sg756
F0.0006639957427978516
sg757
F0.006791830062866211
sg758
I50
sg759
I50
sa(dp762
g755
I754
sg756
F0.0002589225769042969
sg757
F0.009627103805541992
sg758
I39
sg759
I39
sa(dp763
g755
I940
sg756
F0.00018095970153808594
sg757
F0.0006558895111083984
sg758
I27
sg759
I27
sasS'total_cqs'
p764
I72
ssI70
(dp765
S'iters'
p766
I5
sS'meta'
p767
(lp768
(dp769
S'objective'
p770
I5423
sS'query_time'
p771
F95.46055388450623
sS'comp_time'
p772
F3.4366447925567627
sS'exec_cq'
p773
I109
sS'total_cq'
p774
I109
sa(dp775
g770
I5193
sg771
F0.5754408836364746
sg772
F2.580508232116699
sg773
I105
sg774
I105
sa(dp776
g770
I5131
sg771
F0.36702799797058105
sg772
F1.4948060512542725
sg773
I101
sg774
I101
sa(dp777
g770
I5063
sg771
F0.3456540107727051
sg772
F1.3386189937591553
sg773
I99
sg774
I99
sa(dp778
g770
I4959
sg771
F0.2926969528198242
sg772
F2.1520473957061768
sg773
I97
sg774
I97
sasS'total_cqs'
p779
I109
ssI71
(dp780
S'iters'
p781
I16
sS'meta'
p782
(lp783
(dp784
S'objective'
p785
I157678
sS'query_time'
p786
F71.50190901756287
sS'comp_time'
p787
F3.349410057067871
sS'exec_cq'
p788
I568
sS'total_cq'
p789
I568
sa(dp790
g785
I156335
sg786
F0.5288939476013184
sg787
F4.786057233810425
sg788
I562
sg789
I562
sa(dp791
g785
I155928
sg786
F0.33480215072631836
sg787
F1.438370943069458
sg788
I556
sg789
I556
sa(dp792
g785
I154907
sg786
F0.3292989730834961
sg787
F1.2795538902282715
sg788
I554
sg789
I554
sa(dp793
g785
I154150
sg786
F0.3166520595550537
sg787
F1.4422948360443115
sg788
I552
sg789
I552
sa(dp794
g785
I153293
sg786
F0.33237504959106445
sg787
F1.2838561534881592
sg788
I550
sg789
I550
sa(dp795
g785
I152433
sg786
F0.41605114936828613
sg787
F1.3217592239379883
sg788
I548
sg789
I548
sa(dp796
g785
I151824
sg786
F0.3303358554840088
sg787
F1.2733137607574463
sg788
I546
sg789
I546
sa(dp797
g785
I151108
sg786
F0.41683411598205566
sg787
F1.3426477909088135
sg788
I544
sg789
I544
sa(dp798
g785
I150385
sg786
F0.20418000221252441
sg787
F0.7215061187744141
sg788
I542
sg789
I542
sa(dp799
g785
I149692
sg786
F0.26825499534606934
sg787
F1.172123908996582
sg788
I540
sg789
I540
sa(dp800
g785
I149043
sg786
F0.2502319812774658
sg787
F1.0606071949005127
sg788
I538
sg789
I538
sa(dp801
g785
I148446
sg786
F0.275007963180542
sg787
F1.1861121654510498
sg788
I536
sg789
I536
sa(dp802
g785
I147848
sg786
F0.2447359561920166
sg787
F6.244722127914429
sg788
I534
sg789
I534
sa(dp803
g785
I147242
sg786
F0.20184683799743652
sg787
F0.8462479114532471
sg788
I530
sg789
I530
sa(dp804
g785
I146718
sg786
F0.184967041015625
sg787
F0.8606419563293457
sg788
I528
sg789
I528
sasS'total_cqs'
p805
I568
ssI72
(dp806
S'iters'
p807
I3
sS'meta'
p808
(lp809
(dp810
S'objective'
p811
I7459
sS'query_time'
p812
F20.964895963668823
sS'comp_time'
p813
F0.11646890640258789
sS'exec_cq'
p814
I125
sS'total_cq'
p815
I125
sa(dp816
g811
I7281
sg812
F0.0039010047912597656
sg813
F0.08974504470825195
sg814
I123
sg815
I123
sa(dp817
g811
I7224
sg812
F0.003757953643798828
sg813
F0.11092209815979004
sg814
I121
sg815
I121
sasS'total_cqs'
p818
I125
ssI73
(dp819
S'iters'
p820
I7
sS'meta'
p821
(lp822
(dp823
S'objective'
p824
I7555
sS'query_time'
p825
F26.043012142181396
sS'comp_time'
p826
F0.5800259113311768
sS'exec_cq'
p827
I125
sS'total_cq'
p828
I125
sa(dp829
g824
I7417
sg825
F0.07691311836242676
sg826
F0.4367210865020752
sg827
I123
sg828
I123
sa(dp830
g824
I7270
sg825
F0.11511015892028809
sg826
F0.5671179294586182
sg827
I121
sg828
I121
sa(dp831
g824
I7018
sg825
F0.10399603843688965
sg826
F0.42784881591796875
sg827
I119
sg828
I119
sa(dp832
g824
I6934
sg825
F0.07927393913269043
sg826
F0.28734683990478516
sg827
I116
sg828
I116
sa(dp833
g824
I6800
sg825
F0.04025602340698242
sg826
F0.3754301071166992
sg827
I114
sg828
I114
sa(dp834
g824
I6688
sg825
F0.0879671573638916
sg826
F0.2649378776550293
sg827
I112
sg828
I112
sasS'total_cqs'
p835
I125
ssI138
(dp836
S'iters'
p837
I3
sS'meta'
p838
(lp839
(dp840
S'objective'
p841
I1302
sS'query_time'
p842
F2.0744709968566895
sS'comp_time'
p843
F0.0009088516235351562
sS'exec_cq'
p844
I75
sS'total_cq'
p845
I75
sa(dp846
g841
I1684
sg842
F0.00024080276489257812
sg843
F0.00038814544677734375
sg844
I55
sg845
I55
sa(dp847
g841
I1730
sg842
F0.0001499652862548828
sg843
F9.489059448242188e-05
sg844
I52
sg845
I52
sasS'total_cqs'
p848
I75
ssI141
(dp849
S'iters'
p850
I9
sS'meta'
p851
(lp852
(dp853
S'objective'
p854
I61612
sS'query_time'
p855
F37.33111095428467
sS'comp_time'
p856
F0.9913780689239502
sS'exec_cq'
p857
I383
sS'total_cq'
p858
I383
sa(dp859
g854
I56944
sg855
F0.0066509246826171875
sg856
F0.9394471645355225
sg857
I354
sg858
I354
sa(dp860
g854
I53183
sg855
F0.006107807159423828
sg856
F0.9691922664642334
sg857
I325
sg858
I325
sa(dp861
g854
I54169
sg855
F0.005767107009887695
sg856
F0.06318020820617676
sg857
I301
sg858
I301
sa(dp862
g854
I54115
sg855
F0.006301164627075195
sg856
F0.17061090469360352
sg857
I294
sg858
I294
sa(dp863
g854
I42740
sg855
F0.0015439987182617188
sg856
F0.24968910217285156
sg857
I288
sg858
I288
sa(dp864
g854
I45883
sg855
F0.0011570453643798828
sg856
F0.06418013572692871
sg857
I263
sg858
I263
sa(dp865
g854
I46548
sg855
F0.0010330677032470703
sg856
F0.04041576385498047
sg857
I254
sg858
I254
sa(dp866
g854
I46200
sg855
F0.0009510517120361328
sg856
F0.04297900199890137
sg857
I250
sg858
I250
sasS'total_cqs'
p867
I383
ssI139
(dp868
S'iters'
p869
I7
sS'meta'
p870
(lp871
(dp872
S'objective'
p873
I80361
sS'query_time'
p874
F22.38596200942993
sS'comp_time'
p875
F0.22087383270263672
sS'exec_cq'
p876
I425
sS'total_cq'
p877
I425
sa(dp878
g873
I76863
sg874
F0.003120899200439453
sg875
F0.20078492164611816
sg876
I398
sg877
I398
sa(dp879
g873
I70425
sg874
F0.002621889114379883
sg875
F0.2047879695892334
sg876
I379
sg877
I379
sa(dp880
g873
I74413
sg874
F0.0024471282958984375
sg875
F0.04729104042053223
sg876
I355
sg877
I355
sa(dp881
g873
I73831
sg874
F0.0021529197692871094
sg875
F0.04189491271972656
sg876
I352
sg877
I352
sa(dp882
g873
I71866
sg874
F0.0016908645629882812
sg875
F0.046144962310791016
sg876
I348
sg877
I348
sa(dp883
g873
I72316
sg874
F0.0010628700256347656
sg875
F0.034094810485839844
sg876
I342
sg877
I342
sasS'total_cqs'
p884
I425
ssI142
(dp885
S'iters'
p886
I1
sS'meta'
p887
(lp888
(dp889
S'objective'
p890
I0
sS'query_time'
p891
F21.330602169036865
sS'comp_time'
p892
F0.0035469532012939453
sS'exec_cq'
p893
I3
sS'total_cq'
p894
I3
sasS'total_cqs'
p895
I3
ssI135
(dp896
S'iters'
p897
I2
sS'meta'
p898
(lp899
(dp900
S'objective'
p901
I8
sS'query_time'
p902
F28.85340404510498
sS'comp_time'
p903
F0.827185869216919
sS'exec_cq'
p904
I7
sS'total_cq'
p905
I7
sa(dp906
g901
I4
sg902
F0.14721298217773438
sg903
F0.6250309944152832
sg904
I2
sg905
I2
sasS'total_cqs'
p907
I7
ssI133
(dp908
S'iters'
p909
I1
sS'meta'
p910
(lp911
(dp912
S'objective'
p913
I1
sS'query_time'
p914
F21.693290948867798
sS'comp_time'
p915
F0.0021300315856933594
sS'exec_cq'
p916
I2
sS'total_cq'
p917
I2
sasS'total_cqs'
p918
I2
ssI148
(dp919
S'iters'
p920
I6
sS'meta'
p921
(lp922
(dp923
S'objective'
p924
I55578
sS'query_time'
p925
F28.484686136245728
sS'comp_time'
p926
F0.19718313217163086
sS'exec_cq'
p927
I359
sS'total_cq'
p928
I359
sa(dp929
g924
I52745
sg925
F0.002457857131958008
sg926
F0.15435290336608887
sg927
I333
sg928
I333
sa(dp930
g924
I50230
sg925
F0.0012309551239013672
sg926
F0.16691899299621582
sg927
I308
sg928
I308
sa(dp931
g924
I51498
sg925
F0.0014300346374511719
sg926
F0.024311065673828125
sg927
I292
sg928
I292
sa(dp932
g924
I51206
sg925
F0.0011119842529296875
sg926
F0.024441003799438477
sg927
I288
sg928
I288
sa(dp933
g924
I51091
sg925
F0.0012221336364746094
sg926
F0.023608922958374023
sg927
I284
sg928
I284
sasS'total_cqs'
p934
I359
ssI140
(dp935
S'iters'
p936
I0
sS'meta'
p937
(lp938
sS'total_cqs'
p939
I1
ssI137
(dp940
S'iters'
p941
I7
sS'meta'
p942
(lp943
(dp944
S'objective'
p945
I70662
sS'query_time'
p946
F30.54437494277954
sS'comp_time'
p947
F0.19676685333251953
sS'exec_cq'
p948
I400
sS'total_cq'
p949
I400
sa(dp950
g945
I63653
sg946
F0.005349874496459961
sg947
F0.19687485694885254
sg948
I379
sg949
I379
sa(dp951
g945
I61080
sg946
F0.0018188953399658203
sg947
F0.16349101066589355
sg948
I351
sg949
I351
sa(dp952
g945
I62747
sg946
F0.001611948013305664
sg947
F0.03330588340759277
sg948
I328
sg949
I328
sa(dp953
g945
I62247
sg946
F0.0014579296112060547
sg947
F0.032739877700805664
sg948
I324
sg949
I324
sa(dp954
g945
I61950
sg946
F0.0015439987182617188
sg947
F0.03661489486694336
sg948
I321
sg949
I321
sa(dp955
g945
I61744
sg946
F0.0019481182098388672
sg947
F0.034861087799072266
sg948
I318
sg949
I318
sasS'total_cqs'
p956
I400
ssI136
(dp957
S'iters'
p958
I3
sS'meta'
p959
(lp960
(dp961
S'objective'
p962
I283
sS'query_time'
p963
F22.680479049682617
sS'comp_time'
p964
F0.0007901191711425781
sS'exec_cq'
p965
I57
sS'total_cq'
p966
I57
sa(dp967
g962
I810
sg963
F0.0001690387725830078
sg964
F0.00029397010803222656
sg965
I35
sg966
I35
sa(dp968
g962
I775
sg963
F0.00011706352233886719
sg964
F0.000240325927734375
sg965
I32
sg966
I32
sasS'total_cqs'
p969
I57
ss.