(dp0
I1
(dp1
S'iters'
p2
I1
sS'meta'
p3
(lp4
(dp5
S'objective'
p6
I2
sS'query_time'
p7
F40.221402168273926
sS'comp_time'
p8
F0.004783153533935547
sS'exec_cq'
p9
I4
sS'total_cq'
p10
I4
sasS'total_cqs'
p11
I4
ssI2
(dp12
S'iters'
p13
I1
sS'meta'
p14
(lp15
(dp16
S'objective'
p17
I2
sS'query_time'
p18
F0.2583129405975342
sS'comp_time'
p19
F0.0007669925689697266
sS'exec_cq'
p20
I4
sS'total_cq'
p21
I4
sasS'total_cqs'
p22
I4
ssI3
(dp23
S'iters'
p24
I0
sS'meta'
p25
(lp26
sS'total_cqs'
p27
I1
ssI4
(dp28
S'iters'
p29
I0
sS'meta'
p30
(lp31
sS'total_cqs'
p32
I1
ssI5
(dp33
S'iters'
p34
I3
sS'meta'
p35
(lp36
(dp37
S'objective'
p38
I829
sS'query_time'
p39
F559.0889658927917
sS'comp_time'
p40
F2.356489896774292
sS'exec_cq'
p41
I54
sS'total_cq'
p42
I54
sa(dp43
g38
I45
sg39
F0.3320591449737549
sg40
F5.398174047470093
sg41
I39
sg42
I39
sa(dp44
g38
I493
sg39
F0.009286165237426758
sg40
F0.20193171501159668
sg41
I23
sg42
I23
sasS'total_cqs'
p45
I54
ssI6
(dp46
S'iters'
p47
I1
sS'meta'
p48
(lp49
(dp50
S'objective'
p51
I2
sS'query_time'
p52
F40.117757081985474
sS'comp_time'
p53
F0.006064891815185547
sS'exec_cq'
p54
I4
sS'total_cq'
p55
I4
sasS'total_cqs'
p56
I4
ssI7
(dp57
S'iters'
p58
I0
sS'meta'
p59
(lp60
sS'total_cqs'
p61
I1
ssI8
(dp62
S'iters'
p63
I0
sS'meta'
p64
(lp65
sS'total_cqs'
p66
I1
ssI9
(dp67
S'iters'
p68
I1
sS'meta'
p69
(lp70
(dp71
S'objective'
p72
I0
sS'query_time'
p73
F48.04223394393921
sS'comp_time'
p74
F0.06212496757507324
sS'exec_cq'
p75
I3
sS'total_cq'
p76
I3
sasS'total_cqs'
p77
I3
ssI10
(dp78
S'iters'
p79
I1
sS'meta'
p80
(lp81
(dp82
S'objective'
p83
I2
sS'query_time'
p84
F40.134915828704834
sS'comp_time'
p85
F0.03156089782714844
sS'exec_cq'
p86
I4
sS'total_cq'
p87
I4
sasS'total_cqs'
p88
I4
ssI11
(dp89
S'iters'
p90
I1
sS'meta'
p91
(lp92
(dp93
S'objective'
p94
I14
sS'query_time'
p95
F80.11844205856323
sS'comp_time'
p96
F0.0004000663757324219
sS'exec_cq'
p97
I7
sS'total_cq'
p98
I7
sasS'total_cqs'
p99
I7
ssI12
(dp100
S'iters'
p101
I2
sS'meta'
p102
(lp103
(dp104
S'objective'
p105
I10
sS'query_time'
p106
F80.13889217376709
sS'comp_time'
p107
F0.0009169578552246094
sS'exec_cq'
p108
I7
sS'total_cq'
p109
I7
sa(dp110
g105
I5
sg106
F8.392333984375e-05
sg107
F0.0006411075592041016
sg108
I5
sg109
I5
sasS'total_cqs'
p111
I7
ssI13
(dp112
S'iters'
p113
I0
sS'meta'
p114
(lp115
sS'total_cqs'
p116
I1
ssI14
(dp117
S'iters'
p118
I3
sS'meta'
p119
(lp120
(dp121
S'objective'
p122
I133
sS'query_time'
p123
F323.34667015075684
sS'comp_time'
p124
F1.5273430347442627
sS'exec_cq'
p125
I25
sS'total_cq'
p126
I25
sa(dp127
g122
I167
sg123
F0.1812279224395752
sg124
F0.790287971496582
sg125
I17
sg126
I17
sa(dp128
g122
I148
sg123
F0.016414165496826172
sg124
F0.2674078941345215
sg125
I15
sg126
I15
sasS'total_cqs'
p129
I25
ssI15
(dp130
S'iters'
p131
I2
sS'meta'
p132
(lp133
(dp134
S'objective'
p135
I55
sS'query_time'
p136
F71.76009202003479
sS'comp_time'
p137
F0.03183317184448242
sS'exec_cq'
p138
I13
sS'total_cq'
p139
I13
sa(dp140
g135
I47
sg136
F6.699562072753906e-05
sg137
F0.005360841751098633
sg138
I11
sg139
I11
sasS'total_cqs'
p141
I13
ssI16
(dp142
S'iters'
p143
I3
sS'meta'
p144
(lp145
(dp146
S'objective'
p147
I99
sS'query_time'
p148
F229.17908787727356
sS'comp_time'
p149
F1.5129663944244385
sS'exec_cq'
p150
I17
sS'total_cq'
p151
I17
sa(dp152
g147
I66
sg148
F8.082389831542969e-05
sg149
F0.33182787895202637
sg150
I13
sg151
I13
sa(dp153
g147
I4
sg148
F2.6941299438476562e-05
sg149
F0.08422088623046875
sg150
I3
sg151
I3
sasS'total_cqs'
p154
I17
ssI17
(dp155
S'iters'
p156
I2
sS'meta'
p157
(lp158
(dp159
S'objective'
p160
I76
sS'query_time'
p161
F50.731525897979736
sS'comp_time'
p162
F0.03745293617248535
sS'exec_cq'
p163
I16
sS'total_cq'
p164
I16
sa(dp165
g160
I2
sg161
F2.288818359375e-05
sg162
F0.008366107940673828
sg163
I2
sg164
I2
sasS'total_cqs'
p166
I16
ssI18
(dp167
S'iters'
p168
I5
sS'meta'
p169
(lp170
(dp171
S'objective'
p172
I144
sS'query_time'
p173
F443.95069313049316
sS'comp_time'
p174
F2.8476881980895996
sS'exec_cq'
p175
I20
sS'total_cq'
p176
I20
sa(dp177
g172
I119
sg173
F0.2714121341705322
sg174
F1.90122389793396
sg175
I17
sg176
I17
sa(dp178
g172
I92
sg173
F0.21336889266967773
sg174
F1.4102609157562256
sg175
I15
sg176
I15
sa(dp179
g172
I50
sg173
F0.18298602104187012
sg174
F1.4767212867736816
sg175
I13
sg176
I13
sa(dp180
g172
I5
sg173
F2.5033950805664062e-05
sg174
F0.0089569091796875
sg175
I2
sg176
I2
sasS'total_cqs'
p181
I20
ssI19
(dp182
S'iters'
p183
I4
sS'meta'
p184
(lp185
(dp186
S'objective'
p187
I3430
sS'query_time'
p188
F1344.1022820472717
sS'comp_time'
p189
F11.152156114578247
sS'exec_cq'
p190
I88
sS'total_cq'
p191
I88
sa(dp192
g187
I3279
sg188
F1.8117828369140625
sg189
F9.640497922897339
sg190
I83
sg191
I83
sa(dp193
g187
I3294
sg188
F1.1822750568389893
sg189
F6.81682276725769
sg190
I80
sg191
I80
sa(dp194
g187
I85
sg188
F3.600120544433594e-05
sg189
F0.02573418617248535
sg190
I2
sg191
I2
sasS'total_cqs'
p195
I88
ssI148
(dp196
S'iters'
p197
I7
sS'meta'
p198
(lp199
(dp200
S'objective'
p201
I54232
sS'query_time'
p202
F133.94296789169312
sS'comp_time'
p203
F0.016061782836914062
sS'exec_cq'
p204
I359
sS'total_cq'
p205
I359
sa(dp206
g201
I50654
sg202
F0.0019609928131103516
sg203
F0.032334089279174805
sg204
I333
sg205
I333
sa(dp207
g201
I49704
sg202
F0.0019359588623046875
sg203
F0.004005908966064453
sg204
I308
sg205
I308
sa(dp208
g201
I50602
sg202
F0.0011620521545410156
sg203
F0.002613067626953125
sg204
I292
sg205
I292
sa(dp209
g201
I50163
sg202
F0.0010650157928466797
sg203
F0.0020837783813476562
sg204
I288
sg205
I288
sa(dp210
g201
I49917
sg202
F0.0009000301361083984
sg203
F0.0013048648834228516
sg204
I284
sg205
I284
sa(dp211
g201
I49653
sg202
F0.0010330677032470703
sg203
F0.0012819766998291016
sg204
I282
sg205
I282
sasS'total_cqs'
p212
I359
ssI21
(dp213
S'iters'
p214
I1
sS'meta'
p215
(lp216
(dp217
S'objective'
p218
I5
sS'query_time'
p219
F42.400694847106934
sS'comp_time'
p220
F0.00999307632446289
sS'exec_cq'
p221
I5
sS'total_cq'
p222
I5
sasS'total_cqs'
p223
I5
ssI22
(dp224
S'iters'
p225
I1
sS'meta'
p226
(lp227
(dp228
S'objective'
p229
I0
sS'query_time'
p230
F51.211244106292725
sS'comp_time'
p231
F1.1050639152526855
sS'exec_cq'
p232
I3
sS'total_cq'
p233
I3
sasS'total_cqs'
p234
I3
ssI23
(dp235
S'iters'
p236
I0
sS'meta'
p237
(lp238
sS'total_cqs'
p239
I1
ssI24
(dp240
S'iters'
p241
I1
sS'meta'
p242
(lp243
(dp244
S'objective'
p245
I0
sS'query_time'
p246
F47.29213309288025
sS'comp_time'
p247
F0.08802580833435059
sS'exec_cq'
p248
I3
sS'total_cq'
p249
I3
sasS'total_cqs'
p250
I3
ssI25
(dp251
S'iters'
p252
I1
sS'meta'
p253
(lp254
(dp255
S'objective'
p256
I0
sS'query_time'
p257
F20.100378036499023
sS'comp_time'
p258
F0.027604103088378906
sS'exec_cq'
p259
I3
sS'total_cq'
p260
I3
sasS'total_cqs'
p261
I3
ssI26
(dp262
S'iters'
p263
I0
sS'meta'
p264
(lp265
sS'total_cqs'
p266
I1
ssI27
(dp267
S'iters'
p268
I0
sS'meta'
p269
(lp270
sS'total_cqs'
p271
I1
ssI28
(dp272
S'iters'
p273
I0
sS'meta'
p274
(lp275
sS'total_cqs'
p276
I1
ssI29
(dp277
S'iters'
p278
I1
sS'meta'
p279
(lp280
(dp281
S'objective'
p282
I14
sS'query_time'
p283
F80.11482095718384
sS'comp_time'
p284
F0.0003647804260253906
sS'exec_cq'
p285
I7
sS'total_cq'
p286
I7
sasS'total_cqs'
p287
I7
ssI30
(dp288
S'iters'
p289
I2
sS'meta'
p290
(lp291
(dp292
S'objective'
p293
I6
sS'query_time'
p294
F80.18929696083069
sS'comp_time'
p295
F0.0009882450103759766
sS'exec_cq'
p296
I7
sS'total_cq'
p297
I7
sa(dp298
g293
I3
sg294
F8.392333984375e-05
sg295
F0.004043102264404297
sg296
I5
sg297
I5
sasS'total_cqs'
p299
I7
ssI31
(dp300
S'iters'
p301
I2
sS'meta'
p302
(lp303
(dp304
S'objective'
p305
I9
sS'query_time'
p306
F20.53015112876892
sS'comp_time'
p307
F0.004964113235473633
sS'exec_cq'
p308
I10
sS'total_cq'
p309
I10
sa(dp310
g305
I3
sg306
F0.00015497207641601562
sg307
F0.0019409656524658203
sg308
I3
sg309
I3
sasS'total_cqs'
p311
I10
ssI32
(dp312
S'iters'
p313
I2
sS'meta'
p314
(lp315
(dp316
S'objective'
p317
I17
sS'query_time'
p318
F3.278697967529297
sS'comp_time'
p319
F0.017978191375732422
sS'exec_cq'
p320
I10
sS'total_cq'
p321
I10
sa(dp322
g317
I1
sg318
F0.002101898193359375
sg319
F0.01452183723449707
sg320
I2
sg321
I2
sasS'total_cqs'
p323
I10
ssI33
(dp324
S'iters'
p325
I2
sS'meta'
p326
(lp327
(dp328
S'objective'
p329
I14
sS'query_time'
p330
F5.049280166625977
sS'comp_time'
p331
F0.004601001739501953
sS'exec_cq'
p332
I11
sS'total_cq'
p333
I11
sa(dp334
g329
I4
sg330
F0.0003719329833984375
sg331
F0.0037500858306884766
sg332
I4
sg333
I4
sasS'total_cqs'
p335
I11
ssI34
(dp336
S'iters'
p337
I4
sS'meta'
p338
(lp339
(dp340
S'objective'
p341
I1601
sS'query_time'
p342
F492.77141404151917
sS'comp_time'
p343
F1.3063888549804688
sS'exec_cq'
p344
I70
sS'total_cq'
p345
I70
sa(dp346
g341
I1273
sg342
F0.003812074661254883
sg343
F2.683192014694214
sg344
I58
sg345
I58
sa(dp347
g341
I1466
sg342
F0.003606081008911133
sg343
F0.25301408767700195
sg344
I48
sg345
I48
sa(dp348
g341
I1422
sg342
F0.001878976821899414
sg343
F0.021477937698364258
sg344
I45
sg345
I45
sasS'total_cqs'
p349
I70
ssI35
(dp350
S'iters'
p351
I5
sS'meta'
p352
(lp353
(dp354
S'objective'
p355
I1471
sS'query_time'
p356
F502.86681509017944
sS'comp_time'
p357
F5.358414888381958
sS'exec_cq'
p358
I70
sS'total_cq'
p359
I70
sa(dp360
g355
I954
sg356
F0.8375539779663086
sg357
F2.104445219039917
sg358
I59
sg359
I59
sa(dp361
g355
I950
sg356
F0.00782012939453125
sg357
F0.06448173522949219
sg358
I43
sg359
I43
sa(dp362
g355
I942
sg356
F0.007393836975097656
sg357
F0.08402609825134277
sg358
I33
sg359
I33
sa(dp363
g355
I935
sg356
F0.006348133087158203
sg357
F0.12877583503723145
sg358
I29
sg359
I29
sasS'total_cqs'
p364
I70
ssI36
(dp365
S'iters'
p366
I2
sS'meta'
p367
(lp368
(dp369
S'objective'
p370
I69
sS'query_time'
p371
F23.92254114151001
sS'comp_time'
p372
F0.005071163177490234
sS'exec_cq'
p373
I17
sS'total_cq'
p374
I17
sa(dp375
g370
I8
sg371
F3.0040740966796875e-05
sg372
F0.00012421607971191406
sg373
I5
sg374
I5
sasS'total_cqs'
p376
I17
ssI134
(dp377
S'iters'
p378
I1
sS'meta'
p379
(lp380
(dp381
S'objective'
p382
I1
sS'query_time'
p383
F20.838186979293823
sS'comp_time'
p384
F1.1317782402038574
sS'exec_cq'
p385
I2
sS'total_cq'
p386
I2
sasS'total_cqs'
p387
I2
ssI38
(dp388
S'iters'
p389
I4
sS'meta'
p390
(lp391
(dp392
S'objective'
p393
I1048
sS'query_time'
p394
F108.42853307723999
sS'comp_time'
p395
F1.4743931293487549
sS'exec_cq'
p396
I59
sS'total_cq'
p397
I59
sa(dp398
g393
I755
sg394
F0.0018391609191894531
sg395
F0.020069122314453125
sg396
I49
sg397
I49
sa(dp399
g393
I606
sg394
F0.0018529891967773438
sg395
F0.010892868041992188
sg396
I39
sg397
I39
sa(dp400
g393
I726
sg394
F0.0011620521545410156
sg395
F0.010592937469482422
sg396
I31
sg397
I31
sasS'total_cqs'
p401
I59
ssI39
(dp402
S'iters'
p403
I4
sS'meta'
p404
(lp405
(dp406
S'objective'
p407
I2100
sS'query_time'
p408
F161.28791689872742
sS'comp_time'
p409
F0.10856389999389648
sS'exec_cq'
p410
I79
sS'total_cq'
p411
I79
sa(dp412
g407
I1872
sg408
F0.05529499053955078
sg409
F0.06232881546020508
sg410
I69
sg411
I69
sa(dp413
g407
I1539
sg408
F0.07986712455749512
sg409
F0.18043994903564453
sg410
I59
sg411
I59
sa(dp414
g407
I1737
sg408
F0.0008680820465087891
sg409
F0.010313987731933594
sg410
I47
sg411
I47
sasS'total_cqs'
p415
I79
ssI40
(dp416
S'iters'
p417
I4
sS'meta'
p418
(lp419
(dp420
S'objective'
p421
I1510
sS'query_time'
p422
F150.9052610397339
sS'comp_time'
p423
F0.2567019462585449
sS'exec_cq'
p424
I83
sS'total_cq'
p425
I83
sa(dp426
g421
I1554
sg422
F0.0006389617919921875
sg423
F0.002566099166870117
sg424
I60
sg425
I60
sa(dp427
g421
I1258
sg422
F0.00045299530029296875
sg423
F0.0023348331451416016
sg424
I48
sg425
I48
sa(dp428
g421
I1476
sg422
F0.00021910667419433594
sg423
F0.0011930465698242188
sg424
I37
sg425
I37
sasS'total_cqs'
p429
I83
ssI41
(dp430
S'iters'
p431
I1
sS'meta'
p432
(lp433
(dp434
S'objective'
p435
I5
sS'query_time'
p436
F40.34783387184143
sS'comp_time'
p437
F0.011391162872314453
sS'exec_cq'
p438
I5
sS'total_cq'
p439
I5
sasS'total_cqs'
p440
I5
ssI42
(dp441
S'iters'
p442
I1
sS'meta'
p443
(lp444
(dp445
S'objective'
p446
I0
sS'query_time'
p447
F62.87216305732727
sS'comp_time'
p448
F1.4365949630737305
sS'exec_cq'
p449
I3
sS'total_cq'
p450
I3
sasS'total_cqs'
p451
I3
ssI43
(dp452
S'iters'
p453
I1
sS'meta'
p454
(lp455
(dp456
S'objective'
p457
I5
sS'query_time'
p458
F0.5402560234069824
sS'comp_time'
p459
F0.05544900894165039
sS'exec_cq'
p460
I5
sS'total_cq'
p461
I5
sasS'total_cqs'
p462
I5
ssI44
(dp463
S'iters'
p464
I2
sS'meta'
p465
(lp466
(dp467
S'objective'
p468
I7
sS'query_time'
p469
F84.86564517021179
sS'comp_time'
p470
F0.0407719612121582
sS'exec_cq'
p471
I10
sS'total_cq'
p472
I10
sa(dp473
g468
I4
sg469
F2.7894973754882812e-05
sg470
F0.0033500194549560547
sg471
I4
sg472
I4
sasS'total_cqs'
p474
I10
ssI45
(dp475
S'iters'
p476
I0
sS'meta'
p477
(lp478
sS'total_cqs'
p479
I1
ssI46
(dp480
S'iters'
p481
I1
sS'meta'
p482
(lp483
(dp484
S'objective'
p485
I1
sS'query_time'
p486
F2.398411989212036
sS'comp_time'
p487
F0.08669114112854004
sS'exec_cq'
p488
I2
sS'total_cq'
p489
I2
sasS'total_cqs'
p490
I2
ssI47
(dp491
S'iters'
p492
I0
sS'meta'
p493
(lp494
sS'total_cqs'
p495
I1
ssI48
(dp496
S'iters'
p497
I0
sS'meta'
p498
(lp499
sS'total_cqs'
p500
I1
ssI49
(dp501
S'iters'
p502
I2
sS'meta'
p503
(lp504
(dp505
S'objective'
p506
I2
sS'query_time'
p507
F60.16241693496704
sS'comp_time'
p508
F0.595444917678833
sS'exec_cq'
p509
I3
sS'total_cq'
p510
I3
sa(dp511
g506
I2
sg507
F2.002716064453125e-05
sg508
F0.4348728656768799
sg509
I2
sg510
I2
sasS'total_cqs'
p512
I3
ssI50
(dp513
S'iters'
p514
I2
sS'meta'
p515
(lp516
(dp517
S'objective'
p518
I28
sS'query_time'
p519
F22.21366596221924
sS'comp_time'
p520
F2.3940370082855225
sS'exec_cq'
p521
I12
sS'total_cq'
p522
I12
sa(dp523
g518
I29
sg519
F8.893013000488281e-05
sg520
F0.0002028942108154297
sg521
I9
sg522
I9
sasS'total_cqs'
p524
I12
ssI51
(dp525
S'iters'
p526
I2
sS'meta'
p527
(lp528
(dp529
S'objective'
p530
I26
sS'query_time'
p531
F41.02591395378113
sS'comp_time'
p532
F0.007430076599121094
sS'exec_cq'
p533
I12
sS'total_cq'
p534
I12
sa(dp535
g530
I2
sg531
F4.482269287109375e-05
sg532
F0.0013768672943115234
sg533
I4
sg534
I4
sasS'total_cqs'
p536
I12
ssI52
(dp537
S'iters'
p538
I2
sS'meta'
p539
(lp540
(dp541
S'objective'
p542
I22
sS'query_time'
p543
F2.8986921310424805
sS'comp_time'
p544
F0.0013737678527832031
sS'exec_cq'
p545
I12
sS'total_cq'
p546
I12
sa(dp547
g542
I4
sg543
F0.00013709068298339844
sg544
F0.0006411075592041016
sg545
I4
sg546
I4
sasS'total_cqs'
p548
I12
ssI53
(dp549
S'iters'
p550
I1
sS'meta'
p551
(lp552
(dp553
S'objective'
p554
I0
sS'query_time'
p555
F80.02468705177307
sS'comp_time'
p556
F0.012356042861938477
sS'exec_cq'
p557
I3
sS'total_cq'
p558
I3
sasS'total_cqs'
p559
I3
ssI54
(dp560
S'iters'
p561
I1
sS'meta'
p562
(lp563
(dp564
S'objective'
p565
I5
sS'query_time'
p566
F86.29759383201599
sS'comp_time'
p567
F0.03821086883544922
sS'exec_cq'
p568
I5
sS'total_cq'
p569
I5
sasS'total_cqs'
p570
I5
ssI55
(dp571
S'iters'
p572
I2
sS'meta'
p573
(lp574
(dp575
S'objective'
p576
I17
sS'query_time'
p577
F193.0188729763031
sS'comp_time'
p578
F0.03921222686767578
sS'exec_cq'
p579
I10
sS'total_cq'
p580
I10
sa(dp581
g576
I1
sg577
F0.005341053009033203
sg578
F0.03471183776855469
sg579
I2
sg580
I2
sasS'total_cqs'
p582
I10
ssI56
(dp583
S'iters'
p584
I2
sS'meta'
p585
(lp586
(dp587
S'objective'
p588
I5
sS'query_time'
p589
F44.135578870773315
sS'comp_time'
p590
F1.1421799659729004
sS'exec_cq'
p591
I6
sS'total_cq'
p592
I6
sa(dp593
g588
I1
sg589
F0.132673978805542
sg590
F0.41373705863952637
sg591
I4
sg592
I4
sasS'total_cqs'
p594
I6
ssI57
(dp595
S'iters'
p596
I3
sS'meta'
p597
(lp598
(dp599
S'objective'
p600
I286
sS'query_time'
p601
F31.778295040130615
sS'comp_time'
p602
F0.2476959228515625
sS'exec_cq'
p603
I27
sS'total_cq'
p604
I27
sa(dp605
g600
I246
sg601
F0.02524113655090332
sg602
F0.2153768539428711
sg603
I25
sg604
I25
sa(dp606
g600
I235
sg601
F0.015606880187988281
sg602
F0.1801159381866455
sg603
I21
sg604
I21
sasS'total_cqs'
p607
I27
ssI58
(dp608
S'iters'
p609
I2
sS'meta'
p610
(lp611
(dp612
S'objective'
p613
I7
sS'query_time'
p614
F53.92364192008972
sS'comp_time'
p615
F0.3321371078491211
sS'exec_cq'
p616
I10
sS'total_cq'
p617
I10
sa(dp618
g613
I4
sg614
F0.021728038787841797
sg615
F0.24801206588745117
sg616
I4
sg617
I4
sasS'total_cqs'
p619
I10
ssI59
(dp620
S'iters'
p621
I5
sS'meta'
p622
(lp623
(dp624
S'objective'
p625
I776
sS'query_time'
p626
F307.35809206962585
sS'comp_time'
p627
F5.81663703918457
sS'exec_cq'
p628
I59
sS'total_cq'
p629
I59
sa(dp630
g625
I579
sg626
F0.773845911026001
sg627
F4.457036972045898
sg628
I41
sg629
I41
sa(dp631
g625
I506
sg626
F0.4875450134277344
sg627
F2.807982921600342
sg628
I32
sg629
I32
sa(dp632
g625
I532
sg626
F0.4946739673614502
sg627
F2.7493808269500732
sg628
I24
sg629
I24
sa(dp633
g625
I506
sg626
F0.4897608757019043
sg627
F2.110051155090332
sg628
I22
sg629
I22
sasS'total_cqs'
p634
I59
ssI60
(dp635
S'iters'
p636
I2
sS'meta'
p637
(lp638
(dp639
S'objective'
p640
I46
sS'query_time'
p641
F53.58439493179321
sS'comp_time'
p642
F0.617095947265625
sS'exec_cq'
p643
I15
sS'total_cq'
p644
I15
sa(dp645
g640
I7
sg641
F6.508827209472656e-05
sg642
F0.00047898292541503906
sg643
I3
sg644
I3
sasS'total_cqs'
p646
I15
ssI61
(dp647
S'iters'
p648
I2
sS'meta'
p649
(lp650
(dp651
S'objective'
p652
I27
sS'query_time'
p653
F52.82434296607971
sS'comp_time'
p654
F0.05545496940612793
sS'exec_cq'
p655
I17
sS'total_cq'
p656
I17
sa(dp657
g652
I29
sg653
F6.103515625e-05
sg654
F0.00025916099548339844
sg655
I6
sg656
I6
sasS'total_cqs'
p658
I17
ssI62
(dp659
S'iters'
p660
I6
sS'meta'
p661
(lp662
(dp663
S'objective'
p664
I8477
sS'query_time'
p665
F694.0542509555817
sS'comp_time'
p666
F4.683699131011963
sS'exec_cq'
p667
I158
sS'total_cq'
p668
I158
sa(dp669
g664
I6979
sg665
F0.11673617362976074
sg666
F0.17071318626403809
sg667
I137
sg668
I137
sa(dp670
g664
I5397
sg665
F0.09985113143920898
sg666
F5.430100917816162
sg667
I115
sg668
I115
sa(dp671
g664
I5327
sg665
F0.005873918533325195
sg666
F0.555778980255127
sg667
I92
sg668
I92
sa(dp672
g664
I5828
sg665
F0.0006148815155029297
sg666
F0.004377841949462891
sg667
I82
sg668
I82
sa(dp673
g664
I5698
sg665
F0.0005640983581542969
sg666
F0.006378889083862305
sg667
I80
sg668
I80
sasS'total_cqs'
p674
I158
ssI63
(dp675
S'iters'
p676
I5
sS'meta'
p677
(lp678
(dp679
S'objective'
p680
I2093
sS'query_time'
p681
F268.47837710380554
sS'comp_time'
p682
F0.08550500869750977
sS'exec_cq'
p683
I77
sS'total_cq'
p684
I77
sa(dp685
g680
I1664
sg681
F0.0790708065032959
sg682
F0.6098589897155762
sg683
I67
sg684
I67
sa(dp686
g680
I1470
sg681
F0.0012249946594238281
sg682
F0.008649110794067383
sg683
I56
sg684
I56
sa(dp687
g680
I1614
sg681
F0.0007939338684082031
sg682
F0.25172972679138184
sg683
I46
sg684
I46
sa(dp688
g680
I1547
sg681
F0.0010828971862792969
sg682
F0.008782148361206055
sg683
I44
sg684
I44
sasS'total_cqs'
p689
I77
ssI64
(dp690
S'iters'
p691
I9
sS'meta'
p692
(lp693
(dp694
S'objective'
p695
I8158
sS'query_time'
p696
F927.2055571079254
sS'comp_time'
p697
F9.318779945373535
sS'exec_cq'
p698
I135
sS'total_cq'
p699
I135
sa(dp700
g695
I8165
sg696
F0.49460601806640625
sg697
F5.244723081588745
sg698
I129
sg699
I129
sa(dp701
g695
I7981
sg696
F0.916795015335083
sg697
F4.348758935928345
sg698
I127
sg699
I127
sa(dp702
g695
I7809
sg696
F0.958935022354126
sg697
F4.698652982711792
sg698
I125
sg699
I125
sa(dp703
g695
I7634
sg696
F0.8687300682067871
sg697
F5.040167808532715
sg698
I123
sg699
I123
sa(dp704
g695
I7499
sg696
F1.0094988346099854
sg697
F4.31391716003418
sg698
I121
sg699
I121
sa(dp705
g695
I7359
sg696
F0.969012975692749
sg697
F4.319687128067017
sg698
I119
sg699
I119
sa(dp706
g695
I7231
sg696
F0.9570930004119873
sg697
F5.486304998397827
sg698
I117
sg699
I117
sa(dp707
g695
I7100
sg696
F0.05579686164855957
sg697
F1.3030378818511963
sg698
I114
sg699
I114
sasS'total_cqs'
p708
I135
ssI65
(dp709
S'iters'
p710
I2
sS'meta'
p711
(lp712
(dp713
S'objective'
p714
I287
sS'query_time'
p715
F269.4995861053467
sS'comp_time'
p716
F0.03813290596008301
sS'exec_cq'
p717
I26
sS'total_cq'
p718
I26
sa(dp719
g714
I267
sg715
F0.0003898143768310547
sg716
F0.010612010955810547
sg717
I24
sg718
I24
sasS'total_cqs'
p720
I26
ssI66
(dp721
S'iters'
p722
I4
sS'meta'
p723
(lp724
(dp725
S'objective'
p726
I193
sS'query_time'
p727
F176.22311401367188
sS'comp_time'
p728
F0.28267621994018555
sS'exec_cq'
p729
I25
sS'total_cq'
p730
I25
sa(dp731
g726
I201
sg727
F0.006582021713256836
sg728
F0.05817604064941406
sg729
I21
sg730
I21
sa(dp732
g726
I178
sg727
F0.00580286979675293
sg728
F0.09820294380187988
sg729
I19
sg730
I19
sa(dp733
g726
I154
sg727
F0.004790067672729492
sg728
F0.0467839241027832
sg729
I17
sg730
I17
sasS'total_cqs'
p734
I25
ssI67
(dp735
S'iters'
p736
I2
sS'meta'
p737
(lp738
(dp739
S'objective'
p740
I263
sS'query_time'
p741
F3.6802680492401123
sS'comp_time'
p742
F0.37837791442871094
sS'exec_cq'
p743
I25
sS'total_cq'
p744
I25
sa(dp745
g740
I244
sg741
F0.01994919776916504
sg742
F0.28484201431274414
sg743
I23
sg744
I23
sasS'total_cqs'
p746
I25
ssI68
(dp747
S'iters'
p748
I5
sS'meta'
p749
(lp750
(dp751
S'objective'
p752
I1771
sS'query_time'
p753
F23.9483540058136
sS'comp_time'
p754
F0.006186008453369141
sS'exec_cq'
p755
I73
sS'total_cq'
p756
I73
sa(dp757
g752
I1446
sg753
F0.0007379055023193359
sg754
F0.0039081573486328125
sg755
I62
sg756
I62
sa(dp758
g752
I1117
sg753
F0.0006079673767089844
sg754
F0.0035719871520996094
sg755
I53
sg756
I53
sa(dp759
g752
I765
sg753
F0.0003859996795654297
sg754
F0.0027399063110351562
sg755
I43
sg756
I43
sa(dp760
g752
I976
sg753
F0.0003771781921386719
sg754
F0.004380941390991211
sg755
I32
sg756
I32
sasS'total_cqs'
p761
I73
ssI69
(dp762
S'iters'
p763
I5
sS'meta'
p764
(lp765
(dp766
S'objective'
p767
I1612
sS'query_time'
p768
F39.837135791778564
sS'comp_time'
p769
F0.009214639663696289
sS'exec_cq'
p770
I72
sS'total_cq'
p771
I72
sa(dp772
g767
I1372
sg768
F0.0010750293731689453
sg769
F0.004617929458618164
sg770
I60
sg771
I60
sa(dp773
g767
I1032
sg768
F0.0008878707885742188
sg769
F0.0035119056701660156
sg770
I50
sg771
I50
sa(dp774
g767
I805
sg768
F0.00029015541076660156
sg769
F0.0013458728790283203
sg770
I39
sg771
I39
sa(dp775
g767
I953
sg768
F0.00019311904907226562
sg769
F0.00109100341796875
sg770
I27
sg771
I27
sasS'total_cqs'
p776
I72
ssI70
(dp777
S'iters'
p778
I9
sS'meta'
p779
(lp780
(dp781
S'objective'
p782
I5633
sS'query_time'
p783
F913.8631219863892
sS'comp_time'
p784
F6.143583297729492
sS'exec_cq'
p785
I109
sS'total_cq'
p786
I109
sa(dp787
g782
I5470
sg783
F0.8560130596160889
sg784
F5.1727001667022705
sg785
I106
sg786
I106
sa(dp788
g782
I5308
sg783
F0.6995692253112793
sg784
F4.949487924575806
sg785
I104
sg786
I104
sa(dp789
g782
I5189
sg783
F0.1281728744506836
sg784
F3.3026928901672363
sg785
I100
sg786
I100
sa(dp790
g782
I5076
sg783
F0.47917890548706055
sg784
F1.8403971195220947
sg785
I97
sg786
I97
sa(dp791
g782
I4956
sg783
F0.20875191688537598
sg784
F1.2538809776306152
sg785
I95
sg786
I95
sa(dp792
g782
I4852
sg783
F0.19826912879943848
sg784
F1.1600821018218994
sg785
I93
sg786
I93
sa(dp793
g782
I4746
sg783
F0.17088580131530762
sg784
F1.1976568698883057
sg785
I91
sg786
I91
sa(dp794
g782
I4638
sg783
F0.20727109909057617
sg784
F2.3106839656829834
sg785
I89
sg786
I89
sasS'total_cqs'
p795
I109
ssI71
(dp796
S'iters'
p797
I23
sS'meta'
p798
(lp799
(dp800
S'objective'
p801
I156882
sS'query_time'
p802
F1183.3987588882446
sS'comp_time'
p803
F36.90693712234497
sS'exec_cq'
p804
I568
sS'total_cq'
p805
I568
sa(dp806
g801
I155059
sg802
F10.629086971282959
sg803
F30.271834135055542
sg804
I562
sg805
I562
sa(dp807
g801
I154335
sg802
F7.241518020629883
sg803
F30.654824018478394
sg804
I554
sg805
I554
sa(dp808
g801
I153696
sg802
F7.11590313911438
sg803
F25.776844024658203
sg804
I549
sg805
I549
sa(dp809
g801
I152711
sg802
F4.9784040451049805
sg803
F26.46586799621582
sg804
I547
sg805
I547
sa(dp810
g801
I151707
sg802
F7.239106893539429
sg803
F25.745791912078857
sg804
I545
sg805
I545
sa(dp811
g801
I150791
sg802
F5.1055519580841064
sg803
F25.072155952453613
sg804
I543
sg805
I543
sa(dp812
g801
I149889
sg802
F4.41599702835083
sg803
F24.30452299118042
sg804
I541
sg805
I541
sa(dp813
g801
I149018
sg802
F5.342413902282715
sg803
F22.93398404121399
sg804
I538
sg805
I538
sa(dp814
g801
I148141
sg802
F5.671215057373047
sg803
F23.24441885948181
sg804
I536
sg805
I536
sa(dp815
g801
I147382
sg802
F5.786857843399048
sg803
F22.6054630279541
sg804
I534
sg805
I534
sa(dp816
g801
I146560
sg802
F5.638627052307129
sg803
F22.832658767700195
sg804
I532
sg805
I532
sa(dp817
g801
I145869
sg802
F3.0715010166168213
sg803
F18.01809024810791
sg804
I530
sg805
I530
sa(dp818
g801
I145170
sg802
F2.820850133895874
sg803
F17.608716011047363
sg804
I528
sg805
I528
sa(dp819
g801
I144462
sg802
F3.790522813796997
sg803
F19.73345422744751
sg804
I526
sg805
I526
sa(dp820
g801
I143776
sg802
F3.9587960243225098
sg803
F18.288229942321777
sg804
I524
sg805
I524
sa(dp821
g801
I143138
sg802
F3.807399034500122
sg803
F18.964076042175293
sg804
I522
sg805
I522
sa(dp822
g801
I142484
sg802
F3.9471800327301025
sg803
F17.9201979637146
sg804
I518
sg805
I518
sa(dp823
g801
I141888
sg802
F3.7782201766967773
sg803
F17.880213260650635
sg804
I516
sg805
I516
sa(dp824
g801
I141297
sg802
F3.3158600330352783
sg803
F17.40978693962097
sg804
I514
sg805
I514
sa(dp825
g801
I140755
sg802
F3.782586097717285
sg803
F17.91364884376526
sg804
I512
sg805
I512
sa(dp826
g801
I140191
sg802
F3.2955989837646484
sg803
F18.03526496887207
sg804
I510
sg805
I510
sa(dp827
g801
I139625
sg802
F4.2266459465026855
sg803
F17.621357917785645
sg804
I508
sg805
I508
sasS'total_cqs'
p828
I568
ssI72
(dp829
S'iters'
p830
I3
sS'meta'
p831
(lp832
(dp833
S'objective'
p834
I7529
sS'query_time'
p835
F1154.9622249603271
sS'comp_time'
p836
F0.07141900062561035
sS'exec_cq'
p837
I125
sS'total_cq'
p838
I125
sa(dp839
g834
I7412
sg835
F0.0046160221099853516
sg836
F0.07443022727966309
sg837
I123
sg838
I123
sa(dp840
g834
I7307
sg835
F0.021683216094970703
sg836
F0.08755803108215332
sg837
I121
sg838
I121
sasS'total_cqs'
p841
I125
ssI73
(dp842
S'iters'
p843
I8
sS'meta'
p844
(lp845
(dp846
S'objective'
p847
I7505
sS'query_time'
p848
F900.3589289188385
sS'comp_time'
p849
F0.7681078910827637
sS'exec_cq'
p850
I125
sS'total_cq'
p851
I125
sa(dp852
g847
I7368
sg848
F0.10503602027893066
sg849
F0.6075708866119385
sg850
I123
sg851
I123
sa(dp853
g847
I7211
sg848
F0.10892009735107422
sg849
F0.5789790153503418
sg850
I121
sg851
I121
sa(dp854
g847
I6826
sg848
F0.1306459903717041
sg849
F0.6511399745941162
sg850
I119
sg851
I119
sa(dp855
g847
I6824
sg848
F0.09601497650146484
sg849
F0.5039489269256592
sg850
I116
sg851
I116
sa(dp856
g847
I6693
sg848
F0.029687881469726562
sg849
F0.4065539836883545
sg850
I114
sg851
I114
sa(dp857
g847
I6567
sg848
F0.028379201889038086
sg849
F0.41547107696533203
sg850
I112
sg851
I112
sa(dp858
g847
I6447
sg848
F0.02918219566345215
sg849
F0.4310319423675537
sg850
I110
sg851
I110
sasS'total_cqs'
p859
I125
ssI138
(dp860
S'iters'
p861
I3
sS'meta'
p862
(lp863
(dp864
S'objective'
p865
I1258
sS'query_time'
p866
F1.6963870525360107
sS'comp_time'
p867
F0.0008938312530517578
sS'exec_cq'
p868
I75
sS'total_cq'
p869
I75
sa(dp870
g865
I1814
sg866
F0.00021600723266601562
sg867
F0.0007202625274658203
sg868
I55
sg869
I55
sa(dp871
g865
I1784
sg866
F0.00014710426330566406
sg867
F0.00011515617370605469
sg868
I52
sg869
I52
sasS'total_cqs'
p872
I75
ssI141
(dp873
S'iters'
p874
I9
sS'meta'
p875
(lp876
(dp877
S'objective'
p878
I53530
sS'query_time'
p879
F498.84597277641296
sS'comp_time'
p880
F0.9348740577697754
sS'exec_cq'
p881
I383
sS'total_cq'
p882
I383
sa(dp883
g878
I52595
sg879
F0.010969877243041992
sg880
F0.10934615135192871
sg881
I337
sg882
I337
sa(dp884
g878
I48970
sg879
F0.006334066390991211
sg880
F0.1486961841583252
sg881
I308
sg882
I308
sa(dp885
g878
I50835
sg879
F0.005496978759765625
sg880
F0.10698723793029785
sg881
I284
sg882
I284
sa(dp886
g878
I49322
sg879
F0.0027120113372802734
sg880
F0.018748998641967773
sg881
I278
sg882
I278
sa(dp887
g878
I48851
sg879
F0.0019431114196777344
sg880
F0.08431816101074219
sg881
I271
sg882
I271
sa(dp888
g878
I47174
sg879
F0.0023849010467529297
sg880
F0.027309179306030273
sg881
I267
sg882
I267
sa(dp889
g878
I46169
sg879
F0.0025191307067871094
sg880
F0.010613203048706055
sg881
I258
sg882
I258
sa(dp890
g878
I46562
sg879
F0.0005838871002197266
sg880
F0.0005278587341308594
sg881
I250
sg882
I250
sasS'total_cqs'
p891
I383
ssI139
(dp892
S'iters'
p893
I7
sS'meta'
p894
(lp895
(dp896
S'objective'
p897
I78479
sS'query_time'
p898
F124.57591199874878
sS'comp_time'
p899
F5.30768895149231
sS'exec_cq'
p900
I425
sS'total_cq'
p901
I425
sa(dp902
g897
I74746
sg898
F1.0305390357971191
sg899
F5.658468961715698
sg900
I398
sg901
I398
sa(dp903
g897
I72820
sg898
F0.7995021343231201
sg899
F5.2715349197387695
sg900
I374
sg901
I374
sa(dp904
g897
I74182
sg898
F0.8564159870147705
sg899
F5.859208106994629
sg900
I355
sg901
I355
sa(dp905
g897
I73674
sg898
F1.1627681255340576
sg899
F6.994641065597534
sg900
I352
sg901
I352
sa(dp906
g897
I71760
sg898
F1.1782360076904297
sg899
F5.9142069816589355
sg900
I348
sg901
I348
sa(dp907
g897
I72249
sg898
F0.0012087821960449219
sg899
F0.000926971435546875
sg900
I342
sg901
I342
sasS'total_cqs'
p908
I425
ssI142
(dp909
S'iters'
p910
I2
sS'meta'
p911
(lp912
(dp913
S'objective'
p914
I2
sS'query_time'
p915
F61.75978899002075
sS'comp_time'
p916
F1.427812099456787
sS'exec_cq'
p917
I3
sS'total_cq'
p918
I3
sa(dp919
g914
I2
sg915
F2.002716064453125e-05
sg916
F0.0024919509887695312
sg917
I2
sg918
I2
sasS'total_cqs'
p920
I3
ssI135
(dp921
S'iters'
p922
I2
sS'meta'
p923
(lp924
(dp925
S'objective'
p926
I2
sS'query_time'
p927
F51.059293031692505
sS'comp_time'
p928
F1.5863831043243408
sS'exec_cq'
p929
I7
sS'total_cq'
p930
I7
sa(dp931
g926
I1
sg927
F0.007361173629760742
sg928
F0.18199992179870605
sg929
I3
sg930
I3
sasS'total_cqs'
p932
I7
ssI37
(dp933
S'iters'
p934
I2
sS'meta'
p935
(lp936
(dp937
S'objective'
p938
I62
sS'query_time'
p939
F17.40741991996765
sS'comp_time'
p940
F0.0007169246673583984
sS'exec_cq'
p941
I16
sS'total_cq'
p942
I16
sa(dp943
g938
I5
sg939
F4.601478576660156e-05
sg940
F0.004033088684082031
sg941
I3
sg942
I3
sasS'total_cqs'
p944
I16
ssI133
(dp945
S'iters'
p946
I1
sS'meta'
p947
(lp948
(dp949
S'objective'
p950
I1
sS'query_time'
p951
F21.698115825653076
sS'comp_time'
p952
F0.0038199424743652344
sS'exec_cq'
p953
I2
sS'total_cq'
p954
I2
sasS'total_cqs'
p955
I2
ssI140
(dp956
S'iters'
p957
I0
sS'meta'
p958
(lp959
sS'total_cqs'
p960
I1
ssI137
(dp961
S'iters'
p962
I6
sS'meta'
p963
(lp964
(dp965
S'objective'
p966
I70760
sS'query_time'
p967
F311.1811101436615
sS'comp_time'
p968
F0.6572611331939697
sS'exec_cq'
p969
I400
sS'total_cq'
p970
I400
sa(dp971
g966
I64096
sg967
F0.19724202156066895
sg968
F0.7804980278015137
sg969
I377
sg970
I377
sa(dp972
g966
I61756
sg967
F0.03285789489746094
sg968
F0.20177793502807617
sg969
I349
sg970
I349
sa(dp973
g966
I63208
sg967
F0.032176971435546875
sg968
F0.1997518539428711
sg969
I328
sg970
I328
sa(dp974
g966
I62038
sg967
F0.10372686386108398
sg968
F0.2442488670349121
sg969
I324
sg970
I324
sa(dp975
g966
I62464
sg967
F0.0013849735260009766
sg968
F0.0019979476928710938
sg969
I318
sg970
I318
sasS'total_cqs'
p976
I400
ssI136
(dp977
S'iters'
p978
I3
sS'meta'
p979
(lp980
(dp981
S'objective'
p982
I571
sS'query_time'
p983
F23.859920978546143
sS'comp_time'
p984
F0.001001119613647461
sS'exec_cq'
p985
I57
sS'total_cq'
p986
I57
sa(dp987
g982
I888
sg983
F0.00015997886657714844
sg984
F0.0004410743713378906
sg985
I35
sg986
I35
sa(dp988
g982
I886
sg983
F0.00011491775512695312
sg984
F0.00029587745666503906
sg985
I32
sg986
I32
sasS'total_cqs'
p989
I57
ss.