(dp0
I1
(dp1
S'iters'
p2
I1
sS'meta'
p3
(lp4
(dp5
S'objective'
p6
I0
sS'query_time'
p7
F0.17113494873046875
sS'comp_time'
p8
F3.314018249511719e-05
sS'exec_cq'
p9
I1
sS'total_cq'
p10
I3
sasS'total_cqs'
p11
I3
ssI2
(dp12
S'iters'
p13
I1
sS'meta'
p14
(lp15
(dp16
S'objective'
p17
I152
sS'query_time'
p18
F0.05445599555969238
sS'comp_time'
p19
F6.890296936035156e-05
sS'exec_cq'
p20
I1
sS'total_cq'
p21
I19
sasS'total_cqs'
p22
I19
ssI3
(dp23
S'iters'
p24
I1
sS'meta'
p25
(lp26
(dp27
S'objective'
p28
I1
sS'query_time'
p29
F0.1178898811340332
sS'comp_time'
p30
F3.0994415283203125e-05
sS'exec_cq'
p31
I1
sS'total_cq'
p32
I2
sasS'total_cqs'
p33
I2
ssI4
(dp34
S'iters'
p35
I1
sS'meta'
p36
(lp37
(dp38
S'objective'
p39
I1710
sS'query_time'
p40
F0.07182002067565918
sS'comp_time'
p41
F8.296966552734375e-05
sS'exec_cq'
p42
I1
sS'total_cq'
p43
I60
sasS'total_cqs'
p44
I60
ssI5
(dp45
S'iters'
p46
I1
sS'meta'
p47
(lp48
(dp49
S'objective'
p50
I8645
sS'query_time'
p51
F0.43317198753356934
sS'comp_time'
p52
F0.0001461505889892578
sS'exec_cq'
p53
I1
sS'total_cq'
p54
I133
sasS'total_cqs'
p55
I133
ssI6
(dp56
S'iters'
p57
I2
sS'meta'
p58
(lp59
(dp60
S'objective'
p61
I208
sS'query_time'
p62
F0.07245707511901855
sS'comp_time'
p63
F9.298324584960938e-05
sS'exec_cq'
p64
I1
sS'total_cq'
p65
I23
sa(dp66
g61
I12
sg62
F0.01685190200805664
sg63
F3.600120544433594e-05
sg64
I1
sg65
I3
sasS'total_cqs'
p67
I23
ssI7
(dp68
S'iters'
p69
I3
sS'meta'
p70
(lp71
(dp72
S'objective'
p73
I27286
sS'query_time'
p74
F0.256213903427124
sS'comp_time'
p75
F0.00015211105346679688
sS'exec_cq'
p76
I1
sS'total_cq'
p77
I244
sa(dp78
g73
I744
sg74
F0.0077550411224365234
sg75
F4.792213439941406e-05
sg76
I1
sg77
I8
sa(dp79
g73
I535
sg74
F0.006875038146972656
sg75
F3.910064697265625e-05
sg76
I1
sg77
I6
sasS'total_cqs'
p80
I244
ssI8
(dp81
S'iters'
p82
I1
sS'meta'
p83
(lp84
(dp85
S'objective'
p86
I3239
sS'query_time'
p87
F0.4768509864807129
sS'comp_time'
p88
F0.00012111663818359375
sS'exec_cq'
p89
I1
sS'total_cq'
p90
I82
sasS'total_cqs'
p91
I82
ssI9
(dp92
S'iters'
p93
I1
sS'meta'
p94
(lp95
(dp96
S'objective'
p97
I1
sS'query_time'
p98
F0.1767110824584961
sS'comp_time'
p99
F6.4849853515625e-05
sS'exec_cq'
p100
I1
sS'total_cq'
p101
I2
sasS'total_cqs'
p102
I2
ssI10
(dp103
S'iters'
p104
I1
sS'meta'
p105
(lp106
(dp107
S'objective'
p108
I21735
sS'query_time'
p109
F0.25441598892211914
sS'comp_time'
p110
F0.0001239776611328125
sS'exec_cq'
p111
I1
sS'total_cq'
p112
I210
sasS'total_cqs'
p113
I210
ssI11
(dp114
S'iters'
p115
I1
sS'meta'
p116
(lp117
(dp118
S'objective'
p119
I1
sS'query_time'
p120
F0.1304481029510498
sS'comp_time'
p121
F3.0994415283203125e-05
sS'exec_cq'
p122
I1
sS'total_cq'
p123
I2
sasS'total_cqs'
p124
I2
ssI12
(dp125
S'iters'
p126
I0
sS'meta'
p127
(lp128
sS'total_cqs'
p129
I1
ssI13
(dp130
S'iters'
p131
I1
sS'meta'
p132
(lp133
(dp134
S'objective'
p135
I1
sS'query_time'
p136
F0.3813619613647461
sS'comp_time'
p137
F5.507469177246094e-05
sS'exec_cq'
p138
I1
sS'total_cq'
p139
I2
sasS'total_cqs'
p140
I2
ssI14
(dp141
S'iters'
p142
I2
sS'meta'
p143
(lp144
(dp145
S'objective'
p146
I16359
sS'query_time'
p147
F0.2507469654083252
sS'comp_time'
p148
F0.00016117095947265625
sS'exec_cq'
p149
I1
sS'total_cq'
p150
I185
sa(dp151
g146
I53
sg147
F0.007586002349853516
sg148
F3.0994415283203125e-05
sg149
I1
sg150
I3
sasS'total_cqs'
p152
I185
ssI15
(dp153
S'iters'
p154
I4
sS'meta'
p155
(lp156
(dp157
S'objective'
p158
I27444
sS'query_time'
p159
F0.31359100341796875
sS'comp_time'
p160
F0.00014495849609375
sS'exec_cq'
p161
I1
sS'total_cq'
p162
I244
sa(dp163
g158
I15
sg159
F0.012372970581054688
sg160
F5.1975250244140625e-05
sg161
I1
sg162
I10
sa(dp164
g158
I596
sg159
F0.013010025024414062
sg160
F4.00543212890625e-05
sg161
I1
sg162
I6
sa(dp165
g158
I112
sg159
F0.006031036376953125
sg160
F3.981590270996094e-05
sg161
I1
sg162
I5
sasS'total_cqs'
p166
I244
ssI16
(dp167
S'iters'
p168
I3
sS'meta'
p169
(lp170
(dp171
S'objective'
p172
I70
sS'query_time'
p173
F0.4492039680480957
sS'comp_time'
p174
F7.605552673339844e-05
sS'exec_cq'
p175
I1
sS'total_cq'
p176
I23
sa(dp177
g172
I85
sg173
F0.013790130615234375
sg174
F3.886222839355469e-05
sg175
I1
sg176
I16
sa(dp178
g172
I83
sg173
F0.007649898529052734
sg174
F4.9114227294921875e-05
sg175
I1
sg176
I12
sasS'total_cqs'
p179
I23
ssI17
(dp180
S'iters'
p181
I1
sS'meta'
p182
(lp183
(dp184
S'objective'
p185
I6554
sS'query_time'
p186
F0.2605719566345215
sS'comp_time'
p187
F0.00012111663818359375
sS'exec_cq'
p188
I1
sS'total_cq'
p189
I116
sasS'total_cqs'
p190
I116
ssI18
(dp191
S'iters'
p192
I1
sS'meta'
p193
(lp194
(dp195
S'objective'
p196
I152
sS'query_time'
p197
F0.05670309066772461
sS'comp_time'
p198
F8.0108642578125e-05
sS'exec_cq'
p199
I1
sS'total_cq'
p200
I19
sasS'total_cqs'
p201
I19
ssI19
(dp202
S'iters'
p203
I3
sS'meta'
p204
(lp205
(dp206
S'objective'
p207
I1245
sS'query_time'
p208
F0.1132059097290039
sS'comp_time'
p209
F8.702278137207031e-05
sS'exec_cq'
p210
I1
sS'total_cq'
p211
I54
sa(dp212
g207
I48
sg208
F0.0054090023040771484
sg209
F3.218650817871094e-05
sg210
I1
sg211
I3
sa(dp213
g207
I24
sg208
F0.00862884521484375
sg209
F3.0994415283203125e-05
sg210
I1
sg211
I2
sasS'total_cqs'
p214
I54
ssI20
(dp215
S'iters'
p216
I1
sS'meta'
p217
(lp218
(dp219
S'objective'
p220
I1710
sS'query_time'
p221
F0.05449700355529785
sS'comp_time'
p222
F9.703636169433594e-05
sS'exec_cq'
p223
I1
sS'total_cq'
p224
I60
sasS'total_cqs'
p225
I60
ssI21
(dp226
S'iters'
p227
I1
sS'meta'
p228
(lp229
(dp230
S'objective'
p231
I945
sS'query_time'
p232
F0.4099409580230713
sS'comp_time'
p233
F8.296966552734375e-05
sS'exec_cq'
p234
I1
sS'total_cq'
p235
I45
sasS'total_cqs'
p236
I45
ssI22
(dp237
S'iters'
p238
I2
sS'meta'
p239
(lp240
(dp241
S'objective'
p242
I11
sS'query_time'
p243
F0.04960799217224121
sS'comp_time'
p244
F6.914138793945312e-05
sS'exec_cq'
p245
I1
sS'total_cq'
p246
I9
sa(dp247
g242
I1
sg243
F0.004539012908935547
sg244
F3.1948089599609375e-05
sg245
I1
sg246
I3
sasS'total_cqs'
p248
I9
ssI23
(dp249
S'iters'
p250
I1
sS'meta'
p251
(lp252
(dp253
S'objective'
p254
I1224
sS'query_time'
p255
F0.04604697227478027
sS'comp_time'
p256
F0.003098011016845703
sS'exec_cq'
p257
I1
sS'total_cq'
p258
I51
sasS'total_cqs'
p259
I51
ssI24
(dp260
S'iters'
p261
I2
sS'meta'
p262
(lp263
(dp264
S'objective'
p265
I1435758
sS'query_time'
p266
F1.3981740474700928
sS'comp_time'
p267
F0.001154184341430664
sS'exec_cq'
p268
I1
sS'total_cq'
p269
I1711
sa(dp270
g265
I11007
sg266
F0.013647079467773438
sg267
F4.982948303222656e-05
sg268
I1
sg269
I19
sasS'total_cqs'
p271
I1711
ssI25
(dp272
S'iters'
p273
I1
sS'meta'
p274
(lp275
(dp276
S'objective'
p277
I6327
sS'query_time'
p278
F0.27372288703918457
sS'comp_time'
p279
F0.00021910667419433594
sS'exec_cq'
p280
I1
sS'total_cq'
p281
I114
sasS'total_cqs'
p282
I114
ssI26
(dp283
S'iters'
p284
I1
sS'meta'
p285
(lp286
(dp287
S'objective'
p288
I54
sS'query_time'
p289
F0.057417869567871094
sS'comp_time'
p290
F6.890296936035156e-05
sS'exec_cq'
p291
I1
sS'total_cq'
p292
I12
sasS'total_cqs'
p293
I12
ssI27
(dp294
S'iters'
p295
I1
sS'meta'
p296
(lp297
(dp298
S'objective'
p299
I1
sS'query_time'
p300
F0.10862517356872559
sS'comp_time'
p301
F3.0994415283203125e-05
sS'exec_cq'
p302
I1
sS'total_cq'
p303
I2
sasS'total_cqs'
p304
I2
ssI28
(dp305
S'iters'
p306
I0
sS'meta'
p307
(lp308
sS'total_cqs'
p309
I1
ssI29
(dp310
S'iters'
p311
I1
sS'meta'
p312
(lp313
(dp314
S'objective'
p315
I8645
sS'query_time'
p316
F0.43479013442993164
sS'comp_time'
p317
F0.00011897087097167969
sS'exec_cq'
p318
I1
sS'total_cq'
p319
I133
sasS'total_cqs'
p320
I133
ssI30
(dp321
S'iters'
p322
I2
sS'meta'
p323
(lp324
(dp325
S'objective'
p326
I7887
sS'query_time'
p327
F0.12778186798095703
sS'comp_time'
p328
F0.0001590251922607422
sS'exec_cq'
p329
I1
sS'total_cq'
p330
I129
sa(dp331
g326
I9
sg327
F0.012976884841918945
sg328
F3.409385681152344e-05
sg329
I1
sg330
I3
sasS'total_cqs'
p332
I129
ssI31
(dp333
S'iters'
p334
I1
sS'meta'
p335
(lp336
(dp337
S'objective'
p338
I1539
sS'query_time'
p339
F0.03812813758850098
sS'comp_time'
p340
F6.508827209472656e-05
sS'exec_cq'
p341
I1
sS'total_cq'
p342
I57
sasS'total_cqs'
p343
I57
ssI32
(dp344
S'iters'
p345
I1
sS'meta'
p346
(lp347
(dp348
S'objective'
p349
I3239
sS'query_time'
p350
F0.49513816833496094
sS'comp_time'
p351
F0.00011992454528808594
sS'exec_cq'
p352
I1
sS'total_cq'
p353
I82
sasS'total_cqs'
p354
I82
ssI33
(dp355
S'iters'
p356
I1
sS'meta'
p357
(lp358
(dp359
S'objective'
p360
I1
sS'query_time'
p361
F0.17372608184814453
sS'comp_time'
p362
F7.009506225585938e-05
sS'exec_cq'
p363
I1
sS'total_cq'
p364
I2
sasS'total_cqs'
p365
I2
ssI34
(dp366
S'iters'
p367
I1
sS'meta'
p368
(lp369
(dp370
S'objective'
p371
I54
sS'query_time'
p372
F0.038494110107421875
sS'comp_time'
p373
F7.104873657226562e-05
sS'exec_cq'
p374
I1
sS'total_cq'
p375
I12
sasS'total_cqs'
p376
I12
ssI35
(dp377
S'iters'
p378
I2
sS'meta'
p379
(lp380
(dp381
S'objective'
p382
I5851
sS'query_time'
p383
F0.1365048885345459
sS'comp_time'
p384
F0.00014495849609375
sS'exec_cq'
p385
I1
sS'total_cq'
p386
I110
sa(dp387
g382
I93
sg383
F0.014569997787475586
sg384
F3.409385681152344e-05
sg385
I1
sg386
I2
sasS'total_cqs'
p388
I110
ssI36
(dp389
S'iters'
p390
I1
sS'meta'
p391
(lp392
(dp393
S'objective'
p394
I1890
sS'query_time'
p395
F0.04390597343444824
sS'comp_time'
p396
F0.000125885009765625
sS'exec_cq'
p397
I1
sS'total_cq'
p398
I63
sasS'total_cqs'
p399
I63
ssI37
(dp400
S'iters'
p401
I1
sS'meta'
p402
(lp403
(dp404
S'objective'
p405
I1539
sS'query_time'
p406
F0.390347957611084
sS'comp_time'
p407
F0.000102996826171875
sS'exec_cq'
p408
I1
sS'total_cq'
p409
I57
sasS'total_cqs'
p410
I57
ssI38
(dp411
S'iters'
p412
I2
sS'meta'
p413
(lp414
(dp415
S'objective'
p416
I8001
sS'query_time'
p417
F0.10309600830078125
sS'comp_time'
p418
F0.0001399517059326172
sS'exec_cq'
p419
I1
sS'total_cq'
p420
I129
sa(dp421
g416
I66
sg417
F0.013165950775146484
sg418
F3.0994415283203125e-05
sg419
I1
sg420
I3
sasS'total_cqs'
p422
I129
ssI39
(dp423
S'iters'
p424
I1
sS'meta'
p425
(lp426
(dp427
S'objective'
p428
I1
sS'query_time'
p429
F0.012179851531982422
sS'comp_time'
p430
F4.506111145019531e-05
sS'exec_cq'
p431
I1
sS'total_cq'
p432
I2
sasS'total_cqs'
p433
I2
ssI40
(dp434
S'iters'
p435
I1
sS'meta'
p436
(lp437
(dp438
S'objective'
p439
I560
sS'query_time'
p440
F0.41677403450012207
sS'comp_time'
p441
F0.0004360675811767578
sS'exec_cq'
p442
I1
sS'total_cq'
p443
I35
sasS'total_cqs'
p444
I35
ssI41
(dp445
S'iters'
p446
I1
sS'meta'
p447
(lp448
(dp449
S'objective'
p450
I1
sS'query_time'
p451
F0.17934393882751465
sS'comp_time'
p452
F7.200241088867188e-05
sS'exec_cq'
p453
I1
sS'total_cq'
p454
I2
sasS'total_cqs'
p455
I2
ssI42
(dp456
S'iters'
p457
I1
sS'meta'
p458
(lp459
(dp460
S'objective'
p461
I104
sS'query_time'
p462
F0.0407559871673584
sS'comp_time'
p463
F7.319450378417969e-05
sS'exec_cq'
p464
I1
sS'total_cq'
p465
I16
sasS'total_cqs'
p466
I16
ssI43
(dp467
S'iters'
p468
I2
sS'meta'
p469
(lp470
(dp471
S'objective'
p472
I1281
sS'query_time'
p473
F0.1066281795501709
sS'comp_time'
p474
F0.00011110305786132812
sS'exec_cq'
p475
I1
sS'total_cq'
p476
I54
sa(dp477
g472
I6
sg473
F0.0028128623962402344
sg474
F3.0994415283203125e-05
sg475
I1
sg476
I2
sasS'total_cqs'
p478
I54
ssI44
(dp479
S'iters'
p480
I0
sS'meta'
p481
(lp482
sS'total_cqs'
p483
I1
ssI45
(dp484
S'iters'
p485
I1
sS'meta'
p486
(lp487
(dp488
S'objective'
p489
I1539
sS'query_time'
p490
F0.38645482063293457
sS'comp_time'
p491
F8.20159912109375e-05
sS'exec_cq'
p492
I1
sS'total_cq'
p493
I57
sasS'total_cqs'
p494
I57
ssI46
(dp495
S'iters'
p496
I2
sS'meta'
p497
(lp498
(dp499
S'objective'
p500
I9
sS'query_time'
p501
F0.02219104766845703
sS'comp_time'
p502
F4.506111145019531e-05
sS'exec_cq'
p503
I1
sS'total_cq'
p504
I6
sa(dp505
g500
I3
sg501
F0.005782127380371094
sg502
F3.218650817871094e-05
sg503
I1
sg504
I3
sasS'total_cqs'
p506
I6
ssI47
(dp507
S'iters'
p508
I2
sS'meta'
p509
(lp510
(dp511
S'objective'
p512
I7339
sS'query_time'
p513
F0.11749601364135742
sS'comp_time'
p514
F0.00011801719665527344
sS'exec_cq'
p515
I1
sS'total_cq'
p516
I126
sa(dp517
g512
I79
sg513
F0.006203174591064453
sg514
F3.409385681152344e-05
sg515
I1
sg516
I5
sasS'total_cqs'
p518
I126
ssI48
(dp519
S'iters'
p520
I1
sS'meta'
p521
(lp522
(dp523
S'objective'
p524
I189
sS'query_time'
p525
F0.41765880584716797
sS'comp_time'
p526
F6.103515625e-05
sS'exec_cq'
p527
I1
sS'total_cq'
p528
I21
sasS'total_cqs'
p529
I21
ssI49
(dp530
S'iters'
p531
I1
sS'meta'
p532
(lp533
(dp534
S'objective'
p535
I2079
sS'query_time'
p536
F0.22280597686767578
sS'comp_time'
p537
F0.00010800361633300781
sS'exec_cq'
p538
I1
sS'total_cq'
p539
I66
sasS'total_cqs'
p540
I66
ssI50
(dp541
S'iters'
p542
I1
sS'meta'
p543
(lp544
(dp545
S'objective'
p546
I39902
sS'query_time'
p547
F0.20048785209655762
sS'comp_time'
p548
F0.00020503997802734375
sS'exec_cq'
p549
I1
sS'total_cq'
p550
I284
sasS'total_cqs'
p551
I284
ssI51
(dp552
S'iters'
p553
I1
sS'meta'
p554
(lp555
(dp556
S'objective'
p557
I1
sS'query_time'
p558
F0.08139395713806152
sS'comp_time'
p559
F3.409385681152344e-05
sS'exec_cq'
p560
I1
sS'total_cq'
p561
I2
sasS'total_cqs'
p562
I2
ssI52
(dp563
S'iters'
p564
I0
sS'meta'
p565
(lp566
sS'total_cqs'
p567
I1
ssI53
(dp568
S'iters'
p569
I1
sS'meta'
p570
(lp571
(dp572
S'objective'
p573
I1
sS'query_time'
p574
F0.3419351577758789
sS'comp_time'
p575
F4.696846008300781e-05
sS'exec_cq'
p576
I1
sS'total_cq'
p577
I2
sasS'total_cqs'
p578
I2
ssI54
(dp579
S'iters'
p580
I2
sS'meta'
p581
(lp582
(dp583
S'objective'
p584
I278
sS'query_time'
p585
F0.05135488510131836
sS'comp_time'
p586
F6.794929504394531e-05
sS'exec_cq'
p587
I1
sS'total_cq'
p588
I27
sa(dp589
g584
I4
sg585
F0.0045320987701416016
sg586
F3.600120544433594e-05
sg587
I1
sg588
I3
sasS'total_cqs'
p590
I27
ssI55
(dp591
S'iters'
p592
I1
sS'meta'
p593
(lp594
(dp595
S'objective'
p596
I1430
sS'query_time'
p597
F0.06796813011169434
sS'comp_time'
p598
F7.104873657226562e-05
sS'exec_cq'
p599
I1
sS'total_cq'
p600
I55
sasS'total_cqs'
p601
I55
ssI56
(dp602
S'iters'
p603
I5
sS'meta'
p604
(lp605
(dp606
S'objective'
p607
I1963
sS'query_time'
p608
F0.4524538516998291
sS'comp_time'
p609
F9.512901306152344e-05
sS'exec_cq'
p610
I1
sS'total_cq'
p611
I82
sa(dp612
g607
I442
sg608
F0.015953779220581055
sg609
F4.601478576660156e-05
sg610
I1
sg611
I21
sa(dp613
g607
I305
sg608
F0.01415109634399414
sg609
F4.410743713378906e-05
sg610
I1
sg611
I18
sa(dp614
g607
I439
sg608
F0.018173933029174805
sg609
F3.504753112792969e-05
sg610
I1
sg611
I13
sa(dp615
g607
I277
sg608
F0.007340192794799805
sg609
F3.600120544433594e-05
sg610
I1
sg611
I12
sasS'total_cqs'
p616
I82
ssI57
(dp617
S'iters'
p618
I1
sS'meta'
p619
(lp620
(dp621
S'objective'
p622
I1
sS'query_time'
p623
F0.16929888725280762
sS'comp_time'
p624
F2.47955322265625e-05
sS'exec_cq'
p625
I1
sS'total_cq'
p626
I2
sasS'total_cqs'
p627
I2
ssI58
(dp628
S'iters'
p629
I2
sS'meta'
p630
(lp631
(dp632
S'objective'
p633
I38730
sS'query_time'
p634
F0.1590721607208252
sS'comp_time'
p635
F0.00015091896057128906
sS'exec_cq'
p636
I1
sS'total_cq'
p637
I284
sa(dp638
g633
I302
sg634
F0.0057849884033203125
sg635
F3.504753112792969e-05
sg636
I1
sg637
I5
sasS'total_cqs'
p639
I284
ssI59
(dp640
S'iters'
p641
I1
sS'meta'
p642
(lp643
(dp644
S'objective'
p645
I1
sS'query_time'
p646
F0.12251996994018555
sS'comp_time'
p647
F3.910064697265625e-05
sS'exec_cq'
p648
I1
sS'total_cq'
p649
I2
sasS'total_cqs'
p650
I2
ssI60
(dp651
S'iters'
p652
I1
sS'meta'
p653
(lp654
(dp655
S'objective'
p656
I1890
sS'query_time'
p657
F0.038587093353271484
sS'comp_time'
p658
F7.891654968261719e-05
sS'exec_cq'
p659
I1
sS'total_cq'
p660
I63
sasS'total_cqs'
p661
I63
ssI61
(dp662
S'iters'
p663
I1
sS'meta'
p664
(lp665
(dp666
S'objective'
p667
I2
sS'query_time'
p668
F0.3390231132507324
sS'comp_time'
p669
F4.696846008300781e-05
sS'exec_cq'
p670
I1
sS'total_cq'
p671
I4
sasS'total_cqs'
p672
I4
ssI62
(dp673
S'iters'
p674
I2
sS'meta'
p675
(lp676
(dp677
S'objective'
p678
I546
sS'query_time'
p679
F0.0572659969329834
sS'comp_time'
p680
F7.891654968261719e-05
sS'exec_cq'
p681
I1
sS'total_cq'
p682
I36
sa(dp683
g678
I12
sg679
F0.005453824996948242
sg680
F3.504753112792969e-05
sg681
I1
sg682
I3
sasS'total_cqs'
p684
I36
ssI63
(dp685
S'iters'
p686
I1
sS'meta'
p687
(lp688
(dp689
S'objective'
p690
I1377
sS'query_time'
p691
F0.028812885284423828
sS'comp_time'
p692
F6.29425048828125e-05
sS'exec_cq'
p693
I1
sS'total_cq'
p694
I54
sasS'total_cqs'
p695
I54
ssI64
(dp696
S'iters'
p697
I2
sS'meta'
p698
(lp699
(dp700
S'objective'
p701
I71
sS'query_time'
p702
F0.38779211044311523
sS'comp_time'
p703
F6.794929504394531e-05
sS'exec_cq'
p704
I1
sS'total_cq'
p705
I17
sa(dp706
g701
I78
sg702
F0.00783395767211914
sg703
F4.9114227294921875e-05
sg704
I1
sg705
I12
sasS'total_cqs'
p707
I17
ssI65
(dp708
S'iters'
p709
I1
sS'meta'
p710
(lp711
(dp712
S'objective'
p713
I1
sS'query_time'
p714
F0.16889500617980957
sS'comp_time'
p715
F5.698204040527344e-05
sS'exec_cq'
p716
I1
sS'total_cq'
p717
I2
sasS'total_cqs'
p718
I2
ssI66
(dp719
S'iters'
p720
I1
sS'meta'
p721
(lp722
(dp723
S'objective'
p724
I39902
sS'query_time'
p725
F0.14993596076965332
sS'comp_time'
p726
F0.00015401840209960938
sS'exec_cq'
p727
I1
sS'total_cq'
p728
I284
sasS'total_cqs'
p729
I284
ssI67
(dp730
S'iters'
p731
I1
sS'meta'
p732
(lp733
(dp734
S'objective'
p735
I1
sS'query_time'
p736
F0.08469700813293457
sS'comp_time'
p737
F3.0994415283203125e-05
sS'exec_cq'
p738
I1
sS'total_cq'
p739
I2
sasS'total_cqs'
p740
I2
ssI68
(dp741
S'iters'
p742
I1
sS'meta'
p743
(lp744
(dp745
S'objective'
p746
I1890
sS'query_time'
p747
F0.03824806213378906
sS'comp_time'
p748
F6.794929504394531e-05
sS'exec_cq'
p749
I1
sS'total_cq'
p750
I63
sasS'total_cqs'
p751
I63
ssI69
(dp752
S'iters'
p753
I1
sS'meta'
p754
(lp755
(dp756
S'objective'
p757
I945
sS'query_time'
p758
F0.3876800537109375
sS'comp_time'
p759
F8.296966552734375e-05
sS'exec_cq'
p760
I1
sS'total_cq'
p761
I45
sasS'total_cqs'
p762
I45
ssI70
(dp763
S'iters'
p764
I1
sS'meta'
p765
(lp766
(dp767
S'objective'
p768
I324
sS'query_time'
p769
F0.046980857849121094
sS'comp_time'
p770
F5.1021575927734375e-05
sS'exec_cq'
p771
I1
sS'total_cq'
p772
I27
sasS'total_cqs'
p773
I27
ssI71
(dp774
S'iters'
p775
I1
sS'meta'
p776
(lp777
(dp778
S'objective'
p779
I66429
sS'query_time'
p780
F0.2617800235748291
sS'comp_time'
p781
F0.0001971721649169922
sS'exec_cq'
p782
I1
sS'total_cq'
p783
I366
sasS'total_cqs'
p784
I366
ssI72
(dp785
S'iters'
p786
I1
sS'meta'
p787
(lp788
(dp789
S'objective'
p790
I119
sS'query_time'
p791
F0.3616340160369873
sS'comp_time'
p792
F5.91278076171875e-05
sS'exec_cq'
p793
I1
sS'total_cq'
p794
I17
sasS'total_cqs'
p795
I17
ss.