(dp0
I1
(dp1
S'iters'
p2
I1
sS'meta'
p3
(lp4
(dp5
S'objective'
p6
I0
sS'query_time'
p7
F0.17508983612060547
sS'comp_time'
p8
F7.510185241699219e-05
sS'exec_cq'
p9
I1
sS'total_cq'
p10
I3
sasS'total_cqs'
p11
I3
ssI2
(dp12
S'iters'
p13
I1
sS'meta'
p14
(lp15
(dp16
S'objective'
p17
I152
sS'query_time'
p18
F0.04401206970214844
sS'comp_time'
p19
F8.106231689453125e-05
sS'exec_cq'
p20
I1
sS'total_cq'
p21
I19
sasS'total_cqs'
p22
I19
ssI3
(dp23
S'iters'
p24
I1
sS'meta'
p25
(lp26
(dp27
S'objective'
p28
I1
sS'query_time'
p29
F0.17173004150390625
sS'comp_time'
p30
F3.0994415283203125e-05
sS'exec_cq'
p31
I1
sS'total_cq'
p32
I2
sasS'total_cqs'
p33
I2
ssI4
(dp34
S'iters'
p35
I1
sS'meta'
p36
(lp37
(dp38
S'objective'
p39
I1710
sS'query_time'
p40
F0.04472804069519043
sS'comp_time'
p41
F0.00010800361633300781
sS'exec_cq'
p42
I1
sS'total_cq'
p43
I60
sasS'total_cqs'
p44
I60
ssI5
(dp45
S'iters'
p46
I1
sS'meta'
p47
(lp48
(dp49
S'objective'
p50
I8645
sS'query_time'
p51
F0.4331190586090088
sS'comp_time'
p52
F0.00013494491577148438
sS'exec_cq'
p53
I1
sS'total_cq'
p54
I133
sasS'total_cqs'
p55
I133
ssI6
(dp56
S'iters'
p57
I2
sS'meta'
p58
(lp59
(dp60
S'objective'
p61
I186
sS'query_time'
p62
F0.06122183799743652
sS'comp_time'
p63
F5.698204040527344e-05
sS'exec_cq'
p64
I1
sS'total_cq'
p65
I23
sa(dp66
g61
I1
sg62
F0.008486032485961914
sg63
F3.0994415283203125e-05
sg64
I1
sg65
I3
sasS'total_cqs'
p67
I23
ssI7
(dp68
S'iters'
p69
I3
sS'meta'
p70
(lp71
(dp72
S'objective'
p73
I23758
sS'query_time'
p74
F0.2187039852142334
sS'comp_time'
p75
F0.0001430511474609375
sS'exec_cq'
p76
I1
sS'total_cq'
p77
I244
sa(dp78
g73
I252
sg74
F0.02462601661682129
sg75
F4.00543212890625e-05
sg76
I1
sg77
I24
sa(dp79
g73
I919
sg74
F0.008436918258666992
sg75
F3.600120544433594e-05
sg76
I1
sg77
I10
sasS'total_cqs'
p80
I244
ssI8
(dp81
S'iters'
p82
I3
sS'meta'
p83
(lp84
(dp85
S'objective'
p86
I1697
sS'query_time'
p87
F0.5347750186920166
sS'comp_time'
p88
F9.918212890625e-05
sS'exec_cq'
p89
I1
sS'total_cq'
p90
I82
sa(dp91
g86
I605
sg87
F0.01511693000793457
sg88
F4.792213439941406e-05
sg89
I1
sg90
I18
sa(dp92
g86
I565
sg87
F0.012375831604003906
sg88
F3.695487976074219e-05
sg89
I1
sg90
I16
sasS'total_cqs'
p93
I82
ssI9
(dp94
S'iters'
p95
I1
sS'meta'
p96
(lp97
(dp98
S'objective'
p99
I1
sS'query_time'
p100
F0.17847490310668945
sS'comp_time'
p101
F3.600120544433594e-05
sS'exec_cq'
p102
I1
sS'total_cq'
p103
I2
sasS'total_cqs'
p104
I2
ssI10
(dp105
S'iters'
p106
I1
sS'meta'
p107
(lp108
(dp109
S'objective'
p110
I21735
sS'query_time'
p111
F0.21031522750854492
sS'comp_time'
p112
F0.00013899803161621094
sS'exec_cq'
p113
I1
sS'total_cq'
p114
I210
sasS'total_cqs'
p115
I210
ssI11
(dp116
S'iters'
p117
I1
sS'meta'
p118
(lp119
(dp120
S'objective'
p121
I1
sS'query_time'
p122
F0.09631919860839844
sS'comp_time'
p123
F3.1948089599609375e-05
sS'exec_cq'
p124
I1
sS'total_cq'
p125
I2
sasS'total_cqs'
p126
I2
ssI12
(dp127
S'iters'
p128
I0
sS'meta'
p129
(lp130
sS'total_cqs'
p131
I1
ssI13
(dp132
S'iters'
p133
I1
sS'meta'
p134
(lp135
(dp136
S'objective'
p137
I1
sS'query_time'
p138
F0.38909912109375
sS'comp_time'
p139
F6.699562072753906e-05
sS'exec_cq'
p140
I1
sS'total_cq'
p141
I2
sasS'total_cqs'
p142
I2
ssI14
(dp143
S'iters'
p144
I2
sS'meta'
p145
(lp146
(dp147
S'objective'
p148
I16319
sS'query_time'
p149
F0.19708895683288574
sS'comp_time'
p150
F0.00014495849609375
sS'exec_cq'
p151
I1
sS'total_cq'
p152
I185
sa(dp153
g148
I73
sg149
F0.013208866119384766
sg150
F3.504753112792969e-05
sg151
I1
sg152
I3
sasS'total_cqs'
p154
I185
ssI15
(dp155
S'iters'
p156
I2
sS'meta'
p157
(lp158
(dp159
S'objective'
p160
I27890
sS'query_time'
p161
F0.22280383110046387
sS'comp_time'
p162
F0.00021409988403320312
sS'exec_cq'
p163
I1
sS'total_cq'
p164
I244
sa(dp165
g160
I512
sg161
F0.005877017974853516
sg162
F3.719329833984375e-05
sg163
I1
sg164
I8
sasS'total_cqs'
p166
I244
ssI16
(dp167
S'iters'
p168
I2
sS'meta'
p169
(lp170
(dp171
S'objective'
p172
I160
sS'query_time'
p173
F0.4224269390106201
sS'comp_time'
p174
F6.103515625e-05
sS'exec_cq'
p175
I1
sS'total_cq'
p176
I23
sa(dp177
g172
I172
sg173
F0.012429952621459961
sg174
F4.506111145019531e-05
sg175
I1
sg176
I18
sasS'total_cqs'
p178
I23
ssI17
(dp179
S'iters'
p180
I2
sS'meta'
p181
(lp182
(dp183
S'objective'
p184
I6372
sS'query_time'
p185
F0.2259531021118164
sS'comp_time'
p186
F0.00014090538024902344
sS'exec_cq'
p187
I1
sS'total_cq'
p188
I116
sa(dp189
g184
I25
sg185
F0.0023009777069091797
sg186
F4.291534423828125e-05
sg187
I1
sg188
I2
sasS'total_cqs'
p190
I116
ssI18
(dp191
S'iters'
p192
I2
sS'meta'
p193
(lp194
(dp195
S'objective'
p196
I68
sS'query_time'
p197
F0.041404008865356445
sS'comp_time'
p198
F7.414817810058594e-05
sS'exec_cq'
p199
I1
sS'total_cq'
p200
I19
sa(dp201
g196
I23
sg197
F0.007554054260253906
sg198
F3.4809112548828125e-05
sg199
I1
sg200
I4
sasS'total_cqs'
p202
I19
ssI19
(dp203
S'iters'
p204
I4
sS'meta'
p205
(lp206
(dp207
S'objective'
p208
I1097
sS'query_time'
p209
F0.10970091819763184
sS'comp_time'
p210
F8.702278137207031e-05
sS'exec_cq'
p211
I1
sS'total_cq'
p212
I54
sa(dp213
g208
I100
sg209
F0.013183116912841797
sg210
F3.1948089599609375e-05
sg211
I1
sg212
I7
sa(dp214
g208
I13
sg209
F0.0115509033203125
sg210
F3.218650817871094e-05
sg211
I1
sg212
I5
sa(dp215
g208
I28
sg209
F0.04404497146606445
sg210
F3.0994415283203125e-05
sg211
I1
sg212
I2
sasS'total_cqs'
p216
I54
ssI20
(dp217
S'iters'
p218
I1
sS'meta'
p219
(lp220
(dp221
S'objective'
p222
I1710
sS'query_time'
p223
F0.05625104904174805
sS'comp_time'
p224
F8.797645568847656e-05
sS'exec_cq'
p225
I1
sS'total_cq'
p226
I60
sasS'total_cqs'
p227
I60
ssI21
(dp228
S'iters'
p229
I1
sS'meta'
p230
(lp231
(dp232
S'objective'
p233
I945
sS'query_time'
p234
F0.4115588665008545
sS'comp_time'
p235
F7.510185241699219e-05
sS'exec_cq'
p236
I1
sS'total_cq'
p237
I45
sasS'total_cqs'
p238
I45
ssI22
(dp239
S'iters'
p240
I1
sS'meta'
p241
(lp242
(dp243
S'objective'
p244
I27
sS'query_time'
p245
F0.03680300712585449
sS'comp_time'
p246
F5.507469177246094e-05
sS'exec_cq'
p247
I1
sS'total_cq'
p248
I9
sasS'total_cqs'
p249
I9
ssI23
(dp250
S'iters'
p251
I1
sS'meta'
p252
(lp253
(dp254
S'objective'
p255
I1224
sS'query_time'
p256
F0.04047989845275879
sS'comp_time'
p257
F0.0032608509063720703
sS'exec_cq'
p258
I1
sS'total_cq'
p259
I51
sasS'total_cqs'
p260
I51
ssI24
(dp261
S'iters'
p262
I3
sS'meta'
p263
(lp264
(dp265
S'objective'
p266
I1427716
sS'query_time'
p267
F1.3597919940948486
sS'comp_time'
p268
F0.0008740425109863281
sS'exec_cq'
p269
I1
sS'total_cq'
p270
I1711
sa(dp271
g266
I5204
sg267
F0.014894962310791016
sg268
F4.792213439941406e-05
sg269
I1
sg270
I18
sa(dp272
g266
I8405
sg267
F0.008033990859985352
sg268
F4.315376281738281e-05
sg269
I1
sg270
I11
sasS'total_cqs'
p273
I1711
ssI25
(dp274
S'iters'
p275
I2
sS'meta'
p276
(lp277
(dp278
S'objective'
p279
I6151
sS'query_time'
p280
F0.23309087753295898
sS'comp_time'
p281
F0.00025200843811035156
sS'exec_cq'
p282
I1
sS'total_cq'
p283
I114
sa(dp284
g279
I26
sg280
F0.002399921417236328
sg281
F3.3855438232421875e-05
sg282
I1
sg283
I2
sasS'total_cqs'
p285
I114
ssI26
(dp286
S'iters'
p287
I1
sS'meta'
p288
(lp289
(dp290
S'objective'
p291
I54
sS'query_time'
p292
F0.04698300361633301
sS'comp_time'
p293
F7.104873657226562e-05
sS'exec_cq'
p294
I1
sS'total_cq'
p295
I12
sasS'total_cqs'
p296
I12
ssI27
(dp297
S'iters'
p298
I1
sS'meta'
p299
(lp300
(dp301
S'objective'
p302
I1
sS'query_time'
p303
F0.11898303031921387
sS'comp_time'
p304
F3.0994415283203125e-05
sS'exec_cq'
p305
I1
sS'total_cq'
p306
I2
sasS'total_cqs'
p307
I2
ssI28
(dp308
S'iters'
p309
I0
sS'meta'
p310
(lp311
sS'total_cqs'
p312
I1
ssI29
(dp313
S'iters'
p314
I2
sS'meta'
p315
(lp316
(dp317
S'objective'
p318
I8597
sS'query_time'
p319
F0.42659616470336914
sS'comp_time'
p320
F0.00011801719665527344
sS'exec_cq'
p321
I1
sS'total_cq'
p322
I133
sa(dp323
g318
I109
sg319
F0.014571905136108398
sg320
F4.696846008300781e-05
sg321
I1
sg322
I2
sasS'total_cqs'
p324
I133
ssI30
(dp325
S'iters'
p326
I2
sS'meta'
p327
(lp328
(dp329
S'objective'
p330
I7725
sS'query_time'
p331
F0.1038820743560791
sS'comp_time'
p332
F0.0003190040588378906
sS'exec_cq'
p333
I1
sS'total_cq'
p334
I129
sa(dp335
g330
I72
sg331
F0.0025510787963867188
sg332
F3.409385681152344e-05
sg333
I1
sg334
I3
sasS'total_cqs'
p336
I129
ssI31
(dp337
S'iters'
p338
I1
sS'meta'
p339
(lp340
(dp341
S'objective'
p342
I1539
sS'query_time'
p343
F0.06005501747131348
sS'comp_time'
p344
F7.605552673339844e-05
sS'exec_cq'
p345
I1
sS'total_cq'
p346
I57
sasS'total_cqs'
p347
I57
ssI32
(dp348
S'iters'
p349
I2
sS'meta'
p350
(lp351
(dp352
S'objective'
p353
I2411
sS'query_time'
p354
F0.5078949928283691
sS'comp_time'
p355
F8.893013000488281e-05
sS'exec_cq'
p356
I1
sS'total_cq'
p357
I82
sa(dp358
g353
I332
sg354
F0.008098840713500977
sg355
F4.38690185546875e-05
sg356
I1
sg357
I12
sasS'total_cqs'
p359
I82
ssI33
(dp360
S'iters'
p361
I1
sS'meta'
p362
(lp363
(dp364
S'objective'
p365
I1
sS'query_time'
p366
F0.1699662208557129
sS'comp_time'
p367
F6.699562072753906e-05
sS'exec_cq'
p368
I1
sS'total_cq'
p369
I2
sasS'total_cqs'
p370
I2
ssI34
(dp371
S'iters'
p372
I1
sS'meta'
p373
(lp374
(dp375
S'objective'
p376
I54
sS'query_time'
p377
F0.03660893440246582
sS'comp_time'
p378
F5.2928924560546875e-05
sS'exec_cq'
p379
I1
sS'total_cq'
p380
I12
sasS'total_cqs'
p381
I12
ssI35
(dp382
S'iters'
p383
I2
sS'meta'
p384
(lp385
(dp386
S'objective'
p387
I5801
sS'query_time'
p388
F0.1260530948638916
sS'comp_time'
p389
F0.00011396408081054688
sS'exec_cq'
p390
I1
sS'total_cq'
p391
I110
sa(dp392
g387
I68
sg388
F0.00933218002319336
sg389
F3.409385681152344e-05
sg390
I1
sg391
I2
sasS'total_cqs'
p393
I110
ssI36
(dp394
S'iters'
p395
I1
sS'meta'
p396
(lp397
(dp398
S'objective'
p399
I1890
sS'query_time'
p400
F0.04282402992248535
sS'comp_time'
p401
F9.202957153320312e-05
sS'exec_cq'
p402
I1
sS'total_cq'
p403
I63
sasS'total_cqs'
p404
I63
ssI37
(dp405
S'iters'
p406
I1
sS'meta'
p407
(lp408
(dp409
S'objective'
p410
I1539
sS'query_time'
p411
F0.40593409538269043
sS'comp_time'
p412
F9.012222290039062e-05
sS'exec_cq'
p413
I1
sS'total_cq'
p414
I57
sasS'total_cqs'
p415
I57
ssI38
(dp416
S'iters'
p417
I1
sS'meta'
p418
(lp419
(dp420
S'objective'
p421
I8127
sS'query_time'
p422
F0.08223891258239746
sS'comp_time'
p423
F0.00014495849609375
sS'exec_cq'
p424
I1
sS'total_cq'
p425
I129
sasS'total_cqs'
p426
I129
ssI39
(dp427
S'iters'
p428
I1
sS'meta'
p429
(lp430
(dp431
S'objective'
p432
I1
sS'query_time'
p433
F0.011451959609985352
sS'comp_time'
p434
F4.506111145019531e-05
sS'exec_cq'
p435
I1
sS'total_cq'
p436
I2
sasS'total_cqs'
p437
I2
ssI40
(dp438
S'iters'
p439
I1
sS'meta'
p440
(lp441
(dp442
S'objective'
p443
I560
sS'query_time'
p444
F0.438244104385376
sS'comp_time'
p445
F6.318092346191406e-05
sS'exec_cq'
p446
I1
sS'total_cq'
p447
I35
sasS'total_cqs'
p448
I35
ssI41
(dp449
S'iters'
p450
I1
sS'meta'
p451
(lp452
(dp453
S'objective'
p454
I1
sS'query_time'
p455
F0.17720484733581543
sS'comp_time'
p456
F6.413459777832031e-05
sS'exec_cq'
p457
I1
sS'total_cq'
p458
I2
sasS'total_cqs'
p459
I2
ssI42
(dp460
S'iters'
p461
I1
sS'meta'
p462
(lp463
(dp464
S'objective'
p465
I104
sS'query_time'
p466
F0.04081892967224121
sS'comp_time'
p467
F6.508827209472656e-05
sS'exec_cq'
p468
I1
sS'total_cq'
p469
I16
sasS'total_cqs'
p470
I16
ssI43
(dp471
S'iters'
p472
I2
sS'meta'
p473
(lp474
(dp475
S'objective'
p476
I1339
sS'query_time'
p477
F0.10367918014526367
sS'comp_time'
p478
F0.00010609626770019531
sS'exec_cq'
p479
I1
sS'total_cq'
p480
I54
sa(dp481
g476
I35
sg477
F0.010519981384277344
sg478
F3.409385681152344e-05
sg479
I1
sg480
I2
sasS'total_cqs'
p482
I54
ssI44
(dp483
S'iters'
p484
I0
sS'meta'
p485
(lp486
sS'total_cqs'
p487
I1
ssI45
(dp488
S'iters'
p489
I1
sS'meta'
p490
(lp491
(dp492
S'objective'
p493
I1539
sS'query_time'
p494
F0.393812894821167
sS'comp_time'
p495
F9.489059448242188e-05
sS'exec_cq'
p496
I1
sS'total_cq'
p497
I57
sasS'total_cqs'
p498
I57
ssI46
(dp499
S'iters'
p500
I2
sS'meta'
p501
(lp502
(dp503
S'objective'
p504
I7
sS'query_time'
p505
F0.028095006942749023
sS'comp_time'
p506
F3.981590270996094e-05
sS'exec_cq'
p507
I1
sS'total_cq'
p508
I6
sa(dp509
g504
I2
sg505
F0.011749982833862305
sg506
F3.504753112792969e-05
sg507
I1
sg508
I3
sasS'total_cqs'
p510
I6
ssI47
(dp511
S'iters'
p512
I2
sS'meta'
p513
(lp514
(dp515
S'objective'
p516
I7269
sS'query_time'
p517
F0.10952115058898926
sS'comp_time'
p518
F9.799003601074219e-05
sS'exec_cq'
p519
I1
sS'total_cq'
p520
I126
sa(dp521
g516
I114
sg517
F0.006391048431396484
sg518
F4.8160552978515625e-05
sg519
I1
sg520
I5
sasS'total_cqs'
p522
I126
ssI48
(dp523
S'iters'
p524
I4
sS'meta'
p525
(lp526
(dp527
S'objective'
p528
I67
sS'query_time'
p529
F0.4262220859527588
sS'comp_time'
p530
F5.698204040527344e-05
sS'exec_cq'
p531
I1
sS'total_cq'
p532
I21
sa(dp533
g528
I129
sg529
F0.008177995681762695
sg530
F3.504753112792969e-05
sg531
I1
sg532
I12
sa(dp534
g528
I137
sg529
F0.00899815559387207
sg530
F3.3855438232421875e-05
sg531
I1
sg532
I11
sa(dp535
g528
I96
sg529
F0.006545066833496094
sg530
F3.409385681152344e-05
sg531
I1
sg532
I10
sasS'total_cqs'
p536
I21
ssI49
(dp537
S'iters'
p538
I2
sS'meta'
p539
(lp540
(dp541
S'objective'
p542
I2069
sS'query_time'
p543
F0.2288498878479004
sS'comp_time'
p544
F9.894371032714844e-05
sS'exec_cq'
p545
I1
sS'total_cq'
p546
I66
sa(dp547
g542
I61
sg543
F0.002398967742919922
sg544
F4.506111145019531e-05
sg545
I1
sg546
I2
sasS'total_cqs'
p548
I66
ssI50
(dp549
S'iters'
p550
I1
sS'meta'
p551
(lp552
(dp553
S'objective'
p554
I39902
sS'query_time'
p555
F0.18289613723754883
sS'comp_time'
p556
F0.00020599365234375
sS'exec_cq'
p557
I1
sS'total_cq'
p558
I284
sasS'total_cqs'
p559
I284
ssI51
(dp560
S'iters'
p561
I1
sS'meta'
p562
(lp563
(dp564
S'objective'
p565
I1
sS'query_time'
p566
F0.08502197265625
sS'comp_time'
p567
F3.314018249511719e-05
sS'exec_cq'
p568
I1
sS'total_cq'
p569
I2
sasS'total_cqs'
p570
I2
ssI52
(dp571
S'iters'
p572
I0
sS'meta'
p573
(lp574
sS'total_cqs'
p575
I1
ssI53
(dp576
S'iters'
p577
I1
sS'meta'
p578
(lp579
(dp580
S'objective'
p581
I1
sS'query_time'
p582
F0.3493990898132324
sS'comp_time'
p583
F5.602836608886719e-05
sS'exec_cq'
p584
I1
sS'total_cq'
p585
I2
sasS'total_cqs'
p586
I2
ssI54
(dp587
S'iters'
p588
I1
sS'meta'
p589
(lp590
(dp591
S'objective'
p592
I324
sS'query_time'
p593
F0.04673290252685547
sS'comp_time'
p594
F6.4849853515625e-05
sS'exec_cq'
p595
I1
sS'total_cq'
p596
I27
sasS'total_cqs'
p597
I27
ssI55
(dp598
S'iters'
p599
I3
sS'meta'
p600
(lp601
(dp602
S'objective'
p603
I1092
sS'query_time'
p604
F0.1113898754119873
sS'comp_time'
p605
F7.104873657226562e-05
sS'exec_cq'
p606
I1
sS'total_cq'
p607
I55
sa(dp608
g603
I132
sg604
F0.007069826126098633
sg605
F3.600120544433594e-05
sg606
I1
sg607
I9
sa(dp609
g603
I68
sg604
F0.0070607662200927734
sg605
F3.600120544433594e-05
sg606
I1
sg607
I6
sasS'total_cqs'
p610
I55
ssI56
(dp611
S'iters'
p612
I1
sS'meta'
p613
(lp614
(dp615
S'objective'
p616
I3239
sS'query_time'
p617
F0.45012497901916504
sS'comp_time'
p618
F9.298324584960938e-05
sS'exec_cq'
p619
I1
sS'total_cq'
p620
I82
sasS'total_cqs'
p621
I82
ssI57
(dp622
S'iters'
p623
I1
sS'meta'
p624
(lp625
(dp626
S'objective'
p627
I1
sS'query_time'
p628
F0.1748819351196289
sS'comp_time'
p629
F3.0994415283203125e-05
sS'exec_cq'
p630
I1
sS'total_cq'
p631
I2
sasS'total_cqs'
p632
I2
ssI58
(dp633
S'iters'
p634
I1
sS'meta'
p635
(lp636
(dp637
S'objective'
p638
I39902
sS'query_time'
p639
F0.17590713500976562
sS'comp_time'
p640
F0.00019097328186035156
sS'exec_cq'
p641
I1
sS'total_cq'
p642
I284
sasS'total_cqs'
p643
I284
ssI59
(dp644
S'iters'
p645
I1
sS'meta'
p646
(lp647
(dp648
S'objective'
p649
I1
sS'query_time'
p650
F0.09841799736022949
sS'comp_time'
p651
F3.0994415283203125e-05
sS'exec_cq'
p652
I1
sS'total_cq'
p653
I2
sasS'total_cqs'
p654
I2
ssI60
(dp655
S'iters'
p656
I1
sS'meta'
p657
(lp658
(dp659
S'objective'
p660
I1890
sS'query_time'
p661
F0.04085493087768555
sS'comp_time'
p662
F6.794929504394531e-05
sS'exec_cq'
p663
I1
sS'total_cq'
p664
I63
sasS'total_cqs'
p665
I63
ssI61
(dp666
S'iters'
p667
I2
sS'meta'
p668
(lp669
(dp670
S'objective'
p671
I0
sS'query_time'
p672
F0.32563185691833496
sS'comp_time'
p673
F5.817413330078125e-05
sS'exec_cq'
p674
I1
sS'total_cq'
p675
I4
sa(dp676
g671
I3
sg672
F0.008036136627197266
sg673
F5.5789947509765625e-05
sg674
I1
sg675
I2
sasS'total_cqs'
p677
I4
ssI62
(dp678
S'iters'
p679
I1
sS'meta'
p680
(lp681
(dp682
S'objective'
p683
I594
sS'query_time'
p684
F0.05499005317687988
sS'comp_time'
p685
F6.508827209472656e-05
sS'exec_cq'
p686
I1
sS'total_cq'
p687
I36
sasS'total_cqs'
p688
I36
ssI63
(dp689
S'iters'
p690
I1
sS'meta'
p691
(lp692
(dp693
S'objective'
p694
I1377
sS'query_time'
p695
F0.028708934783935547
sS'comp_time'
p696
F6.389617919921875e-05
sS'exec_cq'
p697
I1
sS'total_cq'
p698
I54
sasS'total_cqs'
p699
I54
ssI64
(dp700
S'iters'
p701
I1
sS'meta'
p702
(lp703
(dp704
S'objective'
p705
I119
sS'query_time'
p706
F0.3936169147491455
sS'comp_time'
p707
F6.914138793945312e-05
sS'exec_cq'
p708
I1
sS'total_cq'
p709
I17
sasS'total_cqs'
p710
I17
ssI65
(dp711
S'iters'
p712
I1
sS'meta'
p713
(lp714
(dp715
S'objective'
p716
I1
sS'query_time'
p717
F0.16194510459899902
sS'comp_time'
p718
F4.100799560546875e-05
sS'exec_cq'
p719
I1
sS'total_cq'
p720
I2
sasS'total_cqs'
p721
I2
ssI66
(dp722
S'iters'
p723
I1
sS'meta'
p724
(lp725
(dp726
S'objective'
p727
I39902
sS'query_time'
p728
F0.1708388328552246
sS'comp_time'
p729
F0.0001430511474609375
sS'exec_cq'
p730
I1
sS'total_cq'
p731
I284
sasS'total_cqs'
p732
I284
ssI67
(dp733
S'iters'
p734
I1
sS'meta'
p735
(lp736
(dp737
S'objective'
p738
I1
sS'query_time'
p739
F0.10945701599121094
sS'comp_time'
p740
F3.0040740966796875e-05
sS'exec_cq'
p741
I1
sS'total_cq'
p742
I2
sasS'total_cqs'
p743
I2
ssI68
(dp744
S'iters'
p745
I1
sS'meta'
p746
(lp747
(dp748
S'objective'
p749
I1890
sS'query_time'
p750
F0.03788614273071289
sS'comp_time'
p751
F7.796287536621094e-05
sS'exec_cq'
p752
I1
sS'total_cq'
p753
I63
sasS'total_cqs'
p754
I63
ssI69
(dp755
S'iters'
p756
I1
sS'meta'
p757
(lp758
(dp759
S'objective'
p760
I945
sS'query_time'
p761
F0.3381369113922119
sS'comp_time'
p762
F7.295608520507812e-05
sS'exec_cq'
p763
I1
sS'total_cq'
p764
I45
sasS'total_cqs'
p765
I45
ssI70
(dp766
S'iters'
p767
I2
sS'meta'
p768
(lp769
(dp770
S'objective'
p771
I246
sS'query_time'
p772
F0.04771685600280762
sS'comp_time'
p773
F5.698204040527344e-05
sS'exec_cq'
p774
I1
sS'total_cq'
p775
I27
sa(dp776
g771
I12
sg772
F0.0022230148315429688
sg773
F3.0040740966796875e-05
sg774
I1
sg775
I3
sasS'total_cqs'
p777
I27
ssI71
(dp778
S'iters'
p779
I2
sS'meta'
p780
(lp781
(dp782
S'objective'
p783
I62491
sS'query_time'
p784
F0.29392409324645996
sS'comp_time'
p785
F0.0002560615539550781
sS'exec_cq'
p786
I1
sS'total_cq'
p787
I366
sa(dp788
g783
I1603
sg784
F0.013005971908569336
sg785
F3.695487976074219e-05
sg786
I1
sg787
I12
sasS'total_cqs'
p789
I366
ssI72
(dp790
S'iters'
p791
I1
sS'meta'
p792
(lp793
(dp794
S'objective'
p795
I119
sS'query_time'
p796
F0.3681008815765381
sS'comp_time'
p797
F5.1975250244140625e-05
sS'exec_cq'
p798
I1
sS'total_cq'
p799
I17
sasS'total_cqs'
p800
I17
ss.