(dp0
I1
(dp1
S'iters'
p2
I1
sS'meta'
p3
(lp4
(dp5
S'objective'
p6
I0
sS'query_time'
p7
F0.18817687034606934
sS'comp_time'
p8
F9.322166442871094e-05
sS'exec_cq'
p9
I1
sS'total_cq'
p10
I3
sasS'total_cqs'
p11
I3
ssI2
(dp12
S'iters'
p13
I2
sS'meta'
p14
(lp15
(dp16
S'objective'
p17
I30
sS'query_time'
p18
F0.05042910575866699
sS'comp_time'
p19
F9.107589721679688e-05
sS'exec_cq'
p20
I1
sS'total_cq'
p21
I19
sa(dp22
g17
I42
sg18
F0.010481119155883789
sg19
F7.390975952148438e-05
sg20
I1
sg21
I5
sasS'total_cqs'
p23
I19
ssI3
(dp24
S'iters'
p25
I1
sS'meta'
p26
(lp27
(dp28
S'objective'
p29
I1
sS'query_time'
p30
F0.10593914985656738
sS'comp_time'
p31
F7.510185241699219e-05
sS'exec_cq'
p32
I1
sS'total_cq'
p33
I2
sasS'total_cqs'
p34
I2
ssI4
(dp35
S'iters'
p36
I1
sS'meta'
p37
(lp38
(dp39
S'objective'
p40
I1710
sS'query_time'
p41
F0.04313802719116211
sS'comp_time'
p42
F0.00014781951904296875
sS'exec_cq'
p43
I1
sS'total_cq'
p44
I60
sasS'total_cqs'
p45
I60
ssI5
(dp46
S'iters'
p47
I2
sS'meta'
p48
(lp49
(dp50
S'objective'
p51
I8469
sS'query_time'
p52
F0.4366271495819092
sS'comp_time'
p53
F0.0002257823944091797
sS'exec_cq'
p54
I1
sS'total_cq'
p55
I133
sa(dp56
g51
I45
sg52
F0.005274057388305664
sg53
F4.792213439941406e-05
sg54
I1
sg55
I2
sasS'total_cqs'
p57
I133
ssI6
(dp58
S'iters'
p59
I1
sS'meta'
p60
(lp61
(dp62
S'objective'
p63
I230
sS'query_time'
p64
F0.048583030700683594
sS'comp_time'
p65
F8.988380432128906e-05
sS'exec_cq'
p66
I1
sS'total_cq'
p67
I23
sasS'total_cqs'
p68
I23
ssI7
(dp69
S'iters'
p70
I1
sS'meta'
p71
(lp72
(dp73
S'objective'
p74
I29402
sS'query_time'
p75
F0.1963667869567871
sS'comp_time'
p76
F0.00030231475830078125
sS'exec_cq'
p77
I1
sS'total_cq'
p78
I244
sasS'total_cqs'
p79
I244
ssI8
(dp80
S'iters'
p81
I4
sS'meta'
p82
(lp83
(dp84
S'objective'
p85
I1697
sS'query_time'
p86
F0.5125532150268555
sS'comp_time'
p87
F0.00013494491577148438
sS'exec_cq'
p88
I1
sS'total_cq'
p89
I82
sa(dp90
g85
I535
sg86
F0.013383150100708008
sg87
F5.793571472167969e-05
sg88
I1
sg89
I18
sa(dp91
g85
I290
sg86
F0.01166987419128418
sg87
F5.602836608886719e-05
sg88
I1
sg89
I15
sa(dp92
g85
I328
sg86
F0.024856090545654297
sg87
F0.00012493133544921875
sg88
I1
sg89
I11
sasS'total_cqs'
p93
I82
ssI9
(dp94
S'iters'
p95
I1
sS'meta'
p96
(lp97
(dp98
S'objective'
p99
I1
sS'query_time'
p100
F0.17808198928833008
sS'comp_time'
p101
F7.104873657226562e-05
sS'exec_cq'
p102
I1
sS'total_cq'
p103
I2
sasS'total_cqs'
p104
I2
ssI10
(dp105
S'iters'
p106
I2
sS'meta'
p107
(lp108
(dp109
S'objective'
p110
I21309
sS'query_time'
p111
F0.14487409591674805
sS'comp_time'
p112
F0.0002617835998535156
sS'exec_cq'
p113
I1
sS'total_cq'
p114
I210
sa(dp115
g110
I3
sg111
F0.005489826202392578
sg112
F6.008148193359375e-05
sg113
I1
sg114
I4
sasS'total_cqs'
p116
I210
ssI11
(dp117
S'iters'
p118
I1
sS'meta'
p119
(lp120
(dp121
S'objective'
p122
I1
sS'query_time'
p123
F0.11498713493347168
sS'comp_time'
p124
F8.082389831542969e-05
sS'exec_cq'
p125
I1
sS'total_cq'
p126
I2
sasS'total_cqs'
p127
I2
ssI12
(dp128
S'iters'
p129
I0
sS'meta'
p130
(lp131
sS'total_cqs'
p132
I1
ssI13
(dp133
S'iters'
p134
I1
sS'meta'
p135
(lp136
(dp137
S'objective'
p138
I1
sS'query_time'
p139
F0.39032411575317383
sS'comp_time'
p140
F6.103515625e-05
sS'exec_cq'
p141
I1
sS'total_cq'
p142
I2
sasS'total_cqs'
p143
I2
ssI14
(dp144
S'iters'
p145
I1
sS'meta'
p146
(lp147
(dp148
S'objective'
p149
I16835
sS'query_time'
p150
F0.15187287330627441
sS'comp_time'
p151
F0.00023794174194335938
sS'exec_cq'
p152
I1
sS'total_cq'
p153
I185
sasS'total_cqs'
p154
I185
ssI15
(dp155
S'iters'
p156
I1
sS'meta'
p157
(lp158
(dp159
S'objective'
p160
I29402
sS'query_time'
p161
F0.20493793487548828
sS'comp_time'
p162
F0.0002651214599609375
sS'exec_cq'
p163
I1
sS'total_cq'
p164
I244
sasS'total_cqs'
p165
I244
ssI16
(dp166
S'iters'
p167
I1
sS'meta'
p168
(lp169
(dp170
S'objective'
p171
I230
sS'query_time'
p172
F0.4517509937286377
sS'comp_time'
p173
F9.703636169433594e-05
sS'exec_cq'
p174
I1
sS'total_cq'
p175
I23
sasS'total_cqs'
p176
I23
ssI17
(dp177
S'iters'
p178
I2
sS'meta'
p179
(lp180
(dp181
S'objective'
p182
I6414
sS'query_time'
p183
F0.22825288772583008
sS'comp_time'
p184
F0.0002472400665283203
sS'exec_cq'
p185
I1
sS'total_cq'
p186
I116
sa(dp187
g182
I46
sg183
F0.003170013427734375
sg184
F5.2928924560546875e-05
sg185
I1
sg186
I2
sasS'total_cqs'
p188
I116
ssI18
(dp189
S'iters'
p190
I1
sS'meta'
p191
(lp192
(dp193
S'objective'
p194
I152
sS'query_time'
p195
F0.04386401176452637
sS'comp_time'
p196
F8.7738037109375e-05
sS'exec_cq'
p197
I1
sS'total_cq'
p198
I19
sasS'total_cqs'
p199
I19
ssI19
(dp200
S'iters'
p201
I2
sS'meta'
p202
(lp203
(dp204
S'objective'
p205
I1295
sS'query_time'
p206
F0.11444902420043945
sS'comp_time'
p207
F0.00010418891906738281
sS'exec_cq'
p208
I1
sS'total_cq'
p209
I54
sa(dp210
g205
I13
sg206
F0.01596212387084961
sg207
F4.8160552978515625e-05
sg208
I1
sg209
I2
sasS'total_cqs'
p211
I54
ssI20
(dp212
S'iters'
p213
I1
sS'meta'
p214
(lp215
(dp216
S'objective'
p217
I1710
sS'query_time'
p218
F0.046459197998046875
sS'comp_time'
p219
F0.00012302398681640625
sS'exec_cq'
p220
I1
sS'total_cq'
p221
I60
sasS'total_cqs'
p222
I60
ssI21
(dp223
S'iters'
p224
I1
sS'meta'
p225
(lp226
(dp227
S'objective'
p228
I945
sS'query_time'
p229
F0.4035520553588867
sS'comp_time'
p230
F9.608268737792969e-05
sS'exec_cq'
p231
I1
sS'total_cq'
p232
I45
sasS'total_cqs'
p233
I45
ssI22
(dp234
S'iters'
p235
I2
sS'meta'
p236
(lp237
(dp238
S'objective'
p239
I17
sS'query_time'
p240
F0.02920389175415039
sS'comp_time'
p241
F7.390975952148438e-05
sS'exec_cq'
p242
I1
sS'total_cq'
p243
I9
sa(dp244
g239
I4
sg240
F0.004536151885986328
sg241
F5.1975250244140625e-05
sg242
I1
sg243
I3
sasS'total_cqs'
p245
I9
ssI23
(dp246
S'iters'
p247
I2
sS'meta'
p248
(lp249
(dp250
S'objective'
p251
I1128
sS'query_time'
p252
F0.03730416297912598
sS'comp_time'
p253
F0.000118255615234375
sS'exec_cq'
p254
I1
sS'total_cq'
p255
I51
sa(dp256
g251
I3
sg252
F0.0016481876373291016
sg253
F5.0067901611328125e-05
sg254
I1
sg255
I2
sasS'total_cqs'
p257
I51
ssI24
(dp258
S'iters'
p259
I1
sS'meta'
p260
(lp261
(dp262
S'objective'
p263
I1461194
sS'query_time'
p264
F1.3636748790740967
sS'comp_time'
p265
F0.002115964889526367
sS'exec_cq'
p266
I1
sS'total_cq'
p267
I1711
sasS'total_cqs'
p268
I1711
ssI25
(dp269
S'iters'
p270
I1
sS'meta'
p271
(lp272
(dp273
S'objective'
p274
I6327
sS'query_time'
p275
F0.21921586990356445
sS'comp_time'
p276
F0.0001659393310546875
sS'exec_cq'
p277
I1
sS'total_cq'
p278
I114
sasS'total_cqs'
p279
I114
ssI26
(dp280
S'iters'
p281
I1
sS'meta'
p282
(lp283
(dp284
S'objective'
p285
I54
sS'query_time'
p286
F0.036238908767700195
sS'comp_time'
p287
F8.177757263183594e-05
sS'exec_cq'
p288
I1
sS'total_cq'
p289
I12
sasS'total_cqs'
p290
I12
ssI27
(dp291
S'iters'
p292
I1
sS'meta'
p293
(lp294
(dp295
S'objective'
p296
I1
sS'query_time'
p297
F0.14223003387451172
sS'comp_time'
p298
F7.104873657226562e-05
sS'exec_cq'
p299
I1
sS'total_cq'
p300
I2
sasS'total_cqs'
p301
I2
ssI28
(dp302
S'iters'
p303
I0
sS'meta'
p304
(lp305
sS'total_cqs'
p306
I1
ssI29
(dp307
S'iters'
p308
I1
sS'meta'
p309
(lp310
(dp311
S'objective'
p312
I8645
sS'query_time'
p313
F0.42850494384765625
sS'comp_time'
p314
F0.0001628398895263672
sS'exec_cq'
p315
I1
sS'total_cq'
p316
I133
sasS'total_cqs'
p317
I133
ssI30
(dp318
S'iters'
p319
I1
sS'meta'
p320
(lp321
(dp322
S'objective'
p323
I8127
sS'query_time'
p324
F0.08552098274230957
sS'comp_time'
p325
F0.00016999244689941406
sS'exec_cq'
p326
I1
sS'total_cq'
p327
I129
sasS'total_cqs'
p328
I129
ssI31
(dp329
S'iters'
p330
I1
sS'meta'
p331
(lp332
(dp333
S'objective'
p334
I1539
sS'query_time'
p335
F0.03636980056762695
sS'comp_time'
p336
F0.00012302398681640625
sS'exec_cq'
p337
I1
sS'total_cq'
p338
I57
sasS'total_cqs'
p339
I57
ssI32
(dp340
S'iters'
p341
I1
sS'meta'
p342
(lp343
(dp344
S'objective'
p345
I3239
sS'query_time'
p346
F0.46837306022644043
sS'comp_time'
p347
F0.00011491775512695312
sS'exec_cq'
p348
I1
sS'total_cq'
p349
I82
sasS'total_cqs'
p350
I82
ssI33
(dp351
S'iters'
p352
I1
sS'meta'
p353
(lp354
(dp355
S'objective'
p356
I1
sS'query_time'
p357
F0.17084884643554688
sS'comp_time'
p358
F6.198883056640625e-05
sS'exec_cq'
p359
I1
sS'total_cq'
p360
I2
sasS'total_cqs'
p361
I2
ssI34
(dp362
S'iters'
p363
I1
sS'meta'
p364
(lp365
(dp366
S'objective'
p367
I54
sS'query_time'
p368
F0.04015207290649414
sS'comp_time'
p369
F8.511543273925781e-05
sS'exec_cq'
p370
I1
sS'total_cq'
p371
I12
sasS'total_cqs'
p372
I12
ssI35
(dp373
S'iters'
p374
I2
sS'meta'
p375
(lp376
(dp377
S'objective'
p378
I5679
sS'query_time'
p379
F0.12637996673583984
sS'comp_time'
p380
F0.00014901161193847656
sS'exec_cq'
p381
I1
sS'total_cq'
p382
I110
sa(dp383
g378
I7
sg379
F0.007338047027587891
sg380
F4.887580871582031e-05
sg381
I1
sg382
I2
sasS'total_cqs'
p384
I110
ssI36
(dp385
S'iters'
p386
I1
sS'meta'
p387
(lp388
(dp389
S'objective'
p390
I1890
sS'query_time'
p391
F0.042977094650268555
sS'comp_time'
p392
F0.00010228157043457031
sS'exec_cq'
p393
I1
sS'total_cq'
p394
I63
sasS'total_cqs'
p395
I63
ssI37
(dp396
S'iters'
p397
I1
sS'meta'
p398
(lp399
(dp400
S'objective'
p401
I1539
sS'query_time'
p402
F0.3861231803894043
sS'comp_time'
p403
F0.00015211105346679688
sS'exec_cq'
p404
I1
sS'total_cq'
p405
I57
sasS'total_cqs'
p406
I57
ssI38
(dp407
S'iters'
p408
I2
sS'meta'
p409
(lp410
(dp411
S'objective'
p412
I7811
sS'query_time'
p413
F0.08031201362609863
sS'comp_time'
p414
F0.00017499923706054688
sS'exec_cq'
p415
I1
sS'total_cq'
p416
I129
sa(dp417
g412
I29
sg413
F0.01129007339477539
sg414
F4.982948303222656e-05
sg415
I1
sg416
I3
sasS'total_cqs'
p418
I129
ssI39
(dp419
S'iters'
p420
I1
sS'meta'
p421
(lp422
(dp423
S'objective'
p424
I1
sS'query_time'
p425
F0.011659860610961914
sS'comp_time'
p426
F5.91278076171875e-05
sS'exec_cq'
p427
I1
sS'total_cq'
p428
I2
sasS'total_cqs'
p429
I2
ssI40
(dp430
S'iters'
p431
I2
sS'meta'
p432
(lp433
(dp434
S'objective'
p435
I6
sS'query_time'
p436
F0.40677380561828613
sS'comp_time'
p437
F0.00010800361633300781
sS'exec_cq'
p438
I1
sS'total_cq'
p439
I35
sa(dp440
g435
I242
sg436
F0.010561943054199219
sg437
F8.678436279296875e-05
sg438
I1
sg439
I14
sasS'total_cqs'
p441
I35
ssI41
(dp442
S'iters'
p443
I1
sS'meta'
p444
(lp445
(dp446
S'objective'
p447
I1
sS'query_time'
p448
F0.1705930233001709
sS'comp_time'
p449
F6.914138793945312e-05
sS'exec_cq'
p450
I1
sS'total_cq'
p451
I2
sasS'total_cqs'
p452
I2
ssI42
(dp453
S'iters'
p454
I1
sS'meta'
p455
(lp456
(dp457
S'objective'
p458
I104
sS'query_time'
p459
F0.0454869270324707
sS'comp_time'
p460
F8.416175842285156e-05
sS'exec_cq'
p461
I1
sS'total_cq'
p462
I16
sasS'total_cqs'
p463
I16
ssI43
(dp464
S'iters'
p465
I2
sS'meta'
p466
(lp467
(dp468
S'objective'
p469
I1323
sS'query_time'
p470
F0.10697698593139648
sS'comp_time'
p471
F0.00012612342834472656
sS'exec_cq'
p472
I1
sS'total_cq'
p473
I54
sa(dp474
g469
I27
sg470
F0.029076814651489258
sg471
F6.413459777832031e-05
sg472
I1
sg473
I2
sasS'total_cqs'
p475
I54
ssI44
(dp476
S'iters'
p477
I0
sS'meta'
p478
(lp479
sS'total_cqs'
p480
I1
ssI45
(dp481
S'iters'
p482
I1
sS'meta'
p483
(lp484
(dp485
S'objective'
p486
I1539
sS'query_time'
p487
F0.4137539863586426
sS'comp_time'
p488
F0.00012302398681640625
sS'exec_cq'
p489
I1
sS'total_cq'
p490
I57
sasS'total_cqs'
p491
I57
ssI46
(dp492
S'iters'
p493
I2
sS'meta'
p494
(lp495
(dp496
S'objective'
p497
I1
sS'query_time'
p498
F0.02314615249633789
sS'comp_time'
p499
F7.796287536621094e-05
sS'exec_cq'
p500
I1
sS'total_cq'
p501
I6
sa(dp502
g497
I2
sg498
F0.008240938186645508
sg499
F5.817413330078125e-05
sg500
I1
sg501
I3
sasS'total_cqs'
p503
I6
ssI47
(dp504
S'iters'
p505
I2
sS'meta'
p506
(lp507
(dp508
S'objective'
p509
I7405
sS'query_time'
p510
F0.11731910705566406
sS'comp_time'
p511
F0.00016617774963378906
sS'exec_cq'
p512
I1
sS'total_cq'
p513
I126
sa(dp514
g509
I46
sg510
F0.004052877426147461
sg511
F5.2928924560546875e-05
sg512
I1
sg513
I6
sasS'total_cqs'
p515
I126
ssI48
(dp516
S'iters'
p517
I4
sS'meta'
p518
(lp519
(dp520
S'objective'
p521
I13
sS'query_time'
p522
F0.4430530071258545
sS'comp_time'
p523
F7.700920104980469e-05
sS'exec_cq'
p524
I1
sS'total_cq'
p525
I21
sa(dp526
g521
I101
sg522
F0.009744882583618164
sg523
F8.821487426757812e-05
sg524
I1
sg525
I12
sa(dp527
g521
I87
sg522
F0.009116172790527344
sg523
F7.104873657226562e-05
sg524
I1
sg525
I11
sa(dp528
g521
I54
sg522
F0.02815413475036621
sg523
F5.888938903808594e-05
sg524
I1
sg525
I10
sasS'total_cqs'
p529
I21
ssI49
(dp530
S'iters'
p531
I3
sS'meta'
p532
(lp533
(dp534
S'objective'
p535
I1929
sS'query_time'
p536
F0.22066998481750488
sS'comp_time'
p537
F0.00013113021850585938
sS'exec_cq'
p538
I1
sS'total_cq'
p539
I66
sa(dp540
g535
I13
sg536
F0.0044171810150146484
sg537
F5.793571472167969e-05
sg538
I1
sg539
I3
sa(dp541
g535
I55
sg536
F0.00439000129699707
sg537
F5.1021575927734375e-05
sg538
I1
sg539
I2
sasS'total_cqs'
p542
I66
ssI50
(dp543
S'iters'
p544
I2
sS'meta'
p545
(lp546
(dp547
S'objective'
p548
I39306
sS'query_time'
p549
F0.15390396118164062
sS'comp_time'
p550
F0.00027298927307128906
sS'exec_cq'
p551
I1
sS'total_cq'
p552
I284
sa(dp553
g548
I14
sg549
F0.005279064178466797
sg550
F6.413459777832031e-05
sg551
I1
sg552
I4
sasS'total_cqs'
p554
I284
ssI51
(dp555
S'iters'
p556
I1
sS'meta'
p557
(lp558
(dp559
S'objective'
p560
I1
sS'query_time'
p561
F0.09171295166015625
sS'comp_time'
p562
F6.794929504394531e-05
sS'exec_cq'
p563
I1
sS'total_cq'
p564
I2
sasS'total_cqs'
p565
I2
ssI52
(dp566
S'iters'
p567
I0
sS'meta'
p568
(lp569
sS'total_cqs'
p570
I1
ssI53
(dp571
S'iters'
p572
I1
sS'meta'
p573
(lp574
(dp575
S'objective'
p576
I1
sS'query_time'
p577
F0.3572540283203125
sS'comp_time'
p578
F5.078315734863281e-05
sS'exec_cq'
p579
I1
sS'total_cq'
p580
I2
sasS'total_cqs'
p581
I2
ssI54
(dp582
S'iters'
p583
I1
sS'meta'
p584
(lp585
(dp586
S'objective'
p587
I324
sS'query_time'
p588
F0.053254127502441406
sS'comp_time'
p589
F0.00010085105895996094
sS'exec_cq'
p590
I1
sS'total_cq'
p591
I27
sasS'total_cqs'
p592
I27
ssI55
(dp593
S'iters'
p594
I2
sS'meta'
p595
(lp596
(dp597
S'objective'
p598
I852
sS'query_time'
p599
F0.0834050178527832
sS'comp_time'
p600
F0.00010800361633300781
sS'exec_cq'
p601
I1
sS'total_cq'
p602
I55
sa(dp603
g598
I234
sg599
F0.008757829666137695
sg600
F6.628036499023438e-05
sg601
I1
sg602
I9
sasS'total_cqs'
p604
I55
ssI56
(dp605
S'iters'
p606
I2
sS'meta'
p607
(lp608
(dp609
S'objective'
p610
I2179
sS'query_time'
p611
F0.4580838680267334
sS'comp_time'
p612
F0.00015115737915039062
sS'exec_cq'
p613
I1
sS'total_cq'
p614
I82
sa(dp615
g610
I448
sg611
F0.009092092514038086
sg612
F7.200241088867188e-05
sg613
I1
sg614
I14
sasS'total_cqs'
p616
I82
ssI57
(dp617
S'iters'
p618
I1
sS'meta'
p619
(lp620
(dp621
S'objective'
p622
I1
sS'query_time'
p623
F0.17704200744628906
sS'comp_time'
p624
F6.985664367675781e-05
sS'exec_cq'
p625
I1
sS'total_cq'
p626
I2
sasS'total_cqs'
p627
I2
ssI58
(dp628
S'iters'
p629
I2
sS'meta'
p630
(lp631
(dp632
S'objective'
p633
I39006
sS'query_time'
p634
F0.15647315979003906
sS'comp_time'
p635
F0.00028705596923828125
sS'exec_cq'
p636
I1
sS'total_cq'
p637
I284
sa(dp638
g633
I164
sg634
F0.005463838577270508
sg635
F5.698204040527344e-05
sg636
I1
sg637
I4
sasS'total_cqs'
p639
I284
ssI59
(dp640
S'iters'
p641
I1
sS'meta'
p642
(lp643
(dp644
S'objective'
p645
I1
sS'query_time'
p646
F0.09992313385009766
sS'comp_time'
p647
F7.486343383789062e-05
sS'exec_cq'
p648
I1
sS'total_cq'
p649
I2
sasS'total_cqs'
p650
I2
ssI60
(dp651
S'iters'
p652
I1
sS'meta'
p653
(lp654
(dp655
S'objective'
p656
I1890
sS'query_time'
p657
F0.040576934814453125
sS'comp_time'
p658
F0.00010585784912109375
sS'exec_cq'
p659
I1
sS'total_cq'
p660
I63
sasS'total_cqs'
p661
I63
ssI61
(dp662
S'iters'
p663
I2
sS'meta'
p664
(lp665
(dp666
S'objective'
p667
I2
sS'query_time'
p668
F0.3624570369720459
sS'comp_time'
p669
F5.817413330078125e-05
sS'exec_cq'
p670
I1
sS'total_cq'
p671
I4
sa(dp672
g667
I2
sg668
F0.0025780200958251953
sg669
F6.079673767089844e-05
sg670
I1
sg671
I2
sasS'total_cqs'
p673
I4
ssI62
(dp674
S'iters'
p675
I1
sS'meta'
p676
(lp677
(dp678
S'objective'
p679
I594
sS'query_time'
p680
F0.05720210075378418
sS'comp_time'
p681
F0.00011110305786132812
sS'exec_cq'
p682
I1
sS'total_cq'
p683
I36
sasS'total_cqs'
p684
I36
ssI63
(dp685
S'iters'
p686
I1
sS'meta'
p687
(lp688
(dp689
S'objective'
p690
I1377
sS'query_time'
p691
F0.029361963272094727
sS'comp_time'
p692
F0.00013518333435058594
sS'exec_cq'
p693
I1
sS'total_cq'
p694
I54
sasS'total_cqs'
p695
I54
ssI64
(dp696
S'iters'
p697
I3
sS'meta'
p698
(lp699
(dp700
S'objective'
p701
I81
sS'query_time'
p702
F0.41147613525390625
sS'comp_time'
p703
F8.606910705566406e-05
sS'exec_cq'
p704
I1
sS'total_cq'
p705
I17
sa(dp706
g701
I33
sg702
F0.31270408630371094
sg703
F9.584426879882812e-05
sg704
I2
sg705
I14
sa(dp707
g701
I8
sg702
F0.5783870220184326
sg703
F0.0009429454803466797
sg704
I2
sg705
I4
sasS'total_cqs'
p708
I17
ssI65
(dp709
S'iters'
p710
I1
sS'meta'
p711
(lp712
(dp713
S'objective'
p714
I1
sS'query_time'
p715
F0.16232609748840332
sS'comp_time'
p716
F4.982948303222656e-05
sS'exec_cq'
p717
I1
sS'total_cq'
p718
I2
sasS'total_cqs'
p719
I2
ssI66
(dp720
S'iters'
p721
I2
sS'meta'
p722
(lp723
(dp724
S'objective'
p725
I38058
sS'query_time'
p726
F0.16797280311584473
sS'comp_time'
p727
F0.0003337860107421875
sS'exec_cq'
p728
I1
sS'total_cq'
p729
I284
sa(dp730
g725
I638
sg726
F0.0074329376220703125
sg727
F6.794929504394531e-05
sg728
I1
sg729
I6
sasS'total_cqs'
p731
I284
ssI67
(dp732
S'iters'
p733
I1
sS'meta'
p734
(lp735
(dp736
S'objective'
p737
I1
sS'query_time'
p738
F0.09924077987670898
sS'comp_time'
p739
F6.318092346191406e-05
sS'exec_cq'
p740
I1
sS'total_cq'
p741
I2
sasS'total_cqs'
p742
I2
ssI68
(dp743
S'iters'
p744
I1
sS'meta'
p745
(lp746
(dp747
S'objective'
p748
I1890
sS'query_time'
p749
F0.03650712966918945
sS'comp_time'
p750
F0.00010704994201660156
sS'exec_cq'
p751
I1
sS'total_cq'
p752
I63
sasS'total_cqs'
p753
I63
ssI69
(dp754
S'iters'
p755
I1
sS'meta'
p756
(lp757
(dp758
S'objective'
p759
I945
sS'query_time'
p760
F0.3435940742492676
sS'comp_time'
p761
F0.00011110305786132812
sS'exec_cq'
p762
I1
sS'total_cq'
p763
I45
sasS'total_cqs'
p764
I45
ssI70
(dp765
S'iters'
p766
I2
sS'meta'
p767
(lp768
(dp769
S'objective'
p770
I278
sS'query_time'
p771
F0.05177593231201172
sS'comp_time'
p772
F0.0001049041748046875
sS'exec_cq'
p773
I1
sS'total_cq'
p774
I27
sa(dp775
g770
I4
sg771
F0.002936840057373047
sg772
F0.0001010894775390625
sg773
I1
sg774
I3
sasS'total_cqs'
p776
I27
ssI71
(dp777
S'iters'
p778
I2
sS'meta'
p779
(lp780
(dp781
S'objective'
p782
I64137
sS'query_time'
p783
F0.29123687744140625
sS'comp_time'
p784
F0.0003790855407714844
sS'exec_cq'
p785
I1
sS'total_cq'
p786
I366
sa(dp787
g782
I780
sg783
F0.005084037780761719
sg784
F5.91278076171875e-05
sg785
I1
sg786
I8
sasS'total_cqs'
p788
I366
ssI72
(dp789
S'iters'
p790
I1
sS'meta'
p791
(lp792
(dp793
S'objective'
p794
I119
sS'query_time'
p795
F0.39206480979919434
sS'comp_time'
p796
F8.20159912109375e-05
sS'exec_cq'
p797
I1
sS'total_cq'
p798
I17
sasS'total_cqs'
p799
I17
ss.