(dp0
I1
(dp1
S'iters'
p2
I1
sS'meta'
p3
(lp4
(dp5
S'objective'
p6
I0
sS'query_time'
p7
F0.19478511810302734
sS'comp_time'
p8
F6.4849853515625e-05
sS'exec_cq'
p9
I1
sS'total_cq'
p10
I3
sasS'total_cqs'
p11
I3
ssI2
(dp12
S'iters'
p13
I1
sS'meta'
p14
(lp15
(dp16
S'objective'
p17
I152
sS'query_time'
p18
F0.05446887016296387
sS'comp_time'
p19
F7.915496826171875e-05
sS'exec_cq'
p20
I1
sS'total_cq'
p21
I19
sasS'total_cqs'
p22
I19
ssI3
(dp23
S'iters'
p24
I1
sS'meta'
p25
(lp26
(dp27
S'objective'
p28
I1
sS'query_time'
p29
F0.1003868579864502
sS'comp_time'
p30
F3.218650817871094e-05
sS'exec_cq'
p31
I1
sS'total_cq'
p32
I2
sasS'total_cqs'
p33
I2
ssI4
(dp34
S'iters'
p35
I1
sS'meta'
p36
(lp37
(dp38
S'objective'
p39
I1710
sS'query_time'
p40
F0.04383206367492676
sS'comp_time'
p41
F0.0001049041748046875
sS'exec_cq'
p42
I1
sS'total_cq'
p43
I60
sasS'total_cqs'
p44
I60
ssI5
(dp45
S'iters'
p46
I2
sS'meta'
p47
(lp48
(dp49
S'objective'
p50
I8563
sS'query_time'
p51
F0.4334139823913574
sS'comp_time'
p52
F0.0001499652862548828
sS'exec_cq'
p53
I1
sS'total_cq'
p54
I133
sa(dp55
g50
I92
sg51
F0.022996902465820312
sg52
F3.695487976074219e-05
sg53
I1
sg54
I2
sasS'total_cqs'
p56
I133
ssI6
(dp57
S'iters'
p58
I1
sS'meta'
p59
(lp60
(dp61
S'objective'
p62
I230
sS'query_time'
p63
F0.050462961196899414
sS'comp_time'
p64
F8.511543273925781e-05
sS'exec_cq'
p65
I1
sS'total_cq'
p66
I23
sasS'total_cqs'
p67
I23
ssI7
(dp68
S'iters'
p69
I1
sS'meta'
p70
(lp71
(dp72
S'objective'
p73
I29402
sS'query_time'
p74
F0.19484400749206543
sS'comp_time'
p75
F0.0001571178436279297
sS'exec_cq'
p76
I1
sS'total_cq'
p77
I244
sasS'total_cqs'
p78
I244
ssI8
(dp79
S'iters'
p80
I1
sS'meta'
p81
(lp82
(dp83
S'objective'
p84
I3239
sS'query_time'
p85
F0.46865391731262207
sS'comp_time'
p86
F9.298324584960938e-05
sS'exec_cq'
p87
I1
sS'total_cq'
p88
I82
sasS'total_cqs'
p89
I82
ssI9
(dp90
S'iters'
p91
I1
sS'meta'
p92
(lp93
(dp94
S'objective'
p95
I1
sS'query_time'
p96
F0.18278098106384277
sS'comp_time'
p97
F6.699562072753906e-05
sS'exec_cq'
p98
I1
sS'total_cq'
p99
I2
sasS'total_cqs'
p100
I2
ssI10
(dp101
S'iters'
p102
I1
sS'meta'
p103
(lp104
(dp105
S'objective'
p106
I21735
sS'query_time'
p107
F0.15201783180236816
sS'comp_time'
p108
F0.00018596649169921875
sS'exec_cq'
p109
I1
sS'total_cq'
p110
I210
sasS'total_cqs'
p111
I210
ssI11
(dp112
S'iters'
p113
I1
sS'meta'
p114
(lp115
(dp116
S'objective'
p117
I1
sS'query_time'
p118
F0.10022091865539551
sS'comp_time'
p119
F3.504753112792969e-05
sS'exec_cq'
p120
I1
sS'total_cq'
p121
I2
sasS'total_cqs'
p122
I2
ssI12
(dp123
S'iters'
p124
I0
sS'meta'
p125
(lp126
sS'total_cqs'
p127
I1
ssI13
(dp128
S'iters'
p129
I1
sS'meta'
p130
(lp131
(dp132
S'objective'
p133
I1
sS'query_time'
p134
F0.38208484649658203
sS'comp_time'
p135
F5.1975250244140625e-05
sS'exec_cq'
p136
I1
sS'total_cq'
p137
I2
sasS'total_cqs'
p138
I2
ssI14
(dp139
S'iters'
p140
I1
sS'meta'
p141
(lp142
(dp143
S'objective'
p144
I16835
sS'query_time'
p145
F0.1562669277191162
sS'comp_time'
p146
F0.0001552104949951172
sS'exec_cq'
p147
I1
sS'total_cq'
p148
I185
sasS'total_cqs'
p149
I185
ssI15
(dp150
S'iters'
p151
I4
sS'meta'
p152
(lp153
(dp154
S'objective'
p155
I28038
sS'query_time'
p156
F0.20873713493347168
sS'comp_time'
p157
F0.00013899803161621094
sS'exec_cq'
p158
I1
sS'total_cq'
p159
I244
sa(dp160
g155
I642
sg156
F0.006460905075073242
sg157
F3.504753112792969e-05
sg158
I1
sg159
I8
sa(dp161
g155
I448
sg156
F0.012090921401977539
sg157
F3.314018249511719e-05
sg158
I1
sg159
I7
sa(dp162
g155
I128
sg156
F0.007699012756347656
sg157
F3.1948089599609375e-05
sg158
I1
sg159
I5
sasS'total_cqs'
p163
I244
ssI16
(dp164
S'iters'
p165
I4
sS'meta'
p166
(lp167
(dp168
S'objective'
p169
I164
sS'query_time'
p170
F0.46457386016845703
sS'comp_time'
p171
F7.176399230957031e-05
sS'exec_cq'
p172
I1
sS'total_cq'
p173
I23
sa(dp174
g169
I168
sg170
F0.013992071151733398
sg171
F4.7206878662109375e-05
sg172
I1
sg173
I18
sa(dp175
g169
I92
sg170
F0.013030052185058594
sg171
F4.38690185546875e-05
sg172
I1
sg173
I15
sa(dp176
g169
I97
sg170
F0.00689697265625
sg171
F4.506111145019531e-05
sg172
I1
sg173
I11
sasS'total_cqs'
p177
I23
ssI17
(dp178
S'iters'
p179
I1
sS'meta'
p180
(lp181
(dp182
S'objective'
p183
I6554
sS'query_time'
p184
F0.22078919410705566
sS'comp_time'
p185
F0.0001239776611328125
sS'exec_cq'
p186
I1
sS'total_cq'
p187
I116
sasS'total_cqs'
p188
I116
ssI18
(dp189
S'iters'
p190
I1
sS'meta'
p191
(lp192
(dp193
S'objective'
p194
I152
sS'query_time'
p195
F0.043168067932128906
sS'comp_time'
p196
F7.891654968261719e-05
sS'exec_cq'
p197
I1
sS'total_cq'
p198
I19
sasS'total_cqs'
p199
I19
ssI19
(dp200
S'iters'
p201
I2
sS'meta'
p202
(lp203
(dp204
S'objective'
p205
I1289
sS'query_time'
p206
F0.11652398109436035
sS'comp_time'
p207
F9.393692016601562e-05
sS'exec_cq'
p208
I1
sS'total_cq'
p209
I54
sa(dp210
g205
I10
sg206
F0.09319901466369629
sg207
F3.981590270996094e-05
sg208
I1
sg209
I2
sasS'total_cqs'
p211
I54
ssI20
(dp212
S'iters'
p213
I1
sS'meta'
p214
(lp215
(dp216
S'objective'
p217
I1710
sS'query_time'
p218
F0.045556068420410156
sS'comp_time'
p219
F9.202957153320312e-05
sS'exec_cq'
p220
I1
sS'total_cq'
p221
I60
sasS'total_cqs'
p222
I60
ssI21
(dp223
S'iters'
p224
I1
sS'meta'
p225
(lp226
(dp227
S'objective'
p228
I945
sS'query_time'
p229
F0.4067859649658203
sS'comp_time'
p230
F9.083747863769531e-05
sS'exec_cq'
p231
I1
sS'total_cq'
p232
I45
sasS'total_cqs'
p233
I45
ssI22
(dp234
S'iters'
p235
I2
sS'meta'
p236
(lp237
(dp238
S'objective'
p239
I21
sS'query_time'
p240
F0.030215024948120117
sS'comp_time'
p241
F8.106231689453125e-05
sS'exec_cq'
p242
I1
sS'total_cq'
p243
I9
sa(dp244
g239
I6
sg240
F0.007277011871337891
sg241
F3.600120544433594e-05
sg242
I1
sg243
I3
sasS'total_cqs'
p245
I9
ssI23
(dp246
S'iters'
p247
I2
sS'meta'
p248
(lp249
(dp250
S'objective'
p251
I1180
sS'query_time'
p252
F0.03729391098022461
sS'comp_time'
p253
F0.0032949447631835938
sS'exec_cq'
p254
I1
sS'total_cq'
p255
I51
sa(dp256
g251
I29
sg252
F0.001264810562133789
sg253
F3.790855407714844e-05
sg254
I1
sg255
I2
sasS'total_cqs'
p257
I51
ssI24
(dp258
S'iters'
p259
I1
sS'meta'
p260
(lp261
(dp262
S'objective'
p263
I1461194
sS'query_time'
p264
F1.3533251285552979
sS'comp_time'
p265
F0.0009071826934814453
sS'exec_cq'
p266
I1
sS'total_cq'
p267
I1711
sasS'total_cqs'
p268
I1711
ssI25
(dp269
S'iters'
p270
I2
sS'meta'
p271
(lp272
(dp273
S'objective'
p274
I6297
sS'query_time'
p275
F0.22693490982055664
sS'comp_time'
p276
F0.00023889541625976562
sS'exec_cq'
p277
I1
sS'total_cq'
p278
I114
sa(dp279
g274
I99
sg275
F0.0025110244750976562
sg276
F3.814697265625e-05
sg277
I1
sg278
I2
sasS'total_cqs'
p280
I114
ssI26
(dp281
S'iters'
p282
I1
sS'meta'
p283
(lp284
(dp285
S'objective'
p286
I54
sS'query_time'
p287
F0.03740286827087402
sS'comp_time'
p288
F7.104873657226562e-05
sS'exec_cq'
p289
I1
sS'total_cq'
p290
I12
sasS'total_cqs'
p291
I12
ssI27
(dp292
S'iters'
p293
I1
sS'meta'
p294
(lp295
(dp296
S'objective'
p297
I1
sS'query_time'
p298
F0.0820930004119873
sS'comp_time'
p299
F5.91278076171875e-05
sS'exec_cq'
p300
I1
sS'total_cq'
p301
I2
sasS'total_cqs'
p302
I2
ssI28
(dp303
S'iters'
p304
I0
sS'meta'
p305
(lp306
sS'total_cqs'
p307
I1
ssI29
(dp308
S'iters'
p309
I1
sS'meta'
p310
(lp311
(dp312
S'objective'
p313
I8645
sS'query_time'
p314
F0.4376399517059326
sS'comp_time'
p315
F0.00012493133544921875
sS'exec_cq'
p316
I1
sS'total_cq'
p317
I133
sasS'total_cqs'
p318
I133
ssI30
(dp319
S'iters'
p320
I2
sS'meta'
p321
(lp322
(dp323
S'objective'
p324
I7925
sS'query_time'
p325
F0.08606600761413574
sS'comp_time'
p326
F0.0001220703125
sS'exec_cq'
p327
I1
sS'total_cq'
p328
I129
sa(dp329
g324
I28
sg325
F0.012359857559204102
sg326
F3.2901763916015625e-05
sg327
I1
sg328
I3
sasS'total_cqs'
p330
I129
ssI31
(dp331
S'iters'
p332
I2
sS'meta'
p333
(lp334
(dp335
S'objective'
p336
I1435
sS'query_time'
p337
F0.037065982818603516
sS'comp_time'
p338
F8.511543273925781e-05
sS'exec_cq'
p339
I1
sS'total_cq'
p340
I57
sa(dp341
g336
I5
sg337
F0.0011720657348632812
sg338
F3.504753112792969e-05
sg339
I1
sg340
I2
sasS'total_cqs'
p342
I57
ssI32
(dp343
S'iters'
p344
I5
sS'meta'
p345
(lp346
(dp347
S'objective'
p348
I1807
sS'query_time'
p349
F0.5202658176422119
sS'comp_time'
p350
F0.00010204315185546875
sS'exec_cq'
p351
I1
sS'total_cq'
p352
I82
sa(dp353
g348
I632
sg349
F0.015982866287231445
sg350
F4.601478576660156e-05
sg351
I1
sg352
I21
sa(dp354
g348
I407
sg349
F0.014596939086914062
sg350
F4.410743713378906e-05
sg351
I1
sg352
I19
sa(dp355
g348
I249
sg349
F0.013467788696289062
sg350
F5.2928924560546875e-05
sg351
I1
sg352
I15
sa(dp356
g348
I241
sg349
F0.013170957565307617
sg350
F3.504753112792969e-05
sg351
I1
sg352
I11
sasS'total_cqs'
p357
I82
ssI33
(dp358
S'iters'
p359
I1
sS'meta'
p360
(lp361
(dp362
S'objective'
p363
I1
sS'query_time'
p364
F0.17604589462280273
sS'comp_time'
p365
F3.2901763916015625e-05
sS'exec_cq'
p366
I1
sS'total_cq'
p367
I2
sasS'total_cqs'
p368
I2
ssI34
(dp369
S'iters'
p370
I2
sS'meta'
p371
(lp372
(dp373
S'objective'
p374
I18
sS'query_time'
p375
F0.03633999824523926
sS'comp_time'
p376
F5.793571472167969e-05
sS'exec_cq'
p377
I1
sS'total_cq'
p378
I12
sa(dp379
g374
I6
sg375
F0.00623011589050293
sg376
F3.790855407714844e-05
sg377
I1
sg378
I5
sasS'total_cqs'
p380
I12
ssI35
(dp381
S'iters'
p382
I2
sS'meta'
p383
(lp384
(dp385
S'objective'
p386
I5839
sS'query_time'
p387
F0.12661218643188477
sS'comp_time'
p388
F0.0001380443572998047
sS'exec_cq'
p389
I1
sS'total_cq'
p390
I110
sa(dp391
g386
I87
sg387
F0.029714107513427734
sg388
F3.504753112792969e-05
sg389
I1
sg390
I2
sasS'total_cqs'
p392
I110
ssI36
(dp393
S'iters'
p394
I1
sS'meta'
p395
(lp396
(dp397
S'objective'
p398
I1890
sS'query_time'
p399
F0.0423588752746582
sS'comp_time'
p400
F6.794929504394531e-05
sS'exec_cq'
p401
I1
sS'total_cq'
p402
I63
sasS'total_cqs'
p403
I63
ssI37
(dp404
S'iters'
p405
I1
sS'meta'
p406
(lp407
(dp408
S'objective'
p409
I1539
sS'query_time'
p410
F0.39625000953674316
sS'comp_time'
p411
F7.510185241699219e-05
sS'exec_cq'
p412
I1
sS'total_cq'
p413
I57
sasS'total_cqs'
p414
I57
ssI38
(dp415
S'iters'
p416
I1
sS'meta'
p417
(lp418
(dp419
S'objective'
p420
I8127
sS'query_time'
p421
F0.08030080795288086
sS'comp_time'
p422
F9.202957153320312e-05
sS'exec_cq'
p423
I1
sS'total_cq'
p424
I129
sasS'total_cqs'
p425
I129
ssI39
(dp426
S'iters'
p427
I1
sS'meta'
p428
(lp429
(dp430
S'objective'
p431
I1
sS'query_time'
p432
F0.011904001235961914
sS'comp_time'
p433
F4.410743713378906e-05
sS'exec_cq'
p434
I1
sS'total_cq'
p435
I2
sasS'total_cqs'
p436
I2
ssI40
(dp437
S'iters'
p438
I3
sS'meta'
p439
(lp440
(dp441
S'objective'
p442
I110
sS'query_time'
p443
F0.4377009868621826
sS'comp_time'
p444
F8.106231689453125e-05
sS'exec_cq'
p445
I1
sS'total_cq'
p446
I35
sa(dp447
g442
I194
sg443
F0.01663684844970703
sg444
F4.315376281738281e-05
sg445
I1
sg446
I16
sa(dp448
g442
I157
sg443
F0.009619951248168945
sg444
F4.291534423828125e-05
sg445
I1
sg446
I13
sasS'total_cqs'
p449
I35
ssI41
(dp450
S'iters'
p451
I1
sS'meta'
p452
(lp453
(dp454
S'objective'
p455
I1
sS'query_time'
p456
F0.1715390682220459
sS'comp_time'
p457
F3.0040740966796875e-05
sS'exec_cq'
p458
I1
sS'total_cq'
p459
I2
sasS'total_cqs'
p460
I2
ssI42
(dp461
S'iters'
p462
I1
sS'meta'
p463
(lp464
(dp465
S'objective'
p466
I104
sS'query_time'
p467
F0.04432106018066406
sS'comp_time'
p468
F5.2928924560546875e-05
sS'exec_cq'
p469
I1
sS'total_cq'
p470
I16
sasS'total_cqs'
p471
I16
ssI43
(dp472
S'iters'
p473
I3
sS'meta'
p474
(lp475
(dp476
S'objective'
p477
I1263
sS'query_time'
p478
F0.1063849925994873
sS'comp_time'
p479
F8.20159912109375e-05
sS'exec_cq'
p480
I1
sS'total_cq'
p481
I54
sa(dp482
g477
I9
sg478
F0.0024480819702148438
sg479
F3.314018249511719e-05
sg480
I1
sg481
I3
sa(dp483
g477
I48
sg478
F0.006791114807128906
sg479
F2.9802322387695312e-05
sg480
I1
sg481
I2
sasS'total_cqs'
p484
I54
ssI44
(dp485
S'iters'
p486
I0
sS'meta'
p487
(lp488
sS'total_cqs'
p489
I1
ssI45
(dp490
S'iters'
p491
I1
sS'meta'
p492
(lp493
(dp494
S'objective'
p495
I1539
sS'query_time'
p496
F0.4026060104370117
sS'comp_time'
p497
F8.0108642578125e-05
sS'exec_cq'
p498
I1
sS'total_cq'
p499
I57
sasS'total_cqs'
p500
I57
ssI46
(dp501
S'iters'
p502
I2
sS'meta'
p503
(lp504
(dp505
S'objective'
p506
I7
sS'query_time'
p507
F0.0223388671875
sS'comp_time'
p508
F4.792213439941406e-05
sS'exec_cq'
p509
I1
sS'total_cq'
p510
I6
sa(dp511
g506
I2
sg507
F0.0029261112213134766
sg508
F3.600120544433594e-05
sg509
I1
sg510
I3
sasS'total_cqs'
p512
I6
ssI47
(dp513
S'iters'
p514
I2
sS'meta'
p515
(lp516
(dp517
S'objective'
p518
I7161
sS'query_time'
p519
F0.11431288719177246
sS'comp_time'
p520
F0.00010418891906738281
sS'exec_cq'
p521
I1
sS'total_cq'
p522
I126
sa(dp523
g518
I168
sg519
F0.008083105087280273
sg520
F3.886222839355469e-05
sg521
I1
sg522
I6
sasS'total_cqs'
p524
I126
ssI48
(dp525
S'iters'
p526
I2
sS'meta'
p527
(lp528
(dp529
S'objective'
p530
I75
sS'query_time'
p531
F0.40976381301879883
sS'comp_time'
p532
F6.794929504394531e-05
sS'exec_cq'
p533
I1
sS'total_cq'
p534
I21
sa(dp535
g530
I111
sg531
F0.009536027908325195
sg532
F3.0040740966796875e-05
sg533
I1
sg534
I14
sasS'total_cqs'
p536
I21
ssI49
(dp537
S'iters'
p538
I2
sS'meta'
p539
(lp540
(dp541
S'objective'
p542
I2031
sS'query_time'
p543
F0.2444760799407959
sS'comp_time'
p544
F9.298324584960938e-05
sS'exec_cq'
p545
I1
sS'total_cq'
p546
I66
sa(dp547
g542
I42
sg543
F0.004086017608642578
sg544
F3.409385681152344e-05
sg545
I1
sg546
I2
sasS'total_cqs'
p548
I66
ssI50
(dp549
S'iters'
p550
I1
sS'meta'
p551
(lp552
(dp553
S'objective'
p554
I39902
sS'query_time'
p555
F0.16115379333496094
sS'comp_time'
p556
F0.00022912025451660156
sS'exec_cq'
p557
I1
sS'total_cq'
p558
I284
sasS'total_cqs'
p559
I284
ssI51
(dp560
S'iters'
p561
I1
sS'meta'
p562
(lp563
(dp564
S'objective'
p565
I1
sS'query_time'
p566
F0.14564180374145508
sS'comp_time'
p567
F3.0040740966796875e-05
sS'exec_cq'
p568
I1
sS'total_cq'
p569
I2
sasS'total_cqs'
p570
I2
ssI52
(dp571
S'iters'
p572
I0
sS'meta'
p573
(lp574
sS'total_cqs'
p575
I1
ssI53
(dp576
S'iters'
p577
I1
sS'meta'
p578
(lp579
(dp580
S'objective'
p581
I1
sS'query_time'
p582
F0.37255191802978516
sS'comp_time'
p583
F5.0067901611328125e-05
sS'exec_cq'
p584
I1
sS'total_cq'
p585
I2
sasS'total_cqs'
p586
I2
ssI54
(dp587
S'iters'
p588
I1
sS'meta'
p589
(lp590
(dp591
S'objective'
p592
I324
sS'query_time'
p593
F0.04873800277709961
sS'comp_time'
p594
F7.796287536621094e-05
sS'exec_cq'
p595
I1
sS'total_cq'
p596
I27
sasS'total_cqs'
p597
I27
ssI55
(dp598
S'iters'
p599
I2
sS'meta'
p600
(lp601
(dp602
S'objective'
p603
I1096
sS'query_time'
p604
F0.07474303245544434
sS'comp_time'
p605
F5.888938903808594e-05
sS'exec_cq'
p606
I1
sS'total_cq'
p607
I55
sa(dp608
g603
I112
sg604
F0.004769086837768555
sg605
F3.504753112792969e-05
sg606
I1
sg607
I7
sasS'total_cqs'
p609
I55
ssI56
(dp610
S'iters'
p611
I4
sS'meta'
p612
(lp613
(dp614
S'objective'
p615
I1741
sS'query_time'
p616
F0.4488701820373535
sS'comp_time'
p617
F9.202957153320312e-05
sS'exec_cq'
p618
I1
sS'total_cq'
p619
I82
sa(dp620
g615
I129
sg616
F0.016167879104614258
sg617
F4.601478576660156e-05
sg618
I1
sg619
I20
sa(dp621
g615
I434
sg616
F0.01191091537475586
sg617
F6.4849853515625e-05
sg618
I1
sg619
I13
sa(dp622
g615
I293
sg616
F0.0240478515625
sg617
F3.504753112792969e-05
sg618
I1
sg619
I12
sasS'total_cqs'
p623
I82
ssI57
(dp624
S'iters'
p625
I1
sS'meta'
p626
(lp627
(dp628
S'objective'
p629
I1
sS'query_time'
p630
F0.16830801963806152
sS'comp_time'
p631
F4.9114227294921875e-05
sS'exec_cq'
p632
I1
sS'total_cq'
p633
I2
sasS'total_cqs'
p634
I2
ssI58
(dp635
S'iters'
p636
I1
sS'meta'
p637
(lp638
(dp639
S'objective'
p640
I39902
sS'query_time'
p641
F0.17128205299377441
sS'comp_time'
p642
F0.0001728534698486328
sS'exec_cq'
p643
I1
sS'total_cq'
p644
I284
sasS'total_cqs'
p645
I284
ssI59
(dp646
S'iters'
p647
I1
sS'meta'
p648
(lp649
(dp650
S'objective'
p651
I1
sS'query_time'
p652
F0.0872960090637207
sS'comp_time'
p653
F2.47955322265625e-05
sS'exec_cq'
p654
I1
sS'total_cq'
p655
I2
sasS'total_cqs'
p656
I2
ssI60
(dp657
S'iters'
p658
I1
sS'meta'
p659
(lp660
(dp661
S'objective'
p662
I1890
sS'query_time'
p663
F0.04246211051940918
sS'comp_time'
p664
F7.700920104980469e-05
sS'exec_cq'
p665
I1
sS'total_cq'
p666
I63
sasS'total_cqs'
p667
I63
ssI61
(dp668
S'iters'
p669
I2
sS'meta'
p670
(lp671
(dp672
S'objective'
p673
I2
sS'query_time'
p674
F0.360353946685791
sS'comp_time'
p675
F6.699562072753906e-05
sS'exec_cq'
p676
I1
sS'total_cq'
p677
I4
sa(dp678
g673
I2
sg674
F0.0032219886779785156
sg675
F5.0067901611328125e-05
sg676
I1
sg677
I2
sasS'total_cqs'
p679
I4
ssI62
(dp680
S'iters'
p681
I1
sS'meta'
p682
(lp683
(dp684
S'objective'
p685
I594
sS'query_time'
p686
F0.058673858642578125
sS'comp_time'
p687
F7.295608520507812e-05
sS'exec_cq'
p688
I1
sS'total_cq'
p689
I36
sasS'total_cqs'
p690
I36
ssI63
(dp691
S'iters'
p692
I1
sS'meta'
p693
(lp694
(dp695
S'objective'
p696
I1377
sS'query_time'
p697
F0.02878594398498535
sS'comp_time'
p698
F6.794929504394531e-05
sS'exec_cq'
p699
I1
sS'total_cq'
p700
I54
sasS'total_cqs'
p701
I54
ssI64
(dp702
S'iters'
p703
I4
sS'meta'
p704
(lp705
(dp706
S'objective'
p707
I137
sS'query_time'
p708
F0.37972211837768555
sS'comp_time'
p709
F6.389617919921875e-05
sS'exec_cq'
p710
I1
sS'total_cq'
p711
I17
sa(dp712
g707
I97
sg708
F0.013520956039428711
sg709
F4.315376281738281e-05
sg710
I1
sg711
I16
sa(dp713
g707
I89
sg708
F0.00909113883972168
sg709
F4.220008850097656e-05
sg710
I1
sg711
I13
sa(dp714
g707
I71
sg708
F0.008084774017333984
sg709
F3.504753112792969e-05
sg710
I1
sg711
I12
sasS'total_cqs'
p715
I17
ssI65
(dp716
S'iters'
p717
I1
sS'meta'
p718
(lp719
(dp720
S'objective'
p721
I1
sS'query_time'
p722
F0.17129015922546387
sS'comp_time'
p723
F5.3882598876953125e-05
sS'exec_cq'
p724
I1
sS'total_cq'
p725
I2
sasS'total_cqs'
p726
I2
ssI66
(dp727
S'iters'
p728
I1
sS'meta'
p729
(lp730
(dp731
S'objective'
p732
I39902
sS'query_time'
p733
F0.16872382164001465
sS'comp_time'
p734
F0.00017714500427246094
sS'exec_cq'
p735
I1
sS'total_cq'
p736
I284
sasS'total_cqs'
p737
I284
ssI67
(dp738
S'iters'
p739
I1
sS'meta'
p740
(lp741
(dp742
S'objective'
p743
I1
sS'query_time'
p744
F0.08554697036743164
sS'comp_time'
p745
F3.0994415283203125e-05
sS'exec_cq'
p746
I1
sS'total_cq'
p747
I2
sasS'total_cqs'
p748
I2
ssI68
(dp749
S'iters'
p750
I1
sS'meta'
p751
(lp752
(dp753
S'objective'
p754
I1890
sS'query_time'
p755
F0.039917945861816406
sS'comp_time'
p756
F7.081031799316406e-05
sS'exec_cq'
p757
I1
sS'total_cq'
p758
I63
sasS'total_cqs'
p759
I63
ssI69
(dp760
S'iters'
p761
I1
sS'meta'
p762
(lp763
(dp764
S'objective'
p765
I945
sS'query_time'
p766
F0.359421968460083
sS'comp_time'
p767
F0.00011801719665527344
sS'exec_cq'
p768
I1
sS'total_cq'
p769
I45
sasS'total_cqs'
p770
I45
ssI70
(dp771
S'iters'
p772
I2
sS'meta'
p773
(lp774
(dp775
S'objective'
p776
I292
sS'query_time'
p777
F0.047599077224731445
sS'comp_time'
p778
F5.2928924560546875e-05
sS'exec_cq'
p779
I1
sS'total_cq'
p780
I27
sa(dp781
g776
I11
sg777
F0.010917901992797852
sg778
F3.0994415283203125e-05
sg779
I1
sg780
I3
sasS'total_cqs'
p782
I27
ssI71
(dp783
S'iters'
p784
I2
sS'meta'
p785
(lp786
(dp787
S'objective'
p788
I62989
sS'query_time'
p789
F0.2755560874938965
sS'comp_time'
p790
F0.000164031982421875
sS'exec_cq'
p791
I1
sS'total_cq'
p792
I366
sa(dp793
g788
I1354
sg789
F0.013937950134277344
sg790
F3.790855407714844e-05
sg791
I1
sg792
I12
sasS'total_cqs'
p794
I366
ssI72
(dp795
S'iters'
p796
I3
sS'meta'
p797
(lp798
(dp799
S'objective'
p800
I71
sS'query_time'
p801
F0.35962891578674316
sS'comp_time'
p802
F5.507469177246094e-05
sS'exec_cq'
p803
I1
sS'total_cq'
p804
I17
sa(dp805
g800
I94
sg801
F0.021863937377929688
sg802
F4.1961669921875e-05
sg803
I1
sg804
I13
sa(dp806
g800
I69
sg801
F0.007356882095336914
sg802
F4.1961669921875e-05
sg803
I1
sg804
I11
sasS'total_cqs'
p807
I17
ss.