(dp0
I1
(dp1
S'iters'
p2
I1
sS'meta'
p3
(lp4
(dp5
S'objective'
p6
I0
sS'query_time'
p7
F0.17917990684509277
sS'comp_time'
p8
F7.200241088867188e-05
sS'exec_cq'
p9
I1
sS'total_cq'
p10
I3
sasS'total_cqs'
p11
I3
ssI2
(dp12
S'iters'
p13
I1
sS'meta'
p14
(lp15
(dp16
S'objective'
p17
I152
sS'query_time'
p18
F0.0481109619140625
sS'comp_time'
p19
F9.083747863769531e-05
sS'exec_cq'
p20
I1
sS'total_cq'
p21
I19
sasS'total_cqs'
p22
I19
ssI3
(dp23
S'iters'
p24
I1
sS'meta'
p25
(lp26
(dp27
S'objective'
p28
I1
sS'query_time'
p29
F0.10605502128601074
sS'comp_time'
p30
F8.082389831542969e-05
sS'exec_cq'
p31
I1
sS'total_cq'
p32
I2
sasS'total_cqs'
p33
I2
ssI4
(dp34
S'iters'
p35
I1
sS'meta'
p36
(lp37
(dp38
S'objective'
p39
I1710
sS'query_time'
p40
F0.043827056884765625
sS'comp_time'
p41
F0.00011181831359863281
sS'exec_cq'
p42
I1
sS'total_cq'
p43
I60
sasS'total_cqs'
p44
I60
ssI5
(dp45
S'iters'
p46
I1
sS'meta'
p47
(lp48
(dp49
S'objective'
p50
I8645
sS'query_time'
p51
F0.41696691513061523
sS'comp_time'
p52
F0.00020194053649902344
sS'exec_cq'
p53
I1
sS'total_cq'
p54
I133
sasS'total_cqs'
p55
I133
ssI6
(dp56
S'iters'
p57
I2
sS'meta'
p58
(lp59
(dp60
S'objective'
p61
I166
sS'query_time'
p62
F0.04985308647155762
sS'comp_time'
p63
F8.392333984375e-05
sS'exec_cq'
p64
I1
sS'total_cq'
p65
I23
sa(dp66
g61
I9
sg62
F0.010354995727539062
sg63
F5.7220458984375e-05
sg64
I1
sg65
I3
sasS'total_cqs'
p67
I23
ssI7
(dp68
S'iters'
p69
I1
sS'meta'
p70
(lp71
(dp72
S'objective'
p73
I29402
sS'query_time'
p74
F0.19617509841918945
sS'comp_time'
p75
F0.0002617835998535156
sS'exec_cq'
p76
I1
sS'total_cq'
p77
I244
sasS'total_cqs'
p78
I244
ssI8
(dp79
S'iters'
p80
I2
sS'meta'
p81
(lp82
(dp83
S'objective'
p84
I1619
sS'query_time'
p85
F0.5059311389923096
sS'comp_time'
p86
F0.00012373924255371094
sS'exec_cq'
p87
I1
sS'total_cq'
p88
I82
sa(dp89
g84
I728
sg85
F0.009387016296386719
sg86
F5.4836273193359375e-05
sg87
I1
sg88
I17
sasS'total_cqs'
p90
I82
ssI9
(dp91
S'iters'
p92
I1
sS'meta'
p93
(lp94
(dp95
S'objective'
p96
I1
sS'query_time'
p97
F0.183912992477417
sS'comp_time'
p98
F7.510185241699219e-05
sS'exec_cq'
p99
I1
sS'total_cq'
p100
I2
sasS'total_cqs'
p101
I2
ssI10
(dp102
S'iters'
p103
I1
sS'meta'
p104
(lp105
(dp106
S'objective'
p107
I21735
sS'query_time'
p108
F0.15336394309997559
sS'comp_time'
p109
F0.0002548694610595703
sS'exec_cq'
p110
I1
sS'total_cq'
p111
I210
sasS'total_cqs'
p112
I210
ssI11
(dp113
S'iters'
p114
I1
sS'meta'
p115
(lp116
(dp117
S'objective'
p118
I1
sS'query_time'
p119
F0.08757305145263672
sS'comp_time'
p120
F6.318092346191406e-05
sS'exec_cq'
p121
I1
sS'total_cq'
p122
I2
sasS'total_cqs'
p123
I2
ssI13
(dp124
S'iters'
p125
I1
sS'meta'
p126
(lp127
(dp128
S'objective'
p129
I1
sS'query_time'
p130
F0.38409900665283203
sS'comp_time'
p131
F6.008148193359375e-05
sS'exec_cq'
p132
I1
sS'total_cq'
p133
I2
sasS'total_cqs'
p134
I2
ssI14
(dp135
S'iters'
p136
I2
sS'meta'
p137
(lp138
(dp139
S'objective'
p140
I15525
sS'query_time'
p141
F0.1567859649658203
sS'comp_time'
p142
F0.00026702880859375
sS'exec_cq'
p143
I1
sS'total_cq'
p144
I185
sa(dp145
g140
I470
sg141
F0.009695053100585938
sg142
F5.91278076171875e-05
sg143
I1
sg144
I8
sasS'total_cqs'
p146
I185
ssI15
(dp147
S'iters'
p148
I1
sS'meta'
p149
(lp150
(dp151
S'objective'
p152
I29402
sS'query_time'
p153
F0.204056978225708
sS'comp_time'
p154
F0.0002739429473876953
sS'exec_cq'
p155
I1
sS'total_cq'
p156
I244
sasS'total_cqs'
p157
I244
ssI16
(dp158
S'iters'
p159
I2
sS'meta'
p160
(lp161
(dp162
S'objective'
p163
I138
sS'query_time'
p164
F0.43627405166625977
sS'comp_time'
p165
F9.012222290039062e-05
sS'exec_cq'
p166
I1
sS'total_cq'
p167
I23
sa(dp168
g163
I161
sg164
F0.010344982147216797
sg165
F5.412101745605469e-05
sg166
I1
sg167
I16
sasS'total_cqs'
p169
I23
ssI17
(dp170
S'iters'
p171
I1
sS'meta'
p172
(lp173
(dp174
S'objective'
p175
I6554
sS'query_time'
p176
F0.22005915641784668
sS'comp_time'
p177
F0.00015997886657714844
sS'exec_cq'
p178
I1
sS'total_cq'
p179
I116
sasS'total_cqs'
p180
I116
ssI18
(dp181
S'iters'
p182
I1
sS'meta'
p183
(lp184
(dp185
S'objective'
p186
I152
sS'query_time'
p187
F0.04526209831237793
sS'comp_time'
p188
F9.012222290039062e-05
sS'exec_cq'
p189
I1
sS'total_cq'
p190
I19
sasS'total_cqs'
p191
I19
ssI19
(dp192
S'iters'
p193
I3
sS'meta'
p194
(lp195
(dp196
S'objective'
p197
I953
sS'query_time'
p198
F0.11152982711791992
sS'comp_time'
p199
F0.00011014938354492188
sS'exec_cq'
p200
I1
sS'total_cq'
p201
I54
sa(dp202
g197
I78
sg198
F0.009653091430664062
sg199
F6.604194641113281e-05
sg200
I1
sg201
I9
sa(dp203
g197
I14
sg198
F0.019194841384887695
sg199
F5.984306335449219e-05
sg200
I1
sg201
I2
sasS'total_cqs'
p204
I54
ssI20
(dp205
S'iters'
p206
I1
sS'meta'
p207
(lp208
(dp209
S'objective'
p210
I1710
sS'query_time'
p211
F0.04641294479370117
sS'comp_time'
p212
F0.00013494491577148438
sS'exec_cq'
p213
I1
sS'total_cq'
p214
I60
sasS'total_cqs'
p215
I60
ssI21
(dp216
S'iters'
p217
I1
sS'meta'
p218
(lp219
(dp220
S'objective'
p221
I945
sS'query_time'
p222
F0.40945887565612793
sS'comp_time'
p223
F9.298324584960938e-05
sS'exec_cq'
p224
I1
sS'total_cq'
p225
I45
sasS'total_cqs'
p226
I45
ssI22
(dp227
S'iters'
p228
I1
sS'meta'
p229
(lp230
(dp231
S'objective'
p232
I27
sS'query_time'
p233
F0.029900074005126953
sS'comp_time'
p234
F6.699562072753906e-05
sS'exec_cq'
p235
I1
sS'total_cq'
p236
I9
sasS'total_cqs'
p237
I9
ssI23
(dp238
S'iters'
p239
I1
sS'meta'
p240
(lp241
(dp242
S'objective'
p243
I1224
sS'query_time'
p244
F0.03906083106994629
sS'comp_time'
p245
F0.00011777877807617188
sS'exec_cq'
p246
I1
sS'total_cq'
p247
I51
sasS'total_cqs'
p248
I51
ssI24
(dp249
S'iters'
p250
I2
sS'meta'
p251
(lp252
(dp253
S'objective'
p254
I1441946
sS'query_time'
p255
F1.3390388488769531
sS'comp_time'
p256
F0.0029969215393066406
sS'exec_cq'
p257
I1
sS'total_cq'
p258
I1711
sa(dp259
g254
I7913
sg255
F0.009131908416748047
sg256
F6.389617919921875e-05
sg257
I1
sg258
I14
sasS'total_cqs'
p260
I1711
ssI25
(dp261
S'iters'
p262
I2
sS'meta'
p263
(lp264
(dp265
S'objective'
p266
I6143
sS'query_time'
p267
F0.22657299041748047
sS'comp_time'
p268
F0.00016617774963378906
sS'exec_cq'
p269
I1
sS'total_cq'
p270
I114
sa(dp271
g266
I22
sg267
F0.003072977066040039
sg268
F4.792213439941406e-05
sg269
I1
sg270
I2
sasS'total_cqs'
p272
I114
ssI26
(dp273
S'iters'
p274
I1
sS'meta'
p275
(lp276
(dp277
S'objective'
p278
I54
sS'query_time'
p279
F0.04139900207519531
sS'comp_time'
p280
F8.320808410644531e-05
sS'exec_cq'
p281
I1
sS'total_cq'
p282
I12
sasS'total_cqs'
p283
I12
ssI27
(dp284
S'iters'
p285
I1
sS'meta'
p286
(lp287
(dp288
S'objective'
p289
I1
sS'query_time'
p290
F0.1295490264892578
sS'comp_time'
p291
F7.510185241699219e-05
sS'exec_cq'
p292
I1
sS'total_cq'
p293
I2
sasS'total_cqs'
p294
I2
ssI29
(dp295
S'iters'
p296
I2
sS'meta'
p297
(lp298
(dp299
S'objective'
p300
I8533
sS'query_time'
p301
F0.4324381351470947
sS'comp_time'
p302
F0.00016999244689941406
sS'exec_cq'
p303
I1
sS'total_cq'
p304
I133
sa(dp305
g300
I77
sg301
F0.0034449100494384766
sg302
F5.5789947509765625e-05
sg303
I1
sg304
I2
sasS'total_cqs'
p306
I133
ssI30
(dp307
S'iters'
p308
I2
sS'meta'
p309
(lp310
(dp311
S'objective'
p312
I7807
sS'query_time'
p313
F0.08641219139099121
sS'comp_time'
p314
F0.0002048015594482422
sS'exec_cq'
p315
I1
sS'total_cq'
p316
I129
sa(dp317
g312
I31
sg313
F0.008917093276977539
sg314
F5.7220458984375e-05
sg315
I1
sg316
I3
sasS'total_cqs'
p318
I129
ssI31
(dp319
S'iters'
p320
I2
sS'meta'
p321
(lp322
(dp323
S'objective'
p324
I1485
sS'query_time'
p325
F0.03723406791687012
sS'comp_time'
p326
F0.0001201629638671875
sS'exec_cq'
p327
I1
sS'total_cq'
p328
I57
sa(dp329
g324
I30
sg325
F0.0009071826934814453
sg326
F5.221366882324219e-05
sg327
I1
sg328
I2
sasS'total_cqs'
p330
I57
ssI32
(dp331
S'iters'
p332
I4
sS'meta'
p333
(lp334
(dp335
S'objective'
p336
I2111
sS'query_time'
p337
F0.5088469982147217
sS'comp_time'
p338
F0.00014281272888183594
sS'exec_cq'
p339
I1
sS'total_cq'
p340
I82
sa(dp341
g336
I368
sg337
F0.01453399658203125
sg338
F6.914138793945312e-05
sg339
I1
sg340
I18
sa(dp342
g336
I405
sg337
F0.01278996467590332
sg338
F7.414817810058594e-05
sg339
I1
sg340
I15
sa(dp343
g336
I292
sg337
F0.015887022018432617
sg338
F6.103515625e-05
sg339
I1
sg340
I12
sasS'total_cqs'
p344
I82
ssI33
(dp345
S'iters'
p346
I1
sS'meta'
p347
(lp348
(dp349
S'objective'
p350
I1
sS'query_time'
p351
F0.17595696449279785
sS'comp_time'
p352
F6.389617919921875e-05
sS'exec_cq'
p353
I1
sS'total_cq'
p354
I2
sasS'total_cqs'
p355
I2
ssI34
(dp356
S'iters'
p357
I1
sS'meta'
p358
(lp359
(dp360
S'objective'
p361
I54
sS'query_time'
p362
F0.039112091064453125
sS'comp_time'
p363
F8.392333984375e-05
sS'exec_cq'
p364
I1
sS'total_cq'
p365
I12
sasS'total_cqs'
p366
I12
ssI35
(dp367
S'iters'
p368
I2
sS'meta'
p369
(lp370
(dp371
S'objective'
p372
I5811
sS'query_time'
p373
F0.12424015998840332
sS'comp_time'
p374
F0.00014781951904296875
sS'exec_cq'
p375
I1
sS'total_cq'
p376
I110
sa(dp377
g372
I73
sg373
F0.02856898307800293
sg374
F5.602836608886719e-05
sg375
I1
sg376
I2
sasS'total_cqs'
p378
I110
ssI36
(dp379
S'iters'
p380
I1
sS'meta'
p381
(lp382
(dp383
S'objective'
p384
I1890
sS'query_time'
p385
F0.04205799102783203
sS'comp_time'
p386
F0.00011301040649414062
sS'exec_cq'
p387
I1
sS'total_cq'
p388
I63
sasS'total_cqs'
p389
I63
ssI37
(dp390
S'iters'
p391
I1
sS'meta'
p392
(lp393
(dp394
S'objective'
p395
I1539
sS'query_time'
p396
F0.4229450225830078
sS'comp_time'
p397
F0.00013303756713867188
sS'exec_cq'
p398
I1
sS'total_cq'
p399
I57
sasS'total_cqs'
p400
I57
ssI38
(dp401
S'iters'
p402
I2
sS'meta'
p403
(lp404
(dp405
S'objective'
p406
I7797
sS'query_time'
p407
F0.0806589126586914
sS'comp_time'
p408
F0.00021004676818847656
sS'exec_cq'
p409
I1
sS'total_cq'
p410
I129
sa(dp411
g406
I36
sg407
F0.005887031555175781
sg408
F5.888938903808594e-05
sg409
I1
sg410
I3
sasS'total_cqs'
p412
I129
ssI39
(dp413
S'iters'
p414
I1
sS'meta'
p415
(lp416
(dp417
S'objective'
p418
I1
sS'query_time'
p419
F0.012232065200805664
sS'comp_time'
p420
F6.008148193359375e-05
sS'exec_cq'
p421
I1
sS'total_cq'
p422
I2
sasS'total_cqs'
p423
I2
ssI40
(dp424
S'iters'
p425
I4
sS'meta'
p426
(lp427
(dp428
S'objective'
p429
I26
sS'query_time'
p430
F0.4332420825958252
sS'comp_time'
p431
F0.00011324882507324219
sS'exec_cq'
p432
I1
sS'total_cq'
p433
I35
sa(dp434
g429
I194
sg430
F0.011718034744262695
sg431
F7.677078247070312e-05
sg432
I1
sg433
I16
sa(dp435
g429
I208
sg430
F0.01722097396850586
sg431
F6.103515625e-05
sg432
I1
sg433
I12
sa(dp436
g429
I158
sg430
F0.30569005012512207
sg431
F5.91278076171875e-05
sg432
I2
sg433
I11
sasS'total_cqs'
p437
I35
ssI41
(dp438
S'iters'
p439
I1
sS'meta'
p440
(lp441
(dp442
S'objective'
p443
I1
sS'query_time'
p444
F0.1768510341644287
sS'comp_time'
p445
F7.319450378417969e-05
sS'exec_cq'
p446
I1
sS'total_cq'
p447
I2
sasS'total_cqs'
p448
I2
ssI42
(dp449
S'iters'
p450
I1
sS'meta'
p451
(lp452
(dp453
S'objective'
p454
I104
sS'query_time'
p455
F0.04574918746948242
sS'comp_time'
p456
F7.82012939453125e-05
sS'exec_cq'
p457
I1
sS'total_cq'
p458
I16
sasS'total_cqs'
p459
I16
ssI43
(dp460
S'iters'
p461
I2
sS'meta'
p462
(lp463
(dp464
S'objective'
p465
I1331
sS'query_time'
p466
F0.10930895805358887
sS'comp_time'
p467
F0.00010514259338378906
sS'exec_cq'
p468
I1
sS'total_cq'
p469
I54
sa(dp470
g465
I31
sg466
F0.004012107849121094
sg467
F4.887580871582031e-05
sg468
I1
sg469
I2
sasS'total_cqs'
p471
I54
ssI45
(dp472
S'iters'
p473
I1
sS'meta'
p474
(lp475
(dp476
S'objective'
p477
I1539
sS'query_time'
p478
F0.38973212242126465
sS'comp_time'
p479
F0.0001049041748046875
sS'exec_cq'
p480
I1
sS'total_cq'
p481
I57
sasS'total_cqs'
p482
I57
ssI46
(dp483
S'iters'
p484
I2
sS'meta'
p485
(lp486
(dp487
S'objective'
p488
I5
sS'query_time'
p489
F0.023864030838012695
sS'comp_time'
p490
F6.985664367675781e-05
sS'exec_cq'
p491
I1
sS'total_cq'
p492
I6
sa(dp493
g488
I1
sg489
F0.004348039627075195
sg490
F5.602836608886719e-05
sg491
I1
sg492
I3
sasS'total_cqs'
p494
I6
ssI47
(dp495
S'iters'
p496
I1
sS'meta'
p497
(lp498
(dp499
S'objective'
p500
I7749
sS'query_time'
p501
F0.10945415496826172
sS'comp_time'
p502
F0.00015473365783691406
sS'exec_cq'
p503
I1
sS'total_cq'
p504
I126
sasS'total_cqs'
p505
I126
ssI48
(dp506
S'iters'
p507
I3
sS'meta'
p508
(lp509
(dp510
S'objective'
p511
I207
sS'query_time'
p512
F0.40531492233276367
sS'comp_time'
p513
F9.369850158691406e-05
sS'exec_cq'
p514
I1
sS'total_cq'
p515
I21
sa(dp516
g511
I181
sg512
F0.018008947372436523
sg513
F0.00012087821960449219
sg514
I1
sg515
I20
sa(dp517
g511
I158
sg512
F0.013143062591552734
sg513
F6.890296936035156e-05
sg514
I1
sg515
I17
sasS'total_cqs'
p518
I21
ssI49
(dp519
S'iters'
p520
I2
sS'meta'
p521
(lp522
(dp523
S'objective'
p524
I2003
sS'query_time'
p525
F0.2346479892730713
sS'comp_time'
p526
F0.0001342296600341797
sS'exec_cq'
p527
I1
sS'total_cq'
p528
I66
sa(dp529
g524
I28
sg525
F0.00208282470703125
sg526
F4.482269287109375e-05
sg527
I1
sg528
I2
sasS'total_cqs'
p530
I66
ssI50
(dp531
S'iters'
p532
I1
sS'meta'
p533
(lp534
(dp535
S'objective'
p536
I39902
sS'query_time'
p537
F0.1604750156402588
sS'comp_time'
p538
F0.00029087066650390625
sS'exec_cq'
p539
I1
sS'total_cq'
p540
I284
sasS'total_cqs'
p541
I284
ssI51
(dp542
S'iters'
p543
I1
sS'meta'
p544
(lp545
(dp546
S'objective'
p547
I1
sS'query_time'
p548
F0.09022212028503418
sS'comp_time'
p549
F7.724761962890625e-05
sS'exec_cq'
p550
I1
sS'total_cq'
p551
I2
sasS'total_cqs'
p552
I2
ssI53
(dp553
S'iters'
p554
I1
sS'meta'
p555
(lp556
(dp557
S'objective'
p558
I1
sS'query_time'
p559
F0.37300896644592285
sS'comp_time'
p560
F6.890296936035156e-05
sS'exec_cq'
p561
I1
sS'total_cq'
p562
I2
sasS'total_cqs'
p563
I2
ssI54
(dp564
S'iters'
p565
I2
sS'meta'
p566
(lp567
(dp568
S'objective'
p569
I248
sS'query_time'
p570
F0.04964590072631836
sS'comp_time'
p571
F0.00010204315185546875
sS'exec_cq'
p572
I1
sS'total_cq'
p573
I27
sa(dp574
g569
I11
sg570
F0.0025539398193359375
sg571
F5.030632019042969e-05
sg572
I1
sg573
I3
sasS'total_cqs'
p575
I27
ssI55
(dp576
S'iters'
p577
I2
sS'meta'
p578
(lp579
(dp580
S'objective'
p581
I774
sS'query_time'
p582
F0.07457304000854492
sS'comp_time'
p583
F0.0001201629638671875
sS'exec_cq'
p584
I1
sS'total_cq'
p585
I55
sa(dp586
g581
I273
sg582
F0.011964082717895508
sg583
F8.0108642578125e-05
sg584
I1
sg585
I12
sasS'total_cqs'
p587
I55
ssI56
(dp588
S'iters'
p589
I4
sS'meta'
p590
(lp591
(dp592
S'objective'
p593
I2291
sS'query_time'
p594
F0.46229004859924316
sS'comp_time'
p595
F0.00015401840209960938
sS'exec_cq'
p596
I1
sS'total_cq'
p597
I82
sa(dp598
g593
I550
sg594
F0.00975799560546875
sg595
F6.389617919921875e-05
sg596
I1
sg597
I14
sa(dp599
g593
I515
sg594
F0.009378910064697266
sg595
F7.295608520507812e-05
sg596
I1
sg597
I13
sa(dp600
g593
I370
sg594
F0.008168935775756836
sg595
F5.91278076171875e-05
sg596
I1
sg597
I12
sasS'total_cqs'
p601
I82
ssI57
(dp602
S'iters'
p603
I1
sS'meta'
p604
(lp605
(dp606
S'objective'
p607
I1
sS'query_time'
p608
F0.16790413856506348
sS'comp_time'
p609
F7.224082946777344e-05
sS'exec_cq'
p610
I1
sS'total_cq'
p611
I2
sasS'total_cqs'
p612
I2
ssI58
(dp613
S'iters'
p614
I1
sS'meta'
p615
(lp616
(dp617
S'objective'
p618
I39902
sS'query_time'
p619
F0.15779900550842285
sS'comp_time'
p620
F0.0002639293670654297
sS'exec_cq'
p621
I1
sS'total_cq'
p622
I284
sasS'total_cqs'
p623
I284
ssI59
(dp624
S'iters'
p625
I1
sS'meta'
p626
(lp627
(dp628
S'objective'
p629
I1
sS'query_time'
p630
F0.09154009819030762
sS'comp_time'
p631
F7.200241088867188e-05
sS'exec_cq'
p632
I1
sS'total_cq'
p633
I2
sasS'total_cqs'
p634
I2
ssI60
(dp635
S'iters'
p636
I1
sS'meta'
p637
(lp638
(dp639
S'objective'
p640
I1890
sS'query_time'
p641
F0.046777963638305664
sS'comp_time'
p642
F0.0001289844512939453
sS'exec_cq'
p643
I1
sS'total_cq'
p644
I63
sasS'total_cqs'
p645
I63
ssI61
(dp646
S'iters'
p647
I2
sS'meta'
p648
(lp649
(dp650
S'objective'
p651
I0
sS'query_time'
p652
F0.3222658634185791
sS'comp_time'
p653
F5.817413330078125e-05
sS'exec_cq'
p654
I1
sS'total_cq'
p655
I4
sa(dp656
g651
I3
sg652
F0.012925863265991211
sg653
F6.4849853515625e-05
sg654
I1
sg655
I2
sasS'total_cqs'
p657
I4
ssI62
(dp658
S'iters'
p659
I1
sS'meta'
p660
(lp661
(dp662
S'objective'
p663
I594
sS'query_time'
p664
F0.058064937591552734
sS'comp_time'
p665
F0.00011897087097167969
sS'exec_cq'
p666
I1
sS'total_cq'
p667
I36
sasS'total_cqs'
p668
I36
ssI63
(dp669
S'iters'
p670
I1
sS'meta'
p671
(lp672
(dp673
S'objective'
p674
I1377
sS'query_time'
p675
F0.02892613410949707
sS'comp_time'
p676
F0.00011587142944335938
sS'exec_cq'
p677
I1
sS'total_cq'
p678
I54
sasS'total_cqs'
p679
I54
ssI64
(dp680
S'iters'
p681
I5
sS'meta'
p682
(lp683
(dp684
S'objective'
p685
I123
sS'query_time'
p686
F0.36533522605895996
sS'comp_time'
p687
F7.200241088867188e-05
sS'exec_cq'
p688
I1
sS'total_cq'
p689
I17
sa(dp690
g685
I134
sg686
F0.010444879531860352
sg687
F5.698204040527344e-05
sg688
I1
sg689
I15
sa(dp691
g685
I98
sg686
F0.009435892105102539
sg687
F8.20159912109375e-05
sg688
I1
sg689
I14
sa(dp692
g685
I103
sg686
F0.009851217269897461
sg687
F6.413459777832031e-05
sg688
I1
sg689
I12
sa(dp693
g685
I76
sg686
F0.007666110992431641
sg687
F7.081031799316406e-05
sg688
I1
sg689
I11
sasS'total_cqs'
p694
I17
ssI65
(dp695
S'iters'
p696
I1
sS'meta'
p697
(lp698
(dp699
S'objective'
p700
I1
sS'query_time'
p701
F0.1685788631439209
sS'comp_time'
p702
F7.700920104980469e-05
sS'exec_cq'
p703
I1
sS'total_cq'
p704
I2
sasS'total_cqs'
p705
I2
ssI66
(dp706
S'iters'
p707
I2
sS'meta'
p708
(lp709
(dp710
S'objective'
p711
I38746
sS'query_time'
p712
F0.15404391288757324
sS'comp_time'
p713
F0.0003211498260498047
sS'exec_cq'
p714
I1
sS'total_cq'
p715
I284
sa(dp716
g711
I294
sg712
F0.006680011749267578
sg713
F4.6253204345703125e-05
sg714
I1
sg715
I4
sasS'total_cqs'
p717
I284
ssI67
(dp718
S'iters'
p719
I1
sS'meta'
p720
(lp721
(dp722
S'objective'
p723
I1
sS'query_time'
p724
F0.08398199081420898
sS'comp_time'
p725
F5.221366882324219e-05
sS'exec_cq'
p726
I1
sS'total_cq'
p727
I2
sasS'total_cqs'
p728
I2
ssI68
(dp729
S'iters'
p730
I1
sS'meta'
p731
(lp732
(dp733
S'objective'
p734
I1890
sS'query_time'
p735
F0.03554487228393555
sS'comp_time'
p736
F0.00011205673217773438
sS'exec_cq'
p737
I1
sS'total_cq'
p738
I63
sasS'total_cqs'
p739
I63
ssI69
(dp740
S'iters'
p741
I1
sS'meta'
p742
(lp743
(dp744
S'objective'
p745
I945
sS'query_time'
p746
F0.3385019302368164
sS'comp_time'
p747
F0.00013208389282226562
sS'exec_cq'
p748
I1
sS'total_cq'
p749
I45
sasS'total_cqs'
p750
I45
ssI70
(dp751
S'iters'
p752
I2
sS'meta'
p753
(lp754
(dp755
S'objective'
p756
I254
sS'query_time'
p757
F0.05192708969116211
sS'comp_time'
p758
F7.987022399902344e-05
sS'exec_cq'
p759
I1
sS'total_cq'
p760
I27
sa(dp761
g756
I8
sg757
F0.00619196891784668
sg758
F4.7206878662109375e-05
sg759
I1
sg760
I3
sasS'total_cqs'
p762
I27
ssI71
(dp763
S'iters'
p764
I1
sS'meta'
p765
(lp766
(dp767
S'objective'
p768
I66429
sS'query_time'
p769
F0.2787749767303467
sS'comp_time'
p770
F0.0003910064697265625
sS'exec_cq'
p771
I1
sS'total_cq'
p772
I366
sasS'total_cqs'
p773
I366
ssI72
(dp774
S'iters'
p775
I1
sS'meta'
p776
(lp777
(dp778
S'objective'
p779
I119
sS'query_time'
p780
F0.3646430969238281
sS'comp_time'
p781
F8.296966552734375e-05
sS'exec_cq'
p782
I1
sS'total_cq'
p783
I17
sasS'total_cqs'
p784
I17
ss.