(dp0
I1
(dp1
S'iters'
p2
I2
sS'meta'
p3
(lp4
(dp5
S'objective'
p6
I4
sS'query_time'
p7
F0.15993785858154297
sS'comp_time'
p8
F7.104873657226562e-05
sS'exec_cq'
p9
I1
sS'total_cq'
p10
I3
sa(dp11
g6
I1
sg7
F0.0041730403900146484
sg8
F4.673004150390625e-05
sg9
I1
sg10
I2
sasS'total_cqs'
p12
I3
ssI2
(dp13
S'iters'
p14
I12
sS'meta'
p15
(lp16
(dp17
S'objective'
p18
I152
sS'query_time'
p19
F0.11107611656188965
sS'comp_time'
p20
F9.393692016601562e-05
sS'exec_cq'
p21
I1
sS'total_cq'
p22
I19
sa(dp23
g18
I135
sg19
F0.18197202682495117
sg20
F8.392333984375e-05
sg21
I1
sg22
I18
sa(dp24
g18
I119
sg19
F1.1415860652923584
sg20
F0.0002307891845703125
sg21
I1
sg22
I17
sa(dp25
g18
I42
sg19
F0.2059931755065918
sg20
F8.797645568847656e-05
sg21
I1
sg22
I16
sa(dp26
g18
I61
sg19
F0.8196690082550049
sg20
F8.392333984375e-05
sg21
I1
sg22
I11
sa(dp27
g18
I51
sg19
F0.09537696838378906
sg20
F0.00012230873107910156
sg21
I1
sg22
I10
sa(dp28
g18
I41
sg19
F3.0383710861206055
sg20
F0.00014400482177734375
sg21
I1
sg22
I9
sa(dp29
g18
I32
sg19
F0.06979918479919434
sg20
F7.390975952148438e-05
sg21
I1
sg22
I8
sa(dp30
g18
I24
sg19
F0.02094292640686035
sg20
F8.368492126464844e-05
sg21
I1
sg22
I7
sa(dp31
g18
I17
sg19
F0.05460000038146973
sg20
F9.989738464355469e-05
sg21
I1
sg22
I6
sa(dp32
g18
I11
sg19
F0.21442008018493652
sg20
F6.580352783203125e-05
sg21
I1
sg22
I5
sa(dp33
g18
I6
sg19
F0.017390966415405273
sg20
F5.91278076171875e-05
sg21
I1
sg22
I4
sasS'total_cqs'
p34
I19
ssI3
(dp35
S'iters'
p36
I1
sS'meta'
p37
(lp38
(dp39
S'objective'
p40
I1
sS'query_time'
p41
F0.11356592178344727
sS'comp_time'
p42
F7.605552673339844e-05
sS'exec_cq'
p43
I1
sS'total_cq'
p44
I2
sasS'total_cqs'
p45
I2
ssI4
(dp46
S'iters'
p47
I27
sS'meta'
p48
(lp49
(dp50
S'objective'
p51
I1276
sS'query_time'
p52
F0.07632899284362793
sS'comp_time'
p53
F0.00011324882507324219
sS'exec_cq'
p54
I1
sS'total_cq'
p55
I60
sa(dp56
g51
I735
sg52
F0.04167604446411133
sg53
F0.00010919570922851562
sg54
I1
sg55
I53
sa(dp57
g51
I926
sg52
F0.04220294952392578
sg53
F8.487701416015625e-05
sg54
I1
sg55
I40
sa(dp58
g51
I921
sg52
F0.034214019775390625
sg53
F7.414817810058594e-05
sg54
I1
sg55
I38
sa(dp59
g51
I866
sg52
F0.060524940490722656
sg53
F8.702278137207031e-05
sg54
I1
sg55
I37
sa(dp60
g51
I812
sg52
F0.14765000343322754
sg53
F9.393692016601562e-05
sg54
I1
sg55
I36
sa(dp61
g51
I759
sg52
F0.026253938674926758
sg53
F8.0108642578125e-05
sg54
I1
sg55
I35
sa(dp62
g51
I709
sg52
F0.04355311393737793
sg53
F9.107589721679688e-05
sg54
I1
sg55
I34
sa(dp63
g51
I667
sg52
F0.3983759880065918
sg53
F9.298324584960938e-05
sg54
I1
sg55
I33
sa(dp64
g51
I622
sg52
F0.02776479721069336
sg53
F8.988380432128906e-05
sg54
I1
sg55
I32
sa(dp65
g51
I578
sg52
F0.031375885009765625
sg53
F7.796287536621094e-05
sg54
I1
sg55
I31
sa(dp66
g51
I399
sg52
F0.02701711654663086
sg53
F7.486343383789062e-05
sg54
I1
sg55
I30
sa(dp67
g51
I427
sg52
F0.028416872024536133
sg53
F8.0108642578125e-05
sg54
I1
sg55
I27
sa(dp68
g51
I387
sg52
F0.03351187705993652
sg53
F0.0006148815155029297
sg54
I1
sg55
I26
sa(dp69
g51
I350
sg52
F0.09798002243041992
sg53
F8.916854858398438e-05
sg54
I1
sg55
I25
sa(dp70
g51
I315
sg52
F0.08173394203186035
sg53
F9.512901306152344e-05
sg54
I1
sg55
I24
sa(dp71
g51
I280
sg52
F0.0257260799407959
sg53
F0.00036597251892089844
sg54
I1
sg55
I23
sa(dp72
g51
I216
sg52
F0.12329292297363281
sg53
F7.796287536621094e-05
sg54
I1
sg55
I22
sa(dp73
g51
I206
sg52
F0.024466991424560547
sg53
F7.82012939453125e-05
sg54
I1
sg55
I20
sa(dp74
g51
I186
sg52
F0.021116018295288086
sg53
F6.198883056640625e-05
sg54
I1
sg55
I19
sa(dp75
g51
I163
sg52
F0.28029584884643555
sg53
F9.894371032714844e-05
sg54
I1
sg55
I18
sa(dp76
g51
I141
sg52
F0.05247616767883301
sg53
F8.58306884765625e-05
sg54
I1
sg55
I17
sa(dp77
g51
I122
sg52
F0.4190549850463867
sg53
F7.390975952148438e-05
sg54
I1
sg55
I16
sa(dp78
g51
I103
sg52
F0.03039383888244629
sg53
F5.793571472167969e-05
sg54
I1
sg55
I15
sa(dp79
g51
I85
sg52
F0.07791805267333984
sg53
F7.295608520507812e-05
sg54
I1
sg55
I14
sa(dp80
g51
I68
sg52
F0.020058155059814453
sg53
F5.7697296142578125e-05
sg54
I1
sg55
I13
sa(dp81
g51
I54
sg52
F0.022549152374267578
sg53
F7.390975952148438e-05
sg54
I1
sg55
I12
sasS'total_cqs'
p82
I60
ssI5
(dp83
S'iters'
p84
I56
sS'meta'
p85
(lp86
(dp87
S'objective'
p88
I6509
sS'query_time'
p89
F0.7113511562347412
sS'comp_time'
p90
F0.00017499923706054688
sS'exec_cq'
p91
I1
sS'total_cq'
p92
I133
sa(dp93
g88
I7446
sg89
F0.07478499412536621
sg90
F0.00014328956604003906
sg91
I1
sg92
I115
sa(dp94
g88
I7100
sg89
F2.86867618560791
sg90
F0.007999897003173828
sg91
I1
sg92
I114
sa(dp95
g88
I7079
sg89
F3.6144859790802
sg90
F0.0002009868621826172
sg91
I1
sg92
I111
sa(dp96
g88
I6267
sg89
F0.4565579891204834
sg90
F0.00020599365234375
sg91
I1
sg92
I110
sa(dp97
g88
I4350
sg89
F0.09069204330444336
sg90
F0.0001430511474609375
sg91
I1
sg92
I106
sa(dp98
g88
I4856
sg89
F0.7194881439208984
sg90
F0.0004467964172363281
sg91
I1
sg92
I89
sa(dp99
g88
I4536
sg89
F2.0544071197509766
sg90
F0.00015091896057128906
sg91
I1
sg92
I86
sa(dp100
g88
I4624
sg89
F0.3141210079193115
sg90
F0.00011682510375976562
sg91
I1
sg92
I82
sa(dp101
g88
I4504
sg89
F6.250084161758423
sg90
F0.0002129077911376953
sg91
I1
sg92
I81
sa(dp102
g88
I4387
sg89
F0.3669891357421875
sg90
F0.00014400482177734375
sg91
I1
sg92
I80
sa(dp103
g88
I4270
sg89
F0.14311814308166504
sg90
F0.00013685226440429688
sg91
I1
sg92
I79
sa(dp104
g88
I4104
sg89
F0.05221986770629883
sg90
F0.00013971328735351562
sg91
I1
sg92
I78
sa(dp105
g88
I3914
sg89
F0.3779571056365967
sg90
F0.00015091896057128906
sg91
I1
sg92
I76
sa(dp106
g88
I3694
sg89
F0.9266629219055176
sg90
F0.00014209747314453125
sg91
I1
sg92
I74
sa(dp107
g88
I3489
sg89
F0.674454927444458
sg90
F0.00010824203491210938
sg91
I1
sg92
I72
sa(dp108
g88
I3476
sg89
F0.05339193344116211
sg90
F0.0001468658447265625
sg91
I1
sg92
I70
sa(dp109
g88
I3372
sg89
F0.454420804977417
sg90
F0.00011920928955078125
sg91
I1
sg92
I69
sa(dp110
g88
I3269
sg89
F0.5894839763641357
sg90
F0.0001289844512939453
sg91
I1
sg92
I68
sa(dp111
g88
I3169
sg89
F0.34777307510375977
sg90
F0.0001938343048095703
sg91
I1
sg92
I67
sa(dp112
g88
I3071
sg89
F0.3613309860229492
sg90
F0.00011706352233886719
sg91
I1
sg92
I66
sa(dp113
g88
I2973
sg89
F2.7205331325531006
sg90
F0.00011706352233886719
sg91
I1
sg92
I65
sa(dp114
g88
I2878
sg89
F0.6154730319976807
sg90
F0.00010275840759277344
sg91
I1
sg92
I64
sa(dp115
g88
I2783
sg89
F0.2257699966430664
sg90
F0.00012302398681640625
sg91
I1
sg92
I63
sa(dp116
g88
I2557
sg89
F0.510753870010376
sg90
F0.0002429485321044922
sg91
I1
sg92
I62
sa(dp117
g88
I2536
sg89
F0.22239184379577637
sg90
F0.0001201629638671875
sg91
I1
sg92
I60
sa(dp118
g88
I2447
sg89
F0.053289175033569336
sg90
F9.608268737792969e-05
sg91
I1
sg92
I59
sa(dp119
g88
I2359
sg89
F0.0402379035949707
sg90
F9.393692016601562e-05
sg91
I1
sg92
I58
sa(dp120
g88
I2024
sg89
F0.0579071044921875
sg90
F0.00011587142944335938
sg91
I1
sg92
I57
sa(dp121
g88
I2076
sg89
F0.30176210403442383
sg90
F9.512901306152344e-05
sg91
I1
sg92
I54
sa(dp122
g88
I1998
sg89
F0.3103821277618408
sg90
F9.083747863769531e-05
sg91
I1
sg92
I53
sa(dp123
g88
I1921
sg89
F0.03992891311645508
sg90
F8.893013000488281e-05
sg91
I1
sg92
I52
sa(dp124
g88
I1727
sg89
F0.2928450107574463
sg90
F9.489059448242188e-05
sg91
I1
sg92
I51
sa(dp125
g88
I1711
sg89
F0.7674651145935059
sg90
F0.00011086463928222656
sg91
I1
sg92
I48
sa(dp126
g88
I1637
sg89
F0.03468203544616699
sg90
F9.107589721679688e-05
sg91
I1
sg92
I47
sa(dp127
g88
I1564
sg89
F0.3316309452056885
sg90
F0.00010800361633300781
sg91
I1
sg92
I46
sa(dp128
g88
I1494
sg89
F0.3651440143585205
sg90
F9.465217590332031e-05
sg91
I1
sg92
I45
sa(dp129
g88
I1332
sg89
F0.3389110565185547
sg90
F0.00012087821960449219
sg91
I1
sg92
I44
sa(dp130
g88
I1309
sg89
F0.33718109130859375
sg90
F0.00010895729064941406
sg91
I1
sg92
I42
sa(dp131
g88
I1241
sg89
F0.5191888809204102
sg90
F9.894371032714844e-05
sg91
I1
sg92
I41
sa(dp132
g88
I1092
sg89
F0.3214530944824219
sg90
F0.00010085105895996094
sg91
I1
sg92
I40
sa(dp133
g88
I1071
sg89
F5.59873104095459
sg90
F0.0002529621124267578
sg91
I1
sg92
I37
sa(dp134
g88
I1008
sg89
F0.03234386444091797
sg90
F0.00010514259338378906
sg91
I1
sg92
I36
sa(dp135
g88
I952
sg89
F0.34914398193359375
sg90
F0.0006301403045654297
sg91
I1
sg92
I35
sa(dp136
g88
I896
sg89
F0.3333559036254883
sg90
F0.0001220703125
sg91
I1
sg92
I34
sa(dp137
g88
I840
sg89
F0.13428092002868652
sg90
F0.00010609626770019531
sg91
I1
sg92
I33
sa(dp138
g88
I685
sg89
F0.027710914611816406
sg90
F9.083747863769531e-05
sg91
I1
sg92
I32
sa(dp139
g88
I633
sg89
F0.6876101493835449
sg90
F0.0001761913299560547
sg91
I1
sg92
I29
sa(dp140
g88
I544
sg89
F0.04442405700683594
sg90
F0.00011014938354492188
sg91
I1
sg92
I27
sa(dp141
g88
I534
sg89
F0.02961587905883789
sg90
F7.009506225585938e-05
sg91
I1
sg92
I25
sa(dp142
g88
I497
sg89
F0.024370193481445312
sg90
F7.009506225585938e-05
sg91
I1
sg92
I24
sa(dp143
g88
I457
sg89
F0.5951080322265625
sg90
F8.511543273925781e-05
sg91
I1
sg92
I23
sa(dp144
g88
I420
sg89
F0.12284111976623535
sg90
F9.608268737792969e-05
sg91
I1
sg92
I22
sa(dp145
g88
I383
sg89
F0.02433300018310547
sg90
F8.106231689453125e-05
sg91
I1
sg92
I21
sa(dp146
g88
I311
sg89
F0.8559780120849609
sg90
F0.0002040863037109375
sg91
I1
sg92
I20
sa(dp147
g88
I296
sg89
F0.28308701515197754
sg90
F7.700920104980469e-05
sg91
I1
sg92
I18
sasS'total_cqs'
p148
I133
ssI6
(dp149
S'iters'
p150
I16
sS'meta'
p151
(lp152
(dp153
S'objective'
p154
I230
sS'query_time'
p155
F0.21077394485473633
sS'comp_time'
p156
F9.298324584960938e-05
sS'exec_cq'
p157
I1
sS'total_cq'
p158
I23
sa(dp159
g154
I209
sg155
F0.09188985824584961
sg156
F9.202957153320312e-05
sg157
I1
sg158
I22
sa(dp160
g154
I189
sg155
F0.18456792831420898
sg156
F9.608268737792969e-05
sg157
I1
sg158
I21
sa(dp161
g154
I158
sg155
F0.04026198387145996
sg156
F7.700920104980469e-05
sg157
I1
sg158
I20
sa(dp162
g154
I122
sg155
F0.32222509384155273
sg156
F9.703636169433594e-05
sg157
I1
sg158
I18
sa(dp163
g154
I117
sg155
F0.0981440544128418
sg156
F9.274482727050781e-05
sg157
I1
sg158
I16
sa(dp164
g154
I101
sg155
F0.03356790542602539
sg156
F7.009506225585938e-05
sg157
I1
sg158
I15
sa(dp165
g154
I86
sg155
F0.03468513488769531
sg156
F0.0003440380096435547
sg157
I1
sg158
I14
sa(dp166
g154
I72
sg155
F0.22615504264831543
sg156
F0.00027489662170410156
sg157
I1
sg158
I13
sa(dp167
g154
I59
sg155
F0.13309192657470703
sg156
F9.322166442871094e-05
sg157
I1
sg158
I12
sa(dp168
g154
I47
sg155
F0.05707097053527832
sg156
F0.0004038810729980469
sg157
I1
sg158
I11
sa(dp169
g154
I38
sg155
F0.20996403694152832
sg156
F9.918212890625e-05
sg157
I1
sg158
I10
sa(dp170
g154
I29
sg155
F0.15029406547546387
sg156
F9.393692016601562e-05
sg157
I1
sg158
I9
sa(dp171
g154
I21
sg155
F0.15971708297729492
sg156
F9.107589721679688e-05
sg157
I1
sg158
I8
sa(dp172
g154
I14
sg155
F0.08626699447631836
sg156
F8.916854858398438e-05
sg157
I1
sg158
I7
sa(dp173
g154
I8
sg155
F0.023704051971435547
sg156
F6.818771362304688e-05
sg157
I1
sg158
I6
sasS'total_cqs'
p174
I23
ssI7
(dp175
S'iters'
p176
I123
sS'meta'
p177
(lp178
(dp179
S'objective'
p180
I29402
sS'query_time'
p181
F0.09570097923278809
sS'comp_time'
p182
F0.0002551078796386719
sS'exec_cq'
p183
I1
sS'total_cq'
p184
I244
sa(dp185
g180
I29160
sg181
F0.2173609733581543
sg182
F0.0002498626708984375
sg183
I1
sg184
I243
sa(dp186
g180
I28919
sg181
F3.4208319187164307
sg182
F0.0005421638488769531
sg183
I1
sg184
I242
sa(dp187
g180
I28679
sg181
F0.1369781494140625
sg182
F0.0002779960632324219
sg183
I1
sg184
I241
sa(dp188
g180
I28440
sg181
F0.2149348258972168
sg182
F0.00028014183044433594
sg183
I1
sg184
I240
sa(dp189
g180
I28202
sg181
F1.1167030334472656
sg182
F0.00026607513427734375
sg183
I1
sg184
I239
sa(dp190
g180
I27965
sg181
F1.2159020900726318
sg182
F0.00051116943359375
sg183
I1
sg184
I238
sa(dp191
g180
I27729
sg181
F7.103304862976074
sg182
F0.0002918243408203125
sg183
I1
sg184
I237
sa(dp192
g180
I27494
sg181
F0.21159696578979492
sg182
F0.00023984909057617188
sg183
I1
sg184
I236
sa(dp193
g180
I27260
sg181
F1.7088379859924316
sg182
F0.0006530284881591797
sg183
I1
sg184
I235
sa(dp194
g180
I23421
sg181
F0.2198939323425293
sg182
F0.0003287792205810547
sg183
I1
sg184
I234
sa(dp195
g180
I24992
sg181
F0.19421815872192383
sg182
F0.00026488304138183594
sg183
I1
sg184
I218
sa(dp196
g180
I24215
sg181
F0.17111611366271973
sg182
F0.00030303001403808594
sg183
I1
sg184
I217
sa(dp197
g180
I24258
sg181
F0.1133260726928711
sg182
F0.0002200603485107422
sg183
I1
sg184
I213
sa(dp198
g180
I23815
sg181
F0.38981103897094727
sg182
F0.00027108192443847656
sg183
I1
sg184
I212
sa(dp199
g180
I23694
sg181
F0.19403600692749023
sg182
F0.0003261566162109375
sg183
I1
sg184
I210
sa(dp200
g180
I23467
sg181
F0.3275418281555176
sg182
F0.0002090930938720703
sg183
I1
sg184
I209
sa(dp201
g180
I23241
sg181
F0.8342709541320801
sg182
F0.0002658367156982422
sg183
I1
sg184
I208
sa(dp202
g180
I23016
sg181
F0.16539311408996582
sg182
F0.0002810955047607422
sg183
I1
sg184
I207
sa(dp203
g180
I22792
sg181
F0.29181504249572754
sg182
F0.0002758502960205078
sg183
I1
sg184
I206
sa(dp204
g180
I22569
sg181
F0.1964249610900879
sg182
F0.00026416778564453125
sg183
I1
sg184
I205
sa(dp205
g180
I20861
sg181
F0.7555899620056152
sg182
F0.0002570152282714844
sg183
I1
sg184
I204
sa(dp206
g180
I21383
sg181
F0.2989389896392822
sg182
F0.00022411346435546875
sg183
I1
sg184
I196
sa(dp207
g180
I17751
sg181
F0.5992240905761719
sg182
F0.0002498626708984375
sg183
I1
sg184
I195
sa(dp208
g180
I19240
sg181
F0.17471790313720703
sg182
F0.00024890899658203125
sg183
I1
sg184
I181
sa(dp209
g180
I19023
sg181
F0.997096061706543
sg182
F0.00022411346435546875
sg183
I1
sg184
I180
sa(dp210
g180
I18051
sg181
F0.17364001274108887
sg182
F0.00022983551025390625
sg183
I1
sg184
I179
sa(dp211
g180
I17396
sg181
F0.7767770290374756
sg182
F0.00021529197692871094
sg183
I1
sg184
I176
sa(dp212
g180
I17591
sg181
F0.09882211685180664
sg182
F0.00019979476928710938
sg183
I1
sg184
I172
sa(dp213
g180
I17138
sg181
F0.16245198249816895
sg182
F0.0002129077911376953
sg183
I1
sg184
I171
sa(dp214
g180
I17054
sg181
F0.1708841323852539
sg182
F0.0003581047058105469
sg183
I1
sg184
I169
sa(dp215
g180
I15815
sg181
F0.2256782054901123
sg182
F0.00020885467529296875
sg183
I1
sg184
I168
sa(dp216
g180
I16125
sg181
F0.524216890335083
sg182
F0.0002162456512451172
sg183
I1
sg184
I163
sa(dp217
g180
I15920
sg181
F0.13846707344055176
sg182
F0.00024890899658203125
sg183
I1
sg184
I162
sa(dp218
g180
I15716
sg181
F0.06820988655090332
sg182
F0.0001900196075439453
sg183
I1
sg184
I161
sa(dp219
g180
I15513
sg181
F0.2152109146118164
sg182
F0.00020575523376464844
sg183
I1
sg184
I160
sa(dp220
g180
I15313
sg181
F0.33176708221435547
sg182
F0.00021791458129882812
sg183
I1
sg184
I159
sa(dp221
g180
I14987
sg181
F0.16973590850830078
sg182
F0.0001881122589111328
sg183
I1
sg184
I158
sa(dp222
g180
I14851
sg181
F0.19608116149902344
sg182
F0.00020694732666015625
sg183
I1
sg184
I156
sa(dp223
g180
I14653
sg181
F0.48227620124816895
sg182
F0.0001518726348876953
sg183
I1
sg184
I155
sa(dp224
g180
I14458
sg181
F0.0568089485168457
sg182
F0.0001289844512939453
sg183
I1
sg184
I154
sa(dp225
g180
I14071
sg181
F0.19424700736999512
sg182
F0.00018596649169921875
sg183
I1
sg184
I153
sa(dp226
g180
I13973
sg181
F0.06472110748291016
sg182
F0.00020003318786621094
sg183
I1
sg184
I149
sa(dp227
g180
I13782
sg181
F0.12703204154968262
sg182
F0.0002162456512451172
sg183
I1
sg184
I148
sa(dp228
g180
I13455
sg181
F0.7747700214385986
sg182
F0.0002989768981933594
sg183
I1
sg184
I147
sa(dp229
g180
I13333
sg181
F0.07400083541870117
sg182
F0.0002410411834716797
sg183
I1
sg184
I144
sa(dp230
g180
I13148
sg181
F0.1178131103515625
sg182
F0.00020503997802734375
sg183
I1
sg184
I143
sa(dp231
g180
I11782
sg181
F0.12353897094726562
sg182
F0.0001709461212158203
sg183
I1
sg184
I142
sa(dp232
g180
I12187
sg181
F0.1558699607849121
sg182
F0.00015306472778320312
sg183
I1
sg184
I135
sa(dp233
g180
I12003
sg181
F0.7889940738677979
sg182
F0.00020623207092285156
sg183
I1
sg184
I134
sa(dp234
g180
I11820
sg181
F0.10080599784851074
sg182
F0.0001518726348876953
sg183
I1
sg184
I133
sa(dp235
g180
I11640
sg181
F0.09679508209228516
sg182
F0.00017404556274414062
sg183
I1
sg184
I132
sa(dp236
g180
I11460
sg181
F0.07076787948608398
sg182
F0.0001709461212158203
sg183
I1
sg184
I131
sa(dp237
g180
I11283
sg181
F0.14060306549072266
sg182
F0.0001780986785888672
sg183
I1
sg184
I130
sa(dp238
g180
I11108
sg181
F0.3369569778442383
sg182
F0.00017404556274414062
sg183
I1
sg184
I129
sa(dp239
g180
I10933
sg181
F0.11293697357177734
sg182
F0.00016021728515625
sg183
I1
sg184
I128
sa(dp240
g180
I10761
sg181
F0.07446885108947754
sg182
F0.00016689300537109375
sg183
I1
sg184
I127
sa(dp241
g180
I10589
sg181
F0.4649651050567627
sg182
F0.0002689361572265625
sg183
I1
sg184
I126
sa(dp242
g180
I10418
sg181
F0.7138469219207764
sg182
F0.00018906593322753906
sg183
I1
sg184
I125
sa(dp243
g180
I10248
sg181
F0.4047670364379883
sg182
F0.0002200603485107422
sg183
I1
sg184
I124
sa(dp244
g180
I9607
sg181
F0.20003819465637207
sg182
F0.000202178955078125
sg183
I1
sg184
I123
sa(dp245
g180
I9675
sg181
F0.13549208641052246
sg182
F0.00015282630920410156
sg183
I1
sg184
I119
sa(dp246
g180
I9508
sg181
F0.10445594787597656
sg182
F0.00014591217041015625
sg183
I1
sg184
I118
sa(dp247
g180
I8826
sg181
F0.1495959758758545
sg182
F0.0001480579376220703
sg183
I1
sg184
I117
sa(dp248
g180
I8735
sg181
F0.09159302711486816
sg182
F0.00016307830810546875
sg183
I1
sg184
I113
sa(dp249
g180
I8667
sg181
F0.6362969875335693
sg182
F0.00016617774963378906
sg183
I1
sg184
I111
sa(dp250
g180
I8508
sg181
F0.10422801971435547
sg182
F0.00014209747314453125
sg183
I1
sg184
I110
sa(dp251
g180
I7839
sg181
F0.10796594619750977
sg182
F0.00030493736267089844
sg183
I1
sg184
I109
sa(dp252
g180
I7936
sg181
F0.16495895385742188
sg182
F0.0001480579376220703
sg183
I1
sg184
I104
sa(dp253
g180
I7749
sg181
F0.12941503524780273
sg182
F0.00021004676818847656
sg183
I1
sg184
I103
sa(dp254
g180
I7608
sg181
F0.11945104598999023
sg182
F0.00019502639770507812
sg183
I1
sg184
I101
sa(dp255
g180
I7457
sg181
F0.175645112991333
sg182
F0.0001862049102783203
sg183
I1
sg184
I100
sa(dp256
g180
I7307
sg181
F0.0688478946685791
sg182
F0.00017523765563964844
sg183
I1
sg184
I99
sa(dp257
g180
I7157
sg181
F0.16503500938415527
sg182
F0.0001609325408935547
sg183
I1
sg184
I98
sa(dp258
g180
I7012
sg181
F0.14567995071411133
sg182
F0.00012874603271484375
sg183
I1
sg184
I97
sa(dp259
g180
I6866
sg181
F0.15175604820251465
sg182
F0.00013017654418945312
sg183
I1
sg184
I96
sa(dp260
g180
I6721
sg181
F0.07129216194152832
sg182
F0.0008399486541748047
sg183
I1
sg184
I95
sa(dp261
g180
I6339
sg181
F0.09896492958068848
sg182
F0.0002639293670654297
sg183
I1
sg184
I94
sa(dp262
g180
I6315
sg181
F0.14604496955871582
sg182
F0.00014710426330566406
sg183
I1
sg184
I92
sa(dp263
g180
I6173
sg181
F0.12275910377502441
sg182
F0.00015783309936523438
sg183
I1
sg184
I91
sa(dp264
g180
I6032
sg181
F0.07892394065856934
sg182
F0.0001647472381591797
sg183
I1
sg184
I90
sa(dp265
g180
I5892
sg181
F0.06521797180175781
sg182
F0.0001239776611328125
sg183
I1
sg184
I89
sa(dp266
g180
I5755
sg181
F0.058595895767211914
sg182
F0.00014400482177734375
sg183
I1
sg184
I88
sa(dp267
g180
I5620
sg181
F0.06068992614746094
sg182
F0.00011897087097167969
sg183
I1
sg184
I87
sa(dp268
g180
I5487
sg181
F0.04970884323120117
sg182
F0.00011324882507324219
sg183
I1
sg184
I86
sa(dp269
g180
I5358
sg181
F0.06597018241882324
sg182
F0.00011110305786132812
sg183
I1
sg184
I85
sa(dp270
g180
I5158
sg181
F0.08542013168334961
sg182
F0.0004570484161376953
sg183
I1
sg184
I84
sa(dp271
g180
I5064
sg181
F0.11614084243774414
sg182
F0.00011014938354492188
sg183
I1
sg184
I81
sa(dp272
g180
I4936
sg181
F0.1487419605255127
sg182
F0.00010800361633300781
sg183
I1
sg184
I80
sa(dp273
g180
I4813
sg181
F0.10005402565002441
sg182
F0.00011014938354492188
sg183
I1
sg184
I79
sa(dp274
g180
I4511
sg181
F0.06231284141540527
sg182
F0.00012612342834472656
sg183
I1
sg184
I78
sa(dp275
g180
I4481
sg181
F0.06094789505004883
sg182
F0.00012302398681640625
sg183
I1
sg184
I76
sa(dp276
g180
I4361
sg181
F0.05871295928955078
sg182
F0.00010514259338378906
sg183
I1
sg184
I75
sa(dp277
g180
I4246
sg181
F0.060363054275512695
sg182
F0.00010514259338378906
sg183
I1
sg184
I74
sa(dp278
g180
I4132
sg181
F0.06484413146972656
sg182
F0.00013685226440429688
sg183
I1
sg184
I73
sa(dp279
g180
I3736
sg181
F0.07935881614685059
sg182
F0.00011706352233886719
sg183
I1
sg184
I72
sa(dp280
g180
I3764
sg181
F0.04220104217529297
sg182
F0.00012111663818359375
sg183
I1
sg184
I69
sa(dp281
g180
I3238
sg181
F0.05117201805114746
sg182
F0.00011706352233886719
sg183
I1
sg184
I68
sa(dp282
g180
I3096
sg181
F0.06987190246582031
sg182
F0.000102996826171875
sg183
I1
sg184
I64
sa(dp283
g180
I3093
sg181
F0.05984187126159668
sg182
F0.00016307830810546875
sg183
I1
sg184
I60
sa(dp284
g180
I2994
sg181
F0.044119834899902344
sg182
F0.00010013580322265625
sg183
I1
sg184
I58
sa(dp285
g180
I2892
sg181
F0.14139485359191895
sg182
F0.00010609626770019531
sg183
I1
sg184
I57
sa(dp286
g180
I2791
sg181
F0.449307918548584
sg182
F0.00014781951904296875
sg183
I1
sg184
I56
sa(dp287
g180
I2524
sg181
F0.042144060134887695
sg182
F9.417533874511719e-05
sg183
I1
sg184
I55
sa(dp288
g180
I2507
sg181
F0.04923295974731445
sg182
F9.179115295410156e-05
sg183
I1
sg184
I53
sa(dp289
g180
I2408
sg181
F0.0795440673828125
sg182
F0.0001418590545654297
sg183
I1
sg184
I52
sa(dp290
g180
I2314
sg181
F0.14987993240356445
sg182
F0.0001456737518310547
sg183
I1
sg184
I51
sa(dp291
g180
I2219
sg181
F0.1465590000152588
sg182
F0.00012111663818359375
sg183
I1
sg184
I50
sa(dp292
g180
I2131
sg181
F0.05066800117492676
sg182
F8.392333984375e-05
sg183
I1
sg184
I49
sa(dp293
g180
I2047
sg181
F0.17267608642578125
sg182
F0.00012803077697753906
sg183
I1
sg184
I48
sa(dp294
g180
I1961
sg181
F0.04600691795349121
sg182
F0.00011086463928222656
sg183
I1
sg184
I47
sa(dp295
g180
I1890
sg181
F0.13595914840698242
sg182
F9.393692016601562e-05
sg183
I1
sg184
I46
sa(dp296
g180
I1813
sg181
F0.044219017028808594
sg182
F0.00010204315185546875
sg183
I1
sg184
I45
sa(dp297
g180
I1737
sg181
F0.03909802436828613
sg182
F0.00011610984802246094
sg183
I1
sg184
I44
sa(dp298
g180
I1662
sg181
F0.045619964599609375
sg182
F9.512901306152344e-05
sg183
I1
sg184
I43
sa(dp299
g180
I1590
sg181
F1.029587984085083
sg182
F0.00019884109497070312
sg183
I1
sg184
I42
sa(dp300
g180
I1518
sg181
F0.03958702087402344
sg182
F8.606910705566406e-05
sg183
I1
sg184
I41
sa(dp301
g180
I1447
sg181
F0.10572099685668945
sg182
F0.00010967254638671875
sg183
I1
sg184
I40
sa(dp302
g180
I1379
sg181
F1.0559320449829102
sg182
F0.00011706352233886719
sg183
I1
sg184
I39
sa(dp303
g180
I1311
sg181
F1.0560870170593262
sg182
F0.00020003318786621094
sg183
I1
sg184
I38
sa(dp304
g180
I1244
sg181
F0.02428889274597168
sg182
F8.20159912109375e-05
sg183
I1
sg184
I37
sa(dp305
g180
I1182
sg181
F0.0279541015625
sg182
F9.417533874511719e-05
sg183
I1
sg184
I36
sa(dp306
g180
I1123
sg181
F0.03026294708251953
sg182
F8.0108642578125e-05
sg183
I1
sg184
I35
sasS'total_cqs'
p307
I244
ssI8
(dp308
S'iters'
p309
I12
sS'meta'
p310
(lp311
(dp312
S'objective'
p313
I3239
sS'query_time'
p314
F0.41294407844543457
sS'comp_time'
p315
F0.0001361370086669922
sS'exec_cq'
p316
I1
sS'total_cq'
p317
I82
sa(dp318
g313
I2259
sg314
F0.7783830165863037
sg315
F0.0003590583801269531
sg316
I1
sg317
I81
sa(dp319
g313
I2456
sg314
F0.8934299945831299
sg315
F0.00013589859008789062
sg316
I1
sg317
I71
sa(dp320
g313
I2465
sg314
F7.451668977737427
sg315
F0.00020503997802734375
sg316
I1
sg317
I67
sa(dp321
g313
I2390
sg314
F0.4809229373931885
sg315
F9.918212890625e-05
sg316
I1
sg317
I66
sa(dp322
g313
I1503
sg314
F3.625864028930664
sg315
F0.00015974044799804688
sg316
I1
sg317
I65
sa(dp323
g313
I1751
sg314
F0.3157060146331787
sg315
F0.00033211708068847656
sg316
I1
sg317
I51
sa(dp324
g313
I1698
sg314
F7.048889875411987
sg315
F0.000102996826171875
sg316
I1
sg317
I48
sa(dp325
g313
I1637
sg314
F0.35260486602783203
sg315
F0.0001289844512939453
sg316
I1
sg317
I46
sa(dp326
g313
I1214
sg314
F0.3646199703216553
sg315
F0.00016689300537109375
sg316
I1
sg317
I45
sa(dp327
g313
I176
sg314
F0.010262012481689453
sg315
F5.793571472167969e-05
sg316
I1
sg317
I7
sa(dp328
g313
I8
sg314
F0.31990504264831543
sg315
F6.985664367675781e-05
sg316
I1
sg317
I2
sasS'total_cqs'
p329
I82
ssI9
(dp330
S'iters'
p331
I1
sS'meta'
p332
(lp333
(dp334
S'objective'
p335
I1
sS'query_time'
p336
F0.17664003372192383
sS'comp_time'
p337
F6.699562072753906e-05
sS'exec_cq'
p338
I1
sS'total_cq'
p339
I2
sasS'total_cqs'
p340
I2
ssI10
(dp341
S'iters'
p342
I64
sS'meta'
p343
(lp344
(dp345
S'objective'
p346
I21411
sS'query_time'
p347
F0.2988419532775879
sS'comp_time'
p348
F0.0002338886260986328
sS'exec_cq'
p349
I1
sS'total_cq'
p350
I210
sa(dp351
g346
I21365
sg347
F0.20440912246704102
sg348
F0.00023484230041503906
sg349
I1
sg350
I207
sa(dp352
g346
I20534
sg347
F0.27816104888916016
sg348
F0.000225067138671875
sg349
I1
sg350
I206
sa(dp353
g346
I19672
sg347
F0.3345341682434082
sg348
F0.00021910667419433594
sg349
I1
sg350
I203
sa(dp354
g346
I14675
sg347
F0.4923241138458252
sg348
F0.0004589557647705078
sg349
I1
sg350
I197
sa(dp355
g346
I16815
sg347
F0.2976038455963135
sg348
F0.00017786026000976562
sg349
I1
sg350
I167
sa(dp356
g346
I14439
sg347
F0.13480901718139648
sg348
F0.0001659393310546875
sg349
I1
sg350
I164
sa(dp357
g346
I14833
sg347
F0.25609707832336426
sg348
F0.00021409988403320312
sg349
I1
sg350
I154
sa(dp358
g346
I14096
sg347
F0.11414194107055664
sg348
F0.0001728534698486328
sg349
I1
sg350
I151
sa(dp359
g346
I10699
sg347
F0.10167098045349121
sg348
F0.00014901161193847656
sg349
I1
sg350
I146
sa(dp360
g346
I12017
sg347
F8.220002889633179
sg348
F0.00022602081298828125
sg349
I1
sg350
I126
sa(dp361
g346
I11568
sg347
F0.21483802795410156
sg348
F0.00015091896057128906
sg349
I1
sg350
I123
sa(dp362
g346
I11474
sg347
F0.2802419662475586
sg348
F0.0001533031463623047
sg349
I1
sg350
I120
sa(dp363
g346
I11327
sg347
F0.22594881057739258
sg348
F0.00013113021850585938
sg349
I1
sg350
I117
sa(dp364
g346
I10569
sg347
F0.1545860767364502
sg348
F0.0001480579376220703
sg349
I1
sg350
I116
sa(dp365
g346
I10098
sg347
F0.11184501647949219
sg348
F0.00013589859008789062
sg349
I1
sg350
I113
sa(dp366
g346
I9602
sg347
F0.12054204940795898
sg348
F0.00014901161193847656
sg349
I1
sg350
I110
sa(dp367
g346
I9709
sg347
F0.23426580429077148
sg348
F0.0001919269561767578
sg349
I1
sg350
I106
sa(dp368
g346
I9066
sg347
F0.10876202583312988
sg348
F0.000186920166015625
sg349
I1
sg350
I105
sa(dp369
g346
I9102
sg347
F0.09023284912109375
sg348
F0.0001361370086669922
sg349
I1
sg350
I100
sa(dp370
g346
I8596
sg347
F0.1368100643157959
sg348
F0.0001659393310546875
sg349
I1
sg350
I98
sa(dp371
g346
I8222
sg347
F0.11976289749145508
sg348
F0.00021219253540039062
sg349
I1
sg350
I95
sa(dp372
g346
I8221
sg347
F0.1447601318359375
sg348
F0.0001537799835205078
sg349
I1
sg350
I93
sa(dp373
g346
I7418
sg347
F0.04652285575866699
sg348
F0.00012683868408203125
sg349
I1
sg350
I92
sa(dp374
g346
I7182
sg347
F0.13269400596618652
sg348
F0.0001442432403564453
sg349
I1
sg350
I87
sa(dp375
g346
I6850
sg347
F0.1392068862915039
sg348
F0.00019431114196777344
sg349
I1
sg350
I84
sa(dp376
g346
I6348
sg347
F0.14629006385803223
sg348
F0.00015783309936523438
sg349
I1
sg350
I81
sa(dp377
g346
I5477
sg347
F0.10528421401977539
sg348
F0.00016498565673828125
sg349
I1
sg350
I78
sa(dp378
g346
I5785
sg347
F0.12431812286376953
sg348
F0.00014925003051757812
sg349
I1
sg350
I73
sa(dp379
g346
I5617
sg347
F0.10716605186462402
sg348
F0.0001461505889892578
sg349
I1
sg350
I72
sa(dp380
g346
I5300
sg347
F0.034503936767578125
sg348
F0.00010609626770019531
sg349
I1
sg350
I71
sa(dp381
g346
I5005
sg347
F0.09382820129394531
sg348
F0.00015115737915039062
sg349
I1
sg350
I69
sa(dp382
g346
I4942
sg347
F0.0426328182220459
sg348
F9.202957153320312e-05
sg349
I1
sg350
I66
sa(dp383
g346
I4780
sg347
F0.4126291275024414
sg348
F0.00012183189392089844
sg349
I1
sg350
I64
sa(dp384
g346
I4618
sg347
F0.19735407829284668
sg348
F0.00013017654418945312
sg349
I1
sg350
I63
sa(dp385
g346
I4177
sg347
F3.3123772144317627
sg348
F0.0001537799835205078
sg349
I1
sg350
I62
sa(dp386
g346
I4129
sg347
F0.33577585220336914
sg348
F9.512901306152344e-05
sg349
I1
sg350
I59
sa(dp387
g346
I3986
sg347
F0.13741493225097656
sg348
F0.00016808509826660156
sg349
I1
sg350
I57
sa(dp388
g346
I3503
sg347
F0.11240100860595703
sg348
F0.00011920928955078125
sg349
I1
sg350
I56
sa(dp389
g346
I3512
sg347
F0.07227087020874023
sg348
F0.00010991096496582031
sg349
I1
sg350
I53
sa(dp390
g346
I3358
sg347
F0.1650838851928711
sg348
F0.00010895729064941406
sg349
I1
sg350
I52
sa(dp391
g346
I2781
sg347
F0.019670963287353516
sg348
F9.131431579589844e-05
sg349
I1
sg350
I51
sa(dp392
g346
I2843
sg347
F0.06271004676818848
sg348
F9.417533874511719e-05
sg349
I1
sg350
I47
sa(dp393
g346
I2693
sg347
F0.11711692810058594
sg348
F8.511543273925781e-05
sg349
I1
sg350
I46
sa(dp394
g346
I2068
sg347
F0.29399991035461426
sg348
F0.00013494491577148438
sg349
I1
sg350
I45
sa(dp395
g346
I2142
sg347
F0.10947799682617188
sg348
F0.00013589859008789062
sg349
I1
sg350
I40
sa(dp396
g346
I2045
sg347
F0.167510986328125
sg348
F0.0001049041748046875
sg349
I1
sg350
I38
sa(dp397
g346
I1928
sg347
F0.017190217971801758
sg348
F7.510185241699219e-05
sg349
I1
sg350
I37
sa(dp398
g346
I1666
sg347
F0.15374398231506348
sg348
F8.416175842285156e-05
sg349
I1
sg350
I36
sa(dp399
g346
I1624
sg347
F0.04507303237915039
sg348
F0.00010013580322265625
sg349
I1
sg350
I34
sa(dp400
g346
I1201
sg347
F0.24657106399536133
sg348
F7.200241088867188e-05
sg349
I1
sg350
I33
sa(dp401
g346
I1263
sg347
F0.0388028621673584
sg348
F8.988380432128906e-05
sg349
I1
sg350
I30
sa(dp402
g346
I1069
sg347
F0.149979829788208
sg348
F9.322166442871094e-05
sg349
I1
sg350
I29
sa(dp403
g346
I810
sg347
F0.14909982681274414
sg348
F9.703636169433594e-05
sg349
I1
sg350
I27
sa(dp404
g346
I842
sg347
F0.03358793258666992
sg348
F8.58306884765625e-05
sg349
I1
sg350
I23
sa(dp405
g346
I774
sg347
F0.2515740394592285
sg348
F9.179115295410156e-05
sg349
I1
sg350
I22
sa(dp406
g346
I701
sg347
F0.03253293037414551
sg348
F7.009506225585938e-05
sg349
I1
sg350
I21
sa(dp407
g346
I636
sg347
F0.14268898963928223
sg348
F9.107589721679688e-05
sg349
I1
sg350
I20
sa(dp408
g346
I572
sg347
F0.09323287010192871
sg348
F8.20159912109375e-05
sg349
I1
sg350
I19
sa(dp409
g346
I507
sg347
F0.028442859649658203
sg348
F6.175041198730469e-05
sg349
I1
sg350
I18
sa(dp410
g346
I347
sg347
F0.12278103828430176
sg348
F8.416175842285156e-05
sg349
I1
sg350
I17
sa(dp411
g346
I342
sg347
F0.03380990028381348
sg348
F9.202957153320312e-05
sg349
I1
sg350
I15
sa(dp412
g346
I285
sg347
F0.07269716262817383
sg348
F6.914138793945312e-05
sg349
I1
sg350
I14
sa(dp413
g346
I235
sg347
F0.020973920822143555
sg348
F5.1021575927734375e-05
sg349
I1
sg350
I13
sasS'total_cqs'
p414
I210
ssI11
(dp415
S'iters'
p416
I1
sS'meta'
p417
(lp418
(dp419
S'objective'
p420
I1
sS'query_time'
p421
F0.09677696228027344
sS'comp_time'
p422
F6.914138793945312e-05
sS'exec_cq'
p423
I1
sS'total_cq'
p424
I2
sasS'total_cqs'
p425
I2
ssI12
(dp426
S'iters'
p427
I0
sS'meta'
p428
(lp429
sS'total_cqs'
p430
I1
ssI13
(dp431
S'iters'
p432
I1
sS'meta'
p433
(lp434
(dp435
S'objective'
p436
I1
sS'query_time'
p437
F0.38266611099243164
sS'comp_time'
p438
F7.009506225585938e-05
sS'exec_cq'
p439
I1
sS'total_cq'
p440
I2
sasS'total_cqs'
p441
I2
ssI14
(dp442
S'iters'
p443
I105
sS'meta'
p444
(lp445
(dp446
S'objective'
p447
I16835
sS'query_time'
p448
F0.21669411659240723
sS'comp_time'
p449
F0.00021409988403320312
sS'exec_cq'
p450
I1
sS'total_cq'
p451
I185
sa(dp452
g447
I16652
sg448
F0.22810697555541992
sg449
F0.0001876354217529297
sg450
I1
sg451
I184
sa(dp453
g447
I16470
sg448
F0.21779298782348633
sg449
F0.00021004676818847656
sg450
I1
sg451
I183
sa(dp454
g447
I16289
sg448
F0.21460604667663574
sg449
F0.00021004676818847656
sg450
I1
sg451
I182
sa(dp455
g447
I16109
sg448
F0.22794008255004883
sg449
F0.00021409988403320312
sg450
I1
sg451
I181
sa(dp456
g447
I15930
sg448
F0.19988608360290527
sg449
F0.0002090930938720703
sg450
I1
sg451
I180
sa(dp457
g447
I15752
sg448
F0.31427693367004395
sg449
F0.0002048015594482422
sg450
I1
sg451
I179
sa(dp458
g447
I15575
sg448
F0.15319585800170898
sg449
F0.0004222393035888672
sg450
I1
sg451
I178
sa(dp459
g447
I13533
sg448
F0.33014798164367676
sg449
F0.00024366378784179688
sg450
I1
sg451
I177
sa(dp460
g447
I14291
sg448
F1.0009779930114746
sg449
F0.0001971721649169922
sg450
I1
sg451
I164
sa(dp461
g447
I14117
sg448
F0.13960504531860352
sg449
F0.00019097328186035156
sg450
I1
sg451
I163
sa(dp462
g447
I13944
sg448
F0.13654303550720215
sg449
F0.00015878677368164062
sg450
I1
sg451
I162
sa(dp463
g447
I13772
sg448
F0.12900519371032715
sg449
F0.00024890899658203125
sg450
I1
sg451
I161
sa(dp464
g447
I13601
sg448
F0.11330914497375488
sg449
F0.0001976490020751953
sg450
I1
sg451
I160
sa(dp465
g447
I13433
sg448
F0.0945429801940918
sg449
F0.00019478797912597656
sg450
I1
sg451
I159
sa(dp466
g447
I13265
sg448
F6.705549001693726
sg449
F0.00034809112548828125
sg450
I1
sg451
I158
sa(dp467
g447
I13098
sg448
F0.08432412147521973
sg449
F0.0001747608184814453
sg450
I1
sg451
I157
sa(dp468
g447
I12932
sg448
F0.19642210006713867
sg449
F0.00018715858459472656
sg450
I1
sg451
I156
sa(dp469
g447
I12767
sg448
F0.08608102798461914
sg449
F0.00018310546875
sg450
I1
sg451
I155
sa(dp470
g447
I12603
sg448
F0.8697478771209717
sg449
F0.0001990795135498047
sg450
I1
sg451
I154
sa(dp471
g447
I12440
sg448
F0.24512290954589844
sg449
F0.00019407272338867188
sg450
I1
sg451
I153
sa(dp472
g447
I11554
sg448
F0.26221609115600586
sg449
F0.00022482872009277344
sg450
I1
sg451
I152
sa(dp473
g447
I11755
sg448
F0.6957888603210449
sg449
F0.0001990795135498047
sg450
I1
sg451
I144
sa(dp474
g447
I11595
sg448
F0.15009784698486328
sg449
F0.000164031982421875
sg450
I1
sg451
I143
sa(dp475
g447
I11436
sg448
F2.456170082092285
sg449
F0.0002300739288330078
sg450
I1
sg451
I142
sa(dp476
g447
I11278
sg448
F0.38750195503234863
sg449
F0.0001857280731201172
sg450
I1
sg451
I141
sa(dp477
g447
I11121
sg448
F0.10642600059509277
sg449
F0.00017595291137695312
sg450
I1
sg451
I140
sa(dp478
g447
I10965
sg448
F0.17467093467712402
sg449
F0.00021505355834960938
sg450
I1
sg451
I139
sa(dp479
g447
I10810
sg448
F0.16570091247558594
sg449
F0.00019788742065429688
sg450
I1
sg451
I138
sa(dp480
g447
I10436
sg448
F0.07093286514282227
sg449
F0.00015687942504882812
sg450
I1
sg451
I137
sa(dp481
g447
I10393
sg448
F0.1617739200592041
sg449
F0.00021600723266601562
sg450
I1
sg451
I135
sa(dp482
g447
I9171
sg448
F0.09755587577819824
sg449
F0.00015115737915039062
sg450
I1
sg451
I134
sa(dp483
g447
I9555
sg448
F0.2738499641418457
sg449
F0.0001430511474609375
sg450
I1
sg451
I127
sa(dp484
g447
I9407
sg448
F0.10177898406982422
sg449
F0.00016927719116210938
sg450
I1
sg451
I126
sa(dp485
g447
I9259
sg448
F0.17755484580993652
sg449
F0.00019407272338867188
sg450
I1
sg451
I125
sa(dp486
g447
I9112
sg448
F0.21406793594360352
sg449
F0.00019598007202148438
sg450
I1
sg451
I124
sa(dp487
g447
I6824
sg448
F0.09433794021606445
sg449
F0.00013399124145507812
sg450
I1
sg451
I123
sa(dp488
g447
I7752
sg448
F0.18443799018859863
sg449
F0.00015807151794433594
sg450
I1
sg451
I111
sa(dp489
g447
I6479
sg448
F0.8943800926208496
sg449
F0.0001709461212158203
sg450
I1
sg451
I110
sa(dp490
g447
I6904
sg448
F0.5174980163574219
sg449
F0.00015401840209960938
sg450
I1
sg451
I104
sa(dp491
g447
I6766
sg448
F0.16305804252624512
sg449
F0.0002002716064453125
sg450
I1
sg451
I103
sa(dp492
g447
I6628
sg448
F0.14719796180725098
sg449
F0.0001399517059326172
sg450
I1
sg451
I102
sa(dp493
g447
I6491
sg448
F0.07370495796203613
sg449
F0.0001327991485595703
sg450
I1
sg451
I101
sa(dp494
g447
I6355
sg448
F0.4611639976501465
sg449
F0.00022077560424804688
sg450
I1
sg451
I100
sa(dp495
g447
I6222
sg448
F0.10468387603759766
sg449
F0.00016689300537109375
sg450
I1
sg451
I99
sa(dp496
g447
I6089
sg448
F0.13266515731811523
sg449
F0.00017690658569335938
sg450
I1
sg451
I98
sa(dp497
g447
I5961
sg448
F0.15502405166625977
sg449
F0.00015878677368164062
sg450
I1
sg451
I97
sa(dp498
g447
I5834
sg448
F0.35932302474975586
sg449
F0.000370025634765625
sg450
I1
sg451
I96
sa(dp499
g447
I5707
sg448
F0.0724020004272461
sg449
F0.0001480579376220703
sg450
I1
sg451
I95
sa(dp500
g447
I5587
sg448
F0.0852060317993164
sg449
F0.00012302398681640625
sg450
I1
sg451
I94
sa(dp501
g447
I5373
sg448
F0.06957697868347168
sg449
F0.00011992454528808594
sg450
I1
sg451
I93
sa(dp502
g447
I5298
sg448
F0.07560896873474121
sg449
F0.00011801719665527344
sg450
I1
sg451
I91
sa(dp503
g447
I5178
sg448
F1.1467177867889404
sg449
F0.00016999244689941406
sg450
I1
sg451
I90
sa(dp504
g447
I5059
sg448
F0.15169405937194824
sg449
F0.00021886825561523438
sg450
I1
sg451
I89
sa(dp505
g447
I4941
sg448
F0.0916438102722168
sg449
F0.00017881393432617188
sg450
I1
sg451
I88
sa(dp506
g447
I4824
sg448
F0.12073206901550293
sg449
F0.00014019012451171875
sg450
I1
sg451
I87
sa(dp507
g447
I4710
sg448
F0.0711219310760498
sg449
F0.00016927719116210938
sg450
I1
sg451
I86
sa(dp508
g447
I4598
sg448
F0.7820219993591309
sg449
F0.00023794174194335938
sg450
I1
sg451
I85
sa(dp509
g447
I4486
sg448
F0.3799560070037842
sg449
F0.0001590251922607422
sg450
I1
sg451
I84
sa(dp510
g447
I4375
sg448
F0.06236386299133301
sg449
F0.00012612342834472656
sg450
I1
sg451
I83
sa(dp511
g447
I4219
sg448
F0.09992504119873047
sg449
F0.00014090538024902344
sg450
I1
sg451
I82
sa(dp512
g447
I4135
sg448
F0.0566861629486084
sg449
F0.0001499652862548828
sg450
I1
sg451
I80
sa(dp513
g447
I4028
sg448
F0.15717196464538574
sg449
F0.00014710426330566406
sg450
I1
sg451
I79
sa(dp514
g447
I3922
sg448
F0.14640402793884277
sg449
F0.00010895729064941406
sg450
I1
sg451
I78
sa(dp515
g447
I3817
sg448
F0.06097006797790527
sg449
F0.00013017654418945312
sg450
I1
sg451
I77
sa(dp516
g447
I3713
sg448
F0.0791780948638916
sg449
F0.00016379356384277344
sg450
I1
sg451
I76
sa(dp517
g447
I3612
sg448
F0.15132904052734375
sg449
F0.00013685226440429688
sg450
I1
sg451
I75
sa(dp518
g447
I3513
sg448
F0.049597978591918945
sg449
F0.00010323524475097656
sg450
I1
sg451
I74
sa(dp519
g447
I3414
sg448
F0.06134319305419922
sg449
F0.00010418891906738281
sg450
I1
sg451
I73
sa(dp520
g447
I3320
sg448
F0.34279298782348633
sg449
F0.00015282630920410156
sg450
I1
sg451
I72
sa(dp521
g447
I3227
sg448
F0.049453020095825195
sg449
F0.00010395050048828125
sg450
I1
sg451
I71
sa(dp522
g447
I3136
sg448
F0.05236506462097168
sg449
F0.00010895729064941406
sg450
I1
sg451
I70
sa(dp523
g447
I3045
sg448
F0.07598304748535156
sg449
F0.0001499652862548828
sg450
I1
sg451
I69
sa(dp524
g447
I2957
sg448
F0.21968793869018555
sg449
F0.00011587142944335938
sg450
I1
sg451
I68
sa(dp525
g447
I2869
sg448
F0.06232714653015137
sg449
F0.00015401840209960938
sg450
I1
sg451
I67
sa(dp526
g447
I2782
sg448
F0.4167439937591553
sg449
F0.00013208389282226562
sg450
I1
sg451
I66
sa(dp527
g447
I2696
sg448
F0.1550300121307373
sg449
F0.0003247261047363281
sg450
I1
sg451
I65
sa(dp528
g447
I2611
sg448
F0.04341316223144531
sg449
F0.00011301040649414062
sg450
I1
sg451
I64
sa(dp529
g447
I2527
sg448
F0.04562878608703613
sg449
F9.608268737792969e-05
sg450
I1
sg451
I63
sa(dp530
g447
I2448
sg448
F0.04985189437866211
sg449
F9.703636169433594e-05
sg450
I1
sg451
I62
sa(dp531
g447
I2370
sg448
F2.2425849437713623
sg449
F0.00021910667419433594
sg450
I1
sg451
I61
sa(dp532
g447
I2292
sg448
F0.054975032806396484
sg449
F0.00011396408081054688
sg450
I1
sg451
I60
sa(dp533
g447
I2217
sg448
F0.0587000846862793
sg449
F0.0001418590545654297
sg450
I1
sg451
I59
sa(dp534
g447
I2142
sg448
F0.1513369083404541
sg449
F0.00014591217041015625
sg450
I1
sg451
I58
sa(dp535
g447
I2068
sg448
F0.1295781135559082
sg449
F0.00014400482177734375
sg450
I1
sg451
I57
sa(dp536
g447
I1995
sg448
F0.04090094566345215
sg449
F0.00031280517578125
sg450
I1
sg451
I56
sa(dp537
g447
I1923
sg448
F0.46767687797546387
sg449
F0.00014400482177734375
sg450
I1
sg451
I55
sa(dp538
g447
I1852
sg448
F0.1285700798034668
sg449
F0.0001201629638671875
sg450
I1
sg451
I54
sa(dp539
g447
I1782
sg448
F0.04581117630004883
sg449
F0.00010585784912109375
sg450
I1
sg451
I53
sa(dp540
g447
I1713
sg448
F0.039164066314697266
sg449
F9.107589721679688e-05
sg450
I1
sg451
I52
sa(dp541
g447
I1645
sg448
F0.03217792510986328
sg449
F8.916854858398438e-05
sg450
I1
sg451
I51
sa(dp542
g447
I1578
sg448
F0.42250990867614746
sg449
F0.00013065338134765625
sg450
I1
sg451
I50
sa(dp543
g447
I1512
sg448
F0.03932905197143555
sg449
F8.988380432128906e-05
sg450
I1
sg451
I49
sa(dp544
g447
I1447
sg448
F0.03395390510559082
sg449
F8.702278137207031e-05
sg450
I1
sg451
I48
sa(dp545
g447
I1383
sg448
F0.052935123443603516
sg449
F0.00012993812561035156
sg450
I1
sg451
I47
sa(dp546
g447
I1320
sg448
F0.1524200439453125
sg449
F0.00013589859008789062
sg450
I1
sg451
I46
sa(dp547
g447
I1260
sg448
F0.3628978729248047
sg449
F0.00011181831359863281
sg450
I1
sg451
I45
sa(dp548
g447
I1202
sg448
F0.12519192695617676
sg449
F0.0001220703125
sg450
I1
sg451
I44
sa(dp549
g447
I1146
sg448
F0.06308388710021973
sg449
F0.0001049041748046875
sg450
I1
sg451
I43
sa(dp550
g447
I1094
sg448
F0.1598491668701172
sg449
F0.00011396408081054688
sg450
I1
sg451
I42
sa(dp551
g447
I1041
sg448
F0.14547395706176758
sg449
F0.00013709068298339844
sg450
I1
sg451
I41
sa(dp552
g447
I989
sg448
F0.14040398597717285
sg449
F0.00010514259338378906
sg450
I1
sg451
I40
sa(dp553
g447
I940
sg448
F0.13519001007080078
sg449
F0.00016498565673828125
sg450
I1
sg451
I39
sa(dp554
g447
I893
sg448
F1.4371278285980225
sg449
F0.00013875961303710938
sg450
I1
sg451
I38
sa(dp555
g447
I846
sg448
F0.039263010025024414
sg449
F0.00010418891906738281
sg450
I1
sg451
I37
sasS'total_cqs'
p556
I185
ssI15
(dp557
S'iters'
p558
I40
sS'meta'
p559
(lp560
(dp561
S'objective'
p562
I27400
sS'query_time'
p563
F0.5203368663787842
sS'comp_time'
p564
F0.0002548694610595703
sS'exec_cq'
p565
I1
sS'total_cq'
p566
I244
sa(dp567
g562
I27973
sg563
F0.2592959403991699
sg564
F0.0002582073211669922
sg565
I1
sg566
I235
sa(dp568
g562
I27825
sg563
F0.21814894676208496
sg564
F0.00027108192443847656
sg565
I1
sg566
I233
sa(dp569
g562
I27585
sg563
F0.7005839347839355
sg564
F0.00032210350036621094
sg565
I1
sg566
I232
sa(dp570
g562
I27346
sg563
F0.19841694831848145
sg564
F0.0002989768981933594
sg565
I1
sg566
I231
sa(dp571
g562
I27108
sg563
F0.381011962890625
sg564
F0.0005810260772705078
sg565
I1
sg566
I230
sa(dp572
g562
I26871
sg563
F0.21115708351135254
sg564
F0.0002999305725097656
sg565
I1
sg566
I229
sa(dp573
g562
I26635
sg563
F0.4783048629760742
sg564
F0.0002720355987548828
sg565
I1
sg566
I228
sa(dp574
g562
I26400
sg563
F0.38124585151672363
sg564
F0.0002541542053222656
sg565
I1
sg566
I227
sa(dp575
g562
I26166
sg563
F0.6668257713317871
sg564
F0.00025582313537597656
sg565
I1
sg566
I226
sa(dp576
g562
I25933
sg563
F0.22210407257080078
sg564
F0.0002720355987548828
sg565
I1
sg566
I225
sa(dp577
g562
I23475
sg563
F0.3468780517578125
sg564
F0.00030493736267089844
sg565
I1
sg566
I224
sa(dp578
g562
I24359
sg563
F0.20286107063293457
sg564
F0.0002522468566894531
sg565
I1
sg566
I211
sa(dp579
g562
I24130
sg563
F0.21042108535766602
sg564
F0.0002551078796386719
sg565
I1
sg566
I210
sa(dp580
g562
I23902
sg563
F0.20478296279907227
sg564
F0.00022292137145996094
sg565
I1
sg566
I209
sa(dp581
g562
I23675
sg563
F0.0800790786743164
sg564
F0.00024008750915527344
sg565
I1
sg566
I208
sa(dp582
g562
I23185
sg563
F0.41521620750427246
sg564
F0.000232696533203125
sg565
I1
sg566
I207
sa(dp583
g562
I23092
sg563
F0.0988919734954834
sg564
F0.0005216598510742188
sg565
I1
sg566
I205
sa(dp584
g562
I22868
sg563
F0.32337284088134766
sg564
F0.00023889541625976562
sg565
I1
sg566
I204
sa(dp585
g562
I22645
sg563
F0.18381595611572266
sg564
F0.00025391578674316406
sg565
I1
sg566
I203
sa(dp586
g562
I22423
sg563
F0.1589670181274414
sg564
F0.00025200843811035156
sg565
I1
sg566
I202
sa(dp587
g562
I21740
sg563
F0.2892730236053467
sg564
F0.0003120899200439453
sg565
I1
sg566
I201
sa(dp588
g562
I21753
sg563
F0.18016791343688965
sg564
F0.00021505355834960938
sg565
I1
sg566
I198
sa(dp589
g562
I20515
sg563
F0.644902229309082
sg564
F0.0002911090850830078
sg565
I1
sg566
I197
sa(dp590
g562
I17472
sg563
F0.16164803504943848
sg564
F0.0002560615539550781
sg565
I1
sg566
I192
sa(dp591
g562
I18924
sg563
F0.07379913330078125
sg564
F0.000186920166015625
sg565
I1
sg566
I177
sa(dp592
g562
I18709
sg563
F0.20013999938964844
sg564
F0.00022101402282714844
sg565
I1
sg566
I176
sa(dp593
g562
I18497
sg563
F0.25112199783325195
sg564
F0.00024080276489257812
sg565
I1
sg566
I175
sa(dp594
g562
I18215
sg563
F0.13472509384155273
sg564
F0.00021696090698242188
sg565
I1
sg566
I174
sa(dp595
g562
I18041
sg563
F0.25074315071105957
sg564
F0.00026297569274902344
sg565
I1
sg566
I172
sa(dp596
g562
I17832
sg563
F6.384166955947876
sg564
F0.00019884109497070312
sg565
I1
sg566
I171
sa(dp597
g562
I17624
sg563
F0.12940382957458496
sg564
F0.0002167224884033203
sg565
I1
sg566
I170
sa(dp598
g562
I17031
sg563
F0.09378814697265625
sg564
F0.00025391578674316406
sg565
I1
sg566
I169
sa(dp599
g562
I17018
sg563
F0.09806084632873535
sg564
F0.0002009868621826172
sg565
I1
sg566
I167
sa(dp600
g562
I16813
sg563
F0.8104791641235352
sg564
F0.00021719932556152344
sg565
I1
sg566
I166
sa(dp601
g562
I15265
sg563
F0.13992905616760254
sg564
F0.00020813941955566406
sg565
I1
sg566
I165
sa(dp602
g562
I485
sg563
F0.009263992309570312
sg564
F8.20159912109375e-05
sg565
I1
sg566
I10
sa(dp603
g562
I66
sg563
F0.04842209815979004
sg564
F5.507469177246094e-05
sg565
I1
sg566
I5
sa(dp604
g562
I45
sg563
F0.009804010391235352
sg564
F6.389617919921875e-05
sg565
I1
sg566
I4
sa(dp605
g562
I36
sg563
F0.0010190010070800781
sg564
F5.4836273193359375e-05
sg565
I1
sg566
I2
sasS'total_cqs'
p606
I244
ssI16
(dp607
S'iters'
p608
I5
sS'meta'
p609
(lp610
(dp611
S'objective'
p612
I20
sS'query_time'
p613
F0.4373159408569336
sS'comp_time'
p614
F0.00010275840759277344
sS'exec_cq'
p615
I1
sS'total_cq'
p616
I23
sa(dp617
g612
I50
sg613
F0.8181579113006592
sg614
F0.00044083595275878906
sg615
I1
sg616
I11
sa(dp618
g612
I13
sg613
F0.4451639652252197
sg614
F7.104873657226562e-05
sg615
I1
sg616
I5
sa(dp619
g612
I10
sg613
F0.024981975555419922
sg614
F5.1021575927734375e-05
sg615
I1
sg616
I4
sa(dp620
g612
I6
sg613
F0.4093358516693115
sg614
F6.318092346191406e-05
sg615
I1
sg616
I2
sasS'total_cqs'
p621
I23
ssI17
(dp622
S'iters'
p623
I48
sS'meta'
p624
(lp625
(dp626
S'objective'
p627
I5028
sS'query_time'
p628
F3.808887004852295
sS'comp_time'
p629
F0.0003027915954589844
sS'exec_cq'
p630
I1
sS'total_cq'
p631
I116
sa(dp632
g627
I5585
sg628
F0.268996000289917
sg629
F0.0001392364501953125
sg630
I1
sg631
I101
sa(dp633
g627
I5372
sg628
F0.3271369934082031
sg629
F0.00015473365783691406
sg630
I1
sg631
I99
sa(dp634
g627
I4525
sg628
F0.1624901294708252
sg629
F0.00016689300537109375
sg630
I1
sg631
I97
sa(dp635
g627
I3986
sg628
F0.27240490913391113
sg629
F0.00015115737915039062
sg630
I1
sg631
I89
sa(dp636
g627
I4292
sg628
F0.2949950695037842
sg629
F0.00010991096496582031
sg630
I1
sg631
I80
sa(dp637
g627
I4039
sg628
F0.21670293807983398
sg629
F0.00011301040649414062
sg630
I1
sg631
I79
sa(dp638
g627
I4003
sg628
F0.21801280975341797
sg629
F0.00011587142944335938
sg630
I1
sg631
I77
sa(dp639
g627
I2832
sg628
F0.14006900787353516
sg629
F0.00012922286987304688
sg630
I1
sg631
I76
sa(dp640
g627
I3258
sg628
F0.12944388389587402
sg629
F0.0001399517059326172
sg630
I1
sg631
I66
sa(dp641
g627
I3153
sg628
F0.17101597785949707
sg629
F0.00010895729064941406
sg630
I1
sg631
I65
sa(dp642
g627
I3049
sg628
F2.200521945953369
sg629
F0.00012826919555664062
sg630
I1
sg631
I64
sa(dp643
g627
I2946
sg628
F0.20030689239501953
sg629
F0.00013399124145507812
sg630
I1
sg631
I63
sa(dp644
g627
I2720
sg628
F0.070281982421875
sg629
F0.0001399517059326172
sg630
I1
sg631
I62
sa(dp645
g627
I2577
sg628
F0.20810890197753906
sg629
F0.00016307830810546875
sg630
I1
sg631
I60
sa(dp646
g627
I2529
sg628
F0.19334197044372559
sg629
F8.726119995117188e-05
sg630
I1
sg631
I58
sa(dp647
g627
I2432
sg628
F0.28070712089538574
sg629
F8.797645568847656e-05
sg630
I1
sg631
I57
sa(dp648
g627
I2335
sg628
F0.19211912155151367
sg629
F0.0002429485321044922
sg630
I1
sg631
I56
sa(dp649
g627
I2071
sg628
F0.06247901916503906
sg629
F8.7738037109375e-05
sg630
I1
sg631
I55
sa(dp650
g627
I2054
sg628
F0.11390805244445801
sg629
F0.00011014938354492188
sg630
I1
sg631
I53
sa(dp651
g627
I1857
sg628
F0.09526896476745605
sg629
F0.00013899803161621094
sg630
I1
sg631
I51
sa(dp652
g627
I1823
sg628
F0.1542501449584961
sg629
F0.00010919570922851562
sg630
I1
sg631
I49
sa(dp653
g627
I1740
sg628
F0.2522611618041992
sg629
F0.00010085105895996094
sg630
I1
sg631
I48
sa(dp654
g627
I1529
sg628
F0.14795303344726562
sg629
F0.00010991096496582031
sg630
I1
sg631
I47
sa(dp655
g627
I1514
sg628
F0.053131103515625
sg629
F0.0001220703125
sg630
I1
sg631
I45
sa(dp656
g627
I1392
sg628
F0.26224303245544434
sg629
F0.0001220703125
sg630
I1
sg631
I44
sa(dp657
g627
I1340
sg628
F0.13080692291259766
sg629
F0.000102996826171875
sg630
I1
sg631
I42
sa(dp658
g627
I1243
sg628
F0.03772878646850586
sg629
F9.918212890625e-05
sg630
I1
sg631
I41
sa(dp659
g627
I1192
sg628
F0.20371294021606445
sg629
F0.00011110305786132812
sg630
I1
sg631
I38
sa(dp660
g627
I1125
sg628
F0.6282291412353516
sg629
F0.00019311904907226562
sg630
I1
sg631
I37
sa(dp661
g627
I1059
sg628
F0.19532203674316406
sg629
F9.799003601074219e-05
sg630
I1
sg631
I36
sa(dp662
g627
I896
sg628
F0.0925300121307373
sg629
F0.0001010894775390625
sg630
I1
sg631
I34
sa(dp663
g627
I843
sg628
F0.17081093788146973
sg629
F9.107589721679688e-05
sg630
I1
sg631
I32
sa(dp664
g627
I715
sg628
F0.048410892486572266
sg629
F0.00026297569274902344
sg630
I1
sg631
I30
sa(dp665
g627
I715
sg628
F0.13480210304260254
sg629
F9.703636169433594e-05
sg630
I1
sg631
I27
sa(dp666
g627
I666
sg628
F0.07765817642211914
sg629
F7.796287536621094e-05
sg630
I1
sg631
I26
sa(dp667
g627
I587
sg628
F0.09162497520446777
sg629
F9.799003601074219e-05
sg630
I1
sg631
I25
sa(dp668
g627
I556
sg628
F0.08772897720336914
sg629
F8.893013000488281e-05
sg630
I1
sg631
I23
sa(dp669
g627
I428
sg628
F0.049102783203125
sg629
F7.200241088867188e-05
sg630
I1
sg631
I22
sa(dp670
g627
I426
sg628
F0.07277488708496094
sg629
F6.818771362304688e-05
sg630
I1
sg631
I19
sa(dp671
g627
I357
sg628
F0.0764000415802002
sg629
F6.103515625e-05
sg630
I1
sg631
I18
sa(dp672
g627
I332
sg628
F7.151190996170044
sg629
F0.00018286705017089844
sg630
I1
sg631
I16
sa(dp673
g627
I295
sg628
F0.06499719619750977
sg629
F7.081031799316406e-05
sg630
I1
sg631
I15
sa(dp674
g627
I260
sg628
F0.07015800476074219
sg629
F8.702278137207031e-05
sg630
I1
sg631
I14
sa(dp675
g627
I215
sg628
F2.9979820251464844
sg629
F0.00018072128295898438
sg630
I1
sg631
I13
sa(dp676
g627
I188
sg628
F0.0745229721069336
sg629
F5.91278076171875e-05
sg630
I1
sg631
I11
sa(dp677
g627
I156
sg628
F0.021255970001220703
sg629
F8.511543273925781e-05
sg630
I1
sg631
I10
sa(dp678
g627
I129
sg628
F0.14288020133972168
sg629
F9.989738464355469e-05
sg630
I1
sg631
I9
sasS'total_cqs'
p679
I116
ssI18
(dp680
S'iters'
p681
I8
sS'meta'
p682
(lp683
(dp684
S'objective'
p685
I152
sS'query_time'
p686
F0.8127479553222656
sS'comp_time'
p687
F8.511543273925781e-05
sS'exec_cq'
p688
I1
sS'total_cq'
p689
I19
sa(dp690
g685
I135
sg686
F3.2712149620056152
sg687
F0.000331878662109375
sg688
I1
sg689
I18
sa(dp691
g685
I119
sg686
F0.1191258430480957
sg687
F8.106231689453125e-05
sg688
I1
sg689
I17
sa(dp692
g685
I42
sg686
F0.17803120613098145
sg687
F9.226799011230469e-05
sg688
I1
sg689
I16
sa(dp693
g685
I17
sg686
F0.08707594871520996
sg687
F8.296966552734375e-05
sg688
I1
sg689
I7
sa(dp694
g685
I8
sg686
F0.019081830978393555
sg687
F9.608268737792969e-05
sg688
I1
sg689
I6
sa(dp695
g685
I2
sg686
F0.01500391960144043
sg687
F6.222724914550781e-05
sg688
I1
sg689
I4
sa(dp696
g685
I1
sg686
F0.032096147537231445
sg687
F5.7697296142578125e-05
sg688
I1
sg689
I3
sasS'total_cqs'
p697
I19
ssI19
(dp698
S'iters'
p699
I25
sS'meta'
p700
(lp701
(dp702
S'objective'
p703
I949
sS'query_time'
p704
F0.06778216361999512
sS'comp_time'
p705
F0.00011181831359863281
sS'exec_cq'
p706
I1
sS'total_cq'
p707
I54
sa(dp708
g703
I1111
sg704
F0.38486504554748535
sg705
F0.00011086463928222656
sg706
I1
sg707
I44
sa(dp709
g703
I1062
sg704
F0.07942700386047363
sg705
F9.417533874511719e-05
sg706
I1
sg707
I43
sa(dp710
g703
I1013
sg704
F0.03404498100280762
sg705
F9.894371032714844e-05
sg706
I1
sg707
I42
sa(dp711
g703
I965
sg704
F0.03079700469970703
sg705
F7.796287536621094e-05
sg706
I1
sg707
I41
sa(dp712
g703
I732
sg704
F0.03473806381225586
sg705
F8.487701416015625e-05
sg706
I1
sg707
I40
sa(dp713
g703
I779
sg704
F0.05864906311035156
sg705
F9.179115295410156e-05
sg706
I1
sg707
I36
sa(dp714
g703
I734
sg704
F0.08507084846496582
sg705
F9.393692016601562e-05
sg706
I1
sg707
I35
sa(dp715
g703
I690
sg704
F0.0812678337097168
sg705
F7.915496826171875e-05
sg706
I1
sg707
I34
sa(dp716
g703
I647
sg704
F0.052014827728271484
sg705
F7.486343383789062e-05
sg706
I1
sg707
I33
sa(dp717
g703
I605
sg704
F0.20046305656433105
sg705
F0.00014090538024902344
sg706
I1
sg707
I32
sa(dp718
g703
I374
sg704
F0.03155779838562012
sg705
F8.130073547363281e-05
sg706
I1
sg707
I31
sa(dp719
g703
I429
sg704
F0.024264097213745117
sg705
F8.487701416015625e-05
sg706
I1
sg707
I23
sa(dp720
g703
I392
sg704
F0.02764296531677246
sg705
F8.606910705566406e-05
sg706
I1
sg707
I22
sa(dp721
g703
I355
sg704
F0.022475004196166992
sg705
F8.487701416015625e-05
sg706
I1
sg707
I21
sa(dp722
g703
I319
sg704
F0.4969949722290039
sg705
F0.00032019615173339844
sg706
I1
sg707
I20
sa(dp723
g703
I284
sg704
F0.023704051971435547
sg705
F7.605552673339844e-05
sg706
I1
sg707
I19
sa(dp724
g703
I250
sg704
F0.02167510986328125
sg705
F6.771087646484375e-05
sg706
I1
sg707
I18
sa(dp725
g703
I177
sg704
F0.02139902114868164
sg705
F5.984306335449219e-05
sg706
I1
sg707
I17
sa(dp726
g703
I173
sg704
F0.01973700523376465
sg705
F6.29425048828125e-05
sg706
I1
sg707
I15
sa(dp727
g703
I146
sg704
F0.03293204307556152
sg705
F6.508827209472656e-05
sg706
I1
sg707
I14
sa(dp728
g703
I122
sg704
F0.01818990707397461
sg705
F5.984306335449219e-05
sg706
I1
sg707
I13
sa(dp729
g703
I98
sg704
F0.03331303596496582
sg705
F6.699562072753906e-05
sg706
I1
sg707
I12
sa(dp730
g703
I39
sg704
F0.015816926956176758
sg705
F5.698204040527344e-05
sg706
I1
sg707
I11
sa(dp731
g703
I12
sg704
F0.006585121154785156
sg705
F4.982948303222656e-05
sg706
I1
sg707
I3
sasS'total_cqs'
p732
I54
ssI20
(dp733
S'iters'
p734
I28
sS'meta'
p735
(lp736
(dp737
S'objective'
p738
I1384
sS'query_time'
p739
F0.0557401180267334
sS'comp_time'
p740
F0.00014209747314453125
sS'exec_cq'
p741
I1
sS'total_cq'
p742
I60
sa(dp743
g738
I1489
sg739
F0.04230904579162598
sg740
F0.00011777877807617188
sg741
I1
sg742
I52
sa(dp744
g738
I1432
sg739
F0.07179403305053711
sg740
F0.00010704994201660156
sg741
I1
sg742
I51
sa(dp745
g738
I1376
sg739
F0.07825803756713867
sg740
F0.00013709068298339844
sg741
I1
sg742
I50
sa(dp746
g738
I413
sg739
F0.13798189163208008
sg740
F0.00011396408081054688
sg741
I1
sg742
I49
sa(dp747
g738
I815
sg739
F0.06826090812683105
sg740
F9.322166442871094e-05
sg741
I1
sg742
I33
sa(dp748
g738
I763
sg739
F0.26122093200683594
sg740
F0.00010395050048828125
sg741
I1
sg742
I32
sa(dp749
g738
I712
sg739
F0.05538201332092285
sg740
F9.989738464355469e-05
sg741
I1
sg742
I31
sa(dp750
g738
I662
sg739
F0.08415508270263672
sg740
F9.298324584960938e-05
sg741
I1
sg742
I30
sa(dp751
g738
I615
sg739
F0.3171210289001465
sg740
F9.393692016601562e-05
sg741
I1
sg742
I29
sa(dp752
g738
I570
sg739
F0.624251127243042
sg740
F0.0004563331604003906
sg741
I1
sg742
I28
sa(dp753
g738
I525
sg739
F0.0681760311126709
sg740
F0.00016808509826660156
sg741
I1
sg742
I27
sa(dp754
g738
I483
sg739
F0.0308380126953125
sg740
F9.107589721679688e-05
sg741
I1
sg742
I26
sa(dp755
g738
I365
sg739
F0.07627701759338379
sg740
F9.107589721679688e-05
sg741
I1
sg742
I25
sa(dp756
g738
I306
sg739
F0.027418136596679688
sg740
F0.0001239776611328125
sg741
I1
sg742
I22
sa(dp757
g738
I300
sg739
F0.028345108032226562
sg740
F8.893013000488281e-05
sg741
I1
sg742
I20
sa(dp758
g738
I270
sg739
F0.02764105796813965
sg740
F0.00010585784912109375
sg741
I1
sg742
I19
sa(dp759
g738
I240
sg739
F0.027077198028564453
sg740
F6.890296936035156e-05
sg741
I1
sg742
I18
sa(dp760
g738
I212
sg739
F0.025470972061157227
sg740
F6.699562072753906e-05
sg741
I1
sg742
I17
sa(dp761
g738
I184
sg739
F0.025377988815307617
sg740
F8.58306884765625e-05
sg741
I1
sg742
I16
sa(dp762
g738
I159
sg739
F0.05528688430786133
sg740
F9.107589721679688e-05
sg741
I1
sg742
I15
sa(dp763
g738
I134
sg739
F0.02611398696899414
sg740
F8.416175842285156e-05
sg741
I1
sg742
I14
sa(dp764
g738
I114
sg739
F0.6532261371612549
sg740
F0.00010085105895996094
sg741
I1
sg742
I13
sa(dp765
g738
I93
sg739
F0.07289409637451172
sg740
F6.389617919921875e-05
sg741
I1
sg742
I12
sa(dp766
g738
I77
sg739
F0.06901884078979492
sg740
F6.29425048828125e-05
sg741
I1
sg742
I11
sa(dp767
g738
I60
sg739
F0.11148285865783691
sg740
F6.890296936035156e-05
sg741
I1
sg742
I10
sa(dp768
g738
I44
sg739
F0.10960817337036133
sg740
F7.677078247070312e-05
sg741
I1
sg742
I9
sa(dp769
g738
I29
sg739
F0.022806882858276367
sg740
F6.771087646484375e-05
sg741
I1
sg742
I8
sasS'total_cqs'
p770
I60
ssI21
(dp771
S'iters'
p772
I23
sS'meta'
p773
(lp774
(dp775
S'objective'
p776
I799
sS'query_time'
p777
F0.19033598899841309
sS'comp_time'
p778
F0.00010371208190917969
sS'exec_cq'
p779
I1
sS'total_cq'
p780
I45
sa(dp781
g776
I427
sg777
F0.03720998764038086
sg778
F0.00010180473327636719
sg779
I1
sg780
I41
sa(dp782
g776
I586
sg777
F0.08742094039916992
sg778
F7.891654968261719e-05
sg779
I1
sg780
I30
sa(dp783
g776
I545
sg777
F0.40192508697509766
sg778
F8.392333984375e-05
sg779
I1
sg780
I29
sa(dp784
g776
I505
sg777
F0.048252105712890625
sg778
F8.7738037109375e-05
sg779
I1
sg780
I28
sa(dp785
g776
I466
sg777
F0.030740022659301758
sg778
F8.296966552734375e-05
sg779
I1
sg780
I27
sa(dp786
g776
I430
sg777
F0.027610063552856445
sg778
F7.700920104980469e-05
sg779
I1
sg780
I26
sa(dp787
g776
I394
sg777
F0.03001999855041504
sg778
F8.368492126464844e-05
sg779
I1
sg780
I25
sa(dp788
g776
I359
sg777
F0.1515970230102539
sg778
F0.0002930164337158203
sg779
I1
sg780
I24
sa(dp789
g776
I325
sg777
F0.051683902740478516
sg778
F9.703636169433594e-05
sg779
I1
sg780
I23
sa(dp790
g776
I294
sg777
F0.04004311561584473
sg778
F0.00011229515075683594
sg779
I1
sg780
I22
sa(dp791
g776
I263
sg777
F0.02860713005065918
sg778
F8.296966552734375e-05
sg779
I1
sg780
I21
sa(dp792
g776
I233
sg777
F0.023831844329833984
sg778
F0.00015234947204589844
sg779
I1
sg780
I20
sa(dp793
g776
I204
sg777
F0.1798081398010254
sg778
F0.000247955322265625
sg779
I1
sg780
I19
sa(dp794
g776
I180
sg777
F0.04006004333496094
sg778
F7.176399230957031e-05
sg779
I1
sg780
I18
sa(dp795
g776
I161
sg777
F0.020889997482299805
sg778
F6.29425048828125e-05
sg779
I1
sg780
I17
sa(dp796
g776
I140
sg777
F0.01805901527404785
sg778
F5.888938903808594e-05
sg779
I1
sg780
I16
sa(dp797
g776
I122
sg777
F0.02372884750366211
sg778
F7.009506225585938e-05
sg779
I1
sg780
I15
sa(dp798
g776
I106
sg777
F0.07609796524047852
sg778
F6.29425048828125e-05
sg779
I1
sg780
I14
sa(dp799
g776
I62
sg777
F0.017241954803466797
sg778
F6.175041198730469e-05
sg779
I1
sg780
I13
sa(dp800
g776
I61
sg777
F0.14357495307922363
sg778
F6.508827209472656e-05
sg779
I1
sg780
I11
sa(dp801
g776
I47
sg777
F0.07098817825317383
sg778
F6.937980651855469e-05
sg779
I1
sg780
I10
sa(dp802
g776
I36
sg777
F0.3765299320220947
sg778
F6.67572021484375e-05
sg779
I1
sg780
I9
sasS'total_cqs'
p803
I45
ssI22
(dp804
S'iters'
p805
I5
sS'meta'
p806
(lp807
(dp808
S'objective'
p809
I15
sS'query_time'
p810
F0.09303808212280273
sS'comp_time'
p811
F7.82012939453125e-05
sS'exec_cq'
p812
I1
sS'total_cq'
p813
I9
sa(dp814
g809
I14
sg810
F0.16238617897033691
sg811
F7.295608520507812e-05
sg812
I1
sg813
I7
sa(dp815
g809
I8
sg810
F0.15694499015808105
sg811
F8.392333984375e-05
sg812
I1
sg813
I6
sa(dp816
g809
I5
sg810
F0.17806100845336914
sg811
F6.794929504394531e-05
sg812
I1
sg813
I5
sa(dp817
g809
I2
sg810
F0.015961170196533203
sg811
F5.1975250244140625e-05
sg812
I1
sg813
I4
sasS'total_cqs'
p818
I9
ssI23
(dp819
S'iters'
p820
I26
sS'meta'
p821
(lp822
(dp823
S'objective'
p824
I834
sS'query_time'
p825
F0.04899716377258301
sS'comp_time'
p826
F0.00010800361633300781
sS'exec_cq'
p827
I1
sS'total_cq'
p828
I51
sa(dp829
g824
I980
sg825
F0.40399789810180664
sg826
F9.703636169433594e-05
sg827
I1
sg828
I41
sa(dp830
g824
I932
sg825
F0.05158519744873047
sg826
F8.821487426757812e-05
sg827
I1
sg828
I40
sa(dp831
g824
I885
sg825
F0.031234025955200195
sg826
F8.392333984375e-05
sg827
I1
sg828
I39
sa(dp832
g824
I839
sg825
F0.43839406967163086
sg826
F0.0001049041748046875
sg827
I1
sg828
I38
sa(dp833
g824
I794
sg825
F0.068572998046875
sg826
F0.00016117095947265625
sg827
I1
sg828
I37
sa(dp834
g824
I750
sg825
F0.03618311882019043
sg826
F0.000102996826171875
sg827
I1
sg828
I36
sa(dp835
g824
I707
sg825
F0.07513999938964844
sg826
F0.0027680397033691406
sg827
I1
sg828
I35
sa(dp836
g824
I665
sg825
F0.03203892707824707
sg826
F8.487701416015625e-05
sg827
I1
sg828
I34
sa(dp837
g824
I378
sg825
F0.13613104820251465
sg826
F9.012222290039062e-05
sg827
I1
sg828
I33
sa(dp838
g824
I463
sg825
F0.02273702621459961
sg826
F7.200241088867188e-05
sg827
I1
sg828
I28
sa(dp839
g824
I427
sg825
F0.04874300956726074
sg826
F7.295608520507812e-05
sg827
I1
sg828
I27
sa(dp840
g824
I395
sg825
F0.027247905731201172
sg826
F6.699562072753906e-05
sg827
I1
sg828
I26
sa(dp841
g824
I364
sg825
F0.06055903434753418
sg826
F0.000102996826171875
sg827
I1
sg828
I25
sa(dp842
g824
I333
sg825
F0.029736042022705078
sg826
F6.699562072753906e-05
sg827
I1
sg828
I24
sa(dp843
g824
I243
sg825
F0.014842987060546875
sg826
F7.486343383789062e-05
sg827
I1
sg828
I23
sa(dp844
g824
I246
sg825
F0.03116011619567871
sg826
F7.176399230957031e-05
sg827
I1
sg828
I21
sa(dp845
g824
I219
sg825
F0.166823148727417
sg826
F7.200241088867188e-05
sg827
I1
sg828
I20
sa(dp846
g824
I197
sg825
F0.1585700511932373
sg826
F7.796287536621094e-05
sg827
I1
sg828
I19
sa(dp847
g824
I174
sg825
F0.0238649845123291
sg826
F6.771087646484375e-05
sg827
I1
sg828
I18
sa(dp848
g824
I152
sg825
F0.03436398506164551
sg826
F6.413459777832031e-05
sg827
I1
sg828
I17
sa(dp849
g824
I103
sg825
F0.016030073165893555
sg826
F5.698204040527344e-05
sg827
I1
sg828
I16
sa(dp850
g824
I99
sg825
F0.08370804786682129
sg826
F7.271766662597656e-05
sg827
I1
sg828
I14
sa(dp851
g824
I81
sg825
F0.020166873931884766
sg826
F5.793571472167969e-05
sg827
I1
sg828
I13
sa(dp852
g824
I68
sg825
F0.01437687873840332
sg826
F6.103515625e-05
sg827
I1
sg828
I12
sa(dp853
g824
I56
sg825
F0.01564311981201172
sg826
F5.698204040527344e-05
sg827
I1
sg828
I11
sasS'total_cqs'
p854
I51
ssI24
(dp855
S'iters'
p856
I206
sS'meta'
p857
(lp858
(dp859
S'objective'
p860
I1412082
sS'query_time'
p861
F1.3765020370483398
sS'comp_time'
p862
F0.0042302608489990234
sS'exec_cq'
p863
I1
sS'total_cq'
p864
I1711
sa(dp865
g860
I1290597
sg861
F1.2819650173187256
sg862
F0.0015139579772949219
sg863
I1
sg864
I1684
sa(dp866
g860
I1344171
sg861
F3.6745290756225586
sg862
F0.0017199516296386719
sg863
I1
sg864
I1598
sa(dp867
g860
I1277746
sg861
F0.9667041301727295
sg862
F0.0015518665313720703
sg863
I1
sg864
I1582
sa(dp868
g860
I1290464
sg861
F0.45928096771240234
sg862
F0.0014119148254394531
sg863
I1
sg864
I1536
sa(dp869
g860
I1206199
sg861
F0.8798179626464844
sg862
F0.007108926773071289
sg863
I1
sg864
I1520
sa(dp870
g860
I1218716
sg861
F3.202646017074585
sg862
F0.001425027847290039
sg863
I1
sg864
I1469
sa(dp871
g860
I987214
sg861
F1.103661060333252
sg862
F0.003016948699951172
sg863
I1
sg864
I1450
sa(dp872
g860
I1089115
sg861
F1.0221869945526123
sg862
F0.001361846923828125
sg863
I1
sg864
I1313
sa(dp873
g860
I1097139
sg861
F0.42528200149536133
sg862
F0.0012171268463134766
sg863
I1
sg864
I1301
sa(dp874
g860
I1072830
sg861
F0.42905402183532715
sg862
F0.0009579658508300781
sg863
I1
sg864
I1300
sa(dp875
g860
I842955
sg861
F0.7167379856109619
sg862
F0.0010769367218017578
sg863
I1
sg864
I1285
sa(dp876
g860
I942539
sg861
F0.5794219970703125
sg862
F0.0009031295776367188
sg863
I1
sg864
I1151
sa(dp877
g860
I923671
sg861
F0.5130219459533691
sg862
F0.0008618831634521484
sg863
I1
sg864
I1137
sa(dp878
g860
I843453
sg861
F0.5559608936309814
sg862
F0.001032114028930664
sg863
I1
sg864
I1116
sa(dp879
g860
I872879
sg861
F0.554311990737915
sg862
F0.001252889633178711
sg863
I1
sg864
I1056
sa(dp880
g860
I840999
sg861
F0.5551540851593018
sg862
F0.0012331008911132812
sg863
I1
sg864
I1042
sa(dp881
g860
I822122
sg861
F0.45354700088500977
sg862
F0.0014448165893554688
sg863
I1
sg864
I1018
sa(dp882
g860
I828817
sg861
F0.6377320289611816
sg862
F0.0011019706726074219
sg863
I1
sg864
I998
sa(dp883
g860
I831935
sg861
F0.37853193283081055
sg862
F0.0009090900421142578
sg863
I1
sg864
I991
sa(dp884
g860
I830251
sg861
F0.9704978466033936
sg862
F0.0012018680572509766
sg863
I1
sg864
I990
sa(dp885
g860
I739142
sg861
F0.5305368900299072
sg862
F0.001074075698852539
sg863
I1
sg864
I989
sa(dp886
g860
I720555
sg861
F0.46575307846069336
sg862
F0.0009777545928955078
sg863
I1
sg864
I938
sa(dp887
g860
I727237
sg861
F0.5474371910095215
sg862
F0.0009503364562988281
sg863
I1
sg864
I905
sa(dp888
g860
I714868
sg861
F0.3677809238433838
sg862
F0.0009009838104248047
sg863
I1
sg864
I890
sa(dp889
g860
I724151
sg861
F0.36368393898010254
sg862
F0.0007331371307373047
sg863
I1
sg864
I878
sa(dp890
g860
I722484
sg861
F0.7066957950592041
sg862
F0.0009300708770751953
sg863
I1
sg864
I877
sa(dp891
g860
I720816
sg861
F0.38869404792785645
sg862
F0.0009949207305908203
sg863
I1
sg864
I876
sa(dp892
g860
I715846
sg861
F0.911837100982666
sg862
F0.0010538101196289062
sg863
I1
sg864
I875
sa(dp893
g860
I592370
sg861
F0.5608561038970947
sg862
F0.0011413097381591797
sg863
I1
sg864
I873
sa(dp894
g860
I638314
sg861
F0.3507711887359619
sg862
F0.0009629726409912109
sg863
I1
sg864
I794
sa(dp895
g860
I565605
sg861
F0.39506101608276367
sg862
F0.0011951923370361328
sg863
I1
sg864
I784
sa(dp896
g860
I568767
sg861
F0.3798251152038574
sg862
F0.0008080005645751953
sg863
I2
sg864
I740
sa(dp897
g860
I552855
sg861
F0.32355403900146484
sg862
F0.0008490085601806641
sg863
I2
sg864
I716
sa(dp898
g860
I532334
sg861
F0.37216901779174805
sg862
F0.0009553432464599609
sg863
I2
sg864
I697
sa(dp899
g860
I525153
sg861
F1.0367472171783447
sg862
F0.0007879734039306641
sg863
I2
sg864
I677
sa(dp900
g860
I534922
sg861
F0.327639102935791
sg862
F0.0008471012115478516
sg863
I2
sg864
I663
sa(dp901
g860
I529008
sg861
F0.34784889221191406
sg862
F0.0016431808471679688
sg863
I2
sg864
I662
sa(dp902
g860
I510365
sg861
F0.37442493438720703
sg862
F0.0009369850158691406
sg863
I2
sg864
I658
sa(dp903
g860
I495694
sg861
F0.3032801151275635
sg862
F0.0008680820465087891
sg863
I2
sg864
I644
sa(dp904
g860
I502567
sg861
F0.5611670017242432
sg862
F0.0007719993591308594
sg863
I2
sg864
I628
sa(dp905
g860
I492009
sg861
F0.329509973526001
sg862
F0.0008051395416259766
sg863
I2
sg864
I626
sa(dp906
g860
I492727
sg861
F0.5970139503479004
sg862
F0.0008068084716796875
sg863
I2
sg864
I617
sa(dp907
g860
I485832
sg861
F0.2896909713745117
sg862
F0.0008730888366699219
sg863
I2
sg864
I615
sa(dp908
g860
I460137
sg861
F0.29431605339050293
sg862
F0.000820159912109375
sg863
I2
sg864
I611
sa(dp909
g860
I452398
sg861
F0.30487608909606934
sg862
F0.002857208251953125
sg863
I2
sg864
I595
sa(dp910
g860
I450547
sg861
F0.3275628089904785
sg862
F0.0007691383361816406
sg863
I2
sg864
I582
sa(dp911
g860
I421052
sg861
F0.27695298194885254
sg862
F0.0006349086761474609
sg863
I2
sg864
I576
sa(dp912
g860
I435944
sg861
F0.2483830451965332
sg862
F0.00049591064453125
sg863
I2
sg864
I554
sa(dp913
g860
I434345
sg861
F0.5615100860595703
sg862
F0.0015139579772949219
sg863
I2
sg864
I553
sa(dp914
g860
I338385
sg861
F0.2627558708190918
sg862
F0.0010209083557128906
sg863
I2
sg864
I552
sa(dp915
g860
I377083
sg861
F0.21392488479614258
sg862
F0.0006730556488037109
sg863
I2
sg864
I498
sa(dp916
g860
I375380
sg861
F0.22057509422302246
sg862
F0.0006017684936523438
sg863
I2
sg864
I492
sa(dp917
g860
I362882
sg861
F0.2172091007232666
sg862
F0.0013689994812011719
sg863
I2
sg864
I487
sa(dp918
g860
I342533
sg861
F0.2708170413970947
sg862
F0.0007069110870361328
sg863
I2
sg864
I475
sa(dp919
g860
I320825
sg861
F0.2146458625793457
sg862
F0.0006258487701416016
sg863
I2
sg864
I456
sa(dp920
g860
I332594
sg861
F0.28639698028564453
sg862
F0.0006189346313476562
sg863
I2
sg864
I432
sa(dp921
g860
I318262
sg861
F0.28551793098449707
sg862
F0.0005981922149658203
sg863
I2
sg864
I430
sa(dp922
g860
I317297
sg861
F0.1958470344543457
sg862
F0.0009138584136962891
sg863
I2
sg864
I418
sa(dp923
g860
I282930
sg861
F0.27040600776672363
sg862
F0.0005438327789306641
sg863
I2
sg864
I413
sa(dp924
g860
I296255
sg861
F0.1685340404510498
sg862
F0.00043010711669921875
sg863
I2
sg864
I387
sa(dp925
g860
I291715
sg861
F0.7193818092346191
sg862
F0.0004889965057373047
sg863
I2
sg864
I385
sa(dp926
g860
I283050
sg861
F0.15876412391662598
sg862
F0.0004930496215820312
sg863
I2
sg864
I382
sa(dp927
g860
I283262
sg861
F0.24876093864440918
sg862
F0.0005018711090087891
sg863
I2
sg864
I370
sa(dp928
g860
I263204
sg861
F0.1438429355621338
sg862
F0.0004589557647705078
sg863
I2
sg864
I368
sa(dp929
g860
I256501
sg861
F0.13056111335754395
sg862
F0.0004317760467529297
sg863
I2
sg864
I354
sa(dp930
g860
I262544
sg861
F0.3499879837036133
sg862
F0.00043702125549316406
sg863
I2
sg864
I342
sa(dp931
g860
I252655
sg861
F0.2480790615081787
sg862
F0.0004680156707763672
sg863
I2
sg864
I341
sa(dp932
g860
I247963
sg861
F0.1110079288482666
sg862
F0.00040793418884277344
sg863
I2
sg864
I334
sa(dp933
g860
I238448
sg861
F0.22089695930480957
sg862
F0.00039577484130859375
sg863
I2
sg864
I330
sa(dp934
g860
I242769
sg861
F0.30129098892211914
sg862
F0.0018999576568603516
sg863
I2
sg864
I320
sa(dp935
g860
I241268
sg861
F0.41748881340026855
sg862
F0.000514984130859375
sg863
I2
sg864
I319
sa(dp936
g860
I239760
sg861
F0.5711269378662109
sg862
F0.00040411949157714844
sg863
I2
sg864
I318
sa(dp937
g860
I219805
sg861
F0.13506698608398438
sg862
F0.0003979206085205078
sg863
I2
sg864
I317
sa(dp938
g860
I227563
sg861
F0.21122217178344727
sg862
F0.00040602684020996094
sg863
I3
sg864
I305
sa(dp939
g860
I214686
sg861
F0.11478495597839355
sg862
F0.0003490447998046875
sg863
I3
sg864
I304
sa(dp940
g860
I218922
sg861
F0.34983301162719727
sg862
F0.00037288665771484375
sg863
I3
sg864
I296
sa(dp941
g860
I217457
sg861
F0.11485099792480469
sg862
F0.0003769397735595703
sg863
I3
sg864
I295
sa(dp942
g860
I215994
sg861
F0.2741858959197998
sg862
F0.0007359981536865234
sg863
I3
sg864
I294
sa(dp943
g860
I214540
sg861
F0.12770605087280273
sg862
F0.00033783912658691406
sg863
I3
sg864
I293
sa(dp944
g860
I210650
sg861
F0.10352110862731934
sg862
F0.00038909912109375
sg863
I3
sg864
I292
sa(dp945
g860
I210449
sg861
F0.8685741424560547
sg862
F0.00047087669372558594
sg863
I3
sg864
I290
sa(dp946
g860
I209015
sg861
F0.1601419448852539
sg862
F0.0003552436828613281
sg863
I4
sg864
I289
sa(dp947
g860
I203047
sg861
F0.21248912811279297
sg862
F0.00033283233642578125
sg863
I4
sg864
I288
sa(dp948
g860
I203881
sg861
F0.18915796279907227
sg862
F0.0003879070281982422
sg863
I4
sg864
I285
sa(dp949
g860
I202457
sg861
F0.1839308738708496
sg862
F0.0003120899200439453
sg863
I4
sg864
I284
sa(dp950
g860
I197986
sg861
F0.1838090419769287
sg862
F0.00034499168395996094
sg863
I4
sg864
I283
sa(dp951
g860
I193460
sg861
F0.09580302238464355
sg862
F0.000308990478515625
sg863
I4
sg864
I280
sa(dp952
g860
I194362
sg861
F0.31089019775390625
sg862
F0.0003647804260253906
sg863
I4
sg864
I276
sa(dp953
g860
I192950
sg861
F0.1909651756286621
sg862
F0.00033402442932128906
sg863
I4
sg864
I275
sa(dp954
g860
I187397
sg861
F0.09569907188415527
sg862
F0.0002999305725097656
sg863
I4
sg864
I274
sa(dp955
g860
I188079
sg861
F0.18837594985961914
sg862
F0.0003440380096435547
sg863
I4
sg864
I271
sa(dp956
g860
I186680
sg861
F0.17894911766052246
sg862
F0.0002968311309814453
sg863
I4
sg864
I270
sa(dp957
g860
I185284
sg861
F0.3224499225616455
sg862
F0.0003600120544433594
sg863
I4
sg864
I269
sa(dp958
g860
I183890
sg861
F0.19390511512756348
sg862
F0.0003521442413330078
sg863
I4
sg864
I268
sa(dp959
g860
I165312
sg861
F0.6888349056243896
sg862
F0.00041604042053222656
sg863
I4
sg864
I267
sa(dp960
g860
I172521
sg861
F0.16343998908996582
sg862
F0.0005700588226318359
sg863
I4
sg864
I249
sa(dp961
g860
I171154
sg861
F0.2926948070526123
sg862
F0.0003609657287597656
sg863
I4
sg864
I248
sa(dp962
g860
I169784
sg861
F0.17538809776306152
sg862
F0.0003762245178222656
sg863
I4
sg864
I247
sa(dp963
g860
I161832
sg861
F0.09101009368896484
sg862
F0.0006089210510253906
sg863
I4
sg864
I246
sa(dp964
g860
I152731
sg861
F0.15716004371643066
sg862
F0.0003859996795654297
sg863
I4
sg864
I240
sa(dp965
g860
I145063
sg861
F0.09010696411132812
sg862
F0.00026679039001464844
sg863
I4
sg864
I228
sa(dp966
g860
I141240
sg861
F0.1523890495300293
sg862
F0.0003230571746826172
sg863
I4
sg864
I219
sa(dp967
g860
I143653
sg861
F0.10183906555175781
sg862
F0.0002899169921875
sg863
I4
sg864
I213
sa(dp968
g860
I142507
sg861
F0.14154601097106934
sg862
F0.0002448558807373047
sg863
I5
sg864
I211
sa(dp969
g860
I141174
sg861
F0.21913695335388184
sg862
F0.0002579689025878906
sg863
I6
sg864
I210
sa(dp970
g860
I137501
sg861
F0.12895488739013672
sg862
F0.00030303001403808594
sg863
I6
sg864
I209
sa(dp971
g860
I136250
sg861
F0.12159299850463867
sg862
F0.000244140625
sg863
I6
sg864
I207
sa(dp972
g860
I135458
sg861
F0.132781982421875
sg862
F0.0005240440368652344
sg863
I6
sg864
I205
sa(dp973
g860
I134132
sg861
F0.10603594779968262
sg862
F0.0002529621124267578
sg863
I6
sg864
I204
sa(dp974
g860
I131053
sg861
F0.0909280776977539
sg862
F0.00026607513427734375
sg863
I6
sg864
I203
sa(dp975
g860
I130358
sg861
F0.1265091896057129
sg862
F0.0002689361572265625
sg863
I6
sg864
I199
sa(dp976
g860
I125532
sg861
F0.11759209632873535
sg862
F0.0002269744873046875
sg863
I6
sg864
I197
sa(dp977
g860
I118204
sg861
F0.11129403114318848
sg862
F0.0003170967102050781
sg863
I6
sg864
I193
sa(dp978
g860
I116137
sg861
F0.08058500289916992
sg862
F0.0002319812774658203
sg863
I6
sg864
I186
sa(dp979
g860
I117235
sg861
F0.07303285598754883
sg862
F0.0002040863037109375
sg863
I6
sg864
I181
sa(dp980
g860
I115973
sg861
F0.19530105590820312
sg862
F0.00022721290588378906
sg863
I6
sg864
I180
sa(dp981
g860
I109326
sg861
F0.0872809886932373
sg862
F0.00038313865661621094
sg863
I6
sg864
I179
sa(dp982
g860
I110782
sg861
F0.0790560245513916
sg862
F0.0002579689025878906
sg863
I6
sg864
I174
sa(dp983
g860
I109533
sg861
F0.34923386573791504
sg862
F0.0008890628814697266
sg863
I6
sg864
I173
sa(dp984
g860
I103349
sg861
F0.0778970718383789
sg862
F0.0002110004425048828
sg863
I6
sg864
I172
sa(dp985
g860
I104586
sg861
F0.10973191261291504
sg862
F0.00029969215393066406
sg863
I6
sg864
I168
sa(dp986
g860
I100668
sg861
F0.13907599449157715
sg862
F0.000286102294921875
sg863
I6
sg864
I167
sa(dp987
g860
I94303
sg861
F0.3668060302734375
sg862
F0.0002772808074951172
sg863
I6
sg864
I164
sa(dp988
g860
I92799
sg861
F0.1174170970916748
sg862
F0.00022101402282714844
sg863
I6
sg864
I158
sa(dp989
g860
I93391
sg861
F0.14458084106445312
sg862
F0.0002627372741699219
sg863
I6
sg864
I154
sa(dp990
g860
I91257
sg861
F0.10883092880249023
sg862
F0.00021386146545410156
sg863
I6
sg864
I153
sa(dp991
g860
I90557
sg861
F0.09047508239746094
sg862
F0.0002231597900390625
sg863
I6
sg864
I151
sa(dp992
g860
I89390
sg861
F0.07173705101013184
sg862
F0.0002079010009765625
sg863
I6
sg864
I150
sa(dp993
g860
I88219
sg861
F0.08964705467224121
sg862
F0.000186920166015625
sg863
I6
sg864
I149
sa(dp994
g860
I87050
sg861
F0.17470884323120117
sg862
F0.0002777576446533203
sg863
I6
sg864
I148
sa(dp995
g860
I85437
sg861
F0.06589508056640625
sg862
F0.00023818016052246094
sg863
I6
sg864
I147
sa(dp996
g860
I84493
sg861
F0.11792492866516113
sg862
F0.00022101402282714844
sg863
I6
sg864
I145
sa(dp997
g860
I83359
sg861
F0.09176301956176758
sg862
F0.000225067138671875
sg863
I6
sg864
I144
sa(dp998
g860
I82252
sg861
F0.48363685607910156
sg862
F0.00020194053649902344
sg863
I6
sg864
I143
sa(dp999
g860
I81163
sg861
F0.8376789093017578
sg862
F0.00020694732666015625
sg863
I6
sg864
I142
sa(dp1000
g860
I80074
sg861
F0.1008000373840332
sg862
F0.0003039836883544922
sg863
I6
sg864
I141
sa(dp1001
g860
I78995
sg861
F0.16922521591186523
sg862
F0.0002117156982421875
sg863
I6
sg864
I140
sa(dp1002
g860
I76546
sg861
F0.06300187110900879
sg862
F0.00020623207092285156
sg863
I6
sg864
I139
sa(dp1003
g860
I76171
sg861
F0.09305191040039062
sg862
F0.00017499923706054688
sg863
I6
sg864
I136
sa(dp1004
g860
I75103
sg861
F0.15829181671142578
sg862
F0.00023484230041503906
sg863
I6
sg864
I135
sa(dp1005
g860
I74043
sg861
F0.11866092681884766
sg862
F0.0001728534698486328
sg863
I6
sg864
I134
sa(dp1006
g860
I70130
sg861
F0.06471395492553711
sg862
F0.0001728534698486328
sg863
I6
sg864
I133
sa(dp1007
g860
I70549
sg861
F0.14943909645080566
sg862
F0.00024271011352539062
sg863
I6
sg864
I129
sa(dp1008
g860
I67764
sg861
F0.0773460865020752
sg862
F0.00019407272338867188
sg863
I6
sg864
I128
sa(dp1009
g860
I67614
sg861
F0.14224505424499512
sg862
F0.0001800060272216797
sg863
I6
sg864
I126
sa(dp1010
g860
I66588
sg861
F0.07838177680969238
sg862
F0.00018286705017089844
sg863
I6
sg864
I125
sa(dp1011
g860
I65564
sg861
F0.14517498016357422
sg862
F0.00017380714416503906
sg863
I6
sg864
I124
sa(dp1012
g860
I64576
sg861
F0.35323500633239746
sg862
F0.00020813941955566406
sg863
I6
sg864
I123
sa(dp1013
g860
I63577
sg861
F0.08027291297912598
sg862
F0.00018095970153808594
sg863
I6
sg864
I122
sa(dp1014
g860
I62576
sg861
F0.15043902397155762
sg862
F0.00019669532775878906
sg863
I6
sg864
I121
sa(dp1015
g860
I61598
sg861
F0.10022616386413574
sg862
F0.0004591941833496094
sg863
I6
sg864
I120
sa(dp1016
g860
I54956
sg861
F0.10912799835205078
sg862
F0.00020194053649902344
sg863
I6
sg864
I119
sa(dp1017
g860
I56852
sg861
F0.11072993278503418
sg862
F0.00015616416931152344
sg863
I6
sg864
I113
sa(dp1018
g860
I55908
sg861
F0.05388903617858887
sg862
F0.0002009868621826172
sg863
I6
sg864
I112
sa(dp1019
g860
I55034
sg861
F0.07589912414550781
sg862
F0.0001499652862548828
sg863
I6
sg864
I111
sa(dp1020
g860
I54159
sg861
F0.07149100303649902
sg862
F0.0001461505889892578
sg863
I6
sg864
I110
sa(dp1021
g860
I53267
sg861
F0.07416605949401855
sg862
F0.00014519691467285156
sg863
I6
sg864
I109
sa(dp1022
g860
I51058
sg861
F0.056371212005615234
sg862
F0.00014901161193847656
sg863
I6
sg864
I108
sa(dp1023
g860
I49917
sg861
F0.11049389839172363
sg862
F0.00016880035400390625
sg863
I6
sg864
I105
sa(dp1024
g860
I46627
sg861
F0.05402708053588867
sg862
F0.0005459785461425781
sg863
I6
sg864
I103
sa(dp1025
g860
I47195
sg861
F0.07079815864562988
sg862
F0.000164031982421875
sg863
I6
sg864
I99
sa(dp1026
g860
I46348
sg861
F0.07634902000427246
sg862
F0.0001480579376220703
sg863
I6
sg864
I98
sa(dp1027
g860
I45493
sg861
F0.2882249355316162
sg862
F0.00019812583923339844
sg863
I6
sg864
I97
sa(dp1028
g860
I44683
sg861
F0.40749502182006836
sg862
F0.00016069412231445312
sg863
I6
sg864
I96
sa(dp1029
g860
I43863
sg861
F0.06293416023254395
sg862
F0.00015687942504882812
sg863
I6
sg864
I95
sa(dp1030
g860
I43078
sg861
F0.10306692123413086
sg862
F0.00016570091247558594
sg863
I6
sg864
I94
sa(dp1031
g860
I42290
sg861
F0.06649899482727051
sg862
F0.0002009868621826172
sg863
I6
sg864
I93
sa(dp1032
g860
I41509
sg861
F0.0634000301361084
sg862
F0.0001621246337890625
sg863
I6
sg864
I92
sa(dp1033
g860
I40730
sg861
F0.060523033142089844
sg862
F0.00013399124145507812
sg863
I6
sg864
I91
sa(dp1034
g860
I39990
sg861
F0.07416296005249023
sg862
F0.0001342296600341797
sg863
I6
sg864
I90
sa(dp1035
g860
I39238
sg861
F0.08930802345275879
sg862
F0.00013494491577148438
sg863
I6
sg864
I89
sa(dp1036
g860
I36993
sg861
F0.05734586715698242
sg862
F0.00013303756713867188
sg863
I6
sg864
I88
sa(dp1037
g860
I37020
sg861
F0.09416699409484863
sg862
F0.00015616416931152344
sg863
I6
sg864
I85
sa(dp1038
g860
I36285
sg861
F0.05556797981262207
sg862
F0.00012183189392089844
sg863
I6
sg864
I84
sa(dp1039
g860
I35555
sg861
F0.039285898208618164
sg862
F0.00012087821960449219
sg863
I6
sg864
I83
sa(dp1040
g860
I34842
sg861
F0.06575798988342285
sg862
F0.00012302398681640625
sg863
I7
sg864
I82
sa(dp1041
g860
I34147
sg861
F0.058619022369384766
sg862
F0.00014209747314453125
sg863
I7
sg864
I81
sa(dp1042
g860
I33446
sg861
F0.05877399444580078
sg862
F0.0001361370086669922
sg863
I7
sg864
I80
sa(dp1043
g860
I32799
sg861
F0.055397987365722656
sg862
F0.00011491775512695312
sg863
I7
sg864
I79
sa(dp1044
g860
I32137
sg861
F0.06745290756225586
sg862
F0.00016999244689941406
sg863
I7
sg864
I78
sa(dp1045
g860
I31478
sg861
F0.09287405014038086
sg862
F0.00015115737915039062
sg863
I7
sg864
I77
sa(dp1046
g860
I30852
sg861
F0.04675793647766113
sg862
F0.0001342296600341797
sg863
I7
sg864
I76
sa(dp1047
g860
I30211
sg861
F0.06070399284362793
sg862
F0.00011014938354492188
sg863
I7
sg864
I75
sa(dp1048
g860
I29584
sg861
F0.13006210327148438
sg862
F0.0001499652862548828
sg863
I7
sg864
I74
sa(dp1049
g860
I28957
sg861
F0.05202198028564453
sg862
F0.00013113021850585938
sg863
I7
sg864
I73
sa(dp1050
g860
I28370
sg861
F0.03869318962097168
sg862
F0.0003428459167480469
sg863
I7
sg864
I72
sa(dp1051
g860
I27767
sg861
F0.07833194732666016
sg862
F0.00013303756713867188
sg863
I7
sg864
I71
sa(dp1052
g860
I27167
sg861
F0.03848886489868164
sg862
F0.0001690387725830078
sg863
I7
sg864
I70
sa(dp1053
g860
I26566
sg861
F0.04310798645019531
sg862
F0.00014400482177734375
sg863
I7
sg864
I69
sa(dp1054
g860
I25990
sg861
F0.06030988693237305
sg862
F0.00014400482177734375
sg863
I7
sg864
I68
sa(dp1055
g860
I25423
sg861
F0.039758920669555664
sg862
F0.00012493133544921875
sg863
I7
sg864
I67
sa(dp1056
g860
I24881
sg861
F0.26794886589050293
sg862
F0.00012612342834472656
sg863
I7
sg864
I66
sa(dp1057
g860
I24331
sg861
F0.03567099571228027
sg862
F0.0004420280456542969
sg863
I7
sg864
I65
sa(dp1058
g860
I23794
sg861
F0.054776906967163086
sg862
F0.0003609657287597656
sg863
I7
sg864
I64
sa(dp1059
g860
I23262
sg861
F0.037566184997558594
sg862
F0.00010704994201660156
sg863
I7
sg864
I63
sa(dp1060
g860
I22729
sg861
F0.03970003128051758
sg862
F0.00012230873107910156
sg863
I7
sg864
I62
sa(dp1061
g860
I22201
sg861
F0.040183067321777344
sg862
F0.00014090538024902344
sg863
I7
sg864
I61
sa(dp1062
g860
I21687
sg861
F0.07370519638061523
sg862
F0.000209808349609375
sg863
I7
sg864
I60
sa(dp1063
g860
I17486
sg861
F0.11400985717773438
sg862
F0.0001220703125
sg863
I7
sg864
I59
sa(dp1064
g860
I18862
sg861
F0.0635840892791748
sg862
F0.00011301040649414062
sg863
I7
sg864
I52
sa(dp1065
g860
I18373
sg861
F0.027018070220947266
sg862
F0.00010991096496582031
sg863
I7
sg864
I51
sa(dp1066
g860
I17900
sg861
F0.11342501640319824
sg862
F0.00011610984802246094
sg863
I7
sg864
I50
sa(dp1067
g860
I17462
sg861
F0.0351099967956543
sg862
F0.00010991096496582031
sg863
I7
sg864
I49
sa(dp1068
g860
I17030
sg861
F0.33155012130737305
sg862
F0.0001201629638671875
sg863
I7
sg864
I48
sa(dp1069
g860
I16618
sg861
F0.3169429302215576
sg862
F0.00011277198791503906
sg863
I7
sg864
I47
sasS'total_cqs'
p1070
I1711
ssI25
(dp1071
S'iters'
p1072
I36
sS'meta'
p1073
(lp1074
(dp1075
S'objective'
p1076
I6327
sS'query_time'
p1077
F0.12111306190490723
sS'comp_time'
p1078
F0.00015020370483398438
sS'exec_cq'
p1079
I1
sS'total_cq'
p1080
I114
sa(dp1081
g1076
I6215
sg1077
F0.20075678825378418
sg1078
F0.00017189979553222656
sg1079
I1
sg1080
I113
sa(dp1082
g1076
I5842
sg1077
F0.14566397666931152
sg1078
F0.0001628398895263672
sg1079
I1
sg1080
I112
sa(dp1083
g1076
I5863
sg1077
F1.8705120086669922
sg1078
F0.0004951953887939453
sg1079
I1
sg1080
I109
sa(dp1084
g1076
I5754
sg1077
F0.24600601196289062
sg1078
F0.00018286705017089844
sg1079
I1
sg1080
I108
sa(dp1085
g1076
I5470
sg1077
F0.13266301155090332
sg1078
F0.00015306472778320312
sg1079
I1
sg1080
I107
sa(dp1086
g1076
I5405
sg1077
F0.10574102401733398
sg1078
F0.0001590251922607422
sg1079
I1
sg1080
I105
sa(dp1087
g1076
I2854
sg1077
F0.8027119636535645
sg1078
F0.00017714500427246094
sg1079
I1
sg1080
I103
sa(dp1088
g1076
I3961
sg1077
F0.12730908393859863
sg1078
F0.00014495849609375
sg1079
I1
sg1080
I78
sa(dp1089
g1076
I3778
sg1077
F0.2706022262573242
sg1078
F0.0001888275146484375
sg1079
I1
sg1080
I76
sa(dp1090
g1076
I3724
sg1077
F0.2264389991760254
sg1078
F0.00012302398681640625
sg1079
I1
sg1080
I74
sa(dp1091
g1076
I3624
sg1077
F0.217026948928833
sg1078
F0.00020694732666015625
sg1079
I1
sg1080
I73
sa(dp1092
g1076
I3531
sg1077
F0.22891902923583984
sg1078
F0.00012803077697753906
sg1079
I1
sg1080
I72
sa(dp1093
g1076
I3348
sg1077
F0.20887303352355957
sg1078
F0.0001678466796875
sg1079
I1
sg1080
I71
sa(dp1094
g1076
I3298
sg1077
F0.12323808670043945
sg1078
F0.00011587142944335938
sg1079
I1
sg1080
I69
sa(dp1095
g1076
I3157
sg1077
F0.26840710639953613
sg1078
F0.00011396408081054688
sg1079
I1
sg1080
I68
sa(dp1096
g1076
I2877
sg1077
F1.79646897315979
sg1078
F0.00018215179443359375
sg1079
I1
sg1080
I66
sa(dp1097
g1076
I2892
sg1077
F0.5587918758392334
sg1078
F0.00013017654418945312
sg1079
I1
sg1080
I63
sa(dp1098
g1076
I2802
sg1077
F0.6823968887329102
sg1078
F0.00014495849609375
sg1079
I1
sg1080
I62
sa(dp1099
g1076
I2683
sg1077
F0.2014009952545166
sg1078
F0.00012993812561035156
sg1079
I1
sg1080
I61
sa(dp1100
g1076
I2610
sg1077
F0.706496000289917
sg1078
F0.0001609325408935547
sg1079
I1
sg1080
I59
sa(dp1101
g1076
I2425
sg1077
F0.9123580455780029
sg1078
F0.00012683868408203125
sg1079
I1
sg1080
I58
sa(dp1102
g1076
I2392
sg1077
F0.1848459243774414
sg1078
F0.00010204315185546875
sg1079
I1
sg1080
I56
sa(dp1103
g1076
I2089
sg1077
F0.19464683532714844
sg1078
F0.00011396408081054688
sg1079
I1
sg1080
I55
sa(dp1104
g1076
I2045
sg1077
F0.21092987060546875
sg1078
F0.00010204315185546875
sg1079
I1
sg1080
I51
sa(dp1105
g1076
I1918
sg1077
F0.6443789005279541
sg1078
F9.512901306152344e-05
sg1079
I1
sg1080
I49
sa(dp1106
g1076
I1879
sg1077
F0.10047388076782227
sg1078
F0.00011992454528808594
sg1079
I1
sg1080
I47
sa(dp1107
g1076
I1802
sg1077
F7.474653005599976
sg1078
F0.00010704994201660156
sg1079
I1
sg1080
I46
sa(dp1108
g1076
I1725
sg1077
F0.09365701675415039
sg1078
F8.392333984375e-05
sg1079
I1
sg1080
I45
sa(dp1109
g1076
I1649
sg1077
F0.19240307807922363
sg1078
F9.393692016601562e-05
sg1079
I1
sg1080
I44
sa(dp1110
g1076
I1424
sg1077
F0.07746195793151855
sg1078
F0.000102996826171875
sg1079
I1
sg1080
I43
sa(dp1111
g1076
I1307
sg1077
F0.05681800842285156
sg1078
F9.989738464355469e-05
sg1079
I1
sg1080
I41
sa(dp1112
g1076
I1281
sg1077
F0.14789509773254395
sg1078
F0.0001010894775390625
sg1079
I1
sg1080
I37
sa(dp1113
g1076
I1219
sg1077
F0.07817888259887695
sg1078
F7.700920104980469e-05
sg1079
I1
sg1080
I35
sa(dp1114
g1076
I1092
sg1077
F0.14558196067810059
sg1078
F7.82012939453125e-05
sg1079
I1
sg1080
I34
sa(dp1115
g1076
I39
sg1077
F0.004230976104736328
sg1078
F4.8160552978515625e-05
sg1079
I1
sg1080
I2
sasS'total_cqs'
p1116
I114
ssI26
(dp1117
S'iters'
p1118
I7
sS'meta'
p1119
(lp1120
(dp1121
S'objective'
p1122
I54
sS'query_time'
p1123
F2.1797549724578857
sS'comp_time'
p1124
F0.0002980232238769531
sS'exec_cq'
p1125
I1
sS'total_cq'
p1126
I12
sa(dp1127
g1122
I4
sg1123
F0.1515798568725586
sg1124
F6.914138793945312e-05
sg1125
I1
sg1126
I11
sa(dp1128
g1122
I17
sg1123
F0.02064800262451172
sg1124
F5.4836273193359375e-05
sg1125
I1
sg1126
I6
sa(dp1129
g1122
I10
sg1123
F0.0847618579864502
sg1124
F5.793571472167969e-05
sg1125
I1
sg1126
I5
sa(dp1130
g1122
I6
sg1123
F0.17013096809387207
sg1124
F6.508827209472656e-05
sg1125
I1
sg1126
I4
sa(dp1131
g1122
I2
sg1123
F0.0823969841003418
sg1124
F5.507469177246094e-05
sg1125
I1
sg1126
I3
sa(dp1132
g1122
I1
sg1123
F0.014733076095581055
sg1124
F5.602836608886719e-05
sg1125
I1
sg1126
I2
sasS'total_cqs'
p1133
I12
ssI27
(dp1134
S'iters'
p1135
I1
sS'meta'
p1136
(lp1137
(dp1138
S'objective'
p1139
I1
sS'query_time'
p1140
F0.09421610832214355
sS'comp_time'
p1141
F6.580352783203125e-05
sS'exec_cq'
p1142
I1
sS'total_cq'
p1143
I2
sasS'total_cqs'
p1144
I2
ssI28
(dp1145
S'iters'
p1146
I0
sS'meta'
p1147
(lp1148
sS'total_cqs'
p1149
I1
ssI29
(dp1150
S'iters'
p1151
I69
sS'meta'
p1152
(lp1153
(dp1154
S'objective'
p1155
I8645
sS'query_time'
p1156
F0.5057229995727539
sS'comp_time'
p1157
F0.00017404556274414062
sS'exec_cq'
p1158
I1
sS'total_cq'
p1159
I133
sa(dp1160
g1155
I8514
sg1156
F7.221089839935303
sg1157
F0.0003857612609863281
sg1158
I1
sg1159
I132
sa(dp1161
g1155
I6528
sg1156
F0.7846360206604004
sg1157
F0.00020694732666015625
sg1158
I1
sg1159
I131
sa(dp1162
g1155
I7329
sg1156
F0.3457808494567871
sg1157
F0.00020813941955566406
sg1158
I1
sg1159
I117
sa(dp1163
g1155
I6746
sg1156
F0.99776291847229
sg1157
F0.000263214111328125
sg1158
I1
sg1159
I116
sa(dp1164
g1155
I6848
sg1156
F0.06077098846435547
sg1157
F0.00020241737365722656
sg1158
I1
sg1159
I113
sa(dp1165
g1155
I6723
sg1156
F0.34712886810302734
sg1157
F0.0001499652862548828
sg1158
I1
sg1159
I112
sa(dp1166
g1155
I6599
sg1156
F0.5163540840148926
sg1157
F0.00025773048400878906
sg1158
I1
sg1159
I111
sa(dp1167
g1155
I6272
sg1156
F0.7139251232147217
sg1157
F0.00016427040100097656
sg1158
I1
sg1159
I110
sa(dp1168
g1155
I6106
sg1156
F0.6766390800476074
sg1157
F0.0002319812774658203
sg1158
I1
sg1159
I108
sa(dp1169
g1155
I4772
sg1156
F0.1018819808959961
sg1157
F0.00016379356384277344
sg1158
I1
sg1159
I105
sa(dp1170
g1155
I5295
sg1156
F0.08622908592224121
sg1157
F0.00013971328735351562
sg1158
I1
sg1159
I94
sa(dp1171
g1155
I5178
sg1156
F0.17331814765930176
sg1157
F0.00018596649169921875
sg1158
I1
sg1159
I93
sa(dp1172
g1155
I5063
sg1156
F0.1059730052947998
sg1157
F0.0001552104949951172
sg1158
I1
sg1159
I92
sa(dp1173
g1155
I4262
sg1156
F0.40303587913513184
sg1157
F0.00015497207641601562
sg1158
I1
sg1159
I91
sa(dp1174
g1155
I4497
sg1156
F0.25122809410095215
sg1157
F0.00012803077697753906
sg1158
I1
sg1159
I84
sa(dp1175
g1155
I4387
sg1156
F0.04681587219238281
sg1157
F0.00011992454528808594
sg1158
I1
sg1159
I83
sa(dp1176
g1155
I4018
sg1156
F0.12723517417907715
sg1157
F0.00017309188842773438
sg1158
I1
sg1159
I82
sa(dp1177
g1155
I4040
sg1156
F0.28754496574401855
sg1157
F0.0001289844512939453
sg1158
I1
sg1159
I78
sa(dp1178
g1155
I3933
sg1156
F0.044528961181640625
sg1157
F0.00010514259338378906
sg1158
I1
sg1159
I77
sa(dp1179
g1155
I3827
sg1156
F5.4946348667144775
sg1157
F0.00037598609924316406
sg1158
I1
sg1159
I76
sa(dp1180
g1155
I3722
sg1156
F0.16974902153015137
sg1157
F9.894371032714844e-05
sg1158
I1
sg1159
I75
sa(dp1181
g1155
I3618
sg1156
F0.648690938949585
sg1157
F0.00013303756713867188
sg1158
I1
sg1159
I74
sa(dp1182
g1155
I3523
sg1156
F2.702014923095703
sg1157
F0.00016307830810546875
sg1158
I1
sg1159
I73
sa(dp1183
g1155
I3425
sg1156
F0.5105319023132324
sg1157
F9.703636169433594e-05
sg1158
I1
sg1159
I72
sa(dp1184
g1155
I3330
sg1156
F0.06607198715209961
sg1157
F9.799003601074219e-05
sg1158
I1
sg1159
I71
sa(dp1185
g1155
I3237
sg1156
F0.5773961544036865
sg1157
F0.0001399517059326172
sg1158
I1
sg1159
I70
sa(dp1186
g1155
I3144
sg1156
F0.0669100284576416
sg1157
F0.0001430511474609375
sg1158
I1
sg1159
I69
sa(dp1187
g1155
I3052
sg1156
F0.1368880271911621
sg1157
F0.00014591217041015625
sg1158
I1
sg1159
I68
sa(dp1188
g1155
I2961
sg1156
F0.6665160655975342
sg1157
F0.00011587142944335938
sg1158
I1
sg1159
I67
sa(dp1189
g1155
I2831
sg1156
F0.056878089904785156
sg1157
F0.00011777877807617188
sg1158
I1
sg1159
I66
sa(dp1190
g1155
I2764
sg1156
F0.06580114364624023
sg1157
F0.00013399124145507812
sg1158
I1
sg1159
I64
sa(dp1191
g1155
I2313
sg1156
F0.38051700592041016
sg1157
F0.00011897087097167969
sg1158
I1
sg1159
I63
sa(dp1192
g1155
I2411
sg1156
F0.04008197784423828
sg1157
F0.00010704994201660156
sg1158
I1
sg1159
I58
sa(dp1193
g1155
I2327
sg1156
F2.572762966156006
sg1157
F9.608268737792969e-05
sg1158
I1
sg1159
I57
sa(dp1194
g1155
I2246
sg1156
F0.05139493942260742
sg1157
F8.797645568847656e-05
sg1158
I1
sg1159
I56
sa(dp1195
g1155
I2167
sg1156
F0.0776970386505127
sg1157
F0.00013494491577148438
sg1158
I1
sg1159
I55
sa(dp1196
g1155
I2088
sg1156
F0.8948290348052979
sg1157
F0.00012302398681640625
sg1158
I1
sg1159
I54
sa(dp1197
g1155
I2002
sg1156
F0.3955988883972168
sg1157
F0.00011587142944335938
sg1158
I1
sg1159
I53
sa(dp1198
g1155
I1931
sg1156
F0.38618016242980957
sg1157
F0.00015997886657714844
sg1158
I1
sg1159
I51
sa(dp1199
g1155
I1856
sg1156
F1.339054822921753
sg1157
F0.00017881393432617188
sg1158
I1
sg1159
I50
sa(dp1200
g1155
I1782
sg1156
F0.03975987434387207
sg1157
F0.00014019012451171875
sg1158
I1
sg1159
I49
sa(dp1201
g1155
I1711
sg1156
F0.5716409683227539
sg1157
F0.00011706352233886719
sg1158
I1
sg1159
I48
sa(dp1202
g1155
I1322
sg1156
F0.2709481716156006
sg1157
F0.00013709068298339844
sg1158
I1
sg1159
I47
sa(dp1203
g1155
I1413
sg1156
F0.3612630367279053
sg1157
F0.00011706352233886719
sg1158
I1
sg1159
I42
sa(dp1204
g1155
I1345
sg1156
F0.22600102424621582
sg1157
F0.00013113021850585938
sg1158
I1
sg1159
I41
sa(dp1205
g1155
I1286
sg1156
F0.03725600242614746
sg1157
F9.989738464355469e-05
sg1158
I1
sg1159
I40
sa(dp1206
g1155
I1224
sg1156
F0.4892101287841797
sg1157
F0.00010895729064941406
sg1158
I1
sg1159
I39
sa(dp1207
g1155
I1163
sg1156
F0.8350579738616943
sg1157
F0.0001499652862548828
sg1158
I1
sg1159
I38
sa(dp1208
g1155
I1111
sg1156
F0.30626988410949707
sg1157
F9.894371032714844e-05
sg1158
I1
sg1159
I37
sa(dp1209
g1155
I1058
sg1156
F0.298724889755249
sg1157
F0.0001437664031982422
sg1158
I1
sg1159
I36
sa(dp1210
g1155
I1005
sg1156
F0.034644126892089844
sg1157
F0.00010895729064941406
sg1158
I1
sg1159
I35
sa(dp1211
g1155
I953
sg1156
F0.030369997024536133
sg1157
F9.202957153320312e-05
sg1158
I1
sg1159
I34
sa(dp1212
g1155
I902
sg1156
F0.6203300952911377
sg1157
F0.0001010894775390625
sg1158
I1
sg1159
I33
sa(dp1213
g1155
I852
sg1156
F0.034379005432128906
sg1157
F7.796287536621094e-05
sg1158
I1
sg1159
I32
sa(dp1214
g1155
I803
sg1156
F0.4740750789642334
sg1157
F0.00011014938354492188
sg1158
I1
sg1159
I31
sa(dp1215
g1155
I755
sg1156
F0.12111091613769531
sg1157
F6.508827209472656e-05
sg1158
I1
sg1159
I30
sa(dp1216
g1155
I708
sg1156
F0.29936814308166504
sg1157
F9.822845458984375e-05
sg1158
I1
sg1159
I29
sa(dp1217
g1155
I662
sg1156
F0.023919105529785156
sg1157
F5.602836608886719e-05
sg1158
I1
sg1159
I28
sa(dp1218
g1155
I581
sg1156
F0.3090047836303711
sg1157
F6.175041198730469e-05
sg1158
I1
sg1159
I27
sa(dp1219
g1155
I555
sg1156
F0.0352630615234375
sg1157
F7.510185241699219e-05
sg1158
I1
sg1159
I25
sa(dp1220
g1155
I500
sg1156
F0.2857050895690918
sg1157
F5.817413330078125e-05
sg1158
I1
sg1159
I24
sa(dp1221
g1155
I464
sg1156
F0.2916300296783447
sg1157
F0.00010013580322265625
sg1158
I1
sg1159
I22
sa(dp1222
g1155
I425
sg1156
F0.31871604919433594
sg1157
F7.390975952148438e-05
sg1158
I1
sg1159
I21
sa(dp1223
g1155
I386
sg1156
F0.046875953674316406
sg1157
F6.985664367675781e-05
sg1158
I1
sg1159
I20
sa(dp1224
g1155
I348
sg1156
F0.025075912475585938
sg1157
F6.604194641113281e-05
sg1158
I1
sg1159
I19
sa(dp1225
g1155
I311
sg1156
F0.5760979652404785
sg1157
F9.417533874511719e-05
sg1158
I1
sg1159
I18
sa(dp1226
g1155
I183
sg1156
F0.2821810245513916
sg1157
F9.703636169433594e-05
sg1158
I1
sg1159
I17
sa(dp1227
g1155
I196
sg1156
F0.28595781326293945
sg1157
F6.794929504394531e-05
sg1158
I1
sg1159
I14
sasS'total_cqs'
p1228
I133
ssI30
(dp1229
S'iters'
p1230
I48
sS'meta'
p1231
(lp1232
(dp1233
S'objective'
p1234
I8127
sS'query_time'
p1235
F0.2690098285675049
sS'comp_time'
p1236
F0.00015997886657714844
sS'exec_cq'
p1237
I1
sS'total_cq'
p1238
I129
sa(dp1239
g1234
I7018
sg1235
F0.14138507843017578
sg1236
F0.00016999244689941406
sg1237
I1
sg1238
I128
sa(dp1240
g1234
I7379
sg1235
F0.23422789573669434
sg1236
F0.0001571178436279297
sg1237
I1
sg1238
I122
sa(dp1241
g1234
I5596
sg1235
F0.0732109546661377
sg1236
F0.000164031982421875
sg1237
I1
sg1238
I120
sa(dp1242
g1234
I6304
sg1235
F0.2344040870666504
sg1236
F0.00014090538024902344
sg1237
I1
sg1238
I107
sa(dp1243
g1234
I5938
sg1235
F0.32231807708740234
sg1236
F0.0001850128173828125
sg1237
I1
sg1238
I106
sa(dp1244
g1234
I5815
sg1235
F0.27170300483703613
sg1236
F0.0004940032958984375
sg1237
I1
sg1238
I104
sa(dp1245
g1234
I5763
sg1235
F0.06868290901184082
sg1236
F0.0001647472381591797
sg1237
I1
sg1238
I102
sa(dp1246
g1234
I2943
sg1235
F0.12105107307434082
sg1236
F0.00017905235290527344
sg1237
I1
sg1238
I101
sa(dp1247
g1234
I4180
sg1235
F8.020730972290039
sg1236
F0.0001518726348876953
sg1237
I1
sg1238
I74
sa(dp1248
g1234
I4068
sg1235
F0.20943713188171387
sg1236
F0.00010776519775390625
sg1237
I1
sg1238
I73
sa(dp1249
g1234
I3870
sg1235
F3.3579108715057373
sg1236
F0.00014591217041015625
sg1237
I1
sg1238
I72
sa(dp1250
g1234
I3624
sg1235
F0.06453609466552734
sg1236
F0.0001251697540283203
sg1237
I1
sg1238
I70
sa(dp1251
g1234
I3437
sg1235
F0.20317411422729492
sg1236
F0.00010800361633300781
sg1237
I1
sg1238
I68
sa(dp1252
g1234
I3415
sg1235
F0.04100298881530762
sg1236
F0.00011587142944335938
sg1237
I1
sg1238
I66
sa(dp1253
g1234
I3129
sg1235
F0.504187822341919
sg1236
F0.0001468658447265625
sg1237
I1
sg1238
I64
sa(dp1254
g1234
I3118
sg1235
F0.11722397804260254
sg1236
F0.0001423358917236328
sg1237
I1
sg1238
I62
sa(dp1255
g1234
I2706
sg1235
F0.042109012603759766
sg1236
F0.0001163482666015625
sg1237
I1
sg1238
I61
sa(dp1256
g1234
I2762
sg1235
F0.059703826904296875
sg1236
F0.00012803077697753906
sg1237
I1
sg1238
I57
sa(dp1257
g1234
I2663
sg1235
F0.05736899375915527
sg1236
F9.107589721679688e-05
sg1237
I1
sg1238
I56
sa(dp1258
g1234
I2457
sg1235
F0.11979198455810547
sg1236
F8.606910705566406e-05
sg1237
I1
sg1238
I55
sa(dp1259
g1234
I2418
sg1235
F0.16646695137023926
sg1236
F9.512901306152344e-05
sg1237
I1
sg1238
I53
sa(dp1260
g1234
I2232
sg1235
F0.2010500431060791
sg1236
F0.00010585784912109375
sg1237
I1
sg1238
I52
sa(dp1261
g1234
I2187
sg1235
F0.477741003036499
sg1236
F0.00012612342834472656
sg1237
I1
sg1238
I50
sa(dp1262
g1234
I1996
sg1235
F0.04369997978210449
sg1236
F0.00011897087097167969
sg1237
I1
sg1238
I49
sa(dp1263
g1234
I1848
sg1235
F0.045777082443237305
sg1236
F0.0001227855682373047
sg1237
I1
sg1238
I46
sa(dp1264
g1234
I1825
sg1235
F0.205780029296875
sg1236
F0.0001652240753173828
sg1237
I1
sg1238
I44
sa(dp1265
g1234
I1743
sg1235
F0.1384871006011963
sg1236
F8.106231689453125e-05
sg1237
I1
sg1238
I43
sa(dp1266
g1234
I1346
sg1235
F0.07976794242858887
sg1236
F8.893013000488281e-05
sg1237
I1
sg1238
I42
sa(dp1267
g1234
I1426
sg1235
F0.11220908164978027
sg1236
F8.702278137207031e-05
sg1237
I1
sg1238
I36
sa(dp1268
g1234
I1212
sg1235
F0.027324914932250977
sg1236
F7.82012939453125e-05
sg1237
I1
sg1238
I35
sa(dp1269
g1234
I1207
sg1235
F0.04282808303833008
sg1236
F8.821487426757812e-05
sg1237
I1
sg1238
I33
sa(dp1270
g1234
I1077
sg1235
F0.08837699890136719
sg1236
F0.00010585784912109375
sg1237
I1
sg1238
I32
sa(dp1271
g1234
I1024
sg1235
F0.10737299919128418
sg1236
F0.00011396408081054688
sg1237
I1
sg1238
I30
sa(dp1272
g1234
I964
sg1235
F0.15139389038085938
sg1236
F0.00010609626770019531
sg1237
I1
sg1238
I28
sa(dp1273
g1234
I897
sg1235
F0.08767390251159668
sg1236
F0.00010395050048828125
sg1237
I1
sg1238
I27
sa(dp1274
g1234
I739
sg1235
F0.10389399528503418
sg1236
F7.796287536621094e-05
sg1237
I1
sg1238
I26
sa(dp1275
g1234
I720
sg1235
F0.36305904388427734
sg1236
F7.700920104980469e-05
sg1237
I1
sg1238
I24
sa(dp1276
g1234
I658
sg1235
F0.1322019100189209
sg1236
F0.0001010894775390625
sg1237
I1
sg1238
I23
sa(dp1277
g1234
I600
sg1235
F0.1348121166229248
sg1236
F0.0001010894775390625
sg1237
I1
sg1238
I22
sa(dp1278
g1234
I371
sg1235
F0.14496612548828125
sg1236
F6.318092346191406e-05
sg1237
I1
sg1238
I21
sa(dp1279
g1234
I412
sg1235
F0.16301703453063965
sg1236
F6.008148193359375e-05
sg1237
I1
sg1238
I18
sa(dp1280
g1234
I364
sg1235
F0.1544358730316162
sg1236
F7.987022399902344e-05
sg1237
I1
sg1238
I17
sa(dp1281
g1234
I318
sg1235
F0.03341412544250488
sg1236
F7.700920104980469e-05
sg1237
I1
sg1238
I16
sa(dp1282
g1234
I288
sg1235
F0.14756989479064941
sg1236
F6.580352783203125e-05
sg1237
I1
sg1238
I15
sa(dp1283
g1234
I255
sg1235
F0.024461984634399414
sg1236
F7.414817810058594e-05
sg1237
I1
sg1238
I14
sa(dp1284
g1234
I197
sg1235
F0.02341485023498535
sg1236
F6.794929504394531e-05
sg1237
I1
sg1238
I13
sa(dp1285
g1234
I21
sg1235
F0.004205942153930664
sg1236
F6.222724914550781e-05
sg1237
I1
sg1238
I2
sasS'total_cqs'
p1286
I129
ssI31
(dp1287
S'iters'
p1288
I32
sS'meta'
p1289
(lp1290
(dp1291
S'objective'
p1292
I1539
sS'query_time'
p1293
F0.43916797637939453
sS'comp_time'
p1294
F0.00011515617370605469
sS'exec_cq'
p1295
I1
sS'total_cq'
p1296
I57
sa(dp1297
g1292
I1330
sg1293
F0.10823297500610352
sg1294
F0.00011324882507324219
sg1295
I1
sg1296
I56
sa(dp1298
g1292
I1353
sg1293
F0.03265690803527832
sg1294
F9.894371032714844e-05
sg1295
I1
sg1296
I53
sa(dp1299
g1292
I1260
sg1293
F0.03830385208129883
sg1294
F0.00011920928955078125
sg1295
I1
sg1296
I52
sa(dp1300
g1292
I1228
sg1293
F0.09912586212158203
sg1294
F0.00011277198791503906
sg1295
I1
sg1296
I50
sa(dp1301
g1292
I1177
sg1293
F0.1712329387664795
sg1294
F0.00010895729064941406
sg1295
I1
sg1296
I49
sa(dp1302
g1292
I1127
sg1293
F0.03727889060974121
sg1294
F0.0001010894775390625
sg1295
I1
sg1296
I48
sa(dp1303
g1292
I1078
sg1293
F0.11362600326538086
sg1294
F0.000102996826171875
sg1295
I1
sg1296
I47
sa(dp1304
g1292
I690
sg1293
F0.05175900459289551
sg1294
F0.0001239776611328125
sg1295
I1
sg1296
I46
sa(dp1305
g1292
I813
sg1293
F0.20222115516662598
sg1294
F0.00034689903259277344
sg1295
I1
sg1296
I36
sa(dp1306
g1292
I767
sg1293
F0.06538701057434082
sg1294
F0.0001049041748046875
sg1295
I1
sg1296
I35
sa(dp1307
g1292
I722
sg1293
F0.030321121215820312
sg1294
F9.012222290039062e-05
sg1295
I1
sg1296
I34
sa(dp1308
g1292
I680
sg1293
F0.029285907745361328
sg1294
F0.00010609626770019531
sg1295
I1
sg1296
I33
sa(dp1309
g1292
I638
sg1293
F0.05459094047546387
sg1294
F0.00011205673217773438
sg1295
I1
sg1296
I32
sa(dp1310
g1292
I497
sg1293
F0.02786993980407715
sg1294
F8.273124694824219e-05
sg1295
I1
sg1296
I31
sa(dp1311
g1292
I507
sg1293
F0.02485513687133789
sg1294
F8.7738037109375e-05
sg1295
I1
sg1296
I27
sa(dp1312
g1292
I446
sg1293
F0.017976045608520508
sg1294
F7.200241088867188e-05
sg1295
I1
sg1296
I26
sa(dp1313
g1292
I349
sg1293
F0.021603822708129883
sg1294
F7.295608520507812e-05
sg1295
I1
sg1296
I24
sa(dp1314
g1292
I353
sg1293
F0.02227497100830078
sg1294
F7.009506225585938e-05
sg1295
I1
sg1296
I22
sa(dp1315
g1292
I322
sg1293
F0.02364206314086914
sg1294
F8.511543273925781e-05
sg1295
I1
sg1296
I21
sa(dp1316
g1292
I291
sg1293
F0.034317970275878906
sg1294
F8.296966552734375e-05
sg1295
I1
sg1296
I20
sa(dp1317
g1292
I263
sg1293
F0.05982804298400879
sg1294
F8.511543273925781e-05
sg1295
I1
sg1296
I19
sa(dp1318
g1292
I235
sg1293
F0.02916407585144043
sg1294
F8.630752563476562e-05
sg1295
I1
sg1296
I18
sa(dp1319
g1292
I208
sg1293
F0.02146601676940918
sg1294
F6.389617919921875e-05
sg1295
I1
sg1296
I17
sa(dp1320
g1292
I182
sg1293
F0.03444194793701172
sg1294
F6.723403930664062e-05
sg1295
I1
sg1296
I16
sa(dp1321
g1292
I157
sg1293
F0.01547098159790039
sg1294
F6.103515625e-05
sg1295
I1
sg1296
I15
sa(dp1322
g1292
I135
sg1293
F0.1708230972290039
sg1294
F7.486343383789062e-05
sg1295
I1
sg1296
I14
sa(dp1323
g1292
I113
sg1293
F0.021497011184692383
sg1294
F8.893013000488281e-05
sg1295
I1
sg1296
I13
sa(dp1324
g1292
I92
sg1293
F0.017300128936767578
sg1294
F6.699562072753906e-05
sg1295
I1
sg1296
I12
sa(dp1325
g1292
I78
sg1293
F0.02857685089111328
sg1294
F5.91278076171875e-05
sg1295
I1
sg1296
I11
sa(dp1326
g1292
I62
sg1293
F0.017193078994750977
sg1294
F5.888938903808594e-05
sg1295
I1
sg1296
I10
sa(dp1327
g1292
I47
sg1293
F0.010421037673950195
sg1294
F5.316734313964844e-05
sg1295
I1
sg1296
I9
sasS'total_cqs'
p1328
I57
ssI32
(dp1329
S'iters'
p1330
I14
sS'meta'
p1331
(lp1332
(dp1333
S'objective'
p1334
I3239
sS'query_time'
p1335
F0.4141719341278076
sS'comp_time'
p1336
F0.0001342296600341797
sS'exec_cq'
p1337
I1
sS'total_cq'
p1338
I82
sa(dp1339
g1334
I1963
sg1335
F0.5403051376342773
sg1336
F0.00014591217041015625
sg1337
I1
sg1338
I81
sa(dp1340
g1334
I2240
sg1335
F0.9257221221923828
sg1336
F0.0004360675811767578
sg1337
I1
sg1338
I67
sa(dp1341
g1334
I1943
sg1335
F0.416827917098999
sg1336
F0.00013589859008789062
sg1337
I1
sg1338
I61
sa(dp1342
g1334
I1900
sg1335
F0.610253095626831
sg1336
F0.00011801719665527344
sg1337
I1
sg1338
I55
sa(dp1343
g1334
I1894
sg1335
F0.42694091796875
sg1336
F0.000118255615234375
sg1337
I1
sg1338
I53
sa(dp1344
g1334
I1820
sg1335
F0.3824779987335205
sg1336
F0.00033473968505859375
sg1337
I1
sg1338
I52
sa(dp1345
g1334
I1747
sg1335
F0.5207340717315674
sg1336
F0.0001399517059326172
sg1337
I1
sg1338
I51
sa(dp1346
g1334
I1099
sg1335
F1.2318899631500244
sg1336
F0.00010013580322265625
sg1337
I1
sg1338
I50
sa(dp1347
g1334
I1324
sg1335
F0.47868895530700684
sg1336
F9.703636169433594e-05
sg1337
I1
sg1338
I42
sa(dp1348
g1334
I1260
sg1335
F0.37801289558410645
sg1336
F0.0001201629638671875
sg1337
I1
sg1338
I41
sa(dp1349
g1334
I1038
sg1335
F0.6791040897369385
sg1336
F0.00011777877807617188
sg1337
I1
sg1338
I40
sa(dp1350
g1334
I1014
sg1335
F0.3256561756134033
sg1336
F0.000102996826171875
sg1337
I1
sg1338
I35
sa(dp1351
g1334
I40
sg1335
F0.006516218185424805
sg1336
F6.413459777832031e-05
sg1337
I1
sg1338
I2
sasS'total_cqs'
p1352
I82
ssI33
(dp1353
S'iters'
p1354
I1
sS'meta'
p1355
(lp1356
(dp1357
S'objective'
p1358
I1
sS'query_time'
p1359
F0.17348194122314453
sS'comp_time'
p1360
F6.413459777832031e-05
sS'exec_cq'
p1361
I1
sS'total_cq'
p1362
I2
sasS'total_cqs'
p1363
I2
ssI34
(dp1364
S'iters'
p1365
I9
sS'meta'
p1366
(lp1367
(dp1368
S'objective'
p1369
I54
sS'query_time'
p1370
F0.1749730110168457
sS'comp_time'
p1371
F7.390975952148438e-05
sS'exec_cq'
p1372
I1
sS'total_cq'
p1373
I12
sa(dp1374
g1369
I44
sg1370
F0.05598282814025879
sg1371
F6.914138793945312e-05
sg1372
I1
sg1373
I11
sa(dp1375
g1369
I35
sg1370
F0.0869150161743164
sg1371
F6.604194641113281e-05
sg1372
I1
sg1373
I10
sa(dp1376
g1369
I27
sg1370
F0.1455080509185791
sg1371
F7.915496826171875e-05
sg1372
I1
sg1373
I9
sa(dp1377
g1369
I20
sg1370
F0.1672210693359375
sg1371
F6.794929504394531e-05
sg1372
I1
sg1373
I8
sa(dp1378
g1369
I14
sg1370
F0.08932614326477051
sg1371
F7.009506225585938e-05
sg1372
I1
sg1373
I7
sa(dp1379
g1369
I9
sg1370
F0.15889191627502441
sg1371
F7.200241088867188e-05
sg1372
I1
sg1373
I6
sa(dp1380
g1369
I5
sg1370
F0.022837162017822266
sg1371
F5.888938903808594e-05
sg1372
I1
sg1373
I5
sa(dp1381
g1369
I2
sg1370
F0.021874189376831055
sg1371
F6.67572021484375e-05
sg1372
I1
sg1373
I4
sasS'total_cqs'
p1382
I12
ssI35
(dp1383
S'iters'
p1384
I41
sS'meta'
p1385
(lp1386
(dp1387
S'objective'
p1388
I5885
sS'query_time'
p1389
F0.7088367938995361
sS'comp_time'
p1390
F0.00015401840209960938
sS'exec_cq'
p1391
I1
sS'total_cq'
p1392
I110
sa(dp1393
g1388
I5591
sg1389
F0.11618304252624512
sg1390
F0.00015997886657714844
sg1391
I1
sg1392
I109
sa(dp1394
g1388
I2757
sg1389
F0.8531398773193359
sg1390
F0.00036787986755371094
sg1391
I1
sg1392
I107
sa(dp1395
g1388
I4061
sg1389
F0.24206995964050293
sg1390
F0.00013875961303710938
sg1391
I1
sg1392
I82
sa(dp1396
g1388
I3956
sg1389
F2.3509020805358887
sg1390
F0.00021266937255859375
sg1391
I1
sg1392
I81
sa(dp1397
g1388
I3854
sg1389
F0.2548048496246338
sg1390
F0.00012612342834472656
sg1391
I1
sg1392
I80
sa(dp1398
g1388
I3290
sg1389
F0.12133407592773438
sg1390
F0.00012683868408203125
sg1391
I1
sg1392
I79
sa(dp1399
g1388
I3340
sg1389
F0.2074282169342041
sg1390
F0.00010895729064941406
sg1391
I1
sg1392
I75
sa(dp1400
g1388
I3276
sg1389
F0.1140449047088623
sg1390
F0.00011515617370605469
sg1391
I1
sg1392
I73
sa(dp1401
g1388
I3187
sg1389
F0.1847548484802246
sg1390
F0.00010514259338378906
sg1391
I1
sg1392
I71
sa(dp1402
g1388
I3093
sg1389
F0.8160679340362549
sg1390
F0.00013303756713867188
sg1391
I1
sg1392
I70
sa(dp1403
g1388
I2816
sg1389
F0.2001478672027588
sg1390
F0.00014400482177734375
sg1391
I1
sg1392
I69
sa(dp1404
g1388
I1380
sg1389
F0.19532299041748047
sg1390
F0.00013899803161621094
sg1391
I1
sg1392
I67
sa(dp1405
g1388
I2013
sg1389
F0.20640087127685547
sg1390
F0.00012493133544921875
sg1391
I1
sg1392
I53
sa(dp1406
g1388
I1782
sg1389
F3.466520071029663
sg1390
F0.00022220611572265625
sg1391
I1
sg1392
I52
sa(dp1407
g1388
I1778
sg1389
F0.17273402214050293
sg1390
F0.0001430511474609375
sg1391
I1
sg1392
I50
sa(dp1408
g1388
I1702
sg1389
F0.16209816932678223
sg1390
F0.0001239776611328125
sg1391
I1
sg1392
I49
sa(dp1409
g1388
I1581
sg1389
F0.11593198776245117
sg1390
F0.00011110305786132812
sg1391
I1
sg1392
I48
sa(dp1410
g1388
I1531
sg1389
F0.22107481956481934
sg1390
F9.322166442871094e-05
sg1391
I1
sg1392
I46
sa(dp1411
g1388
I1458
sg1389
F0.19350504875183105
sg1390
F0.00022292137145996094
sg1391
I1
sg1392
I45
sa(dp1412
g1388
I1388
sg1389
F0.1477041244506836
sg1390
F8.678436279296875e-05
sg1391
I1
sg1392
I44
sa(dp1413
g1388
I1278
sg1389
F0.09037995338439941
sg1390
F0.00012612342834472656
sg1391
I1
sg1392
I43
sa(dp1414
g1388
I1229
sg1389
F0.18612289428710938
sg1390
F0.0003399848937988281
sg1391
I1
sg1392
I41
sa(dp1415
g1388
I1039
sg1389
F0.09698700904846191
sg1390
F0.00010204315185546875
sg1391
I1
sg1392
I40
sa(dp1416
g1388
I955
sg1389
F0.09009814262390137
sg1390
F8.106231689453125e-05
sg1391
I1
sg1392
I38
sa(dp1417
g1388
I812
sg1389
F0.15725111961364746
sg1390
F0.00011920928955078125
sg1391
I1
sg1392
I36
sa(dp1418
g1388
I809
sg1389
F0.2927520275115967
sg1390
F0.00010013580322265625
sg1391
I1
sg1392
I34
sa(dp1419
g1388
I747
sg1389
F0.33094096183776855
sg1390
F0.00014019012451171875
sg1391
I1
sg1392
I33
sa(dp1420
g1388
I690
sg1389
F0.29572319984436035
sg1390
F0.000102996826171875
sg1391
I1
sg1392
I32
sa(dp1421
g1388
I640
sg1389
F0.09750914573669434
sg1390
F8.58306884765625e-05
sg1391
I1
sg1392
I30
sa(dp1422
g1388
I533
sg1389
F0.09852480888366699
sg1390
F0.00014400482177734375
sg1391
I1
sg1392
I29
sa(dp1423
g1388
I514
sg1389
F0.1190030574798584
sg1390
F0.00011301040649414062
sg1391
I1
sg1392
I27
sa(dp1424
g1388
I472
sg1389
F0.1777019500732422
sg1390
F0.00011324882507324219
sg1391
I1
sg1392
I26
sa(dp1425
g1388
I428
sg1389
F0.17223501205444336
sg1390
F0.00011205673217773438
sg1391
I1
sg1392
I25
sa(dp1426
g1388
I391
sg1389
F0.715317964553833
sg1390
F0.00018525123596191406
sg1391
I1
sg1392
I24
sa(dp1427
g1388
I354
sg1389
F0.13854479789733887
sg1390
F9.202957153320312e-05
sg1391
I1
sg1392
I23
sa(dp1428
g1388
I319
sg1389
F0.17230987548828125
sg1390
F0.00010204315185546875
sg1391
I1
sg1392
I22
sa(dp1429
g1388
I210
sg1389
F0.05362200736999512
sg1390
F7.82012939453125e-05
sg1391
I1
sg1392
I21
sa(dp1430
g1388
I193
sg1389
F0.23277902603149414
sg1390
F0.00011992454528808594
sg1391
I1
sg1392
I18
sa(dp1431
g1388
I172
sg1389
F0.14623498916625977
sg1390
F0.00010085105895996094
sg1391
I1
sg1392
I16
sa(dp1432
g1388
I147
sg1389
F0.0736229419708252
sg1390
F0.00014591217041015625
sg1391
I1
sg1392
I15
sasS'total_cqs'
p1433
I110
ssI36
(dp1434
S'iters'
p1435
I30
sS'meta'
p1436
(lp1437
(dp1438
S'objective'
p1439
I1890
sS'query_time'
p1440
F0.05801701545715332
sS'comp_time'
p1441
F0.00013685226440429688
sS'exec_cq'
p1442
I1
sS'total_cq'
p1443
I63
sa(dp1444
g1439
I1829
sg1440
F0.2727048397064209
sg1441
F0.00011205673217773438
sg1442
I1
sg1443
I62
sa(dp1445
g1439
I1769
sg1440
F0.03842282295227051
sg1441
F0.00010704994201660156
sg1442
I1
sg1443
I61
sa(dp1446
g1439
I888
sg1440
F0.30436086654663086
sg1441
F0.0001239776611328125
sg1442
I1
sg1443
I60
sa(dp1447
g1439
I1173
sg1440
F0.8939230442047119
sg1441
F0.0003750324249267578
sg1442
I1
sg1443
I44
sa(dp1448
g1439
I1150
sg1440
F0.1013798713684082
sg1441
F0.00010275840759277344
sg1442
I1
sg1443
I42
sa(dp1449
g1439
I1094
sg1440
F0.12497091293334961
sg1441
F9.918212890625e-05
sg1442
I1
sg1443
I41
sa(dp1450
g1439
I1039
sg1440
F0.09129905700683594
sg1441
F0.00010895729064941406
sg1442
I1
sg1443
I40
sa(dp1451
g1439
I985
sg1440
F0.07261180877685547
sg1441
F0.00010466575622558594
sg1442
I1
sg1443
I39
sa(dp1452
g1439
I934
sg1440
F0.6826651096343994
sg1441
F9.870529174804688e-05
sg1442
I1
sg1443
I38
sa(dp1453
g1439
I609
sg1440
F0.351895809173584
sg1441
F0.0001227855682373047
sg1442
I1
sg1443
I37
sa(dp1454
g1439
I536
sg1440
F0.10701990127563477
sg1441
F7.915496826171875e-05
sg1442
I1
sg1443
I30
sa(dp1455
g1439
I453
sg1440
F0.1259310245513916
sg1441
F9.918212890625e-05
sg1442
I1
sg1443
I27
sa(dp1456
g1439
I466
sg1440
F0.06134200096130371
sg1441
F8.702278137207031e-05
sg1442
I1
sg1443
I24
sa(dp1457
g1439
I423
sg1440
F0.16131305694580078
sg1441
F9.274482727050781e-05
sg1442
I1
sg1443
I23
sa(dp1458
g1439
I382
sg1440
F0.07377791404724121
sg1441
F0.00011301040649414062
sg1442
I1
sg1443
I22
sa(dp1459
g1439
I351
sg1440
F0.0568089485168457
sg1441
F9.512901306152344e-05
sg1442
I1
sg1443
I21
sa(dp1460
g1439
I316
sg1440
F0.03391098976135254
sg1441
F9.012222290039062e-05
sg1442
I1
sg1443
I20
sa(dp1461
g1439
I286
sg1440
F0.29204487800598145
sg1441
F0.00017309188842773438
sg1442
I1
sg1443
I19
sa(dp1462
g1439
I255
sg1440
F0.6798639297485352
sg1441
F0.00012826919555664062
sg1442
I1
sg1443
I18
sa(dp1463
g1439
I227
sg1440
F0.03629708290100098
sg1441
F7.414817810058594e-05
sg1442
I1
sg1443
I17
sa(dp1464
g1439
I201
sg1440
F0.023643970489501953
sg1441
F8.0108642578125e-05
sg1442
I1
sg1443
I16
sa(dp1465
g1439
I175
sg1440
F0.033331871032714844
sg1441
F8.106231689453125e-05
sg1442
I1
sg1443
I15
sa(dp1466
g1439
I152
sg1440
F0.06049919128417969
sg1441
F6.413459777832031e-05
sg1442
I1
sg1443
I14
sa(dp1467
g1439
I129
sg1440
F0.05846977233886719
sg1441
F6.818771362304688e-05
sg1442
I1
sg1443
I13
sa(dp1468
g1439
I107
sg1440
F0.024038076400756836
sg1441
F6.29425048828125e-05
sg1442
I1
sg1443
I12
sa(dp1469
g1439
I88
sg1440
F0.01761603355407715
sg1441
F8.511543273925781e-05
sg1442
I1
sg1443
I11
sa(dp1470
g1439
I69
sg1440
F0.07281899452209473
sg1441
F7.486343383789062e-05
sg1442
I1
sg1443
I10
sa(dp1471
g1439
I53
sg1440
F0.025460004806518555
sg1441
F6.604194641113281e-05
sg1442
I1
sg1443
I9
sa(dp1472
g1439
I37
sg1440
F0.0358431339263916
sg1441
F6.818771362304688e-05
sg1442
I1
sg1443
I8
sasS'total_cqs'
p1473
I63
ssI37
(dp1474
S'iters'
p1475
I29
sS'meta'
p1476
(lp1477
(dp1478
S'objective'
p1479
I1485
sS'query_time'
p1480
F0.044090986251831055
sS'comp_time'
p1481
F0.00011086463928222656
sS'exec_cq'
p1482
I1
sS'total_cq'
p1483
I57
sa(dp1484
g1479
I1457
sg1480
F0.03642988204956055
sg1481
F9.107589721679688e-05
sg1482
I1
sg1483
I54
sa(dp1485
g1479
I833
sg1480
F0.0697171688079834
sg1481
F0.00010895729064941406
sg1482
I1
sg1483
I53
sa(dp1486
g1479
I1065
sg1480
F0.08810305595397949
sg1481
F8.416175842285156e-05
sg1482
I1
sg1483
I41
sa(dp1487
g1479
I1017
sg1480
F0.028789997100830078
sg1481
F8.58306884765625e-05
sg1482
I1
sg1483
I40
sa(dp1488
g1479
I968
sg1480
F0.045372962951660156
sg1481
F7.915496826171875e-05
sg1482
I1
sg1483
I39
sa(dp1489
g1479
I838
sg1480
F0.08803009986877441
sg1481
F8.988380432128906e-05
sg1482
I1
sg1483
I38
sa(dp1490
g1479
I832
sg1480
F0.0469820499420166
sg1481
F7.796287536621094e-05
sg1482
I1
sg1483
I35
sa(dp1491
g1479
I788
sg1480
F0.13541102409362793
sg1481
F8.988380432128906e-05
sg1482
I1
sg1483
I34
sa(dp1492
g1479
I664
sg1480
F0.0216062068939209
sg1481
F7.724761962890625e-05
sg1482
I1
sg1483
I33
sa(dp1493
g1479
I563
sg1480
F0.025723934173583984
sg1481
F9.179115295410156e-05
sg1482
I1
sg1483
I30
sa(dp1494
g1479
I488
sg1480
F0.021414995193481445
sg1481
F7.510185241699219e-05
sg1482
I1
sg1483
I27
sa(dp1495
g1479
I488
sg1480
F0.4488999843597412
sg1481
F0.000308990478515625
sg1482
I1
sg1483
I24
sa(dp1496
g1479
I450
sg1480
F0.04111599922180176
sg1481
F0.00012183189392089844
sg1482
I1
sg1483
I23
sa(dp1497
g1479
I414
sg1480
F0.1568150520324707
sg1481
F9.417533874511719e-05
sg1482
I1
sg1483
I22
sa(dp1498
g1479
I378
sg1480
F0.08267998695373535
sg1481
F8.606910705566406e-05
sg1482
I1
sg1483
I21
sa(dp1499
g1479
I343
sg1480
F0.02737593650817871
sg1481
F8.082389831542969e-05
sg1482
I1
sg1483
I20
sa(dp1500
g1479
I311
sg1480
F0.03631091117858887
sg1481
F7.915496826171875e-05
sg1482
I1
sg1483
I19
sa(dp1501
g1479
I281
sg1480
F0.023784160614013672
sg1481
F6.723403930664062e-05
sg1482
I1
sg1483
I18
sa(dp1502
g1479
I251
sg1480
F0.013628959655761719
sg1481
F6.29425048828125e-05
sg1482
I1
sg1483
I17
sa(dp1503
g1479
I222
sg1480
F0.017013072967529297
sg1481
F7.128715515136719e-05
sg1482
I1
sg1483
I16
sa(dp1504
g1479
I194
sg1480
F0.01772618293762207
sg1481
F5.2928924560546875e-05
sg1482
I1
sg1483
I15
sa(dp1505
g1479
I167
sg1480
F0.020872831344604492
sg1481
F7.319450378417969e-05
sg1482
I1
sg1483
I14
sa(dp1506
g1479
I141
sg1480
F0.027320146560668945
sg1481
F6.508827209472656e-05
sg1482
I1
sg1483
I13
sa(dp1507
g1479
I116
sg1480
F0.02351999282836914
sg1481
F7.987022399902344e-05
sg1482
I1
sg1483
I12
sa(dp1508
g1479
I92
sg1480
F0.018798112869262695
sg1481
F7.796287536621094e-05
sg1482
I1
sg1483
I11
sa(dp1509
g1479
I73
sg1480
F0.029118776321411133
sg1481
F0.00010776519775390625
sg1482
I1
sg1483
I10
sa(dp1510
g1479
I53
sg1480
F0.012848138809204102
sg1481
F8.702278137207031e-05
sg1482
I1
sg1483
I9
sa(dp1511
g1479
I42
sg1480
F0.3735318183898926
sg1481
F8.988380432128906e-05
sg1482
I1
sg1483
I8
sasS'total_cqs'
p1512
I57
ssI38
(dp1513
S'iters'
p1514
I46
sS'meta'
p1515
(lp1516
(dp1517
S'objective'
p1518
I7959
sS'query_time'
p1519
F0.12911605834960938
sS'comp_time'
p1520
F0.0001888275146484375
sS'exec_cq'
p1521
I1
sS'total_cq'
p1522
I129
sa(dp1523
g1518
I7778
sg1519
F0.23033499717712402
sg1520
F0.00017786026000976562
sg1521
I1
sg1522
I127
sa(dp1524
g1518
I5181
sg1519
F0.17890501022338867
sg1520
F0.00018906593322753906
sg1521
I1
sg1522
I125
sa(dp1525
g1518
I6326
sg1519
F0.21884799003601074
sg1520
F0.00015091896057128906
sg1521
I1
sg1522
I104
sa(dp1526
g1518
I6204
sg1519
F0.29924798011779785
sg1520
F0.00023102760314941406
sg1521
I1
sg1522
I103
sa(dp1527
g1518
I4380
sg1519
F0.08669900894165039
sg1520
F0.0001571178436279297
sg1521
I1
sg1522
I102
sa(dp1528
g1518
I4560
sg1519
F0.14754199981689453
sg1520
F0.0005679130554199219
sg1521
I1
sg1522
I87
sa(dp1529
g1518
I4121
sg1519
F0.4260430335998535
sg1520
F0.0001289844512939453
sg1521
I1
sg1522
I81
sa(dp1530
g1518
I4199
sg1519
F0.15670299530029297
sg1520
F0.0001480579376220703
sg1521
I1
sg1522
I72
sa(dp1531
g1518
I4131
sg1519
F0.18862700462341309
sg1520
F0.00012493133544921875
sg1521
I1
sg1522
I70
sa(dp1532
g1518
I4014
sg1519
F0.22957801818847656
sg1520
F0.00012826919555664062
sg1521
I1
sg1522
I69
sa(dp1533
g1518
I3902
sg1519
F0.5292160511016846
sg1520
F0.00012803077697753906
sg1521
I1
sg1522
I68
sa(dp1534
g1518
I3793
sg1519
F0.043055057525634766
sg1520
F0.00011205673217773438
sg1521
I1
sg1522
I67
sa(dp1535
g1518
I3561
sg1519
F0.2503390312194824
sg1520
F0.00015616416931152344
sg1521
I1
sg1522
I66
sa(dp1536
g1518
I3513
sg1519
F0.12709999084472656
sg1520
F0.00013709068298339844
sg1521
I1
sg1522
I64
sa(dp1537
g1518
I3405
sg1519
F0.23551011085510254
sg1520
F0.000652313232421875
sg1521
I1
sg1522
I63
sa(dp1538
g1518
I3072
sg1519
F0.035063982009887695
sg1520
F0.00010919570922851562
sg1521
I1
sg1522
I62
sa(dp1539
g1518
I2651
sg1519
F0.06239509582519531
sg1520
F0.00010800361633300781
sg1521
I1
sg1522
I59
sa(dp1540
g1518
I2766
sg1519
F0.23458409309387207
sg1520
F0.00011086463928222656
sg1521
I1
sg1522
I54
sa(dp1541
g1518
I2665
sg1519
F0.2135181427001953
sg1520
F0.0001461505889892578
sg1521
I1
sg1522
I53
sa(dp1542
g1518
I2565
sg1519
F0.19718599319458008
sg1520
F0.0001659393310546875
sg1521
I1
sg1522
I52
sa(dp1543
g1518
I2282
sg1519
F0.4500899314880371
sg1520
F0.0001289844512939453
sg1521
I1
sg1522
I51
sa(dp1544
g1518
I2190
sg1519
F0.03626298904418945
sg1520
F0.00011110305786132812
sg1521
I1
sg1522
I48
sa(dp1545
g1518
I1920
sg1519
F0.0357058048248291
sg1520
F0.0001220703125
sg1521
I1
sg1522
I46
sa(dp1546
g1518
I1674
sg1519
F0.04692983627319336
sg1520
F0.0001220703125
sg1521
I1
sg1522
I42
sa(dp1547
g1518
I1720
sg1519
F0.05323600769042969
sg1520
F9.608268737792969e-05
sg1521
I1
sg1522
I39
sa(dp1548
g1518
I1550
sg1519
F0.10753583908081055
sg1520
F0.0001461505889892578
sg1521
I1
sg1522
I38
sa(dp1549
g1518
I1242
sg1519
F0.022655963897705078
sg1520
F9.298324584960938e-05
sg1521
I1
sg1522
I36
sa(dp1550
g1518
I1301
sg1519
F0.2461988925933838
sg1520
F9.608268737792969e-05
sg1521
I1
sg1522
I33
sa(dp1551
g1518
I1223
sg1519
F0.04367995262145996
sg1520
F8.0108642578125e-05
sg1521
I1
sg1522
I32
sa(dp1552
g1518
I1070
sg1519
F0.16908597946166992
sg1520
F0.00010895729064941406
sg1521
I1
sg1522
I31
sa(dp1553
g1518
I1034
sg1519
F0.11220312118530273
sg1520
F0.00013303756713867188
sg1521
I1
sg1522
I29
sa(dp1554
g1518
I962
sg1519
F0.051605939865112305
sg1520
F8.20159912109375e-05
sg1521
I1
sg1522
I28
sa(dp1555
g1518
I892
sg1519
F0.2110729217529297
sg1520
F8.416175842285156e-05
sg1521
I1
sg1522
I27
sa(dp1556
g1518
I824
sg1519
F7.994365930557251
sg1520
F0.00014495849609375
sg1521
I1
sg1522
I26
sa(dp1557
g1518
I690
sg1519
F0.3522820472717285
sg1520
F0.0001361370086669922
sg1521
I1
sg1522
I25
sa(dp1558
g1518
I660
sg1519
F0.18339180946350098
sg1520
F0.00010275840759277344
sg1521
I1
sg1522
I23
sa(dp1559
g1518
I596
sg1519
F0.16945290565490723
sg1520
F8.678436279296875e-05
sg1521
I1
sg1522
I22
sa(dp1560
g1518
I533
sg1519
F0.035359859466552734
sg1520
F6.914138793945312e-05
sg1521
I1
sg1522
I21
sa(dp1561
g1518
I471
sg1519
F0.043395042419433594
sg1520
F6.318092346191406e-05
sg1521
I1
sg1522
I20
sa(dp1562
g1518
I410
sg1519
F0.16411399841308594
sg1520
F9.703636169433594e-05
sg1521
I1
sg1522
I19
sa(dp1563
g1518
I298
sg1519
F0.19953322410583496
sg1520
F0.00010395050048828125
sg1521
I1
sg1522
I18
sa(dp1564
g1518
I271
sg1519
F0.08954000473022461
sg1520
F0.00010991096496582031
sg1521
I1
sg1522
I16
sa(dp1565
g1518
I216
sg1519
F0.029764890670776367
sg1520
F6.103515625e-05
sg1521
I1
sg1522
I15
sa(dp1566
g1518
I176
sg1519
F0.014811992645263672
sg1520
F6.818771362304688e-05
sg1521
I1
sg1522
I14
sa(dp1567
g1518
I156
sg1519
F0.029628992080688477
sg1520
F7.581710815429688e-05
sg1521
I1
sg1522
I13
sasS'total_cqs'
p1568
I129
ssI39
(dp1569
S'iters'
p1570
I1
sS'meta'
p1571
(lp1572
(dp1573
S'objective'
p1574
I1
sS'query_time'
p1575
F0.011859893798828125
sS'comp_time'
p1576
F6.890296936035156e-05
sS'exec_cq'
p1577
I1
sS'total_cq'
p1578
I2
sasS'total_cqs'
p1579
I2
ssI40
(dp1580
S'iters'
p1581
I9
sS'meta'
p1582
(lp1583
(dp1584
S'objective'
p1585
I42
sS'query_time'
p1586
F0.749871015548706
sS'comp_time'
p1587
F0.00010895729064941406
sS'exec_cq'
p1588
I1
sS'total_cq'
p1589
I35
sa(dp1590
g1585
I230
sg1586
F0.9876368045806885
sg1587
F0.0002930164337158203
sg1588
I1
sg1589
I21
sa(dp1591
g1585
I219
sg1586
F0.037832021713256836
sg1587
F8.487701416015625e-05
sg1588
I1
sg1589
I19
sa(dp1592
g1585
I31
sg1586
F0.48712611198425293
sg1587
F8.678436279296875e-05
sg1588
I1
sg1589
I18
sa(dp1593
g1585
I58
sg1586
F0.7359700202941895
sg1587
F6.890296936035156e-05
sg1588
I1
sg1589
I8
sa(dp1594
g1585
I38
sg1586
F0.05628705024719238
sg1587
F8.988380432128906e-05
sg1588
I1
sg1589
I7
sa(dp1595
g1585
I17
sg1586
F0.5098669528961182
sg1587
F0.000202178955078125
sg1588
I1
sg1589
I6
sa(dp1596
g1585
I11
sg1586
F0.4150419235229492
sg1587
F6.723403930664062e-05
sg1588
I1
sg1589
I4
sa(dp1597
g1585
I5
sg1586
F0.007043123245239258
sg1587
F5.2928924560546875e-05
sg1588
I1
sg1589
I2
sasS'total_cqs'
p1598
I35
ssI41
(dp1599
S'iters'
p1600
I1
sS'meta'
p1601
(lp1602
(dp1603
S'objective'
p1604
I1
sS'query_time'
p1605
F0.16895103454589844
sS'comp_time'
p1606
F7.224082946777344e-05
sS'exec_cq'
p1607
I1
sS'total_cq'
p1608
I2
sasS'total_cqs'
p1609
I2
ssI42
(dp1610
S'iters'
p1611
I6
sS'meta'
p1612
(lp1613
(dp1614
S'objective'
p1615
I104
sS'query_time'
p1616
F0.16969609260559082
sS'comp_time'
p1617
F7.700920104980469e-05
sS'exec_cq'
p1618
I1
sS'total_cq'
p1619
I16
sa(dp1620
g1615
I52
sg1616
F0.19185113906860352
sg1617
F8.988380432128906e-05
sg1618
I1
sg1619
I15
sa(dp1621
g1615
I58
sg1616
F2.105846881866455
sg1617
F0.0002510547637939453
sg1618
I1
sg1619
I12
sa(dp1622
g1615
I16
sg1616
F0.0801079273223877
sg1617
F7.700920104980469e-05
sg1618
I1
sg1619
I11
sa(dp1623
g1615
I2
sg1616
F0.0019850730895996094
sg1617
F4.792213439941406e-05
sg1618
I1
sg1619
I3
sa(dp1624
g1615
I5
sg1616
F0.014475107192993164
sg1617
F4.935264587402344e-05
sg1618
I1
sg1619
I2
sasS'total_cqs'
p1625
I16
ssI43
(dp1626
S'iters'
p1627
I9
sS'meta'
p1628
(lp1629
(dp1630
S'objective'
p1631
I895
sS'query_time'
p1632
F0.408397912979126
sS'comp_time'
p1633
F0.00010919570922851562
sS'exec_cq'
p1634
I1
sS'total_cq'
p1635
I54
sa(dp1636
g1631
I1084
sg1632
F0.03322005271911621
sg1633
F9.799003601074219e-05
sg1634
I1
sg1635
I45
sa(dp1637
g1631
I1033
sg1632
F0.030633926391601562
sg1633
F8.58306884765625e-05
sg1634
I1
sg1635
I44
sa(dp1638
g1631
I983
sg1632
F0.03384804725646973
sg1633
F8.678436279296875e-05
sg1634
I1
sg1635
I43
sa(dp1639
g1631
I934
sg1632
F0.031865835189819336
sg1633
F9.608268737792969e-05
sg1634
I1
sg1635
I42
sa(dp1640
g1631
I886
sg1632
F0.033715009689331055
sg1633
F9.799003601074219e-05
sg1634
I1
sg1635
I41
sa(dp1641
g1631
I793
sg1632
F0.03848385810852051
sg1633
F0.0001819133758544922
sg1634
I1
sg1635
I40
sa(dp1642
g1631
I21
sg1632
F0.013168096542358398
sg1633
F6.771087646484375e-05
sg1634
I1
sg1635
I3
sa(dp1643
g1631
I5
sg1632
F0.10971879959106445
sg1633
F5.817413330078125e-05
sg1634
I1
sg1635
I2
sasS'total_cqs'
p1644
I54
ssI44
(dp1645
S'iters'
p1646
I0
sS'meta'
p1647
(lp1648
sS'total_cqs'
p1649
I1
ssI45
(dp1650
S'iters'
p1651
I28
sS'meta'
p1652
(lp1653
(dp1654
S'objective'
p1655
I1539
sS'query_time'
p1656
F0.04400014877319336
sS'comp_time'
p1657
F0.00011277198791503906
sS'exec_cq'
p1658
I1
sS'total_cq'
p1659
I57
sa(dp1660
g1655
I1384
sg1656
F0.07402682304382324
sg1657
F0.00011086463928222656
sg1658
I1
sg1659
I56
sa(dp1661
g1655
I1380
sg1656
F0.03602790832519531
sg1657
F0.00010395050048828125
sg1658
I1
sg1659
I54
sa(dp1662
g1655
I1327
sg1656
F0.03576397895812988
sg1657
F9.179115295410156e-05
sg1658
I1
sg1659
I53
sa(dp1663
g1655
I685
sg1656
F0.04100203514099121
sg1657
F9.107589721679688e-05
sg1658
I1
sg1659
I52
sa(dp1664
g1655
I665
sg1656
F0.03129410743713379
sg1657
F8.416175842285156e-05
sg1658
I1
sg1659
I39
sa(dp1665
g1655
I747
sg1656
F0.19407296180725098
sg1657
F0.0001361370086669922
sg1658
I1
sg1659
I34
sa(dp1666
g1655
I700
sg1656
F0.03233695030212402
sg1657
F9.989738464355469e-05
sg1658
I1
sg1659
I33
sa(dp1667
g1655
I527
sg1656
F0.024073123931884766
sg1657
F0.00012183189392089844
sg1658
I1
sg1659
I32
sa(dp1668
g1655
I552
sg1656
F0.017867088317871094
sg1657
F7.772445678710938e-05
sg1658
I1
sg1659
I29
sa(dp1669
g1655
I511
sg1656
F0.039073944091796875
sg1657
F8.177757263183594e-05
sg1658
I1
sg1659
I28
sa(dp1670
g1655
I473
sg1656
F0.06044292449951172
sg1657
F0.0005040168762207031
sg1658
I1
sg1659
I27
sa(dp1671
g1655
I435
sg1656
F0.06533288955688477
sg1657
F9.72747802734375e-05
sg1658
I1
sg1659
I26
sa(dp1672
g1655
I398
sg1656
F0.17593789100646973
sg1657
F8.797645568847656e-05
sg1658
I1
sg1659
I25
sa(dp1673
g1655
I362
sg1656
F0.028176069259643555
sg1657
F7.009506225585938e-05
sg1658
I1
sg1659
I24
sa(dp1674
g1655
I327
sg1656
F0.37715601921081543
sg1657
F8.821487426757812e-05
sg1658
I1
sg1659
I23
sa(dp1675
g1655
I297
sg1656
F0.021203994750976562
sg1657
F6.318092346191406e-05
sg1658
I1
sg1659
I22
sa(dp1676
g1655
I264
sg1656
F0.021070003509521484
sg1657
F7.104873657226562e-05
sg1658
I1
sg1659
I21
sa(dp1677
g1655
I239
sg1656
F0.07750606536865234
sg1657
F6.818771362304688e-05
sg1658
I1
sg1659
I19
sa(dp1678
g1655
I214
sg1656
F0.0345149040222168
sg1657
F7.295608520507812e-05
sg1658
I1
sg1659
I18
sa(dp1679
g1655
I189
sg1656
F0.023153066635131836
sg1657
F7.987022399902344e-05
sg1658
I1
sg1659
I17
sa(dp1680
g1655
I165
sg1656
F0.021052837371826172
sg1657
F6.29425048828125e-05
sg1658
I1
sg1659
I16
sa(dp1681
g1655
I130
sg1656
F0.016855955123901367
sg1657
F5.7220458984375e-05
sg1658
I1
sg1659
I15
sa(dp1682
g1655
I116
sg1656
F0.02110004425048828
sg1657
F6.580352783203125e-05
sg1658
I1
sg1659
I13
sa(dp1683
g1655
I96
sg1656
F0.01938605308532715
sg1657
F7.128715515136719e-05
sg1658
I1
sg1659
I12
sa(dp1684
g1655
I79
sg1656
F0.08589506149291992
sg1657
F7.581710815429688e-05
sg1658
I1
sg1659
I11
sa(dp1685
g1655
I64
sg1656
F0.13305401802062988
sg1657
F6.818771362304688e-05
sg1658
I1
sg1659
I10
sa(dp1686
g1655
I49
sg1656
F0.3678760528564453
sg1657
F6.67572021484375e-05
sg1658
I1
sg1659
I9
sasS'total_cqs'
p1687
I57
ssI46
(dp1688
S'iters'
p1689
I5
sS'meta'
p1690
(lp1691
(dp1692
S'objective'
p1693
I9
sS'query_time'
p1694
F0.2306678295135498
sS'comp_time'
p1695
F8.225440979003906e-05
sS'exec_cq'
p1696
I1
sS'total_cq'
p1697
I6
sa(dp1698
g1693
I5
sg1694
F0.21417689323425293
sg1695
F0.00033473968505859375
sg1696
I1
sg1697
I5
sa(dp1699
g1693
I2
sg1694
F0.23040986061096191
sg1695
F7.104873657226562e-05
sg1696
I1
sg1697
I4
sa(dp1700
g1693
I4
sg1694
F0.03460192680358887
sg1695
F0.00011515617370605469
sg1696
I1
sg1697
I3
sa(dp1701
g1693
I1
sg1694
F0.015604972839355469
sg1695
F9.584426879882812e-05
sg1696
I1
sg1697
I2
sasS'total_cqs'
p1702
I6
ssI47
(dp1703
S'iters'
p1704
I73
sS'meta'
p1705
(lp1706
(dp1707
S'objective'
p1708
I7749
sS'query_time'
p1709
F0.07318806648254395
sS'comp_time'
p1710
F0.00017595291137695312
sS'exec_cq'
p1711
I1
sS'total_cq'
p1712
I126
sa(dp1713
g1708
I7625
sg1709
F0.10970807075500488
sg1710
F0.00017309188842773438
sg1711
I1
sg1712
I125
sa(dp1714
g1708
I7502
sg1709
F0.33083391189575195
sg1710
F0.00019693374633789062
sg1711
I1
sg1712
I124
sa(dp1715
g1708
I6208
sg1709
F0.20540189743041992
sg1710
F0.00015616416931152344
sg1711
I1
sg1712
I123
sa(dp1716
g1708
I6673
sg1709
F0.18083620071411133
sg1710
F0.00015497207641601562
sg1711
I1
sg1712
I112
sa(dp1717
g1708
I6553
sg1709
F0.2357330322265625
sg1710
F0.00015616416931152344
sg1711
I1
sg1712
I111
sa(dp1718
g1708
I6436
sg1709
F0.18612003326416016
sg1710
F0.00014090538024902344
sg1711
I1
sg1712
I110
sa(dp1719
g1708
I6319
sg1709
F0.05990195274353027
sg1710
F0.00014901161193847656
sg1711
I1
sg1712
I109
sa(dp1720
g1708
I6149
sg1709
F3.1633830070495605
sg1710
F0.0022611618041992188
sg1711
I1
sg1712
I108
sa(dp1721
g1708
I5847
sg1709
F0.12042999267578125
sg1710
F0.0001971721649169922
sg1711
I1
sg1712
I106
sa(dp1722
g1708
I5840
sg1709
F0.20493078231811523
sg1710
F0.0001533031463623047
sg1711
I1
sg1712
I102
sa(dp1723
g1708
I5727
sg1709
F0.062103986740112305
sg1710
F0.00015997886657714844
sg1711
I1
sg1712
I101
sa(dp1724
g1708
I5425
sg1709
F0.10166096687316895
sg1710
F0.00015687942504882812
sg1711
I1
sg1712
I100
sa(dp1725
g1708
I5409
sg1709
F0.1388111114501953
sg1710
F0.00014781951904296875
sg1711
I1
sg1712
I98
sa(dp1726
g1708
I5299
sg1709
F0.17026209831237793
sg1710
F0.0001468658447265625
sg1711
I1
sg1712
I97
sa(dp1727
g1708
I5190
sg1709
F0.09316205978393555
sg1710
F0.00015115737915039062
sg1711
I1
sg1712
I96
sa(dp1728
g1708
I4704
sg1709
F0.14382004737854004
sg1710
F0.00013017654418945312
sg1711
I1
sg1712
I95
sa(dp1729
g1708
I4786
sg1709
F0.09957504272460938
sg1710
F0.0001418590545654297
sg1711
I1
sg1712
I91
sa(dp1730
g1708
I4680
sg1709
F0.40786194801330566
sg1710
F0.00019812583923339844
sg1711
I1
sg1712
I90
sa(dp1731
g1708
I4577
sg1709
F2.758148193359375
sg1710
F0.00013709068298339844
sg1711
I1
sg1712
I89
sa(dp1732
g1708
I4474
sg1709
F0.8332841396331787
sg1710
F0.0001780986785888672
sg1711
I1
sg1712
I88
sa(dp1733
g1708
I4372
sg1709
F6.180002927780151
sg1710
F0.0004911422729492188
sg1711
I1
sg1712
I87
sa(dp1734
g1708
I4271
sg1709
F0.1916811466217041
sg1710
F0.00011992454528808594
sg1711
I1
sg1712
I86
sa(dp1735
g1708
I4171
sg1709
F0.5005857944488525
sg1710
F0.00012803077697753906
sg1711
I1
sg1712
I85
sa(dp1736
g1708
I4072
sg1709
F0.2519700527191162
sg1710
F0.00011587142944335938
sg1711
I1
sg1712
I84
sa(dp1737
g1708
I3974
sg1709
F0.059079885482788086
sg1710
F8.606910705566406e-05
sg1711
I1
sg1712
I83
sa(dp1738
g1708
I3877
sg1709
F1.2468609809875488
sg1710
F0.00013184547424316406
sg1711
I1
sg1712
I82
sa(dp1739
g1708
I3781
sg1709
F0.04237484931945801
sg1710
F9.72747802734375e-05
sg1711
I1
sg1712
I81
sa(dp1740
g1708
I3686
sg1709
F0.5131340026855469
sg1710
F0.00011801719665527344
sg1711
I1
sg1712
I80
sa(dp1741
g1708
I3594
sg1709
F1.7058088779449463
sg1710
F0.0001850128173828125
sg1711
I1
sg1712
I79
sa(dp1742
g1708
I3504
sg1709
F0.13016486167907715
sg1710
F0.00012993812561035156
sg1711
I1
sg1712
I78
sa(dp1743
g1708
I3414
sg1709
F0.5215959548950195
sg1710
F0.00014901161193847656
sg1711
I1
sg1712
I77
sa(dp1744
g1708
I3325
sg1709
F0.5532329082489014
sg1710
F0.00012803077697753906
sg1711
I1
sg1712
I76
sa(dp1745
g1708
I3237
sg1709
F0.1950061321258545
sg1710
F0.000164031982421875
sg1711
I1
sg1712
I75
sa(dp1746
g1708
I3150
sg1709
F0.21095800399780273
sg1710
F0.0001399517059326172
sg1711
I1
sg1712
I74
sa(dp1747
g1708
I3064
sg1709
F0.1736748218536377
sg1710
F0.0001678466796875
sg1711
I1
sg1712
I73
sa(dp1748
g1708
I2155
sg1709
F0.18354082107543945
sg1710
F0.00012612342834472656
sg1711
I1
sg1712
I72
sa(dp1749
g1708
I2485
sg1709
F0.13765907287597656
sg1710
F0.0001380443572998047
sg1711
I1
sg1712
I62
sa(dp1750
g1708
I2403
sg1709
F0.13626694679260254
sg1710
F0.0002810955047607422
sg1711
I1
sg1712
I61
sa(dp1751
g1708
I2322
sg1709
F0.1782541275024414
sg1710
F0.00017881393432617188
sg1711
I1
sg1712
I60
sa(dp1752
g1708
I2244
sg1709
F0.17211008071899414
sg1710
F0.00020503997802734375
sg1711
I1
sg1712
I59
sa(dp1753
g1708
I2166
sg1709
F0.10224390029907227
sg1710
F0.0001010894775390625
sg1711
I1
sg1712
I58
sa(dp1754
g1708
I2089
sg1709
F0.14413785934448242
sg1710
F0.00011491775512695312
sg1711
I1
sg1712
I57
sa(dp1755
g1708
I2013
sg1709
F0.4706599712371826
sg1710
F0.0001671314239501953
sg1711
I1
sg1712
I56
sa(dp1756
g1708
I1940
sg1709
F0.10052490234375
sg1710
F0.00010395050048828125
sg1711
I1
sg1712
I55
sa(dp1757
g1708
I1867
sg1709
F0.12356090545654297
sg1710
F9.703636169433594e-05
sg1711
I1
sg1712
I54
sa(dp1758
g1708
I1795
sg1709
F0.1740579605102539
sg1710
F0.00010204315185546875
sg1711
I1
sg1712
I53
sa(dp1759
g1708
I1724
sg1709
F0.1651599407196045
sg1710
F0.0001990795135498047
sg1711
I1
sg1712
I52
sa(dp1760
g1708
I1654
sg1709
F0.14067792892456055
sg1710
F0.00014400482177734375
sg1711
I1
sg1712
I51
sa(dp1761
g1708
I1585
sg1709
F1.5063591003417969
sg1710
F0.00013494491577148438
sg1711
I1
sg1712
I50
sa(dp1762
g1708
I1517
sg1709
F0.4249460697174072
sg1710
F0.00011897087097167969
sg1711
I1
sg1712
I49
sa(dp1763
g1708
I1450
sg1709
F0.04769492149353027
sg1710
F0.00017118453979492188
sg1711
I1
sg1712
I48
sa(dp1764
g1708
I1384
sg1709
F0.11252689361572266
sg1710
F0.00012636184692382812
sg1711
I1
sg1712
I47
sa(dp1765
g1708
I1321
sg1709
F0.032438039779663086
sg1710
F0.00013017654418945312
sg1711
I1
sg1712
I46
sa(dp1766
g1708
I1258
sg1709
F0.02868199348449707
sg1710
F0.00010013580322265625
sg1711
I1
sg1712
I45
sa(dp1767
g1708
I1198
sg1709
F0.03195691108703613
sg1710
F8.702278137207031e-05
sg1711
I1
sg1712
I44
sa(dp1768
g1708
I1138
sg1709
F0.12322807312011719
sg1710
F0.00015282630920410156
sg1711
I1
sg1712
I43
sa(dp1769
g1708
I1079
sg1709
F0.056648969650268555
sg1710
F8.702278137207031e-05
sg1711
I1
sg1712
I42
sa(dp1770
g1708
I833
sg1709
F0.12934589385986328
sg1710
F9.322166442871094e-05
sg1711
I1
sg1712
I41
sa(dp1771
g1708
I872
sg1709
F0.02783989906311035
sg1710
F8.106231689453125e-05
sg1711
I1
sg1712
I37
sa(dp1772
g1708
I821
sg1709
F0.12400197982788086
sg1710
F0.00010395050048828125
sg1711
I1
sg1712
I36
sa(dp1773
g1708
I769
sg1709
F0.03553581237792969
sg1710
F9.512901306152344e-05
sg1711
I1
sg1712
I35
sa(dp1774
g1708
I696
sg1709
F0.3948040008544922
sg1710
F9.489059448242188e-05
sg1711
I1
sg1712
I34
sa(dp1775
g1708
I659
sg1709
F0.03568077087402344
sg1710
F0.0001628398895263672
sg1711
I1
sg1712
I32
sa(dp1776
g1708
I613
sg1709
F0.20635199546813965
sg1710
F0.00011491775512695312
sg1711
I1
sg1712
I31
sa(dp1777
g1708
I569
sg1709
F0.12774085998535156
sg1710
F0.0001430511474609375
sg1711
I1
sg1712
I30
sa(dp1778
g1708
I525
sg1709
F0.13748383522033691
sg1710
F8.0108642578125e-05
sg1711
I1
sg1712
I29
sa(dp1779
g1708
I482
sg1709
F5.230077028274536
sg1710
F0.00016117095947265625
sg1711
I1
sg1712
I28
sa(dp1780
g1708
I450
sg1709
F0.11697196960449219
sg1710
F0.0001392364501953125
sg1711
I1
sg1712
I27
sa(dp1781
g1708
I416
sg1709
F0.02104783058166504
sg1710
F7.319450378417969e-05
sg1711
I1
sg1712
I26
sa(dp1782
g1708
I382
sg1709
F0.18455815315246582
sg1710
F8.916854858398438e-05
sg1711
I1
sg1712
I25
sa(dp1783
g1708
I349
sg1709
F0.12693309783935547
sg1710
F9.012222290039062e-05
sg1711
I1
sg1712
I24
sa(dp1784
g1708
I317
sg1709
F0.02463507652282715
sg1710
F8.392333984375e-05
sg1711
I1
sg1712
I23
sasS'total_cqs'
p1785
I126
ssI48
(dp1786
S'iters'
p1787
I3
sS'meta'
p1788
(lp1789
(dp1790
S'objective'
p1791
I111
sS'query_time'
p1792
F7.98795485496521
sS'comp_time'
p1793
F0.00020694732666015625
sS'exec_cq'
p1794
I1
sS'total_cq'
p1795
I21
sa(dp1796
g1791
I40
sg1792
F0.7289960384368896
sg1793
F0.00012302398681640625
sg1794
I1
sg1795
I8
sa(dp1797
g1791
I4
sg1792
F0.39861106872558594
sg1793
F5.793571472167969e-05
sg1794
I1
sg1795
I2
sasS'total_cqs'
p1798
I21
ssI49
(dp1799
S'iters'
p1800
I29
sS'meta'
p1801
(lp1802
(dp1803
S'objective'
p1804
I2079
sS'query_time'
p1805
F0.2142009735107422
sS'comp_time'
p1806
F0.00012993812561035156
sS'exec_cq'
p1807
I1
sS'total_cq'
p1808
I66
sa(dp1809
g1804
I2015
sg1805
F0.19208002090454102
sg1806
F0.0001850128173828125
sg1807
I1
sg1808
I65
sa(dp1810
g1804
I842
sg1805
F1.0670149326324463
sg1806
F0.0001380443572998047
sg1807
I1
sg1808
I64
sa(dp1811
g1804
I1335
sg1805
F0.26192617416381836
sg1806
F0.000141143798828125
sg1807
I1
sg1808
I47
sa(dp1812
g1804
I758
sg1805
F0.40288209915161133
sg1806
F0.00012612342834472656
sg1807
I1
sg1808
I46
sa(dp1813
g1804
I958
sg1805
F0.20555806159973145
sg1806
F0.0001850128173828125
sg1807
I1
sg1808
I36
sa(dp1814
g1804
I902
sg1805
F0.6117489337921143
sg1806
F0.00010085105895996094
sg1807
I1
sg1808
I35
sa(dp1815
g1804
I846
sg1805
F0.5697901248931885
sg1806
F8.821487426757812e-05
sg1807
I1
sg1808
I34
sa(dp1816
g1804
I793
sg1805
F1.0576980113983154
sg1806
F0.0001456737518310547
sg1807
I1
sg1808
I33
sa(dp1817
g1804
I744
sg1805
F0.8656661510467529
sg1806
F8.726119995117188e-05
sg1807
I1
sg1808
I32
sa(dp1818
g1804
I696
sg1805
F0.16528010368347168
sg1806
F0.00011205673217773438
sg1807
I1
sg1808
I31
sa(dp1819
g1804
I652
sg1805
F0.1702730655670166
sg1806
F7.390975952148438e-05
sg1807
I1
sg1808
I30
sa(dp1820
g1804
I607
sg1805
F0.20174503326416016
sg1806
F8.797645568847656e-05
sg1807
I1
sg1808
I29
sa(dp1821
g1804
I565
sg1805
F0.8057260513305664
sg1806
F8.988380432128906e-05
sg1807
I1
sg1808
I28
sa(dp1822
g1804
I523
sg1805
F0.17805981636047363
sg1806
F7.581710815429688e-05
sg1807
I1
sg1808
I27
sa(dp1823
g1804
I464
sg1805
F2.7605040073394775
sg1806
F0.00017023086547851562
sg1807
I1
sg1808
I26
sa(dp1824
g1804
I433
sg1805
F0.16979598999023438
sg1806
F9.489059448242188e-05
sg1807
I1
sg1808
I23
sa(dp1825
g1804
I394
sg1805
F0.822490930557251
sg1806
F8.511543273925781e-05
sg1807
I1
sg1808
I22
sa(dp1826
g1804
I360
sg1805
F0.12836790084838867
sg1806
F7.605552673339844e-05
sg1807
I1
sg1808
I21
sa(dp1827
g1804
I279
sg1805
F0.13489103317260742
sg1806
F8.606910705566406e-05
sg1807
I1
sg1808
I20
sa(dp1828
g1804
I268
sg1805
F0.1551990509033203
sg1806
F7.486343383789062e-05
sg1807
I1
sg1808
I18
sa(dp1829
g1804
I237
sg1805
F1.6352717876434326
sg1806
F6.985664367675781e-05
sg1807
I1
sg1808
I17
sa(dp1830
g1804
I206
sg1805
F0.13682794570922852
sg1806
F0.00013399124145507812
sg1807
I1
sg1808
I16
sa(dp1831
g1804
I176
sg1805
F6.0678391456604
sg1806
F0.00023412704467773438
sg1807
I1
sg1808
I15
sa(dp1832
g1804
I147
sg1805
F0.10740399360656738
sg1806
F6.985664367675781e-05
sg1807
I1
sg1808
I14
sa(dp1833
g1804
I127
sg1805
F5.638833999633789
sg1806
F0.00011897087097167969
sg1807
I1
sg1808
I13
sa(dp1834
g1804
I110
sg1805
F0.48441600799560547
sg1806
F0.000102996826171875
sg1807
I1
sg1808
I12
sa(dp1835
g1804
I93
sg1805
F0.4087669849395752
sg1806
F6.198883056640625e-05
sg1807
I1
sg1808
I11
sa(dp1836
g1804
I76
sg1805
F0.14603710174560547
sg1806
F7.915496826171875e-05
sg1807
I1
sg1808
I10
sasS'total_cqs'
p1837
I66
ssI50
(dp1838
S'iters'
p1839
I76
sS'meta'
p1840
(lp1841
(dp1842
S'objective'
p1843
I36134
sS'query_time'
p1844
F0.3099250793457031
sS'comp_time'
p1845
F0.0003311634063720703
sS'exec_cq'
p1846
I1
sS'total_cq'
p1847
I284
sa(dp1848
g1843
I37736
sg1844
F0.3608579635620117
sg1845
F0.0002620220184326172
sg1846
I1
sg1847
I270
sa(dp1849
g1843
I37455
sg1844
F0.31045103073120117
sg1845
F0.00032401084899902344
sg1846
I1
sg1847
I269
sa(dp1850
g1843
I37175
sg1844
F0.22095203399658203
sg1845
F0.0003120899200439453
sg1846
I1
sg1847
I268
sa(dp1851
g1843
I17240
sg1844
F0.22619009017944336
sg1845
F0.00033402442932128906
sg1846
I1
sg1847
I267
sa(dp1852
g1843
I26790
sg1844
F0.4185190200805664
sg1845
F0.0002830028533935547
sg1846
I1
sg1847
I198
sa(dp1853
g1843
I23853
sg1844
F0.2755239009857178
sg1845
F0.0002579689025878906
sg1846
I1
sg1847
I197
sa(dp1854
g1843
I24913
sg1844
F0.153764009475708
sg1845
F0.0002338886260986328
sg1846
I1
sg1847
I184
sa(dp1855
g1843
I24643
sg1844
F0.3161470890045166
sg1845
F0.0002410411834716797
sg1846
I1
sg1847
I183
sa(dp1856
g1843
I23815
sg1844
F0.2798500061035156
sg1845
F0.0004723072052001953
sg1846
I1
sg1847
I182
sa(dp1857
g1843
I22659
sg1844
F0.17109203338623047
sg1845
F0.0002770423889160156
sg1846
I1
sg1847
I178
sa(dp1858
g1843
I22976
sg1844
F0.28220701217651367
sg1845
F0.0002071857452392578
sg1846
I1
sg1847
I172
sa(dp1859
g1843
I22712
sg1844
F0.22606897354125977
sg1845
F0.00022411346435546875
sg1846
I1
sg1847
I171
sa(dp1860
g1843
I22212
sg1844
F0.1796419620513916
sg1845
F0.00025177001953125
sg1846
I1
sg1847
I170
sa(dp1861
g1843
I22067
sg1844
F0.19807791709899902
sg1845
F0.00019788742065429688
sg1846
I1
sg1847
I167
sa(dp1862
g1843
I20687
sg1844
F0.11443209648132324
sg1845
F0.00021982192993164062
sg1846
I1
sg1847
I166
sa(dp1863
g1843
I20457
sg1844
F0.25735998153686523
sg1845
F0.00022912025451660156
sg1846
I1
sg1847
I160
sa(dp1864
g1843
I18695
sg1844
F0.1591930389404297
sg1845
F0.0001881122589111328
sg1846
I1
sg1847
I157
sa(dp1865
g1843
I18791
sg1844
F0.22315096855163574
sg1845
F0.00020599365234375
sg1846
I1
sg1847
I151
sa(dp1866
g1843
I18799
sg1844
F0.15282177925109863
sg1845
F0.0002319812774658203
sg1846
I1
sg1847
I148
sa(dp1867
g1843
I17627
sg1844
F0.1263279914855957
sg1845
F0.00021004676818847656
sg1846
I1
sg1847
I147
sa(dp1868
g1843
I17348
sg1844
F0.16164493560791016
sg1845
F0.00021219253540039062
sg1846
I1
sg1847
I141
sa(dp1869
g1843
I16825
sg1844
F3.112450122833252
sg1845
F0.0002009868621826172
sg1846
I1
sg1847
I138
sa(dp1870
g1843
I16839
sg1844
F0.24375700950622559
sg1845
F0.00018906593322753906
sg1846
I1
sg1847
I135
sa(dp1871
g1843
I16593
sg1844
F1.7207751274108887
sg1845
F0.00017690658569335938
sg1846
I1
sg1847
I134
sa(dp1872
g1843
I15894
sg1844
F0.07451891899108887
sg1845
F0.00017118453979492188
sg1846
I1
sg1847
I133
sa(dp1873
g1843
I14925
sg1844
F0.09623408317565918
sg1845
F0.00015687942504882812
sg1846
I1
sg1847
I129
sa(dp1874
g1843
I14636
sg1844
F0.3974030017852783
sg1845
F0.0001480579376220703
sg1846
I1
sg1847
I125
sa(dp1875
g1843
I13953
sg1844
F0.11786603927612305
sg1845
F0.00015997886657714844
sg1846
I1
sg1847
I122
sa(dp1876
g1843
I13101
sg1844
F0.10023903846740723
sg1845
F0.00017023086547851562
sg1846
I1
sg1847
I117
sa(dp1877
g1843
I13358
sg1844
F0.0952761173248291
sg1845
F0.00014400482177734375
sg1846
I1
sg1847
I111
sa(dp1878
g1843
I13127
sg1844
F0.21696901321411133
sg1845
F0.00017404556274414062
sg1846
I1
sg1847
I110
sa(dp1879
g1843
I12899
sg1844
F0.11177611351013184
sg1845
F0.00014591217041015625
sg1846
I1
sg1847
I109
sa(dp1880
g1843
I11379
sg1844
F0.11859583854675293
sg1845
F0.00012421607971191406
sg1846
I1
sg1847
I108
sa(dp1881
g1843
I11800
sg1844
F0.08761286735534668
sg1845
F0.00013518333435058594
sg1846
I1
sg1847
I102
sa(dp1882
g1843
I11193
sg1844
F0.10956096649169922
sg1845
F0.00013899803161621094
sg1846
I1
sg1847
I101
sa(dp1883
g1843
I9324
sg1844
F0.0721590518951416
sg1845
F0.00012803077697753906
sg1846
I1
sg1847
I98
sa(dp1884
g1843
I10019
sg1844
F0.10815691947937012
sg1845
F0.00013494491577148438
sg1846
I1
sg1847
I92
sa(dp1885
g1843
I8867
sg1844
F0.14704298973083496
sg1845
F0.00013709068298339844
sg1846
I1
sg1847
I91
sa(dp1886
g1843
I9111
sg1844
F0.07612013816833496
sg1845
F0.0001239776611328125
sg1846
I1
sg1847
I87
sa(dp1887
g1843
I8201
sg1844
F3.2501978874206543
sg1845
F0.0002162456512451172
sg1846
I1
sg1847
I86
sa(dp1888
g1843
I8333
sg1844
F0.16409802436828613
sg1845
F0.00015211105346679688
sg1846
I1
sg1847
I83
sa(dp1889
g1843
I8118
sg1844
F0.17846202850341797
sg1845
F0.00016188621520996094
sg1846
I1
sg1847
I82
sa(dp1890
g1843
I6974
sg1844
F0.09987616539001465
sg1845
F0.00017023086547851562
sg1846
I1
sg1847
I81
sa(dp1891
g1843
I6914
sg1844
F0.1657390594482422
sg1845
F0.0001399517059326172
sg1846
I1
sg1847
I75
sa(dp1892
g1843
I6046
sg1844
F0.1636209487915039
sg1845
F0.00015926361083984375
sg1846
I1
sg1847
I72
sa(dp1893
g1843
I6267
sg1844
F0.18421411514282227
sg1845
F0.0001361370086669922
sg1846
I1
sg1847
I68
sa(dp1894
g1843
I6072
sg1844
F0.173814058303833
sg1845
F0.0001068115234375
sg1846
I1
sg1847
I67
sa(dp1895
g1843
I5595
sg1844
F0.18414592742919922
sg1845
F0.0001621246337890625
sg1846
I1
sg1847
I66
sa(dp1896
g1843
I4876
sg1844
F0.04519295692443848
sg1845
F0.00013709068298339844
sg1846
I1
sg1847
I64
sa(dp1897
g1843
I4824
sg1844
F0.1701829433441162
sg1845
F0.00013518333435058594
sg1846
I1
sg1847
I61
sa(dp1898
g1843
I4746
sg1844
F0.07731389999389648
sg1845
F0.00013899803161621094
sg1846
I1
sg1847
I59
sa(dp1899
g1843
I4476
sg1844
F0.035032033920288086
sg1845
F0.0001327991485595703
sg1846
I1
sg1847
I58
sa(dp1900
g1843
I3963
sg1844
F0.09775710105895996
sg1845
F0.00013303756713867188
sg1846
I1
sg1847
I56
sa(dp1901
g1843
I3687
sg1844
F0.04937911033630371
sg1845
F9.202957153320312e-05
sg1846
I1
sg1847
I53
sa(dp1902
g1843
I3042
sg1844
F0.16283917427062988
sg1845
F0.00013399124145507812
sg1846
I1
sg1847
I50
sa(dp1903
g1843
I3160
sg1844
F0.048812150955200195
sg1845
F0.0001010894775390625
sg1846
I1
sg1847
I46
sa(dp1904
g1843
I3033
sg1844
F0.05613899230957031
sg1845
F9.989738464355469e-05
sg1846
I1
sg1847
I44
sa(dp1905
g1843
I2404
sg1844
F0.3675508499145508
sg1845
F0.00011587142944335938
sg1846
I1
sg1847
I43
sa(dp1906
g1843
I2508
sg1844
F0.1672220230102539
sg1845
F9.918212890625e-05
sg1846
I1
sg1847
I40
sa(dp1907
g1843
I2284
sg1844
F0.061250925064086914
sg1845
F0.00014400482177734375
sg1846
I1
sg1847
I39
sa(dp1908
g1843
I2202
sg1844
F0.18952178955078125
sg1845
F0.0001010894775390625
sg1846
I1
sg1847
I37
sa(dp1909
g1843
I1727
sg1844
F0.15326595306396484
sg1845
F0.00012421607971191406
sg1846
I1
sg1847
I36
sa(dp1910
g1843
I1787
sg1844
F0.0845491886138916
sg1845
F0.00011587142944335938
sg1846
I1
sg1847
I32
sa(dp1911
g1843
I1669
sg1844
F0.03787493705749512
sg1845
F6.413459777832031e-05
sg1846
I1
sg1847
I31
sa(dp1912
g1843
I1567
sg1844
F0.03390097618103027
sg1845
F8.416175842285156e-05
sg1846
I1
sg1847
I30
sa(dp1913
g1843
I1362
sg1844
F0.03780388832092285
sg1845
F6.4849853515625e-05
sg1846
I1
sg1847
I29
sa(dp1914
g1843
I1316
sg1844
F0.12765192985534668
sg1845
F0.000102996826171875
sg1846
I1
sg1847
I27
sa(dp1915
g1843
I1054
sg1844
F0.035893917083740234
sg1845
F8.702278137207031e-05
sg1846
I1
sg1847
I26
sa(dp1916
g1843
I1064
sg1844
F0.05301499366760254
sg1845
F8.487701416015625e-05
sg1846
I1
sg1847
I24
sa(dp1917
g1843
I980
sg1844
F0.03831005096435547
sg1845
F5.4836273193359375e-05
sg1846
I1
sg1847
I23
sa(dp1918
g1843
I897
sg1844
F0.07788801193237305
sg1845
F9.799003601074219e-05
sg1846
I1
sg1847
I22
sa(dp1919
g1843
I815
sg1844
F0.04137897491455078
sg1845
F7.891654968261719e-05
sg1846
I1
sg1847
I21
sa(dp1920
g1843
I748
sg1844
F0.04910397529602051
sg1845
F6.914138793945312e-05
sg1846
I1
sg1847
I20
sa(dp1921
g1843
I581
sg1844
F0.016819000244140625
sg1845
F6.508827209472656e-05
sg1846
I1
sg1847
I19
sa(dp1922
g1843
I558
sg1844
F0.027996063232421875
sg1845
F6.508827209472656e-05
sg1846
I1
sg1847
I16
sasS'total_cqs'
p1923
I284
ssI51
(dp1924
S'iters'
p1925
I1
sS'meta'
p1926
(lp1927
(dp1928
S'objective'
p1929
I1
sS'query_time'
p1930
F0.19311094284057617
sS'comp_time'
p1931
F6.914138793945312e-05
sS'exec_cq'
p1932
I1
sS'total_cq'
p1933
I2
sasS'total_cqs'
p1934
I2
ssI52
(dp1935
S'iters'
p1936
I0
sS'meta'
p1937
(lp1938
sS'total_cqs'
p1939
I1
ssI53
(dp1940
S'iters'
p1941
I1
sS'meta'
p1942
(lp1943
(dp1944
S'objective'
p1945
I1
sS'query_time'
p1946
F0.3765389919281006
sS'comp_time'
p1947
F6.699562072753906e-05
sS'exec_cq'
p1948
I1
sS'total_cq'
p1949
I2
sasS'total_cqs'
p1950
I2
ssI54
(dp1951
S'iters'
p1952
I17
sS'meta'
p1953
(lp1954
(dp1955
S'objective'
p1956
I324
sS'query_time'
p1957
F0.046237945556640625
sS'comp_time'
p1958
F8.225440979003906e-05
sS'exec_cq'
p1959
I1
sS'total_cq'
p1960
I27
sa(dp1961
g1956
I259
sg1957
F0.1988658905029297
sg1958
F9.417533874511719e-05
sg1959
I1
sg1960
I26
sa(dp1962
g1956
I255
sg1957
F0.1676011085510254
sg1958
F8.797645568847656e-05
sg1959
I1
sg1960
I24
sa(dp1963
g1956
I232
sg1957
F0.18245816230773926
sg1958
F9.298324584960938e-05
sg1959
I1
sg1960
I23
sa(dp1964
g1956
I210
sg1957
F0.17096781730651855
sg1958
F7.796287536621094e-05
sg1959
I1
sg1960
I22
sa(dp1965
g1956
I189
sg1957
F0.34000396728515625
sg1958
F8.821487426757812e-05
sg1959
I1
sg1960
I21
sa(dp1966
g1956
I137
sg1957
F0.05420398712158203
sg1958
F9.298324584960938e-05
sg1959
I1
sg1960
I20
sa(dp1967
g1956
I136
sg1957
F0.1861109733581543
sg1958
F7.891654968261719e-05
sg1959
I1
sg1960
I18
sa(dp1968
g1956
I99
sg1957
F0.046920061111450195
sg1958
F8.20159912109375e-05
sg1959
I1
sg1960
I17
sa(dp1969
g1956
I93
sg1957
F0.5534341335296631
sg1958
F0.00011897087097167969
sg1959
I1
sg1960
I14
sa(dp1970
g1956
I58
sg1957
F0.04137301445007324
sg1958
F6.604194641113281e-05
sg1959
I1
sg1960
I13
sa(dp1971
g1956
I56
sg1957
F0.1951000690460205
sg1958
F7.82012939453125e-05
sg1959
I1
sg1960
I11
sa(dp1972
g1956
I44
sg1957
F0.028649091720581055
sg1958
F0.0001049041748046875
sg1959
I1
sg1960
I10
sa(dp1973
g1956
I33
sg1957
F0.17811107635498047
sg1958
F7.128715515136719e-05
sg1959
I1
sg1960
I9
sa(dp1974
g1956
I25
sg1957
F0.0849771499633789
sg1958
F6.794929504394531e-05
sg1959
I1
sg1960
I8
sa(dp1975
g1956
I5
sg1957
F0.021539926528930664
sg1958
F5.412101745605469e-05
sg1959
I1
sg1960
I7
sa(dp1976
g1956
I1
sg1957
F0.00086212158203125
sg1958
F4.696846008300781e-05
sg1959
I1
sg1960
I2
sasS'total_cqs'
p1977
I27
ssI55
(dp1978
S'iters'
p1979
I23
sS'meta'
p1980
(lp1981
(dp1982
S'objective'
p1983
I1100
sS'query_time'
p1984
F0.16482186317443848
sS'comp_time'
p1985
F0.0001499652862548828
sS'exec_cq'
p1986
I1
sS'total_cq'
p1987
I55
sa(dp1988
g1983
I1212
sg1984
F0.0830078125
sg1985
F0.00011610984802246094
sg1986
I1
sg1987
I50
sa(dp1989
g1983
I890
sg1984
F0.10138797760009766
sg1985
F0.000118255615234375
sg1986
I1
sg1987
I49
sa(dp1990
g1983
I968
sg1984
F0.0751180648803711
sg1985
F0.00011610984802246094
sg1986
I1
sg1987
I44
sa(dp1991
g1983
I927
sg1984
F0.08292293548583984
sg1985
F0.00011491775512695312
sg1986
I1
sg1987
I41
sa(dp1992
g1983
I649
sg1984
F0.05558204650878906
sg1985
F0.00011181831359863281
sg1986
I1
sg1987
I40
sa(dp1993
g1983
I706
sg1984
F0.04957699775695801
sg1985
F7.987022399902344e-05
sg1986
I1
sg1987
I34
sa(dp1994
g1983
I403
sg1984
F0.0861361026763916
sg1985
F0.00011992454528808594
sg1986
I1
sg1987
I32
sa(dp1995
g1983
I497
sg1984
F0.07988214492797852
sg1985
F0.00010895729064941406
sg1986
I1
sg1987
I26
sa(dp1996
g1983
I461
sg1984
F0.049661874771118164
sg1985
F8.893013000488281e-05
sg1986
I1
sg1987
I25
sa(dp1997
g1983
I424
sg1984
F0.0825340747833252
sg1985
F9.584426879882812e-05
sg1986
I1
sg1987
I24
sa(dp1998
g1983
I290
sg1984
F2.229823112487793
sg1985
F0.00019407272338867188
sg1986
I1
sg1987
I23
sa(dp1999
g1983
I310
sg1984
F0.0323638916015625
sg1985
F7.891654968261719e-05
sg1986
I1
sg1987
I20
sa(dp2000
g1983
I279
sg1984
F0.034876108169555664
sg1985
F6.985664367675781e-05
sg1986
I1
sg1987
I19
sa(dp2001
g1983
I233
sg1984
F0.05965900421142578
sg1985
F8.106231689453125e-05
sg1986
I1
sg1987
I18
sa(dp2002
g1983
I212
sg1984
F0.16300702095031738
sg1985
F7.796287536621094e-05
sg1986
I1
sg1987
I16
sa(dp2003
g1983
I184
sg1984
F0.04258894920349121
sg1985
F8.20159912109375e-05
sg1986
I1
sg1987
I15
sa(dp2004
g1983
I117
sg1984
F0.16718101501464844
sg1985
F6.985664367675781e-05
sg1986
I1
sg1987
I14
sa(dp2005
g1983
I115
sg1984
F0.16710400581359863
sg1985
F6.389617919921875e-05
sg1986
I1
sg1987
I11
sa(dp2006
g1983
I94
sg1984
F0.018873929977416992
sg1985
F5.793571472167969e-05
sg1986
I1
sg1987
I10
sa(dp2007
g1983
I45
sg1984
F0.48253512382507324
sg1985
F0.00010418891906738281
sg1986
I1
sg1987
I9
sa(dp2008
g1983
I45
sg1984
F0.08967399597167969
sg1985
F4.76837158203125e-05
sg1986
I1
sg1987
I7
sa(dp2009
g1983
I33
sg1984
F0.016587018966674805
sg1985
F7.891654968261719e-05
sg1986
I1
sg1987
I6
sasS'total_cqs'
p2010
I55
ssI56
(dp2011
S'iters'
p2012
I31
sS'meta'
p2013
(lp2014
(dp2015
S'objective'
p2016
I3239
sS'query_time'
p2017
F1.9921329021453857
sS'comp_time'
p2018
F0.0002009868621826172
sS'exec_cq'
p2019
I1
sS'total_cq'
p2020
I82
sa(dp2021
g2016
I2117
sg2017
F0.5155830383300781
sg2018
F0.00013709068298339844
sg2019
I1
sg2020
I81
sa(dp2022
g2016
I2327
sg2017
F1.0632078647613525
sg2018
F0.0001380443572998047
sg2019
I1
sg2020
I65
sa(dp2023
g2016
I2245
sg2017
F0.42514801025390625
sg2018
F0.000125885009765625
sg2019
I1
sg2020
I62
sa(dp2024
g2016
I1848
sg2017
F0.47671008110046387
sg2018
F0.0001418590545654297
sg2019
I1
sg2020
I60
sa(dp2025
g2016
I1874
sg2017
F0.3468010425567627
sg2018
F0.00023317337036132812
sg2019
I1
sg2020
I54
sa(dp2026
g2016
I1845
sg2017
F1.075833797454834
sg2018
F0.00015592575073242188
sg2019
I1
sg2020
I52
sa(dp2027
g2016
I1602
sg2017
F2.2467639446258545
sg2018
F0.0011229515075683594
sg2019
I1
sg2020
I51
sa(dp2028
g2016
I1467
sg2017
F0.5904879570007324
sg2018
F0.00011014938354492188
sg2019
I1
sg2020
I48
sa(dp2029
g2016
I1464
sg2017
F0.7524621486663818
sg2018
F0.00020503997802734375
sg2019
I1
sg2020
I45
sa(dp2030
g2016
I1397
sg2017
F0.3336029052734375
sg2018
F0.000102996826171875
sg2019
I1
sg2020
I43
sa(dp2031
g2016
I1332
sg2017
F0.6814420223236084
sg2018
F0.00010085105895996094
sg2019
I1
sg2020
I42
sa(dp2032
g2016
I1196
sg2017
F0.42437195777893066
sg2018
F0.00013685226440429688
sg2019
I1
sg2020
I41
sa(dp2033
g2016
I1128
sg2017
F0.3931910991668701
sg2018
F0.00011396408081054688
sg2019
I1
sg2020
I39
sa(dp2034
g2016
I671
sg2017
F0.22878289222717285
sg2018
F0.00010776519775390625
sg2019
I1
sg2020
I37
sa(dp2035
g2016
I778
sg2017
F0.32612109184265137
sg2018
F9.298324584960938e-05
sg2019
I1
sg2020
I29
sa(dp2036
g2016
I734
sg2017
F0.5590670108795166
sg2018
F0.0010662078857421875
sg2019
I1
sg2020
I27
sa(dp2037
g2016
I681
sg2017
F0.7765021324157715
sg2018
F8.893013000488281e-05
sg2019
I1
sg2020
I26
sa(dp2038
g2016
I625
sg2017
F0.594184160232544
sg2018
F7.414817810058594e-05
sg2019
I1
sg2020
I25
sa(dp2039
g2016
I570
sg2017
F0.29415297508239746
sg2018
F6.508827209472656e-05
sg2019
I1
sg2020
I24
sa(dp2040
g2016
I430
sg2017
F0.2980010509490967
sg2018
F6.127357482910156e-05
sg2019
I1
sg2020
I23
sa(dp2041
g2016
I426
sg2017
F0.9982690811157227
sg2018
F0.0005030632019042969
sg2019
I1
sg2020
I21
sa(dp2042
g2016
I319
sg2017
F0.9577298164367676
sg2018
F9.799003601074219e-05
sg2019
I1
sg2020
I20
sa(dp2043
g2016
I308
sg2017
F0.456218957901001
sg2018
F0.00017189979553222656
sg2019
I1
sg2020
I18
sa(dp2044
g2016
I207
sg2017
F0.9456560611724854
sg2018
F0.00014328956604003906
sg2019
I1
sg2020
I16
sa(dp2045
g2016
I204
sg2017
F0.3313570022583008
sg2018
F9.012222290039062e-05
sg2019
I1
sg2020
I14
sa(dp2046
g2016
I168
sg2017
F0.898745059967041
sg2018
F0.00017595291137695312
sg2019
I1
sg2020
I13
sa(dp2047
g2016
I133
sg2017
F0.3501851558685303
sg2018
F8.916854858398438e-05
sg2019
I1
sg2020
I12
sa(dp2048
g2016
I103
sg2017
F0.644111156463623
sg2018
F6.794929504394531e-05
sg2019
I1
sg2020
I11
sa(dp2049
g2016
I84
sg2017
F0.2767019271850586
sg2018
F5.4836273193359375e-05
sg2019
I1
sg2020
I10
sa(dp2050
g2016
I66
sg2017
F0.340425968170166
sg2018
F5.0067901611328125e-05
sg2019
I1
sg2020
I9
sasS'total_cqs'
p2051
I82
ssI57
(dp2052
S'iters'
p2053
I1
sS'meta'
p2054
(lp2055
(dp2056
S'objective'
p2057
I1
sS'query_time'
p2058
F0.17234492301940918
sS'comp_time'
p2059
F6.699562072753906e-05
sS'exec_cq'
p2060
I1
sS'total_cq'
p2061
I2
sasS'total_cqs'
p2062
I2
ssI58
(dp2063
S'iters'
p2064
I80
sS'meta'
p2065
(lp2066
(dp2067
S'objective'
p2068
I35114
sS'query_time'
p2069
F0.1829221248626709
sS'comp_time'
p2070
F0.0003383159637451172
sS'exec_cq'
p2071
I1
sS'total_cq'
p2072
I284
sa(dp2073
g2068
I37226
sg2069
F0.16260004043579102
sg2070
F0.0003178119659423828
sg2071
I1
sg2072
I264
sa(dp2074
g2068
I32593
sg2069
F0.2057199478149414
sg2070
F0.0003490447998046875
sg2071
I1
sg2072
I263
sa(dp2075
g2068
I34489
sg2069
F0.394636869430542
sg2070
F0.0003070831298828125
sg2071
I1
sg2072
I249
sa(dp2076
g2068
I34210
sg2069
F0.3368978500366211
sg2070
F0.0002989768981933594
sg2071
I1
sg2072
I248
sa(dp2077
g2068
I27824
sg2069
F0.2803330421447754
sg2070
F0.00030922889709472656
sg2071
I1
sg2072
I247
sa(dp2078
g2068
I25353
sg2069
F0.3383190631866455
sg2070
F0.00028395652770996094
sg2071
I1
sg2072
I226
sa(dp2079
g2068
I26771
sg2069
F0.20114588737487793
sg2070
F0.00028014183044433594
sg2071
I1
sg2072
I203
sa(dp2080
g2068
I26961
sg2069
F0.3071000576019287
sg2070
F0.00031304359436035156
sg2071
I1
sg2072
I200
sa(dp2081
g2068
I25441
sg2069
F0.25287890434265137
sg2070
F0.00027298927307128906
sg2071
I1
sg2072
I199
sa(dp2082
g2068
I25487
sg2069
F0.22984004020690918
sg2070
F0.00029087066650390625
sg2071
I1
sg2072
I193
sa(dp2083
g2068
I24627
sg2069
F0.2277050018310547
sg2070
F0.00030994415283203125
sg2071
I1
sg2072
I190
sa(dp2084
g2068
I19154
sg2069
F0.11407995223999023
sg2070
F0.00024509429931640625
sg2071
I1
sg2072
I187
sa(dp2085
g2068
I20856
sg2069
F1.98494291305542
sg2070
F0.00025582313537597656
sg2071
I1
sg2072
I162
sa(dp2086
g2068
I20996
sg2069
F0.15249085426330566
sg2070
F0.00022530555725097656
sg2071
I1
sg2072
I158
sa(dp2087
g2068
I18927
sg2069
F0.10130882263183594
sg2070
F0.00024008750915527344
sg2071
I1
sg2072
I157
sa(dp2088
g2068
I16986
sg2069
F0.12329792976379395
sg2070
F0.00022602081298828125
sg2071
I1
sg2072
I150
sa(dp2089
g2068
I18011
sg2069
F0.17815399169921875
sg2070
F0.00020575523376464844
sg2071
I1
sg2072
I140
sa(dp2090
g2068
I17752
sg2069
F0.2201220989227295
sg2070
F0.0002300739288330078
sg2071
I1
sg2072
I139
sa(dp2091
g2068
I16516
sg2069
F0.1218709945678711
sg2070
F0.0002009868621826172
sg2071
I1
sg2072
I138
sa(dp2092
g2068
I16131
sg2069
F0.11965608596801758
sg2070
F0.0008001327514648438
sg2071
I1
sg2072
I133
sa(dp2093
g2068
I15360
sg2069
F0.19777917861938477
sg2070
F0.00015592575073242188
sg2071
I1
sg2072
I130
sa(dp2094
g2068
I14603
sg2069
F0.14534401893615723
sg2070
F0.00021004676818847656
sg2071
I1
sg2072
I127
sa(dp2095
g2068
I14142
sg2069
F0.220991849899292
sg2070
F0.00017714500427246094
sg2071
I1
sg2072
I122
sa(dp2096
g2068
I14225
sg2069
F2.0770418643951416
sg2070
F0.00019407272338867188
sg2071
I1
sg2072
I118
sa(dp2097
g2068
I12781
sg2069
F0.07490110397338867
sg2070
F0.00021719932556152344
sg2071
I1
sg2072
I117
sa(dp2098
g2068
I13135
sg2069
F0.15810179710388184
sg2070
F0.00015807151794433594
sg2071
I1
sg2072
I112
sa(dp2099
g2068
I12896
sg2069
F0.5146877765655518
sg2070
F0.00018334388732910156
sg2071
I1
sg2072
I111
sa(dp2100
g2068
I12655
sg2069
F0.21569514274597168
sg2070
F0.00014495849609375
sg2071
I1
sg2072
I110
sa(dp2101
g2068
I12419
sg2069
F0.1703321933746338
sg2070
F0.00013875961303710938
sg2071
I1
sg2072
I109
sa(dp2102
g2068
I11340
sg2069
F0.19469404220581055
sg2070
F0.00014591217041015625
sg2071
I1
sg2072
I108
sa(dp2103
g2068
I11533
sg2069
F0.08564615249633789
sg2070
F0.00013899803161621094
sg2071
I1
sg2072
I104
sa(dp2104
g2068
I10844
sg2069
F0.24913907051086426
sg2070
F0.00014901161193847656
sg2071
I1
sg2072
I103
sa(dp2105
g2068
I10279
sg2069
F0.16266298294067383
sg2070
F0.00013017654418945312
sg2071
I1
sg2072
I99
sa(dp2106
g2068
I10336
sg2069
F0.10589408874511719
sg2070
F0.0001373291015625
sg2071
I1
sg2072
I96
sa(dp2107
g2068
I9318
sg2069
F0.27706217765808105
sg2070
F0.00014901161193847656
sg2071
I1
sg2072
I95
sa(dp2108
g2068
I9499
sg2069
F0.07254195213317871
sg2070
F0.00014019012451171875
sg2071
I1
sg2072
I92
sa(dp2109
g2068
I9282
sg2069
F0.4156310558319092
sg2070
F0.00012922286987304688
sg2071
I1
sg2072
I91
sa(dp2110
g2068
I8513
sg2069
F0.12842488288879395
sg2070
F0.00013709068298339844
sg2071
I1
sg2072
I90
sa(dp2111
g2068
I8573
sg2069
F0.19766998291015625
sg2070
F0.00013208389282226562
sg2071
I1
sg2072
I86
sa(dp2112
g2068
I8362
sg2069
F0.10198092460632324
sg2070
F0.00014519691467285156
sg2071
I1
sg2072
I85
sa(dp2113
g2068
I8156
sg2069
F0.18584394454956055
sg2070
F0.00011801719665527344
sg2071
I1
sg2072
I84
sa(dp2114
g2068
I7248
sg2069
F3.280287027359009
sg2070
F0.00115203857421875
sg2071
I1
sg2072
I83
sa(dp2115
g2068
I7397
sg2069
F0.20091986656188965
sg2070
F0.0001761913299560547
sg2071
I1
sg2072
I80
sa(dp2116
g2068
I7196
sg2069
F1.727813959121704
sg2070
F0.00017595291137695312
sg2071
I1
sg2072
I79
sa(dp2117
g2068
I6995
sg2069
F0.07915902137756348
sg2070
F0.0001399517059326172
sg2071
I1
sg2072
I78
sa(dp2118
g2068
I6797
sg2069
F0.07354998588562012
sg2070
F0.0001308917999267578
sg2071
I1
sg2072
I77
sa(dp2119
g2068
I6601
sg2069
F0.12572407722473145
sg2070
F0.0001671314239501953
sg2071
I1
sg2072
I76
sa(dp2120
g2068
I6407
sg2069
F0.08553481101989746
sg2070
F0.0001380443572998047
sg2071
I1
sg2072
I75
sa(dp2121
g2068
I6213
sg2069
F0.09347820281982422
sg2070
F0.00011420249938964844
sg2071
I1
sg2072
I74
sa(dp2122
g2068
I5672
sg2069
F0.09998083114624023
sg2070
F0.00011515617370605469
sg2071
I1
sg2072
I73
sa(dp2123
g2068
I5674
sg2069
F0.07880997657775879
sg2070
F0.0001010894775390625
sg2071
I1
sg2072
I69
sa(dp2124
g2068
I5493
sg2069
F0.057489871978759766
sg2070
F0.0001270771026611328
sg2071
I1
sg2072
I68
sa(dp2125
g2068
I5313
sg2069
F0.06271100044250488
sg2070
F0.0001239776611328125
sg2071
I1
sg2072
I67
sa(dp2126
g2068
I4612
sg2069
F0.10714197158813477
sg2070
F0.00013113021850585938
sg2071
I1
sg2072
I66
sa(dp2127
g2068
I4539
sg2069
F0.1912379264831543
sg2070
F0.0001399517059326172
sg2071
I1
sg2072
I63
sa(dp2128
g2068
I3830
sg2069
F0.05921006202697754
sg2070
F0.00011968612670898438
sg2071
I1
sg2072
I60
sa(dp2129
g2068
I3969
sg2069
F0.09110379219055176
sg2070
F0.0001289844512939453
sg2071
I1
sg2072
I56
sa(dp2130
g2068
I3459
sg2069
F0.03212594985961914
sg2070
F0.0001239776611328125
sg2071
I1
sg2072
I55
sa(dp2131
g2068
I3464
sg2069
F0.08243989944458008
sg2070
F0.00011110305786132812
sg2071
I1
sg2072
I53
sa(dp2132
g2068
I2712
sg2069
F0.07901215553283691
sg2070
F0.00015091896057128906
sg2071
I1
sg2072
I52
sa(dp2133
g2068
I2888
sg2069
F0.14102411270141602
sg2070
F9.179115295410156e-05
sg2071
I1
sg2072
I47
sa(dp2134
g2068
I2752
sg2069
F0.04358482360839844
sg2070
F0.00010085105895996094
sg2071
I1
sg2072
I46
sa(dp2135
g2068
I2615
sg2069
F0.040754079818725586
sg2070
F7.104873657226562e-05
sg2071
I1
sg2072
I45
sa(dp2136
g2068
I2481
sg2069
F0.07258200645446777
sg2070
F0.00010895729064941406
sg2071
I1
sg2072
I44
sa(dp2137
g2068
I2349
sg2069
F0.06313490867614746
sg2070
F8.7738037109375e-05
sg2071
I1
sg2072
I43
sa(dp2138
g2068
I2077
sg2069
F0.3266890048980713
sg2070
F8.487701416015625e-05
sg2071
I1
sg2072
I42
sa(dp2139
g2068
I2024
sg2069
F0.04024195671081543
sg2070
F8.487701416015625e-05
sg2071
I1
sg2072
I40
sa(dp2140
g2068
I1458
sg2069
F0.159959077835083
sg2070
F9.107589721679688e-05
sg2071
I1
sg2072
I39
sa(dp2141
g2068
I1561
sg2069
F0.03653407096862793
sg2070
F7.987022399902344e-05
sg2071
I1
sg2072
I34
sa(dp2142
g2068
I1441
sg2069
F0.15430808067321777
sg2070
F0.0001010894775390625
sg2071
I1
sg2072
I33
sa(dp2143
g2068
I1118
sg2069
F1.3476581573486328
sg2070
F0.00016999244689941406
sg2071
I1
sg2072
I32
sa(dp2144
g2068
I1118
sg2069
F0.1372530460357666
sg2070
F0.00011396408081054688
sg2071
I1
sg2072
I30
sa(dp2145
g2068
I1019
sg2069
F0.13175487518310547
sg2070
F0.0001010894775390625
sg2071
I1
sg2072
I29
sa(dp2146
g2068
I936
sg2069
F0.1002798080444336
sg2070
F7.605552673339844e-05
sg2071
I1
sg2072
I28
sa(dp2147
g2068
I746
sg2069
F0.03065013885498047
sg2070
F6.103515625e-05
sg2071
I1
sg2072
I27
sa(dp2148
g2068
I726
sg2069
F0.03946208953857422
sg2070
F0.000102996826171875
sg2071
I1
sg2072
I25
sa(dp2149
g2068
I653
sg2069
F0.03660106658935547
sg2070
F7.104873657226562e-05
sg2071
I1
sg2072
I24
sa(dp2150
g2068
I530
sg2069
F0.027598857879638672
sg2070
F7.200241088867188e-05
sg2071
I1
sg2072
I23
sa(dp2151
g2068
I44
sg2069
F0.0018579959869384766
sg2070
F6.198883056640625e-05
sg2071
I1
sg2072
I2
sasS'total_cqs'
p2152
I284
ssI59
(dp2153
S'iters'
p2154
I1
sS'meta'
p2155
(lp2156
(dp2157
S'objective'
p2158
I1
sS'query_time'
p2159
F0.15178894996643066
sS'comp_time'
p2160
F6.413459777832031e-05
sS'exec_cq'
p2161
I1
sS'total_cq'
p2162
I2
sasS'total_cqs'
p2163
I2
ssI60
(dp2164
S'iters'
p2165
I27
sS'meta'
p2166
(lp2167
(dp2168
S'objective'
p2169
I1602
sS'query_time'
p2170
F0.14765715599060059
sS'comp_time'
p2171
F0.00013303756713867188
sS'exec_cq'
p2172
I1
sS'total_cq'
p2173
I63
sa(dp2174
g2169
I1575
sg2170
F0.0348200798034668
sg2171
F0.00010800361633300781
sg2172
I1
sg2173
I57
sa(dp2175
g2169
I1570
sg2170
F0.042463064193725586
sg2171
F9.298324584960938e-05
sg2172
I1
sg2173
I55
sa(dp2176
g2169
I1511
sg2170
F0.0514068603515625
sg2171
F9.918212890625e-05
sg2172
I1
sg2173
I54
sa(dp2177
g2169
I1453
sg2170
F0.030531883239746094
sg2171
F9.226799011230469e-05
sg2172
I1
sg2173
I53
sa(dp2178
g2169
I1398
sg2170
F0.04017496109008789
sg2171
F8.606910705566406e-05
sg2172
I1
sg2173
I52
sa(dp2179
g2169
I393
sg2170
F0.042807817459106445
sg2171
F8.797645568847656e-05
sg2172
I1
sg2173
I51
sa(dp2180
g2169
I736
sg2170
F0.028846025466918945
sg2171
F8.511543273925781e-05
sg2172
I1
sg2173
I35
sa(dp2181
g2169
I726
sg2170
F0.039917945861816406
sg2171
F8.487701416015625e-05
sg2172
I1
sg2173
I31
sa(dp2182
g2169
I676
sg2170
F0.09910297393798828
sg2171
F8.702278137207031e-05
sg2172
I1
sg2173
I30
sa(dp2183
g2169
I579
sg2170
F0.025794029235839844
sg2171
F7.390975952148438e-05
sg2172
I1
sg2173
I29
sa(dp2184
g2169
I557
sg2170
F0.026440858840942383
sg2171
F6.818771362304688e-05
sg2172
I1
sg2173
I27
sa(dp2185
g2169
I511
sg2170
F0.4527740478515625
sg2171
F0.0002589225769042969
sg2172
I1
sg2173
I26
sa(dp2186
g2169
I466
sg2170
F0.02530503273010254
sg2171
F0.0010340213775634766
sg2172
I1
sg2173
I25
sa(dp2187
g2169
I422
sg2170
F0.07617712020874023
sg2171
F8.7738037109375e-05
sg2172
I1
sg2173
I24
sa(dp2188
g2169
I379
sg2170
F0.08420109748840332
sg2171
F0.0003139972686767578
sg2172
I1
sg2173
I23
sa(dp2189
g2169
I339
sg2170
F0.16722989082336426
sg2171
F0.00010418891906738281
sg2172
I1
sg2173
I22
sa(dp2190
g2169
I193
sg2170
F0.021821022033691406
sg2171
F7.295608520507812e-05
sg2172
I1
sg2173
I21
sa(dp2191
g2169
I215
sg2170
F0.04116988182067871
sg2171
F8.726119995117188e-05
sg2172
I1
sg2173
I18
sa(dp2192
g2169
I189
sg2170
F0.036553144454956055
sg2171
F8.702278137207031e-05
sg2172
I1
sg2173
I17
sa(dp2193
g2169
I160
sg2170
F0.030277013778686523
sg2171
F7.891654968261719e-05
sg2172
I1
sg2173
I16
sa(dp2194
g2169
I144
sg2170
F0.1561110019683838
sg2171
F8.606910705566406e-05
sg2172
I1
sg2173
I15
sa(dp2195
g2169
I123
sg2170
F0.025738954544067383
sg2171
F6.508827209472656e-05
sg2172
I1
sg2173
I14
sa(dp2196
g2169
I103
sg2170
F0.016227006912231445
sg2171
F5.221366882324219e-05
sg2172
I1
sg2173
I13
sa(dp2197
g2169
I84
sg2170
F0.14338111877441406
sg2171
F7.486343383789062e-05
sg2172
I1
sg2173
I12
sa(dp2198
g2169
I66
sg2170
F0.033674001693725586
sg2171
F7.724761962890625e-05
sg2172
I1
sg2173
I11
sa(dp2199
g2169
I51
sg2170
F0.03862905502319336
sg2171
F8.893013000488281e-05
sg2172
I1
sg2173
I10
sasS'total_cqs'
p2200
I63
ssI61
(dp2201
S'iters'
p2202
I2
sS'meta'
p2203
(lp2204
(dp2205
S'objective'
p2206
I4
sS'query_time'
p2207
F0.01867508888244629
sS'comp_time'
p2208
F6.318092346191406e-05
sS'exec_cq'
p2209
I1
sS'total_cq'
p2210
I4
sa(dp2211
g2206
I1
sg2207
F0.43028807640075684
sg2208
F7.581710815429688e-05
sg2209
I1
sg2210
I2
sasS'total_cqs'
p2212
I4
ssI62
(dp2213
S'iters'
p2214
I22
sS'meta'
p2215
(lp2216
(dp2217
S'objective'
p2218
I564
sS'query_time'
p2219
F0.5795550346374512
sS'comp_time'
p2220
F0.00014781951904296875
sS'exec_cq'
p2221
I1
sS'total_cq'
p2222
I36
sa(dp2223
g2218
I545
sg2219
F0.19225788116455078
sg2220
F0.00013589859008789062
sg2221
I1
sg2222
I34
sa(dp2224
g2218
I512
sg2219
F0.25048184394836426
sg2220
F0.00010800361633300781
sg2221
I1
sg2222
I33
sa(dp2225
g2218
I458
sg2219
F0.2547900676727295
sg2220
F0.00012087821960449219
sg2221
I1
sg2222
I32
sa(dp2226
g2218
I340
sg2219
F0.07014298439025879
sg2220
F0.00011086463928222656
sg2221
I1
sg2222
I30
sa(dp2227
g2218
I307
sg2219
F0.12234377861022949
sg2220
F0.00010514259338378906
sg2221
I1
sg2222
I27
sa(dp2228
g2218
I304
sg2219
F0.1194617748260498
sg2220
F9.799003601074219e-05
sg2221
I1
sg2222
I25
sa(dp2229
g2218
I276
sg2219
F0.08163094520568848
sg2220
F0.0002510547637939453
sg2221
I1
sg2222
I24
sa(dp2230
g2218
I251
sg2219
F0.04087209701538086
sg2220
F7.82012939453125e-05
sg2221
I1
sg2222
I23
sa(dp2231
g2218
I228
sg2219
F0.2125990390777588
sg2220
F8.606910705566406e-05
sg2221
I1
sg2222
I22
sa(dp2232
g2218
I197
sg2219
F0.20835399627685547
sg2220
F9.799003601074219e-05
sg2221
I1
sg2222
I21
sa(dp2233
g2218
I131
sg2219
F0.04450488090515137
sg2220
F0.00011610984802246094
sg2221
I1
sg2222
I19
sa(dp2234
g2218
I134
sg2219
F0.7403550148010254
sg2220
F7.891654968261719e-05
sg2221
I1
sg2222
I16
sa(dp2235
g2218
I116
sg2219
F0.2140810489654541
sg2220
F8.0108642578125e-05
sg2221
I1
sg2222
I15
sa(dp2236
g2218
I94
sg2219
F0.02866506576538086
sg2220
F5.4836273193359375e-05
sg2221
I1
sg2222
I14
sa(dp2237
g2218
I81
sg2219
F0.042533159255981445
sg2220
F7.700920104980469e-05
sg2221
I1
sg2222
I12
sa(dp2238
g2218
I66
sg2219
F0.2511289119720459
sg2220
F8.130073547363281e-05
sg2221
I1
sg2222
I11
sa(dp2239
g2218
I34
sg2219
F0.10692095756530762
sg2220
F7.390975952148438e-05
sg2221
I1
sg2222
I10
sa(dp2240
g2218
I32
sg2219
F0.019829988479614258
sg2220
F6.198883056640625e-05
sg2221
I1
sg2222
I7
sa(dp2241
g2218
I21
sg2219
F0.017199039459228516
sg2220
F6.4849853515625e-05
sg2221
I1
sg2222
I6
sa(dp2242
g2218
I3
sg2219
F0.01631307601928711
sg2220
F5.412101745605469e-05
sg2221
I1
sg2222
I5
sa(dp2243
g2218
I2
sg2219
F0.01217508316040039
sg2220
F6.723403930664062e-05
sg2221
I1
sg2222
I3
sasS'total_cqs'
p2244
I36
ssI63
(dp2245
S'iters'
p2246
I26
sS'meta'
p2247
(lp2248
(dp2249
S'objective'
p2250
I1247
sS'query_time'
p2251
F0.33446598052978516
sS'comp_time'
p2252
F0.00010395050048828125
sS'exec_cq'
p2253
I1
sS'total_cq'
p2254
I54
sa(dp2255
g2250
I674
sg2251
F0.12811923027038574
sg2252
F0.00011014938354492188
sg2253
I1
sg2254
I51
sa(dp2256
g2250
I916
sg2251
F0.15803313255310059
sg2252
F8.797645568847656e-05
sg2253
I1
sg2254
I37
sa(dp2257
g2250
I868
sg2251
F0.04768705368041992
sg2252
F0.00030493736267089844
sg2253
I1
sg2254
I36
sa(dp2258
g2250
I820
sg2251
F0.043270111083984375
sg2252
F8.296966552734375e-05
sg2253
I1
sg2254
I35
sa(dp2259
g2250
I773
sg2251
F0.05196094512939453
sg2252
F0.00014400482177734375
sg2253
I1
sg2254
I34
sa(dp2260
g2250
I727
sg2251
F0.06709980964660645
sg2252
F0.00011801719665527344
sg2253
I1
sg2254
I33
sa(dp2261
g2250
I478
sg2251
F0.07114601135253906
sg2252
F0.0001361370086669922
sg2253
I1
sg2254
I32
sa(dp2262
g2250
I484
sg2251
F0.034687042236328125
sg2252
F0.00010585784912109375
sg2253
I1
sg2254
I26
sa(dp2263
g2250
I467
sg2251
F0.15671610832214355
sg2252
F9.703636169433594e-05
sg2253
I1
sg2254
I24
sa(dp2264
g2250
I427
sg2251
F0.4336390495300293
sg2252
F0.00012826919555664062
sg2253
I1
sg2254
I23
sa(dp2265
g2250
I387
sg2251
F0.1072840690612793
sg2252
F7.700920104980469e-05
sg2253
I1
sg2254
I22
sa(dp2266
g2250
I350
sg2251
F0.02475118637084961
sg2252
F6.532669067382812e-05
sg2253
I1
sg2254
I21
sa(dp2267
g2250
I315
sg2251
F0.027493953704833984
sg2252
F6.079673767089844e-05
sg2253
I1
sg2254
I20
sa(dp2268
g2250
I280
sg2251
F0.04425191879272461
sg2252
F7.414817810058594e-05
sg2253
I1
sg2254
I19
sa(dp2269
g2250
I246
sg2251
F0.045007944107055664
sg2252
F9.417533874511719e-05
sg2253
I1
sg2254
I18
sa(dp2270
g2250
I215
sg2251
F0.17966699600219727
sg2252
F8.20159912109375e-05
sg2253
I1
sg2254
I17
sa(dp2271
g2250
I190
sg2251
F0.16182303428649902
sg2252
F0.0001010894775390625
sg2253
I1
sg2254
I16
sa(dp2272
g2250
I163
sg2251
F0.02315807342529297
sg2252
F5.221366882324219e-05
sg2253
I1
sg2254
I15
sa(dp2273
g2250
I137
sg2251
F0.3872849941253662
sg2252
F8.20159912109375e-05
sg2253
I1
sg2254
I14
sa(dp2274
g2250
I116
sg2251
F0.020153045654296875
sg2252
F5.602836608886719e-05
sg2253
I1
sg2254
I13
sa(dp2275
g2250
I94
sg2251
F0.023736000061035156
sg2252
F6.008148193359375e-05
sg2253
I1
sg2254
I12
sa(dp2276
g2250
I77
sg2251
F0.014703989028930664
sg2252
F5.3882598876953125e-05
sg2253
I1
sg2254
I11
sa(dp2277
g2250
I59
sg2251
F0.017585039138793945
sg2252
F5.1975250244140625e-05
sg2253
I1
sg2254
I10
sa(dp2278
g2250
I46
sg2251
F0.01803898811340332
sg2252
F5.507469177246094e-05
sg2253
I1
sg2254
I9
sa(dp2279
g2250
I32
sg2251
F0.012664079666137695
sg2252
F5.2928924560546875e-05
sg2253
I1
sg2254
I8
sasS'total_cqs'
p2280
I54
ssI64
(dp2281
S'iters'
p2282
I2
sS'meta'
p2283
(lp2284
(dp2285
S'objective'
p2286
I25
sS'query_time'
p2287
F0.4439539909362793
sS'comp_time'
p2288
F8.916854858398438e-05
sS'exec_cq'
p2289
I1
sS'total_cq'
p2290
I17
sa(dp2291
g2286
I52
sg2287
F0.7631268501281738
sg2288
F7.700920104980469e-05
sg2289
I1
sg2290
I6
sasS'total_cqs'
p2292
I17
ssI65
(dp2293
S'iters'
p2294
I1
sS'meta'
p2295
(lp2296
(dp2297
S'objective'
p2298
I1
sS'query_time'
p2299
F0.1694340705871582
sS'comp_time'
p2300
F8.106231689453125e-05
sS'exec_cq'
p2301
I1
sS'total_cq'
p2302
I2
sasS'total_cqs'
p2303
I2
ssI66
(dp2304
S'iters'
p2305
I75
sS'meta'
p2306
(lp2307
(dp2308
S'objective'
p2309
I38372
sS'query_time'
p2310
F0.21372199058532715
sS'comp_time'
p2311
F0.00034499168395996094
sS'exec_cq'
p2312
I1
sS'total_cq'
p2313
I284
sa(dp2314
g2309
I37775
sg2310
F0.1863701343536377
sg2311
F0.0003440380096435547
sg2312
I1
sg2313
I278
sa(dp2315
g2309
I35910
sg2310
F0.2724149227142334
sg2311
F0.0003719329833984375
sg2312
I1
sg2313
I274
sa(dp2316
g2309
I35016
sg2310
F0.16573190689086914
sg2311
F0.00028586387634277344
sg2312
I1
sg2313
I264
sa(dp2317
g2309
I35577
sg2310
F0.3442859649658203
sg2311
F0.00048279762268066406
sg2312
I1
sg2313
I258
sa(dp2318
g2309
I26186
sg2310
F0.5290961265563965
sg2311
F0.0002980232238769531
sg2312
I1
sg2313
I257
sa(dp2319
g2309
I26817
sg2310
F0.15652704238891602
sg2311
F0.00028896331787109375
sg2312
I1
sg2313
I225
sa(dp2320
g2309
I26823
sg2310
F0.17706012725830078
sg2311
F0.000247955322265625
sg2312
I1
sg2313
I210
sa(dp2321
g2309
I17289
sg2310
F0.2440791130065918
sg2311
F0.00024509429931640625
sg2312
I1
sg2313
I204
sa(dp2322
g2309
I17588
sg2310
F0.17696690559387207
sg2311
F0.0002818107604980469
sg2312
I1
sg2313
I172
sa(dp2323
g2309
I18810
sg2310
F0.22562694549560547
sg2311
F0.00021409988403320312
sg2312
I1
sg2313
I152
sa(dp2324
g2309
I18119
sg2310
F0.2953050136566162
sg2311
F0.0002529621124267578
sg2312
I1
sg2313
I148
sa(dp2325
g2309
I16639
sg2310
F0.06854605674743652
sg2311
F0.00022411346435546875
sg2312
I1
sg2313
I145
sa(dp2326
g2309
I17185
sg2310
F0.24935603141784668
sg2311
F0.0006029605865478516
sg2312
I1
sg2313
I139
sa(dp2327
g2309
I16442
sg2310
F0.27353596687316895
sg2311
F0.000209808349609375
sg2312
I1
sg2313
I138
sa(dp2328
g2309
I15489
sg2310
F0.1661520004272461
sg2311
F0.0002002716064453125
sg2312
I1
sg2313
I133
sa(dp2329
g2309
I15461
sg2310
F0.08483195304870605
sg2311
F0.00017786026000976562
sg2312
I1
sg2313
I128
sa(dp2330
g2309
I14369
sg2310
F0.18682384490966797
sg2311
F0.00015926361083984375
sg2312
I1
sg2313
I126
sa(dp2331
g2309
I14596
sg2310
F0.136397123336792
sg2311
F0.00021195411682128906
sg2312
I1
sg2313
I122
sa(dp2332
g2309
I14246
sg2310
F0.08873701095581055
sg2311
F0.0001952648162841797
sg2312
I1
sg2313
I121
sa(dp2333
g2309
I13556
sg2310
F0.17145180702209473
sg2311
F0.00019288063049316406
sg2312
I1
sg2313
I119
sa(dp2334
g2309
I13558
sg2310
F0.16452407836914062
sg2311
F0.0001571178436279297
sg2312
I1
sg2313
I116
sa(dp2335
g2309
I12641
sg2310
F0.24817299842834473
sg2311
F0.0001571178436279297
sg2312
I1
sg2313
I115
sa(dp2336
g2309
I12743
sg2310
F0.10133790969848633
sg2311
F0.0001900196075439453
sg2312
I1
sg2313
I112
sa(dp2337
g2309
I12505
sg2310
F0.11074495315551758
sg2311
F0.00015211105346679688
sg2312
I1
sg2313
I111
sa(dp2338
g2309
I12268
sg2310
F0.2217700481414795
sg2311
F0.00015282630920410156
sg2312
I1
sg2313
I110
sa(dp2339
g2309
I12040
sg2310
F0.10236001014709473
sg2311
F0.0002110004425048828
sg2312
I1
sg2313
I109
sa(dp2340
g2309
I11389
sg2310
F0.24178290367126465
sg2311
F0.00015401840209960938
sg2312
I1
sg2313
I108
sa(dp2341
g2309
I11375
sg2310
F0.2292468547821045
sg2311
F0.0002028942108154297
sg2312
I1
sg2313
I105
sa(dp2342
g2309
I11149
sg2310
F1.7029740810394287
sg2311
F0.00014901161193847656
sg2312
I1
sg2313
I104
sa(dp2343
g2309
I10034
sg2310
F0.14006710052490234
sg2311
F0.0006031990051269531
sg2312
I1
sg2313
I103
sa(dp2344
g2309
I10277
sg2310
F0.13621211051940918
sg2311
F0.00017189979553222656
sg2312
I1
sg2313
I99
sa(dp2345
g2309
I9389
sg2310
F0.09090900421142578
sg2311
F0.00016164779663085938
sg2312
I1
sg2313
I98
sa(dp2346
g2309
I8814
sg2310
F0.17827296257019043
sg2311
F0.00017309188842773438
sg2312
I1
sg2313
I94
sa(dp2347
g2309
I8215
sg2310
F0.5631730556488037
sg2311
F0.00014781951904296875
sg2312
I1
sg2313
I90
sa(dp2348
g2309
I8386
sg2310
F0.07323694229125977
sg2311
F0.00011992454528808594
sg2312
I1
sg2313
I86
sa(dp2349
g2309
I7761
sg2310
F0.12015795707702637
sg2311
F0.00012683868408203125
sg2312
I1
sg2313
I85
sa(dp2350
g2309
I7772
sg2310
F1.9321210384368896
sg2311
F0.00014066696166992188
sg2312
I1
sg2313
I82
sa(dp2351
g2309
I7134
sg2310
F3.4951138496398926
sg2311
F0.00018906593322753906
sg2312
I1
sg2313
I81
sa(dp2352
g2309
I7176
sg2310
F0.06473302841186523
sg2311
F0.00011420249938964844
sg2312
I1
sg2313
I77
sa(dp2353
g2309
I6529
sg2310
F0.06086587905883789
sg2311
F0.0001308917999267578
sg2312
I1
sg2313
I76
sa(dp2354
g2309
I6587
sg2310
F0.07492899894714355
sg2311
F0.00011491775512695312
sg2312
I1
sg2313
I71
sa(dp2355
g2309
I5927
sg2310
F0.07733917236328125
sg2311
F0.00011682510375976562
sg2312
I1
sg2313
I70
sa(dp2356
g2309
I5997
sg2310
F0.15960311889648438
sg2311
F0.0001308917999267578
sg2312
I1
sg2313
I67
sa(dp2357
g2309
I5832
sg2310
F0.1915581226348877
sg2311
F9.989738464355469e-05
sg2312
I1
sg2313
I66
sa(dp2358
g2309
I5346
sg2310
F0.06369519233703613
sg2311
F8.893013000488281e-05
sg2312
I1
sg2313
I65
sa(dp2359
g2309
I5340
sg2310
F0.15599703788757324
sg2311
F8.58306884765625e-05
sg2312
I1
sg2313
I63
sa(dp2360
g2309
I5183
sg2310
F0.050039052963256836
sg2311
F8.20159912109375e-05
sg2312
I1
sg2313
I62
sa(dp2361
g2309
I3573
sg2310
F0.08524489402770996
sg2311
F9.393692016601562e-05
sg2312
I1
sg2313
I61
sa(dp2362
g2309
I4149
sg2310
F0.07539701461791992
sg2311
F9.489059448242188e-05
sg2312
I1
sg2313
I52
sa(dp2363
g2309
I3676
sg2310
F2.9348220825195312
sg2311
F0.00015592575073242188
sg2312
I1
sg2313
I51
sa(dp2364
g2309
I3656
sg2310
F0.16504597663879395
sg2311
F0.00011682510375976562
sg2312
I1
sg2313
I48
sa(dp2365
g2309
I3525
sg2310
F0.06622505187988281
sg2311
F9.202957153320312e-05
sg2312
I1
sg2313
I45
sa(dp2366
g2309
I3378
sg2310
F0.04103493690490723
sg2311
F8.797645568847656e-05
sg2312
I1
sg2313
I44
sa(dp2367
g2309
I3234
sg2310
F0.058474063873291016
sg2311
F0.00011110305786132812
sg2312
I1
sg2313
I43
sa(dp2368
g2309
I3036
sg2310
F0.050332069396972656
sg2311
F0.000102996826171875
sg2312
I1
sg2313
I42
sa(dp2369
g2309
I2922
sg2310
F0.10209393501281738
sg2311
F0.00011515617370605469
sg2312
I1
sg2313
I40
sa(dp2370
g2309
I2791
sg2310
F0.08841800689697266
sg2311
F8.988380432128906e-05
sg2312
I1
sg2313
I39
sa(dp2371
g2309
I2656
sg2310
F0.08781695365905762
sg2311
F0.0001270771026611328
sg2312
I1
sg2313
I38
sa(dp2372
g2309
I2528
sg2310
F0.34015893936157227
sg2311
F0.00017905235290527344
sg2312
I1
sg2313
I37
sa(dp2373
g2309
I2398
sg2310
F0.14290714263916016
sg2311
F0.000164031982421875
sg2312
I1
sg2313
I36
sa(dp2374
g2309
I2269
sg2310
F0.12835407257080078
sg2311
F8.20159912109375e-05
sg2312
I1
sg2313
I35
sa(dp2375
g2309
I2145
sg2310
F1.3225219249725342
sg2311
F0.00013589859008789062
sg2312
I1
sg2313
I34
sa(dp2376
g2309
I1854
sg2310
F0.03630709648132324
sg2311
F8.416175842285156e-05
sg2312
I1
sg2313
I33
sa(dp2377
g2309
I1835
sg2310
F0.03806114196777344
sg2311
F7.700920104980469e-05
sg2312
I1
sg2313
I31
sa(dp2378
g2309
I1405
sg2310
F0.03150606155395508
sg2311
F7.700920104980469e-05
sg2312
I1
sg2313
I30
sa(dp2379
g2309
I1459
sg2310
F0.043618202209472656
sg2311
F8.988380432128906e-05
sg2312
I1
sg2313
I26
sa(dp2380
g2309
I1150
sg2310
F0.16959810256958008
sg2311
F8.177757263183594e-05
sg2312
I1
sg2313
I25
sa(dp2381
g2309
I1145
sg2310
F0.1189730167388916
sg2311
F7.414817810058594e-05
sg2312
I1
sg2313
I22
sa(dp2382
g2309
I1044
sg2310
F0.12015509605407715
sg2311
F6.985664367675781e-05
sg2312
I1
sg2313
I21
sa(dp2383
g2309
I944
sg2310
F0.03727412223815918
sg2311
F8.177757263183594e-05
sg2312
I1
sg2313
I20
sa(dp2384
g2309
I602
sg2310
F0.11693882942199707
sg2311
F7.891654968261719e-05
sg2312
I1
sg2313
I19
sa(dp2385
g2309
I662
sg2310
F0.03207993507385254
sg2311
F5.1975250244140625e-05
sg2312
I1
sg2313
I16
sa(dp2386
g2309
I595
sg2310
F0.313554048538208
sg2311
F6.198883056640625e-05
sg2312
I1
sg2313
I15
sa(dp2387
g2309
I525
sg2310
F0.019572019577026367
sg2311
F5.1021575927734375e-05
sg2312
I1
sg2313
I14
sasS'total_cqs'
p2388
I284
ssI67
(dp2389
S'iters'
p2390
I1
sS'meta'
p2391
(lp2392
(dp2393
S'objective'
p2394
I1
sS'query_time'
p2395
F0.23798799514770508
sS'comp_time'
p2396
F8.893013000488281e-05
sS'exec_cq'
p2397
I1
sS'total_cq'
p2398
I2
sasS'total_cqs'
p2399
I2
ssI68
(dp2400
S'iters'
p2401
I29
sS'meta'
p2402
(lp2403
(dp2404
S'objective'
p2405
I1794
sS'query_time'
p2406
F0.09246397018432617
sS'comp_time'
p2407
F0.00016880035400390625
sS'exec_cq'
p2408
I1
sS'total_cq'
p2409
I63
sa(dp2410
g2405
I1781
sg2406
F0.06917691230773926
sg2407
F0.00016689300537109375
sg2408
I1
sg2409
I61
sa(dp2411
g2405
I1721
sg2406
F0.17005395889282227
sg2407
F0.00019073486328125
sg2408
I1
sg2409
I60
sa(dp2412
g2405
I1662
sg2406
F0.055106163024902344
sg2407
F0.0001518726348876953
sg2408
I1
sg2409
I59
sa(dp2413
g2405
I1532
sg2406
F0.03168201446533203
sg2407
F9.989738464355469e-05
sg2408
I1
sg2409
I58
sa(dp2414
g2405
I745
sg2406
F0.061775922775268555
sg2407
F0.00011301040649414062
sg2408
I1
sg2409
I56
sa(dp2415
g2405
I986
sg2406
F0.03395700454711914
sg2407
F8.416175842285156e-05
sg2408
I1
sg2409
I41
sa(dp2416
g2405
I698
sg2406
F0.10440397262573242
sg2407
F0.00010585784912109375
sg2408
I1
sg2409
I38
sa(dp2417
g2405
I782
sg2406
F0.0475459098815918
sg2407
F9.489059448242188e-05
sg2408
I1
sg2409
I32
sa(dp2418
g2405
I729
sg2406
F0.15931105613708496
sg2407
F0.00010204315185546875
sg2408
I1
sg2409
I31
sa(dp2419
g2405
I677
sg2406
F0.02501702308654785
sg2407
F7.009506225585938e-05
sg2408
I1
sg2409
I30
sa(dp2420
g2405
I626
sg2406
F0.02773904800415039
sg2407
F8.320808410644531e-05
sg2408
I1
sg2409
I29
sa(dp2421
g2405
I572
sg2406
F0.02167510986328125
sg2407
F7.987022399902344e-05
sg2408
I1
sg2409
I28
sa(dp2422
g2405
I527
sg2406
F0.022119998931884766
sg2407
F6.580352783203125e-05
sg2408
I1
sg2409
I26
sa(dp2423
g2405
I482
sg2406
F0.39348316192626953
sg2407
F9.083747863769531e-05
sg2408
I1
sg2409
I25
sa(dp2424
g2405
I439
sg2406
F0.038407087326049805
sg2407
F9.703636169433594e-05
sg2408
I1
sg2409
I24
sa(dp2425
g2405
I402
sg2406
F0.017539024353027344
sg2407
F5.984306335449219e-05
sg2408
I1
sg2409
I23
sa(dp2426
g2405
I307
sg2406
F0.019569873809814453
sg2407
F9.298324584960938e-05
sg2408
I1
sg2409
I22
sa(dp2427
g2405
I299
sg2406
F0.01986384391784668
sg2407
F9.512901306152344e-05
sg2408
I1
sg2409
I20
sa(dp2428
g2405
I267
sg2406
F0.0358891487121582
sg2407
F9.894371032714844e-05
sg2408
I1
sg2409
I19
sa(dp2429
g2405
I240
sg2406
F0.028192996978759766
sg2407
F6.890296936035156e-05
sg2408
I1
sg2409
I18
sa(dp2430
g2405
I211
sg2406
F0.024227142333984375
sg2407
F6.580352783203125e-05
sg2408
I1
sg2409
I17
sa(dp2431
g2405
I185
sg2406
F0.13558197021484375
sg2407
F7.224082946777344e-05
sg2408
I1
sg2409
I16
sa(dp2432
g2405
I159
sg2406
F0.01900482177734375
sg2407
F7.200241088867188e-05
sg2408
I1
sg2409
I15
sa(dp2433
g2405
I138
sg2406
F0.019979000091552734
sg2407
F6.413459777832031e-05
sg2408
I1
sg2409
I14
sa(dp2434
g2405
I116
sg2406
F0.019945859909057617
sg2407
F5.793571472167969e-05
sg2408
I1
sg2409
I13
sa(dp2435
g2405
I101
sg2406
F0.047415971755981445
sg2407
F8.487701416015625e-05
sg2408
I1
sg2409
I12
sa(dp2436
g2405
I84
sg2406
F0.02849292755126953
sg2407
F7.414817810058594e-05
sg2408
I1
sg2409
I11
sa(dp2437
g2405
I68
sg2406
F0.02095818519592285
sg2407
F6.318092346191406e-05
sg2408
I1
sg2409
I10
sasS'total_cqs'
p2438
I63
ssI69
(dp2439
S'iters'
p2440
I24
sS'meta'
p2441
(lp2442
(dp2443
S'objective'
p2444
I945
sS'query_time'
p2445
F0.04337882995605469
sS'comp_time'
p2446
F9.894371032714844e-05
sS'exec_cq'
p2447
I1
sS'total_cq'
p2448
I45
sa(dp2449
g2444
I902
sg2445
F0.10950517654418945
sg2446
F9.393692016601562e-05
sg2447
I1
sg2448
I44
sa(dp2450
g2444
I860
sg2445
F0.41916418075561523
sg2446
F0.0001010894775390625
sg2447
I1
sg2448
I43
sa(dp2451
g2444
I531
sg2445
F0.09873509407043457
sg2446
F8.96453857421875e-05
sg2447
I1
sg2448
I42
sa(dp2452
g2444
I505
sg2445
F0.030911922454833984
sg2446
F8.130073547363281e-05
sg2447
I1
sg2448
I32
sa(dp2453
g2444
I531
sg2445
F0.03031015396118164
sg2446
F8.273124694824219e-05
sg2447
I1
sg2448
I28
sa(dp2454
g2444
I435
sg2445
F0.05163097381591797
sg2446
F9.512901306152344e-05
sg2447
I1
sg2448
I27
sa(dp2455
g2444
I373
sg2445
F0.024173974990844727
sg2446
F9.393692016601562e-05
sg2447
I1
sg2448
I24
sa(dp2456
g2444
I366
sg2445
F0.025526046752929688
sg2446
F8.58306884765625e-05
sg2447
I1
sg2448
I22
sa(dp2457
g2444
I334
sg2445
F0.23211002349853516
sg2446
F9.989738464355469e-05
sg2447
I1
sg2448
I21
sa(dp2458
g2444
I302
sg2445
F0.044007062911987305
sg2446
F7.104873657226562e-05
sg2447
I1
sg2448
I20
sa(dp2459
g2444
I273
sg2445
F0.029652833938598633
sg2446
F7.104873657226562e-05
sg2447
I1
sg2448
I19
sa(dp2460
g2444
I244
sg2445
F0.022806882858276367
sg2446
F6.604194641113281e-05
sg2447
I1
sg2448
I18
sa(dp2461
g2444
I216
sg2445
F0.05517411231994629
sg2446
F7.82012939453125e-05
sg2447
I1
sg2448
I17
sa(dp2462
g2444
I191
sg2445
F0.09879899024963379
sg2446
F7.319450378417969e-05
sg2447
I1
sg2448
I16
sa(dp2463
g2444
I166
sg2445
F0.042562007904052734
sg2446
F0.0003497600555419922
sg2447
I1
sg2448
I15
sa(dp2464
g2444
I142
sg2445
F0.032549142837524414
sg2446
F5.698204040527344e-05
sg2447
I1
sg2448
I14
sa(dp2465
g2444
I119
sg2445
F0.05425405502319336
sg2446
F6.723403930664062e-05
sg2447
I1
sg2448
I13
sa(dp2466
g2444
I97
sg2445
F0.0324859619140625
sg2446
F5.888938903808594e-05
sg2447
I1
sg2448
I12
sa(dp2467
g2444
I76
sg2445
F0.011948108673095703
sg2446
F5.91278076171875e-05
sg2447
I1
sg2448
I11
sa(dp2468
g2444
I58
sg2445
F0.016288042068481445
sg2446
F6.389617919921875e-05
sg2447
I1
sg2448
I10
sa(dp2469
g2444
I44
sg2445
F0.02124309539794922
sg2446
F6.198883056640625e-05
sg2447
I1
sg2448
I9
sa(dp2470
g2444
I29
sg2445
F0.15662407875061035
sg2446
F7.009506225585938e-05
sg2447
I1
sg2448
I8
sa(dp2471
g2444
I19
sg2445
F0.3779561519622803
sg2446
F7.200241088867188e-05
sg2447
I1
sg2448
I7
sasS'total_cqs'
p2472
I45
ssI70
(dp2473
S'iters'
p2474
I16
sS'meta'
p2475
(lp2476
(dp2477
S'objective'
p2478
I324
sS'query_time'
p2479
F0.13688206672668457
sS'comp_time'
p2480
F9.918212890625e-05
sS'exec_cq'
p2481
I1
sS'total_cq'
p2482
I27
sa(dp2483
g2478
I299
sg2479
F0.21196699142456055
sg2480
F0.00010013580322265625
sg2481
I1
sg2482
I26
sa(dp2484
g2478
I221
sg2479
F0.13930416107177734
sg2480
F8.392333984375e-05
sg2481
I1
sg2482
I25
sa(dp2485
g2478
I161
sg2479
F0.09119701385498047
sg2480
F7.987022399902344e-05
sg2481
I1
sg2482
I22
sa(dp2486
g2478
I173
sg2479
F0.24034714698791504
sg2480
F9.083747863769531e-05
sg2481
I1
sg2482
I19
sa(dp2487
g2478
I153
sg2479
F0.1725149154663086
sg2480
F8.320808410644531e-05
sg2481
I1
sg2482
I18
sa(dp2488
g2478
I134
sg2479
F0.09853506088256836
sg2480
F6.890296936035156e-05
sg2481
I1
sg2482
I17
sa(dp2489
g2478
I116
sg2479
F0.17751789093017578
sg2480
F7.677078247070312e-05
sg2481
I1
sg2482
I16
sa(dp2490
g2478
I99
sg2479
F0.04360389709472656
sg2480
F7.724761962890625e-05
sg2481
I1
sg2482
I15
sa(dp2491
g2478
I83
sg2479
F0.03805398941040039
sg2480
F9.107589721679688e-05
sg2481
I1
sg2482
I14
sa(dp2492
g2478
I68
sg2479
F0.17050790786743164
sg2480
F0.00011587142944335938
sg2481
I1
sg2482
I13
sa(dp2493
g2478
I56
sg2479
F0.22936296463012695
sg2480
F8.177757263183594e-05
sg2481
I1
sg2482
I12
sa(dp2494
g2478
I44
sg2479
F0.02543187141418457
sg2480
F9.679794311523438e-05
sg2481
I1
sg2482
I11
sa(dp2495
g2478
I35
sg2479
F0.15477991104125977
sg2480
F8.606910705566406e-05
sg2481
I1
sg2482
I10
sa(dp2496
g2478
I26
sg2479
F0.1587538719177246
sg2480
F8.606910705566406e-05
sg2481
I1
sg2482
I9
sa(dp2497
g2478
I20
sg2479
F0.0243680477142334
sg2480
F9.393692016601562e-05
sg2481
I1
sg2482
I8
sasS'total_cqs'
p2498
I27
ssI71
(dp2499
S'iters'
p2500
I17
sS'meta'
p2501
(lp2502
(dp2503
S'objective'
p2504
I66429
sS'query_time'
p2505
F0.6292738914489746
sS'comp_time'
p2506
F0.00045180320739746094
sS'exec_cq'
p2507
I1
sS'total_cq'
p2508
I366
sa(dp2509
g2504
I66065
sg2505
F0.624971866607666
sg2506
F0.00038886070251464844
sg2507
I1
sg2508
I365
sa(dp2510
g2504
I65702
sg2505
F0.32419896125793457
sg2506
F0.0004601478576660156
sg2507
I1
sg2508
I364
sa(dp2511
g2504
I65340
sg2505
F0.2938270568847656
sg2506
F0.0005247592926025391
sg2507
I1
sg2508
I363
sa(dp2512
g2504
I64979
sg2505
F0.30440497398376465
sg2506
F0.0004150867462158203
sg2507
I1
sg2508
I362
sa(dp2513
g2504
I54043
sg2505
F0.4997749328613281
sg2506
F0.0020880699157714844
sg2507
I1
sg2508
I361
sa(dp2514
g2504
I58294
sg2505
F3.098698139190674
sg2506
F0.002752065658569336
sg2507
I1
sg2508
I334
sa(dp2515
g2504
I57163
sg2505
F0.37952184677124023
sg2506
F0.0003571510314941406
sg2507
I1
sg2508
I331
sa(dp2516
g2504
I57366
sg2505
F0.2773170471191406
sg2506
F0.00038909912109375
sg2507
I1
sg2508
I328
sa(dp2517
g2504
I57012
sg2505
F0.3037421703338623
sg2506
F0.0003669261932373047
sg2507
I1
sg2508
I327
sa(dp2518
g2504
I56661
sg2505
F0.36223316192626953
sg2506
F0.0005900859832763672
sg2507
I1
sg2508
I326
sa(dp2519
g2504
I53056
sg2505
F0.3411588668823242
sg2506
F0.0005218982696533203
sg2507
I1
sg2508
I325
sa(dp2520
g2504
I59
sg2505
F0.007963895797729492
sg2506
F7.414817810058594e-05
sg2507
I1
sg2508
I9
sa(dp2521
g2504
I233
sg2505
F0.021996021270751953
sg2506
F4.7206878662109375e-05
sg2507
I1
sg2508
I6
sa(dp2522
g2504
I101
sg2505
F0.012917041778564453
sg2506
F5.316734313964844e-05
sg2507
I1
sg2508
I4
sa(dp2523
g2504
I11
sg2505
F0.01978611946105957
sg2506
F6.699562072753906e-05
sg2507
I1
sg2508
I3
sa(dp2524
g2504
I57
sg2505
F0.009253978729248047
sg2506
F5.0067901611328125e-05
sg2507
I1
sg2508
I2
sasS'total_cqs'
p2525
I366
ssI72
(dp2526
S'iters'
p2527
I3
sS'meta'
p2528
(lp2529
(dp2530
S'objective'
p2531
I53
sS'query_time'
p2532
F0.44007086753845215
sS'comp_time'
p2533
F8.678436279296875e-05
sS'exec_cq'
p2534
I1
sS'total_cq'
p2535
I17
sa(dp2536
g2531
I20
sg2532
F0.6836481094360352
sg2533
F8.20159912109375e-05
sg2534
I1
sg2535
I5
sa(dp2537
g2531
I23
sg2532
F0.7108750343322754
sg2533
F0.00010395050048828125
sg2534
I1
sg2535
I4
sasS'total_cqs'
p2538
I17
ss.