(dp0
I1
(dp1
S'iters'
p2
I2
sS'meta'
p3
(lp4
(dp5
S'objective'
p6
I2
sS'query_time'
p7
F0.18072009086608887
sS'comp_time'
p8
F5.888938903808594e-05
sS'exec_cq'
p9
I1
sS'total_cq'
p10
I3
sa(dp11
g6
I2
sg7
F0.0024437904357910156
sg8
F3.790855407714844e-05
sg9
I1
sg10
I2
sasS'total_cqs'
p12
I3
ssI2
(dp13
S'iters'
p14
I1
sS'meta'
p15
(lp16
(dp17
S'objective'
p18
I152
sS'query_time'
p19
F0.05339622497558594
sS'comp_time'
p20
F9.608268737792969e-05
sS'exec_cq'
p21
I1
sS'total_cq'
p22
I19
sasS'total_cqs'
p23
I19
ssI3
(dp24
S'iters'
p25
I1
sS'meta'
p26
(lp27
(dp28
S'objective'
p29
I1
sS'query_time'
p30
F0.10265517234802246
sS'comp_time'
p31
F3.2901763916015625e-05
sS'exec_cq'
p32
I1
sS'total_cq'
p33
I2
sasS'total_cqs'
p34
I2
ssI4
(dp35
S'iters'
p36
I1
sS'meta'
p37
(lp38
(dp39
S'objective'
p40
I1710
sS'query_time'
p41
F0.0424199104309082
sS'comp_time'
p42
F9.799003601074219e-05
sS'exec_cq'
p43
I1
sS'total_cq'
p44
I60
sasS'total_cqs'
p45
I60
ssI5
(dp46
S'iters'
p47
I1
sS'meta'
p48
(lp49
(dp50
S'objective'
p51
I8645
sS'query_time'
p52
F0.4347100257873535
sS'comp_time'
p53
F0.0001270771026611328
sS'exec_cq'
p54
I1
sS'total_cq'
p55
I133
sasS'total_cqs'
p56
I133
ssI6
(dp57
S'iters'
p58
I1
sS'meta'
p59
(lp60
(dp61
S'objective'
p62
I230
sS'query_time'
p63
F0.050012826919555664
sS'comp_time'
p64
F7.104873657226562e-05
sS'exec_cq'
p65
I1
sS'total_cq'
p66
I23
sasS'total_cqs'
p67
I23
ssI7
(dp68
S'iters'
p69
I1
sS'meta'
p70
(lp71
(dp72
S'objective'
p73
I29402
sS'query_time'
p74
F0.19977998733520508
sS'comp_time'
p75
F0.00016808509826660156
sS'exec_cq'
p76
I1
sS'total_cq'
p77
I244
sasS'total_cqs'
p78
I244
ssI8
(dp79
S'iters'
p80
I2
sS'meta'
p81
(lp82
(dp83
S'objective'
p84
I1963
sS'query_time'
p85
F0.49921298027038574
sS'comp_time'
p86
F0.00010609626770019531
sS'exec_cq'
p87
I1
sS'total_cq'
p88
I82
sa(dp89
g84
I556
sg85
F0.012584924697875977
sg86
F3.910064697265625e-05
sg87
I1
sg88
I18
sasS'total_cqs'
p90
I82
ssI9
(dp91
S'iters'
p92
I1
sS'meta'
p93
(lp94
(dp95
S'objective'
p96
I1
sS'query_time'
p97
F0.17838382720947266
sS'comp_time'
p98
F6.699562072753906e-05
sS'exec_cq'
p99
I1
sS'total_cq'
p100
I2
sasS'total_cqs'
p101
I2
ssI10
(dp102
S'iters'
p103
I1
sS'meta'
p104
(lp105
(dp106
S'objective'
p107
I21735
sS'query_time'
p108
F0.1574540138244629
sS'comp_time'
p109
F0.00016498565673828125
sS'exec_cq'
p110
I1
sS'total_cq'
p111
I210
sasS'total_cqs'
p112
I210
ssI11
(dp113
S'iters'
p114
I1
sS'meta'
p115
(lp116
(dp117
S'objective'
p118
I1
sS'query_time'
p119
F0.08443713188171387
sS'comp_time'
p120
F3.0994415283203125e-05
sS'exec_cq'
p121
I1
sS'total_cq'
p122
I2
sasS'total_cqs'
p123
I2
ssI12
(dp124
S'iters'
p125
I0
sS'meta'
p126
(lp127
sS'total_cqs'
p128
I1
ssI13
(dp129
S'iters'
p130
I1
sS'meta'
p131
(lp132
(dp133
S'objective'
p134
I1
sS'query_time'
p135
F0.39389491081237793
sS'comp_time'
p136
F6.890296936035156e-05
sS'exec_cq'
p137
I1
sS'total_cq'
p138
I2
sasS'total_cqs'
p139
I2
ssI14
(dp140
S'iters'
p141
I2
sS'meta'
p142
(lp143
(dp144
S'objective'
p145
I16629
sS'query_time'
p146
F0.15096497535705566
sS'comp_time'
p147
F0.00017404556274414062
sS'exec_cq'
p148
I1
sS'total_cq'
p149
I185
sa(dp150
g145
I82
sg146
F0.005645036697387695
sg147
F3.600120544433594e-05
sg148
I1
sg149
I3
sasS'total_cqs'
p151
I185
ssI15
(dp152
S'iters'
p153
I3
sS'meta'
p154
(lp155
(dp156
S'objective'
p157
I27972
sS'query_time'
p158
F0.2169640064239502
sS'comp_time'
p159
F0.00013589859008789062
sS'exec_cq'
p160
I1
sS'total_cq'
p161
I244
sa(dp162
g157
I643
sg158
F0.006649017333984375
sg159
F4.100799560546875e-05
sg160
I1
sg161
I7
sa(dp163
g157
I313
sg158
F0.0038700103759765625
sg159
F3.3855438232421875e-05
sg160
I1
sg161
I6
sasS'total_cqs'
p164
I244
ssI16
(dp165
S'iters'
p166
I5
sS'meta'
p167
(lp168
(dp169
S'objective'
p170
I214
sS'query_time'
p171
F0.42943310737609863
sS'comp_time'
p172
F7.510185241699219e-05
sS'exec_cq'
p173
I1
sS'total_cq'
p174
I23
sa(dp175
g170
I165
sg171
F0.016398191452026367
sg172
F4.696846008300781e-05
sg173
I1
sg174
I19
sa(dp176
g170
I181
sg171
F0.033212900161743164
sg172
F4.1961669921875e-05
sg173
I1
sg174
I15
sa(dp177
g170
I109
sg171
F0.011651039123535156
sg172
F3.504753112792969e-05
sg173
I1
sg174
I14
sa(dp178
g170
I105
sg171
F0.033574819564819336
sg172
F3.910064697265625e-05
sg173
I1
sg174
I12
sasS'total_cqs'
p179
I23
ssI17
(dp180
S'iters'
p181
I2
sS'meta'
p182
(lp183
(dp184
S'objective'
p185
I6398
sS'query_time'
p186
F0.22536587715148926
sS'comp_time'
p187
F0.00012803077697753906
sS'exec_cq'
p188
I1
sS'total_cq'
p189
I116
sa(dp190
g185
I38
sg186
F0.0025877952575683594
sg187
F3.719329833984375e-05
sg188
I1
sg189
I2
sasS'total_cqs'
p191
I116
ssI18
(dp192
S'iters'
p193
I1
sS'meta'
p194
(lp195
(dp196
S'objective'
p197
I152
sS'query_time'
p198
F0.05428504943847656
sS'comp_time'
p199
F8.487701416015625e-05
sS'exec_cq'
p200
I1
sS'total_cq'
p201
I19
sasS'total_cqs'
p202
I19
ssI19
(dp203
S'iters'
p204
I3
sS'meta'
p205
(lp206
(dp207
S'objective'
p208
I1083
sS'query_time'
p209
F0.1222848892211914
sS'comp_time'
p210
F9.989738464355469e-05
sS'exec_cq'
p211
I1
sS'total_cq'
p212
I54
sa(dp213
g208
I5
sg209
F0.006922006607055664
sg210
F3.719329833984375e-05
sg211
I1
sg212
I5
sa(dp214
g208
I10
sg209
F0.0912618637084961
sg210
F3.814697265625e-05
sg211
I1
sg212
I2
sasS'total_cqs'
p215
I54
ssI20
(dp216
S'iters'
p217
I1
sS'meta'
p218
(lp219
(dp220
S'objective'
p221
I1710
sS'query_time'
p222
F0.045882225036621094
sS'comp_time'
p223
F7.796287536621094e-05
sS'exec_cq'
p224
I1
sS'total_cq'
p225
I60
sasS'total_cqs'
p226
I60
ssI21
(dp227
S'iters'
p228
I1
sS'meta'
p229
(lp230
(dp231
S'objective'
p232
I945
sS'query_time'
p233
F0.41567015647888184
sS'comp_time'
p234
F9.894371032714844e-05
sS'exec_cq'
p235
I1
sS'total_cq'
p236
I45
sasS'total_cqs'
p237
I45
ssI22
(dp238
S'iters'
p239
I1
sS'meta'
p240
(lp241
(dp242
S'objective'
p243
I27
sS'query_time'
p244
F0.03152918815612793
sS'comp_time'
p245
F7.891654968261719e-05
sS'exec_cq'
p246
I1
sS'total_cq'
p247
I9
sasS'total_cqs'
p248
I9
ssI23
(dp249
S'iters'
p250
I1
sS'meta'
p251
(lp252
(dp253
S'objective'
p254
I1224
sS'query_time'
p255
F0.10175681114196777
sS'comp_time'
p256
F0.0035839080810546875
sS'exec_cq'
p257
I1
sS'total_cq'
p258
I51
sasS'total_cqs'
p259
I51
ssI24
(dp260
S'iters'
p261
I1
sS'meta'
p262
(lp263
(dp264
S'objective'
p265
I1461194
sS'query_time'
p266
F1.3455801010131836
sS'comp_time'
p267
F0.0009031295776367188
sS'exec_cq'
p268
I1
sS'total_cq'
p269
I1711
sasS'total_cqs'
p270
I1711
ssI25
(dp271
S'iters'
p272
I2
sS'meta'
p273
(lp274
(dp275
S'objective'
p276
I6289
sS'query_time'
p277
F0.22600913047790527
sS'comp_time'
p278
F0.0002319812774658203
sS'exec_cq'
p279
I1
sS'total_cq'
p280
I114
sa(dp281
g276
I95
sg277
F0.0025081634521484375
sg278
F3.814697265625e-05
sg279
I1
sg280
I2
sasS'total_cqs'
p282
I114
ssI26
(dp283
S'iters'
p284
I1
sS'meta'
p285
(lp286
(dp287
S'objective'
p288
I54
sS'query_time'
p289
F0.047032833099365234
sS'comp_time'
p290
F6.699562072753906e-05
sS'exec_cq'
p291
I1
sS'total_cq'
p292
I12
sasS'total_cqs'
p293
I12
ssI27
(dp294
S'iters'
p295
I1
sS'meta'
p296
(lp297
(dp298
S'objective'
p299
I1
sS'query_time'
p300
F0.11246895790100098
sS'comp_time'
p301
F3.910064697265625e-05
sS'exec_cq'
p302
I1
sS'total_cq'
p303
I2
sasS'total_cqs'
p304
I2
ssI28
(dp305
S'iters'
p306
I0
sS'meta'
p307
(lp308
sS'total_cqs'
p309
I1
ssI29
(dp310
S'iters'
p311
I2
sS'meta'
p312
(lp313
(dp314
S'objective'
p315
I8401
sS'query_time'
p316
F0.44254612922668457
sS'comp_time'
p317
F0.00013303756713867188
sS'exec_cq'
p318
I1
sS'total_cq'
p319
I133
sa(dp320
g315
I11
sg316
F0.02533102035522461
sg317
F3.695487976074219e-05
sg318
I1
sg319
I2
sasS'total_cqs'
p321
I133
ssI30
(dp322
S'iters'
p323
I2
sS'meta'
p324
(lp325
(dp326
S'objective'
p327
I7753
sS'query_time'
p328
F0.08371305465698242
sS'comp_time'
p329
F0.000141143798828125
sS'exec_cq'
p330
I1
sS'total_cq'
p331
I129
sa(dp332
g327
I58
sg328
F0.004636049270629883
sg329
F3.600120544433594e-05
sg330
I1
sg331
I3
sasS'total_cqs'
p333
I129
ssI31
(dp334
S'iters'
p335
I1
sS'meta'
p336
(lp337
(dp338
S'objective'
p339
I1539
sS'query_time'
p340
F0.04428386688232422
sS'comp_time'
p341
F9.298324584960938e-05
sS'exec_cq'
p342
I1
sS'total_cq'
p343
I57
sasS'total_cqs'
p344
I57
ssI32
(dp345
S'iters'
p346
I5
sS'meta'
p347
(lp348
(dp349
S'objective'
p350
I2225
sS'query_time'
p351
F0.5177161693572998
sS'comp_time'
p352
F9.489059448242188e-05
sS'exec_cq'
p353
I1
sS'total_cq'
p354
I82
sa(dp355
g350
I473
sg351
F0.010556936264038086
sg352
F4.506111145019531e-05
sg353
I1
sg354
I16
sa(dp356
g350
I371
sg351
F0.02976202964782715
sg352
F4.100799560546875e-05
sg353
I1
sg354
I14
sa(dp357
g350
I263
sg351
F0.019116878509521484
sg352
F4.100799560546875e-05
sg353
I1
sg354
I13
sa(dp358
g350
I193
sg351
F0.020515918731689453
sg352
F3.814697265625e-05
sg353
I1
sg354
I10
sasS'total_cqs'
p359
I82
ssI33
(dp360
S'iters'
p361
I1
sS'meta'
p362
(lp363
(dp364
S'objective'
p365
I1
sS'query_time'
p366
F0.18671584129333496
sS'comp_time'
p367
F3.600120544433594e-05
sS'exec_cq'
p368
I1
sS'total_cq'
p369
I2
sasS'total_cqs'
p370
I2
ssI34
(dp371
S'iters'
p372
I1
sS'meta'
p373
(lp374
(dp375
S'objective'
p376
I54
sS'query_time'
p377
F0.04142594337463379
sS'comp_time'
p378
F4.696846008300781e-05
sS'exec_cq'
p379
I1
sS'total_cq'
p380
I12
sasS'total_cqs'
p381
I12
ssI35
(dp382
S'iters'
p383
I2
sS'meta'
p384
(lp385
(dp386
S'objective'
p387
I5797
sS'query_time'
p388
F0.12928390502929688
sS'comp_time'
p389
F0.00012612342834472656
sS'exec_cq'
p390
I1
sS'total_cq'
p391
I110
sa(dp392
g387
I66
sg388
F0.055227041244506836
sg389
F3.0994415283203125e-05
sg390
I1
sg391
I2
sasS'total_cqs'
p393
I110
ssI36
(dp394
S'iters'
p395
I1
sS'meta'
p396
(lp397
(dp398
S'objective'
p399
I1890
sS'query_time'
p400
F0.03763413429260254
sS'comp_time'
p401
F8.296966552734375e-05
sS'exec_cq'
p402
I1
sS'total_cq'
p403
I63
sasS'total_cqs'
p404
I63
ssI37
(dp405
S'iters'
p406
I1
sS'meta'
p407
(lp408
(dp409
S'objective'
p410
I1539
sS'query_time'
p411
F0.4061119556427002
sS'comp_time'
p412
F7.605552673339844e-05
sS'exec_cq'
p413
I1
sS'total_cq'
p414
I57
sasS'total_cqs'
p415
I57
ssI38
(dp416
S'iters'
p417
I2
sS'meta'
p418
(lp419
(dp420
S'objective'
p421
I7835
sS'query_time'
p422
F0.07830095291137695
sS'comp_time'
p423
F9.512901306152344e-05
sS'exec_cq'
p424
I1
sS'total_cq'
p425
I129
sa(dp426
g421
I17
sg422
F0.0027360916137695312
sg423
F3.2901763916015625e-05
sg424
I1
sg425
I3
sasS'total_cqs'
p427
I129
ssI39
(dp428
S'iters'
p429
I1
sS'meta'
p430
(lp431
(dp432
S'objective'
p433
I1
sS'query_time'
p434
F0.011878013610839844
sS'comp_time'
p435
F4.601478576660156e-05
sS'exec_cq'
p436
I1
sS'total_cq'
p437
I2
sasS'total_cqs'
p438
I2
ssI40
(dp439
S'iters'
p440
I3
sS'meta'
p441
(lp442
(dp443
S'objective'
p444
I38
sS'query_time'
p445
F0.40655088424682617
sS'comp_time'
p446
F7.104873657226562e-05
sS'exec_cq'
p447
I1
sS'total_cq'
p448
I35
sa(dp449
g444
I204
sg445
F0.013360023498535156
sg446
F3.600120544433594e-05
sg447
I1
sg448
I16
sa(dp450
g444
I180
sg445
F0.010767936706542969
sg446
F4.291534423828125e-05
sg447
I1
sg448
I14
sasS'total_cqs'
p451
I35
ssI41
(dp452
S'iters'
p453
I1
sS'meta'
p454
(lp455
(dp456
S'objective'
p457
I1
sS'query_time'
p458
F0.17287492752075195
sS'comp_time'
p459
F3.409385681152344e-05
sS'exec_cq'
p460
I1
sS'total_cq'
p461
I2
sasS'total_cqs'
p462
I2
ssI42
(dp463
S'iters'
p464
I1
sS'meta'
p465
(lp466
(dp467
S'objective'
p468
I104
sS'query_time'
p469
F0.04878091812133789
sS'comp_time'
p470
F5.888938903808594e-05
sS'exec_cq'
p471
I1
sS'total_cq'
p472
I16
sasS'total_cqs'
p473
I16
ssI43
(dp474
S'iters'
p475
I2
sS'meta'
p476
(lp477
(dp478
S'objective'
p479
I1275
sS'query_time'
p480
F0.10864400863647461
sS'comp_time'
p481
F7.891654968261719e-05
sS'exec_cq'
p482
I1
sS'total_cq'
p483
I54
sa(dp484
g479
I3
sg480
F0.06263613700866699
sg481
F3.600120544433594e-05
sg482
I1
sg483
I2
sasS'total_cqs'
p485
I54
ssI44
(dp486
S'iters'
p487
I0
sS'meta'
p488
(lp489
sS'total_cqs'
p490
I1
ssI45
(dp491
S'iters'
p492
I1
sS'meta'
p493
(lp494
(dp495
S'objective'
p496
I1539
sS'query_time'
p497
F0.37927794456481934
sS'comp_time'
p498
F8.58306884765625e-05
sS'exec_cq'
p499
I1
sS'total_cq'
p500
I57
sasS'total_cqs'
p501
I57
ssI46
(dp502
S'iters'
p503
I1
sS'meta'
p504
(lp505
(dp506
S'objective'
p507
I9
sS'query_time'
p508
F0.03021693229675293
sS'comp_time'
p509
F7.390975952148438e-05
sS'exec_cq'
p510
I1
sS'total_cq'
p511
I6
sasS'total_cqs'
p512
I6
ssI47
(dp513
S'iters'
p514
I2
sS'meta'
p515
(lp516
(dp517
S'objective'
p518
I6519
sS'query_time'
p519
F0.11863493919372559
sS'comp_time'
p520
F0.00011491775512695312
sS'exec_cq'
p521
I1
sS'total_cq'
p522
I126
sa(dp523
g518
I489
sg519
F0.00872492790222168
sg520
F3.695487976074219e-05
sg521
I1
sg522
I8
sasS'total_cqs'
p524
I126
ssI48
(dp525
S'iters'
p526
I2
sS'meta'
p527
(lp528
(dp529
S'objective'
p530
I83
sS'query_time'
p531
F0.4120640754699707
sS'comp_time'
p532
F6.103515625e-05
sS'exec_cq'
p533
I1
sS'total_cq'
p534
I21
sa(dp535
g530
I115
sg531
F0.011430025100708008
sg532
F4.291534423828125e-05
sg533
I1
sg534
I15
sasS'total_cqs'
p536
I21
ssI49
(dp537
S'iters'
p538
I2
sS'meta'
p539
(lp540
(dp541
S'objective'
p542
I1779
sS'query_time'
p543
F0.23471593856811523
sS'comp_time'
p544
F9.894371032714844e-05
sS'exec_cq'
p545
I1
sS'total_cq'
p546
I66
sa(dp547
g542
I84
sg543
F0.008857965469360352
sg544
F3.814697265625e-05
sg545
I1
sg546
I6
sasS'total_cqs'
p548
I66
ssI50
(dp549
S'iters'
p550
I1
sS'meta'
p551
(lp552
(dp553
S'objective'
p554
I39902
sS'query_time'
p555
F0.173508882522583
sS'comp_time'
p556
F0.00026607513427734375
sS'exec_cq'
p557
I1
sS'total_cq'
p558
I284
sasS'total_cqs'
p559
I284
ssI51
(dp560
S'iters'
p561
I1
sS'meta'
p562
(lp563
(dp564
S'objective'
p565
I1
sS'query_time'
p566
F0.11772799491882324
sS'comp_time'
p567
F3.504753112792969e-05
sS'exec_cq'
p568
I1
sS'total_cq'
p569
I2
sasS'total_cqs'
p570
I2
ssI52
(dp571
S'iters'
p572
I0
sS'meta'
p573
(lp574
sS'total_cqs'
p575
I1
ssI53
(dp576
S'iters'
p577
I1
sS'meta'
p578
(lp579
(dp580
S'objective'
p581
I1
sS'query_time'
p582
F0.34377098083496094
sS'comp_time'
p583
F5.698204040527344e-05
sS'exec_cq'
p584
I1
sS'total_cq'
p585
I2
sasS'total_cqs'
p586
I2
ssI54
(dp587
S'iters'
p588
I3
sS'meta'
p589
(lp590
(dp591
S'objective'
p592
I188
sS'query_time'
p593
F0.050232887268066406
sS'comp_time'
p594
F6.008148193359375e-05
sS'exec_cq'
p595
I1
sS'total_cq'
p596
I27
sa(dp597
g592
I45
sg593
F0.0055658817291259766
sg594
F3.3855438232421875e-05
sg595
I1
sg596
I6
sa(dp598
g592
I16
sg593
F0.004963874816894531
sg594
F3.504753112792969e-05
sg595
I1
sg596
I3
sasS'total_cqs'
p599
I27
ssI55
(dp600
S'iters'
p601
I3
sS'meta'
p602
(lp603
(dp604
S'objective'
p605
I954
sS'query_time'
p606
F0.08646988868713379
sS'comp_time'
p607
F8.487701416015625e-05
sS'exec_cq'
p608
I1
sS'total_cq'
p609
I55
sa(dp610
g605
I97
sg606
F0.010396957397460938
sg607
F4.00543212890625e-05
sg608
I1
sg609
I10
sa(dp611
g605
I85
sg606
F0.0065898895263671875
sg607
F3.886222839355469e-05
sg608
I1
sg609
I6
sasS'total_cqs'
p612
I55
ssI56
(dp613
S'iters'
p614
I2
sS'meta'
p615
(lp616
(dp617
S'objective'
p618
I1783
sS'query_time'
p619
F0.5044698715209961
sS'comp_time'
p620
F9.107589721679688e-05
sS'exec_cq'
p621
I1
sS'total_cq'
p622
I82
sa(dp623
g618
I646
sg619
F0.013932943344116211
sg620
F4.601478576660156e-05
sg621
I1
sg622
I21
sasS'total_cqs'
p624
I82
ssI57
(dp625
S'iters'
p626
I1
sS'meta'
p627
(lp628
(dp629
S'objective'
p630
I1
sS'query_time'
p631
F0.15336990356445312
sS'comp_time'
p632
F5.412101745605469e-05
sS'exec_cq'
p633
I1
sS'total_cq'
p634
I2
sasS'total_cqs'
p635
I2
ssI58
(dp636
S'iters'
p637
I1
sS'meta'
p638
(lp639
(dp640
S'objective'
p641
I39902
sS'query_time'
p642
F0.16722798347473145
sS'comp_time'
p643
F0.00020599365234375
sS'exec_cq'
p644
I1
sS'total_cq'
p645
I284
sasS'total_cqs'
p646
I284
ssI59
(dp647
S'iters'
p648
I1
sS'meta'
p649
(lp650
(dp651
S'objective'
p652
I1
sS'query_time'
p653
F0.08493709564208984
sS'comp_time'
p654
F3.3855438232421875e-05
sS'exec_cq'
p655
I1
sS'total_cq'
p656
I2
sasS'total_cqs'
p657
I2
ssI60
(dp658
S'iters'
p659
I1
sS'meta'
p660
(lp661
(dp662
S'objective'
p663
I1890
sS'query_time'
p664
F0.04063606262207031
sS'comp_time'
p665
F6.699562072753906e-05
sS'exec_cq'
p666
I1
sS'total_cq'
p667
I63
sasS'total_cqs'
p668
I63
ssI61
(dp669
S'iters'
p670
I1
sS'meta'
p671
(lp672
(dp673
S'objective'
p674
I2
sS'query_time'
p675
F0.3486180305480957
sS'comp_time'
p676
F5.602836608886719e-05
sS'exec_cq'
p677
I1
sS'total_cq'
p678
I4
sasS'total_cqs'
p679
I4
ssI62
(dp680
S'iters'
p681
I2
sS'meta'
p682
(lp683
(dp684
S'objective'
p685
I476
sS'query_time'
p686
F0.06092500686645508
sS'comp_time'
p687
F8.988380432128906e-05
sS'exec_cq'
p688
I1
sS'total_cq'
p689
I36
sa(dp690
g685
I23
sg686
F0.004846096038818359
sg687
F3.504753112792969e-05
sg688
I1
sg689
I3
sasS'total_cqs'
p691
I36
ssI63
(dp692
S'iters'
p693
I1
sS'meta'
p694
(lp695
(dp696
S'objective'
p697
I1377
sS'query_time'
p698
F0.03519392013549805
sS'comp_time'
p699
F7.510185241699219e-05
sS'exec_cq'
p700
I1
sS'total_cq'
p701
I54
sasS'total_cqs'
p702
I54
ssI64
(dp703
S'iters'
p704
I5
sS'meta'
p705
(lp706
(dp707
S'objective'
p708
I71
sS'query_time'
p709
F0.3948180675506592
sS'comp_time'
p710
F6.103515625e-05
sS'exec_cq'
p711
I1
sS'total_cq'
p712
I17
sa(dp713
g708
I110
sg709
F0.00916600227355957
sg710
F3.600120544433594e-05
sg711
I1
sg712
I13
sa(dp714
g708
I97
sg709
F0.007956981658935547
sg710
F3.600120544433594e-05
sg711
I1
sg712
I12
sa(dp715
g708
I96
sg709
F0.008713960647583008
sg710
F3.504753112792969e-05
sg711
I1
sg712
I11
sa(dp716
g708
I66
sg709
F0.014308929443359375
sg710
F3.3855438232421875e-05
sg711
I1
sg712
I10
sasS'total_cqs'
p717
I17
ssI65
(dp718
S'iters'
p719
I1
sS'meta'
p720
(lp721
(dp722
S'objective'
p723
I1
sS'query_time'
p724
F0.1625368595123291
sS'comp_time'
p725
F5.1975250244140625e-05
sS'exec_cq'
p726
I1
sS'total_cq'
p727
I2
sasS'total_cqs'
p728
I2
ssI66
(dp729
S'iters'
p730
I1
sS'meta'
p731
(lp732
(dp733
S'objective'
p734
I39902
sS'query_time'
p735
F0.15215301513671875
sS'comp_time'
p736
F0.0001678466796875
sS'exec_cq'
p737
I1
sS'total_cq'
p738
I284
sasS'total_cqs'
p739
I284
ssI67
(dp740
S'iters'
p741
I1
sS'meta'
p742
(lp743
(dp744
S'objective'
p745
I1
sS'query_time'
p746
F0.11451601982116699
sS'comp_time'
p747
F3.0994415283203125e-05
sS'exec_cq'
p748
I1
sS'total_cq'
p749
I2
sasS'total_cqs'
p750
I2
ssI68
(dp751
S'iters'
p752
I1
sS'meta'
p753
(lp754
(dp755
S'objective'
p756
I1890
sS'query_time'
p757
F0.036283016204833984
sS'comp_time'
p758
F5.698204040527344e-05
sS'exec_cq'
p759
I1
sS'total_cq'
p760
I63
sasS'total_cqs'
p761
I63
ssI69
(dp762
S'iters'
p763
I1
sS'meta'
p764
(lp765
(dp766
S'objective'
p767
I945
sS'query_time'
p768
F0.3366880416870117
sS'comp_time'
p769
F7.796287536621094e-05
sS'exec_cq'
p770
I1
sS'total_cq'
p771
I45
sasS'total_cqs'
p772
I45
ssI70
(dp773
S'iters'
p774
I2
sS'meta'
p775
(lp776
(dp777
S'objective'
p778
I224
sS'query_time'
p779
F0.05151700973510742
sS'comp_time'
p780
F6.389617919921875e-05
sS'exec_cq'
p781
I1
sS'total_cq'
p782
I27
sa(dp783
g778
I23
sg779
F0.0027010440826416016
sg780
F3.504753112792969e-05
sg781
I1
sg782
I3
sasS'total_cqs'
p784
I27
ssI71
(dp785
S'iters'
p786
I1
sS'meta'
p787
(lp788
(dp789
S'objective'
p790
I66429
sS'query_time'
p791
F0.2731170654296875
sS'comp_time'
p792
F0.00018787384033203125
sS'exec_cq'
p793
I1
sS'total_cq'
p794
I366
sasS'total_cqs'
p795
I366
ssI72
(dp796
S'iters'
p797
I3
sS'meta'
p798
(lp799
(dp800
S'objective'
p801
I111
sS'query_time'
p802
F0.38756799697875977
sS'comp_time'
p803
F6.103515625e-05
sS'exec_cq'
p804
I1
sS'total_cq'
p805
I17
sa(dp806
g801
I52
sg802
F0.011195898056030273
sg803
F4.291534423828125e-05
sg804
I1
sg805
I15
sa(dp807
g801
I58
sg802
F0.007963895797729492
sg803
F3.504753112792969e-05
sg804
I1
sg805
I11
sasS'total_cqs'
p808
I17
ss.