(dp0
I1
(dp1
S'iters'
p2
I1
sS'meta'
p3
(lp4
(dp5
S'objective'
p6
I0
sS'query_time'
p7
F0.18377900123596191
sS'comp_time'
p8
F5.888938903808594e-05
sS'exec_cq'
p9
I1
sS'total_cq'
p10
I3
sasS'total_cqs'
p11
I3
ssI2
(dp12
S'iters'
p13
I2
sS'meta'
p14
(lp15
(dp16
S'objective'
p17
I72
sS'query_time'
p18
F0.04591083526611328
sS'comp_time'
p19
F6.699562072753906e-05
sS'exec_cq'
p20
I1
sS'total_cq'
p21
I19
sa(dp22
g17
I21
sg18
F0.00628209114074707
sg19
F3.409385681152344e-05
sg20
I1
sg21
I5
sasS'total_cqs'
p23
I19
ssI3
(dp24
S'iters'
p25
I1
sS'meta'
p26
(lp27
(dp28
S'objective'
p29
I1
sS'query_time'
p30
F0.1314690113067627
sS'comp_time'
p31
F3.3855438232421875e-05
sS'exec_cq'
p32
I1
sS'total_cq'
p33
I2
sasS'total_cqs'
p34
I2
ssI4
(dp35
S'iters'
p36
I1
sS'meta'
p37
(lp38
(dp39
S'objective'
p40
I1710
sS'query_time'
p41
F0.04178500175476074
sS'comp_time'
p42
F9.608268737792969e-05
sS'exec_cq'
p43
I1
sS'total_cq'
p44
I60
sasS'total_cqs'
p45
I60
ssI5
(dp46
S'iters'
p47
I2
sS'meta'
p48
(lp49
(dp50
S'objective'
p51
I8475
sS'query_time'
p52
F0.43310117721557617
sS'comp_time'
p53
F0.0001289844512939453
sS'exec_cq'
p54
I1
sS'total_cq'
p55
I133
sa(dp56
g51
I48
sg52
F0.0023450851440429688
sg53
F3.1948089599609375e-05
sg54
I1
sg55
I2
sasS'total_cqs'
p57
I133
ssI6
(dp58
S'iters'
p59
I1
sS'meta'
p60
(lp61
(dp62
S'objective'
p63
I230
sS'query_time'
p64
F0.06394195556640625
sS'comp_time'
p65
F7.605552673339844e-05
sS'exec_cq'
p66
I1
sS'total_cq'
p67
I23
sasS'total_cqs'
p68
I23
ssI7
(dp69
S'iters'
p70
I1
sS'meta'
p71
(lp72
(dp73
S'objective'
p74
I29402
sS'query_time'
p75
F0.21949219703674316
sS'comp_time'
p76
F0.0001399517059326172
sS'exec_cq'
p77
I1
sS'total_cq'
p78
I244
sasS'total_cqs'
p79
I244
ssI8
(dp80
S'iters'
p81
I3
sS'meta'
p82
(lp83
(dp84
S'objective'
p85
I2381
sS'query_time'
p86
F0.5021328926086426
sS'comp_time'
p87
F9.202957153320312e-05
sS'exec_cq'
p88
I1
sS'total_cq'
p89
I82
sa(dp90
g85
I411
sg86
F0.011260986328125
sg87
F4.315376281738281e-05
sg88
I1
sg89
I15
sa(dp91
g85
I297
sg86
F0.008317947387695312
sg87
F3.600120544433594e-05
sg88
I1
sg89
I13
sasS'total_cqs'
p92
I82
ssI9
(dp93
S'iters'
p94
I1
sS'meta'
p95
(lp96
(dp97
S'objective'
p98
I1
sS'query_time'
p99
F0.18419599533081055
sS'comp_time'
p100
F7.200241088867188e-05
sS'exec_cq'
p101
I1
sS'total_cq'
p102
I2
sasS'total_cqs'
p103
I2
ssI10
(dp104
S'iters'
p105
I1
sS'meta'
p106
(lp107
(dp108
S'objective'
p109
I21735
sS'query_time'
p110
F0.1519911289215088
sS'comp_time'
p111
F0.000125885009765625
sS'exec_cq'
p112
I1
sS'total_cq'
p113
I210
sasS'total_cqs'
p114
I210
ssI11
(dp115
S'iters'
p116
I1
sS'meta'
p117
(lp118
(dp119
S'objective'
p120
I1
sS'query_time'
p121
F0.10554099082946777
sS'comp_time'
p122
F2.9802322387695312e-05
sS'exec_cq'
p123
I1
sS'total_cq'
p124
I2
sasS'total_cqs'
p125
I2
ssI12
(dp126
S'iters'
p127
I0
sS'meta'
p128
(lp129
sS'total_cqs'
p130
I1
ssI13
(dp131
S'iters'
p132
I1
sS'meta'
p133
(lp134
(dp135
S'objective'
p136
I1
sS'query_time'
p137
F0.37996482849121094
sS'comp_time'
p138
F6.794929504394531e-05
sS'exec_cq'
p139
I1
sS'total_cq'
p140
I2
sasS'total_cqs'
p141
I2
ssI14
(dp142
S'iters'
p143
I1
sS'meta'
p144
(lp145
(dp146
S'objective'
p147
I16835
sS'query_time'
p148
F0.1902010440826416
sS'comp_time'
p149
F0.00020384788513183594
sS'exec_cq'
p150
I1
sS'total_cq'
p151
I185
sasS'total_cqs'
p152
I185
ssI15
(dp153
S'iters'
p154
I1
sS'meta'
p155
(lp156
(dp157
S'objective'
p158
I29402
sS'query_time'
p159
F0.23547887802124023
sS'comp_time'
p160
F0.00020003318786621094
sS'exec_cq'
p161
I1
sS'total_cq'
p162
I244
sasS'total_cqs'
p163
I244
ssI16
(dp164
S'iters'
p165
I2
sS'meta'
p166
(lp167
(dp168
S'objective'
p169
I60
sS'query_time'
p170
F0.4158670902252197
sS'comp_time'
p171
F6.818771362304688e-05
sS'exec_cq'
p172
I1
sS'total_cq'
p173
I23
sa(dp174
g169
I122
sg170
F0.00871896743774414
sg171
F2.9087066650390625e-05
sg172
I1
sg173
I13
sasS'total_cqs'
p175
I23
ssI17
(dp176
S'iters'
p177
I1
sS'meta'
p178
(lp179
(dp180
S'objective'
p181
I6554
sS'query_time'
p182
F0.2300128936767578
sS'comp_time'
p183
F0.0001239776611328125
sS'exec_cq'
p184
I1
sS'total_cq'
p185
I116
sasS'total_cqs'
p186
I116
ssI18
(dp187
S'iters'
p188
I1
sS'meta'
p189
(lp190
(dp191
S'objective'
p192
I152
sS'query_time'
p193
F0.0690469741821289
sS'comp_time'
p194
F7.700920104980469e-05
sS'exec_cq'
p195
I1
sS'total_cq'
p196
I19
sasS'total_cqs'
p197
I19
ssI19
(dp198
S'iters'
p199
I3
sS'meta'
p200
(lp201
(dp202
S'objective'
p203
I1157
sS'query_time'
p204
F0.11756014823913574
sS'comp_time'
p205
F0.0001068115234375
sS'exec_cq'
p206
I1
sS'total_cq'
p207
I54
sa(dp208
g203
I6
sg204
F0.0075299739837646484
sg205
F4.291534423828125e-05
sg206
I1
sg207
I6
sa(dp209
g203
I23
sg204
F0.03021097183227539
sg205
F3.3855438232421875e-05
sg206
I1
sg207
I2
sasS'total_cqs'
p210
I54
ssI20
(dp211
S'iters'
p212
I1
sS'meta'
p213
(lp214
(dp215
S'objective'
p216
I1710
sS'query_time'
p217
F0.06941080093383789
sS'comp_time'
p218
F9.298324584960938e-05
sS'exec_cq'
p219
I1
sS'total_cq'
p220
I60
sasS'total_cqs'
p221
I60
ssI21
(dp222
S'iters'
p223
I1
sS'meta'
p224
(lp225
(dp226
S'objective'
p227
I945
sS'query_time'
p228
F0.4137699604034424
sS'comp_time'
p229
F8.511543273925781e-05
sS'exec_cq'
p230
I1
sS'total_cq'
p231
I45
sasS'total_cqs'
p232
I45
ssI22
(dp233
S'iters'
p234
I1
sS'meta'
p235
(lp236
(dp237
S'objective'
p238
I27
sS'query_time'
p239
F0.03907203674316406
sS'comp_time'
p240
F5.793571472167969e-05
sS'exec_cq'
p241
I1
sS'total_cq'
p242
I9
sasS'total_cqs'
p243
I9
ssI23
(dp244
S'iters'
p245
I1
sS'meta'
p246
(lp247
(dp248
S'objective'
p249
I1224
sS'query_time'
p250
F0.039338111877441406
sS'comp_time'
p251
F0.003309011459350586
sS'exec_cq'
p252
I1
sS'total_cq'
p253
I51
sasS'total_cqs'
p254
I51
ssI24
(dp255
S'iters'
p256
I2
sS'meta'
p257
(lp258
(dp259
S'objective'
p260
I1433776
sS'query_time'
p261
F1.3183469772338867
sS'comp_time'
p262
F0.0009150505065917969
sS'exec_cq'
p263
I1
sS'total_cq'
p264
I1711
sa(dp265
g260
I11998
sg261
F0.00970005989074707
sg262
F4.7206878662109375e-05
sg263
I1
sg264
I13
sasS'total_cqs'
p266
I1711
ssI25
(dp267
S'iters'
p268
I1
sS'meta'
p269
(lp270
(dp271
S'objective'
p272
I6327
sS'query_time'
p273
F0.23512983322143555
sS'comp_time'
p274
F0.0002570152282714844
sS'exec_cq'
p275
I1
sS'total_cq'
p276
I114
sasS'total_cqs'
p277
I114
ssI26
(dp278
S'iters'
p279
I1
sS'meta'
p280
(lp281
(dp282
S'objective'
p283
I54
sS'query_time'
p284
F0.038424015045166016
sS'comp_time'
p285
F7.200241088867188e-05
sS'exec_cq'
p286
I1
sS'total_cq'
p287
I12
sasS'total_cqs'
p288
I12
ssI27
(dp289
S'iters'
p290
I1
sS'meta'
p291
(lp292
(dp293
S'objective'
p294
I1
sS'query_time'
p295
F0.13578009605407715
sS'comp_time'
p296
F4.1961669921875e-05
sS'exec_cq'
p297
I1
sS'total_cq'
p298
I2
sasS'total_cqs'
p299
I2
ssI28
(dp300
S'iters'
p301
I0
sS'meta'
p302
(lp303
sS'total_cqs'
p304
I1
ssI29
(dp305
S'iters'
p306
I2
sS'meta'
p307
(lp308
(dp309
S'objective'
p310
I8579
sS'query_time'
p311
F0.4378700256347656
sS'comp_time'
p312
F0.0001289844512939453
sS'exec_cq'
p313
I1
sS'total_cq'
p314
I133
sa(dp315
g310
I100
sg311
F0.003846883773803711
sg312
F4.506111145019531e-05
sg313
I1
sg314
I2
sasS'total_cqs'
p316
I133
ssI30
(dp317
S'iters'
p318
I2
sS'meta'
p319
(lp320
(dp321
S'objective'
p322
I7823
sS'query_time'
p323
F0.08208894729614258
sS'comp_time'
p324
F0.00010609626770019531
sS'exec_cq'
p325
I1
sS'total_cq'
p326
I129
sa(dp327
g322
I23
sg323
F0.01416015625
sg324
F4.100799560546875e-05
sg325
I1
sg326
I3
sasS'total_cqs'
p328
I129
ssI31
(dp329
S'iters'
p330
I1
sS'meta'
p331
(lp332
(dp333
S'objective'
p334
I1539
sS'query_time'
p335
F0.04347991943359375
sS'comp_time'
p336
F8.606910705566406e-05
sS'exec_cq'
p337
I1
sS'total_cq'
p338
I57
sasS'total_cqs'
p339
I57
ssI32
(dp340
S'iters'
p341
I3
sS'meta'
p342
(lp343
(dp344
S'objective'
p345
I2339
sS'query_time'
p346
F0.5418531894683838
sS'comp_time'
p347
F0.00012111663818359375
sS'exec_cq'
p348
I1
sS'total_cq'
p349
I82
sa(dp350
g345
I454
sg346
F0.010293006896972656
sg347
F3.910064697265625e-05
sg348
I1
sg349
I14
sa(dp351
g345
I329
sg346
F0.008820056915283203
sg347
F4.506111145019531e-05
sg348
I1
sg349
I13
sasS'total_cqs'
p352
I82
ssI33
(dp353
S'iters'
p354
I1
sS'meta'
p355
(lp356
(dp357
S'objective'
p358
I1
sS'query_time'
p359
F0.17425203323364258
sS'comp_time'
p360
F7.390975952148438e-05
sS'exec_cq'
p361
I1
sS'total_cq'
p362
I2
sasS'total_cqs'
p363
I2
ssI34
(dp364
S'iters'
p365
I1
sS'meta'
p366
(lp367
(dp368
S'objective'
p369
I54
sS'query_time'
p370
F0.03709101676940918
sS'comp_time'
p371
F5.888938903808594e-05
sS'exec_cq'
p372
I1
sS'total_cq'
p373
I12
sasS'total_cqs'
p374
I12
ssI35
(dp375
S'iters'
p376
I2
sS'meta'
p377
(lp378
(dp379
S'objective'
p380
I5691
sS'query_time'
p381
F0.1289069652557373
sS'comp_time'
p382
F0.0001308917999267578
sS'exec_cq'
p383
I1
sS'total_cq'
p384
I110
sa(dp385
g380
I13
sg381
F0.0037178993225097656
sg382
F3.600120544433594e-05
sg383
I1
sg384
I2
sasS'total_cqs'
p386
I110
ssI36
(dp387
S'iters'
p388
I1
sS'meta'
p389
(lp390
(dp391
S'objective'
p392
I1890
sS'query_time'
p393
F0.042822837829589844
sS'comp_time'
p394
F7.915496826171875e-05
sS'exec_cq'
p395
I1
sS'total_cq'
p396
I63
sasS'total_cqs'
p397
I63
ssI37
(dp398
S'iters'
p399
I1
sS'meta'
p400
(lp401
(dp402
S'objective'
p403
I1539
sS'query_time'
p404
F0.3997049331665039
sS'comp_time'
p405
F0.00011110305786132812
sS'exec_cq'
p406
I1
sS'total_cq'
p407
I57
sasS'total_cqs'
p408
I57
ssI38
(dp409
S'iters'
p410
I2
sS'meta'
p411
(lp412
(dp413
S'objective'
p414
I7723
sS'query_time'
p415
F0.0775761604309082
sS'comp_time'
p416
F0.00011897087097167969
sS'exec_cq'
p417
I1
sS'total_cq'
p418
I129
sa(dp419
g414
I73
sg415
F0.00807499885559082
sg416
F3.0994415283203125e-05
sg417
I1
sg418
I3
sasS'total_cqs'
p420
I129
ssI39
(dp421
S'iters'
p422
I1
sS'meta'
p423
(lp424
(dp425
S'objective'
p426
I1
sS'query_time'
p427
F0.02169203758239746
sS'comp_time'
p428
F5.1975250244140625e-05
sS'exec_cq'
p429
I1
sS'total_cq'
p430
I2
sasS'total_cqs'
p431
I2
ssI40
(dp432
S'iters'
p433
I6
sS'meta'
p434
(lp435
(dp436
S'objective'
p437
I58
sS'query_time'
p438
F0.43468499183654785
sS'comp_time'
p439
F0.0005490779876708984
sS'exec_cq'
p440
I1
sS'total_cq'
p441
I35
sa(dp442
g437
I296
sg438
F0.012382030487060547
sg439
F3.600120544433594e-05
sg440
I1
sg441
I18
sa(dp443
g437
I294
sg438
F0.011606931686401367
sg439
F3.600120544433594e-05
sg440
I1
sg441
I17
sa(dp444
g437
I177
sg438
F0.021168947219848633
sg439
F3.504753112792969e-05
sg440
I1
sg441
I16
sa(dp445
g437
I200
sg438
F0.008661031723022461
sg439
F3.3855438232421875e-05
sg440
I1
sg441
I13
sa(dp446
g437
I151
sg438
F0.01353907585144043
sg439
F3.2901763916015625e-05
sg440
I1
sg441
I11
sasS'total_cqs'
p447
I35
ssI41
(dp448
S'iters'
p449
I1
sS'meta'
p450
(lp451
(dp452
S'objective'
p453
I1
sS'query_time'
p454
F0.17706584930419922
sS'comp_time'
p455
F3.409385681152344e-05
sS'exec_cq'
p456
I1
sS'total_cq'
p457
I2
sasS'total_cqs'
p458
I2
ssI42
(dp459
S'iters'
p460
I1
sS'meta'
p461
(lp462
(dp463
S'objective'
p464
I104
sS'query_time'
p465
F0.041914939880371094
sS'comp_time'
p466
F5.698204040527344e-05
sS'exec_cq'
p467
I1
sS'total_cq'
p468
I16
sasS'total_cqs'
p469
I16
ssI43
(dp470
S'iters'
p471
I3
sS'meta'
p472
(lp473
(dp474
S'objective'
p475
I963
sS'query_time'
p476
F0.10301589965820312
sS'comp_time'
p477
F7.677078247070312e-05
sS'exec_cq'
p478
I1
sS'total_cq'
p479
I54
sa(dp480
g475
I53
sg476
F0.007921934127807617
sg477
F3.695487976074219e-05
sg478
I1
sg479
I6
sa(dp481
g475
I4
sg476
F0.007573843002319336
sg477
F3.0994415283203125e-05
sg478
I1
sg479
I2
sasS'total_cqs'
p482
I54
ssI44
(dp483
S'iters'
p484
I0
sS'meta'
p485
(lp486
sS'total_cqs'
p487
I1
ssI45
(dp488
S'iters'
p489
I1
sS'meta'
p490
(lp491
(dp492
S'objective'
p493
I1539
sS'query_time'
p494
F0.4103398323059082
sS'comp_time'
p495
F0.00010704994201660156
sS'exec_cq'
p496
I1
sS'total_cq'
p497
I57
sasS'total_cqs'
p498
I57
ssI46
(dp499
S'iters'
p500
I2
sS'meta'
p501
(lp502
(dp503
S'objective'
p504
I7
sS'query_time'
p505
F0.022409915924072266
sS'comp_time'
p506
F4.696846008300781e-05
sS'exec_cq'
p507
I1
sS'total_cq'
p508
I6
sa(dp509
g504
I2
sg505
F0.0026378631591796875
sg506
F3.409385681152344e-05
sg507
I1
sg508
I3
sasS'total_cqs'
p510
I6
ssI47
(dp511
S'iters'
p512
I2
sS'meta'
p513
(lp514
(dp515
S'objective'
p516
I6903
sS'query_time'
p517
F0.1181480884552002
sS'comp_time'
p518
F9.012222290039062e-05
sS'exec_cq'
p519
I1
sS'total_cq'
p520
I126
sa(dp521
g516
I297
sg517
F0.00432896614074707
sg518
F4.100799560546875e-05
sg519
I1
sg520
I6
sasS'total_cqs'
p522
I126
ssI48
(dp523
S'iters'
p524
I2
sS'meta'
p525
(lp526
(dp527
S'objective'
p528
I17
sS'query_time'
p529
F0.3865790367126465
sS'comp_time'
p530
F5.698204040527344e-05
sS'exec_cq'
p531
I1
sS'total_cq'
p532
I21
sa(dp533
g528
I65
sg529
F0.017154932022094727
sg530
F3.504753112792969e-05
sg531
I1
sg532
I13
sasS'total_cqs'
p534
I21
ssI49
(dp535
S'iters'
p536
I2
sS'meta'
p537
(lp538
(dp539
S'objective'
p540
I1817
sS'query_time'
p541
F0.21706700325012207
sS'comp_time'
p542
F9.202957153320312e-05
sS'exec_cq'
p543
I1
sS'total_cq'
p544
I66
sa(dp545
g540
I65
sg541
F0.00807499885559082
sg542
F3.409385681152344e-05
sg543
I1
sg544
I5
sasS'total_cqs'
p546
I66
ssI50
(dp547
S'iters'
p548
I1
sS'meta'
p549
(lp550
(dp551
S'objective'
p552
I39902
sS'query_time'
p553
F0.17446303367614746
sS'comp_time'
p554
F0.0002110004425048828
sS'exec_cq'
p555
I1
sS'total_cq'
p556
I284
sasS'total_cqs'
p557
I284
ssI51
(dp558
S'iters'
p559
I1
sS'meta'
p560
(lp561
(dp562
S'objective'
p563
I1
sS'query_time'
p564
F0.2236020565032959
sS'comp_time'
p565
F3.0994415283203125e-05
sS'exec_cq'
p566
I1
sS'total_cq'
p567
I2
sasS'total_cqs'
p568
I2
ssI52
(dp569
S'iters'
p570
I0
sS'meta'
p571
(lp572
sS'total_cqs'
p573
I1
ssI53
(dp574
S'iters'
p575
I1
sS'meta'
p576
(lp577
(dp578
S'objective'
p579
I1
sS'query_time'
p580
F0.35008716583251953
sS'comp_time'
p581
F5.0067901611328125e-05
sS'exec_cq'
p582
I1
sS'total_cq'
p583
I2
sasS'total_cqs'
p584
I2
ssI54
(dp585
S'iters'
p586
I3
sS'meta'
p587
(lp588
(dp589
S'objective'
p590
I258
sS'query_time'
p591
F0.05034804344177246
sS'comp_time'
p592
F6.914138793945312e-05
sS'exec_cq'
p593
I1
sS'total_cq'
p594
I27
sa(dp595
g590
I30
sg591
F0.006855010986328125
sg592
F3.600120544433594e-05
sg593
I1
sg594
I3
sa(dp596
g590
I9
sg591
F0.00368499755859375
sg592
F3.600120544433594e-05
sg593
I1
sg594
I2
sasS'total_cqs'
p597
I27
ssI55
(dp598
S'iters'
p599
I3
sS'meta'
p600
(lp601
(dp602
S'objective'
p603
I880
sS'query_time'
p604
F0.08801007270812988
sS'comp_time'
p605
F6.508827209472656e-05
sS'exec_cq'
p606
I1
sS'total_cq'
p607
I55
sa(dp608
g603
I122
sg604
F0.007500886917114258
sg605
F3.695487976074219e-05
sg606
I1
sg607
I10
sa(dp609
g603
I116
sg604
F0.005053043365478516
sg605
F3.600120544433594e-05
sg606
I1
sg607
I7
sasS'total_cqs'
p610
I55
ssI56
(dp611
S'iters'
p612
I2
sS'meta'
p613
(lp614
(dp615
S'objective'
p616
I2017
sS'query_time'
p617
F0.49431800842285156
sS'comp_time'
p618
F8.988380432128906e-05
sS'exec_cq'
p619
I1
sS'total_cq'
p620
I82
sa(dp621
g616
I529
sg617
F0.011862993240356445
sg618
F4.601478576660156e-05
sg619
I1
sg620
I17
sasS'total_cqs'
p622
I82
ssI57
(dp623
S'iters'
p624
I1
sS'meta'
p625
(lp626
(dp627
S'objective'
p628
I1
sS'query_time'
p629
F0.17389392852783203
sS'comp_time'
p630
F3.314018249511719e-05
sS'exec_cq'
p631
I1
sS'total_cq'
p632
I2
sasS'total_cqs'
p633
I2
ssI58
(dp634
S'iters'
p635
I1
sS'meta'
p636
(lp637
(dp638
S'objective'
p639
I39902
sS'query_time'
p640
F0.16287899017333984
sS'comp_time'
p641
F0.00022792816162109375
sS'exec_cq'
p642
I1
sS'total_cq'
p643
I284
sasS'total_cqs'
p644
I284
ssI59
(dp645
S'iters'
p646
I1
sS'meta'
p647
(lp648
(dp649
S'objective'
p650
I1
sS'query_time'
p651
F0.08234620094299316
sS'comp_time'
p652
F5.888938903808594e-05
sS'exec_cq'
p653
I1
sS'total_cq'
p654
I2
sasS'total_cqs'
p655
I2
ssI60
(dp656
S'iters'
p657
I1
sS'meta'
p658
(lp659
(dp660
S'objective'
p661
I1890
sS'query_time'
p662
F0.04077315330505371
sS'comp_time'
p663
F6.4849853515625e-05
sS'exec_cq'
p664
I1
sS'total_cq'
p665
I63
sasS'total_cqs'
p666
I63
ssI61
(dp667
S'iters'
p668
I2
sS'meta'
p669
(lp670
(dp671
S'objective'
p672
I0
sS'query_time'
p673
F0.3641669750213623
sS'comp_time'
p674
F5.1021575927734375e-05
sS'exec_cq'
p675
I1
sS'total_cq'
p676
I4
sa(dp677
g672
I3
sg673
F0.0018110275268554688
sg674
F2.5987625122070312e-05
sg675
I1
sg676
I2
sasS'total_cqs'
p678
I4
ssI62
(dp679
S'iters'
p680
I1
sS'meta'
p681
(lp682
(dp683
S'objective'
p684
I594
sS'query_time'
p685
F0.06008315086364746
sS'comp_time'
p686
F5.984306335449219e-05
sS'exec_cq'
p687
I1
sS'total_cq'
p688
I36
sasS'total_cqs'
p689
I36
ssI63
(dp690
S'iters'
p691
I2
sS'meta'
p692
(lp693
(dp694
S'objective'
p695
I1317
sS'query_time'
p696
F0.030742168426513672
sS'comp_time'
p697
F5.698204040527344e-05
sS'exec_cq'
p698
I1
sS'total_cq'
p699
I54
sa(dp700
g695
I24
sg696
F0.0009579658508300781
sg697
F3.504753112792969e-05
sg698
I1
sg699
I2
sasS'total_cqs'
p701
I54
ssI64
(dp702
S'iters'
p703
I3
sS'meta'
p704
(lp705
(dp706
S'objective'
p707
I121
sS'query_time'
p708
F0.38123416900634766
sS'comp_time'
p709
F3.600120544433594e-05
sS'exec_cq'
p710
I1
sS'total_cq'
p711
I17
sa(dp712
g707
I99
sg708
F0.011758804321289062
sg709
F4.506111145019531e-05
sg710
I1
sg711
I15
sa(dp713
g707
I84
sg708
F0.008684158325195312
sg709
F3.600120544433594e-05
sg710
I1
sg711
I13
sasS'total_cqs'
p714
I17
ssI65
(dp715
S'iters'
p716
I1
sS'meta'
p717
(lp718
(dp719
S'objective'
p720
I1
sS'query_time'
p721
F0.16209793090820312
sS'comp_time'
p722
F5.507469177246094e-05
sS'exec_cq'
p723
I1
sS'total_cq'
p724
I2
sasS'total_cqs'
p725
I2
ssI66
(dp726
S'iters'
p727
I1
sS'meta'
p728
(lp729
(dp730
S'objective'
p731
I39902
sS'query_time'
p732
F0.17740201950073242
sS'comp_time'
p733
F0.0001590251922607422
sS'exec_cq'
p734
I1
sS'total_cq'
p735
I284
sasS'total_cqs'
p736
I284
ssI67
(dp737
S'iters'
p738
I1
sS'meta'
p739
(lp740
(dp741
S'objective'
p742
I1
sS'query_time'
p743
F0.11856508255004883
sS'comp_time'
p744
F3.0994415283203125e-05
sS'exec_cq'
p745
I1
sS'total_cq'
p746
I2
sasS'total_cqs'
p747
I2
ssI68
(dp748
S'iters'
p749
I1
sS'meta'
p750
(lp751
(dp752
S'objective'
p753
I1890
sS'query_time'
p754
F0.03807210922241211
sS'comp_time'
p755
F8.106231689453125e-05
sS'exec_cq'
p756
I1
sS'total_cq'
p757
I63
sasS'total_cqs'
p758
I63
ssI69
(dp759
S'iters'
p760
I1
sS'meta'
p761
(lp762
(dp763
S'objective'
p764
I945
sS'query_time'
p765
F0.3222951889038086
sS'comp_time'
p766
F8.20159912109375e-05
sS'exec_cq'
p767
I1
sS'total_cq'
p768
I45
sasS'total_cqs'
p769
I45
ssI70
(dp770
S'iters'
p771
I2
sS'meta'
p772
(lp773
(dp774
S'objective'
p775
I308
sS'query_time'
p776
F0.047196149826049805
sS'comp_time'
p777
F5.698204040527344e-05
sS'exec_cq'
p778
I1
sS'total_cq'
p779
I27
sa(dp780
g775
I19
sg776
F0.003595113754272461
sg777
F3.409385681152344e-05
sg778
I1
sg779
I2
sasS'total_cqs'
p781
I27
ssI71
(dp782
S'iters'
p783
I2
sS'meta'
p784
(lp785
(dp786
S'objective'
p787
I63415
sS'query_time'
p788
F0.30620408058166504
sS'comp_time'
p789
F0.00017690658569335938
sS'exec_cq'
p790
I1
sS'total_cq'
p791
I366
sa(dp792
g787
I1141
sg788
F0.008007049560546875
sg789
F4.1961669921875e-05
sg790
I1
sg791
I8
sasS'total_cqs'
p793
I366
ssI72
(dp794
S'iters'
p795
I4
sS'meta'
p796
(lp797
(dp798
S'objective'
p799
I141
sS'query_time'
p800
F0.3950159549713135
sS'comp_time'
p801
F6.198883056640625e-05
sS'exec_cq'
p802
I1
sS'total_cq'
p803
I17
sa(dp804
g799
I65
sg800
F0.013915061950683594
sg801
F4.291534423828125e-05
sg802
I1
sg803
I16
sa(dp805
g799
I76
sg800
F0.02828502655029297
sg801
F4.00543212890625e-05
sg802
I1
sg803
I10
sa(dp806
g799
I57
sg800
F0.036048173904418945
sg801
F3.2901763916015625e-05
sg802
I1
sg803
I9
sasS'total_cqs'
p807
I17
ss.