(dp0
I1
(dp1
S'iters'
p2
I1
sS'meta'
p3
(lp4
(dp5
S'objective'
p6
I0
sS'query_time'
p7
F0.18501806259155273
sS'comp_time'
p8
F8.392333984375e-05
sS'exec_cq'
p9
I1
sS'total_cq'
p10
I3
sasS'total_cqs'
p11
I3
ssI2
(dp12
S'iters'
p13
I2
sS'meta'
p14
(lp15
(dp16
S'objective'
p17
I60
sS'query_time'
p18
F0.047502994537353516
sS'comp_time'
p19
F9.226799011230469e-05
sS'exec_cq'
p20
I1
sS'total_cq'
p21
I19
sa(dp22
g17
I27
sg18
F0.006275177001953125
sg19
F6.699562072753906e-05
sg20
I1
sg21
I5
sasS'total_cqs'
p23
I19
ssI3
(dp24
S'iters'
p25
I1
sS'meta'
p26
(lp27
(dp28
S'objective'
p29
I1
sS'query_time'
p30
F0.08745884895324707
sS'comp_time'
p31
F8.106231689453125e-05
sS'exec_cq'
p32
I1
sS'total_cq'
p33
I2
sasS'total_cqs'
p34
I2
ssI4
(dp35
S'iters'
p36
I1
sS'meta'
p37
(lp38
(dp39
S'objective'
p40
I1710
sS'query_time'
p41
F0.04497814178466797
sS'comp_time'
p42
F0.00012183189392089844
sS'exec_cq'
p43
I1
sS'total_cq'
p44
I60
sasS'total_cqs'
p45
I60
ssI5
(dp46
S'iters'
p47
I1
sS'meta'
p48
(lp49
(dp50
S'objective'
p51
I8645
sS'query_time'
p52
F0.4317901134490967
sS'comp_time'
p53
F0.00023317337036132812
sS'exec_cq'
p54
I1
sS'total_cq'
p55
I133
sasS'total_cqs'
p56
I133
ssI6
(dp57
S'iters'
p58
I2
sS'meta'
p59
(lp60
(dp61
S'objective'
p62
I182
sS'query_time'
p63
F0.04892396926879883
sS'comp_time'
p64
F0.000102996826171875
sS'exec_cq'
p65
I1
sS'total_cq'
p66
I23
sa(dp67
g62
I1
sg63
F0.0052602291107177734
sg64
F7.390975952148438e-05
sg65
I1
sg66
I3
sasS'total_cqs'
p68
I23
ssI7
(dp69
S'iters'
p70
I2
sS'meta'
p71
(lp72
(dp73
S'objective'
p74
I27502
sS'query_time'
p75
F0.2140340805053711
sS'comp_time'
p76
F0.0003349781036376953
sS'exec_cq'
p77
I1
sS'total_cq'
p78
I244
sa(dp79
g74
I706
sg75
F0.005476236343383789
sg76
F7.295608520507812e-05
sg77
I1
sg78
I8
sasS'total_cqs'
p80
I244
ssI8
(dp81
S'iters'
p82
I5
sS'meta'
p83
(lp84
(dp85
S'objective'
p86
I1929
sS'query_time'
p87
F0.46567702293395996
sS'comp_time'
p88
F0.00019168853759765625
sS'exec_cq'
p89
I1
sS'total_cq'
p90
I82
sa(dp91
g86
I603
sg87
F0.012985944747924805
sg88
F9.894371032714844e-05
sg89
I1
sg90
I16
sa(dp92
g86
I624
sg87
F0.021577119827270508
sg88
F7.414817810058594e-05
sg89
I1
sg90
I14
sa(dp93
g86
I323
sg87
F0.32730913162231445
sg88
F9.202957153320312e-05
sg89
I2
sg90
I13
sa(dp94
g86
I2
sg87
F0.5086429119110107
sg88
F0.0003039836883544922
sg89
I2
sg90
I2
sasS'total_cqs'
p95
I82
ssI9
(dp96
S'iters'
p97
I1
sS'meta'
p98
(lp99
(dp100
S'objective'
p101
I1
sS'query_time'
p102
F0.17554903030395508
sS'comp_time'
p103
F7.510185241699219e-05
sS'exec_cq'
p104
I1
sS'total_cq'
p105
I2
sasS'total_cqs'
p106
I2
ssI10
(dp107
S'iters'
p108
I1
sS'meta'
p109
(lp110
(dp111
S'objective'
p112
I21735
sS'query_time'
p113
F0.14953398704528809
sS'comp_time'
p114
F0.00024199485778808594
sS'exec_cq'
p115
I1
sS'total_cq'
p116
I210
sasS'total_cqs'
p117
I210
ssI11
(dp118
S'iters'
p119
I1
sS'meta'
p120
(lp121
(dp122
S'objective'
p123
I1
sS'query_time'
p124
F0.0835578441619873
sS'comp_time'
p125
F7.200241088867188e-05
sS'exec_cq'
p126
I1
sS'total_cq'
p127
I2
sasS'total_cqs'
p128
I2
ssI12
(dp129
S'iters'
p130
I0
sS'meta'
p131
(lp132
sS'total_cqs'
p133
I1
ssI13
(dp134
S'iters'
p135
I1
sS'meta'
p136
(lp137
(dp138
S'objective'
p139
I1
sS'query_time'
p140
F0.37856411933898926
sS'comp_time'
p141
F7.104873657226562e-05
sS'exec_cq'
p142
I1
sS'total_cq'
p143
I2
sasS'total_cqs'
p144
I2
ssI14
(dp145
S'iters'
p146
I3
sS'meta'
p147
(lp148
(dp149
S'objective'
p150
I16439
sS'query_time'
p151
F0.15125799179077148
sS'comp_time'
p152
F0.00022792816162109375
sS'exec_cq'
p153
I1
sS'total_cq'
p154
I185
sa(dp155
g150
I345
sg151
F0.0028629302978515625
sg152
F5.0067901611328125e-05
sg153
I1
sg154
I3
sa(dp156
g150
I6
sg151
F0.0017600059509277344
sg152
F5.3882598876953125e-05
sg153
I1
sg154
I2
sasS'total_cqs'
p157
I185
ssI15
(dp158
S'iters'
p159
I2
sS'meta'
p160
(lp161
(dp162
S'objective'
p163
I27498
sS'query_time'
p164
F0.21743202209472656
sS'comp_time'
p165
F0.00033092498779296875
sS'exec_cq'
p166
I1
sS'total_cq'
p167
I244
sa(dp168
g163
I708
sg164
F0.00928807258605957
sg165
F7.295608520507812e-05
sg166
I1
sg167
I10
sasS'total_cqs'
p169
I244
ssI16
(dp170
S'iters'
p171
I5
sS'meta'
p172
(lp173
(dp174
S'objective'
p175
I24
sS'query_time'
p176
F0.4342808723449707
sS'comp_time'
p177
F9.298324584960938e-05
sS'exec_cq'
p178
I1
sS'total_cq'
p179
I23
sa(dp180
g175
I96
sg176
F0.01007390022277832
sg177
F6.389617919921875e-05
sg178
I1
sg179
I13
sa(dp181
g175
I85
sg176
F0.008764982223510742
sg177
F5.698204040527344e-05
sg178
I1
sg179
I12
sa(dp182
g175
I92
sg176
F0.022171974182128906
sg177
F5.7220458984375e-05
sg178
I1
sg179
I10
sa(dp183
g175
I49
sg176
F0.319490909576416
sg177
F8.606910705566406e-05
sg178
I2
sg179
I9
sasS'total_cqs'
p184
I23
ssI17
(dp185
S'iters'
p186
I2
sS'meta'
p187
(lp188
(dp189
S'objective'
p190
I6328
sS'query_time'
p191
F0.22259211540222168
sS'comp_time'
p192
F0.00017189979553222656
sS'exec_cq'
p193
I1
sS'total_cq'
p194
I116
sa(dp195
g190
I3
sg191
F0.0033309459686279297
sg192
F5.316734313964844e-05
sg193
I1
sg194
I2
sasS'total_cqs'
p196
I116
ssI18
(dp197
S'iters'
p198
I1
sS'meta'
p199
(lp200
(dp201
S'objective'
p202
I152
sS'query_time'
p203
F0.04343605041503906
sS'comp_time'
p204
F9.298324584960938e-05
sS'exec_cq'
p205
I1
sS'total_cq'
p206
I19
sasS'total_cqs'
p207
I19
ssI19
(dp208
S'iters'
p209
I2
sS'meta'
p210
(lp211
(dp212
S'objective'
p213
I1285
sS'query_time'
p214
F0.11717891693115234
sS'comp_time'
p215
F0.0001289844512939453
sS'exec_cq'
p216
I1
sS'total_cq'
p217
I54
sa(dp218
g213
I8
sg214
F0.025419950485229492
sg215
F5.793571472167969e-05
sg216
I1
sg217
I2
sasS'total_cqs'
p219
I54
ssI20
(dp220
S'iters'
p221
I1
sS'meta'
p222
(lp223
(dp224
S'objective'
p225
I1710
sS'query_time'
p226
F0.045152902603149414
sS'comp_time'
p227
F0.00013589859008789062
sS'exec_cq'
p228
I1
sS'total_cq'
p229
I60
sasS'total_cqs'
p230
I60
ssI21
(dp231
S'iters'
p232
I1
sS'meta'
p233
(lp234
(dp235
S'objective'
p236
I945
sS'query_time'
p237
F0.3936600685119629
sS'comp_time'
p238
F9.894371032714844e-05
sS'exec_cq'
p239
I1
sS'total_cq'
p240
I45
sasS'total_cqs'
p241
I45
ssI22
(dp242
S'iters'
p243
I2
sS'meta'
p244
(lp245
(dp246
S'objective'
p247
I13
sS'query_time'
p248
F0.029805898666381836
sS'comp_time'
p249
F8.96453857421875e-05
sS'exec_cq'
p250
I1
sS'total_cq'
p251
I9
sa(dp252
g247
I2
sg248
F0.0026979446411132812
sg249
F5.316734313964844e-05
sg250
I1
sg251
I3
sasS'total_cqs'
p253
I9
ssI23
(dp254
S'iters'
p255
I1
sS'meta'
p256
(lp257
(dp258
S'objective'
p259
I1224
sS'query_time'
p260
F0.03690505027770996
sS'comp_time'
p261
F0.00010085105895996094
sS'exec_cq'
p262
I1
sS'total_cq'
p263
I51
sasS'total_cqs'
p264
I51
ssI24
(dp265
S'iters'
p266
I1
sS'meta'
p267
(lp268
(dp269
S'objective'
p270
I1461194
sS'query_time'
p271
F1.339768886566162
sS'comp_time'
p272
F0.0034508705139160156
sS'exec_cq'
p273
I1
sS'total_cq'
p274
I1711
sasS'total_cqs'
p275
I1711
ssI25
(dp276
S'iters'
p277
I1
sS'meta'
p278
(lp279
(dp280
S'objective'
p281
I6327
sS'query_time'
p282
F0.2262258529663086
sS'comp_time'
p283
F0.00016498565673828125
sS'exec_cq'
p284
I1
sS'total_cq'
p285
I114
sasS'total_cqs'
p286
I114
ssI26
(dp287
S'iters'
p288
I2
sS'meta'
p289
(lp290
(dp291
S'objective'
p292
I20
sS'query_time'
p293
F0.03726911544799805
sS'comp_time'
p294
F8.416175842285156e-05
sS'exec_cq'
p295
I1
sS'total_cq'
p296
I12
sa(dp297
g292
I5
sg293
F0.006539106369018555
sg294
F5.984306335449219e-05
sg295
I1
sg296
I5
sasS'total_cqs'
p298
I12
ssI27
(dp299
S'iters'
p300
I1
sS'meta'
p301
(lp302
(dp303
S'objective'
p304
I1
sS'query_time'
p305
F0.0816199779510498
sS'comp_time'
p306
F7.867813110351562e-05
sS'exec_cq'
p307
I1
sS'total_cq'
p308
I2
sasS'total_cqs'
p309
I2
ssI28
(dp310
S'iters'
p311
I0
sS'meta'
p312
(lp313
sS'total_cqs'
p314
I1
ssI29
(dp315
S'iters'
p316
I2
sS'meta'
p317
(lp318
(dp319
S'objective'
p320
I8537
sS'query_time'
p321
F0.4385650157928467
sS'comp_time'
p322
F0.00020003318786621094
sS'exec_cq'
p323
I1
sS'total_cq'
p324
I133
sa(dp325
g320
I79
sg321
F0.012204885482788086
sg322
F6.29425048828125e-05
sg323
I1
sg324
I2
sasS'total_cqs'
p326
I133
ssI30
(dp327
S'iters'
p328
I2
sS'meta'
p329
(lp330
(dp331
S'objective'
p332
I7767
sS'query_time'
p333
F0.08458399772644043
sS'comp_time'
p334
F0.0002143383026123047
sS'exec_cq'
p335
I1
sS'total_cq'
p336
I129
sa(dp337
g332
I51
sg333
F0.002885103225708008
sg334
F8.106231689453125e-05
sg335
I1
sg336
I3
sasS'total_cqs'
p338
I129
ssI31
(dp339
S'iters'
p340
I2
sS'meta'
p341
(lp342
(dp343
S'objective'
p344
I1433
sS'query_time'
p345
F0.03546500205993652
sS'comp_time'
p346
F0.00011277198791503906
sS'exec_cq'
p347
I1
sS'total_cq'
p348
I57
sa(dp349
g344
I4
sg345
F0.0009410381317138672
sg346
F5.2928924560546875e-05
sg347
I1
sg348
I2
sasS'total_cqs'
p350
I57
ssI32
(dp351
S'iters'
p352
I5
sS'meta'
p353
(lp354
(dp355
S'objective'
p356
I2295
sS'query_time'
p357
F0.475283145904541
sS'comp_time'
p358
F0.0001552104949951172
sS'exec_cq'
p359
I1
sS'total_cq'
p360
I82
sa(dp361
g356
I502
sg357
F0.011900901794433594
sg358
F8.296966552734375e-05
sg359
I1
sg360
I15
sa(dp362
g356
I412
sg357
F0.011722087860107422
sg358
F7.486343383789062e-05
sg359
I1
sg360
I13
sa(dp363
g356
I404
sg357
F0.043580055236816406
sg358
F8.511543273925781e-05
sg359
I1
sg360
I11
sa(dp364
g356
I273
sg357
F0.31708598136901855
sg358
F6.389617919921875e-05
sg359
I2
sg360
I10
sasS'total_cqs'
p365
I82
ssI33
(dp366
S'iters'
p367
I1
sS'meta'
p368
(lp369
(dp370
S'objective'
p371
I1
sS'query_time'
p372
F0.1731710433959961
sS'comp_time'
p373
F6.818771362304688e-05
sS'exec_cq'
p374
I1
sS'total_cq'
p375
I2
sasS'total_cqs'
p376
I2
ssI34
(dp377
S'iters'
p378
I1
sS'meta'
p379
(lp380
(dp381
S'objective'
p382
I54
sS'query_time'
p383
F0.037825822830200195
sS'comp_time'
p384
F7.700920104980469e-05
sS'exec_cq'
p385
I1
sS'total_cq'
p386
I12
sasS'total_cqs'
p387
I12
ssI35
(dp388
S'iters'
p389
I2
sS'meta'
p390
(lp391
(dp392
S'objective'
p393
I5861
sS'query_time'
p394
F0.12421584129333496
sS'comp_time'
p395
F0.00015401840209960938
sS'exec_cq'
p396
I1
sS'total_cq'
p397
I110
sa(dp398
g393
I98
sg394
F0.009582996368408203
sg395
F5.888938903808594e-05
sg396
I1
sg397
I2
sasS'total_cqs'
p399
I110
ssI36
(dp400
S'iters'
p401
I1
sS'meta'
p402
(lp403
(dp404
S'objective'
p405
I1890
sS'query_time'
p406
F0.04063701629638672
sS'comp_time'
p407
F0.00012421607971191406
sS'exec_cq'
p408
I1
sS'total_cq'
p409
I63
sasS'total_cqs'
p410
I63
ssI37
(dp411
S'iters'
p412
I1
sS'meta'
p413
(lp414
(dp415
S'objective'
p416
I1539
sS'query_time'
p417
F0.3986549377441406
sS'comp_time'
p418
F0.00013303756713867188
sS'exec_cq'
p419
I1
sS'total_cq'
p420
I57
sasS'total_cqs'
p421
I57
ssI38
(dp422
S'iters'
p423
I1
sS'meta'
p424
(lp425
(dp426
S'objective'
p427
I8127
sS'query_time'
p428
F0.0805208683013916
sS'comp_time'
p429
F0.0001800060272216797
sS'exec_cq'
p430
I1
sS'total_cq'
p431
I129
sasS'total_cqs'
p432
I129
ssI39
(dp433
S'iters'
p434
I1
sS'meta'
p435
(lp436
(dp437
S'objective'
p438
I1
sS'query_time'
p439
F0.012318134307861328
sS'comp_time'
p440
F6.389617919921875e-05
sS'exec_cq'
p441
I1
sS'total_cq'
p442
I2
sasS'total_cqs'
p443
I2
ssI40
(dp444
S'iters'
p445
I3
sS'meta'
p446
(lp447
(dp448
S'objective'
p449
I48
sS'query_time'
p450
F0.42761921882629395
sS'comp_time'
p451
F0.00013113021850585938
sS'exec_cq'
p452
I1
sS'total_cq'
p453
I35
sa(dp454
g449
I143
sg450
F0.014683008193969727
sg451
F7.891654968261719e-05
sg452
I1
sg453
I18
sa(dp455
g449
I171
sg450
F0.0173490047454834
sg451
F6.890296936035156e-05
sg452
I1
sg453
I12
sasS'total_cqs'
p456
I35
ssI41
(dp457
S'iters'
p458
I1
sS'meta'
p459
(lp460
(dp461
S'objective'
p462
I1
sS'query_time'
p463
F0.17430996894836426
sS'comp_time'
p464
F7.009506225585938e-05
sS'exec_cq'
p465
I1
sS'total_cq'
p466
I2
sasS'total_cqs'
p467
I2
ssI42
(dp468
S'iters'
p469
I1
sS'meta'
p470
(lp471
(dp472
S'objective'
p473
I104
sS'query_time'
p474
F0.04580807685852051
sS'comp_time'
p475
F8.58306884765625e-05
sS'exec_cq'
p476
I1
sS'total_cq'
p477
I16
sasS'total_cqs'
p478
I16
ssI43
(dp479
S'iters'
p480
I2
sS'meta'
p481
(lp482
(dp483
S'objective'
p484
I1311
sS'query_time'
p485
F0.10499691963195801
sS'comp_time'
p486
F0.00014591217041015625
sS'exec_cq'
p487
I1
sS'total_cq'
p488
I54
sa(dp489
g484
I21
sg485
F0.030419111251831055
sg486
F6.699562072753906e-05
sg487
I1
sg488
I2
sasS'total_cqs'
p490
I54
ssI44
(dp491
S'iters'
p492
I0
sS'meta'
p493
(lp494
sS'total_cqs'
p495
I1
ssI45
(dp496
S'iters'
p497
I1
sS'meta'
p498
(lp499
(dp500
S'objective'
p501
I1539
sS'query_time'
p502
F0.4033169746398926
sS'comp_time'
p503
F0.00013136863708496094
sS'exec_cq'
p504
I1
sS'total_cq'
p505
I57
sasS'total_cqs'
p506
I57
ssI46
(dp507
S'iters'
p508
I2
sS'meta'
p509
(lp510
(dp511
S'objective'
p512
I1
sS'query_time'
p513
F0.02291703224182129
sS'comp_time'
p514
F6.890296936035156e-05
sS'exec_cq'
p515
I1
sS'total_cq'
p516
I6
sa(dp517
g512
I1
sg513
F0.002624988555908203
sg514
F5.2928924560546875e-05
sg515
I1
sg516
I3
sasS'total_cqs'
p518
I6
ssI47
(dp519
S'iters'
p520
I2
sS'meta'
p521
(lp522
(dp523
S'objective'
p524
I7135
sS'query_time'
p525
F0.11637091636657715
sS'comp_time'
p526
F0.00016999244689941406
sS'exec_cq'
p527
I1
sS'total_cq'
p528
I126
sa(dp529
g524
I181
sg525
F0.005793094635009766
sg526
F5.507469177246094e-05
sg527
I1
sg528
I5
sasS'total_cqs'
p530
I126
ssI48
(dp531
S'iters'
p532
I6
sS'meta'
p533
(lp534
(dp535
S'objective'
p536
I123
sS'query_time'
p537
F0.41443896293640137
sS'comp_time'
p538
F9.894371032714844e-05
sS'exec_cq'
p539
I1
sS'total_cq'
p540
I21
sa(dp541
g536
I137
sg537
F0.013672828674316406
sg538
F6.222724914550781e-05
sg539
I1
sg540
I16
sa(dp542
g536
I101
sg537
F0.010662078857421875
sg538
F5.316734313964844e-05
sg539
I1
sg540
I15
sa(dp543
g536
I97
sg537
F0.01792311668395996
sg538
F7.891654968261719e-05
sg539
I1
sg540
I12
sa(dp544
g536
I53
sg537
F2.7388620376586914
sg538
F0.000308990478515625
sg539
I2
sg540
I10
sa(dp545
g536
I12
sg537
F0.48821210861206055
sg538
F5.507469177246094e-05
sg539
I2
sg540
I2
sasS'total_cqs'
p546
I21
ssI49
(dp547
S'iters'
p548
I2
sS'meta'
p549
(lp550
(dp551
S'objective'
p552
I2035
sS'query_time'
p553
F0.22885894775390625
sS'comp_time'
p554
F0.00014400482177734375
sS'exec_cq'
p555
I1
sS'total_cq'
p556
I66
sa(dp557
g552
I44
sg553
F0.0033559799194335938
sg554
F5.984306335449219e-05
sg555
I1
sg556
I2
sasS'total_cqs'
p558
I66
ssI50
(dp559
S'iters'
p560
I1
sS'meta'
p561
(lp562
(dp563
S'objective'
p564
I39902
sS'query_time'
p565
F0.17359590530395508
sS'comp_time'
p566
F0.0003440380096435547
sS'exec_cq'
p567
I1
sS'total_cq'
p568
I284
sasS'total_cqs'
p569
I284
ssI51
(dp570
S'iters'
p571
I1
sS'meta'
p572
(lp573
(dp574
S'objective'
p575
I1
sS'query_time'
p576
F0.08851289749145508
sS'comp_time'
p577
F7.510185241699219e-05
sS'exec_cq'
p578
I1
sS'total_cq'
p579
I2
sasS'total_cqs'
p580
I2
ssI52
(dp581
S'iters'
p582
I0
sS'meta'
p583
(lp584
sS'total_cqs'
p585
I1
ssI53
(dp586
S'iters'
p587
I1
sS'meta'
p588
(lp589
(dp590
S'objective'
p591
I1
sS'query_time'
p592
F0.35619688034057617
sS'comp_time'
p593
F5.3882598876953125e-05
sS'exec_cq'
p594
I1
sS'total_cq'
p595
I2
sasS'total_cqs'
p596
I2
ssI54
(dp597
S'iters'
p598
I2
sS'meta'
p599
(lp600
(dp601
S'objective'
p602
I184
sS'query_time'
p603
F0.04922890663146973
sS'comp_time'
p604
F0.00010991096496582031
sS'exec_cq'
p605
I1
sS'total_cq'
p606
I27
sa(dp607
g602
I43
sg603
F0.005529165267944336
sg604
F6.29425048828125e-05
sg605
I1
sg606
I6
sasS'total_cqs'
p608
I27
ssI55
(dp609
S'iters'
p610
I1
sS'meta'
p611
(lp612
(dp613
S'objective'
p614
I1430
sS'query_time'
p615
F0.07137012481689453
sS'comp_time'
p616
F0.00011992454528808594
sS'exec_cq'
p617
I1
sS'total_cq'
p618
I55
sasS'total_cqs'
p619
I55
ssI56
(dp620
S'iters'
p621
I1
sS'meta'
p622
(lp623
(dp624
S'objective'
p625
I3239
sS'query_time'
p626
F0.4721858501434326
sS'comp_time'
p627
F0.0001468658447265625
sS'exec_cq'
p628
I1
sS'total_cq'
p629
I82
sasS'total_cqs'
p630
I82
ssI57
(dp631
S'iters'
p632
I1
sS'meta'
p633
(lp634
(dp635
S'objective'
p636
I1
sS'query_time'
p637
F0.17007899284362793
sS'comp_time'
p638
F6.914138793945312e-05
sS'exec_cq'
p639
I1
sS'total_cq'
p640
I2
sasS'total_cqs'
p641
I2
ssI58
(dp642
S'iters'
p643
I1
sS'meta'
p644
(lp645
(dp646
S'objective'
p647
I39902
sS'query_time'
p648
F0.1572110652923584
sS'comp_time'
p649
F0.00034999847412109375
sS'exec_cq'
p650
I1
sS'total_cq'
p651
I284
sasS'total_cqs'
p652
I284
ssI59
(dp653
S'iters'
p654
I1
sS'meta'
p655
(lp656
(dp657
S'objective'
p658
I1
sS'query_time'
p659
F0.08257198333740234
sS'comp_time'
p660
F7.390975952148438e-05
sS'exec_cq'
p661
I1
sS'total_cq'
p662
I2
sasS'total_cqs'
p663
I2
ssI60
(dp664
S'iters'
p665
I1
sS'meta'
p666
(lp667
(dp668
S'objective'
p669
I1890
sS'query_time'
p670
F0.041441917419433594
sS'comp_time'
p671
F0.00013709068298339844
sS'exec_cq'
p672
I1
sS'total_cq'
p673
I63
sasS'total_cqs'
p674
I63
ssI61
(dp675
S'iters'
p676
I2
sS'meta'
p677
(lp678
(dp679
S'objective'
p680
I0
sS'query_time'
p681
F0.36884593963623047
sS'comp_time'
p682
F6.604194641113281e-05
sS'exec_cq'
p683
I1
sS'total_cq'
p684
I4
sa(dp685
g680
I3
sg681
F0.002115964889526367
sg682
F4.506111145019531e-05
sg683
I1
sg684
I2
sasS'total_cqs'
p686
I4
ssI62
(dp687
S'iters'
p688
I1
sS'meta'
p689
(lp690
(dp691
S'objective'
p692
I594
sS'query_time'
p693
F0.05504107475280762
sS'comp_time'
p694
F0.00015664100646972656
sS'exec_cq'
p695
I1
sS'total_cq'
p696
I36
sasS'total_cqs'
p697
I36
ssI63
(dp698
S'iters'
p699
I1
sS'meta'
p700
(lp701
(dp702
S'objective'
p703
I1377
sS'query_time'
p704
F0.030633926391601562
sS'comp_time'
p705
F0.00011301040649414062
sS'exec_cq'
p706
I1
sS'total_cq'
p707
I54
sasS'total_cqs'
p708
I54
ssI64
(dp709
S'iters'
p710
I1
sS'meta'
p711
(lp712
(dp713
S'objective'
p714
I119
sS'query_time'
p715
F0.4126780033111572
sS'comp_time'
p716
F9.608268737792969e-05
sS'exec_cq'
p717
I1
sS'total_cq'
p718
I17
sasS'total_cqs'
p719
I17
ssI65
(dp720
S'iters'
p721
I1
sS'meta'
p722
(lp723
(dp724
S'objective'
p725
I1
sS'query_time'
p726
F0.17097902297973633
sS'comp_time'
p727
F6.318092346191406e-05
sS'exec_cq'
p728
I1
sS'total_cq'
p729
I2
sasS'total_cqs'
p730
I2
ssI66
(dp731
S'iters'
p732
I1
sS'meta'
p733
(lp734
(dp735
S'objective'
p736
I39902
sS'query_time'
p737
F0.16832399368286133
sS'comp_time'
p738
F0.0003180503845214844
sS'exec_cq'
p739
I1
sS'total_cq'
p740
I284
sasS'total_cqs'
p741
I284
ssI67
(dp742
S'iters'
p743
I1
sS'meta'
p744
(lp745
(dp746
S'objective'
p747
I1
sS'query_time'
p748
F0.0853738784790039
sS'comp_time'
p749
F7.009506225585938e-05
sS'exec_cq'
p750
I1
sS'total_cq'
p751
I2
sasS'total_cqs'
p752
I2
ssI68
(dp753
S'iters'
p754
I1
sS'meta'
p755
(lp756
(dp757
S'objective'
p758
I1890
sS'query_time'
p759
F0.033750057220458984
sS'comp_time'
p760
F0.0001270771026611328
sS'exec_cq'
p761
I1
sS'total_cq'
p762
I63
sasS'total_cqs'
p763
I63
ssI69
(dp764
S'iters'
p765
I1
sS'meta'
p766
(lp767
(dp768
S'objective'
p769
I945
sS'query_time'
p770
F0.34143805503845215
sS'comp_time'
p771
F9.298324584960938e-05
sS'exec_cq'
p772
I1
sS'total_cq'
p773
I45
sasS'total_cqs'
p774
I45
ssI70
(dp775
S'iters'
p776
I1
sS'meta'
p777
(lp778
(dp779
S'objective'
p780
I324
sS'query_time'
p781
F0.049327850341796875
sS'comp_time'
p782
F0.0001270771026611328
sS'exec_cq'
p783
I1
sS'total_cq'
p784
I27
sasS'total_cqs'
p785
I27
ssI71
(dp786
S'iters'
p787
I1
sS'meta'
p788
(lp789
(dp790
S'objective'
p791
I66429
sS'query_time'
p792
F0.28410887718200684
sS'comp_time'
p793
F0.0004150867462158203
sS'exec_cq'
p794
I1
sS'total_cq'
p795
I366
sasS'total_cqs'
p796
I366
ssI72
(dp797
S'iters'
p798
I2
sS'meta'
p799
(lp800
(dp801
S'objective'
p802
I103
sS'query_time'
p803
F0.3638579845428467
sS'comp_time'
p804
F8.916854858398438e-05
sS'exec_cq'
p805
I1
sS'total_cq'
p806
I17
sa(dp807
g802
I9
sg803
F0.0025968551635742188
sg804
F5.316734313964844e-05
sg805
I1
sg806
I2
sasS'total_cqs'
p808
I17
ss.