(dp0
I1
(dp1
S'iters'
p2
I2
sS'meta'
p3
(lp4
(dp5
S'objective'
p6
I4
sS'query_time'
p7
F0.17809605598449707
sS'comp_time'
p8
F8.392333984375e-05
sS'exec_cq'
p9
I1
sS'total_cq'
p10
I3
sa(dp11
g6
I1
sg7
F0.004535198211669922
sg8
F4.9114227294921875e-05
sg9
I1
sg10
I2
sasS'total_cqs'
p12
I3
ssI2
(dp13
S'iters'
p14
I1
sS'meta'
p15
(lp16
(dp17
S'objective'
p18
I152
sS'query_time'
p19
F0.05147194862365723
sS'comp_time'
p20
F8.988380432128906e-05
sS'exec_cq'
p21
I1
sS'total_cq'
p22
I19
sasS'total_cqs'
p23
I19
ssI3
(dp24
S'iters'
p25
I1
sS'meta'
p26
(lp27
(dp28
S'objective'
p29
I1
sS'query_time'
p30
F0.08447694778442383
sS'comp_time'
p31
F6.914138793945312e-05
sS'exec_cq'
p32
I1
sS'total_cq'
p33
I2
sasS'total_cqs'
p34
I2
ssI4
(dp35
S'iters'
p36
I1
sS'meta'
p37
(lp38
(dp39
S'objective'
p40
I1710
sS'query_time'
p41
F0.04472923278808594
sS'comp_time'
p42
F0.00013399124145507812
sS'exec_cq'
p43
I1
sS'total_cq'
p44
I60
sasS'total_cqs'
p45
I60
ssI5
(dp46
S'iters'
p47
I2
sS'meta'
p48
(lp49
(dp50
S'objective'
p51
I8545
sS'query_time'
p52
F0.43692684173583984
sS'comp_time'
p53
F0.0001709461212158203
sS'exec_cq'
p54
I1
sS'total_cq'
p55
I133
sa(dp56
g51
I83
sg52
F0.006623029708862305
sg53
F4.792213439941406e-05
sg54
I1
sg55
I2
sasS'total_cqs'
p57
I133
ssI6
(dp58
S'iters'
p59
I2
sS'meta'
p60
(lp61
(dp62
S'objective'
p63
I184
sS'query_time'
p64
F0.049443960189819336
sS'comp_time'
p65
F9.608268737792969e-05
sS'exec_cq'
p66
I1
sS'total_cq'
p67
I23
sa(dp68
g63
I0
sg64
F0.002708911895751953
sg65
F6.818771362304688e-05
sg66
I1
sg67
I3
sasS'total_cqs'
p69
I23
ssI7
(dp70
S'iters'
p71
I4
sS'meta'
p72
(lp73
(dp74
S'objective'
p75
I25924
sS'query_time'
p76
F0.20772814750671387
sS'comp_time'
p77
F0.00028395652770996094
sS'exec_cq'
p78
I1
sS'total_cq'
p79
I244
sa(dp80
g75
I39
sg76
F0.014878034591674805
sg77
F7.104873657226562e-05
sg78
I1
sg79
I14
sa(dp81
g75
I642
sg76
F0.005169868469238281
sg77
F6.103515625e-05
sg78
I1
sg79
I7
sa(dp82
g75
I319
sg76
F0.016098976135253906
sg77
F5.602836608886719e-05
sg78
I1
sg79
I6
sasS'total_cqs'
p83
I244
ssI8
(dp84
S'iters'
p85
I1
sS'meta'
p86
(lp87
(dp88
S'objective'
p89
I3239
sS'query_time'
p90
F0.4868171215057373
sS'comp_time'
p91
F0.000125885009765625
sS'exec_cq'
p92
I1
sS'total_cq'
p93
I82
sasS'total_cqs'
p94
I82
ssI9
(dp95
S'iters'
p96
I1
sS'meta'
p97
(lp98
(dp99
S'objective'
p100
I1
sS'query_time'
p101
F0.17902112007141113
sS'comp_time'
p102
F6.699562072753906e-05
sS'exec_cq'
p103
I1
sS'total_cq'
p104
I2
sasS'total_cqs'
p105
I2
ssI10
(dp106
S'iters'
p107
I2
sS'meta'
p108
(lp109
(dp110
S'objective'
p111
I20155
sS'query_time'
p112
F0.15575504302978516
sS'comp_time'
p113
F0.000225067138671875
sS'exec_cq'
p114
I1
sS'total_cq'
p115
I210
sa(dp116
g111
I580
sg112
F0.013058185577392578
sg113
F6.508827209472656e-05
sg114
I1
sg115
I10
sasS'total_cqs'
p117
I210
ssI11
(dp118
S'iters'
p119
I1
sS'meta'
p120
(lp121
(dp122
S'objective'
p123
I1
sS'query_time'
p124
F0.08569002151489258
sS'comp_time'
p125
F6.794929504394531e-05
sS'exec_cq'
p126
I1
sS'total_cq'
p127
I2
sasS'total_cqs'
p128
I2
ssI13
(dp129
S'iters'
p130
I1
sS'meta'
p131
(lp132
(dp133
S'objective'
p134
I1
sS'query_time'
p135
F0.38720202445983887
sS'comp_time'
p136
F5.507469177246094e-05
sS'exec_cq'
p137
I1
sS'total_cq'
p138
I2
sasS'total_cqs'
p139
I2
ssI14
(dp140
S'iters'
p141
I2
sS'meta'
p142
(lp143
(dp144
S'objective'
p145
I16595
sS'query_time'
p146
F0.1456890106201172
sS'comp_time'
p147
F0.00020575523376464844
sS'exec_cq'
p148
I1
sS'total_cq'
p149
I185
sa(dp150
g145
I65
sg146
F0.00251007080078125
sg147
F5.173683166503906e-05
sg148
I1
sg149
I3
sasS'total_cqs'
p151
I185
ssI15
(dp152
S'iters'
p153
I3
sS'meta'
p154
(lp155
(dp156
S'objective'
p157
I27972
sS'query_time'
p158
F0.2131202220916748
sS'comp_time'
p159
F0.0002751350402832031
sS'exec_cq'
p160
I1
sS'total_cq'
p161
I244
sa(dp162
g157
I575
sg158
F0.006952047348022461
sg159
F6.198883056640625e-05
sg160
I1
sg161
I8
sa(dp163
g157
I279
sg158
F0.0120849609375
sg159
F6.604194641113281e-05
sg160
I1
sg161
I6
sasS'total_cqs'
p164
I244
ssI16
(dp165
S'iters'
p166
I2
sS'meta'
p167
(lp168
(dp169
S'objective'
p170
I82
sS'query_time'
p171
F0.4406709671020508
sS'comp_time'
p172
F0.0001010894775390625
sS'exec_cq'
p173
I1
sS'total_cq'
p174
I23
sa(dp175
g170
I133
sg171
F0.011153936386108398
sg172
F7.295608520507812e-05
sg173
I1
sg174
I15
sasS'total_cqs'
p176
I23
ssI17
(dp177
S'iters'
p178
I1
sS'meta'
p179
(lp180
(dp181
S'objective'
p182
I6554
sS'query_time'
p183
F0.23051905632019043
sS'comp_time'
p184
F0.00016617774963378906
sS'exec_cq'
p185
I1
sS'total_cq'
p186
I116
sasS'total_cqs'
p187
I116
ssI18
(dp188
S'iters'
p189
I1
sS'meta'
p190
(lp191
(dp192
S'objective'
p193
I152
sS'query_time'
p194
F0.04168891906738281
sS'comp_time'
p195
F9.107589721679688e-05
sS'exec_cq'
p196
I1
sS'total_cq'
p197
I19
sasS'total_cqs'
p198
I19
ssI19
(dp199
S'iters'
p200
I2
sS'meta'
p201
(lp202
(dp203
S'objective'
p204
I1273
sS'query_time'
p205
F0.11122608184814453
sS'comp_time'
p206
F0.00010085105895996094
sS'exec_cq'
p207
I1
sS'total_cq'
p208
I54
sa(dp209
g204
I2
sg205
F0.008697986602783203
sg206
F5.1975250244140625e-05
sg207
I1
sg208
I2
sasS'total_cqs'
p210
I54
ssI20
(dp211
S'iters'
p212
I1
sS'meta'
p213
(lp214
(dp215
S'objective'
p216
I1710
sS'query_time'
p217
F0.04600095748901367
sS'comp_time'
p218
F0.0001270771026611328
sS'exec_cq'
p219
I1
sS'total_cq'
p220
I60
sasS'total_cqs'
p221
I60
ssI21
(dp222
S'iters'
p223
I1
sS'meta'
p224
(lp225
(dp226
S'objective'
p227
I945
sS'query_time'
p228
F0.3994181156158447
sS'comp_time'
p229
F0.00012087821960449219
sS'exec_cq'
p230
I1
sS'total_cq'
p231
I45
sasS'total_cqs'
p232
I45
ssI22
(dp233
S'iters'
p234
I2
sS'meta'
p235
(lp236
(dp237
S'objective'
p238
I9
sS'query_time'
p239
F0.029757976531982422
sS'comp_time'
p240
F7.224082946777344e-05
sS'exec_cq'
p241
I1
sS'total_cq'
p242
I9
sa(dp243
g238
I0
sg239
F0.010667085647583008
sg240
F5.698204040527344e-05
sg241
I1
sg242
I3
sasS'total_cqs'
p244
I9
ssI23
(dp245
S'iters'
p246
I1
sS'meta'
p247
(lp248
(dp249
S'objective'
p250
I1224
sS'query_time'
p251
F0.03735995292663574
sS'comp_time'
p252
F9.894371032714844e-05
sS'exec_cq'
p253
I1
sS'total_cq'
p254
I51
sasS'total_cqs'
p255
I51
ssI24
(dp256
S'iters'
p257
I2
sS'meta'
p258
(lp259
(dp260
S'objective'
p261
I1434446
sS'query_time'
p262
F1.3371379375457764
sS'comp_time'
p263
F0.0031881332397460938
sS'exec_cq'
p264
I1
sS'total_cq'
p265
I1711
sa(dp266
g261
I11663
sg262
F0.00963902473449707
sg263
F5.602836608886719e-05
sg264
I1
sg265
I18
sasS'total_cqs'
p267
I1711
ssI25
(dp268
S'iters'
p269
I1
sS'meta'
p270
(lp271
(dp272
S'objective'
p273
I6327
sS'query_time'
p274
F0.21782803535461426
sS'comp_time'
p275
F0.0001518726348876953
sS'exec_cq'
p276
I1
sS'total_cq'
p277
I114
sasS'total_cqs'
p278
I114
ssI26
(dp279
S'iters'
p280
I1
sS'meta'
p281
(lp282
(dp283
S'objective'
p284
I54
sS'query_time'
p285
F0.03834891319274902
sS'comp_time'
p286
F8.916854858398438e-05
sS'exec_cq'
p287
I1
sS'total_cq'
p288
I12
sasS'total_cqs'
p289
I12
ssI27
(dp290
S'iters'
p291
I1
sS'meta'
p292
(lp293
(dp294
S'objective'
p295
I1
sS'query_time'
p296
F0.08242511749267578
sS'comp_time'
p297
F7.104873657226562e-05
sS'exec_cq'
p298
I1
sS'total_cq'
p299
I2
sasS'total_cqs'
p300
I2
ssI29
(dp301
S'iters'
p302
I2
sS'meta'
p303
(lp304
(dp305
S'objective'
p306
I8397
sS'query_time'
p307
F0.434190034866333
sS'comp_time'
p308
F0.0001628398895263672
sS'exec_cq'
p309
I1
sS'total_cq'
p310
I133
sa(dp311
g306
I9
sg307
F0.006210803985595703
sg308
F7.605552673339844e-05
sg309
I1
sg310
I2
sasS'total_cqs'
p312
I133
ssI30
(dp313
S'iters'
p314
I2
sS'meta'
p315
(lp316
(dp317
S'objective'
p318
I7679
sS'query_time'
p319
F0.0837559700012207
sS'comp_time'
p320
F0.00016689300537109375
sS'exec_cq'
p321
I1
sS'total_cq'
p322
I129
sa(dp323
g318
I95
sg319
F0.008348941802978516
sg320
F5.6743621826171875e-05
sg321
I1
sg322
I3
sasS'total_cqs'
p324
I129
ssI31
(dp325
S'iters'
p326
I1
sS'meta'
p327
(lp328
(dp329
S'objective'
p330
I1539
sS'query_time'
p331
F0.03696799278259277
sS'comp_time'
p332
F0.00011086463928222656
sS'exec_cq'
p333
I1
sS'total_cq'
p334
I57
sasS'total_cqs'
p335
I57
ssI32
(dp336
S'iters'
p337
I1
sS'meta'
p338
(lp339
(dp340
S'objective'
p341
I3239
sS'query_time'
p342
F0.4890267848968506
sS'comp_time'
p343
F0.00014519691467285156
sS'exec_cq'
p344
I1
sS'total_cq'
p345
I82
sasS'total_cqs'
p346
I82
ssI33
(dp347
S'iters'
p348
I1
sS'meta'
p349
(lp350
(dp351
S'objective'
p352
I1
sS'query_time'
p353
F0.18077611923217773
sS'comp_time'
p354
F6.985664367675781e-05
sS'exec_cq'
p355
I1
sS'total_cq'
p356
I2
sasS'total_cqs'
p357
I2
ssI34
(dp358
S'iters'
p359
I1
sS'meta'
p360
(lp361
(dp362
S'objective'
p363
I54
sS'query_time'
p364
F0.03999805450439453
sS'comp_time'
p365
F8.797645568847656e-05
sS'exec_cq'
p366
I1
sS'total_cq'
p367
I12
sasS'total_cqs'
p368
I12
ssI35
(dp369
S'iters'
p370
I2
sS'meta'
p371
(lp372
(dp373
S'objective'
p374
I5873
sS'query_time'
p375
F0.12373614311218262
sS'comp_time'
p376
F0.00015401840209960938
sS'exec_cq'
p377
I1
sS'total_cq'
p378
I110
sa(dp379
g374
I104
sg375
F0.029389142990112305
sg376
F6.794929504394531e-05
sg377
I1
sg378
I2
sasS'total_cqs'
p380
I110
ssI36
(dp381
S'iters'
p382
I1
sS'meta'
p383
(lp384
(dp385
S'objective'
p386
I1890
sS'query_time'
p387
F0.04001903533935547
sS'comp_time'
p388
F0.00012302398681640625
sS'exec_cq'
p389
I1
sS'total_cq'
p390
I63
sasS'total_cqs'
p391
I63
ssI37
(dp392
S'iters'
p393
I1
sS'meta'
p394
(lp395
(dp396
S'objective'
p397
I1539
sS'query_time'
p398
F0.39888906478881836
sS'comp_time'
p399
F0.00011897087097167969
sS'exec_cq'
p400
I1
sS'total_cq'
p401
I57
sasS'total_cqs'
p402
I57
ssI38
(dp403
S'iters'
p404
I2
sS'meta'
p405
(lp406
(dp407
S'objective'
p408
I8013
sS'query_time'
p409
F0.07979297637939453
sS'comp_time'
p410
F0.00017309188842773438
sS'exec_cq'
p411
I1
sS'total_cq'
p412
I129
sa(dp413
g408
I72
sg409
F0.008573055267333984
sg410
F6.29425048828125e-05
sg411
I1
sg412
I3
sasS'total_cqs'
p414
I129
ssI39
(dp415
S'iters'
p416
I1
sS'meta'
p417
(lp418
(dp419
S'objective'
p420
I1
sS'query_time'
p421
F0.011379003524780273
sS'comp_time'
p422
F6.008148193359375e-05
sS'exec_cq'
p423
I1
sS'total_cq'
p424
I2
sasS'total_cqs'
p425
I2
ssI40
(dp426
S'iters'
p427
I1
sS'meta'
p428
(lp429
(dp430
S'objective'
p431
I560
sS'query_time'
p432
F0.42977118492126465
sS'comp_time'
p433
F8.416175842285156e-05
sS'exec_cq'
p434
I1
sS'total_cq'
p435
I35
sasS'total_cqs'
p436
I35
ssI41
(dp437
S'iters'
p438
I1
sS'meta'
p439
(lp440
(dp441
S'objective'
p442
I1
sS'query_time'
p443
F0.17638206481933594
sS'comp_time'
p444
F7.176399230957031e-05
sS'exec_cq'
p445
I1
sS'total_cq'
p446
I2
sasS'total_cqs'
p447
I2
ssI42
(dp448
S'iters'
p449
I1
sS'meta'
p450
(lp451
(dp452
S'objective'
p453
I104
sS'query_time'
p454
F0.038741111755371094
sS'comp_time'
p455
F8.296966552734375e-05
sS'exec_cq'
p456
I1
sS'total_cq'
p457
I16
sasS'total_cqs'
p458
I16
ssI43
(dp459
S'iters'
p460
I2
sS'meta'
p461
(lp462
(dp463
S'objective'
p464
I1335
sS'query_time'
p465
F0.10904812812805176
sS'comp_time'
p466
F0.00011396408081054688
sS'exec_cq'
p467
I1
sS'total_cq'
p468
I54
sa(dp469
g464
I33
sg465
F0.02092289924621582
sg466
F6.818771362304688e-05
sg467
I1
sg468
I2
sasS'total_cqs'
p470
I54
ssI45
(dp471
S'iters'
p472
I1
sS'meta'
p473
(lp474
(dp475
S'objective'
p476
I1539
sS'query_time'
p477
F0.4147679805755615
sS'comp_time'
p478
F0.00012683868408203125
sS'exec_cq'
p479
I1
sS'total_cq'
p480
I57
sasS'total_cqs'
p481
I57
ssI46
(dp482
S'iters'
p483
I2
sS'meta'
p484
(lp485
(dp486
S'objective'
p487
I3
sS'query_time'
p488
F0.02329111099243164
sS'comp_time'
p489
F7.200241088867188e-05
sS'exec_cq'
p490
I1
sS'total_cq'
p491
I6
sa(dp492
g487
I0
sg488
F0.00712895393371582
sg489
F5.91278076171875e-05
sg490
I1
sg491
I3
sasS'total_cqs'
p493
I6
ssI47
(dp494
S'iters'
p495
I1
sS'meta'
p496
(lp497
(dp498
S'objective'
p499
I7749
sS'query_time'
p500
F0.10809111595153809
sS'comp_time'
p501
F0.00018095970153808594
sS'exec_cq'
p502
I1
sS'total_cq'
p503
I126
sasS'total_cqs'
p504
I126
ssI48
(dp505
S'iters'
p506
I1
sS'meta'
p507
(lp508
(dp509
S'objective'
p510
I189
sS'query_time'
p511
F0.4106578826904297
sS'comp_time'
p512
F8.630752563476562e-05
sS'exec_cq'
p513
I1
sS'total_cq'
p514
I21
sasS'total_cqs'
p515
I21
ssI49
(dp516
S'iters'
p517
I2
sS'meta'
p518
(lp519
(dp520
S'objective'
p521
I1961
sS'query_time'
p522
F0.22379612922668457
sS'comp_time'
p523
F0.00012612342834472656
sS'exec_cq'
p524
I1
sS'total_cq'
p525
I66
sa(dp526
g521
I7
sg522
F0.0031630992889404297
sg523
F5.507469177246094e-05
sg524
I1
sg525
I2
sasS'total_cqs'
p527
I66
ssI50
(dp528
S'iters'
p529
I2
sS'meta'
p530
(lp531
(dp532
S'objective'
p533
I38932
sS'query_time'
p534
F0.1756148338317871
sS'comp_time'
p535
F0.0002777576446533203
sS'exec_cq'
p536
I1
sS'total_cq'
p537
I284
sa(dp538
g533
I201
sg534
F0.00693202018737793
sg535
F5.698204040527344e-05
sg536
I1
sg537
I6
sasS'total_cqs'
p539
I284
ssI51
(dp540
S'iters'
p541
I1
sS'meta'
p542
(lp543
(dp544
S'objective'
p545
I1
sS'query_time'
p546
F0.08494901657104492
sS'comp_time'
p547
F7.724761962890625e-05
sS'exec_cq'
p548
I1
sS'total_cq'
p549
I2
sasS'total_cqs'
p550
I2
ssI53
(dp551
S'iters'
p552
I1
sS'meta'
p553
(lp554
(dp555
S'objective'
p556
I1
sS'query_time'
p557
F0.3419358730316162
sS'comp_time'
p558
F5.1021575927734375e-05
sS'exec_cq'
p559
I1
sS'total_cq'
p560
I2
sasS'total_cqs'
p561
I2
ssI54
(dp562
S'iters'
p563
I2
sS'meta'
p564
(lp565
(dp566
S'objective'
p567
I276
sS'query_time'
p568
F0.05292487144470215
sS'comp_time'
p569
F0.00010395050048828125
sS'exec_cq'
p570
I1
sS'total_cq'
p571
I27
sa(dp572
g567
I3
sg568
F0.0027310848236083984
sg569
F5.793571472167969e-05
sg570
I1
sg571
I3
sasS'total_cqs'
p573
I27
ssI55
(dp574
S'iters'
p575
I3
sS'meta'
p576
(lp577
(dp578
S'objective'
p579
I728
sS'query_time'
p580
F0.07943296432495117
sS'comp_time'
p581
F0.0001361370086669922
sS'exec_cq'
p582
I1
sS'total_cq'
p583
I55
sa(dp584
g579
I54
sg580
F0.01465916633605957
sg581
F8.487701416015625e-05
sg582
I1
sg583
I14
sa(dp585
g579
I120
sg580
F0.018294811248779297
sg581
F6.389617919921875e-05
sg582
I1
sg583
I6
sasS'total_cqs'
p586
I55
ssI56
(dp587
S'iters'
p588
I2
sS'meta'
p589
(lp590
(dp591
S'objective'
p592
I1953
sS'query_time'
p593
F0.46732091903686523
sS'comp_time'
p594
F0.00013303756713867188
sS'exec_cq'
p595
I1
sS'total_cq'
p596
I82
sa(dp597
g592
I561
sg593
F0.009003162384033203
sg594
F5.412101745605469e-05
sg595
I1
sg596
I15
sasS'total_cqs'
p598
I82
ssI57
(dp599
S'iters'
p600
I1
sS'meta'
p601
(lp602
(dp603
S'objective'
p604
I1
sS'query_time'
p605
F0.17007708549499512
sS'comp_time'
p606
F6.008148193359375e-05
sS'exec_cq'
p607
I1
sS'total_cq'
p608
I2
sasS'total_cqs'
p609
I2
ssI58
(dp610
S'iters'
p611
I1
sS'meta'
p612
(lp613
(dp614
S'objective'
p615
I39902
sS'query_time'
p616
F0.15411996841430664
sS'comp_time'
p617
F0.00029015541076660156
sS'exec_cq'
p618
I1
sS'total_cq'
p619
I284
sasS'total_cqs'
p620
I284
ssI59
(dp621
S'iters'
p622
I1
sS'meta'
p623
(lp624
(dp625
S'objective'
p626
I1
sS'query_time'
p627
F0.10849308967590332
sS'comp_time'
p628
F6.4849853515625e-05
sS'exec_cq'
p629
I1
sS'total_cq'
p630
I2
sasS'total_cqs'
p631
I2
ssI60
(dp632
S'iters'
p633
I1
sS'meta'
p634
(lp635
(dp636
S'objective'
p637
I1890
sS'query_time'
p638
F0.038886070251464844
sS'comp_time'
p639
F0.0001010894775390625
sS'exec_cq'
p640
I1
sS'total_cq'
p641
I63
sasS'total_cqs'
p642
I63
ssI61
(dp643
S'iters'
p644
I1
sS'meta'
p645
(lp646
(dp647
S'objective'
p648
I2
sS'query_time'
p649
F0.32533907890319824
sS'comp_time'
p650
F5.793571472167969e-05
sS'exec_cq'
p651
I1
sS'total_cq'
p652
I4
sasS'total_cqs'
p653
I4
ssI62
(dp654
S'iters'
p655
I2
sS'meta'
p656
(lp657
(dp658
S'objective'
p659
I548
sS'query_time'
p660
F0.05901908874511719
sS'comp_time'
p661
F9.989738464355469e-05
sS'exec_cq'
p662
I1
sS'total_cq'
p663
I36
sa(dp664
g659
I13
sg660
F0.008288860321044922
sg661
F5.507469177246094e-05
sg662
I1
sg663
I3
sasS'total_cqs'
p665
I36
ssI63
(dp666
S'iters'
p667
I1
sS'meta'
p668
(lp669
(dp670
S'objective'
p671
I1377
sS'query_time'
p672
F0.0323641300201416
sS'comp_time'
p673
F0.00012803077697753906
sS'exec_cq'
p674
I1
sS'total_cq'
p675
I54
sasS'total_cqs'
p676
I54
ssI64
(dp677
S'iters'
p678
I1
sS'meta'
p679
(lp680
(dp681
S'objective'
p682
I119
sS'query_time'
p683
F0.38097500801086426
sS'comp_time'
p684
F9.012222290039062e-05
sS'exec_cq'
p685
I1
sS'total_cq'
p686
I17
sasS'total_cqs'
p687
I17
ssI65
(dp688
S'iters'
p689
I1
sS'meta'
p690
(lp691
(dp692
S'objective'
p693
I1
sS'query_time'
p694
F0.16699790954589844
sS'comp_time'
p695
F6.318092346191406e-05
sS'exec_cq'
p696
I1
sS'total_cq'
p697
I2
sasS'total_cqs'
p698
I2
ssI66
(dp699
S'iters'
p700
I1
sS'meta'
p701
(lp702
(dp703
S'objective'
p704
I39902
sS'query_time'
p705
F0.16395902633666992
sS'comp_time'
p706
F0.0003287792205810547
sS'exec_cq'
p707
I1
sS'total_cq'
p708
I284
sasS'total_cqs'
p709
I284
ssI67
(dp710
S'iters'
p711
I1
sS'meta'
p712
(lp713
(dp714
S'objective'
p715
I1
sS'query_time'
p716
F0.09831118583679199
sS'comp_time'
p717
F6.866455078125e-05
sS'exec_cq'
p718
I1
sS'total_cq'
p719
I2
sasS'total_cqs'
p720
I2
ssI68
(dp721
S'iters'
p722
I1
sS'meta'
p723
(lp724
(dp725
S'objective'
p726
I1890
sS'query_time'
p727
F0.03705191612243652
sS'comp_time'
p728
F0.00011205673217773438
sS'exec_cq'
p729
I1
sS'total_cq'
p730
I63
sasS'total_cqs'
p731
I63
ssI69
(dp732
S'iters'
p733
I1
sS'meta'
p734
(lp735
(dp736
S'objective'
p737
I945
sS'query_time'
p738
F0.35555195808410645
sS'comp_time'
p739
F0.00013399124145507812
sS'exec_cq'
p740
I1
sS'total_cq'
p741
I45
sasS'total_cqs'
p742
I45
ssI70
(dp743
S'iters'
p744
I2
sS'meta'
p745
(lp746
(dp747
S'objective'
p748
I276
sS'query_time'
p749
F0.04358792304992676
sS'comp_time'
p750
F8.606910705566406e-05
sS'exec_cq'
p751
I1
sS'total_cq'
p752
I27
sa(dp753
g748
I3
sg749
F0.006512880325317383
sg750
F7.295608520507812e-05
sg751
I1
sg752
I3
sasS'total_cqs'
p754
I27
ssI71
(dp755
S'iters'
p756
I2
sS'meta'
p757
(lp758
(dp759
S'objective'
p760
I62757
sS'query_time'
p761
F0.2953808307647705
sS'comp_time'
p762
F0.00042891502380371094
sS'exec_cq'
p763
I1
sS'total_cq'
p764
I366
sa(dp765
g760
I1470
sg761
F0.006267070770263672
sg762
F6.008148193359375e-05
sg763
I1
sg764
I10
sasS'total_cqs'
p766
I366
ssI72
(dp767
S'iters'
p768
I1
sS'meta'
p769
(lp770
(dp771
S'objective'
p772
I119
sS'query_time'
p773
F0.36849498748779297
sS'comp_time'
p774
F9.298324584960938e-05
sS'exec_cq'
p775
I1
sS'total_cq'
p776
I17
sasS'total_cqs'
p777
I17
ss.