(dp0
I1
(dp1
S'iters'
p2
I2
sS'meta'
p3
(lp4
(dp5
S'objective'
p6
I4
sS'query_time'
p7
F0.18477797508239746
sS'comp_time'
p8
F0.00010085105895996094
sS'exec_cq'
p9
I1
sS'total_cq'
p10
I3
sa(dp11
g6
I1
sg7
F0.004513978958129883
sg8
F6.198883056640625e-05
sg9
I1
sg10
I2
sasS'total_cqs'
p12
I3
ssI2
(dp13
S'iters'
p14
I2
sS'meta'
p15
(lp16
(dp17
S'objective'
p18
I100
sS'query_time'
p19
F0.04164910316467285
sS'comp_time'
p20
F0.00011110305786132812
sS'exec_cq'
p21
I1
sS'total_cq'
p22
I19
sa(dp23
g18
I7
sg19
F0.005466938018798828
sg20
F6.4849853515625e-05
sg21
I1
sg22
I4
sasS'total_cqs'
p24
I19
ssI3
(dp25
S'iters'
p26
I1
sS'meta'
p27
(lp28
(dp29
S'objective'
p30
I1
sS'query_time'
p31
F0.09127688407897949
sS'comp_time'
p32
F6.604194641113281e-05
sS'exec_cq'
p33
I1
sS'total_cq'
p34
I2
sasS'total_cqs'
p35
I2
ssI4
(dp36
S'iters'
p37
I1
sS'meta'
p38
(lp39
(dp40
S'objective'
p41
I1710
sS'query_time'
p42
F0.045205116271972656
sS'comp_time'
p43
F0.00011801719665527344
sS'exec_cq'
p44
I1
sS'total_cq'
p45
I60
sasS'total_cqs'
p46
I60
ssI5
(dp47
S'iters'
p48
I2
sS'meta'
p49
(lp50
(dp51
S'objective'
p52
I8461
sS'query_time'
p53
F0.42615199089050293
sS'comp_time'
p54
F0.00016427040100097656
sS'exec_cq'
p55
I1
sS'total_cq'
p56
I133
sa(dp57
g52
I41
sg53
F0.006536006927490234
sg54
F6.389617919921875e-05
sg55
I1
sg56
I2
sasS'total_cqs'
p58
I133
ssI6
(dp59
S'iters'
p60
I1
sS'meta'
p61
(lp62
(dp63
S'objective'
p64
I230
sS'query_time'
p65
F0.05013394355773926
sS'comp_time'
p66
F9.799003601074219e-05
sS'exec_cq'
p67
I1
sS'total_cq'
p68
I23
sasS'total_cqs'
p69
I23
ssI7
(dp70
S'iters'
p71
I3
sS'meta'
p72
(lp73
(dp74
S'objective'
p75
I27082
sS'query_time'
p76
F0.21752595901489258
sS'comp_time'
p77
F0.0002930164337158203
sS'exec_cq'
p78
I1
sS'total_cq'
p79
I244
sa(dp80
g75
I618
sg76
F0.008041858673095703
sg77
F6.794929504394531e-05
sg78
I1
sg79
I9
sa(dp81
g75
I523
sg76
F0.006891965866088867
sg77
F6.103515625e-05
sg78
I1
sg79
I6
sasS'total_cqs'
p82
I244
ssI8
(dp83
S'iters'
p84
I4
sS'meta'
p85
(lp86
(dp87
S'objective'
p88
I1575
sS'query_time'
p89
F0.5110371112823486
sS'comp_time'
p90
F0.00015497207641601562
sS'exec_cq'
p91
I1
sS'total_cq'
p92
I82
sa(dp93
g88
I560
sg89
F0.01593494415283203
sg90
F8.082389831542969e-05
sg91
I1
sg92
I21
sa(dp94
g88
I519
sg89
F0.012165069580078125
sg90
F6.413459777832031e-05
sg91
I1
sg92
I16
sa(dp95
g88
I464
sg89
F0.008697986602783203
sg90
F6.127357482910156e-05
sg91
I1
sg92
I14
sasS'total_cqs'
p96
I82
ssI9
(dp97
S'iters'
p98
I1
sS'meta'
p99
(lp100
(dp101
S'objective'
p102
I1
sS'query_time'
p103
F0.17891716957092285
sS'comp_time'
p104
F7.295608520507812e-05
sS'exec_cq'
p105
I1
sS'total_cq'
p106
I2
sasS'total_cqs'
p107
I2
ssI10
(dp108
S'iters'
p109
I1
sS'meta'
p110
(lp111
(dp112
S'objective'
p113
I21735
sS'query_time'
p114
F0.15077996253967285
sS'comp_time'
p115
F0.000225067138671875
sS'exec_cq'
p116
I1
sS'total_cq'
p117
I210
sasS'total_cqs'
p118
I210
ssI11
(dp119
S'iters'
p120
I1
sS'meta'
p121
(lp122
(dp123
S'objective'
p124
I1
sS'query_time'
p125
F0.08293604850769043
sS'comp_time'
p126
F6.198883056640625e-05
sS'exec_cq'
p127
I1
sS'total_cq'
p128
I2
sasS'total_cqs'
p129
I2
ssI12
(dp130
S'iters'
p131
I0
sS'meta'
p132
(lp133
sS'total_cqs'
p134
I1
ssI13
(dp135
S'iters'
p136
I1
sS'meta'
p137
(lp138
(dp139
S'objective'
p140
I1
sS'query_time'
p141
F0.3880429267883301
sS'comp_time'
p142
F0.00011587142944335938
sS'exec_cq'
p143
I1
sS'total_cq'
p144
I2
sasS'total_cqs'
p145
I2
ssI14
(dp146
S'iters'
p147
I2
sS'meta'
p148
(lp149
(dp150
S'objective'
p151
I16299
sS'query_time'
p152
F0.14951682090759277
sS'comp_time'
p153
F0.00021719932556152344
sS'exec_cq'
p154
I1
sS'total_cq'
p155
I185
sa(dp156
g151
I83
sg152
F0.010977983474731445
sg153
F5.7220458984375e-05
sg154
I1
sg155
I3
sasS'total_cqs'
p157
I185
ssI15
(dp158
S'iters'
p159
I1
sS'meta'
p160
(lp161
(dp162
S'objective'
p163
I29402
sS'query_time'
p164
F0.202484130859375
sS'comp_time'
p165
F0.00029206275939941406
sS'exec_cq'
p166
I1
sS'total_cq'
p167
I244
sasS'total_cqs'
p168
I244
ssI16
(dp169
S'iters'
p170
I1
sS'meta'
p171
(lp172
(dp173
S'objective'
p174
I230
sS'query_time'
p175
F0.44864702224731445
sS'comp_time'
p176
F7.295608520507812e-05
sS'exec_cq'
p177
I1
sS'total_cq'
p178
I23
sasS'total_cqs'
p179
I23
ssI17
(dp180
S'iters'
p181
I2
sS'meta'
p182
(lp183
(dp184
S'objective'
p185
I6504
sS'query_time'
p186
F0.22337579727172852
sS'comp_time'
p187
F0.0001461505889892578
sS'exec_cq'
p188
I1
sS'total_cq'
p189
I116
sa(dp190
g185
I91
sg186
F0.002279996871948242
sg187
F5.626678466796875e-05
sg188
I1
sg189
I2
sasS'total_cqs'
p191
I116
ssI18
(dp192
S'iters'
p193
I1
sS'meta'
p194
(lp195
(dp196
S'objective'
p197
I152
sS'query_time'
p198
F0.04209113121032715
sS'comp_time'
p199
F8.106231689453125e-05
sS'exec_cq'
p200
I1
sS'total_cq'
p201
I19
sasS'total_cqs'
p202
I19
ssI19
(dp203
S'iters'
p204
I1
sS'meta'
p205
(lp206
(dp207
S'objective'
p208
I1377
sS'query_time'
p209
F0.1134490966796875
sS'comp_time'
p210
F0.0001049041748046875
sS'exec_cq'
p211
I1
sS'total_cq'
p212
I54
sasS'total_cqs'
p213
I54
ssI20
(dp214
S'iters'
p215
I1
sS'meta'
p216
(lp217
(dp218
S'objective'
p219
I1710
sS'query_time'
p220
F0.04594016075134277
sS'comp_time'
p221
F0.0001342296600341797
sS'exec_cq'
p222
I1
sS'total_cq'
p223
I60
sasS'total_cqs'
p224
I60
ssI21
(dp225
S'iters'
p226
I1
sS'meta'
p227
(lp228
(dp229
S'objective'
p230
I945
sS'query_time'
p231
F0.42050695419311523
sS'comp_time'
p232
F0.0001270771026611328
sS'exec_cq'
p233
I1
sS'total_cq'
p234
I45
sasS'total_cqs'
p235
I45
ssI22
(dp236
S'iters'
p237
I1
sS'meta'
p238
(lp239
(dp240
S'objective'
p241
I27
sS'query_time'
p242
F0.030104875564575195
sS'comp_time'
p243
F7.104873657226562e-05
sS'exec_cq'
p244
I1
sS'total_cq'
p245
I9
sasS'total_cqs'
p246
I9
ssI23
(dp247
S'iters'
p248
I1
sS'meta'
p249
(lp250
(dp251
S'objective'
p252
I1224
sS'query_time'
p253
F0.03908586502075195
sS'comp_time'
p254
F0.00010776519775390625
sS'exec_cq'
p255
I1
sS'total_cq'
p256
I51
sasS'total_cqs'
p257
I51
ssI24
(dp258
S'iters'
p259
I2
sS'meta'
p260
(lp261
(dp262
S'objective'
p263
I1432444
sS'query_time'
p264
F1.3325519561767578
sS'comp_time'
p265
F0.0023560523986816406
sS'exec_cq'
p266
I1
sS'total_cq'
p267
I1711
sa(dp268
g263
I12664
sg264
F0.009066104888916016
sg265
F6.890296936035156e-05
sg266
I1
sg267
I14
sasS'total_cqs'
p269
I1711
ssI25
(dp270
S'iters'
p271
I1
sS'meta'
p272
(lp273
(dp274
S'objective'
p275
I6327
sS'query_time'
p276
F0.2234811782836914
sS'comp_time'
p277
F0.00015401840209960938
sS'exec_cq'
p278
I1
sS'total_cq'
p279
I114
sasS'total_cqs'
p280
I114
ssI26
(dp281
S'iters'
p282
I2
sS'meta'
p283
(lp284
(dp285
S'objective'
p286
I6
sS'query_time'
p287
F0.03617095947265625
sS'comp_time'
p288
F7.987022399902344e-05
sS'exec_cq'
p289
I1
sS'total_cq'
p290
I12
sa(dp291
g286
I18
sg287
F0.006528139114379883
sg288
F5.626678466796875e-05
sg289
I1
sg290
I5
sasS'total_cqs'
p292
I12
ssI27
(dp293
S'iters'
p294
I1
sS'meta'
p295
(lp296
(dp297
S'objective'
p298
I1
sS'query_time'
p299
F0.09477901458740234
sS'comp_time'
p300
F7.104873657226562e-05
sS'exec_cq'
p301
I1
sS'total_cq'
p302
I2
sasS'total_cqs'
p303
I2
ssI28
(dp304
S'iters'
p305
I0
sS'meta'
p306
(lp307
sS'total_cqs'
p308
I1
ssI29
(dp309
S'iters'
p310
I1
sS'meta'
p311
(lp312
(dp313
S'objective'
p314
I8645
sS'query_time'
p315
F0.41853904724121094
sS'comp_time'
p316
F0.0001709461212158203
sS'exec_cq'
p317
I1
sS'total_cq'
p318
I133
sasS'total_cqs'
p319
I133
ssI30
(dp320
S'iters'
p321
I1
sS'meta'
p322
(lp323
(dp324
S'objective'
p325
I8127
sS'query_time'
p326
F0.08399796485900879
sS'comp_time'
p327
F0.0001678466796875
sS'exec_cq'
p328
I1
sS'total_cq'
p329
I129
sasS'total_cqs'
p330
I129
ssI31
(dp331
S'iters'
p332
I1
sS'meta'
p333
(lp334
(dp335
S'objective'
p336
I1539
sS'query_time'
p337
F0.03827190399169922
sS'comp_time'
p338
F0.00012373924255371094
sS'exec_cq'
p339
I1
sS'total_cq'
p340
I57
sasS'total_cqs'
p341
I57
ssI32
(dp342
S'iters'
p343
I5
sS'meta'
p344
(lp345
(dp346
S'objective'
p347
I1931
sS'query_time'
p348
F0.5097239017486572
sS'comp_time'
p349
F0.00015091896057128906
sS'exec_cq'
p350
I1
sS'total_cq'
p351
I82
sa(dp352
g347
I368
sg348
F0.012228012084960938
sg349
F7.605552673339844e-05
sg350
I1
sg351
I16
sa(dp353
g347
I518
sg348
F0.009952068328857422
sg349
F7.319450378417969e-05
sg350
I1
sg351
I12
sa(dp354
g347
I389
sg348
F0.00822901725769043
sg349
F6.008148193359375e-05
sg350
I1
sg351
I11
sa(dp355
g347
I298
sg348
F0.03662991523742676
sg349
F7.081031799316406e-05
sg350
I1
sg351
I10
sasS'total_cqs'
p356
I82
ssI33
(dp357
S'iters'
p358
I1
sS'meta'
p359
(lp360
(dp361
S'objective'
p362
I1
sS'query_time'
p363
F0.17487812042236328
sS'comp_time'
p364
F7.104873657226562e-05
sS'exec_cq'
p365
I1
sS'total_cq'
p366
I2
sasS'total_cqs'
p367
I2
ssI34
(dp368
S'iters'
p369
I1
sS'meta'
p370
(lp371
(dp372
S'objective'
p373
I54
sS'query_time'
p374
F0.03935813903808594
sS'comp_time'
p375
F7.796287536621094e-05
sS'exec_cq'
p376
I1
sS'total_cq'
p377
I12
sasS'total_cqs'
p378
I12
ssI35
(dp379
S'iters'
p380
I2
sS'meta'
p381
(lp382
(dp383
S'objective'
p384
I5701
sS'query_time'
p385
F0.12830090522766113
sS'comp_time'
p386
F0.00016188621520996094
sS'exec_cq'
p387
I1
sS'total_cq'
p388
I110
sa(dp389
g384
I18
sg385
F0.03799700736999512
sg386
F6.318092346191406e-05
sg387
I1
sg388
I2
sasS'total_cqs'
p390
I110
ssI36
(dp391
S'iters'
p392
I1
sS'meta'
p393
(lp394
(dp395
S'objective'
p396
I1890
sS'query_time'
p397
F0.04136991500854492
sS'comp_time'
p398
F0.00011992454528808594
sS'exec_cq'
p399
I1
sS'total_cq'
p400
I63
sasS'total_cqs'
p401
I63
ssI37
(dp402
S'iters'
p403
I1
sS'meta'
p404
(lp405
(dp406
S'objective'
p407
I1539
sS'query_time'
p408
F0.4102041721343994
sS'comp_time'
p409
F0.00012993812561035156
sS'exec_cq'
p410
I1
sS'total_cq'
p411
I57
sasS'total_cqs'
p412
I57
ssI38
(dp413
S'iters'
p414
I1
sS'meta'
p415
(lp416
(dp417
S'objective'
p418
I8127
sS'query_time'
p419
F0.0766899585723877
sS'comp_time'
p420
F0.00018978118896484375
sS'exec_cq'
p421
I1
sS'total_cq'
p422
I129
sasS'total_cqs'
p423
I129
ssI39
(dp424
S'iters'
p425
I1
sS'meta'
p426
(lp427
(dp428
S'objective'
p429
I1
sS'query_time'
p430
F0.01224207878112793
sS'comp_time'
p431
F0.00012493133544921875
sS'exec_cq'
p432
I1
sS'total_cq'
p433
I2
sasS'total_cqs'
p434
I2
ssI40
(dp435
S'iters'
p436
I1
sS'meta'
p437
(lp438
(dp439
S'objective'
p440
I560
sS'query_time'
p441
F0.43375182151794434
sS'comp_time'
p442
F0.00010323524475097656
sS'exec_cq'
p443
I1
sS'total_cq'
p444
I35
sasS'total_cqs'
p445
I35
ssI41
(dp446
S'iters'
p447
I1
sS'meta'
p448
(lp449
(dp450
S'objective'
p451
I1
sS'query_time'
p452
F0.16869688034057617
sS'comp_time'
p453
F6.794929504394531e-05
sS'exec_cq'
p454
I1
sS'total_cq'
p455
I2
sasS'total_cqs'
p456
I2
ssI42
(dp457
S'iters'
p458
I1
sS'meta'
p459
(lp460
(dp461
S'objective'
p462
I104
sS'query_time'
p463
F0.03867983818054199
sS'comp_time'
p464
F9.012222290039062e-05
sS'exec_cq'
p465
I1
sS'total_cq'
p466
I16
sasS'total_cqs'
p467
I16
ssI43
(dp468
S'iters'
p469
I2
sS'meta'
p470
(lp471
(dp472
S'objective'
p473
I1323
sS'query_time'
p474
F0.10958981513977051
sS'comp_time'
p475
F0.00013303756713867188
sS'exec_cq'
p476
I1
sS'total_cq'
p477
I54
sa(dp478
g473
I27
sg474
F0.010596036911010742
sg475
F5.3882598876953125e-05
sg476
I1
sg477
I2
sasS'total_cqs'
p479
I54
ssI44
(dp480
S'iters'
p481
I0
sS'meta'
p482
(lp483
sS'total_cqs'
p484
I1
ssI45
(dp485
S'iters'
p486
I1
sS'meta'
p487
(lp488
(dp489
S'objective'
p490
I1539
sS'query_time'
p491
F0.399630069732666
sS'comp_time'
p492
F0.0001380443572998047
sS'exec_cq'
p493
I1
sS'total_cq'
p494
I57
sasS'total_cqs'
p495
I57
ssI46
(dp496
S'iters'
p497
I2
sS'meta'
p498
(lp499
(dp500
S'objective'
p501
I3
sS'query_time'
p502
F0.022478103637695312
sS'comp_time'
p503
F7.796287536621094e-05
sS'exec_cq'
p504
I1
sS'total_cq'
p505
I6
sa(dp506
g501
I0
sg502
F0.0025300979614257812
sg503
F5.5789947509765625e-05
sg504
I1
sg505
I3
sasS'total_cqs'
p507
I6
ssI47
(dp508
S'iters'
p509
I3
sS'meta'
p510
(lp511
(dp512
S'objective'
p513
I6701
sS'query_time'
p514
F0.11666011810302734
sS'comp_time'
p515
F0.0001819133758544922
sS'exec_cq'
p516
I1
sS'total_cq'
p517
I126
sa(dp518
g513
I6
sg514
F0.008079051971435547
sg515
F6.699562072753906e-05
sg516
I1
sg517
I9
sa(dp519
g513
I76
sg514
F0.003123044967651367
sg515
F5.888938903808594e-05
sg516
I1
sg517
I5
sasS'total_cqs'
p520
I126
ssI48
(dp521
S'iters'
p522
I3
sS'meta'
p523
(lp524
(dp525
S'objective'
p526
I39
sS'query_time'
p527
F0.40195608139038086
sS'comp_time'
p528
F9.989738464355469e-05
sS'exec_cq'
p529
I1
sS'total_cq'
p530
I21
sa(dp531
g526
I99
sg527
F0.01060795783996582
sg528
F7.081031799316406e-05
sg529
I1
sg530
I13
sa(dp532
g526
I75
sg527
F0.007511138916015625
sg528
F6.29425048828125e-05
sg529
I1
sg530
I11
sasS'total_cqs'
p533
I21
ssI49
(dp534
S'iters'
p535
I1
sS'meta'
p536
(lp537
(dp538
S'objective'
p539
I2079
sS'query_time'
p540
F0.23280596733093262
sS'comp_time'
p541
F0.0001609325408935547
sS'exec_cq'
p542
I1
sS'total_cq'
p543
I66
sasS'total_cqs'
p544
I66
ssI50
(dp545
S'iters'
p546
I1
sS'meta'
p547
(lp548
(dp549
S'objective'
p550
I39902
sS'query_time'
p551
F0.17719078063964844
sS'comp_time'
p552
F0.00031876564025878906
sS'exec_cq'
p553
I1
sS'total_cq'
p554
I284
sasS'total_cqs'
p555
I284
ssI51
(dp556
S'iters'
p557
I1
sS'meta'
p558
(lp559
(dp560
S'objective'
p561
I1
sS'query_time'
p562
F0.12419891357421875
sS'comp_time'
p563
F6.723403930664062e-05
sS'exec_cq'
p564
I1
sS'total_cq'
p565
I2
sasS'total_cqs'
p566
I2
ssI52
(dp567
S'iters'
p568
I0
sS'meta'
p569
(lp570
sS'total_cqs'
p571
I1
ssI53
(dp572
S'iters'
p573
I1
sS'meta'
p574
(lp575
(dp576
S'objective'
p577
I1
sS'query_time'
p578
F0.3589019775390625
sS'comp_time'
p579
F0.00011420249938964844
sS'exec_cq'
p580
I1
sS'total_cq'
p581
I2
sasS'total_cqs'
p582
I2
ssI54
(dp583
S'iters'
p584
I2
sS'meta'
p585
(lp586
(dp587
S'objective'
p588
I282
sS'query_time'
p589
F0.04864788055419922
sS'comp_time'
p590
F9.489059448242188e-05
sS'exec_cq'
p591
I1
sS'total_cq'
p592
I27
sa(dp593
g588
I6
sg589
F0.002619028091430664
sg590
F4.9114227294921875e-05
sg591
I1
sg592
I3
sasS'total_cqs'
p594
I27
ssI55
(dp595
S'iters'
p596
I3
sS'meta'
p597
(lp598
(dp599
S'objective'
p600
I964
sS'query_time'
p601
F0.07580900192260742
sS'comp_time'
p602
F0.00013494491577148438
sS'exec_cq'
p603
I1
sS'total_cq'
p604
I55
sa(dp605
g600
I150
sg601
F0.014492988586425781
sg602
F6.389617919921875e-05
sg603
I1
sg604
I12
sa(dp606
g600
I41
sg601
F0.0008440017700195312
sg602
F4.696846008300781e-05
sg603
I1
sg604
I2
sasS'total_cqs'
p607
I55
ssI56
(dp608
S'iters'
p609
I3
sS'meta'
p610
(lp611
(dp612
S'objective'
p613
I1995
sS'query_time'
p614
F0.4374370574951172
sS'comp_time'
p615
F0.00015616416931152344
sS'exec_cq'
p616
I1
sS'total_cq'
p617
I82
sa(dp618
g613
I362
sg614
F0.013970136642456055
sg615
F8.106231689453125e-05
sg616
I1
sg617
I18
sa(dp619
g613
I369
sg614
F0.02300286293029785
sg615
F7.510185241699219e-05
sg616
I1
sg617
I14
sasS'total_cqs'
p620
I82
ssI57
(dp621
S'iters'
p622
I1
sS'meta'
p623
(lp624
(dp625
S'objective'
p626
I1
sS'query_time'
p627
F0.17255496978759766
sS'comp_time'
p628
F7.796287536621094e-05
sS'exec_cq'
p629
I1
sS'total_cq'
p630
I2
sasS'total_cqs'
p631
I2
ssI58
(dp632
S'iters'
p633
I1
sS'meta'
p634
(lp635
(dp636
S'objective'
p637
I39902
sS'query_time'
p638
F0.17294692993164062
sS'comp_time'
p639
F0.000308990478515625
sS'exec_cq'
p640
I1
sS'total_cq'
p641
I284
sasS'total_cqs'
p642
I284
ssI59
(dp643
S'iters'
p644
I1
sS'meta'
p645
(lp646
(dp647
S'objective'
p648
I1
sS'query_time'
p649
F0.08138108253479004
sS'comp_time'
p650
F6.604194641113281e-05
sS'exec_cq'
p651
I1
sS'total_cq'
p652
I2
sasS'total_cqs'
p653
I2
ssI60
(dp654
S'iters'
p655
I1
sS'meta'
p656
(lp657
(dp658
S'objective'
p659
I1890
sS'query_time'
p660
F0.04050898551940918
sS'comp_time'
p661
F0.00011801719665527344
sS'exec_cq'
p662
I1
sS'total_cq'
p663
I63
sasS'total_cqs'
p664
I63
ssI61
(dp665
S'iters'
p666
I2
sS'meta'
p667
(lp668
(dp669
S'objective'
p670
I2
sS'query_time'
p671
F0.3445148468017578
sS'comp_time'
p672
F0.00011801719665527344
sS'exec_cq'
p673
I1
sS'total_cq'
p674
I4
sa(dp675
g670
I2
sg671
F0.0080108642578125
sg672
F6.270408630371094e-05
sg673
I1
sg674
I2
sasS'total_cqs'
p676
I4
ssI62
(dp677
S'iters'
p678
I1
sS'meta'
p679
(lp680
(dp681
S'objective'
p682
I594
sS'query_time'
p683
F0.05695605278015137
sS'comp_time'
p684
F0.000102996826171875
sS'exec_cq'
p685
I1
sS'total_cq'
p686
I36
sasS'total_cqs'
p687
I36
ssI63
(dp688
S'iters'
p689
I1
sS'meta'
p690
(lp691
(dp692
S'objective'
p693
I1377
sS'query_time'
p694
F0.029644012451171875
sS'comp_time'
p695
F0.0001239776611328125
sS'exec_cq'
p696
I1
sS'total_cq'
p697
I54
sasS'total_cqs'
p698
I54
ssI64
(dp699
S'iters'
p700
I4
sS'meta'
p701
(lp702
(dp703
S'objective'
p704
I141
sS'query_time'
p705
F0.36790895462036133
sS'comp_time'
p706
F0.00011110305786132812
sS'exec_cq'
p707
I1
sS'total_cq'
p708
I17
sa(dp709
g704
I123
sg705
F0.0227200984954834
sg706
F6.580352783203125e-05
sg707
I1
sg708
I16
sa(dp710
g704
I95
sg705
F0.7419660091400146
sg706
F0.0017518997192382812
sg707
I2
sg708
I15
sa(dp711
g704
I14
sg705
F0.5224840641021729
sg706
F4.9114227294921875e-05
sg707
I2
sg708
I2
sasS'total_cqs'
p712
I17
ssI65
(dp713
S'iters'
p714
I1
sS'meta'
p715
(lp716
(dp717
S'objective'
p718
I1
sS'query_time'
p719
F0.13734078407287598
sS'comp_time'
p720
F8.106231689453125e-05
sS'exec_cq'
p721
I1
sS'total_cq'
p722
I2
sasS'total_cqs'
p723
I2
ssI66
(dp724
S'iters'
p725
I1
sS'meta'
p726
(lp727
(dp728
S'objective'
p729
I39902
sS'query_time'
p730
F0.16616010665893555
sS'comp_time'
p731
F0.0003631114959716797
sS'exec_cq'
p732
I1
sS'total_cq'
p733
I284
sasS'total_cqs'
p734
I284
ssI67
(dp735
S'iters'
p736
I1
sS'meta'
p737
(lp738
(dp739
S'objective'
p740
I1
sS'query_time'
p741
F0.07770800590515137
sS'comp_time'
p742
F7.390975952148438e-05
sS'exec_cq'
p743
I1
sS'total_cq'
p744
I2
sasS'total_cqs'
p745
I2
ssI68
(dp746
S'iters'
p747
I1
sS'meta'
p748
(lp749
(dp750
S'objective'
p751
I1890
sS'query_time'
p752
F0.039971113204956055
sS'comp_time'
p753
F0.000141143798828125
sS'exec_cq'
p754
I1
sS'total_cq'
p755
I63
sasS'total_cqs'
p756
I63
ssI69
(dp757
S'iters'
p758
I1
sS'meta'
p759
(lp760
(dp761
S'objective'
p762
I945
sS'query_time'
p763
F0.3825411796569824
sS'comp_time'
p764
F0.00011801719665527344
sS'exec_cq'
p765
I1
sS'total_cq'
p766
I45
sasS'total_cqs'
p767
I45
ssI70
(dp768
S'iters'
p769
I1
sS'meta'
p770
(lp771
(dp772
S'objective'
p773
I324
sS'query_time'
p774
F0.045976877212524414
sS'comp_time'
p775
F9.608268737792969e-05
sS'exec_cq'
p776
I1
sS'total_cq'
p777
I27
sasS'total_cqs'
p778
I27
ssI71
(dp779
S'iters'
p780
I1
sS'meta'
p781
(lp782
(dp783
S'objective'
p784
I66429
sS'query_time'
p785
F0.2746279239654541
sS'comp_time'
p786
F0.0004107952117919922
sS'exec_cq'
p787
I1
sS'total_cq'
p788
I366
sasS'total_cqs'
p789
I366
ssI72
(dp790
S'iters'
p791
I3
sS'meta'
p792
(lp793
(dp794
S'objective'
p795
I121
sS'query_time'
p796
F0.37642407417297363
sS'comp_time'
p797
F0.00013303756713867188
sS'exec_cq'
p798
I1
sS'total_cq'
p799
I17
sa(dp800
g795
I105
sg796
F0.02613210678100586
sg797
F7.796287536621094e-05
sg798
I1
sg799
I15
sa(dp801
g795
I87
sg796
F2.7193589210510254
sg797
F0.0004298686981201172
sg798
I2
sg799
I13
sasS'total_cqs'
p802
I17
ss.