(dp0
I1
(dp1
S'iters'
p2
I2
sS'meta'
p3
(lp4
(dp5
S'objective'
p6
I3
sS'query_time'
p7
F15.510591983795166
sS'comp_time'
p8
F0.24311423301696777
sS'exec_cq'
p9
I3
sS'total_cq'
p10
I6
sa(dp11
g6
I1
sg7
F0.07615494728088379
sg8
F0.20974993705749512
sg9
I2
sg10
I2
sasS'total_cqs'
p12
I6
ssI2
(dp13
S'iters'
p14
I1
sS'meta'
p15
(lp16
(dp17
S'objective'
p18
I13
sS'query_time'
p19
F0.9481589794158936
sS'comp_time'
p20
F0.042609214782714844
sS'exec_cq'
p21
I5
sS'total_cq'
p22
I6
sasS'total_cqs'
p23
I6
ssI3
(dp24
S'iters'
p25
I11
sS'meta'
p26
(lp27
(dp28
S'objective'
p29
I419
sS'query_time'
p30
F24.69310712814331
sS'comp_time'
p31
F0.3725242614746094
sS'exec_cq'
p32
I28
sS'total_cq'
p33
I33
sa(dp34
g29
I354
sg30
F0.02388596534729004
sg31
F0.04013776779174805
sg32
I25
sg33
I30
sa(dp35
g29
I296
sg30
F0.0176088809967041
sg31
F0.15170073509216309
sg32
I22
sg33
I27
sa(dp36
g29
I237
sg30
F0.015102148056030273
sg31
F0.02582550048828125
sg32
I19
sg33
I24
sa(dp37
g29
I198
sg30
F0.32003211975097656
sg31
F0.03944754600524902
sg32
I21
sg33
I21
sa(dp38
g29
I172
sg30
F0.019800662994384766
sg31
F0.16298508644104004
sg32
I18
sg33
I18
sa(dp39
g29
I142
sg30
F0.020029067993164062
sg31
F0.1725482940673828
sg32
I16
sg33
I16
sa(dp40
g29
I108
sg30
F0.008350849151611328
sg31
F0.013748645782470703
sg32
I13
sg33
I13
sa(dp41
g29
I92
sg30
F0.0032520294189453125
sg31
F0.0060536861419677734
sg32
I8
sg33
I10
sa(dp42
g29
I73
sg30
F0.0006680488586425781
sg31
F0.0010340213775634766
sg32
I7
sg33
I9
sa(dp43
g29
I59
sg30
F0.0025587081909179688
sg31
F0.004343986511230469
sg32
I5
sg33
I8
sasS'total_cqs'
p44
I33
ssI6
(dp45
S'iters'
p46
I2
sS'meta'
p47
(lp48
(dp49
S'objective'
p50
I1
sS'query_time'
p51
F13.787961959838867
sS'comp_time'
p52
F0.0031120777130126953
sS'exec_cq'
p53
I4
sS'total_cq'
p54
I5
sa(dp55
g50
I1
sg51
F0.000659942626953125
sg52
F0.0069484710693359375
sg53
I2
sg54
I2
sasS'total_cqs'
p56
I5
ssI8
(dp57
S'iters'
p58
I3
sS'meta'
p59
(lp60
(dp61
S'objective'
p62
I15
sS'query_time'
p63
F42.91542196273804
sS'comp_time'
p64
F0.13201522827148438
sS'exec_cq'
p65
I6
sS'total_cq'
p66
I6
sa(dp67
g62
I4
sg63
F0.14665603637695312
sg64
F0.00016498565673828125
sg65
I4
sg66
I5
sa(dp68
g62
I3
sg63
F0.002650737762451172
sg64
F0.00010776519775390625
sg65
I3
sg66
I3
sasS'total_cqs'
p69
I6
ssI9
(dp70
S'iters'
p71
I3
sS'meta'
p72
(lp73
(dp74
S'objective'
p75
I3
sS'query_time'
p76
F10.778975009918213
sS'comp_time'
p77
F0.05084705352783203
sS'exec_cq'
p78
I3
sS'total_cq'
p79
I6
sa(dp80
g75
I2
sg76
F0.04758787155151367
sg77
F0.15401506423950195
sg78
I3
sg79
I3
sa(dp81
g75
I1
sg76
F0.008523941040039062
sg77
F0.013195991516113281
sg78
I2
sg79
I2
sasS'total_cqs'
p82
I6
ssI13
(dp83
S'iters'
p84
I1
sS'meta'
p85
(lp86
(dp87
S'objective'
p88
I26
sS'query_time'
p89
F0.0202634334564209
sS'comp_time'
p90
F0.00804901123046875
sS'exec_cq'
p91
I8
sS'total_cq'
p92
I8
sasS'total_cqs'
p93
I8
ssI14
(dp94
S'iters'
p95
I1
sS'meta'
p96
(lp97
(dp98
S'objective'
p99
I7
sS'query_time'
p100
F0.8314361572265625
sS'comp_time'
p101
F0.004415988922119141
sS'exec_cq'
p102
I5
sS'total_cq'
p103
I5
sasS'total_cqs'
p104
I5
ssI16
(dp105
S'iters'
p106
I2
sS'meta'
p107
(lp108
(dp109
S'objective'
p110
I1
sS'query_time'
p111
F1.1594538688659668
sS'comp_time'
p112
F0.005939006805419922
sS'exec_cq'
p113
I4
sS'total_cq'
p114
I5
sa(dp115
g110
I1
sg111
F0.00125885009765625
sg112
F0.0017724037170410156
sg113
I2
sg114
I2
sasS'total_cqs'
p116
I5
ssI18
(dp117
S'iters'
p118
I3
sS'meta'
p119
(lp120
(dp121
S'objective'
p122
I1
sS'query_time'
p123
F0.1781458854675293
sS'comp_time'
p124
F0.0041615962982177734
sS'exec_cq'
p125
I4
sS'total_cq'
p126
I5
sa(dp127
g122
I3
sg123
F3.814697265625e-05
sg124
F0.00015306472778320312
sg125
I2
sg126
I3
sa(dp128
g122
I3
sg123
F0.03742194175720215
sg124
F3.409385681152344e-05
sg125
I1
sg126
I2
sasS'total_cqs'
p129
I5
ssI20
(dp130
S'iters'
p131
I5
sS'meta'
p132
(lp133
(dp134
S'objective'
p135
I38
sS'query_time'
p136
F11.156666278839111
sS'comp_time'
p137
F0.752810001373291
sS'exec_cq'
p138
I10
sS'total_cq'
p139
I12
sa(dp140
g135
I22
sg136
F0.06146097183227539
sg137
F0.2764298915863037
sg138
I4
sg139
I10
sa(dp141
g135
I14
sg136
F0.15288281440734863
sg137
F0.8305768966674805
sg138
I6
sg139
I8
sa(dp142
g135
I7
sg136
F0.10194897651672363
sg137
F0.08176422119140625
sg138
I2
sg139
I6
sa(dp143
g135
I3
sg136
F0.09882092475891113
sg137
F0.0003612041473388672
sg138
I1
sg139
I5
sasS'total_cqs'
p144
I12
ssI21
(dp145
S'iters'
p146
I3
sS'meta'
p147
(lp148
(dp149
S'objective'
p150
I57
sS'query_time'
p151
F60.38512706756592
sS'comp_time'
p152
F1.0983192920684814
sS'exec_cq'
p153
I12
sS'total_cq'
p154
I14
sa(dp155
g150
I59
sg151
F0.021708965301513672
sg152
F0.049208879470825195
sg153
I8
sg154
I11
sa(dp156
g150
I54
sg151
F0.04011988639831543
sg152
F0.13620233535766602
sg153
I9
sg154
I10
sasS'total_cqs'
p157
I14
ssI22
(dp158
S'iters'
p159
I1
sS'meta'
p160
(lp161
(dp162
S'objective'
p163
I1
sS'query_time'
p164
F0.0076291561126708984
sS'comp_time'
p165
F0.0014908313751220703
sS'exec_cq'
p166
I1
sS'total_cq'
p167
I2
sasS'total_cqs'
p168
I2
ssI25
(dp169
S'iters'
p170
I3
sS'meta'
p171
(lp172
(dp173
S'objective'
p174
I10
sS'query_time'
p175
F44.08598804473877
sS'comp_time'
p176
F2.0667836666107178
sS'exec_cq'
p177
I4
sS'total_cq'
p178
I7
sa(dp179
g174
I7
sg175
F0.07434296607971191
sg176
F0.0001544952392578125
sg177
I2
sg178
I5
sa(dp180
g174
I3
sg175
F0.18604016304016113
sg176
F0.00057220458984375
sg177
I1
sg178
I4
sasS'total_cqs'
p181
I7
ssI26
(dp182
S'iters'
p183
I5
sS'meta'
p184
(lp185
(dp186
S'objective'
p187
I49
sS'query_time'
p188
F0.28342485427856445
sS'comp_time'
p189
F0.013718366622924805
sS'exec_cq'
p190
I6
sS'total_cq'
p191
I13
sa(dp192
g187
I38
sg188
F4.245282888412476
sg189
F0.009366273880004883
sg190
I6
sg191
I11
sa(dp193
g187
I28
sg188
F0.002655029296875
sg189
F0.003147125244140625
sg190
I4
sg191
I9
sa(dp194
g187
I17
sg188
F19.288743019104004
sg189
F1.9472134113311768
sg190
I6
sg191
I8
sa(dp195
g187
I13
sg188
F0.7847850322723389
sg189
F2.2919578552246094
sg190
I4
sg191
I6
sasS'total_cqs'
p196
I13
ssI27
(dp197
S'iters'
p198
I1
sS'meta'
p199
(lp200
(dp201
S'objective'
p202
I1
sS'query_time'
p203
F0.21594691276550293
sS'comp_time'
p204
F0.0017173290252685547
sS'exec_cq'
p205
I1
sS'total_cq'
p206
I2
sasS'total_cqs'
p207
I2
ssI28
(dp208
S'iters'
p209
I5
sS'meta'
p210
(lp211
(dp212
S'objective'
p213
I47
sS'query_time'
p214
F1.320770025253296
sS'comp_time'
p215
F0.10589098930358887
sS'exec_cq'
p216
I6
sS'total_cq'
p217
I14
sa(dp218
g213
I22
sg214
F0.003305196762084961
sg215
F0.0051517486572265625
sg216
I3
sg217
I11
sa(dp219
g213
I29
sg214
F0.003238201141357422
sg215
F0.0017249584197998047
sg216
I1
sg217
I9
sa(dp220
g213
I21
sg214
F0.010303020477294922
sg215
F8.726119995117188e-05
sg216
I1
sg217
I8
sa(dp221
g213
I14
sg214
F0.0024209022521972656
sg215
F4.315376281738281e-05
sg216
I1
sg217
I7
sasS'total_cqs'
p222
I14
ssI29
(dp223
S'iters'
p224
I1
sS'meta'
p225
(lp226
(dp227
S'objective'
p228
I1
sS'query_time'
p229
F0.008733987808227539
sS'comp_time'
p230
F0.0016410350799560547
sS'exec_cq'
p231
I2
sS'total_cq'
p232
I2
sasS'total_cqs'
p233
I2
ssI30
(dp234
S'iters'
p235
I1
sS'meta'
p236
(lp237
(dp238
S'objective'
p239
I1
sS'query_time'
p240
F0.35428595542907715
sS'comp_time'
p241
F0.0021791458129882812
sS'exec_cq'
p242
I2
sS'total_cq'
p243
I2
sasS'total_cqs'
p244
I2
ssI31
(dp245
S'iters'
p246
I3
sS'meta'
p247
(lp248
(dp249
S'objective'
p250
I15
sS'query_time'
p251
F5.359381914138794
sS'comp_time'
p252
F0.07148885726928711
sS'exec_cq'
p253
I9
sS'total_cq'
p254
I9
sa(dp255
g250
I1
sg251
F0.009243965148925781
sg252
F0.0133819580078125
sg253
I3
sg254
I3
sa(dp256
g250
I5
sg251
F0.003459930419921875
sg252
F0.005837917327880859
sg253
I2
sg254
I2
sasS'total_cqs'
p257
I9
ssI32
(dp258
S'iters'
p259
I3
sS'meta'
p260
(lp261
(dp262
S'objective'
p263
I4
sS'query_time'
p264
F17.300616025924683
sS'comp_time'
p265
F1.8473691940307617
sS'exec_cq'
p266
I4
sS'total_cq'
p267
I7
sa(dp268
g263
I4
sg264
F1.1378710269927979
sg265
F0.003081798553466797
sg266
I2
sg267
I4
sa(dp269
g263
I4
sg264
F0.3018679618835449
sg265
F0.23009490966796875
sg266
I1
sg267
I2
sasS'total_cqs'
p270
I7
ssI33
(dp271
S'iters'
p272
I1
sS'meta'
p273
(lp274
(dp275
S'objective'
p276
I1
sS'query_time'
p277
F0.026862144470214844
sS'comp_time'
p278
F0.0016336441040039062
sS'exec_cq'
p279
I2
sS'total_cq'
p280
I2
sasS'total_cqs'
p281
I2
ssI35
(dp282
S'iters'
p283
I2
sS'meta'
p284
(lp285
(dp286
S'objective'
p287
I1
sS'query_time'
p288
F14.750439167022705
sS'comp_time'
p289
F0.09595108032226562
sS'exec_cq'
p290
I4
sS'total_cq'
p291
I5
sa(dp292
g287
I1
sg288
F0.013520956039428711
sg289
F0.1425788402557373
sg290
I2
sg291
I2
sasS'total_cqs'
p293
I5
ssI37
(dp294
S'iters'
p295
I5
sS'meta'
p296
(lp297
(dp298
S'objective'
p299
I35
sS'query_time'
p300
F1.7277350425720215
sS'comp_time'
p301
F0.10781192779541016
sS'exec_cq'
p302
I8
sS'total_cq'
p303
I10
sa(dp304
g299
I27
sg300
F0.5628893375396729
sg301
F0.027159929275512695
sg302
I8
sg303
I9
sa(dp305
g299
I20
sg300
F0.013174057006835938
sg301
F0.12502598762512207
sg302
I7
sg303
I8
sa(dp306
g299
I14
sg300
F0.009411096572875977
sg301
F0.013501405715942383
sg302
I6
sg303
I7
sa(dp307
g299
I5
sg300
F0.0031490325927734375
sg301
F0.003718137741088867
sg302
I2
sg303
I2
sasS'total_cqs'
p308
I10
ssI40
(dp309
S'iters'
p310
I1
sS'meta'
p311
(lp312
(dp313
S'objective'
p314
I1
sS'query_time'
p315
F0.0328671932220459
sS'comp_time'
p316
F0.0009622573852539062
sS'exec_cq'
p317
I1
sS'total_cq'
p318
I2
sasS'total_cqs'
p319
I2
ssI41
(dp320
S'iters'
p321
I2
sS'meta'
p322
(lp323
(dp324
S'objective'
p325
I7
sS'query_time'
p326
F11.444886922836304
sS'comp_time'
p327
F0.7657616138458252
sS'exec_cq'
p328
I5
sS'total_cq'
p329
I6
sa(dp330
g325
I1
sg326
F0.0008308887481689453
sg327
F0.0009288787841796875
sg328
I2
sg329
I2
sasS'total_cqs'
p331
I6
ssI42
(dp332
S'iters'
p333
I1
sS'meta'
p334
(lp335
(dp336
S'objective'
p337
I1
sS'query_time'
p338
F0.009983062744140625
sS'comp_time'
p339
F0.0011363029479980469
sS'exec_cq'
p340
I1
sS'total_cq'
p341
I2
sasS'total_cqs'
p342
I2
ssI44
(dp343
S'iters'
p344
I2
sS'meta'
p345
(lp346
(dp347
S'objective'
p348
I5
sS'query_time'
p349
F1.2619578838348389
sS'comp_time'
p350
F0.03230404853820801
sS'exec_cq'
p351
I2
sS'total_cq'
p352
I5
sa(dp353
g348
I2
sg349
F0.003345966339111328
sg350
F0.0001246929168701172
sg351
I1
sg352
I4
sasS'total_cqs'
p354
I5
ssI45
(dp355
S'iters'
p356
I2
sS'meta'
p357
(lp358
(dp359
S'objective'
p360
I3
sS'query_time'
p361
F0.05034208297729492
sS'comp_time'
p362
F0.0031828880310058594
sS'exec_cq'
p363
I3
sS'total_cq'
p364
I5
sa(dp365
g360
I1
sg361
F0.00021195411682128906
sg362
F0.0002734661102294922
sg363
I2
sg364
I2
sasS'total_cqs'
p366
I5
ssI48
(dp367
S'iters'
p368
I1
sS'meta'
p369
(lp370
(dp371
S'objective'
p372
I1
sS'query_time'
p373
F0.17943406105041504
sS'comp_time'
p374
F0.0025548934936523438
sS'exec_cq'
p375
I2
sS'total_cq'
p376
I2
sasS'total_cqs'
p377
I2
ssI49
(dp378
S'iters'
p379
I2
sS'meta'
p380
(lp381
(dp382
S'objective'
p383
I1
sS'query_time'
p384
F0.2548379898071289
sS'comp_time'
p385
F0.0037441253662109375
sS'exec_cq'
p386
I4
sS'total_cq'
p387
I5
sa(dp388
g383
I1
sg384
F3.790855407714844e-05
sg385
F0.0002110004425048828
sg386
I2
sg387
I3
sasS'total_cqs'
p389
I5
ssI50
(dp390
S'iters'
p391
I2
sS'meta'
p392
(lp393
(dp394
S'objective'
p395
I5
sS'query_time'
p396
F0.6487479209899902
sS'comp_time'
p397
F0.05560612678527832
sS'exec_cq'
p398
I5
sS'total_cq'
p399
I5
sa(dp400
g395
I2
sg396
F0.00023698806762695312
sg397
F0.0005369186401367188
sg398
I4
sg399
I4
sasS'total_cqs'
p401
I5
ssI55
(dp402
S'iters'
p403
I1
sS'meta'
p404
(lp405
(dp406
S'objective'
p407
I1
sS'query_time'
p408
F24.62184500694275
sS'comp_time'
p409
F0.017037153244018555
sS'exec_cq'
p410
I2
sS'total_cq'
p411
I2
sasS'total_cqs'
p412
I2
ssI57
(dp413
S'iters'
p414
I1
sS'meta'
p415
(lp416
(dp417
S'objective'
p418
I0
sS'query_time'
p419
F12.278001070022583
sS'comp_time'
p420
F1.1190168857574463
sS'exec_cq'
p421
I2
sS'total_cq'
p422
I3
sasS'total_cqs'
p423
I3
ssI116
(dp424
S'iters'
p425
I2
sS'meta'
p426
(lp427
(dp428
S'objective'
p429
I165
sS'query_time'
p430
F0.6731719970703125
sS'comp_time'
p431
F0.023833036422729492
sS'exec_cq'
p432
I14
sS'total_cq'
p433
I21
sa(dp434
g429
I9
sg430
F0.0013608932495117188
sg431
F0.0022699832916259766
sg432
I2
sg433
I2
sasS'total_cqs'
p435
I21
ssI117
(dp436
S'iters'
p437
I1
sS'meta'
p438
(lp439
(dp440
S'objective'
p441
I7
sS'query_time'
p442
F0.009835958480834961
sS'comp_time'
p443
F0.0014827251434326172
sS'exec_cq'
p444
I4
sS'total_cq'
p445
I5
sasS'total_cqs'
p446
I5
ss.