(dp0
I1
(dp1
S'iters'
p2
I2
sS'meta'
p3
(lp4
(dp5
S'objective'
p6
I11
sS'query_time'
p7
F49.539194107055664
sS'comp_time'
p8
F0.0001761913299560547
sS'exec_cq'
p9
I3
sS'total_cq'
p10
I6
sa(dp11
g6
I3
sg7
F1278.7227449417114
sg8
F0.00025916099548339844
sg9
I1
sg10
I2
sasS'total_cqs'
p12
I6
ssI2
(dp13
S'iters'
p14
I1
sS'meta'
p15
(lp16
(dp17
S'objective'
p18
I13
sS'query_time'
p19
F0.7987489700317383
sS'comp_time'
p20
F6.508827209472656e-05
sS'exec_cq'
p21
I3
sS'total_cq'
p22
I6
sasS'total_cqs'
p23
I6
ssI3
(dp24
S'iters'
p25
I11
sS'meta'
p26
(lp27
(dp28
S'objective'
p29
I457
sS'query_time'
p30
F0.1631908416748047
sS'comp_time'
p31
F0.00012087821960449219
sS'exec_cq'
p32
I1
sS'total_cq'
p33
I33
sa(dp34
g29
I445
sg30
F0.05404305458068848
sg31
F0.0001227855682373047
sg32
I1
sg33
I31
sa(dp35
g29
I369
sg30
F0.018107175827026367
sg31
F9.894371032714844e-05
sg32
I1
sg33
I30
sa(dp36
g29
I331
sg30
F0.014435052871704102
sg31
F7.891654968261719e-05
sg32
I1
sg33
I28
sa(dp37
g29
I293
sg30
F0.016238927841186523
sg31
F7.486343383789062e-05
sg32
I1
sg33
I26
sa(dp38
g29
I279
sg30
F0.0075740814208984375
sg31
F0.00011897087097167969
sg32
I1
sg33
I23
sa(dp39
g29
I253
sg30
F0.008244991302490234
sg31
F8.106231689453125e-05
sg32
I1
sg33
I22
sa(dp40
g29
I186
sg30
F1.970526933670044
sg31
F0.00010991096496582031
sg32
I1
sg33
I21
sa(dp41
g29
I149
sg30
F0.02103114128112793
sg31
F9.083747863769531e-05
sg32
I1
sg33
I18
sa(dp42
g29
I83
sg30
F0.04300713539123535
sg31
F9.107589721679688e-05
sg32
I1
sg33
I15
sa(dp43
g29
I101
sg30
F0.25967907905578613
sg31
F8.988380432128906e-05
sg32
I3
sg33
I12
sasS'total_cqs'
p44
I33
ssI4
(dp45
S'iters'
p46
I0
sS'meta'
p47
(lp48
sS'total_cqs'
p49
I1
ssI5
(dp50
S'iters'
p51
I0
sS'meta'
p52
(lp53
sS'total_cqs'
p54
I1
ssI6
(dp55
S'iters'
p56
I3
sS'meta'
p57
(lp58
(dp59
S'objective'
p60
I5
sS'query_time'
p61
F7.7296600341796875
sS'comp_time'
p62
F0.00012612342834472656
sS'exec_cq'
p63
I1
sS'total_cq'
p64
I5
sa(dp65
g60
I4
sg61
F13.400532007217407
sg62
F0.00015592575073242188
sg63
I1
sg64
I4
sa(dp66
g60
I1
sg61
F1.5732269287109375
sg62
F0.00015974044799804688
sg63
I1
sg64
I2
sasS'total_cqs'
p67
I5
ssI7
(dp68
S'iters'
p69
I0
sS'meta'
p70
(lp71
sS'total_cqs'
p72
I1
ssI8
(dp73
S'iters'
p74
I3
sS'meta'
p75
(lp76
(dp77
S'objective'
p78
I11
sS'query_time'
p79
F22.24768304824829
sS'comp_time'
p80
F0.0003750324249267578
sS'exec_cq'
p81
I2
sS'total_cq'
p82
I6
sa(dp83
g78
I4
sg79
F42.64900994300842
sg80
F0.00031304359436035156
sg81
I3
sg82
I5
sa(dp84
g78
I2
sg79
F0.05736494064331055
sg80
F0.00014400482177734375
sg81
I2
sg82
I4
sasS'total_cqs'
p85
I6
ssI9
(dp86
S'iters'
p87
I3
sS'meta'
p88
(lp89
(dp90
S'objective'
p91
I9
sS'query_time'
p92
F23.548572063446045
sS'comp_time'
p93
F0.0001277923583984375
sS'exec_cq'
p94
I1
sS'total_cq'
p95
I6
sa(dp96
g91
I5
sg92
F8.896151065826416
sg93
F0.00022482872009277344
sg94
I1
sg95
I5
sa(dp97
g91
I2
sg92
F0.6561641693115234
sg93
F5.6743621826171875e-05
sg94
I1
sg95
I4
sasS'total_cqs'
p98
I6
ssI10
(dp99
S'iters'
p100
I0
sS'meta'
p101
(lp102
sS'total_cqs'
p103
I1
ssI11
(dp104
S'iters'
p105
I0
sS'meta'
p106
(lp107
sS'total_cqs'
p108
I1
ssI12
(dp109
S'iters'
p110
I0
sS'meta'
p111
(lp112
sS'total_cqs'
p113
I1
ssI13
(dp114
S'iters'
p115
I1
sS'meta'
p116
(lp117
(dp118
S'objective'
p119
I26
sS'query_time'
p120
F0.14935517311096191
sS'comp_time'
p121
F8.606910705566406e-05
sS'exec_cq'
p122
I4
sS'total_cq'
p123
I8
sasS'total_cqs'
p124
I8
ssI14
(dp125
S'iters'
p126
I1
sS'meta'
p127
(lp128
(dp129
S'objective'
p130
I7
sS'query_time'
p131
F1.223031997680664
sS'comp_time'
p132
F9.202957153320312e-05
sS'exec_cq'
p133
I2
sS'total_cq'
p134
I5
sasS'total_cqs'
p135
I5
ssI16
(dp136
S'iters'
p137
I2
sS'meta'
p138
(lp139
(dp140
S'objective'
p141
I3
sS'query_time'
p142
F8.547437906265259
sS'comp_time'
p143
F0.00011610984802246094
sS'exec_cq'
p144
I2
sS'total_cq'
p145
I5
sa(dp146
g141
I2
sg142
F102.16078305244446
sg143
F8.082389831542969e-05
sg144
I2
sg145
I2
sasS'total_cqs'
p147
I5
ssI17
(dp148
S'iters'
p149
I0
sS'meta'
p150
(lp151
sS'total_cqs'
p152
I1
ssI18
(dp153
S'iters'
p154
I3
sS'meta'
p155
(lp156
(dp157
S'objective'
p158
I1
sS'query_time'
p159
F4.496408939361572
sS'comp_time'
p160
F0.00011491775512695312
sS'exec_cq'
p161
I1
sS'total_cq'
p162
I5
sa(dp163
g158
I2
sg159
F0.27760887145996094
sg160
F0.00010395050048828125
sg161
I1
sg162
I3
sa(dp164
g158
I3
sg159
F0.35652899742126465
sg160
F9.107589721679688e-05
sg161
I2
sg162
I2
sasS'total_cqs'
p165
I5
ssI19
(dp166
S'iters'
p167
I0
sS'meta'
p168
(lp169
sS'total_cqs'
p170
I1
ssI20
(dp171
S'iters'
p172
I5
sS'meta'
p173
(lp174
(dp175
S'objective'
p176
I54
sS'query_time'
p177
F1.2267470359802246
sS'comp_time'
p178
F8.130073547363281e-05
sS'exec_cq'
p179
I1
sS'total_cq'
p180
I12
sa(dp181
g176
I46
sg177
F14.605509996414185
sg178
F0.0001499652862548828
sg179
I2
sg180
I11
sa(dp182
g176
I38
sg177
F4.633296012878418
sg178
F9.083747863769531e-05
sg179
I2
sg180
I10
sa(dp183
g176
I31
sg177
F1.0177679061889648
sg178
F0.00019884109497070312
sg179
I2
sg180
I9
sa(dp184
g176
I25
sg177
F0.09833598136901855
sg178
F7.009506225585938e-05
sg179
I2
sg180
I8
sasS'total_cqs'
p185
I12
ssI21
(dp186
S'iters'
p187
I4
sS'meta'
p188
(lp189
(dp190
S'objective'
p191
I33
sS'query_time'
p192
F4.912350177764893
sS'comp_time'
p193
F0.00011515617370605469
sS'exec_cq'
p194
I1
sS'total_cq'
p195
I14
sa(dp196
g191
I23
sg192
F46.567729234695435
sg193
F0.00026226043701171875
sg194
I3
sg195
I10
sa(dp197
g191
I16
sg192
F0.44988012313842773
sg193
F0.00012874603271484375
sg194
I2
sg195
I8
sa(dp198
g191
I15
sg192
F0.021001815795898438
sg193
F0.00011396408081054688
sg194
I2
sg195
I6
sasS'total_cqs'
p199
I14
ssI22
(dp200
S'iters'
p201
I1
sS'meta'
p202
(lp203
(dp204
S'objective'
p205
I1
sS'query_time'
p206
F0.00438690185546875
sS'comp_time'
p207
F7.319450378417969e-05
sS'exec_cq'
p208
I1
sS'total_cq'
p209
I2
sasS'total_cqs'
p210
I2
ssI23
(dp211
S'iters'
p212
I0
sS'meta'
p213
(lp214
sS'total_cqs'
p215
I1
ssI24
(dp216
S'iters'
p217
I0
sS'meta'
p218
(lp219
sS'total_cqs'
p220
I1
ssI25
(dp221
S'iters'
p222
I3
sS'meta'
p223
(lp224
(dp225
S'objective'
p226
I14
sS'query_time'
p227
F7.585898160934448
sS'comp_time'
p228
F8.702278137207031e-05
sS'exec_cq'
p229
I1
sS'total_cq'
p230
I7
sa(dp231
g226
I9
sg227
F9.316176891326904
sg228
F0.00026106834411621094
sg229
I1
sg230
I6
sa(dp232
g226
I5
sg227
F0.23087000846862793
sg228
F6.723403930664062e-05
sg229
I1
sg230
I5
sasS'total_cqs'
p233
I7
ssI26
(dp234
S'iters'
p235
I6
sS'meta'
p236
(lp237
(dp238
S'objective'
p239
I65
sS'query_time'
p240
F0.05663895606994629
sS'comp_time'
p241
F8.606910705566406e-05
sS'exec_cq'
p242
I1
sS'total_cq'
p243
I13
sa(dp244
g239
I54
sg240
F0.05117392539978027
sg241
F9.512901306152344e-05
sg242
I1
sg243
I12
sa(dp245
g239
I44
sg240
F0.03688192367553711
sg241
F8.368492126464844e-05
sg242
I1
sg243
I11
sa(dp246
g239
I35
sg240
F20.856457948684692
sg241
F0.00037598609924316406
sg242
I1
sg243
I10
sa(dp247
g239
I27
sg240
F0.05641794204711914
sg241
F6.103515625e-05
sg242
I1
sg243
I9
sa(dp248
g239
I20
sg240
F0.0054209232330322266
sg241
F5.507469177246094e-05
sg242
I1
sg243
I8
sasS'total_cqs'
p249
I13
ssI27
(dp250
S'iters'
p251
I1
sS'meta'
p252
(lp253
(dp254
S'objective'
p255
I1
sS'query_time'
p256
F0.383497953414917
sS'comp_time'
p257
F0.0001220703125
sS'exec_cq'
p258
I1
sS'total_cq'
p259
I2
sasS'total_cqs'
p260
I2
ssI28
(dp261
S'iters'
p262
I7
sS'meta'
p263
(lp264
(dp265
S'objective'
p266
I41
sS'query_time'
p267
F2.1076881885528564
sS'comp_time'
p268
F0.00010585784912109375
sS'exec_cq'
p269
I1
sS'total_cq'
p270
I14
sa(dp271
g266
I47
sg267
F1.2868671417236328
sg268
F0.00010085105895996094
sg269
I1
sg270
I9
sa(dp272
g266
I18
sg267
F1.3621320724487305
sg268
F0.00011873245239257812
sg269
I1
sg270
I8
sa(dp273
g266
I17
sg267
F0.6003270149230957
sg268
F0.0001239776611328125
sg269
I1
sg270
I5
sa(dp274
g266
I8
sg267
F0.42796993255615234
sg268
F0.00011873245239257812
sg269
I1
sg270
I4
sa(dp275
g266
I0
sg267
F0.3111438751220703
sg268
F0.00011992454528808594
sg269
I1
sg270
I3
sa(dp276
g266
I7
sg267
F0.14897799491882324
sg268
F0.00011706352233886719
sg269
I1
sg270
I2
sasS'total_cqs'
p277
I14
ssI29
(dp278
S'iters'
p279
I1
sS'meta'
p280
(lp281
(dp282
S'objective'
p283
I1
sS'query_time'
p284
F0.005239963531494141
sS'comp_time'
p285
F6.604194641113281e-05
sS'exec_cq'
p286
I1
sS'total_cq'
p287
I2
sasS'total_cqs'
p288
I2
ssI30
(dp289
S'iters'
p290
I1
sS'meta'
p291
(lp292
(dp293
S'objective'
p294
I1
sS'query_time'
p295
F0.42806386947631836
sS'comp_time'
p296
F6.699562072753906e-05
sS'exec_cq'
p297
I1
sS'total_cq'
p298
I2
sasS'total_cqs'
p299
I2
ssI31
(dp300
S'iters'
p301
I3
sS'meta'
p302
(lp303
(dp304
S'objective'
p305
I21
sS'query_time'
p306
F1.2086429595947266
sS'comp_time'
p307
F0.00010776519775390625
sS'exec_cq'
p308
I1
sS'total_cq'
p309
I9
sa(dp310
g305
I5
sg306
F5.153772830963135
sg307
F9.608268737792969e-05
sg308
I1
sg309
I7
sa(dp311
g305
I2
sg306
F3.537548065185547
sg307
F9.799003601074219e-05
sg308
I1
sg309
I2
sasS'total_cqs'
p312
I9
ssI32
(dp313
S'iters'
p314
I3
sS'meta'
p315
(lp316
(dp317
S'objective'
p318
I14
sS'query_time'
p319
F9.766319036483765
sS'comp_time'
p320
F0.00010895729064941406
sS'exec_cq'
p321
I1
sS'total_cq'
p322
I7
sa(dp323
g318
I9
sg319
F6.2362589836120605
sg320
F0.0006041526794433594
sg321
I1
sg322
I6
sa(dp324
g318
I5
sg319
F0.10221600532531738
sg320
F7.390975952148438e-05
sg321
I1
sg322
I5
sasS'total_cqs'
p325
I7
ssI33
(dp326
S'iters'
p327
I1
sS'meta'
p328
(lp329
(dp330
S'objective'
p331
I1
sS'query_time'
p332
F0.03589200973510742
sS'comp_time'
p333
F6.890296936035156e-05
sS'exec_cq'
p334
I1
sS'total_cq'
p335
I2
sasS'total_cqs'
p336
I2
ssI34
(dp337
S'iters'
p338
I0
sS'meta'
p339
(lp340
sS'total_cqs'
p341
I1
ssI35
(dp342
S'iters'
p343
I2
sS'meta'
p344
(lp345
(dp346
S'objective'
p347
I5
sS'query_time'
p348
F9.59516716003418
sS'comp_time'
p349
F9.799003601074219e-05
sS'exec_cq'
p350
I1
sS'total_cq'
p351
I5
sa(dp352
g347
I2
sg348
F0.19411802291870117
sg349
F9.72747802734375e-05
sg350
I1
sg351
I4
sasS'total_cqs'
p353
I5
ssI37
(dp354
S'iters'
p355
I5
sS'meta'
p356
(lp357
(dp358
S'objective'
p359
I35
sS'query_time'
p360
F0.5727369785308838
sS'comp_time'
p361
F7.176399230957031e-05
sS'exec_cq'
p362
I1
sS'total_cq'
p363
I10
sa(dp364
g359
I27
sg360
F0.005316972732543945
sg361
F6.198883056640625e-05
sg362
I1
sg363
I9
sa(dp365
g359
I20
sg360
F0.7305469512939453
sg361
F7.510185241699219e-05
sg362
I1
sg363
I8
sa(dp366
g359
I14
sg360
F0.6411838531494141
sg361
F0.0008878707885742188
sg362
I1
sg363
I7
sa(dp367
g359
I9
sg360
F0.3996140956878662
sg361
F8.082389831542969e-05
sg362
I1
sg363
I6
sasS'total_cqs'
p368
I10
ssI38
(dp369
S'iters'
p370
I0
sS'meta'
p371
(lp372
sS'total_cqs'
p373
I1
ssI39
(dp374
S'iters'
p375
I0
sS'meta'
p376
(lp377
sS'total_cqs'
p378
I1
ssI40
(dp379
S'iters'
p380
I1
sS'meta'
p381
(lp382
(dp383
S'objective'
p384
I1
sS'query_time'
p385
F17.4708468914032
sS'comp_time'
p386
F0.000885009765625
sS'exec_cq'
p387
I2
sS'total_cq'
p388
I2
sasS'total_cqs'
p389
I2
ssI41
(dp390
S'iters'
p391
I4
sS'meta'
p392
(lp393
(dp394
S'objective'
p395
I9
sS'query_time'
p396
F9.834795951843262
sS'comp_time'
p397
F7.104873657226562e-05
sS'exec_cq'
p398
I1
sS'total_cq'
p399
I6
sa(dp400
g395
I5
sg396
F0.1954059600830078
sg397
F5.3882598876953125e-05
sg398
I1
sg399
I5
sa(dp401
g395
I0
sg396
F0.36644601821899414
sg397
F9.298324584960938e-05
sg398
I1
sg399
I4
sa(dp402
g395
I3
sg396
F69.87540888786316
sg397
F0.0002257823944091797
sg398
I2
sg399
I2
sasS'total_cqs'
p403
I6
ssI42
(dp404
S'iters'
p405
I1
sS'meta'
p406
(lp407
(dp408
S'objective'
p409
I1
sS'query_time'
p410
F0.01087498664855957
sS'comp_time'
p411
F7.987022399902344e-05
sS'exec_cq'
p412
I1
sS'total_cq'
p413
I2
sasS'total_cqs'
p414
I2
ssI43
(dp415
S'iters'
p416
I0
sS'meta'
p417
(lp418
sS'total_cqs'
p419
I1
ssI44
(dp420
S'iters'
p421
I2
sS'meta'
p422
(lp423
(dp424
S'objective'
p425
I1
sS'query_time'
p426
F4.101348161697388
sS'comp_time'
p427
F8.20159912109375e-05
sS'exec_cq'
p428
I1
sS'total_cq'
p429
I5
sa(dp430
g425
I1
sg426
F0.003445148468017578
sg427
F4.482269287109375e-05
sg428
I1
sg429
I3
sasS'total_cqs'
p431
I5
ssI45
(dp432
S'iters'
p433
I2
sS'meta'
p434
(lp435
(dp436
S'objective'
p437
I1
sS'query_time'
p438
F0.04638504981994629
sS'comp_time'
p439
F9.989738464355469e-05
sS'exec_cq'
p440
I2
sS'total_cq'
p441
I5
sa(dp442
g437
I1
sg438
F0.7782001495361328
sg439
F6.604194641113281e-05
sg440
I2
sg441
I2
sasS'total_cqs'
p443
I5
ssI46
(dp444
S'iters'
p445
I0
sS'meta'
p446
(lp447
sS'total_cqs'
p448
I1
ssI47
(dp449
S'iters'
p450
I0
sS'meta'
p451
(lp452
sS'total_cqs'
p453
I1
ssI48
(dp454
S'iters'
p455
I1
sS'meta'
p456
(lp457
(dp458
S'objective'
p459
I1
sS'query_time'
p460
F0.13417315483093262
sS'comp_time'
p461
F9.489059448242188e-05
sS'exec_cq'
p462
I1
sS'total_cq'
p463
I2
sasS'total_cqs'
p464
I2
ssI49
(dp465
S'iters'
p466
I1
sS'meta'
p467
(lp468
(dp469
S'objective'
p470
I7
sS'query_time'
p471
F0.11028695106506348
sS'comp_time'
p472
F0.00011920928955078125
sS'exec_cq'
p473
I2
sS'total_cq'
p474
I5
sasS'total_cqs'
p475
I5
ssI50
(dp476
S'iters'
p477
I2
sS'meta'
p478
(lp479
(dp480
S'objective'
p481
I5
sS'query_time'
p482
F0.009755849838256836
sS'comp_time'
p483
F8.511543273925781e-05
sS'exec_cq'
p484
I1
sS'total_cq'
p485
I5
sa(dp486
g481
I2
sg482
F0.9267599582672119
sg483
F8.702278137207031e-05
sg484
I1
sg485
I4
sasS'total_cqs'
p487
I5
ssI51
(dp488
S'iters'
p489
I0
sS'meta'
p490
(lp491
sS'total_cqs'
p492
I1
ssI52
(dp493
S'iters'
p494
I0
sS'meta'
p495
(lp496
sS'total_cqs'
p497
I1
ssI53
(dp498
S'iters'
p499
I0
sS'meta'
p500
(lp501
sS'total_cqs'
p502
I1
ssI55
(dp503
S'iters'
p504
I1
sS'meta'
p505
(lp506
(dp507
S'objective'
p508
I1
sS'query_time'
p509
F18.400886058807373
sS'comp_time'
p510
F0.00011372566223144531
sS'exec_cq'
p511
I1
sS'total_cq'
p512
I2
sasS'total_cqs'
p513
I2
ssI56
(dp514
S'iters'
p515
I0
sS'meta'
p516
(lp517
sS'total_cqs'
p518
I1
ssI57
(dp519
S'iters'
p520
I1
sS'meta'
p521
(lp522
(dp523
S'objective'
p524
I0
sS'query_time'
p525
F13.063318014144897
sS'comp_time'
p526
F0.00015687942504882812
sS'exec_cq'
p527
I1
sS'total_cq'
p528
I3
sasS'total_cqs'
p529
I3
ssI108
(dp530
S'iters'
p531
I0
sS'meta'
p532
(lp533
sS'total_cqs'
p534
I1
ssI109
(dp535
S'iters'
p536
I0
sS'meta'
p537
(lp538
sS'total_cqs'
p539
I1
ssI116
(dp540
S'iters'
p541
I3
sS'meta'
p542
(lp543
(dp544
S'objective'
p545
I197
sS'query_time'
p546
F1.7901291847229004
sS'comp_time'
p547
F8.487701416015625e-05
sS'exec_cq'
p548
I5
sS'total_cq'
p549
I21
sa(dp550
g545
I174
sg546
F1.198681116104126
sg547
F9.703636169433594e-05
sg548
I5
sg549
I20
sa(dp551
g545
I170
sg546
F0.3439948558807373
sg547
F9.799003601074219e-05
sg548
I8
sg549
I18
sasS'total_cqs'
p552
I21
ssI117
(dp553
S'iters'
p554
I1
sS'meta'
p555
(lp556
(dp557
S'objective'
p558
I7
sS'query_time'
p559
F0.005882978439331055
sS'comp_time'
p560
F6.103515625e-05
sS'exec_cq'
p561
I2
sS'total_cq'
p562
I5
sasS'total_cqs'
p563
I5
ssI118
(dp564
S'iters'
p565
I0
sS'meta'
p566
(lp567
sS'total_cqs'
p568
I1
ssI122
(dp569
S'iters'
p570
I0
sS'meta'
p571
(lp572
sS'total_cqs'
p573
I1
ss.