(dp0
I1
(dp1
S'iters'
p2
I3
sS'meta'
p3
(lp4
(dp5
S'objective'
p6
I17
sS'query_time'
p7
F25.423612117767334
sS'comp_time'
p8
F0.08342790603637695
sS'exec_cq'
p9
I6
sS'total_cq'
p10
I6
sa(dp11
g6
I11
sg7
F0.011013984680175781
sg8
F1.3428809642791748
sg9
I5
sg10
I5
sa(dp12
g6
I2
sg7
F0.009519100189208984
sg8
F244.52006196975708
sg9
I2
sg10
I2
sasS'total_cqs'
p13
I6
ssI2
(dp14
S'iters'
p15
I1
sS'meta'
p16
(lp17
(dp18
S'objective'
p19
I19
sS'query_time'
p20
F0.8584578037261963
sS'comp_time'
p21
F0.1064460277557373
sS'exec_cq'
p22
I6
sS'total_cq'
p23
I6
sasS'total_cqs'
p24
I6
ssI3
(dp25
S'iters'
p26
I16
sS'meta'
p27
(lp28
(dp29
S'objective'
p30
I447
sS'query_time'
p31
F26.474124908447266
sS'comp_time'
p32
F0.25198984146118164
sS'exec_cq'
p33
I33
sS'total_cq'
p34
I33
sa(dp35
g30
I398
sg31
F0.09346413612365723
sg32
F0.24980401992797852
sg33
I30
sg34
I30
sa(dp36
g30
I345
sg31
F0.036489009857177734
sg32
F0.36041784286499023
sg33
I28
sg34
I28
sa(dp37
g30
I300
sg31
F0.0769801139831543
sg32
F0.21253013610839844
sg33
I25
sg34
I25
sa(dp38
g30
I255
sg31
F0.0708920955657959
sg32
F0.2176520824432373
sg33
I22
sg34
I22
sa(dp39
g30
I210
sg31
F0.023190021514892578
sg32
F0.15997791290283203
sg33
I19
sg34
I19
sa(dp40
g30
I180
sg31
F0.009152889251708984
sg32
F0.04317188262939453
sg33
I16
sg34
I16
sa(dp41
g30
I154
sg31
F0.008599042892456055
sg32
F0.04274797439575195
sg33
I13
sg34
I13
sa(dp42
g30
I126
sg31
F0.007148027420043945
sg32
F0.05207395553588867
sg33
I10
sg34
I10
sa(dp43
g30
I112
sg31
F0.0058040618896484375
sg32
F0.03200984001159668
sg33
I9
sg34
I9
sa(dp44
g30
I94
sg31
F0.005949974060058594
sg32
F0.05101299285888672
sg33
I8
sg34
I8
sa(dp45
g30
I78
sg31
F0.006231069564819336
sg32
F0.027462005615234375
sg33
I7
sg34
I7
sa(dp46
g30
I62
sg31
F0.005675077438354492
sg32
F0.0457608699798584
sg33
I6
sg34
I6
sa(dp47
g30
I51
sg31
F0.002374887466430664
sg32
F0.01212310791015625
sg33
I5
sg34
I5
sa(dp48
g30
I47
sg31
F0.0025000572204589844
sg32
F0.011443138122558594
sg33
I4
sg34
I4
sa(dp49
g30
I54
sg31
F0.002065896987915039
sg32
F0.01123499870300293
sg33
I3
sg34
I3
sasS'total_cqs'
p50
I33
ssI4
(dp51
S'iters'
p52
I0
sS'meta'
p53
(lp54
sS'total_cqs'
p55
I1
ssI5
(dp56
S'iters'
p57
I0
sS'meta'
p58
(lp59
sS'total_cqs'
p60
I1
ssI6
(dp61
S'iters'
p62
I3
sS'meta'
p63
(lp64
(dp65
S'objective'
p66
I1
sS'query_time'
p67
F14.966427087783813
sS'comp_time'
p68
F0.0029659271240234375
sS'exec_cq'
p69
I5
sS'total_cq'
p70
I5
sa(dp71
g66
I2
sg67
F0.00043201446533203125
sg68
F0.0022499561309814453
sg69
I3
sg70
I3
sa(dp72
g66
I1
sg67
F0.0001780986785888672
sg68
F0.0008618831634521484
sg69
I2
sg70
I2
sasS'total_cqs'
p73
I5
ssI7
(dp74
S'iters'
p75
I0
sS'meta'
p76
(lp77
sS'total_cqs'
p78
I1
ssI8
(dp79
S'iters'
p80
I4
sS'meta'
p81
(lp82
(dp83
S'objective'
p84
I15
sS'query_time'
p85
F22.727811098098755
sS'comp_time'
p86
F0.25971388816833496
sS'exec_cq'
p87
I6
sS'total_cq'
p88
I6
sa(dp89
g84
I2
sg85
F1.911736011505127
sg86
F1.984102725982666
sg87
I5
sg88
I5
sa(dp90
g84
I0
sg85
F0.0027489662170410156
sg86
F0.0017781257629394531
sg87
I3
sg88
I3
sa(dp91
g84
I3
sg85
F1.8869199752807617
sg86
F1.863170862197876
sg87
I2
sg88
I2
sasS'total_cqs'
p92
I6
ssI9
(dp93
S'iters'
p94
I3
sS'meta'
p95
(lp96
(dp97
S'objective'
p98
I3
sS'query_time'
p99
F52.950079917907715
sS'comp_time'
p100
F4.361799240112305
sS'exec_cq'
p101
I6
sS'total_cq'
p102
I6
sa(dp103
g98
I0
sg99
F0.859766960144043
sg100
F3.3776419162750244
sg101
I3
sg102
I3
sa(dp104
g98
I4
sg99
F0.007441043853759766
sg100
F0.22290897369384766
sg101
I2
sg102
I2
sasS'total_cqs'
p105
I6
ssI10
(dp106
S'iters'
p107
I0
sS'meta'
p108
(lp109
sS'total_cqs'
p110
I1
ssI11
(dp111
S'iters'
p112
I0
sS'meta'
p113
(lp114
sS'total_cqs'
p115
I1
ssI12
(dp116
S'iters'
p117
I0
sS'meta'
p118
(lp119
sS'total_cqs'
p120
I1
ssI13
(dp121
S'iters'
p122
I2
sS'meta'
p123
(lp124
(dp125
S'objective'
p126
I22
sS'query_time'
p127
F0.03439211845397949
sS'comp_time'
p128
F0.0001380443572998047
sS'exec_cq'
p129
I8
sS'total_cq'
p130
I8
sa(dp131
g126
I27
sg127
F3.2901763916015625e-05
sg128
F4.887580871582031e-05
sg129
I7
sg130
I7
sasS'total_cqs'
p132
I8
ssI14
(dp133
S'iters'
p134
I3
sS'meta'
p135
(lp136
(dp137
S'objective'
p138
I5
sS'query_time'
p139
F1.0855882167816162
sS'comp_time'
p140
F0.00689697265625
sS'exec_cq'
p141
I5
sS'total_cq'
p142
I5
sa(dp143
g138
I2
sg139
F0.0005009174346923828
sg140
F0.0030367374420166016
sg141
I4
sg142
I4
sa(dp144
g138
I4
sg139
F0.0004699230194091797
sg140
F0.0027909278869628906
sg141
I3
sg142
I3
sasS'total_cqs'
p145
I5
ssI16
(dp146
S'iters'
p147
I3
sS'meta'
p148
(lp149
(dp150
S'objective'
p151
I1
sS'query_time'
p152
F1.6669929027557373
sS'comp_time'
p153
F0.007203817367553711
sS'exec_cq'
p154
I5
sS'total_cq'
p155
I5
sa(dp156
g151
I1
sg152
F0.00010609626770019531
sg153
F0.0004627704620361328
sg154
I3
sg155
I3
sa(dp157
g151
I1
sg152
F4.00543212890625e-05
sg153
F0.00019097328186035156
sg154
I2
sg155
I2
sasS'total_cqs'
p158
I5
ssI17
(dp159
S'iters'
p160
I0
sS'meta'
p161
(lp162
sS'total_cqs'
p163
I1
ssI18
(dp164
S'iters'
p165
I3
sS'meta'
p166
(lp167
(dp168
S'objective'
p169
I1
sS'query_time'
p170
F0.28074002265930176
sS'comp_time'
p171
F0.0003268718719482422
sS'exec_cq'
p172
I5
sS'total_cq'
p173
I5
sa(dp174
g169
I1
sg170
F6.008148193359375e-05
sg171
F0.0001819133758544922
sg172
I3
sg173
I3
sa(dp175
g169
I1
sg170
F2.9087066650390625e-05
sg171
F0.00011181831359863281
sg172
I2
sg173
I2
sasS'total_cqs'
p176
I5
ssI19
(dp177
S'iters'
p178
I0
sS'meta'
p179
(lp180
sS'total_cqs'
p181
I1
ssI20
(dp182
S'iters'
p183
I6
sS'meta'
p184
(lp185
(dp186
S'objective'
p187
I50
sS'query_time'
p188
F11.318274974822998
sS'comp_time'
p189
F1.6809971332550049
sS'exec_cq'
p190
I12
sS'total_cq'
p191
I12
sa(dp192
g187
I38
sg188
F0.3186790943145752
sg189
F1.2007231712341309
sg190
I10
sg191
I10
sa(dp193
g187
I27
sg188
F0.2526538372039795
sg189
F0.6701679229736328
sg190
I8
sg191
I8
sa(dp194
g187
I17
sg188
F0.13997197151184082
sg189
F0.4507122039794922
sg190
I6
sg191
I6
sa(dp195
g187
I16
sg188
F0.0008349418640136719
sg189
F0.003253936767578125
sg190
I5
sg191
I5
sa(dp196
g187
I20
sg188
F0.0006518363952636719
sg189
F0.0031769275665283203
sg190
I4
sg191
I4
sasS'total_cqs'
p197
I12
ssI21
(dp198
S'iters'
p199
I5
sS'meta'
p200
(lp201
(dp202
S'objective'
p203
I27
sS'query_time'
p204
F28.126217126846313
sS'comp_time'
p205
F0.5543286800384521
sS'exec_cq'
p206
I14
sS'total_cq'
p207
I14
sa(dp208
g203
I26
sg204
F0.057932138442993164
sg205
F0.1658778190612793
sg206
I10
sg207
I10
sa(dp209
g203
I2
sg204
F0.01315617561340332
sg205
F0.09717106819152832
sg206
I6
sg207
I6
sa(dp210
g203
I16
sg204
F0.0053119659423828125
sg205
F0.02637791633605957
sg206
I4
sg207
I4
sa(dp211
g203
I2
sg204
F0.0035359859466552734
sg205
F0.019514799118041992
sg206
I2
sg207
I2
sasS'total_cqs'
p212
I14
ssI22
(dp213
S'iters'
p214
I1
sS'meta'
p215
(lp216
(dp217
S'objective'
p218
I1
sS'query_time'
p219
F0.00869297981262207
sS'comp_time'
p220
F0.00015282630920410156
sS'exec_cq'
p221
I2
sS'total_cq'
p222
I2
sasS'total_cqs'
p223
I2
ssI23
(dp224
S'iters'
p225
I0
sS'meta'
p226
(lp227
sS'total_cqs'
p228
I1
ssI24
(dp229
S'iters'
p230
I0
sS'meta'
p231
(lp232
sS'total_cqs'
p233
I1
ssI25
(dp234
S'iters'
p235
I3
sS'meta'
p236
(lp237
(dp238
S'objective'
p239
I2
sS'query_time'
p240
F86.7817690372467
sS'comp_time'
p241
F9.932770729064941
sS'exec_cq'
p242
I7
sS'total_cq'
p243
I7
sa(dp244
g239
I7
sg240
F3.0069830417633057
sg241
F9.625463724136353
sg242
I5
sg243
I5
sa(dp245
g239
I2
sg240
F0.6185340881347656
sg241
F1.9203648567199707
sg242
I2
sg243
I2
sasS'total_cqs'
p246
I7
ssI26
(dp247
S'iters'
p248
I9
sS'meta'
p249
(lp250
(dp251
S'objective'
p252
I41
sS'query_time'
p253
F24.652695894241333
sS'comp_time'
p254
F3.1420772075653076
sS'exec_cq'
p255
I13
sS'total_cq'
p256
I13
sa(dp257
g252
I40
sg253
F0.7590358257293701
sg254
F3.169611930847168
sg255
I11
sg256
I11
sa(dp258
g252
I31
sg253
F0.7561430931091309
sg254
F3.1527209281921387
sg255
I9
sg256
I9
sa(dp259
g252
I20
sg253
F0.7311279773712158
sg254
F3.098452091217041
sg255
I7
sg256
I7
sa(dp260
g252
I11
sg253
F0.7554960250854492
sg254
F3.087412118911743
sg255
I6
sg256
I6
sa(dp261
g252
I7
sg253
F0.0018930435180664062
sg254
F0.006195068359375
sg255
I5
sg256
I5
sa(dp262
g252
I2
sg253
F0.0009570121765136719
sg254
F0.005080223083496094
sg255
I4
sg256
I4
sa(dp263
g252
I2
sg253
F0.0007150173187255859
sg254
F0.003882169723510742
sg255
I3
sg256
I3
sa(dp264
g252
I1
sg253
F0.0005269050598144531
sg254
F0.0033342838287353516
sg255
I2
sg256
I2
sasS'total_cqs'
p265
I13
ssI27
(dp266
S'iters'
p267
I1
sS'meta'
p268
(lp269
(dp270
S'objective'
p271
I1
sS'query_time'
p272
F0.14933514595031738
sS'comp_time'
p273
F0.004323005676269531
sS'exec_cq'
p274
I2
sS'total_cq'
p275
I2
sasS'total_cqs'
p276
I2
ssI28
(dp277
S'iters'
p278
I7
sS'meta'
p279
(lp280
(dp281
S'objective'
p282
I27
sS'query_time'
p283
F1.7306530475616455
sS'comp_time'
p284
F0.021203994750976562
sS'exec_cq'
p285
I14
sS'total_cq'
p286
I14
sa(dp287
g282
I24
sg283
F0.002910137176513672
sg284
F0.015176057815551758
sg285
I10
sg286
I10
sa(dp288
g282
I15
sg283
F0.0024650096893310547
sg284
F0.03426980972290039
sg285
I7
sg286
I7
sa(dp289
g282
I8
sg283
F0.0026979446411132812
sg284
F0.013659000396728516
sg285
I5
sg286
I5
sa(dp290
g282
I1
sg283
F0.0020928382873535156
sg284
F0.012038230895996094
sg285
I4
sg286
I4
sa(dp291
g282
I0
sg283
F2.6941299438476562e-05
sg284
F7.987022399902344e-05
sg285
I3
sg286
I3
sa(dp292
g282
I3
sg283
F1.5020370483398438e-05
sg284
F5.698204040527344e-05
sg285
I2
sg286
I2
sasS'total_cqs'
p293
I14
ssI29
(dp294
S'iters'
p295
I1
sS'meta'
p296
(lp297
(dp298
S'objective'
p299
I1
sS'query_time'
p300
F0.006723880767822266
sS'comp_time'
p301
F0.00011992454528808594
sS'exec_cq'
p302
I2
sS'total_cq'
p303
I2
sasS'total_cqs'
p304
I2
ssI30
(dp305
S'iters'
p306
I1
sS'meta'
p307
(lp308
(dp309
S'objective'
p310
I1
sS'query_time'
p311
F0.35349607467651367
sS'comp_time'
p312
F0.00595402717590332
sS'exec_cq'
p313
I2
sS'total_cq'
p314
I2
sasS'total_cqs'
p315
I2
ssI31
(dp316
S'iters'
p317
I5
sS'meta'
p318
(lp319
(dp320
S'objective'
p321
I17
sS'query_time'
p322
F6.105608940124512
sS'comp_time'
p323
F0.15271782875061035
sS'exec_cq'
p324
I9
sS'total_cq'
p325
I9
sa(dp326
g321
I9
sg322
F0.007210969924926758
sg323
F0.028017759323120117
sg324
I7
sg325
I7
sa(dp327
g321
I2
sg322
F0.005563020706176758
sg323
F0.05337190628051758
sg324
I5
sg325
I5
sa(dp328
g321
I3
sg322
F0.007003068923950195
sg323
F0.025643110275268555
sg324
I3
sg325
I3
sa(dp329
g321
I1
sg322
F0.0023758411407470703
sg323
F0.012972831726074219
sg324
I2
sg325
I2
sasS'total_cqs'
p330
I9
ssI32
(dp331
S'iters'
p332
I4
sS'meta'
p333
(lp334
(dp335
S'objective'
p336
I0
sS'query_time'
p337
F19.777390003204346
sS'comp_time'
p338
F2.828488826751709
sS'exec_cq'
p339
I7
sS'total_cq'
p340
I7
sa(dp341
g336
I0
sg337
F0.038374900817871094
sg338
F0.38379979133605957
sg339
I4
sg340
I4
sa(dp342
g336
I1
sg337
F0.0943901538848877
sg338
F0.21727895736694336
sg339
I3
sg340
I3
sa(dp343
g336
I1
sg337
F0.08591508865356445
sg338
F0.19953107833862305
sg339
I2
sg340
I2
sasS'total_cqs'
p344
I7
ssI33
(dp345
S'iters'
p346
I1
sS'meta'
p347
(lp348
(dp349
S'objective'
p350
I1
sS'query_time'
p351
F0.03487396240234375
sS'comp_time'
p352
F0.0001239776611328125
sS'exec_cq'
p353
I2
sS'total_cq'
p354
I2
sasS'total_cqs'
p355
I2
ssI34
(dp356
S'iters'
p357
I0
sS'meta'
p358
(lp359
sS'total_cqs'
p360
I1
ssI35
(dp361
S'iters'
p362
I3
sS'meta'
p363
(lp364
(dp365
S'objective'
p366
I1
sS'query_time'
p367
F15.923824071884155
sS'comp_time'
p368
F0.24963712692260742
sS'exec_cq'
p369
I5
sS'total_cq'
p370
I5
sa(dp371
g366
I1
sg367
F0.05696296691894531
sg368
F0.1385641098022461
sg369
I3
sg370
I3
sa(dp372
g366
I1
sg367
F0.045298099517822266
sg368
F0.07973790168762207
sg369
I2
sg370
I2
sasS'total_cqs'
p373
I5
ssI37
(dp374
S'iters'
p375
I3
sS'meta'
p376
(lp377
(dp378
S'objective'
p379
I15
sS'query_time'
p380
F2.552973985671997
sS'comp_time'
p381
F0.12053608894348145
sS'exec_cq'
p382
I10
sS'total_cq'
p383
I10
sa(dp384
g379
I0
sg380
F0.029413223266601562
sg381
F0.03586387634277344
sg382
I3
sg383
I3
sa(dp385
g379
I8
sg380
F0.0029311180114746094
sg381
F0.011659860610961914
sg382
I2
sg383
I2
sasS'total_cqs'
p386
I10
ssI38
(dp387
S'iters'
p388
I0
sS'meta'
p389
(lp390
sS'total_cqs'
p391
I1
ssI39
(dp392
S'iters'
p393
I0
sS'meta'
p394
(lp395
sS'total_cqs'
p396
I1
ssI40
(dp397
S'iters'
p398
I1
sS'meta'
p399
(lp400
(dp401
S'objective'
p402
I1
sS'query_time'
p403
F17.383255004882812
sS'comp_time'
p404
F3.376451253890991
sS'exec_cq'
p405
I2
sS'total_cq'
p406
I2
sasS'total_cqs'
p407
I2
ssI41
(dp408
S'iters'
p409
I3
sS'meta'
p410
(lp411
(dp412
S'objective'
p413
I1
sS'query_time'
p414
F12.090001106262207
sS'comp_time'
p415
F1.15071702003479
sS'exec_cq'
p416
I6
sS'total_cq'
p417
I6
sa(dp418
g413
I0
sg414
F0.2398848533630371
sg415
F1.1689279079437256
sg416
I4
sg417
I4
sa(dp419
g413
I3
sg414
F0.0009849071502685547
sg415
F0.0036780834197998047
sg416
I2
sg417
I2
sasS'total_cqs'
p420
I6
ssI42
(dp421
S'iters'
p422
I1
sS'meta'
p423
(lp424
(dp425
S'objective'
p426
I1
sS'query_time'
p427
F17.486202001571655
sS'comp_time'
p428
F2.9270219802856445
sS'exec_cq'
p429
I2
sS'total_cq'
p430
I2
sasS'total_cqs'
p431
I2
ssI43
(dp432
S'iters'
p433
I0
sS'meta'
p434
(lp435
sS'total_cqs'
p436
I1
ssI44
(dp437
S'iters'
p438
I3
sS'meta'
p439
(lp440
(dp441
S'objective'
p442
I1
sS'query_time'
p443
F1.5831658840179443
sS'comp_time'
p444
F0.13929986953735352
sS'exec_cq'
p445
I5
sS'total_cq'
p446
I5
sa(dp447
g442
I1
sg443
F0.019774913787841797
sg444
F0.14299678802490234
sg445
I3
sg446
I3
sa(dp448
g442
I1
sg443
F9.512901306152344e-05
sg444
F0.00039505958557128906
sg445
I2
sg446
I2
sasS'total_cqs'
p449
I5
ssI45
(dp450
S'iters'
p451
I2
sS'meta'
p452
(lp453
(dp454
S'objective'
p455
I7
sS'query_time'
p456
F0.04308795928955078
sS'comp_time'
p457
F0.0006110668182373047
sS'exec_cq'
p458
I5
sS'total_cq'
p459
I5
sa(dp460
g455
I2
sg456
F0.00013709068298339844
sg457
F0.0007188320159912109
sg458
I2
sg459
I2
sasS'total_cqs'
p461
I5
ssI46
(dp462
S'iters'
p463
I0
sS'meta'
p464
(lp465
sS'total_cqs'
p466
I1
ssI47
(dp467
S'iters'
p468
I0
sS'meta'
p469
(lp470
sS'total_cqs'
p471
I1
ssI48
(dp472
S'iters'
p473
I1
sS'meta'
p474
(lp475
(dp476
S'objective'
p477
I1
sS'query_time'
p478
F0.12791800498962402
sS'comp_time'
p479
F0.006312131881713867
sS'exec_cq'
p480
I2
sS'total_cq'
p481
I2
sasS'total_cqs'
p482
I2
ssI49
(dp483
S'iters'
p484
I3
sS'meta'
p485
(lp486
(dp487
S'objective'
p488
I1
sS'query_time'
p489
F0.26314210891723633
sS'comp_time'
p490
F0.002852916717529297
sS'exec_cq'
p491
I5
sS'total_cq'
p492
I5
sa(dp493
g488
I1
sg489
F0.00034999847412109375
sg490
F0.001703023910522461
sg491
I3
sg492
I3
sa(dp494
g488
I1
sg489
F2.8133392333984375e-05
sg490
F0.00010800361633300781
sg491
I2
sg492
I2
sasS'total_cqs'
p495
I5
ssI50
(dp496
S'iters'
p497
I4
sS'meta'
p498
(lp499
(dp500
S'objective'
p501
I5
sS'query_time'
p502
F0.9484119415283203
sS'comp_time'
p503
F0.0013518333435058594
sS'exec_cq'
p504
I5
sS'total_cq'
p505
I5
sa(dp506
g501
I2
sg502
F0.00014901161193847656
sg503
F0.0008189678192138672
sg504
I4
sg505
I4
sa(dp507
g501
I0
sg502
F0.00012803077697753906
sg503
F0.0008299350738525391
sg504
I3
sg505
I3
sa(dp508
g501
I1
sg502
F0.00011682510375976562
sg503
F0.0006768703460693359
sg504
I2
sg505
I2
sasS'total_cqs'
p509
I5
ssI51
(dp510
S'iters'
p511
I0
sS'meta'
p512
(lp513
sS'total_cqs'
p514
I1
ssI52
(dp515
S'iters'
p516
I0
sS'meta'
p517
(lp518
sS'total_cqs'
p519
I1
ssI53
(dp520
S'iters'
p521
I0
sS'meta'
p522
(lp523
sS'total_cqs'
p524
I1
ssI55
(dp525
S'iters'
p526
I1
sS'meta'
p527
(lp528
(dp529
S'objective'
p530
I1
sS'query_time'
p531
F26.657454013824463
sS'comp_time'
p532
F3.7106199264526367
sS'exec_cq'
p533
I2
sS'total_cq'
p534
I2
sasS'total_cqs'
p535
I2
ssI56
(dp536
S'iters'
p537
I0
sS'meta'
p538
(lp539
sS'total_cqs'
p540
I1
ssI57
(dp541
S'iters'
p542
I2
sS'meta'
p543
(lp544
(dp545
S'objective'
p546
I0
sS'query_time'
p547
F13.892954111099243
sS'comp_time'
p548
F1.472470998764038
sS'exec_cq'
p549
I3
sS'total_cq'
p550
I3
sa(dp551
g546
I1
sg547
F0.35431385040283203
sg548
F1.3318679332733154
sg549
I2
sg550
I2
sasS'total_cqs'
p552
I3
ssI108
(dp553
S'iters'
p554
I0
sS'meta'
p555
(lp556
sS'total_cqs'
p557
I1
ssI109
(dp558
S'iters'
p559
I0
sS'meta'
p560
(lp561
sS'total_cqs'
p562
I1
ssI116
(dp563
S'iters'
p564
I4
sS'meta'
p565
(lp566
(dp567
S'objective'
p568
I175
sS'query_time'
p569
F5.375833034515381
sS'comp_time'
p570
F0.37491774559020996
sS'exec_cq'
p571
I21
sS'total_cq'
p572
I21
sa(dp573
g568
I169
sg569
F0.009907007217407227
sg570
F0.0968019962310791
sg571
I19
sg572
I19
sa(dp574
g568
I5
sg569
F0.001322031021118164
sg570
F0.004752159118652344
sg571
I3
sg572
I3
sa(dp575
g568
I4
sg569
F0.0003819465637207031
sg570
F0.0023567676544189453
sg571
I2
sg572
I2
sasS'total_cqs'
p576
I21
ssI117
(dp577
S'iters'
p578
I2
sS'meta'
p579
(lp580
(dp581
S'objective'
p582
I7
sS'query_time'
p583
F0.014585018157958984
sS'comp_time'
p584
F0.0001342296600341797
sS'exec_cq'
p585
I5
sS'total_cq'
p586
I5
sa(dp587
g582
I9
sg583
F1.9073486328125e-05
sg584
F4.291534423828125e-05
sg585
I4
sg586
I4
sasS'total_cqs'
p588
I5
ssI118
(dp589
S'iters'
p590
I0
sS'meta'
p591
(lp592
sS'total_cqs'
p593
I1
ssI122
(dp594
S'iters'
p595
I0
sS'meta'
p596
(lp597
sS'total_cqs'
p598
I1
ss.