(dp0
I1
(dp1
S'iters'
p2
I2
sS'meta'
p3
(lp4
(dp5
S'objective'
p6
I7
sS'query_time'
p7
F2.740514039993286
sS'comp_time'
p8
F8.296966552734375e-05
sS'exec_cq'
p9
I1
sS'total_cq'
p10
I6
sa(dp11
g6
I5
sg7
F185.20445680618286
sg8
F0.000148773193359375
sg9
I1
sg10
I2
sasS'total_cqs'
p12
I6
ssI2
(dp13
S'iters'
p14
I1
sS'meta'
p15
(lp16
(dp17
S'objective'
p18
I9
sS'query_time'
p19
F0.7740499973297119
sS'comp_time'
p20
F7.104873657226562e-05
sS'exec_cq'
p21
I1
sS'total_cq'
p22
I6
sasS'total_cqs'
p23
I6
ssI3
(dp24
S'iters'
p25
I8
sS'meta'
p26
(lp27
(dp28
S'objective'
p29
I447
sS'query_time'
p30
F0.06721115112304688
sS'comp_time'
p31
F0.00010800361633300781
sS'exec_cq'
p32
I1
sS'total_cq'
p33
I33
sa(dp34
g29
I390
sg30
F0.01941704750061035
sg31
F8.487701416015625e-05
sg32
I1
sg33
I30
sa(dp35
g29
I385
sg30
F0.04832196235656738
sg31
F9.012222290039062e-05
sg32
I1
sg33
I28
sa(dp36
g29
I356
sg30
F0.05212712287902832
sg31
F9.083747863769531e-05
sg32
I1
sg33
I27
sa(dp37
g29
I276
sg30
F0.9741568565368652
sg31
F0.00012493133544921875
sg32
I1
sg33
I26
sa(dp38
g29
I275
sg30
F0.01171112060546875
sg31
F6.818771362304688e-05
sg32
I1
sg33
I23
sa(dp39
g29
I249
sg30
F4.691033124923706
sg31
F0.0001590251922607422
sg32
I1
sg33
I22
sa(dp40
g29
I224
sg30
F0.1730329990386963
sg31
F8.296966552734375e-05
sg32
I1
sg33
I21
sasS'total_cqs'
p41
I33
ssI4
(dp42
S'iters'
p43
I0
sS'meta'
p44
(lp45
sS'total_cqs'
p46
I1
ssI5
(dp47
S'iters'
p48
I0
sS'meta'
p49
(lp50
sS'total_cqs'
p51
I1
ssI6
(dp52
S'iters'
p53
I3
sS'meta'
p54
(lp55
(dp56
S'objective'
p57
I5
sS'query_time'
p58
F1.8612949848175049
sS'comp_time'
p59
F0.00010895729064941406
sS'exec_cq'
p60
I1
sS'total_cq'
p61
I5
sa(dp62
g57
I2
sg58
F3.86637806892395
sg59
F0.00010800361633300781
sg60
I1
sg61
I3
sa(dp63
g57
I4
sg58
F4.725934028625488
sg59
F9.5367431640625e-05
sg60
I2
sg61
I2
sasS'total_cqs'
p64
I5
ssI7
(dp65
S'iters'
p66
I0
sS'meta'
p67
(lp68
sS'total_cqs'
p69
I1
ssI8
(dp70
S'iters'
p71
I2
sS'meta'
p72
(lp73
(dp74
S'objective'
p75
I11
sS'query_time'
p76
F22.586295127868652
sS'comp_time'
p77
F0.0002281665802001953
sS'exec_cq'
p78
I2
sS'total_cq'
p79
I6
sa(dp80
g75
I4
sg76
F20.140680074691772
sg77
F0.00015211105346679688
sg78
I2
sg79
I5
sasS'total_cqs'
p81
I6
ssI9
(dp82
S'iters'
p83
I1
sS'meta'
p84
(lp85
(dp86
S'objective'
p87
I9
sS'query_time'
p88
F1.0484609603881836
sS'comp_time'
p89
F7.295608520507812e-05
sS'exec_cq'
p90
I1
sS'total_cq'
p91
I6
sasS'total_cqs'
p92
I6
ssI10
(dp93
S'iters'
p94
I0
sS'meta'
p95
(lp96
sS'total_cqs'
p97
I1
ssI11
(dp98
S'iters'
p99
I0
sS'meta'
p100
(lp101
sS'total_cqs'
p102
I1
ssI12
(dp103
S'iters'
p104
I0
sS'meta'
p105
(lp106
sS'total_cqs'
p107
I1
ssI13
(dp108
S'iters'
p109
I1
sS'meta'
p110
(lp111
(dp112
S'objective'
p113
I22
sS'query_time'
p114
F0.27218198776245117
sS'comp_time'
p115
F8.702278137207031e-05
sS'exec_cq'
p116
I2
sS'total_cq'
p117
I8
sasS'total_cqs'
p118
I8
ssI14
(dp119
S'iters'
p120
I1
sS'meta'
p121
(lp122
(dp123
S'objective'
p124
I5
sS'query_time'
p125
F1.0075700283050537
sS'comp_time'
p126
F7.605552673339844e-05
sS'exec_cq'
p127
I1
sS'total_cq'
p128
I5
sasS'total_cqs'
p129
I5
ssI16
(dp130
S'iters'
p131
I2
sS'meta'
p132
(lp133
(dp134
S'objective'
p135
I1
sS'query_time'
p136
F6.842350959777832
sS'comp_time'
p137
F8.726119995117188e-05
sS'exec_cq'
p138
I1
sS'total_cq'
p139
I5
sa(dp140
g135
I2
sg136
F103.35504198074341
sg137
F7.176399230957031e-05
sg138
I2
sg139
I2
sasS'total_cqs'
p141
I5
ssI17
(dp142
S'iters'
p143
I0
sS'meta'
p144
(lp145
sS'total_cqs'
p146
I1
ssI18
(dp147
S'iters'
p148
I2
sS'meta'
p149
(lp150
(dp151
S'objective'
p152
I1
sS'query_time'
p153
F0.42606496810913086
sS'comp_time'
p154
F9.989738464355469e-05
sS'exec_cq'
p155
I1
sS'total_cq'
p156
I5
sa(dp157
g152
I2
sg153
F0.35487890243530273
sg154
F8.0108642578125e-05
sg155
I2
sg156
I2
sasS'total_cqs'
p158
I5
ssI19
(dp159
S'iters'
p160
I0
sS'meta'
p161
(lp162
sS'total_cqs'
p163
I1
ssI20
(dp164
S'iters'
p165
I3
sS'meta'
p166
(lp167
(dp168
S'objective'
p169
I54
sS'query_time'
p170
F1.0781450271606445
sS'comp_time'
p171
F8.130073547363281e-05
sS'exec_cq'
p172
I1
sS'total_cq'
p173
I12
sa(dp174
g169
I44
sg170
F0.008544206619262695
sg171
F7.176399230957031e-05
sg172
I1
sg173
I11
sa(dp175
g169
I35
sg170
F0.11151313781738281
sg171
F7.987022399902344e-05
sg172
I1
sg173
I10
sasS'total_cqs'
p176
I12
ssI21
(dp177
S'iters'
p178
I2
sS'meta'
p179
(lp180
(dp181
S'objective'
p182
I79
sS'query_time'
p183
F20.315408945083618
sS'comp_time'
p184
F9.202957153320312e-05
sS'exec_cq'
p185
I2
sS'total_cq'
p186
I14
sa(dp187
g182
I68
sg183
F0.021347999572753906
sg184
F8.273124694824219e-05
sg185
I2
sg186
I13
sasS'total_cqs'
p188
I14
ssI22
(dp189
S'iters'
p190
I1
sS'meta'
p191
(lp192
(dp193
S'objective'
p194
I1
sS'query_time'
p195
F0.004492998123168945
sS'comp_time'
p196
F7.796287536621094e-05
sS'exec_cq'
p197
I1
sS'total_cq'
p198
I2
sasS'total_cqs'
p199
I2
ssI23
(dp200
S'iters'
p201
I0
sS'meta'
p202
(lp203
sS'total_cqs'
p204
I1
ssI24
(dp205
S'iters'
p206
I0
sS'meta'
p207
(lp208
sS'total_cqs'
p209
I1
ssI25
(dp210
S'iters'
p211
I1
sS'meta'
p212
(lp213
(dp214
S'objective'
p215
I14
sS'query_time'
p216
F0.4521608352661133
sS'comp_time'
p217
F0.00010585784912109375
sS'exec_cq'
p218
I1
sS'total_cq'
p219
I7
sasS'total_cqs'
p220
I7
ssI26
(dp221
S'iters'
p222
I3
sS'meta'
p223
(lp224
(dp225
S'objective'
p226
I65
sS'query_time'
p227
F0.04157090187072754
sS'comp_time'
p228
F8.487701416015625e-05
sS'exec_cq'
p229
I1
sS'total_cq'
p230
I13
sa(dp231
g226
I54
sg227
F0.04044008255004883
sg228
F7.486343383789062e-05
sg229
I1
sg230
I12
sa(dp232
g226
I44
sg227
F0.013159990310668945
sg228
F6.699562072753906e-05
sg229
I1
sg230
I11
sasS'total_cqs'
p233
I13
ssI27
(dp234
S'iters'
p235
I1
sS'meta'
p236
(lp237
(dp238
S'objective'
p239
I1
sS'query_time'
p240
F0.37635207176208496
sS'comp_time'
p241
F0.00010395050048828125
sS'exec_cq'
p242
I1
sS'total_cq'
p243
I2
sasS'total_cqs'
p244
I2
ssI28
(dp245
S'iters'
p246
I3
sS'meta'
p247
(lp248
(dp249
S'objective'
p250
I57
sS'query_time'
p251
F1.4491469860076904
sS'comp_time'
p252
F9.202957153320312e-05
sS'exec_cq'
p253
I1
sS'total_cq'
p254
I14
sa(dp255
g250
I39
sg251
F0.9522390365600586
sg252
F0.00011110305786132812
sg253
I1
sg254
I11
sa(dp256
g250
I36
sg251
F0.4950850009918213
sg252
F8.392333984375e-05
sg253
I1
sg254
I8
sasS'total_cqs'
p257
I14
ssI29
(dp258
S'iters'
p259
I1
sS'meta'
p260
(lp261
(dp262
S'objective'
p263
I1
sS'query_time'
p264
F0.006246805191040039
sS'comp_time'
p265
F8.0108642578125e-05
sS'exec_cq'
p266
I1
sS'total_cq'
p267
I2
sasS'total_cqs'
p268
I2
ssI30
(dp269
S'iters'
p270
I1
sS'meta'
p271
(lp272
(dp273
S'objective'
p274
I1
sS'query_time'
p275
F0.39498209953308105
sS'comp_time'
p276
F8.296966552734375e-05
sS'exec_cq'
p277
I1
sS'total_cq'
p278
I2
sasS'total_cqs'
p279
I2
ssI31
(dp280
S'iters'
p281
I2
sS'meta'
p282
(lp283
(dp284
S'objective'
p285
I27
sS'query_time'
p286
F1.4906339645385742
sS'comp_time'
p287
F0.00013399124145507812
sS'exec_cq'
p288
I1
sS'total_cq'
p289
I9
sa(dp290
g285
I20
sg286
F0.3759148120880127
sg287
F7.700920104980469e-05
sg288
I1
sg289
I8
sasS'total_cqs'
p291
I9
ssI32
(dp292
S'iters'
p293
I1
sS'meta'
p294
(lp295
(dp296
S'objective'
p297
I14
sS'query_time'
p298
F0.17765402793884277
sS'comp_time'
p299
F8.0108642578125e-05
sS'exec_cq'
p300
I1
sS'total_cq'
p301
I7
sasS'total_cqs'
p302
I7
ssI33
(dp303
S'iters'
p304
I1
sS'meta'
p305
(lp306
(dp307
S'objective'
p308
I1
sS'query_time'
p309
F0.0398869514465332
sS'comp_time'
p310
F8.082389831542969e-05
sS'exec_cq'
p311
I1
sS'total_cq'
p312
I2
sasS'total_cqs'
p313
I2
ssI34
(dp314
S'iters'
p315
I0
sS'meta'
p316
(lp317
sS'total_cqs'
p318
I1
ssI35
(dp319
S'iters'
p320
I1
sS'meta'
p321
(lp322
(dp323
S'objective'
p324
I5
sS'query_time'
p325
F0.3080160617828369
sS'comp_time'
p326
F9.274482727050781e-05
sS'exec_cq'
p327
I1
sS'total_cq'
p328
I5
sasS'total_cqs'
p329
I5
ssI37
(dp330
S'iters'
p331
I2
sS'meta'
p332
(lp333
(dp334
S'objective'
p335
I35
sS'query_time'
p336
F0.5986289978027344
sS'comp_time'
p337
F6.890296936035156e-05
sS'exec_cq'
p338
I1
sS'total_cq'
p339
I10
sa(dp340
g335
I27
sg336
F0.3481290340423584
sg337
F8.368492126464844e-05
sg338
I1
sg339
I9
sasS'total_cqs'
p341
I10
ssI38
(dp342
S'iters'
p343
I0
sS'meta'
p344
(lp345
sS'total_cqs'
p346
I1
ssI39
(dp347
S'iters'
p348
I0
sS'meta'
p349
(lp350
sS'total_cqs'
p351
I1
ssI40
(dp352
S'iters'
p353
I1
sS'meta'
p354
(lp355
(dp356
S'objective'
p357
I1
sS'query_time'
p358
F15.556199073791504
sS'comp_time'
p359
F0.019073963165283203
sS'exec_cq'
p360
I2
sS'total_cq'
p361
I2
sasS'total_cqs'
p362
I2
ssI41
(dp363
S'iters'
p364
I2
sS'meta'
p365
(lp366
(dp367
S'objective'
p368
I3
sS'query_time'
p369
F7.096189022064209
sS'comp_time'
p370
F8.988380432128906e-05
sS'exec_cq'
p371
I1
sS'total_cq'
p372
I6
sa(dp373
g368
I3
sg369
F67.49942803382874
sg370
F7.295608520507812e-05
sg371
I2
sg372
I2
sasS'total_cqs'
p374
I6
ssI42
(dp375
S'iters'
p376
I1
sS'meta'
p377
(lp378
(dp379
S'objective'
p380
I1
sS'query_time'
p381
F0.011784076690673828
sS'comp_time'
p382
F6.890296936035156e-05
sS'exec_cq'
p383
I1
sS'total_cq'
p384
I2
sasS'total_cqs'
p385
I2
ssI43
(dp386
S'iters'
p387
I0
sS'meta'
p388
(lp389
sS'total_cqs'
p390
I1
ssI44
(dp391
S'iters'
p392
I1
sS'meta'
p393
(lp394
(dp395
S'objective'
p396
I5
sS'query_time'
p397
F0.010702848434448242
sS'comp_time'
p398
F8.296966552734375e-05
sS'exec_cq'
p399
I1
sS'total_cq'
p400
I5
sasS'total_cqs'
p401
I5
ssI45
(dp402
S'iters'
p403
I2
sS'meta'
p404
(lp405
(dp406
S'objective'
p407
I3
sS'query_time'
p408
F0.04370379447937012
sS'comp_time'
p409
F9.322166442871094e-05
sS'exec_cq'
p410
I1
sS'total_cq'
p411
I5
sa(dp412
g407
I4
sg408
F0.5586099624633789
sg409
F0.00010013580322265625
sg410
I2
sg411
I2
sasS'total_cqs'
p413
I5
ssI46
(dp414
S'iters'
p415
I0
sS'meta'
p416
(lp417
sS'total_cqs'
p418
I1
ssI47
(dp419
S'iters'
p420
I0
sS'meta'
p421
(lp422
sS'total_cqs'
p423
I1
ssI48
(dp424
S'iters'
p425
I1
sS'meta'
p426
(lp427
(dp428
S'objective'
p429
I1
sS'query_time'
p430
F0.14979910850524902
sS'comp_time'
p431
F0.00011110305786132812
sS'exec_cq'
p432
I1
sS'total_cq'
p433
I2
sasS'total_cqs'
p434
I2
ssI49
(dp435
S'iters'
p436
I1
sS'meta'
p437
(lp438
(dp439
S'objective'
p440
I5
sS'query_time'
p441
F0.3761579990386963
sS'comp_time'
p442
F8.0108642578125e-05
sS'exec_cq'
p443
I1
sS'total_cq'
p444
I5
sasS'total_cqs'
p445
I5
ssI50
(dp446
S'iters'
p447
I1
sS'meta'
p448
(lp449
(dp450
S'objective'
p451
I5
sS'query_time'
p452
F0.8459429740905762
sS'comp_time'
p453
F8.487701416015625e-05
sS'exec_cq'
p454
I1
sS'total_cq'
p455
I5
sasS'total_cqs'
p456
I5
ssI51
(dp457
S'iters'
p458
I0
sS'meta'
p459
(lp460
sS'total_cqs'
p461
I1
ssI52
(dp462
S'iters'
p463
I0
sS'meta'
p464
(lp465
sS'total_cqs'
p466
I1
ssI53
(dp467
S'iters'
p468
I0
sS'meta'
p469
(lp470
sS'total_cqs'
p471
I1
ssI55
(dp472
S'iters'
p473
I1
sS'meta'
p474
(lp475
(dp476
S'objective'
p477
I1
sS'query_time'
p478
F15.503134965896606
sS'comp_time'
p479
F0.0001659393310546875
sS'exec_cq'
p480
I1
sS'total_cq'
p481
I2
sasS'total_cqs'
p482
I2
ssI56
(dp483
S'iters'
p484
I0
sS'meta'
p485
(lp486
sS'total_cqs'
p487
I1
ssI57
(dp488
S'iters'
p489
I2
sS'meta'
p490
(lp491
(dp492
S'objective'
p493
I0
sS'query_time'
p494
F2.0828747749328613
sS'comp_time'
p495
F0.0010039806365966797
sS'exec_cq'
p496
I1
sS'total_cq'
p497
I3
sa(dp498
g493
I1
sg494
F10.581257104873657
sg495
F8.797645568847656e-05
sg496
I1
sg497
I2
sasS'total_cqs'
p499
I3
ssI108
(dp500
S'iters'
p501
I0
sS'meta'
p502
(lp503
sS'total_cqs'
p504
I1
ssI109
(dp505
S'iters'
p506
I0
sS'meta'
p507
(lp508
sS'total_cqs'
p509
I1
ssI116
(dp510
S'iters'
p511
I3
sS'meta'
p512
(lp513
(dp514
S'objective'
p515
I191
sS'query_time'
p516
F0.2673628330230713
sS'comp_time'
p517
F9.083747863769531e-05
sS'exec_cq'
p518
I2
sS'total_cq'
p519
I21
sa(dp520
g515
I163
sg516
F6.1349711418151855
sg517
F0.0001049041748046875
sg518
I4
sg519
I20
sa(dp521
g515
I10
sg516
F0.001168966293334961
sg517
F4.601478576660156e-05
sg518
I1
sg519
I2
sasS'total_cqs'
p522
I21
ssI117
(dp523
S'iters'
p524
I1
sS'meta'
p525
(lp526
(dp527
S'objective'
p528
I5
sS'query_time'
p529
F0.008990049362182617
sS'comp_time'
p530
F8.296966552734375e-05
sS'exec_cq'
p531
I1
sS'total_cq'
p532
I5
sasS'total_cqs'
p533
I5
ssI118
(dp534
S'iters'
p535
I0
sS'meta'
p536
(lp537
sS'total_cqs'
p538
I1
ssI122
(dp539
S'iters'
p540
I0
sS'meta'
p541
(lp542
sS'total_cqs'
p543
I1
ss.