(dp0
I1
(dp1
S'iters'
p2
I2
sS'meta'
p3
(lp4
(dp5
S'objective'
p6
I5
sS'query_time'
p7
F80.85484600067139
sS'comp_time'
p8
F5.171567916870117
sS'exec_cq'
p9
I6
sS'total_cq'
p10
I6
sa(dp11
g6
I4
sg7
F0.009774923324584961
sg8
F1.1004390716552734
sg9
I2
sg10
I2
sasS'total_cqs'
p12
I6
ssI2
(dp13
S'iters'
p14
I1
sS'meta'
p15
(lp16
(dp17
S'objective'
p18
I9
sS'query_time'
p19
F8.70741605758667
sS'comp_time'
p20
F0.12964916229248047
sS'exec_cq'
p21
I6
sS'total_cq'
p22
I6
sasS'total_cqs'
p23
I6
ssI3
(dp24
S'iters'
p25
I9
sS'meta'
p26
(lp27
(dp28
S'objective'
p29
I391
sS'query_time'
p30
F78.806715965271
sS'comp_time'
p31
F0.4304490089416504
sS'exec_cq'
p32
I33
sS'total_cq'
p33
I33
sa(dp34
g29
I320
sg30
F0.03357219696044922
sg31
F0.43017578125
sg32
I30
sg33
I30
sa(dp35
g29
I276
sg30
F0.06941795349121094
sg31
F0.3927311897277832
sg32
I27
sg33
I27
sa(dp36
g29
I227
sg30
F0.018156051635742188
sg31
F0.2746729850769043
sg32
I24
sg33
I24
sa(dp37
g29
I210
sg30
F0.017251014709472656
sg31
F0.23830509185791016
sg32
I21
sg33
I21
sa(dp38
g29
I186
sg30
F0.01549386978149414
sg31
F0.17840886116027832
sg32
I18
sg33
I18
sa(dp39
g29
I160
sg30
F0.01586604118347168
sg31
F0.18368005752563477
sg32
I16
sg33
I16
sa(dp40
g29
I134
sg30
F0.04771304130554199
sg31
F0.1713850498199463
sg32
I15
sg33
I15
sa(dp41
g29
I109
sg30
F0.0163419246673584
sg31
F0.17162775993347168
sg32
I12
sg33
I12
sasS'total_cqs'
p42
I33
ssI4
(dp43
S'iters'
p44
I0
sS'meta'
p45
(lp46
sS'total_cqs'
p47
I1
ssI5
(dp48
S'iters'
p49
I0
sS'meta'
p50
(lp51
sS'total_cqs'
p52
I1
ssI6
(dp53
S'iters'
p54
I2
sS'meta'
p55
(lp56
(dp57
S'objective'
p58
I1
sS'query_time'
p59
F51.574118852615356
sS'comp_time'
p60
F4.127762079238892
sS'exec_cq'
p61
I5
sS'total_cq'
p62
I5
sa(dp63
g58
I2
sg59
F0.0010890960693359375
sg60
F0.005493879318237305
sg61
I3
sg62
I3
sasS'total_cqs'
p64
I5
ssI7
(dp65
S'iters'
p66
I0
sS'meta'
p67
(lp68
sS'total_cqs'
p69
I1
ssI8
(dp70
S'iters'
p71
I1
sS'meta'
p72
(lp73
(dp74
S'objective'
p75
I9
sS'query_time'
p76
F120.52307510375977
sS'comp_time'
p77
F7.6457109451293945
sS'exec_cq'
p78
I6
sS'total_cq'
p79
I6
sasS'total_cqs'
p80
I6
ssI9
(dp81
S'iters'
p82
I2
sS'meta'
p83
(lp84
(dp85
S'objective'
p86
I1
sS'query_time'
p87
F77.6643590927124
sS'comp_time'
p88
F6.713558912277222
sS'exec_cq'
p89
I6
sS'total_cq'
p90
I6
sa(dp91
g86
I1
sg87
F0.008022069931030273
sg88
F0.05929708480834961
sg89
I2
sg90
I2
sasS'total_cqs'
p92
I6
ssI10
(dp93
S'iters'
p94
I0
sS'meta'
p95
(lp96
sS'total_cqs'
p97
I1
ssI11
(dp98
S'iters'
p99
I0
sS'meta'
p100
(lp101
sS'total_cqs'
p102
I1
ssI12
(dp103
S'iters'
p104
I0
sS'meta'
p105
(lp106
sS'total_cqs'
p107
I1
ssI13
(dp108
S'iters'
p109
I1
sS'meta'
p110
(lp111
(dp112
S'objective'
p113
I22
sS'query_time'
p114
F0.019050121307373047
sS'comp_time'
p115
F0.00019621849060058594
sS'exec_cq'
p116
I8
sS'total_cq'
p117
I8
sasS'total_cqs'
p118
I8
ssI14
(dp119
S'iters'
p120
I1
sS'meta'
p121
(lp122
(dp123
S'objective'
p124
I5
sS'query_time'
p125
F39.515586853027344
sS'comp_time'
p126
F0.11527180671691895
sS'exec_cq'
p127
I5
sS'total_cq'
p128
I5
sasS'total_cqs'
p129
I5
ssI16
(dp130
S'iters'
p131
I2
sS'meta'
p132
(lp133
(dp134
S'objective'
p135
I3
sS'query_time'
p136
F41.48192882537842
sS'comp_time'
p137
F20.008665084838867
sS'exec_cq'
p138
I5
sS'total_cq'
p139
I5
sa(dp140
g135
I1
sg136
F0.000225067138671875
sg137
F0.006299734115600586
sg138
I2
sg139
I2
sasS'total_cqs'
p141
I5
ssI17
(dp142
S'iters'
p143
I0
sS'meta'
p144
(lp145
sS'total_cqs'
p146
I1
ssI18
(dp147
S'iters'
p148
I2
sS'meta'
p149
(lp150
(dp151
S'objective'
p152
I1
sS'query_time'
p153
F12.877387046813965
sS'comp_time'
p154
F0.0008149147033691406
sS'exec_cq'
p155
I5
sS'total_cq'
p156
I5
sa(dp157
g152
I2
sg153
F7.390975952148438e-05
sg154
F0.0003898143768310547
sg155
I2
sg156
I2
sasS'total_cqs'
p158
I5
ssI19
(dp159
S'iters'
p160
I0
sS'meta'
p161
(lp162
sS'total_cqs'
p163
I1
ssI20
(dp164
S'iters'
p165
I4
sS'meta'
p166
(lp167
(dp168
S'objective'
p169
I46
sS'query_time'
p170
F52.706546783447266
sS'comp_time'
p171
F0.6895918846130371
sS'exec_cq'
p172
I12
sS'total_cq'
p173
I12
sa(dp174
g169
I34
sg170
F0.1264190673828125
sg171
F0.9062750339508057
sg172
I10
sg173
I10
sa(dp175
g169
I26
sg170
F0.09067201614379883
sg171
F0.4522080421447754
sg172
I8
sg173
I8
sa(dp176
g169
I17
sg170
F0.07608699798583984
sg171
F0.35426807403564453
sg172
I6
sg173
I6
sasS'total_cqs'
p177
I12
ssI21
(dp178
S'iters'
p179
I5
sS'meta'
p180
(lp181
(dp182
S'objective'
p183
I33
sS'query_time'
p184
F148.00756001472473
sS'comp_time'
p185
F14.29531216621399
sS'exec_cq'
p186
I14
sS'total_cq'
p187
I14
sa(dp188
g183
I33
sg184
F2.0040080547332764
sg185
F11.45766305923462
sg186
I10
sg187
I10
sa(dp189
g183
I13
sg184
F0.013994932174682617
sg185
F0.11944890022277832
sg186
I6
sg187
I6
sa(dp190
g183
I6
sg184
F0.005652904510498047
sg185
F0.04469799995422363
sg186
I4
sg187
I4
sa(dp191
g183
I11
sg184
F0.003805875778198242
sg185
F0.03308439254760742
sg186
I2
sg187
I2
sasS'total_cqs'
p192
I14
ssI22
(dp193
S'iters'
p194
I1
sS'meta'
p195
(lp196
(dp197
S'objective'
p198
I1
sS'query_time'
p199
F0.003908872604370117
sS'comp_time'
p200
F0.0002090930938720703
sS'exec_cq'
p201
I2
sS'total_cq'
p202
I2
sasS'total_cqs'
p203
I2
ssI23
(dp204
S'iters'
p205
I0
sS'meta'
p206
(lp207
sS'total_cqs'
p208
I1
ssI24
(dp209
S'iters'
p210
I0
sS'meta'
p211
(lp212
sS'total_cqs'
p213
I1
ssI25
(dp214
S'iters'
p215
I1
sS'meta'
p216
(lp217
(dp218
S'objective'
p219
I14
sS'query_time'
p220
F102.49594402313232
sS'comp_time'
p221
F5.7033371925354
sS'exec_cq'
p222
I7
sS'total_cq'
p223
I7
sasS'total_cqs'
p224
I7
ssI26
(dp225
S'iters'
p226
I3
sS'meta'
p227
(lp228
(dp229
S'objective'
p230
I57
sS'query_time'
p231
F34.472748041152954
sS'comp_time'
p232
F0.055776119232177734
sS'exec_cq'
p233
I13
sS'total_cq'
p234
I13
sa(dp235
g230
I46
sg231
F0.0039288997650146484
sg232
F0.09305214881896973
sg233
I11
sg234
I11
sa(dp236
g230
I38
sg231
F0.0013768672943115234
sg232
F0.01409912109375
sg233
I9
sg234
I9
sasS'total_cqs'
p237
I13
ssI27
(dp238
S'iters'
p239
I1
sS'meta'
p240
(lp241
(dp242
S'objective'
p243
I1
sS'query_time'
p244
F15.521047115325928
sS'comp_time'
p245
F0.0063018798828125
sS'exec_cq'
p246
I2
sS'total_cq'
p247
I2
sasS'total_cqs'
p248
I2
ssI28
(dp249
S'iters'
p250
I4
sS'meta'
p251
(lp252
(dp253
S'objective'
p254
I57
sS'query_time'
p255
F42.158326148986816
sS'comp_time'
p256
F0.16260600090026855
sS'exec_cq'
p257
I14
sS'total_cq'
p258
I14
sa(dp259
g254
I43
sg255
F0.00033593177795410156
sg256
F0.1510779857635498
sg257
I11
sg258
I11
sa(dp260
g254
I8
sg255
F0.00015616416931152344
sg256
F17.831573009490967
sg257
I9
sg258
I9
sa(dp261
g254
I3
sg255
F9.393692016601562e-05
sg256
F0.0008890628814697266
sg257
I4
sg258
I4
sasS'total_cqs'
p262
I14
ssI29
(dp263
S'iters'
p264
I1
sS'meta'
p265
(lp266
(dp267
S'objective'
p268
I1
sS'query_time'
p269
F0.011687040328979492
sS'comp_time'
p270
F0.00013113021850585938
sS'exec_cq'
p271
I2
sS'total_cq'
p272
I2
sasS'total_cqs'
p273
I2
ssI30
(dp274
S'iters'
p275
I1
sS'meta'
p276
(lp277
(dp278
S'objective'
p279
I1
sS'query_time'
p280
F20.02017903327942
sS'comp_time'
p281
F0.00417017936706543
sS'exec_cq'
p282
I2
sS'total_cq'
p283
I2
sasS'total_cqs'
p284
I2
ssI31
(dp285
S'iters'
p286
I3
sS'meta'
p287
(lp288
(dp289
S'objective'
p290
I17
sS'query_time'
p291
F52.076797008514404
sS'comp_time'
p292
F0.2305431365966797
sS'exec_cq'
p293
I9
sS'total_cq'
p294
I9
sa(dp295
g290
I7
sg291
F0.022825002670288086
sg292
F0.2949059009552002
sg293
I7
sg294
I7
sa(dp296
g290
I4
sg291
F0.0026149749755859375
sg292
F0.024225950241088867
sg293
I2
sg294
I2
sasS'total_cqs'
p297
I9
ssI32
(dp298
S'iters'
p299
I1
sS'meta'
p300
(lp301
(dp302
S'objective'
p303
I14
sS'query_time'
p304
F64.21473288536072
sS'comp_time'
p305
F2.347259759902954
sS'exec_cq'
p306
I7
sS'total_cq'
p307
I7
sasS'total_cqs'
p308
I7
ssI33
(dp309
S'iters'
p310
I1
sS'meta'
p311
(lp312
(dp313
S'objective'
p314
I1
sS'query_time'
p315
F7.611614942550659
sS'comp_time'
p316
F0.00023674964904785156
sS'exec_cq'
p317
I2
sS'total_cq'
p318
I2
sasS'total_cqs'
p319
I2
ssI34
(dp320
S'iters'
p321
I0
sS'meta'
p322
(lp323
sS'total_cqs'
p324
I1
ssI35
(dp325
S'iters'
p326
I2
sS'meta'
p327
(lp328
(dp329
S'objective'
p330
I1
sS'query_time'
p331
F52.26100707054138
sS'comp_time'
p332
F0.4388427734375
sS'exec_cq'
p333
I5
sS'total_cq'
p334
I5
sa(dp335
g330
I2
sg331
F0.011831998825073242
sg332
F4.0775980949401855
sg333
I3
sg334
I3
sasS'total_cqs'
p336
I5
ssI37
(dp337
S'iters'
p338
I3
sS'meta'
p339
(lp340
(dp341
S'objective'
p342
I15
sS'query_time'
p343
F37.02994704246521
sS'comp_time'
p344
F0.15459275245666504
sS'exec_cq'
p345
I10
sS'total_cq'
p346
I10
sa(dp347
g342
I0
sg343
F0.0082550048828125
sg344
F0.08196163177490234
sg345
I3
sg346
I3
sa(dp348
g342
I8
sg343
F0.0059909820556640625
sg344
F0.0475618839263916
sg345
I2
sg346
I2
sasS'total_cqs'
p349
I10
ssI38
(dp350
S'iters'
p351
I0
sS'meta'
p352
(lp353
sS'total_cqs'
p354
I1
ssI39
(dp355
S'iters'
p356
I0
sS'meta'
p357
(lp358
sS'total_cqs'
p359
I1
ssI40
(dp360
S'iters'
p361
I1
sS'meta'
p362
(lp363
(dp364
S'objective'
p365
I1
sS'query_time'
p366
F20.075385093688965
sS'comp_time'
p367
F0.01784539222717285
sS'exec_cq'
p368
I2
sS'total_cq'
p369
I2
sasS'total_cqs'
p370
I2
ssI41
(dp371
S'iters'
p372
I2
sS'meta'
p373
(lp374
(dp375
S'objective'
p376
I1
sS'query_time'
p377
F52.177284955978394
sS'comp_time'
p378
F18.596351146697998
sS'exec_cq'
p379
I6
sS'total_cq'
p380
I6
sa(dp381
g376
I2
sg377
F0.0010218620300292969
sg378
F2.83369517326355
sg379
I3
sg380
I3
sasS'total_cqs'
p382
I6
ssI42
(dp383
S'iters'
p384
I1
sS'meta'
p385
(lp386
(dp387
S'objective'
p388
I1
sS'query_time'
p389
F24.270874977111816
sS'comp_time'
p390
F0.11849713325500488
sS'exec_cq'
p391
I2
sS'total_cq'
p392
I2
sasS'total_cqs'
p393
I2
ssI43
(dp394
S'iters'
p395
I0
sS'meta'
p396
(lp397
sS'total_cqs'
p398
I1
ssI44
(dp399
S'iters'
p400
I2
sS'meta'
p401
(lp402
(dp403
S'objective'
p404
I5
sS'query_time'
p405
F6.101960897445679
sS'comp_time'
p406
F0.13039827346801758
sS'exec_cq'
p407
I5
sS'total_cq'
p408
I5
sa(dp409
g404
I0
sg405
F0.03404402732849121
sg406
F0.1067349910736084
sg407
I3
sg408
I3
sasS'total_cqs'
p410
I5
ssI45
(dp411
S'iters'
p412
I2
sS'meta'
p413
(lp414
(dp415
S'objective'
p416
I3
sS'query_time'
p417
F1.4525690078735352
sS'comp_time'
p418
F0.0010128021240234375
sS'exec_cq'
p419
I5
sS'total_cq'
p420
I5
sa(dp421
g416
I1
sg417
F0.00011897087097167969
sg418
F0.000640869140625
sg419
I2
sg420
I2
sasS'total_cqs'
p422
I5
ssI46
(dp423
S'iters'
p424
I0
sS'meta'
p425
(lp426
sS'total_cqs'
p427
I1
ssI47
(dp428
S'iters'
p429
I0
sS'meta'
p430
(lp431
sS'total_cqs'
p432
I1
ssI48
(dp433
S'iters'
p434
I1
sS'meta'
p435
(lp436
(dp437
S'objective'
p438
I1
sS'query_time'
p439
F15.568238019943237
sS'comp_time'
p440
F0.007437944412231445
sS'exec_cq'
p441
I2
sS'total_cq'
p442
I2
sasS'total_cqs'
p443
I2
ssI49
(dp444
S'iters'
p445
I2
sS'meta'
p446
(lp447
(dp448
S'objective'
p449
I1
sS'query_time'
p450
F6.847124814987183
sS'comp_time'
p451
F0.004144191741943359
sS'exec_cq'
p452
I5
sS'total_cq'
p453
I5
sa(dp454
g449
I2
sg450
F0.00029087066650390625
sg451
F0.002232074737548828
sg452
I2
sg453
I2
sasS'total_cqs'
p455
I5
ssI50
(dp456
S'iters'
p457
I1
sS'meta'
p458
(lp459
(dp460
S'objective'
p461
I5
sS'query_time'
p462
F39.44652795791626
sS'comp_time'
p463
F0.14694881439208984
sS'exec_cq'
p464
I5
sS'total_cq'
p465
I5
sasS'total_cqs'
p466
I5
ssI51
(dp467
S'iters'
p468
I0
sS'meta'
p469
(lp470
sS'total_cqs'
p471
I1
ssI52
(dp472
S'iters'
p473
I0
sS'meta'
p474
(lp475
sS'total_cqs'
p476
I1
ssI53
(dp477
S'iters'
p478
I0
sS'meta'
p479
(lp480
sS'total_cqs'
p481
I1
ssI55
(dp482
S'iters'
p483
I1
sS'meta'
p484
(lp485
(dp486
S'objective'
p487
I1
sS'query_time'
p488
F40.110573053359985
sS'comp_time'
p489
F20.090147733688354
sS'exec_cq'
p490
I2
sS'total_cq'
p491
I2
sasS'total_cqs'
p492
I2
ssI56
(dp493
S'iters'
p494
I0
sS'meta'
p495
(lp496
sS'total_cqs'
p497
I1
ssI57
(dp498
S'iters'
p499
I1
sS'meta'
p500
(lp501
(dp502
S'objective'
p503
I2
sS'query_time'
p504
F38.48084497451782
sS'comp_time'
p505
F0.2707791328430176
sS'exec_cq'
p506
I3
sS'total_cq'
p507
I3
sasS'total_cqs'
p508
I3
ssI108
(dp509
S'iters'
p510
I0
sS'meta'
p511
(lp512
sS'total_cqs'
p513
I1
ssI109
(dp514
S'iters'
p515
I0
sS'meta'
p516
(lp517
sS'total_cqs'
p518
I1
ssI116
(dp519
S'iters'
p520
I3
sS'meta'
p521
(lp522
(dp523
S'objective'
p524
I163
sS'query_time'
p525
F41.128254890441895
sS'comp_time'
p526
F0.4191548824310303
sS'exec_cq'
p527
I21
sS'total_cq'
p528
I21
sa(dp529
g524
I159
sg525
F0.008067846298217773
sg526
F20.10588502883911
sg527
I19
sg528
I19
sa(dp530
g524
I15
sg525
F0.0005459785461425781
sg526
F0.004091978073120117
sg527
I2
sg528
I2
sasS'total_cqs'
p531
I21
ssI117
(dp532
S'iters'
p533
I1
sS'meta'
p534
(lp535
(dp536
S'objective'
p537
I5
sS'query_time'
p538
F0.8895177841186523
sS'comp_time'
p539
F0.0002040863037109375
sS'exec_cq'
p540
I5
sS'total_cq'
p541
I5
sasS'total_cqs'
p542
I5
ssI118
(dp543
S'iters'
p544
I0
sS'meta'
p545
(lp546
sS'total_cqs'
p547
I1
ssI122
(dp548
S'iters'
p549
I0
sS'meta'
p550
(lp551
sS'total_cqs'
p552
I1
ss.