(dp0
I1
(dp1
S'iters'
p2
I3
sS'meta'
p3
(lp4
(dp5
S'objective'
p6
I5
sS'query_time'
p7
F2.469965934753418
sS'comp_time'
p8
F7.295608520507812e-05
sS'exec_cq'
p9
I1
sS'total_cq'
p10
I6
sa(dp11
g6
I5
sg7
F31.1216139793396
sg8
F0.0006277561187744141
sg9
I2
sg10
I4
sa(dp12
g6
I3
sg7
F0.48658204078674316
sg8
F5.888938903808594e-05
sg9
I2
sg10
I3
sasS'total_cqs'
p13
I6
ssI2
(dp14
S'iters'
p15
I1
sS'meta'
p16
(lp17
(dp18
S'objective'
p19
I15
sS'query_time'
p20
F0.6978638172149658
sS'comp_time'
p21
F7.295608520507812e-05
sS'exec_cq'
p22
I4
sS'total_cq'
p23
I6
sasS'total_cqs'
p24
I6
ssI3
(dp25
S'iters'
p26
I14
sS'meta'
p27
(lp28
(dp29
S'objective'
p30
I419
sS'query_time'
p31
F0.026951074600219727
sS'comp_time'
p32
F0.00012612342834472656
sS'exec_cq'
p33
I1
sS'total_cq'
p34
I33
sa(dp35
g30
I426
sg31
F0.00521397590637207
sg32
F8.106231689453125e-05
sg33
I1
sg34
I30
sa(dp36
g30
I342
sg31
F0.029085159301757812
sg32
F0.00013208389282226562
sg33
I1
sg34
I29
sa(dp37
g30
I308
sg31
F0.016305923461914062
sg32
F8.606910705566406e-05
sg33
I1
sg34
I27
sa(dp38
g30
I296
sg31
F0.006891012191772461
sg32
F7.104873657226562e-05
sg33
I1
sg34
I25
sa(dp39
g30
I269
sg31
F0.5623729228973389
sg32
F9.608268737792969e-05
sg33
I1
sg34
I24
sa(dp40
g30
I223
sg31
F0.014512777328491211
sg32
F7.915496826171875e-05
sg33
I1
sg34
I23
sa(dp41
g30
I210
sg31
F0.015311956405639648
sg32
F7.510185241699219e-05
sg33
I1
sg34
I21
sa(dp42
g30
I131
sg31
F0.7783410549163818
sg32
F9.918212890625e-05
sg33
I1
sg34
I20
sa(dp43
g30
I137
sg31
F0.0021669864654541016
sg32
F5.1975250244140625e-05
sg33
I1
sg34
I17
sa(dp44
g30
I106
sg31
F0.06100010871887207
sg32
F8.606910705566406e-05
sg33
I1
sg34
I16
sa(dp45
g30
I73
sg31
F20.02525496482849
sg32
F0.00010204315185546875
sg33
I3
sg34
I14
sa(dp46
g30
I75
sg31
F0.04043889045715332
sg32
F7.796287536621094e-05
sg33
I3
sg34
I12
sa(dp47
g30
I69
sg31
F0.16996502876281738
sg32
F6.914138793945312e-05
sg33
I3
sg34
I11
sasS'total_cqs'
p48
I33
ssI6
(dp49
S'iters'
p50
I3
sS'meta'
p51
(lp52
(dp53
S'objective'
p54
I1
sS'query_time'
p55
F3.6474449634552
sS'comp_time'
p56
F0.00014925003051757812
sS'exec_cq'
p57
I1
sS'total_cq'
p58
I5
sa(dp59
g54
I0
sg55
F6.682839870452881
sg56
F7.319450378417969e-05
sg57
I1
sg58
I3
sa(dp60
g54
I2
sg55
F0.0102691650390625
sg56
F5.412101745605469e-05
sg57
I1
sg58
I2
sasS'total_cqs'
p61
I5
ssI8
(dp62
S'iters'
p63
I4
sS'meta'
p64
(lp65
(dp66
S'objective'
p67
I19
sS'query_time'
p68
F42.05013298988342
sS'comp_time'
p69
F0.0002219676971435547
sS'exec_cq'
p70
I3
sS'total_cq'
p71
I6
sa(dp72
g67
I8
sg68
F41.57224702835083
sg69
F8.320808410644531e-05
sg70
I2
sg71
I5
sa(dp73
g67
I0
sg68
F0.14975786209106445
sg69
F0.0001380443572998047
sg70
I1
sg71
I4
sa(dp74
g67
I1
sg68
F0.0031540393829345703
sg69
F8.988380432128906e-05
sg70
I2
sg71
I2
sasS'total_cqs'
p75
I6
ssI9
(dp76
S'iters'
p77
I3
sS'meta'
p78
(lp79
(dp80
S'objective'
p81
I11
sS'query_time'
p82
F38.97009491920471
sS'comp_time'
p83
F0.00031113624572753906
sS'exec_cq'
p84
I2
sS'total_cq'
p85
I6
sa(dp86
g81
I6
sg82
F0.7915611267089844
sg83
F8.106231689453125e-05
sg84
I2
sg85
I5
sa(dp87
g81
I5
sg82
F0.6204328536987305
sg83
F0.0001399517059326172
sg84
I2
sg85
I3
sasS'total_cqs'
p88
I6
ssI13
(dp89
S'iters'
p90
I2
sS'meta'
p91
(lp92
(dp93
S'objective'
p94
I24
sS'query_time'
p95
F10.54993200302124
sS'comp_time'
p96
F0.0001049041748046875
sS'exec_cq'
p97
I3
sS'total_cq'
p98
I8
sa(dp99
g94
I24
sg95
F0.003690004348754883
sg96
F5.698204040527344e-05
sg97
I5
sg98
I7
sasS'total_cqs'
p100
I8
ssI14
(dp101
S'iters'
p102
I1
sS'meta'
p103
(lp104
(dp105
S'objective'
p106
I9
sS'query_time'
p107
F1.066359043121338
sS'comp_time'
p108
F8.296966552734375e-05
sS'exec_cq'
p109
I3
sS'total_cq'
p110
I5
sasS'total_cqs'
p111
I5
ssI16
(dp112
S'iters'
p113
I3
sS'meta'
p114
(lp115
(dp116
S'objective'
p117
I7
sS'query_time'
p118
F8.974425792694092
sS'comp_time'
p119
F0.0001010894775390625
sS'exec_cq'
p120
I2
sS'total_cq'
p121
I5
sa(dp122
g117
I1
sg118
F5.41675591468811
sg119
F0.00013399124145507812
sg120
I2
sg121
I4
sa(dp123
g117
I1
sg118
F90.48954391479492
sg119
F7.390975952148438e-05
sg120
I2
sg121
I2
sasS'total_cqs'
p124
I5
ssI18
(dp125
S'iters'
p126
I3
sS'meta'
p127
(lp128
(dp129
S'objective'
p130
I3
sS'query_time'
p131
F2.6571969985961914
sS'comp_time'
p132
F0.00010514259338378906
sS'exec_cq'
p133
I1
sS'total_cq'
p134
I5
sa(dp135
g130
I1
sg131
F0.0776820182800293
sg132
F8.797645568847656e-05
sg133
I1
sg134
I3
sa(dp136
g130
I1
sg131
F0.33307313919067383
sg132
F0.00010800361633300781
sg133
I2
sg134
I2
sasS'total_cqs'
p137
I5
ssI20
(dp138
S'iters'
p139
I6
sS'meta'
p140
(lp141
(dp142
S'objective'
p143
I54
sS'query_time'
p144
F9.725949048995972
sS'comp_time'
p145
F0.00019788742065429688
sS'exec_cq'
p146
I1
sS'total_cq'
p147
I12
sa(dp148
g143
I28
sg144
F4.593667984008789
sg145
F0.00013709068298339844
sg146
I2
sg147
I11
sa(dp149
g143
I31
sg144
F4.536529064178467
sg145
F7.390975952148438e-05
sg146
I2
sg147
I9
sa(dp150
g143
I25
sg144
F0.8531780242919922
sg145
F6.985664367675781e-05
sg146
I2
sg147
I8
sa(dp151
g143
I20
sg144
F0.9707908630371094
sg145
F6.818771362304688e-05
sg146
I2
sg147
I7
sa(dp152
g143
I18
sg144
F0.09667301177978516
sg145
F6.794929504394531e-05
sg146
I3
sg147
I6
sasS'total_cqs'
p153
I12
ssI21
(dp154
S'iters'
p155
I5
sS'meta'
p156
(lp157
(dp158
S'objective'
p159
I49
sS'query_time'
p160
F3.8987319469451904
sS'comp_time'
p161
F0.0001010894775390625
sS'exec_cq'
p162
I1
sS'total_cq'
p163
I14
sa(dp164
g159
I51
sg160
F0.32563304901123047
sg161
F9.012222290039062e-05
sg162
I1
sg163
I10
sa(dp165
g159
I14
sg160
F0.11436700820922852
sg161
F7.796287536621094e-05
sg162
I1
sg163
I9
sa(dp166
g159
I7
sg160
F20.103405952453613
sg161
F8.0108642578125e-05
sg162
I2
sg163
I5
sa(dp167
g159
I13
sg160
F0.4421548843383789
sg161
F7.271766662597656e-05
sg162
I2
sg163
I3
sasS'total_cqs'
p168
I14
ssI22
(dp169
S'iters'
p170
I1
sS'meta'
p171
(lp172
(dp173
S'objective'
p174
I1
sS'query_time'
p175
F0.004004955291748047
sS'comp_time'
p176
F5.984306335449219e-05
sS'exec_cq'
p177
I1
sS'total_cq'
p178
I2
sasS'total_cqs'
p179
I2
ssI25
(dp180
S'iters'
p181
I3
sS'meta'
p182
(lp183
(dp184
S'objective'
p185
I14
sS'query_time'
p186
F10.780688047409058
sS'comp_time'
p187
F0.00012969970703125
sS'exec_cq'
p188
I1
sS'total_cq'
p189
I7
sa(dp190
g185
I11
sg186
F26.512238025665283
sg187
F0.0003418922424316406
sg188
I2
sg189
I6
sa(dp191
g185
I10
sg186
F0.1680741310119629
sg187
F0.0002262592315673828
sg188
I2
sg189
I5
sasS'total_cqs'
p192
I7
ssI26
(dp193
S'iters'
p194
I8
sS'meta'
p195
(lp196
(dp197
S'objective'
p198
I65
sS'query_time'
p199
F21.010504007339478
sS'comp_time'
p200
F0.00010395050048828125
sS'exec_cq'
p201
I1
sS'total_cq'
p202
I13
sa(dp203
g198
I54
sg199
F0.05912303924560547
sg200
F5.698204040527344e-05
sg201
I1
sg202
I12
sa(dp204
g198
I26
sg199
F1.2406749725341797
sg200
F0.0001418590545654297
sg201
I1
sg202
I11
sa(dp205
g198
I26
sg199
F0.02764105796813965
sg200
F6.699562072753906e-05
sg201
I1
sg202
I9
sa(dp206
g198
I20
sg199
F0.03336691856384277
sg200
F5.602836608886719e-05
sg201
I1
sg202
I8
sa(dp207
g198
I14
sg199
F0.028846025466918945
sg200
F4.482269287109375e-05
sg201
I1
sg202
I7
sa(dp208
g198
I3
sg199
F0.707719087600708
sg200
F0.0001289844512939453
sg201
I1
sg202
I6
sa(dp209
g198
I2
sg199
F0.004842042922973633
sg200
F8.20159912109375e-05
sg201
I1
sg202
I4
sasS'total_cqs'
p210
I13
ssI27
(dp211
S'iters'
p212
I1
sS'meta'
p213
(lp214
(dp215
S'objective'
p216
I1
sS'query_time'
p217
F0.36609482765197754
sS'comp_time'
p218
F0.00010085105895996094
sS'exec_cq'
p219
I1
sS'total_cq'
p220
I2
sasS'total_cqs'
p221
I2
ssI28
(dp222
S'iters'
p223
I8
sS'meta'
p224
(lp225
(dp226
S'objective'
p227
I77
sS'query_time'
p228
F1.7034339904785156
sS'comp_time'
p229
F8.392333984375e-05
sS'exec_cq'
p230
I1
sS'total_cq'
p231
I14
sa(dp232
g227
I65
sg228
F1.4297521114349365
sg229
F9.608268737792969e-05
sg230
I1
sg231
I13
sa(dp233
g227
I22
sg228
F1.358367919921875
sg229
F8.511543273925781e-05
sg230
I1
sg231
I12
sa(dp234
g227
I28
sg228
F0.7758669853210449
sg229
F8.296966552734375e-05
sg230
I1
sg231
I8
sa(dp235
g227
I19
sg228
F0.5099821090698242
sg229
F9.393692016601562e-05
sg230
I1
sg231
I7
sa(dp236
g227
I13
sg228
F0.3619060516357422
sg229
F0.00010895729064941406
sg230
I1
sg231
I6
sa(dp237
g227
I7
sg228
F0.37702178955078125
sg229
F9.584426879882812e-05
sg230
I1
sg231
I5
sa(dp238
g227
I4
sg228
F0.25516581535339355
sg229
F0.00011491775512695312
sg230
I1
sg231
I4
sasS'total_cqs'
p239
I14
ssI29
(dp240
S'iters'
p241
I1
sS'meta'
p242
(lp243
(dp244
S'objective'
p245
I1
sS'query_time'
p246
F0.004734992980957031
sS'comp_time'
p247
F7.009506225585938e-05
sS'exec_cq'
p248
I1
sS'total_cq'
p249
I2
sasS'total_cqs'
p250
I2
ssI30
(dp251
S'iters'
p252
I1
sS'meta'
p253
(lp254
(dp255
S'objective'
p256
I1
sS'query_time'
p257
F0.4003291130065918
sS'comp_time'
p258
F7.510185241699219e-05
sS'exec_cq'
p259
I1
sS'total_cq'
p260
I2
sasS'total_cqs'
p261
I2
ssI31
(dp262
S'iters'
p263
I5
sS'meta'
p264
(lp265
(dp266
S'objective'
p267
I15
sS'query_time'
p268
F1.38600492477417
sS'comp_time'
p269
F0.00010704994201660156
sS'exec_cq'
p270
I1
sS'total_cq'
p271
I9
sa(dp272
g267
I14
sg268
F0.005484819412231445
sg269
F4.887580871582031e-05
sg270
I1
sg271
I7
sa(dp273
g267
I8
sg268
F10.21487307548523
sg269
F8.416175842285156e-05
sg270
I1
sg271
I6
sa(dp274
g267
I5
sg268
F0.0034618377685546875
sg269
F4.410743713378906e-05
sg270
I1
sg271
I5
sa(dp275
g267
I2
sg268
F0.27200794219970703
sg269
F7.081031799316406e-05
sg270
I1
sg271
I4
sasS'total_cqs'
p276
I9
ssI32
(dp277
S'iters'
p278
I4
sS'meta'
p279
(lp280
(dp281
S'objective'
p282
I4
sS'query_time'
p283
F2.171158790588379
sS'comp_time'
p284
F9.298324584960938e-05
sS'exec_cq'
p285
I1
sS'total_cq'
p286
I7
sa(dp287
g282
I4
sg283
F2.1179380416870117
sg284
F0.0002219676971435547
sg285
I1
sg286
I5
sa(dp288
g282
I2
sg283
F1.796187162399292
sg284
F7.605552673339844e-05
sg285
I1
sg286
I4
sa(dp289
g282
I0
sg283
F0.13272595405578613
sg284
F0.000102996826171875
sg285
I1
sg286
I3
sasS'total_cqs'
p290
I7
ssI33
(dp291
S'iters'
p292
I1
sS'meta'
p293
(lp294
(dp295
S'objective'
p296
I1
sS'query_time'
p297
F0.02680206298828125
sS'comp_time'
p298
F7.915496826171875e-05
sS'exec_cq'
p299
I1
sS'total_cq'
p300
I2
sasS'total_cqs'
p301
I2
ssI35
(dp302
S'iters'
p303
I3
sS'meta'
p304
(lp305
(dp306
S'objective'
p307
I1
sS'query_time'
p308
F11.618723154067993
sS'comp_time'
p309
F0.00011301040649414062
sS'exec_cq'
p310
I1
sS'total_cq'
p311
I5
sa(dp312
g307
I0
sg308
F2.1084280014038086
sg309
F0.0002789497375488281
sg310
I1
sg311
I3
sa(dp313
g307
I2
sg308
F0.05022001266479492
sg309
F5.793571472167969e-05
sg310
I1
sg311
I2
sasS'total_cqs'
p314
I5
ssI37
(dp315
S'iters'
p316
I6
sS'meta'
p317
(lp318
(dp319
S'objective'
p320
I35
sS'query_time'
p321
F0.009842157363891602
sS'comp_time'
p322
F7.605552673339844e-05
sS'exec_cq'
p323
I1
sS'total_cq'
p324
I10
sa(dp325
g320
I27
sg321
F0.7592368125915527
sg322
F8.702278137207031e-05
sg323
I1
sg324
I9
sa(dp326
g320
I22
sg321
F0.3332688808441162
sg322
F7.796287536621094e-05
sg323
I2
sg324
I8
sa(dp327
g320
I17
sg321
F0.005001068115234375
sg322
F5.2928924560546875e-05
sg323
I2
sg324
I7
sa(dp328
g320
I13
sg321
F0.003840923309326172
sg322
F5.1975250244140625e-05
sg323
I2
sg324
I6
sa(dp329
g320
I10
sg321
F0.28652405738830566
sg322
F6.985664367675781e-05
sg323
I2
sg324
I5
sasS'total_cqs'
p330
I10
ssI40
(dp331
S'iters'
p332
I1
sS'meta'
p333
(lp334
(dp335
S'objective'
p336
I1
sS'query_time'
p337
F17.670480966567993
sS'comp_time'
p338
F0.0003542900085449219
sS'exec_cq'
p339
I2
sS'total_cq'
p340
I2
sasS'total_cqs'
p341
I2
ssI41
(dp342
S'iters'
p343
I4
sS'meta'
p344
(lp345
(dp346
S'objective'
p347
I9
sS'query_time'
p348
F1.6665611267089844
sS'comp_time'
p349
F8.392333984375e-05
sS'exec_cq'
p350
I1
sS'total_cq'
p351
I6
sa(dp352
g347
I5
sg348
F2.0259499549865723
sg349
F0.0006668567657470703
sg350
I1
sg351
I5
sa(dp353
g347
I2
sg348
F0.2340550422668457
sg349
F6.508827209472656e-05
sg350
I1
sg351
I4
sa(dp354
g347
I0
sg348
F0.08825397491455078
sg349
F6.508827209472656e-05
sg350
I1
sg351
I3
sasS'total_cqs'
p355
I6
ssI42
(dp356
S'iters'
p357
I1
sS'meta'
p358
(lp359
(dp360
S'objective'
p361
I1
sS'query_time'
p362
F0.00995492935180664
sS'comp_time'
p363
F7.104873657226562e-05
sS'exec_cq'
p364
I1
sS'total_cq'
p365
I2
sasS'total_cqs'
p366
I2
ssI44
(dp367
S'iters'
p368
I3
sS'meta'
p369
(lp370
(dp371
S'objective'
p372
I5
sS'query_time'
p373
F1.1754419803619385
sS'comp_time'
p374
F6.4849853515625e-05
sS'exec_cq'
p375
I1
sS'total_cq'
p376
I5
sa(dp377
g372
I0
sg373
F0.8922278881072998
sg374
F0.00011181831359863281
sg375
I1
sg376
I4
sa(dp378
g372
I1
sg373
F0.0035359859466552734
sg374
F5.2928924560546875e-05
sg375
I1
sg376
I2
sasS'total_cqs'
p379
I5
ssI45
(dp380
S'iters'
p381
I2
sS'meta'
p382
(lp383
(dp384
S'objective'
p385
I5
sS'query_time'
p386
F5.58159613609314
sS'comp_time'
p387
F0.0001399517059326172
sS'exec_cq'
p388
I1
sS'total_cq'
p389
I5
sa(dp390
g385
I4
sg386
F0.0065460205078125
sg387
F5.4836273193359375e-05
sg388
I2
sg389
I4
sasS'total_cqs'
p391
I5
ssI48
(dp392
S'iters'
p393
I1
sS'meta'
p394
(lp395
(dp396
S'objective'
p397
I1
sS'query_time'
p398
F0.11346292495727539
sS'comp_time'
p399
F7.510185241699219e-05
sS'exec_cq'
p400
I1
sS'total_cq'
p401
I2
sasS'total_cqs'
p402
I2
ssI49
(dp403
S'iters'
p404
I3
sS'meta'
p405
(lp406
(dp407
S'objective'
p408
I5
sS'query_time'
p409
F0.14121294021606445
sS'comp_time'
p410
F8.487701416015625e-05
sS'exec_cq'
p411
I1
sS'total_cq'
p412
I5
sa(dp413
g408
I2
sg409
F0.05165600776672363
sg410
F8.797645568847656e-05
sg411
I1
sg412
I4
sa(dp414
g408
I0
sg409
F0.024042844772338867
sg410
F8.988380432128906e-05
sg411
I1
sg412
I3
sasS'total_cqs'
p415
I5
ssI50
(dp416
S'iters'
p417
I3
sS'meta'
p418
(lp419
(dp420
S'objective'
p421
I5
sS'query_time'
p422
F0.006649017333984375
sS'comp_time'
p423
F7.700920104980469e-05
sS'exec_cq'
p424
I1
sS'total_cq'
p425
I5
sa(dp426
g421
I2
sg422
F0.005769014358520508
sg423
F0.00011014938354492188
sg424
I1
sg425
I4
sa(dp427
g421
I0
sg422
F0.8369009494781494
sg423
F9.393692016601562e-05
sg424
I1
sg425
I3
sasS'total_cqs'
p428
I5
ssI55
(dp429
S'iters'
p430
I1
sS'meta'
p431
(lp432
(dp433
S'objective'
p434
I1
sS'query_time'
p435
F9.283976078033447
sS'comp_time'
p436
F0.00011014938354492188
sS'exec_cq'
p437
I1
sS'total_cq'
p438
I2
sasS'total_cqs'
p439
I2
ssI57
(dp440
S'iters'
p441
I2
sS'meta'
p442
(lp443
(dp444
S'objective'
p445
I0
sS'query_time'
p446
F2.3499341011047363
sS'comp_time'
p447
F0.0001697540283203125
sS'exec_cq'
p448
I1
sS'total_cq'
p449
I3
sa(dp450
g445
I1
sg446
F11.990238904953003
sg447
F0.00013589859008789062
sg448
I1
sg449
I2
sasS'total_cqs'
p451
I3
ssI116
(dp452
S'iters'
p453
I4
sS'meta'
p454
(lp455
(dp456
S'objective'
p457
I201
sS'query_time'
p458
F1.2355730533599854
sS'comp_time'
p459
F0.00010895729064941406
sS'exec_cq'
p460
I7
sS'total_cq'
p461
I21
sa(dp462
g457
I188
sg458
F3.872648000717163
sg459
F0.0001270771026611328
sg460
I10
sg461
I20
sa(dp463
g457
I186
sg458
F0.1486210823059082
sg459
F0.00010323524475097656
sg460
I12
sg461
I18
sa(dp464
g457
I180
sg458
F0.17593884468078613
sg459
F9.822845458984375e-05
sg460
I12
sg461
I17
sasS'total_cqs'
p465
I21
ssI117
(dp466
S'iters'
p467
I2
sS'meta'
p468
(lp469
(dp470
S'objective'
p471
I5
sS'query_time'
p472
F0.006413936614990234
sS'comp_time'
p473
F6.628036499023438e-05
sS'exec_cq'
p474
I1
sS'total_cq'
p475
I5
sa(dp476
g471
I4
sg472
F0.0042400360107421875
sg473
F6.198883056640625e-05
sg474
I2
sg475
I4
sasS'total_cqs'
p477
I5
ss.