(dp0
I1
(dp1
S'iters'
p2
I2
sS'meta'
p3
(lp4
(dp5
S'objective'
p6
I1
sS'query_time'
p7
F71.4937310218811
sS'comp_time'
p8
F3.3970558643341064
sS'exec_cq'
p9
I6
sS'total_cq'
p10
I6
sa(dp11
g6
I2
sg7
F0.13432693481445312
sg8
F2.564805030822754
sg9
I4
sg10
I4
sasS'total_cqs'
p12
I6
ssI2
(dp13
S'iters'
p14
I1
sS'meta'
p15
(lp16
(dp17
S'objective'
p18
I13
sS'query_time'
p19
F0.8779439926147461
sS'comp_time'
p20
F0.11742591857910156
sS'exec_cq'
p21
I6
sS'total_cq'
p22
I6
sasS'total_cqs'
p23
I6
ssI3
(dp24
S'iters'
p25
I11
sS'meta'
p26
(lp27
(dp28
S'objective'
p29
I419
sS'query_time'
p30
F28.394539833068848
sS'comp_time'
p31
F0.47904396057128906
sS'exec_cq'
p32
I33
sS'total_cq'
p33
I33
sa(dp34
g29
I354
sg30
F0.04108619689941406
sg31
F0.5254778861999512
sg32
I30
sg33
I30
sa(dp35
g29
I296
sg30
F0.09373092651367188
sg31
F0.3859090805053711
sg32
I27
sg33
I27
sa(dp36
g29
I247
sg30
F0.03560209274291992
sg31
F0.45723485946655273
sg32
I24
sg33
I24
sa(dp37
g29
I209
sg30
F0.1006019115447998
sg31
F0.40824103355407715
sg32
I21
sg33
I21
sa(dp38
g29
I168
sg30
F0.02297687530517578
sg31
F0.2588651180267334
sg32
I18
sg33
I18
sa(dp39
g29
I126
sg30
F0.020917892456054688
sg31
F0.2830631732940674
sg32
I15
sg33
I15
sa(dp40
g29
I103
sg30
F0.020646095275878906
sg31
F0.3092379570007324
sg32
I13
sg33
I13
sa(dp41
g29
I74
sg30
F0.01900005340576172
sg31
F0.2504739761352539
sg32
I12
sg33
I12
sa(dp42
g29
I63
sg30
F0.016984939575195312
sg31
F0.1887979507446289
sg32
I11
sg33
I11
sa(dp43
g29
I48
sg30
F0.016389846801757812
sg31
F0.18074679374694824
sg32
I10
sg33
I10
sasS'total_cqs'
p44
I33
ssI4
(dp45
S'iters'
p46
I0
sS'meta'
p47
(lp48
sS'total_cqs'
p49
I1
ssI5
(dp50
S'iters'
p51
I0
sS'meta'
p52
(lp53
sS'total_cqs'
p54
I1
ssI6
(dp55
S'iters'
p56
I2
sS'meta'
p57
(lp58
(dp59
S'objective'
p60
I1
sS'query_time'
p61
F15.230158805847168
sS'comp_time'
p62
F0.0048389434814453125
sS'exec_cq'
p63
I5
sS'total_cq'
p64
I5
sa(dp65
g60
I0
sg61
F0.0005249977111816406
sg62
F0.0036361217498779297
sg63
I3
sg64
I3
sasS'total_cqs'
p66
I5
ssI7
(dp67
S'iters'
p68
I0
sS'meta'
p69
(lp70
sS'total_cqs'
p71
I1
ssI8
(dp72
S'iters'
p73
I3
sS'meta'
p74
(lp75
(dp76
S'objective'
p77
I9
sS'query_time'
p78
F102.78871893882751
sS'comp_time'
p79
F0.39406514167785645
sS'exec_cq'
p80
I6
sS'total_cq'
p81
I6
sa(dp82
g77
I5
sg78
F4.887580871582031e-05
sg79
F41.41703271865845
sg80
I5
sg81
I5
sa(dp83
g77
I2
sg78
F8.20159912109375e-05
sg79
F0.11213016510009766
sg80
I4
sg81
I4
sasS'total_cqs'
p84
I6
ssI9
(dp85
S'iters'
p86
I3
sS'meta'
p87
(lp88
(dp89
S'objective'
p90
I3
sS'query_time'
p91
F51.98732113838196
sS'comp_time'
p92
F6.956291913986206
sS'exec_cq'
p93
I6
sS'total_cq'
p94
I6
sa(dp95
g90
I2
sg91
F1.0382142066955566
sg92
F5.707931995391846
sg93
I3
sg94
I3
sa(dp96
g90
I1
sg91
F0.8852279186248779
sg92
F5.062381029129028
sg93
I2
sg94
I2
sasS'total_cqs'
p97
I6
ssI10
(dp98
S'iters'
p99
I0
sS'meta'
p100
(lp101
sS'total_cqs'
p102
I1
ssI11
(dp103
S'iters'
p104
I0
sS'meta'
p105
(lp106
sS'total_cqs'
p107
I1
ssI12
(dp108
S'iters'
p109
I0
sS'meta'
p110
(lp111
sS'total_cqs'
p112
I1
ssI13
(dp113
S'iters'
p114
I1
sS'meta'
p115
(lp116
(dp117
S'objective'
p118
I26
sS'query_time'
p119
F0.017563819885253906
sS'comp_time'
p120
F0.0002071857452392578
sS'exec_cq'
p121
I8
sS'total_cq'
p122
I8
sasS'total_cqs'
p123
I8
ssI14
(dp124
S'iters'
p125
I1
sS'meta'
p126
(lp127
(dp128
S'objective'
p129
I7
sS'query_time'
p130
F1.099924087524414
sS'comp_time'
p131
F0.011223077774047852
sS'exec_cq'
p132
I5
sS'total_cq'
p133
I5
sasS'total_cqs'
p134
I5
ssI16
(dp135
S'iters'
p136
I2
sS'meta'
p137
(lp138
(dp139
S'objective'
p140
I1
sS'query_time'
p141
F1.6689860820770264
sS'comp_time'
p142
F0.010433197021484375
sS'exec_cq'
p143
I5
sS'total_cq'
p144
I5
sa(dp145
g140
I1
sg141
F0.001483917236328125
sg142
F0.01226806640625
sg143
I3
sg144
I3
sasS'total_cqs'
p146
I5
ssI17
(dp147
S'iters'
p148
I0
sS'meta'
p149
(lp150
sS'total_cqs'
p151
I1
ssI18
(dp152
S'iters'
p153
I2
sS'meta'
p154
(lp155
(dp156
S'objective'
p157
I1
sS'query_time'
p158
F0.2635018825531006
sS'comp_time'
p159
F0.0004520416259765625
sS'exec_cq'
p160
I5
sS'total_cq'
p161
I5
sa(dp162
g157
I1
sg158
F4.410743713378906e-05
sg159
F0.0001800060272216797
sg160
I3
sg161
I3
sasS'total_cqs'
p163
I5
ssI19
(dp164
S'iters'
p165
I0
sS'meta'
p166
(lp167
sS'total_cqs'
p168
I1
ssI20
(dp169
S'iters'
p170
I4
sS'meta'
p171
(lp172
(dp173
S'objective'
p174
I44
sS'query_time'
p175
F11.985306978225708
sS'comp_time'
p176
F2.2619121074676514
sS'exec_cq'
p177
I12
sS'total_cq'
p178
I12
sa(dp179
g174
I31
sg175
F0.4074549674987793
sg176
F1.7401490211486816
sg177
I10
sg178
I10
sa(dp180
g174
I20
sg175
F0.21596598625183105
sg176
F1.0963222980499268
sg177
I8
sg178
I8
sa(dp181
g174
I19
sg175
F0.20522713661193848
sg176
F0.9919610023498535
sg177
I6
sg178
I6
sasS'total_cqs'
p182
I12
ssI21
(dp183
S'iters'
p184
I4
sS'meta'
p185
(lp186
(dp187
S'objective'
p188
I41
sS'query_time'
p189
F125.13987302780151
sS'comp_time'
p190
F2.7913777828216553
sS'exec_cq'
p191
I14
sS'total_cq'
p192
I14
sa(dp193
g188
I21
sg189
F0.28795695304870605
sg190
F2.354463815689087
sg191
I10
sg192
I10
sa(dp194
g188
I19
sg189
F0.01427006721496582
sg190
F0.2573680877685547
sg191
I6
sg192
I6
sa(dp195
g188
I2
sg189
F0.0037081241607666016
sg190
F0.033177852630615234
sg191
I2
sg192
I2
sasS'total_cqs'
p196
I14
ssI22
(dp197
S'iters'
p198
I1
sS'meta'
p199
(lp200
(dp201
S'objective'
p202
I1
sS'query_time'
p203
F0.0030879974365234375
sS'comp_time'
p204
F0.00017595291137695312
sS'exec_cq'
p205
I2
sS'total_cq'
p206
I2
sasS'total_cqs'
p207
I2
ssI23
(dp208
S'iters'
p209
I0
sS'meta'
p210
(lp211
sS'total_cqs'
p212
I1
ssI24
(dp213
S'iters'
p214
I0
sS'meta'
p215
(lp216
sS'total_cqs'
p217
I1
ssI25
(dp218
S'iters'
p219
I3
sS'meta'
p220
(lp221
(dp222
S'objective'
p223
I12
sS'query_time'
p224
F78.68246412277222
sS'comp_time'
p225
F5.872776031494141
sS'exec_cq'
p226
I7
sS'total_cq'
p227
I7
sa(dp228
g223
I4
sg224
F1.0972809791564941
sg225
F7.3836517333984375
sg226
I5
sg227
I5
sa(dp229
g223
I2
sg224
F0.0013670921325683594
sg225
F0.011388063430786133
sg226
I3
sg227
I3
sasS'total_cqs'
p230
I7
ssI26
(dp231
S'iters'
p232
I5
sS'meta'
p233
(lp234
(dp235
S'objective'
p236
I49
sS'query_time'
p237
F24.999885082244873
sS'comp_time'
p238
F5.874060153961182
sS'exec_cq'
p239
I13
sS'total_cq'
p240
I13
sa(dp241
g236
I44
sg237
F0.8078620433807373
sg238
F5.222778081893921
sg239
I11
sg240
I11
sa(dp242
g236
I33
sg237
F0.8082900047302246
sg238
F4.821015119552612
sg239
I10
sg240
I10
sa(dp243
g236
I27
sg237
F0.003676176071166992
sg238
F0.0284879207611084
sg239
I9
sg240
I9
sa(dp244
g236
I20
sg237
F0.003077983856201172
sg238
F0.025799036026000977
sg239
I8
sg240
I8
sasS'total_cqs'
p245
I13
ssI27
(dp246
S'iters'
p247
I1
sS'meta'
p248
(lp249
(dp250
S'objective'
p251
I1
sS'query_time'
p252
F0.1567370891571045
sS'comp_time'
p253
F0.007475137710571289
sS'exec_cq'
p254
I2
sS'total_cq'
p255
I2
sasS'total_cqs'
p256
I2
ssI28
(dp257
S'iters'
p258
I5
sS'meta'
p259
(lp260
(dp261
S'objective'
p262
I17
sS'query_time'
p263
F1.9003729820251465
sS'comp_time'
p264
F0.041335105895996094
sS'exec_cq'
p265
I14
sS'total_cq'
p266
I14
sa(dp267
g262
I23
sg263
F0.002788066864013672
sg264
F0.04767775535583496
sg265
I10
sg266
I10
sa(dp268
g262
I18
sg263
F0.002894163131713867
sg264
F0.02341604232788086
sg265
I7
sg266
I7
sa(dp269
g262
I10
sg263
F0.0023717880249023438
sg264
F0.027927637100219727
sg265
I6
sg266
I6
sa(dp270
g262
I4
sg263
F0.0026640892028808594
sg264
F0.025199174880981445
sg265
I4
sg266
I4
sasS'total_cqs'
p271
I14
ssI29
(dp272
S'iters'
p273
I1
sS'meta'
p274
(lp275
(dp276
S'objective'
p277
I1
sS'query_time'
p278
F0.005157947540283203
sS'comp_time'
p279
F0.00018215179443359375
sS'exec_cq'
p280
I2
sS'total_cq'
p281
I2
sasS'total_cqs'
p282
I2
ssI30
(dp283
S'iters'
p284
I1
sS'meta'
p285
(lp286
(dp287
S'objective'
p288
I1
sS'query_time'
p289
F0.320451021194458
sS'comp_time'
p290
F0.0075457096099853516
sS'exec_cq'
p291
I2
sS'total_cq'
p292
I2
sasS'total_cqs'
p293
I2
ssI31
(dp294
S'iters'
p295
I3
sS'meta'
p296
(lp297
(dp298
S'objective'
p299
I21
sS'query_time'
p300
F6.600183010101318
sS'comp_time'
p301
F0.29857587814331055
sS'exec_cq'
p302
I9
sS'total_cq'
p303
I9
sa(dp304
g299
I11
sg300
F0.07559490203857422
sg301
F0.24524617195129395
sg302
I7
sg303
I7
sa(dp305
g299
I1
sg300
F0.006612062454223633
sg301
F0.04566192626953125
sg302
I3
sg303
I3
sasS'total_cqs'
p306
I9
ssI32
(dp307
S'iters'
p308
I3
sS'meta'
p309
(lp310
(dp311
S'objective'
p312
I6
sS'query_time'
p313
F19.481498956680298
sS'comp_time'
p314
F5.196418762207031
sS'exec_cq'
p315
I7
sS'total_cq'
p316
I7
sa(dp317
g312
I3
sg313
F0.12763714790344238
sg314
F1.9308199882507324
sg315
I4
sg316
I4
sa(dp318
g312
I3
sg313
F0.2577080726623535
sg314
F1.9326248168945312
sg315
I2
sg316
I2
sasS'total_cqs'
p319
I7
ssI33
(dp320
S'iters'
p321
I1
sS'meta'
p322
(lp323
(dp324
S'objective'
p325
I1
sS'query_time'
p326
F0.03948688507080078
sS'comp_time'
p327
F0.00015687942504882812
sS'exec_cq'
p328
I2
sS'total_cq'
p329
I2
sasS'total_cqs'
p330
I2
ssI34
(dp331
S'iters'
p332
I0
sS'meta'
p333
(lp334
sS'total_cqs'
p335
I1
ssI35
(dp336
S'iters'
p337
I2
sS'meta'
p338
(lp339
(dp340
S'objective'
p341
I1
sS'query_time'
p342
F16.57165002822876
sS'comp_time'
p343
F0.3761260509490967
sS'exec_cq'
p344
I5
sS'total_cq'
p345
I5
sa(dp346
g341
I0
sg342
F0.031174898147583008
sg343
F0.25193285942077637
sg344
I3
sg345
I3
sasS'total_cqs'
p347
I5
ssI37
(dp348
S'iters'
p349
I3
sS'meta'
p350
(lp351
(dp352
S'objective'
p353
I23
sS'query_time'
p354
F2.561068058013916
sS'comp_time'
p355
F0.17463397979736328
sS'exec_cq'
p356
I10
sS'total_cq'
p357
I10
sa(dp358
g353
I0
sg354
F0.007879972457885742
sg355
F0.05794668197631836
sg356
I3
sg357
I3
sa(dp359
g353
I4
sg354
F0.006819963455200195
sg355
F0.05022597312927246
sg356
I2
sg357
I2
sasS'total_cqs'
p360
I10
ssI38
(dp361
S'iters'
p362
I0
sS'meta'
p363
(lp364
sS'total_cqs'
p365
I1
ssI39
(dp366
S'iters'
p367
I0
sS'meta'
p368
(lp369
sS'total_cqs'
p370
I1
ssI40
(dp371
S'iters'
p372
I1
sS'meta'
p373
(lp374
(dp375
S'objective'
p376
I1
sS'query_time'
p377
F17.6211838722229
sS'comp_time'
p378
F4.923107147216797
sS'exec_cq'
p379
I2
sS'total_cq'
p380
I2
sasS'total_cqs'
p381
I2
ssI41
(dp382
S'iters'
p383
I2
sS'meta'
p384
(lp385
(dp386
S'objective'
p387
I3
sS'query_time'
p388
F12.533321142196655
sS'comp_time'
p389
F2.0029070377349854
sS'exec_cq'
p390
I6
sS'total_cq'
p391
I6
sa(dp392
g387
I1
sg388
F0.0018210411071777344
sg389
F0.012217044830322266
sg390
I3
sg391
I3
sasS'total_cqs'
p393
I6
ssI42
(dp394
S'iters'
p395
I1
sS'meta'
p396
(lp397
(dp398
S'objective'
p399
I1
sS'query_time'
p400
F17.59255814552307
sS'comp_time'
p401
F4.065437078475952
sS'exec_cq'
p402
I2
sS'total_cq'
p403
I2
sasS'total_cqs'
p404
I2
ssI43
(dp405
S'iters'
p406
I0
sS'meta'
p407
(lp408
sS'total_cqs'
p409
I1
ssI44
(dp410
S'iters'
p411
I3
sS'meta'
p412
(lp413
(dp414
S'objective'
p415
I5
sS'query_time'
p416
F1.538489818572998
sS'comp_time'
p417
F0.1643819808959961
sS'exec_cq'
p418
I5
sS'total_cq'
p419
I5
sa(dp420
g415
I0
sg416
F0.0009629726409912109
sg417
F0.0039021968841552734
sg418
I4
sg419
I4
sa(dp421
g415
I3
sg416
F6.413459777832031e-05
sg417
F0.0005972385406494141
sg418
I2
sg419
I2
sasS'total_cqs'
p422
I5
ssI45
(dp423
S'iters'
p424
I2
sS'meta'
p425
(lp426
(dp427
S'objective'
p428
I3
sS'query_time'
p429
F0.0410151481628418
sS'comp_time'
p430
F0.0012199878692626953
sS'exec_cq'
p431
I5
sS'total_cq'
p432
I5
sa(dp433
g428
I1
sg429
F0.00015687942504882812
sg430
F0.0008139610290527344
sg431
I2
sg432
I2
sasS'total_cqs'
p434
I5
ssI46
(dp435
S'iters'
p436
I0
sS'meta'
p437
(lp438
sS'total_cqs'
p439
I1
ssI47
(dp440
S'iters'
p441
I0
sS'meta'
p442
(lp443
sS'total_cqs'
p444
I1
ssI48
(dp445
S'iters'
p446
I1
sS'meta'
p447
(lp448
(dp449
S'objective'
p450
I1
sS'query_time'
p451
F0.10621213912963867
sS'comp_time'
p452
F0.008594036102294922
sS'exec_cq'
p453
I2
sS'total_cq'
p454
I2
sasS'total_cqs'
p455
I2
ssI49
(dp456
S'iters'
p457
I2
sS'meta'
p458
(lp459
(dp460
S'objective'
p461
I1
sS'query_time'
p462
F0.26204395294189453
sS'comp_time'
p463
F0.00497889518737793
sS'exec_cq'
p464
I5
sS'total_cq'
p465
I5
sa(dp466
g461
I1
sg462
F0.0003178119659423828
sg463
F0.0029642581939697266
sg464
I3
sg465
I3
sasS'total_cqs'
p467
I5
ssI50
(dp468
S'iters'
p469
I2
sS'meta'
p470
(lp471
(dp472
S'objective'
p473
I5
sS'query_time'
p474
F1.0659520626068115
sS'comp_time'
p475
F0.002279043197631836
sS'exec_cq'
p476
I5
sS'total_cq'
p477
I5
sa(dp478
g473
I2
sg474
F0.00015115737915039062
sg475
F0.0013947486877441406
sg476
I4
sg477
I4
sasS'total_cqs'
p479
I5
ssI51
(dp480
S'iters'
p481
I0
sS'meta'
p482
(lp483
sS'total_cqs'
p484
I1
ssI52
(dp485
S'iters'
p486
I0
sS'meta'
p487
(lp488
sS'total_cqs'
p489
I1
ssI53
(dp490
S'iters'
p491
I0
sS'meta'
p492
(lp493
sS'total_cqs'
p494
I1
ssI55
(dp495
S'iters'
p496
I1
sS'meta'
p497
(lp498
(dp499
S'objective'
p500
I1
sS'query_time'
p501
F26.40070104598999
sS'comp_time'
p502
F0.10288333892822266
sS'exec_cq'
p503
I2
sS'total_cq'
p504
I2
sasS'total_cqs'
p505
I2
ssI56
(dp506
S'iters'
p507
I0
sS'meta'
p508
(lp509
sS'total_cqs'
p510
I1
ssI57
(dp511
S'iters'
p512
I1
sS'meta'
p513
(lp514
(dp515
S'objective'
p516
I0
sS'query_time'
p517
F14.02236294746399
sS'comp_time'
p518
F2.6933188438415527
sS'exec_cq'
p519
I3
sS'total_cq'
p520
I3
sasS'total_cqs'
p521
I3
ssI108
(dp522
S'iters'
p523
I0
sS'meta'
p524
(lp525
sS'total_cqs'
p526
I1
ssI109
(dp527
S'iters'
p528
I0
sS'meta'
p529
(lp530
sS'total_cqs'
p531
I1
ssI116
(dp532
S'iters'
p533
I3
sS'meta'
p534
(lp535
(dp536
S'objective'
p537
I159
sS'query_time'
p538
F5.574630975723267
sS'comp_time'
p539
F0.495211124420166
sS'exec_cq'
p540
I21
sS'total_cq'
p541
I21
sa(dp542
g537
I6
sg538
F0.0024259090423583984
sg539
F0.008382797241210938
sg540
I3
sg541
I3
sa(dp543
g537
I9
sg538
F0.0004048347473144531
sg539
F0.004148960113525391
sg540
I2
sg541
I2
sasS'total_cqs'
p544
I21
ssI117
(dp545
S'iters'
p546
I1
sS'meta'
p547
(lp548
(dp549
S'objective'
p550
I7
sS'query_time'
p551
F0.006902933120727539
sS'comp_time'
p552
F0.00011301040649414062
sS'exec_cq'
p553
I5
sS'total_cq'
p554
I5
sasS'total_cqs'
p555
I5
ssI118
(dp556
S'iters'
p557
I0
sS'meta'
p558
(lp559
sS'total_cqs'
p560
I1
ssI122
(dp561
S'iters'
p562
I0
sS'meta'
p563
(lp564
sS'total_cqs'
p565
I1
ss.