(dp0
I1
(dp1
S'iters'
p2
I2
sS'meta'
p3
(lp4
(dp5
S'objective'
p6
I3
sS'query_time'
p7
F15.518335819244385
sS'comp_time'
p8
F0.6825292110443115
sS'exec_cq'
p9
I3
sS'total_cq'
p10
I6
sa(dp11
g6
I3
sg7
F0.1612999439239502
sg8
F0.651594877243042
sg9
I2
sg10
I2
sasS'total_cqs'
p12
I6
ssI2
(dp13
S'iters'
p14
I1
sS'meta'
p15
(lp16
(dp17
S'objective'
p18
I9
sS'query_time'
p19
F0.9362289905548096
sS'comp_time'
p20
F0.16843318939208984
sS'exec_cq'
p21
I2
sS'total_cq'
p22
I6
sasS'total_cqs'
p23
I6
ssI3
(dp24
S'iters'
p25
I8
sS'meta'
p26
(lp27
(dp28
S'objective'
p29
I409
sS'query_time'
p30
F24.916027069091797
sS'comp_time'
p31
F0.3828575611114502
sS'exec_cq'
p32
I15
sS'total_cq'
p33
I33
sa(dp34
g29
I353
sg30
F0.3834550380706787
sg31
F0.0197751522064209
sg32
I13
sg33
I30
sa(dp35
g29
I291
sg30
F0.024964094161987305
sg31
F0.24239492416381836
sg32
I12
sg33
I27
sa(dp36
g29
I245
sg30
F0.002914905548095703
sg31
F0.018198728561401367
sg32
I10
sg33
I24
sa(dp37
g29
I192
sg30
F0.024868011474609375
sg31
F0.25731563568115234
sg32
I9
sg33
I21
sa(dp38
g29
I150
sg30
F0.0028579235076904297
sg31
F0.01697993278503418
sg32
I7
sg33
I18
sa(dp39
g29
I120
sg30
F0.009080886840820312
sg31
F0.05502963066101074
sg32
I6
sg33
I15
sa(dp40
g29
I107
sg30
F0.002485990524291992
sg31
F0.01621103286743164
sg32
I4
sg33
I12
sasS'total_cqs'
p41
I33
ssI6
(dp42
S'iters'
p43
I2
sS'meta'
p44
(lp45
(dp46
S'objective'
p47
I1
sS'query_time'
p48
F13.688335180282593
sS'comp_time'
p49
F0.005521059036254883
sS'exec_cq'
p50
I4
sS'total_cq'
p51
I5
sa(dp52
g47
I2
sg48
F0.00035500526428222656
sg49
F0.001974821090698242
sg50
I2
sg51
I3
sasS'total_cqs'
p53
I5
ssI8
(dp54
S'iters'
p55
I2
sS'meta'
p56
(lp57
(dp58
S'objective'
p59
I17
sS'query_time'
p60
F22.934674978256226
sS'comp_time'
p61
F0.3035757541656494
sS'exec_cq'
p62
I5
sS'total_cq'
p63
I6
sa(dp64
g59
I7
sg60
F0.12076616287231445
sg61
F0.08566522598266602
sg62
I4
sg63
I5
sasS'total_cqs'
p65
I6
ssI9
(dp66
S'iters'
p67
I2
sS'meta'
p68
(lp69
(dp70
S'objective'
p71
I1
sS'query_time'
p72
F10.308317184448242
sS'comp_time'
p73
F0.45929408073425293
sS'exec_cq'
p74
I3
sS'total_cq'
p75
I6
sa(dp76
g71
I1
sg72
F0.04209399223327637
sg73
F0.3648221492767334
sg74
I3
sg75
I3
sasS'total_cqs'
p77
I6
ssI13
(dp78
S'iters'
p79
I1
sS'meta'
p80
(lp81
(dp82
S'objective'
p83
I22
sS'query_time'
p84
F0.022989988327026367
sS'comp_time'
p85
F0.010028362274169922
sS'exec_cq'
p86
I6
sS'total_cq'
p87
I8
sasS'total_cqs'
p88
I8
ssI14
(dp89
S'iters'
p90
I1
sS'meta'
p91
(lp92
(dp93
S'objective'
p94
I5
sS'query_time'
p95
F1.0236351490020752
sS'comp_time'
p96
F0.008103132247924805
sS'exec_cq'
p97
I5
sS'total_cq'
p98
I5
sasS'total_cqs'
p99
I5
ssI16
(dp100
S'iters'
p101
I2
sS'meta'
p102
(lp103
(dp104
S'objective'
p105
I3
sS'query_time'
p106
F1.4137630462646484
sS'comp_time'
p107
F0.00942230224609375
sS'exec_cq'
p108
I4
sS'total_cq'
p109
I5
sa(dp110
g105
I4
sg106
F0.000888824462890625
sg107
F0.005042076110839844
sg108
I2
sg109
I2
sasS'total_cqs'
p111
I5
ssI18
(dp112
S'iters'
p113
I2
sS'meta'
p114
(lp115
(dp116
S'objective'
p117
I1
sS'query_time'
p118
F0.17756986618041992
sS'comp_time'
p119
F0.008356094360351562
sS'exec_cq'
p120
I4
sS'total_cq'
p121
I5
sa(dp122
g117
I2
sg118
F0.062109947204589844
sg119
F0.0002856254577636719
sg120
I1
sg121
I2
sasS'total_cqs'
p123
I5
ssI20
(dp124
S'iters'
p125
I5
sS'meta'
p126
(lp127
(dp128
S'objective'
p129
I38
sS'query_time'
p130
F7.343779802322388
sS'comp_time'
p131
F1.1059019565582275
sS'exec_cq'
p132
I6
sS'total_cq'
p133
I12
sa(dp134
g129
I34
sg130
F0.1895759105682373
sg131
F0.8995039463043213
sg132
I4
sg133
I10
sa(dp135
g129
I24
sg130
F3.8600621223449707
sg131
F0.3380618095397949
sg132
I4
sg133
I9
sa(dp136
g129
I11
sg130
F0.008966922760009766
sg131
F0.055780887603759766
sg132
I3
sg133
I7
sa(dp137
g129
I3
sg130
F0.09078288078308105
sg131
F0.00444483757019043
sg132
I1
sg133
I5
sasS'total_cqs'
p138
I12
ssI21
(dp139
S'iters'
p140
I4
sS'meta'
p141
(lp142
(dp143
S'objective'
p144
I59
sS'query_time'
p145
F30.609962940216064
sS'comp_time'
p146
F0.4229559898376465
sS'exec_cq'
p147
I8
sS'total_cq'
p148
I14
sa(dp149
g144
I18
sg145
F29.56459093093872
sg146
F1.7575998306274414
sg147
I4
sg148
I12
sa(dp150
g144
I8
sg145
F0.020628929138183594
sg146
F0.25017213821411133
sg147
I6
sg148
I8
sa(dp151
g144
I5
sg145
F0.014926910400390625
sg146
F0.0001742839813232422
sg147
I1
sg148
I4
sasS'total_cqs'
p152
I14
ssI22
(dp153
S'iters'
p154
I1
sS'meta'
p155
(lp156
(dp157
S'objective'
p158
I1
sS'query_time'
p159
F0.0037980079650878906
sS'comp_time'
p160
F0.0016088485717773438
sS'exec_cq'
p161
I1
sS'total_cq'
p162
I2
sasS'total_cqs'
p163
I2
ssI25
(dp164
S'iters'
p165
I2
sS'meta'
p166
(lp167
(dp168
S'objective'
p169
I6
sS'query_time'
p170
F44.79586386680603
sS'comp_time'
p171
F4.924644947052002
sS'exec_cq'
p172
I4
sS'total_cq'
p173
I7
sa(dp174
g169
I3
sg170
F0.16276001930236816
sg171
F0.005719423294067383
sg172
I1
sg173
I5
sasS'total_cqs'
p175
I7
ssI26
(dp176
S'iters'
p177
I5
sS'meta'
p178
(lp179
(dp180
S'objective'
p181
I53
sS'query_time'
p182
F0.27457308769226074
sS'comp_time'
p183
F0.02803492546081543
sS'exec_cq'
p184
I4
sS'total_cq'
p185
I13
sa(dp186
g181
I46
sg182
F19.426456212997437
sg183
F5.637436389923096
sg184
I3
sg185
I11
sa(dp187
g181
I29
sg182
F3.112285852432251
sg183
F0.015397787094116211
sg184
I2
sg185
I10
sa(dp188
g181
I18
sg182
F0.013581037521362305
sg183
F0.00017261505126953125
sg184
I2
sg185
I8
sa(dp189
g181
I9
sg182
F0.0031960010528564453
sg183
F9.894371032714844e-05
sg184
I1
sg185
I6
sasS'total_cqs'
p190
I13
ssI27
(dp191
S'iters'
p192
I1
sS'meta'
p193
(lp194
(dp195
S'objective'
p196
I1
sS'query_time'
p197
F0.32750606536865234
sS'comp_time'
p198
F0.009922027587890625
sS'exec_cq'
p199
I1
sS'total_cq'
p200
I2
sasS'total_cqs'
p201
I2
ssI28
(dp202
S'iters'
p203
I3
sS'meta'
p204
(lp205
(dp206
S'objective'
p207
I37
sS'query_time'
p208
F1.4937529563903809
sS'comp_time'
p209
F0.14258861541748047
sS'exec_cq'
p210
I6
sS'total_cq'
p211
I14
sa(dp212
g207
I25
sg208
F0.0030889511108398438
sg209
F0.02166271209716797
sg210
I3
sg211
I11
sa(dp213
g207
I24
sg208
F0.002621173858642578
sg209
F0.0001289844512939453
sg210
I1
sg211
I9
sasS'total_cqs'
p214
I14
ssI29
(dp215
S'iters'
p216
I1
sS'meta'
p217
(lp218
(dp219
S'objective'
p220
I1
sS'query_time'
p221
F0.007080078125
sS'comp_time'
p222
F0.0017821788787841797
sS'exec_cq'
p223
I2
sS'total_cq'
p224
I2
sasS'total_cqs'
p225
I2
ssI30
(dp226
S'iters'
p227
I1
sS'meta'
p228
(lp229
(dp230
S'objective'
p231
I1
sS'query_time'
p232
F0.30835390090942383
sS'comp_time'
p233
F0.004518747329711914
sS'exec_cq'
p234
I2
sS'total_cq'
p235
I2
sasS'total_cqs'
p236
I2
ssI31
(dp237
S'iters'
p238
I3
sS'meta'
p239
(lp240
(dp241
S'objective'
p242
I3
sS'query_time'
p243
F1.5819950103759766
sS'comp_time'
p244
F0.07036042213439941
sS'exec_cq'
p245
I5
sS'total_cq'
p246
I9
sa(dp247
g242
I6
sg243
F0.006639957427978516
sg244
F0.0965738296508789
sg245
I3
sg246
I3
sa(dp248
g242
I1
sg243
F0.0028209686279296875
sg244
F0.015643835067749023
sg245
I2
sg246
I2
sasS'total_cqs'
p249
I9
ssI32
(dp250
S'iters'
p251
I2
sS'meta'
p252
(lp253
(dp254
S'objective'
p255
I2
sS'query_time'
p256
F18.129210948944092
sS'comp_time'
p257
F4.221690893173218
sS'exec_cq'
p258
I4
sS'total_cq'
p259
I7
sa(dp260
g255
I1
sg256
F0.11362791061401367
sg257
F0.0024261474609375
sg258
I1
sg259
I4
sasS'total_cqs'
p261
I7
ssI33
(dp262
S'iters'
p263
I1
sS'meta'
p264
(lp265
(dp266
S'objective'
p267
I1
sS'query_time'
p268
F0.02192091941833496
sS'comp_time'
p269
F0.0015518665313720703
sS'exec_cq'
p270
I2
sS'total_cq'
p271
I2
sasS'total_cqs'
p272
I2
ssI35
(dp273
S'iters'
p274
I2
sS'meta'
p275
(lp276
(dp277
S'objective'
p278
I1
sS'query_time'
p279
F14.875571966171265
sS'comp_time'
p280
F0.28496289253234863
sS'exec_cq'
p281
I4
sS'total_cq'
p282
I5
sa(dp283
g278
I2
sg279
F0.07890105247497559
sg280
F0.06615996360778809
sg281
I2
sg282
I3
sasS'total_cqs'
p284
I5
ssI37
(dp285
S'iters'
p286
I3
sS'meta'
p287
(lp288
(dp289
S'objective'
p290
I39
sS'query_time'
p291
F1.3080430030822754
sS'comp_time'
p292
F0.14625000953674316
sS'exec_cq'
p293
I4
sS'total_cq'
p294
I10
sa(dp295
g290
I15
sg291
F0.5106010437011719
sg292
F0.015787839889526367
sg293
I4
sg294
I9
sa(dp296
g290
I2
sg291
F0.0032019615173339844
sg292
F0.01419377326965332
sg293
I2
sg294
I2
sasS'total_cqs'
p297
I10
ssI40
(dp298
S'iters'
p299
I1
sS'meta'
p300
(lp301
(dp302
S'objective'
p303
I1
sS'query_time'
p304
F0.003968954086303711
sS'comp_time'
p305
F0.0012087821960449219
sS'exec_cq'
p306
I1
sS'total_cq'
p307
I2
sasS'total_cqs'
p308
I2
ssI41
(dp309
S'iters'
p310
I2
sS'meta'
p311
(lp312
(dp313
S'objective'
p314
I1
sS'query_time'
p315
F1.0886049270629883
sS'comp_time'
p316
F0.011334896087646484
sS'exec_cq'
p317
I2
sS'total_cq'
p318
I6
sa(dp319
g314
I2
sg315
F0.0007979869842529297
sg316
F0.004495859146118164
sg317
I2
sg318
I2
sasS'total_cqs'
p320
I6
ssI42
(dp321
S'iters'
p322
I1
sS'meta'
p323
(lp324
(dp325
S'objective'
p326
I1
sS'query_time'
p327
F0.009772062301635742
sS'comp_time'
p328
F0.0015125274658203125
sS'exec_cq'
p329
I1
sS'total_cq'
p330
I2
sasS'total_cqs'
p331
I2
ssI44
(dp332
S'iters'
p333
I2
sS'meta'
p334
(lp335
(dp336
S'objective'
p337
I7
sS'query_time'
p338
F1.278244972229004
sS'comp_time'
p339
F0.18480563163757324
sS'exec_cq'
p340
I2
sS'total_cq'
p341
I5
sa(dp342
g337
I1
sg338
F0.004743099212646484
sg339
F0.00024247169494628906
sg340
I1
sg341
I4
sasS'total_cqs'
p343
I5
ssI45
(dp344
S'iters'
p345
I2
sS'meta'
p346
(lp347
(dp348
S'objective'
p349
I1
sS'query_time'
p350
F0.040925025939941406
sS'comp_time'
p351
F0.0040857791900634766
sS'exec_cq'
p352
I3
sS'total_cq'
p353
I5
sa(dp354
g349
I3
sg350
F0.00021004676818847656
sg351
F0.0008883476257324219
sg352
I2
sg353
I2
sasS'total_cqs'
p355
I5
ssI48
(dp356
S'iters'
p357
I1
sS'meta'
p358
(lp359
(dp360
S'objective'
p361
I1
sS'query_time'
p362
F0.26615405082702637
sS'comp_time'
p363
F0.0050656795501708984
sS'exec_cq'
p364
I2
sS'total_cq'
p365
I2
sasS'total_cqs'
p366
I2
ssI49
(dp367
S'iters'
p368
I2
sS'meta'
p369
(lp370
(dp371
S'objective'
p372
I1
sS'query_time'
p373
F0.21978211402893066
sS'comp_time'
p374
F0.0066339969635009766
sS'exec_cq'
p375
I4
sS'total_cq'
p376
I5
sa(dp377
g372
I2
sg373
F0.0003170967102050781
sg374
F0.0018961429595947266
sg375
I2
sg376
I2
sasS'total_cqs'
p378
I5
ssI50
(dp379
S'iters'
p380
I1
sS'meta'
p381
(lp382
(dp383
S'objective'
p384
I5
sS'query_time'
p385
F0.7529470920562744
sS'comp_time'
p386
F0.09287476539611816
sS'exec_cq'
p387
I5
sS'total_cq'
p388
I5
sasS'total_cqs'
p389
I5
ssI55
(dp390
S'iters'
p391
I1
sS'meta'
p392
(lp393
(dp394
S'objective'
p395
I1
sS'query_time'
p396
F24.697169065475464
sS'comp_time'
p397
F2.9771900177001953
sS'exec_cq'
p398
I2
sS'total_cq'
p399
I2
sasS'total_cqs'
p400
I2
ssI57
(dp401
S'iters'
p402
I2
sS'meta'
p403
(lp404
(dp405
S'objective'
p406
I0
sS'query_time'
p407
F12.53419303894043
sS'comp_time'
p408
F2.999859571456909
sS'exec_cq'
p409
I2
sS'total_cq'
p410
I3
sa(dp411
g406
I1
sg407
F0.47144603729248047
sg408
F2.235779047012329
sg409
I1
sg410
I2
sasS'total_cqs'
p412
I3
ssI116
(dp413
S'iters'
p414
I3
sS'meta'
p415
(lp416
(dp417
S'objective'
p418
I183
sS'query_time'
p419
F3.9502809047698975
sS'comp_time'
p420
F0.6920995712280273
sS'exec_cq'
p421
I15
sS'total_cq'
p422
I21
sa(dp423
g418
I167
sg419
F0.5035762786865234
sg420
F0.003996372222900391
sg421
I15
sg422
I19
sa(dp424
g418
I14
sg419
F0.0008528232574462891
sg420
F0.003428936004638672
sg421
I2
sg422
I2
sasS'total_cqs'
p425
I21
ssI117
(dp426
S'iters'
p427
I2
sS'meta'
p428
(lp429
(dp430
S'objective'
p431
I7
sS'query_time'
p432
F0.009408950805664062
sS'comp_time'
p433
F0.0015320777893066406
sS'exec_cq'
p434
I3
sS'total_cq'
p435
I5
sa(dp436
g431
I1
sg432
F0.0027379989624023438
sg433
F0.0001227855682373047
sg434
I1
sg435
I4
sasS'total_cqs'
p437
I5
ss.