(dp0
I1
(dp1
S'iters'
p2
I4
sS'meta'
p3
(lp4
(dp5
S'objective'
p6
I1
sS'query_time'
p7
F16.996350049972534
sS'comp_time'
p8
F0.2710871696472168
sS'exec_cq'
p9
I3
sS'total_cq'
p10
I6
sa(dp11
g6
I5
sg7
F31.38950204849243
sg8
F0.7531671524047852
sg9
I2
sg10
I4
sa(dp12
g6
I2
sg7
F0.0019459724426269531
sg8
F4.887580871582031e-05
sg9
I1
sg10
I3
sa(dp13
g6
I1
sg7
F0.010397195816040039
sg8
F0.08407282829284668
sg9
I1
sg10
I2
sasS'total_cqs'
p14
I6
ssI2
(dp15
S'iters'
p16
I1
sS'meta'
p17
(lp18
(dp19
S'objective'
p20
I19
sS'query_time'
p21
F1.1833350658416748
sS'comp_time'
p22
F0.03656506538391113
sS'exec_cq'
p23
I6
sS'total_cq'
p24
I6
sasS'total_cqs'
p25
I6
ssI3
(dp26
S'iters'
p27
I17
sS'meta'
p28
(lp29
(dp30
S'objective'
p31
I395
sS'query_time'
p32
F25.99369215965271
sS'comp_time'
p33
F0.4007289409637451
sS'exec_cq'
p34
I28
sS'total_cq'
p35
I33
sa(dp36
g31
I328
sg32
F0.20977401733398438
sg33
F0.17487573623657227
sg34
I30
sg35
I30
sa(dp37
g31
I275
sg32
F0.013330936431884766
sg33
F0.023891925811767578
sg34
I27
sg35
I27
sa(dp38
g31
I241
sg32
F0.10033011436462402
sg33
F0.02057814598083496
sg34
I24
sg35
I24
sa(dp39
g31
I216
sg32
F0.012356758117675781
sg33
F0.021027326583862305
sg34
I21
sg35
I21
sa(dp40
g31
I191
sg32
F0.009057998657226562
sg33
F0.10477232933044434
sg34
I18
sg35
I18
sa(dp41
g31
I170
sg32
F0.008679628372192383
sg33
F0.012532234191894531
sg34
I17
sg35
I17
sa(dp42
g31
I144
sg32
F0.006638765335083008
sg33
F0.011246919631958008
sg34
I14
sg35
I14
sa(dp43
g31
I128
sg32
F0.0033240318298339844
sg33
F0.0058825016021728516
sg34
I10
sg35
I12
sa(dp44
g31
I117
sg32
F0.006843090057373047
sg33
F0.010780096054077148
sg34
I11
sg35
I11
sa(dp45
g31
I105
sg32
F0.0944068431854248
sg33
F0.011497020721435547
sg34
I10
sg35
I10
sa(dp46
g31
I99
sg32
F0.0052242279052734375
sg33
F0.010250091552734375
sg34
I9
sg35
I9
sa(dp47
g31
I91
sg32
F0.005095005035400391
sg33
F0.006153106689453125
sg34
I8
sg35
I8
sa(dp48
g31
I94
sg32
F0.002443075180053711
sg33
F0.0036880970001220703
sg34
I7
sg35
I7
sa(dp49
g31
I41
sg32
F29.86809802055359
sg33
F0.0001437664031982422
sg34
I4
sg35
I6
sa(dp50
g31
I5
sg32
F0.0370478630065918
sg33
F0.0002067089080810547
sg34
I3
sg35
I5
sa(dp51
g31
I30
sg32
F0.013374090194702148
sg33
F0.012528181076049805
sg34
I3
sg35
I3
sasS'total_cqs'
p52
I33
ssI4
(dp53
S'iters'
p54
I0
sS'meta'
p55
(lp56
sS'total_cqs'
p57
I1
ssI5
(dp58
S'iters'
p59
I0
sS'meta'
p60
(lp61
sS'total_cqs'
p62
I1
ssI6
(dp63
S'iters'
p64
I3
sS'meta'
p65
(lp66
(dp67
S'objective'
p68
I1
sS'query_time'
p69
F13.946921825408936
sS'comp_time'
p70
F0.0045130252838134766
sS'exec_cq'
p71
I4
sS'total_cq'
p72
I5
sa(dp73
g68
I1
sg69
F0.0004150867462158203
sg70
F0.0007479190826416016
sg71
I2
sg72
I3
sa(dp74
g68
I1
sg69
F8.511543273925781e-05
sg70
F8.106231689453125e-05
sg71
I1
sg72
I2
sasS'total_cqs'
p75
I5
ssI7
(dp76
S'iters'
p77
I0
sS'meta'
p78
(lp79
sS'total_cqs'
p80
I1
ssI8
(dp81
S'iters'
p82
I5
sS'meta'
p83
(lp84
(dp85
S'objective'
p86
I15
sS'query_time'
p87
F23.661391019821167
sS'comp_time'
p88
F0.11478900909423828
sS'exec_cq'
p89
I5
sS'total_cq'
p90
I6
sa(dp91
g86
I6
sg87
F1.852489948272705
sg88
F0.0002009868621826172
sg89
I4
sg90
I5
sa(dp92
g86
I2
sg87
F0.00442814826965332
sg88
F0.00010561943054199219
sg89
I3
sg90
I4
sa(dp93
g86
I1
sg87
F1.8816378116607666
sg88
F0.00011706352233886719
sg89
I2
sg90
I3
sa(dp94
g86
I1
sg87
F0.0027201175689697266
sg88
F4.076957702636719e-05
sg89
I1
sg90
I2
sasS'total_cqs'
p95
I6
ssI9
(dp96
S'iters'
p97
I3
sS'meta'
p98
(lp99
(dp100
S'objective'
p101
I5
sS'query_time'
p102
F53.798743724823
sS'comp_time'
p103
F2.8942666053771973
sS'exec_cq'
p104
I5
sS'total_cq'
p105
I6
sa(dp106
g101
I0
sg102
F0.04131507873535156
sg103
F0.08317303657531738
sg104
I3
sg105
I3
sa(dp107
g101
I2
sg102
F0.11377406120300293
sg103
F0.012753009796142578
sg104
I2
sg105
I2
sasS'total_cqs'
p108
I6
ssI10
(dp109
S'iters'
p110
I0
sS'meta'
p111
(lp112
sS'total_cqs'
p113
I1
ssI11
(dp114
S'iters'
p115
I0
sS'meta'
p116
(lp117
sS'total_cqs'
p118
I1
ssI12
(dp119
S'iters'
p120
I0
sS'meta'
p121
(lp122
sS'total_cqs'
p123
I1
ssI13
(dp124
S'iters'
p125
I2
sS'meta'
p126
(lp127
(dp128
S'objective'
p129
I30
sS'query_time'
p130
F0.025434255599975586
sS'comp_time'
p131
F0.009009122848510742
sS'exec_cq'
p132
I8
sS'total_cq'
p133
I8
sa(dp134
g129
I31
sg130
F5.0067901611328125e-05
sg131
F9.560585021972656e-05
sg132
I7
sg133
I7
sasS'total_cqs'
p135
I8
ssI14
(dp136
S'iters'
p137
I3
sS'meta'
p138
(lp139
(dp140
S'objective'
p141
I5
sS'query_time'
p142
F1.06569504737854
sS'comp_time'
p143
F0.004178047180175781
sS'exec_cq'
p144
I5
sS'total_cq'
p145
I5
sa(dp146
g141
I2
sg142
F0.0008349418640136719
sg143
F0.0011332035064697266
sg144
I4
sg145
I4
sa(dp147
g141
I4
sg142
F0.0005180835723876953
sg143
F0.0010578632354736328
sg144
I3
sg145
I3
sasS'total_cqs'
p148
I5
ssI16
(dp149
S'iters'
p150
I3
sS'meta'
p151
(lp152
(dp153
S'objective'
p154
I1
sS'query_time'
p155
F1.385362148284912
sS'comp_time'
p156
F0.008002758026123047
sS'exec_cq'
p157
I4
sS'total_cq'
p158
I5
sa(dp159
g154
I2
sg155
F0.05380082130432129
sg156
F0.0004017353057861328
sg157
I3
sg158
I3
sa(dp160
g154
I3
sg155
F5.412101745605469e-05
sg156
F0.00010895729064941406
sg157
I2
sg158
I2
sasS'total_cqs'
p161
I5
ssI17
(dp162
S'iters'
p163
I0
sS'meta'
p164
(lp165
sS'total_cqs'
p166
I1
ssI18
(dp167
S'iters'
p168
I3
sS'meta'
p169
(lp170
(dp171
S'objective'
p172
I1
sS'query_time'
p173
F0.2300560474395752
sS'comp_time'
p174
F0.0053861141204833984
sS'exec_cq'
p175
I4
sS'total_cq'
p176
I5
sa(dp177
g172
I2
sg173
F0.04278206825256348
sg174
F5.984306335449219e-05
sg175
I1
sg176
I3
sa(dp178
g172
I1
sg173
F4.410743713378906e-05
sg174
F9.679794311523438e-05
sg175
I2
sg176
I2
sasS'total_cqs'
p179
I5
ssI19
(dp180
S'iters'
p181
I0
sS'meta'
p182
(lp183
sS'total_cqs'
p184
I1
ssI20
(dp185
S'iters'
p186
I6
sS'meta'
p187
(lp188
(dp189
S'objective'
p190
I40
sS'query_time'
p191
F13.572778940200806
sS'comp_time'
p192
F0.8885960578918457
sS'exec_cq'
p193
I10
sS'total_cq'
p194
I12
sa(dp195
g190
I25
sg191
F0.24360299110412598
sg192
F0.4959378242492676
sg193
I8
sg194
I10
sa(dp196
g190
I10
sg191
F0.12302589416503906
sg192
F0.07437896728515625
sg193
I4
sg194
I8
sa(dp197
g190
I18
sg191
F0.3666079044342041
sg192
F0.5176551342010498
sg193
I5
sg194
I6
sa(dp198
g190
I16
sg191
F0.14574813842773438
sg192
F0.2538597583770752
sg193
I4
sg194
I5
sa(dp199
g190
I17
sg191
F0.10794234275817871
sg192
F0.0004413127899169922
sg193
I4
sg194
I4
sasS'total_cqs'
p200
I12
ssI21
(dp201
S'iters'
p202
I10
sS'meta'
p203
(lp204
(dp205
S'objective'
p206
I39
sS'query_time'
p207
F61.72278904914856
sS'comp_time'
p208
F0.8944504261016846
sS'exec_cq'
p209
I12
sS'total_cq'
p210
I14
sa(dp211
g206
I46
sg207
F0.09501385688781738
sg208
F0.04926586151123047
sg209
I8
sg210
I11
sa(dp212
g206
I35
sg207
F0.01871204376220703
sg208
F0.13081789016723633
sg209
I7
sg210
I10
sa(dp213
g206
I27
sg207
F0.008381843566894531
sg208
F0.01607036590576172
sg209
I5
sg210
I8
sa(dp214
g206
I15
sg207
F0.00846099853515625
sg208
F0.0001583099365234375
sg209
I4
sg210
I7
sa(dp215
g206
I8
sg207
F0.003470897674560547
sg208
F0.00012493133544921875
sg209
I3
sg210
I6
sa(dp216
g206
I5
sg207
F0.0019457340240478516
sg208
F8.058547973632812e-05
sg209
I2
sg210
I5
sa(dp217
g206
I1
sg207
F0.25228095054626465
sg208
F0.0027189254760742188
sg209
I1
sg210
I4
sa(dp218
g206
I0
sg207
F0.001779794692993164
sg208
F3.075599670410156e-05
sg209
I1
sg210
I3
sa(dp219
g206
I1
sg207
F0.0013210773468017578
sg208
F2.5033950805664062e-05
sg209
I1
sg210
I2
sasS'total_cqs'
p220
I14
ssI22
(dp221
S'iters'
p222
I1
sS'meta'
p223
(lp224
(dp225
S'objective'
p226
I1
sS'query_time'
p227
F0.00857996940612793
sS'comp_time'
p228
F0.0010001659393310547
sS'exec_cq'
p229
I1
sS'total_cq'
p230
I2
sasS'total_cqs'
p231
I2
ssI23
(dp232
S'iters'
p233
I0
sS'meta'
p234
(lp235
sS'total_cqs'
p236
I1
ssI24
(dp237
S'iters'
p238
I0
sS'meta'
p239
(lp240
sS'total_cqs'
p241
I1
ssI25
(dp242
S'iters'
p243
I4
sS'meta'
p244
(lp245
(dp246
S'objective'
p247
I2
sS'query_time'
p248
F53.117331981658936
sS'comp_time'
p249
F1.94545316696167
sS'exec_cq'
p250
I6
sS'total_cq'
p251
I7
sa(dp252
g247
I1
sg248
F0.7017731666564941
sg249
F2.2743680477142334
sg250
I4
sg251
I5
sa(dp253
g247
I2
sg248
F0.014124870300292969
sg249
F0.00011968612670898438
sg250
I2
sg251
I3
sa(dp254
g247
I1
sg248
F0.006531953811645508
sg249
F3.981590270996094e-05
sg250
I1
sg251
I2
sasS'total_cqs'
p255
I7
ssI26
(dp256
S'iters'
p257
I9
sS'meta'
p258
(lp259
(dp260
S'objective'
p261
I53
sS'query_time'
p262
F23.1799898147583
sS'comp_time'
p263
F0.01384878158569336
sS'exec_cq'
p264
I7
sS'total_cq'
p265
I13
sa(dp266
g261
I42
sg262
F0.010576725006103516
sg263
F0.0007684230804443359
sg264
I5
sg265
I11
sa(dp267
g261
I33
sg262
F0.00039005279541015625
sg263
F0.0008296966552734375
sg264
I3
sg265
I9
sa(dp268
g261
I27
sg262
F0.02935004234313965
sg263
F0.0023298263549804688
sg264
I5
sg265
I8
sa(dp269
g261
I20
sg262
F0.0014209747314453125
sg263
F0.0016341209411621094
sg264
I4
sg265
I7
sa(dp270
g261
I6
sg262
F0.0013399124145507812
sg263
F2.9087066650390625e-05
sg264
I1
sg265
I6
sa(dp271
g261
I3
sg262
F0.0008428096771240234
sg263
F0.0011970996856689453
sg264
I2
sg265
I5
sa(dp272
g261
I2
sg262
F3.8037211894989014
sg263
F0.0028870105743408203
sg264
I2
sg265
I4
sa(dp273
g261
I2
sg262
F0.0004329681396484375
sg263
F0.0001480579376220703
sg264
I1
sg265
I2
sasS'total_cqs'
p274
I13
ssI27
(dp275
S'iters'
p276
I1
sS'meta'
p277
(lp278
(dp279
S'objective'
p280
I1
sS'query_time'
p281
F0.24934697151184082
sS'comp_time'
p282
F0.0017619132995605469
sS'exec_cq'
p283
I1
sS'total_cq'
p284
I2
sasS'total_cqs'
p285
I2
ssI28
(dp286
S'iters'
p287
I10
sS'meta'
p288
(lp289
(dp290
S'objective'
p291
I53
sS'query_time'
p292
F1.5763771533966064
sS'comp_time'
p293
F0.09746766090393066
sS'exec_cq'
p294
I6
sS'total_cq'
p295
I14
sa(dp296
g291
I29
sg292
F0.0034339427947998047
sg293
F0.007758378982543945
sg294
I3
sg295
I11
sa(dp297
g291
I32
sg292
F0.003290891647338867
sg293
F6.794929504394531e-05
sg294
I1
sg295
I9
sa(dp298
g291
I23
sg292
F0.014531850814819336
sg293
F0.0001461505889892578
sg294
I3
sg295
I8
sa(dp299
g291
I15
sg292
F0.00016307830810546875
sg293
F0.0001621246337890625
sg294
I3
sg295
I7
sa(dp300
g291
I8
sg292
F1.621246337890625e-05
sg293
F8.678436279296875e-05
sg294
I2
sg295
I6
sa(dp301
g291
I4
sg292
F0.023000001907348633
sg293
F0.00013494491577148438
sg294
I1
sg295
I5
sa(dp302
g291
I2
sg292
F0.019176006317138672
sg293
F9.989738464355469e-05
sg294
I1
sg295
I4
sa(dp303
g291
I0
sg292
F0.01507115364074707
sg293
F9.822845458984375e-05
sg294
I1
sg295
I3
sa(dp304
g291
I1
sg292
F0.0027799606323242188
sg293
F3.0994415283203125e-05
sg294
I1
sg295
I2
sasS'total_cqs'
p305
I14
ssI29
(dp306
S'iters'
p307
I1
sS'meta'
p308
(lp309
(dp310
S'objective'
p311
I1
sS'query_time'
p312
F0.006996870040893555
sS'comp_time'
p313
F0.005949735641479492
sS'exec_cq'
p314
I2
sS'total_cq'
p315
I2
sasS'total_cqs'
p316
I2
ssI30
(dp317
S'iters'
p318
I1
sS'meta'
p319
(lp320
(dp321
S'objective'
p322
I1
sS'query_time'
p323
F0.42875218391418457
sS'comp_time'
p324
F0.0023260116577148438
sS'exec_cq'
p325
I2
sS'total_cq'
p326
I2
sasS'total_cqs'
p327
I2
ssI31
(dp328
S'iters'
p329
I3
sS'meta'
p330
(lp331
(dp332
S'objective'
p333
I11
sS'query_time'
p334
F6.125003099441528
sS'comp_time'
p335
F0.21305203437805176
sS'exec_cq'
p336
I9
sS'total_cq'
p337
I9
sa(dp338
g333
I1
sg334
F0.009472131729125977
sg335
F0.01405191421508789
sg336
I3
sg337
I3
sa(dp339
g333
I6
sg334
F0.008405923843383789
sg335
F0.013412952423095703
sg336
I2
sg337
I2
sasS'total_cqs'
p340
I9
ssI32
(dp341
S'iters'
p342
I4
sS'meta'
p343
(lp344
(dp345
S'objective'
p346
I2
sS'query_time'
p347
F20.50486707687378
sS'comp_time'
p348
F2.4026291370391846
sS'exec_cq'
p349
I4
sS'total_cq'
p350
I7
sa(dp351
g346
I1
sg347
F1.2023780345916748
sg348
F0.005728960037231445
sg349
I2
sg350
I4
sa(dp352
g346
I0
sg347
F0.0038077831268310547
sg348
F0.0022661685943603516
sg349
I1
sg350
I3
sa(dp353
g346
I1
sg347
F0.2902181148529053
sg348
F0.23137187957763672
sg349
I1
sg350
I2
sasS'total_cqs'
p354
I7
ssI33
(dp355
S'iters'
p356
I1
sS'meta'
p357
(lp358
(dp359
S'objective'
p360
I1
sS'query_time'
p361
F0.041671037673950195
sS'comp_time'
p362
F0.0019402503967285156
sS'exec_cq'
p363
I2
sS'total_cq'
p364
I2
sasS'total_cqs'
p365
I2
ssI34
(dp366
S'iters'
p367
I0
sS'meta'
p368
(lp369
sS'total_cqs'
p370
I1
ssI35
(dp371
S'iters'
p372
I3
sS'meta'
p373
(lp374
(dp375
S'objective'
p376
I1
sS'query_time'
p377
F14.452465057373047
sS'comp_time'
p378
F0.25887107849121094
sS'exec_cq'
p379
I4
sS'total_cq'
p380
I5
sa(dp381
g376
I1
sg377
F0.02625107765197754
sg378
F0.039997100830078125
sg379
I3
sg380
I3
sa(dp382
g376
I1
sg377
F0.010895013809204102
sg378
F0.1184377670288086
sg379
I2
sg380
I2
sasS'total_cqs'
p383
I5
ssI37
(dp384
S'iters'
p385
I3
sS'meta'
p386
(lp387
(dp388
S'objective'
p389
I35
sS'query_time'
p390
F1.8325960636138916
sS'comp_time'
p391
F0.15915894508361816
sS'exec_cq'
p392
I8
sS'total_cq'
p393
I10
sa(dp394
g389
I25
sg390
F0.015290975570678711
sg391
F0.026893138885498047
sg392
I7
sg393
I9
sa(dp395
g389
I8
sg390
F0.0032150745391845703
sg391
F0.0036988258361816406
sg392
I2
sg393
I2
sasS'total_cqs'
p396
I10
ssI38
(dp397
S'iters'
p398
I0
sS'meta'
p399
(lp400
sS'total_cqs'
p401
I1
ssI39
(dp402
S'iters'
p403
I0
sS'meta'
p404
(lp405
sS'total_cqs'
p406
I1
ssI40
(dp407
S'iters'
p408
I1
sS'meta'
p409
(lp410
(dp411
S'objective'
p412
I1
sS'query_time'
p413
F0.0044329166412353516
sS'comp_time'
p414
F0.0011570453643798828
sS'exec_cq'
p415
I1
sS'total_cq'
p416
I2
sasS'total_cqs'
p417
I2
ssI41
(dp418
S'iters'
p419
I4
sS'meta'
p420
(lp421
(dp422
S'objective'
p423
I1
sS'query_time'
p424
F10.098964929580688
sS'comp_time'
p425
F0.7987322807312012
sS'exec_cq'
p426
I3
sS'total_cq'
p427
I6
sa(dp428
g423
I1
sg424
F0.17046594619750977
sg425
F0.00041675567626953125
sg426
I1
sg427
I4
sa(dp429
g423
I0
sg424
F0.7947559356689453
sg425
F0.0010311603546142578
sg426
I2
sg427
I3
sa(dp430
g423
I1
sg424
F0.0009319782257080078
sg425
F0.0014119148254394531
sg426
I2
sg427
I2
sasS'total_cqs'
p431
I6
ssI42
(dp432
S'iters'
p433
I1
sS'meta'
p434
(lp435
(dp436
S'objective'
p437
I1
sS'query_time'
p438
F0.03284811973571777
sS'comp_time'
p439
F0.0018856525421142578
sS'exec_cq'
p440
I1
sS'total_cq'
p441
I2
sasS'total_cqs'
p442
I2
ssI43
(dp443
S'iters'
p444
I0
sS'meta'
p445
(lp446
sS'total_cqs'
p447
I1
ssI44
(dp448
S'iters'
p449
I3
sS'meta'
p450
(lp451
(dp452
S'objective'
p453
I5
sS'query_time'
p454
F1.6735758781433105
sS'comp_time'
p455
F0.04126882553100586
sS'exec_cq'
p456
I4
sS'total_cq'
p457
I5
sa(dp458
g453
I0
sg454
F0.07948184013366699
sg455
F0.03136920928955078
sg456
I2
sg457
I3
sa(dp459
g453
I3
sg454
F0.017712116241455078
sg455
F0.012398004531860352
sg456
I1
sg457
I2
sasS'total_cqs'
p460
I5
ssI45
(dp461
S'iters'
p462
I2
sS'meta'
p463
(lp464
(dp465
S'objective'
p466
I5
sS'query_time'
p467
F0.035576820373535156
sS'comp_time'
p468
F0.0020639896392822266
sS'exec_cq'
p469
I4
sS'total_cq'
p470
I5
sa(dp471
g466
I3
sg467
F0.0001811981201171875
sg468
F0.0002465248107910156
sg469
I2
sg470
I2
sasS'total_cqs'
p472
I5
ssI46
(dp473
S'iters'
p474
I0
sS'meta'
p475
(lp476
sS'total_cqs'
p477
I1
ssI47
(dp478
S'iters'
p479
I0
sS'meta'
p480
(lp481
sS'total_cqs'
p482
I1
ssI48
(dp483
S'iters'
p484
I1
sS'meta'
p485
(lp486
(dp487
S'objective'
p488
I1
sS'query_time'
p489
F0.23408102989196777
sS'comp_time'
p490
F0.0015451908111572266
sS'exec_cq'
p491
I2
sS'total_cq'
p492
I2
sasS'total_cqs'
p493
I2
ssI49
(dp494
S'iters'
p495
I3
sS'meta'
p496
(lp497
(dp498
S'objective'
p499
I1
sS'query_time'
p500
F0.1860051155090332
sS'comp_time'
p501
F0.0033578872680664062
sS'exec_cq'
p502
I4
sS'total_cq'
p503
I5
sa(dp504
g499
I1
sg500
F0.0012159347534179688
sg501
F0.0010287761688232422
sg502
I3
sg503
I3
sa(dp505
g499
I1
sg500
F0.00037407875061035156
sg501
F0.0006113052368164062
sg502
I2
sg503
I2
sasS'total_cqs'
p506
I5
ssI50
(dp507
S'iters'
p508
I4
sS'meta'
p509
(lp510
(dp511
S'objective'
p512
I5
sS'query_time'
p513
F0.6811840534210205
sS'comp_time'
p514
F0.0033190250396728516
sS'exec_cq'
p515
I5
sS'total_cq'
p516
I5
sa(dp517
g512
I2
sg513
F0.0001919269561767578
sg514
F0.0004200935363769531
sg515
I4
sg516
I4
sa(dp518
g512
I0
sg513
F0.0001308917999267578
sg514
F0.0003039836883544922
sg515
I3
sg516
I3
sa(dp519
g512
I1
sg513
F0.00011897087097167969
sg514
F0.00025081634521484375
sg515
I2
sg516
I2
sasS'total_cqs'
p520
I5
ssI51
(dp521
S'iters'
p522
I0
sS'meta'
p523
(lp524
sS'total_cqs'
p525
I1
ssI52
(dp526
S'iters'
p527
I0
sS'meta'
p528
(lp529
sS'total_cqs'
p530
I1
ssI53
(dp531
S'iters'
p532
I0
sS'meta'
p533
(lp534
sS'total_cqs'
p535
I1
ssI55
(dp536
S'iters'
p537
I1
sS'meta'
p538
(lp539
(dp540
S'objective'
p541
I1
sS'query_time'
p542
F24.18945288658142
sS'comp_time'
p543
F0.016774892807006836
sS'exec_cq'
p544
I2
sS'total_cq'
p545
I2
sasS'total_cqs'
p546
I2
ssI56
(dp547
S'iters'
p548
I0
sS'meta'
p549
(lp550
sS'total_cqs'
p551
I1
ssI57
(dp552
S'iters'
p553
I2
sS'meta'
p554
(lp555
(dp556
S'objective'
p557
I0
sS'query_time'
p558
F12.151633977890015
sS'comp_time'
p559
F0.8268797397613525
sS'exec_cq'
p560
I2
sS'total_cq'
p561
I3
sa(dp562
g557
I1
sg558
F0.2639751434326172
sg559
F0.3727388381958008
sg560
I1
sg561
I2
sasS'total_cqs'
p563
I3
ssI108
(dp564
S'iters'
p565
I0
sS'meta'
p566
(lp567
sS'total_cqs'
p568
I1
ssI109
(dp569
S'iters'
p570
I0
sS'meta'
p571
(lp572
sS'total_cqs'
p573
I1
ssI116
(dp574
S'iters'
p575
I4
sS'meta'
p576
(lp577
(dp578
S'objective'
p579
I161
sS'query_time'
p580
F3.6966867446899414
sS'comp_time'
p581
F0.2979276180267334
sS'exec_cq'
p582
I15
sS'total_cq'
p583
I21
sa(dp584
g579
I162
sg580
F0.07725381851196289
sg581
F0.0002732276916503906
sg582
I13
sg583
I19
sa(dp585
g579
I149
sg580
F0.5546300411224365
sg581
F0.0006494522094726562
sg582
I14
sg583
I18
sa(dp586
g579
I13
sg580
F0.0006639957427978516
sg581
F0.0008788108825683594
sg582
I2
sg583
I2
sasS'total_cqs'
p587
I21
ssI117
(dp588
S'iters'
p589
I2
sS'meta'
p590
(lp591
(dp592
S'objective'
p593
I11
sS'query_time'
p594
F0.014784097671508789
sS'comp_time'
p595
F0.0019850730895996094
sS'exec_cq'
p596
I4
sS'total_cq'
p597
I5
sa(dp598
g593
I11
sg594
F0.002711057662963867
sg595
F4.792213439941406e-05
sg596
I4
sg597
I4
sasS'total_cqs'
p599
I5
ssI118
(dp600
S'iters'
p601
I0
sS'meta'
p602
(lp603
sS'total_cqs'
p604
I1
ssI122
(dp605
S'iters'
p606
I0
sS'meta'
p607
(lp608
sS'total_cqs'
p609
I1
ss.