(dp0
I1
(dp1
S'iters'
p2
I2
sS'meta'
p3
(lp4
(dp5
S'objective'
p6
I1
sS'query_time'
p7
F20.711967945098877
sS'comp_time'
p8
F4.971759080886841
sS'exec_cq'
p9
I6
sS'total_cq'
p10
I6
sa(dp11
g6
I1
sg7
F0.011167049407958984
sg8
F259.3290340900421
sg9
I2
sg10
I2
sasS'total_cqs'
p12
I6
ssI2
(dp13
S'iters'
p14
I1
sS'meta'
p15
(lp16
(dp17
S'objective'
p18
I9
sS'query_time'
p19
F1.300018072128296
sS'comp_time'
p20
F0.0910940170288086
sS'exec_cq'
p21
I6
sS'total_cq'
p22
I6
sasS'total_cqs'
p23
I6
ssI3
(dp24
S'iters'
p25
I7
sS'meta'
p26
(lp27
(dp28
S'objective'
p29
I413
sS'query_time'
p30
F28.251736879348755
sS'comp_time'
p31
F0.16883015632629395
sS'exec_cq'
p32
I33
sS'total_cq'
p33
I33
sa(dp34
g29
I365
sg30
F0.023813962936401367
sg31
F0.14692020416259766
sg32
I30
sg33
I30
sa(dp35
g29
I316
sg30
F0.028902053833007812
sg31
F0.04799389839172363
sg32
I27
sg33
I27
sa(dp36
g29
I285
sg30
F0.006883144378662109
sg31
F0.055583953857421875
sg32
I24
sg33
I24
sa(dp37
g29
I252
sg30
F0.006623983383178711
sg31
F0.03227090835571289
sg32
I21
sg33
I21
sa(dp38
g29
I222
sg30
F0.02604985237121582
sg31
F0.03507399559020996
sg32
I18
sg33
I18
sa(dp39
g29
I190
sg30
F0.0070531368255615234
sg31
F0.036828041076660156
sg32
I16
sg33
I16
sasS'total_cqs'
p40
I33
ssI4
(dp41
S'iters'
p42
I0
sS'meta'
p43
(lp44
sS'total_cqs'
p45
I1
ssI5
(dp46
S'iters'
p47
I0
sS'meta'
p48
(lp49
sS'total_cqs'
p50
I1
ssI6
(dp51
S'iters'
p52
I3
sS'meta'
p53
(lp54
(dp55
S'objective'
p56
I1
sS'query_time'
p57
F31.604193925857544
sS'comp_time'
p58
F0.018451929092407227
sS'exec_cq'
p59
I5
sS'total_cq'
p60
I5
sa(dp61
g56
I4
sg57
F0.0006959438323974609
sg58
F9.734200954437256
sg59
I3
sg60
I3
sa(dp62
g56
I4
sg57
F0.00011682510375976562
sg58
F37.292805194854736
sg59
I2
sg60
I2
sasS'total_cqs'
p63
I5
ssI7
(dp64
S'iters'
p65
I0
sS'meta'
p66
(lp67
sS'total_cqs'
p68
I1
ssI8
(dp69
S'iters'
p70
I2
sS'meta'
p71
(lp72
(dp73
S'objective'
p74
I17
sS'query_time'
p75
F24.255067110061646
sS'comp_time'
p76
F0.3029201030731201
sS'exec_cq'
p77
I6
sS'total_cq'
p78
I6
sa(dp79
g74
I7
sg75
F0.6135900020599365
sg76
F0.10523414611816406
sg77
I5
sg78
I5
sasS'total_cqs'
p80
I6
ssI9
(dp81
S'iters'
p82
I2
sS'meta'
p83
(lp84
(dp85
S'objective'
p86
I1
sS'query_time'
p87
F63.12180805206299
sS'comp_time'
p88
F4.507866859436035
sS'exec_cq'
p89
I6
sS'total_cq'
p90
I6
sa(dp91
g86
I1
sg87
F0.043174028396606445
sg88
F0.361220121383667
sg89
I2
sg90
I2
sasS'total_cqs'
p92
I6
ssI10
(dp93
S'iters'
p94
I0
sS'meta'
p95
(lp96
sS'total_cqs'
p97
I1
ssI11
(dp98
S'iters'
p99
I0
sS'meta'
p100
(lp101
sS'total_cqs'
p102
I1
ssI12
(dp103
S'iters'
p104
I0
sS'meta'
p105
(lp106
sS'total_cqs'
p107
I1
ssI13
(dp108
S'iters'
p109
I1
sS'meta'
p110
(lp111
(dp112
S'objective'
p113
I20
sS'query_time'
p114
F0.05951213836669922
sS'comp_time'
p115
F0.00015807151794433594
sS'exec_cq'
p116
I8
sS'total_cq'
p117
I8
sasS'total_cqs'
p118
I8
ssI14
(dp119
S'iters'
p120
I1
sS'meta'
p121
(lp122
(dp123
S'objective'
p124
I5
sS'query_time'
p125
F2.961380958557129
sS'comp_time'
p126
F0.007311820983886719
sS'exec_cq'
p127
I5
sS'total_cq'
p128
I5
sasS'total_cqs'
p129
I5
ssI16
(dp130
S'iters'
p131
I2
sS'meta'
p132
(lp133
(dp134
S'objective'
p135
I1
sS'query_time'
p136
F3.4361040592193604
sS'comp_time'
p137
F0.0068569183349609375
sS'exec_cq'
p138
I5
sS'total_cq'
p139
I5
sa(dp140
g135
I2
sg136
F6.008148193359375e-05
sg137
F0.00021314620971679688
sg138
I2
sg139
I2
sasS'total_cqs'
p141
I5
ssI17
(dp142
S'iters'
p143
I0
sS'meta'
p144
(lp145
sS'total_cqs'
p146
I1
ssI18
(dp147
S'iters'
p148
I2
sS'meta'
p149
(lp150
(dp151
S'objective'
p152
I1
sS'query_time'
p153
F0.9274418354034424
sS'comp_time'
p154
F0.0002892017364501953
sS'exec_cq'
p155
I5
sS'total_cq'
p156
I5
sa(dp157
g152
I2
sg153
F5.3882598876953125e-05
sg154
F0.00015807151794433594
sg155
I3
sg156
I3
sasS'total_cqs'
p158
I5
ssI19
(dp159
S'iters'
p160
I0
sS'meta'
p161
(lp162
sS'total_cqs'
p163
I1
ssI20
(dp164
S'iters'
p165
I3
sS'meta'
p166
(lp167
(dp168
S'objective'
p169
I48
sS'query_time'
p170
F16.966963052749634
sS'comp_time'
p171
F1.1986749172210693
sS'exec_cq'
p172
I12
sS'total_cq'
p173
I12
sa(dp174
g169
I37
sg170
F0.24902606010437012
sg171
F0.9426290988922119
sg172
I10
sg173
I10
sa(dp175
g169
I26
sg170
F0.1711721420288086
sg171
F0.6582152843475342
sg172
I8
sg173
I8
sasS'total_cqs'
p176
I12
ssI21
(dp177
S'iters'
p178
I3
sS'meta'
p179
(lp180
(dp181
S'objective'
p182
I31
sS'query_time'
p183
F23.122992038726807
sS'comp_time'
p184
F0.274824857711792
sS'exec_cq'
p185
I14
sS'total_cq'
p186
I14
sa(dp187
g182
I36
sg183
F0.022863149642944336
sg184
F0.1635892391204834
sg185
I10
sg186
I10
sa(dp188
g182
I12
sg183
F0.006011009216308594
sg184
F0.02603602409362793
sg185
I2
sg186
I2
sasS'total_cqs'
p189
I14
ssI22
(dp190
S'iters'
p191
I1
sS'meta'
p192
(lp193
(dp194
S'objective'
p195
I1
sS'query_time'
p196
F0.010574102401733398
sS'comp_time'
p197
F0.0001399517059326172
sS'exec_cq'
p198
I2
sS'total_cq'
p199
I2
sasS'total_cqs'
p200
I2
ssI23
(dp201
S'iters'
p202
I0
sS'meta'
p203
(lp204
sS'total_cqs'
p205
I1
ssI24
(dp206
S'iters'
p207
I0
sS'meta'
p208
(lp209
sS'total_cqs'
p210
I1
ssI25
(dp211
S'iters'
p212
I1
sS'meta'
p213
(lp214
(dp215
S'objective'
p216
I14
sS'query_time'
p217
F56.502952098846436
sS'comp_time'
p218
F3.109799861907959
sS'exec_cq'
p219
I7
sS'total_cq'
p220
I7
sasS'total_cqs'
p221
I7
ssI26
(dp222
S'iters'
p223
I3
sS'meta'
p224
(lp225
(dp226
S'objective'
p227
I63
sS'query_time'
p228
F22.7982280254364
sS'comp_time'
p229
F0.021981000900268555
sS'exec_cq'
p230
I13
sS'total_cq'
p231
I13
sa(dp232
g227
I51
sg228
F0.03276515007019043
sg229
F0.011804819107055664
sg230
I11
sg231
I11
sa(dp233
g227
I38
sg228
F0.002724885940551758
sg229
F0.012128114700317383
sg230
I9
sg231
I9
sasS'total_cqs'
p234
I13
ssI27
(dp235
S'iters'
p236
I1
sS'meta'
p237
(lp238
(dp239
S'objective'
p240
I1
sS'query_time'
p241
F0.6225340366363525
sS'comp_time'
p242
F0.0047571659088134766
sS'exec_cq'
p243
I2
sS'total_cq'
p244
I2
sasS'total_cqs'
p245
I2
ssI28
(dp246
S'iters'
p247
I3
sS'meta'
p248
(lp249
(dp250
S'objective'
p251
I47
sS'query_time'
p252
F3.799454927444458
sS'comp_time'
p253
F0.020421266555786133
sS'exec_cq'
p254
I14
sS'total_cq'
p255
I14
sa(dp256
g251
I36
sg252
F0.0026597976684570312
sg253
F0.014735221862792969
sg254
I10
sg255
I10
sa(dp257
g251
I28
sg252
F0.002351999282836914
sg253
F0.032228946685791016
sg254
I7
sg255
I7
sasS'total_cqs'
p258
I14
ssI29
(dp259
S'iters'
p260
I1
sS'meta'
p261
(lp262
(dp263
S'objective'
p264
I1
sS'query_time'
p265
F0.015810012817382812
sS'comp_time'
p266
F0.0001430511474609375
sS'exec_cq'
p267
I2
sS'total_cq'
p268
I2
sasS'total_cqs'
p269
I2
ssI30
(dp270
S'iters'
p271
I1
sS'meta'
p272
(lp273
(dp274
S'objective'
p275
I1
sS'query_time'
p276
F1.523266077041626
sS'comp_time'
p277
F0.005995988845825195
sS'exec_cq'
p278
I2
sS'total_cq'
p279
I2
sasS'total_cqs'
p280
I2
ssI31
(dp281
S'iters'
p282
I2
sS'meta'
p283
(lp284
(dp285
S'objective'
p286
I17
sS'query_time'
p287
F7.7394959926605225
sS'comp_time'
p288
F0.14919018745422363
sS'exec_cq'
p289
I9
sS'total_cq'
p290
I9
sa(dp291
g286
I4
sg287
F0.00735020637512207
sg288
F0.027307987213134766
sg289
I3
sg290
I3
sasS'total_cqs'
p292
I9
ssI32
(dp293
S'iters'
p294
I3
sS'meta'
p295
(lp296
(dp297
S'objective'
p298
I6
sS'query_time'
p299
F25.906079053878784
sS'comp_time'
p300
F2.8574721813201904
sS'exec_cq'
p301
I7
sS'total_cq'
p302
I7
sa(dp303
g298
I1
sg299
F0.28480005264282227
sg300
F1.0076138973236084
sg301
I4
sg302
I4
sa(dp304
g298
I6
sg299
F0.2751920223236084
sg300
F0.9977579116821289
sg301
I2
sg302
I2
sasS'total_cqs'
p305
I7
ssI33
(dp306
S'iters'
p307
I1
sS'meta'
p308
(lp309
(dp310
S'objective'
p311
I1
sS'query_time'
p312
F0.5216720104217529
sS'comp_time'
p313
F0.0001361370086669922
sS'exec_cq'
p314
I2
sS'total_cq'
p315
I2
sasS'total_cqs'
p316
I2
ssI34
(dp317
S'iters'
p318
I0
sS'meta'
p319
(lp320
sS'total_cqs'
p321
I1
ssI35
(dp322
S'iters'
p323
I4
sS'meta'
p324
(lp325
(dp326
S'objective'
p327
I9
sS'query_time'
p328
F32.9207489490509
sS'comp_time'
p329
F0.8734869956970215
sS'exec_cq'
p330
I5
sS'total_cq'
p331
I5
sa(dp332
g327
I8
sg328
F0.08760714530944824
sg329
F0.6636447906494141
sg330
I4
sg331
I4
sa(dp333
g327
I8
sg328
F0.011657953262329102
sg329
F0.7379589080810547
sg330
I3
sg331
I3
sa(dp334
g327
I1
sg328
F0.00067901611328125
sg329
F1.1388897895812988
sg330
I2
sg331
I2
sasS'total_cqs'
p335
I5
ssI37
(dp336
S'iters'
p337
I2
sS'meta'
p338
(lp339
(dp340
S'objective'
p341
I17
sS'query_time'
p342
F3.7385940551757812
sS'comp_time'
p343
F0.11718893051147461
sS'exec_cq'
p344
I10
sS'total_cq'
p345
I10
sa(dp346
g341
I1
sg342
F0.027615070343017578
sg343
F0.0356898307800293
sg344
I3
sg345
I3
sasS'total_cqs'
p347
I10
ssI38
(dp348
S'iters'
p349
I0
sS'meta'
p350
(lp351
sS'total_cqs'
p352
I1
ssI39
(dp353
S'iters'
p354
I0
sS'meta'
p355
(lp356
sS'total_cqs'
p357
I1
ssI40
(dp358
S'iters'
p359
I1
sS'meta'
p360
(lp361
(dp362
S'objective'
p363
I1
sS'query_time'
p364
F19.2126681804657
sS'comp_time'
p365
F3.2787938117980957
sS'exec_cq'
p366
I2
sS'total_cq'
p367
I2
sasS'total_cqs'
p368
I2
ssI41
(dp369
S'iters'
p370
I2
sS'meta'
p371
(lp372
(dp373
S'objective'
p374
I1
sS'query_time'
p375
F15.094197988510132
sS'comp_time'
p376
F1.2760980129241943
sS'exec_cq'
p377
I6
sS'total_cq'
p378
I6
sa(dp379
g374
I2
sg375
F0.0008831024169921875
sg376
F0.0031027793884277344
sg377
I2
sg378
I2
sasS'total_cqs'
p380
I6
ssI42
(dp381
S'iters'
p382
I1
sS'meta'
p383
(lp384
(dp385
S'objective'
p386
I1
sS'query_time'
p387
F20.09078621864319
sS'comp_time'
p388
F2.4450299739837646
sS'exec_cq'
p389
I2
sS'total_cq'
p390
I2
sasS'total_cqs'
p391
I2
ssI43
(dp392
S'iters'
p393
I0
sS'meta'
p394
(lp395
sS'total_cqs'
p396
I1
ssI44
(dp397
S'iters'
p398
I2
sS'meta'
p399
(lp400
(dp401
S'objective'
p402
I5
sS'query_time'
p403
F2.054941177368164
sS'comp_time'
p404
F0.1256098747253418
sS'exec_cq'
p405
I5
sS'total_cq'
p406
I5
sa(dp407
g402
I0
sg403
F0.01957988739013672
sg404
F0.16158103942871094
sg405
I3
sg406
I3
sasS'total_cqs'
p408
I5
ssI45
(dp409
S'iters'
p410
I2
sS'meta'
p411
(lp412
(dp413
S'objective'
p414
I3
sS'query_time'
p415
F0.11135196685791016
sS'comp_time'
p416
F0.0009639263153076172
sS'exec_cq'
p417
I5
sS'total_cq'
p418
I5
sa(dp419
g414
I4
sg415
F0.00014495849609375
sg416
F0.0005350112915039062
sg417
I2
sg418
I2
sasS'total_cqs'
p420
I5
ssI46
(dp421
S'iters'
p422
I0
sS'meta'
p423
(lp424
sS'total_cqs'
p425
I1
ssI47
(dp426
S'iters'
p427
I0
sS'meta'
p428
(lp429
sS'total_cqs'
p430
I1
ssI48
(dp431
S'iters'
p432
I1
sS'meta'
p433
(lp434
(dp435
S'objective'
p436
I1
sS'query_time'
p437
F0.6461808681488037
sS'comp_time'
p438
F0.005995988845825195
sS'exec_cq'
p439
I2
sS'total_cq'
p440
I2
sasS'total_cqs'
p441
I2
ssI49
(dp442
S'iters'
p443
I2
sS'meta'
p444
(lp445
(dp446
S'objective'
p447
I1
sS'query_time'
p448
F0.5288748741149902
sS'comp_time'
p449
F0.002602815628051758
sS'exec_cq'
p450
I5
sS'total_cq'
p451
I5
sa(dp452
g447
I2
sg448
F0.0011050701141357422
sg449
F0.002353191375732422
sg450
I3
sg451
I3
sasS'total_cqs'
p453
I5
ssI50
(dp454
S'iters'
p455
I1
sS'meta'
p456
(lp457
(dp458
S'objective'
p459
I5
sS'query_time'
p460
F2.8696608543395996
sS'comp_time'
p461
F0.0012810230255126953
sS'exec_cq'
p462
I5
sS'total_cq'
p463
I5
sasS'total_cqs'
p464
I5
ssI51
(dp465
S'iters'
p466
I0
sS'meta'
p467
(lp468
sS'total_cqs'
p469
I1
ssI52
(dp470
S'iters'
p471
I0
sS'meta'
p472
(lp473
sS'total_cqs'
p474
I1
ssI53
(dp475
S'iters'
p476
I0
sS'meta'
p477
(lp478
sS'total_cqs'
p479
I1
ssI55
(dp480
S'iters'
p481
I1
sS'meta'
p482
(lp483
(dp484
S'objective'
p485
I1
sS'query_time'
p486
F35.20827603340149
sS'comp_time'
p487
F3.8535211086273193
sS'exec_cq'
p488
I2
sS'total_cq'
p489
I2
sasS'total_cqs'
p490
I2
ssI56
(dp491
S'iters'
p492
I0
sS'meta'
p493
(lp494
sS'total_cqs'
p495
I1
ssI57
(dp496
S'iters'
p497
I2
sS'meta'
p498
(lp499
(dp500
S'objective'
p501
I4
sS'query_time'
p502
F23.46291708946228
sS'comp_time'
p503
F0.14372491836547852
sS'exec_cq'
p504
I3
sS'total_cq'
p505
I3
sa(dp506
g501
I1
sg502
F0.013032913208007812
sg503
F0.02115011215209961
sg504
I2
sg505
I2
sasS'total_cqs'
p507
I3
ssI108
(dp508
S'iters'
p509
I0
sS'meta'
p510
(lp511
sS'total_cqs'
p512
I1
ssI109
(dp513
S'iters'
p514
I0
sS'meta'
p515
(lp516
sS'total_cqs'
p517
I1
ssI116
(dp518
S'iters'
p519
I2
sS'meta'
p520
(lp521
(dp522
S'objective'
p523
I149
sS'query_time'
p524
F6.915210962295532
sS'comp_time'
p525
F0.29373979568481445
sS'exec_cq'
p526
I21
sS'total_cq'
p527
I21
sa(dp528
g523
I1
sg524
F0.0013360977172851562
sg525
F0.004255056381225586
sg526
I3
sg527
I3
sasS'total_cqs'
p529
I21
ssI117
(dp530
S'iters'
p531
I1
sS'meta'
p532
(lp533
(dp534
S'objective'
p535
I5
sS'query_time'
p536
F0.019839048385620117
sS'comp_time'
p537
F0.00010776519775390625
sS'exec_cq'
p538
I5
sS'total_cq'
p539
I5
sasS'total_cqs'
p540
I5
ssI118
(dp541
S'iters'
p542
I0
sS'meta'
p543
(lp544
sS'total_cqs'
p545
I1
ssI122
(dp546
S'iters'
p547
I0
sS'meta'
p548
(lp549
sS'total_cqs'
p550
I1
ss.