(dp0
I1
(dp1
S'iters'
p2
I2
sS'meta'
p3
(lp4
(dp5
S'objective'
p6
I2
sS'query_time'
p7
F24.488404989242554
sS'comp_time'
p8
F1.4512507915496826
sS'exec_cq'
p9
I6
sS'total_cq'
p10
I6
sa(dp11
g6
I0
sg7
F0.009948015213012695
sg8
F269.7891809940338
sg9
I2
sg10
I2
sasS'total_cqs'
p12
I6
ssI2
(dp13
S'iters'
p14
I1
sS'meta'
p15
(lp16
(dp17
S'objective'
p18
I4
sS'query_time'
p19
F0.9287211894989014
sS'comp_time'
p20
F0.1022181510925293
sS'exec_cq'
p21
I6
sS'total_cq'
p22
I6
sasS'total_cqs'
p23
I6
ssI3
(dp24
S'iters'
p25
I10
sS'meta'
p26
(lp27
(dp28
S'objective'
p29
I27
sS'query_time'
p30
F26.2396240234375
sS'comp_time'
p31
F0.24973702430725098
sS'exec_cq'
p32
I33
sS'total_cq'
p33
I33
sa(dp34
g29
I24
sg30
F0.09547114372253418
sg31
F0.24777507781982422
sg32
I30
sg33
I30
sa(dp35
g29
I21
sg30
F0.03849911689758301
sg31
F0.3280341625213623
sg32
I27
sg33
I27
sa(dp36
g29
I18
sg30
F0.0773777961730957
sg31
F0.21809816360473633
sg32
I24
sg33
I24
sa(dp37
g29
I15
sg30
F0.021378040313720703
sg31
F0.1418437957763672
sg32
I21
sg33
I21
sa(dp38
g29
I12
sg30
F0.00890493392944336
sg31
F0.04165315628051758
sg32
I18
sg33
I18
sa(dp39
g29
I9
sg30
F0.005662202835083008
sg31
F0.058618783950805664
sg32
I15
sg33
I15
sa(dp40
g29
I8
sg30
F0.005958080291748047
sg31
F0.0302121639251709
sg32
I12
sg33
I12
sa(dp41
g29
I8
sg30
F0.027232885360717773
sg31
F0.02941584587097168
sg32
I10
sg33
I10
sa(dp42
g29
I7
sg30
F0.0027458667755126953
sg31
F0.015772104263305664
sg32
I9
sg33
I9
sasS'total_cqs'
p43
I33
ssI6
(dp44
S'iters'
p45
I2
sS'meta'
p46
(lp47
(dp48
S'objective'
p49
I1
sS'query_time'
p50
F15.956230878829956
sS'comp_time'
p51
F0.006127119064331055
sS'exec_cq'
p52
I5
sS'total_cq'
p53
I5
sa(dp54
g49
I0
sg50
F0.0005741119384765625
sg51
F0.0033898353576660156
sg52
I2
sg53
I2
sasS'total_cqs'
p55
I5
ssI8
(dp56
S'iters'
p57
I4
sS'meta'
p58
(lp59
(dp60
S'objective'
p61
I4
sS'query_time'
p62
F22.71369504928589
sS'comp_time'
p63
F0.2251451015472412
sS'exec_cq'
p64
I6
sS'total_cq'
p65
I6
sa(dp66
g61
I1
sg62
F1.922165870666504
sg63
F2.1224589347839355
sg64
I5
sg65
I5
sa(dp67
g61
I1
sg62
F21.870107889175415
sg63
F21.70775866508484
sg64
I3
sg65
I3
sa(dp68
g61
I0
sg62
F0.046971797943115234
sg63
F0.044476985931396484
sg64
I2
sg65
I2
sasS'total_cqs'
p69
I6
ssI9
(dp70
S'iters'
p71
I3
sS'meta'
p72
(lp73
(dp74
S'objective'
p75
I0
sS'query_time'
p76
F53.47864580154419
sS'comp_time'
p77
F4.149039030075073
sS'exec_cq'
p78
I6
sS'total_cq'
p79
I6
sa(dp80
g75
I1
sg76
F0.06543207168579102
sg77
F0.5582709312438965
sg78
I3
sg79
I3
sa(dp81
g75
I0
sg76
F0.03964805603027344
sg77
F0.3181650638580322
sg78
I2
sg79
I2
sasS'total_cqs'
p82
I6
ssI13
(dp83
S'iters'
p84
I2
sS'meta'
p85
(lp86
(dp87
S'objective'
p88
I6
sS'query_time'
p89
F0.022499799728393555
sS'comp_time'
p90
F0.0001342296600341797
sS'exec_cq'
p91
I8
sS'total_cq'
p92
I8
sa(dp93
g88
I5
sg89
F3.1948089599609375e-05
sg90
F4.982948303222656e-05
sg91
I7
sg92
I7
sasS'total_cqs'
p94
I8
ssI14
(dp95
S'iters'
p96
I1
sS'meta'
p97
(lp98
(dp99
S'objective'
p100
I3
sS'query_time'
p101
F1.0660109519958496
sS'comp_time'
p102
F0.0071430206298828125
sS'exec_cq'
p103
I5
sS'total_cq'
p104
I5
sasS'total_cqs'
p105
I5
ssI16
(dp106
S'iters'
p107
I3
sS'meta'
p108
(lp109
(dp110
S'objective'
p111
I1
sS'query_time'
p112
F1.865203857421875
sS'comp_time'
p113
F0.006985902786254883
sS'exec_cq'
p114
I5
sS'total_cq'
p115
I5
sa(dp116
g111
I1
sg112
F0.00012612342834472656
sg113
F0.0004858970642089844
sg114
I3
sg115
I3
sa(dp117
g111
I0
sg112
F3.910064697265625e-05
sg113
F0.00018405914306640625
sg114
I2
sg115
I2
sasS'total_cqs'
p118
I5
ssI18
(dp119
S'iters'
p120
I2
sS'meta'
p121
(lp122
(dp123
S'objective'
p124
I1
sS'query_time'
p125
F0.37053608894348145
sS'comp_time'
p126
F0.00033092498779296875
sS'exec_cq'
p127
I5
sS'total_cq'
p128
I5
sa(dp129
g124
I0
sg125
F3.600120544433594e-05
sg126
F0.00014901161193847656
sg127
I2
sg128
I2
sasS'total_cqs'
p130
I5
ssI20
(dp131
S'iters'
p132
I5
sS'meta'
p133
(lp134
(dp135
S'objective'
p136
I8
sS'query_time'
p137
F11.479989051818848
sS'comp_time'
p138
F1.1645879745483398
sS'exec_cq'
p139
I12
sS'total_cq'
p140
I12
sa(dp141
g136
I6
sg137
F0.18618297576904297
sg138
F0.6698269844055176
sg139
I10
sg140
I10
sa(dp142
g136
I4
sg137
F0.1554701328277588
sg138
F0.5921351909637451
sg139
I8
sg140
I8
sa(dp143
g136
I4
sg137
F0.13558602333068848
sg138
F0.4394547939300537
sg139
I6
sg140
I6
sa(dp144
g136
I3
sg137
F0.0008769035339355469
sg138
F0.0033729076385498047
sg139
I5
sg140
I5
sasS'total_cqs'
p145
I12
ssI21
(dp146
S'iters'
p147
I4
sS'meta'
p148
(lp149
(dp150
S'objective'
p151
I6
sS'query_time'
p152
F30.54215097427368
sS'comp_time'
p153
F0.24564099311828613
sS'exec_cq'
p154
I14
sS'total_cq'
p155
I14
sa(dp156
g151
I2
sg152
F0.01739811897277832
sg153
F0.2533760070800781
sg154
I10
sg155
I10
sa(dp157
g151
I2
sg152
F0.017279863357543945
sg153
F0.1309828758239746
sg154
I6
sg155
I6
sa(dp158
g151
I0
sg152
F0.005298137664794922
sg153
F0.019109010696411133
sg154
I2
sg155
I2
sasS'total_cqs'
p159
I14
ssI22
(dp160
S'iters'
p161
I1
sS'meta'
p162
(lp163
(dp164
S'objective'
p165
I0
sS'query_time'
p166
F0.005964040756225586
sS'comp_time'
p167
F0.00012993812561035156
sS'exec_cq'
p168
I2
sS'total_cq'
p169
I2
sasS'total_cqs'
p170
I2
ssI25
(dp171
S'iters'
p172
I4
sS'meta'
p173
(lp174
(dp175
S'objective'
p176
I3
sS'query_time'
p177
F87.36654591560364
sS'comp_time'
p178
F11.133739709854126
sS'exec_cq'
p179
I7
sS'total_cq'
p180
I7
sa(dp181
g176
I1
sg177
F3.166553020477295
sg178
F9.79698896408081
sg179
I5
sg180
I5
sa(dp182
g176
I1
sg177
F2.0505969524383545
sg178
F6.7352399826049805
sg179
I3
sg180
I3
sa(dp183
g176
I0
sg177
F0.0010762214660644531
sg178
F0.006888866424560547
sg179
I2
sg180
I2
sasS'total_cqs'
p184
I7
ssI26
(dp185
S'iters'
p186
I9
sS'meta'
p187
(lp188
(dp189
S'objective'
p190
I9
sS'query_time'
p191
F24.31692099571228
sS'comp_time'
p192
F4.125556945800781
sS'exec_cq'
p193
I13
sS'total_cq'
p194
I13
sa(dp195
g190
I7
sg191
F0.8821849822998047
sg192
F3.227318286895752
sg193
I11
sg194
I11
sa(dp196
g190
I5
sg191
F0.7767970561981201
sg192
F2.9390158653259277
sg193
I9
sg194
I9
sa(dp197
g190
I5
sg191
F0.8445229530334473
sg192
F3.1609599590301514
sg193
I7
sg194
I7
sa(dp198
g190
I4
sg191
F0.0019490718841552734
sg192
F0.006762027740478516
sg193
I6
sg194
I6
sa(dp199
g190
I3
sg191
F0.0012309551239013672
sg192
F0.005750894546508789
sg193
I5
sg194
I5
sa(dp200
g190
I2
sg191
F0.0009648799896240234
sg192
F0.005611896514892578
sg193
I4
sg194
I4
sa(dp201
g190
I1
sg191
F0.0003650188446044922
sg192
F0.0020809173583984375
sg193
I3
sg194
I3
sa(dp202
g190
I0
sg191
F0.00018405914306640625
sg192
F0.0009560585021972656
sg193
I2
sg194
I2
sasS'total_cqs'
p203
I13
ssI27
(dp204
S'iters'
p205
I1
sS'meta'
p206
(lp207
(dp208
S'objective'
p209
I0
sS'query_time'
p210
F0.1482560634613037
sS'comp_time'
p211
F0.004783153533935547
sS'exec_cq'
p212
I2
sS'total_cq'
p213
I2
sasS'total_cqs'
p214
I2
ssI28
(dp215
S'iters'
p216
I6
sS'meta'
p217
(lp218
(dp219
S'objective'
p220
I6
sS'query_time'
p221
F1.605860948562622
sS'comp_time'
p222
F0.020050048828125
sS'exec_cq'
p223
I14
sS'total_cq'
p224
I14
sa(dp225
g220
I4
sg221
F0.0026750564575195312
sg222
F0.014275074005126953
sg223
I10
sg224
I10
sa(dp226
g220
I3
sg221
F0.0024688243865966797
sg222
F0.0355381965637207
sg223
I7
sg224
I7
sa(dp227
g220
I3
sg221
F0.002605915069580078
sg222
F0.012148141860961914
sg223
I5
sg224
I5
sa(dp228
g220
I2
sg221
F0.0021331310272216797
sg222
F0.011193037033081055
sg223
I4
sg224
I4
sa(dp229
g220
I1
sg221
F2.6941299438476562e-05
sg222
F7.390975952148438e-05
sg223
I3
sg224
I3
sasS'total_cqs'
p230
I14
ssI29
(dp231
S'iters'
p232
I1
sS'meta'
p233
(lp234
(dp235
S'objective'
p236
I0
sS'query_time'
p237
F0.006225109100341797
sS'comp_time'
p238
F0.00012183189392089844
sS'exec_cq'
p239
I2
sS'total_cq'
p240
I2
sasS'total_cqs'
p241
I2
ssI30
(dp242
S'iters'
p243
I1
sS'meta'
p244
(lp245
(dp246
S'objective'
p247
I0
sS'query_time'
p248
F0.3477160930633545
sS'comp_time'
p249
F0.0060100555419921875
sS'exec_cq'
p250
I2
sS'total_cq'
p251
I2
sasS'total_cqs'
p252
I2
ssI31
(dp253
S'iters'
p254
I3
sS'meta'
p255
(lp256
(dp257
S'objective'
p258
I3
sS'query_time'
p259
F6.112796068191528
sS'comp_time'
p260
F0.17281579971313477
sS'exec_cq'
p261
I9
sS'total_cq'
p262
I9
sa(dp263
g258
I1
sg259
F0.007211923599243164
sg260
F0.02701711654663086
sg261
I3
sg262
I3
sa(dp264
g258
I0
sg259
F0.0026009082794189453
sg260
F0.012826919555664062
sg261
I2
sg262
I2
sasS'total_cqs'
p265
I9
ssI32
(dp266
S'iters'
p267
I3
sS'meta'
p268
(lp269
(dp270
S'objective'
p271
I1
sS'query_time'
p272
F19.46412491798401
sS'comp_time'
p273
F2.688861846923828
sS'exec_cq'
p274
I7
sS'total_cq'
p275
I7
sa(dp276
g271
I0
sg272
F0.03829598426818848
sg273
F0.38413166999816895
sg274
I4
sg275
I4
sa(dp277
g271
I0
sg272
F0.08801889419555664
sg273
F0.19999933242797852
sg274
I2
sg275
I2
sasS'total_cqs'
p278
I7
ssI33
(dp279
S'iters'
p280
I1
sS'meta'
p281
(lp282
(dp283
S'objective'
p284
I0
sS'query_time'
p285
F0.025815963745117188
sS'comp_time'
p286
F0.00015306472778320312
sS'exec_cq'
p287
I2
sS'total_cq'
p288
I2
sasS'total_cqs'
p289
I2
ssI35
(dp290
S'iters'
p291
I3
sS'meta'
p292
(lp293
(dp294
S'objective'
p295
I1
sS'query_time'
p296
F16.48748207092285
sS'comp_time'
p297
F0.24169206619262695
sS'exec_cq'
p298
I5
sS'total_cq'
p299
I5
sa(dp300
g295
I1
sg296
F0.04692983627319336
sg297
F0.1833181381225586
sg298
I3
sg299
I3
sa(dp301
g295
I0
sg296
F0.012601852416992188
sg297
F0.06098294258117676
sg298
I2
sg299
I2
sasS'total_cqs'
p302
I5
ssI37
(dp303
S'iters'
p304
I3
sS'meta'
p305
(lp306
(dp307
S'objective'
p308
I4
sS'query_time'
p309
F2.3724470138549805
sS'comp_time'
p310
F0.10712623596191406
sS'exec_cq'
p311
I10
sS'total_cq'
p312
I10
sa(dp313
g308
I1
sg309
F0.026160001754760742
sg310
F0.03429293632507324
sg311
I3
sg312
I3
sa(dp314
g308
I0
sg309
F0.002847909927368164
sg310
F0.011080026626586914
sg311
I2
sg312
I2
sasS'total_cqs'
p315
I10
ssI40
(dp316
S'iters'
p317
I1
sS'meta'
p318
(lp319
(dp320
S'objective'
p321
I0
sS'query_time'
p322
F17.047818899154663
sS'comp_time'
p323
F2.436344861984253
sS'exec_cq'
p324
I2
sS'total_cq'
p325
I2
sasS'total_cqs'
p326
I2
ssI41
(dp327
S'iters'
p328
I3
sS'meta'
p329
(lp330
(dp331
S'objective'
p332
I0
sS'query_time'
p333
F12.079111099243164
sS'comp_time'
p334
F1.166977882385254
sS'exec_cq'
p335
I6
sS'total_cq'
p336
I6
sa(dp337
g332
I1
sg333
F0.001859903335571289
sg334
F0.006512880325317383
sg335
I3
sg336
I3
sa(dp338
g332
I0
sg333
F0.0006630420684814453
sg334
F0.0033478736877441406
sg335
I2
sg336
I2
sasS'total_cqs'
p339
I6
ssI42
(dp340
S'iters'
p341
I1
sS'meta'
p342
(lp343
(dp344
S'objective'
p345
I0
sS'query_time'
p346
F17.20935893058777
sS'comp_time'
p347
F2.4573299884796143
sS'exec_cq'
p348
I2
sS'total_cq'
p349
I2
sasS'total_cqs'
p350
I2
ssI44
(dp351
S'iters'
p352
I3
sS'meta'
p353
(lp354
(dp355
S'objective'
p356
I1
sS'query_time'
p357
F1.5536220073699951
sS'comp_time'
p358
F0.10923290252685547
sS'exec_cq'
p359
I5
sS'total_cq'
p360
I5
sa(dp361
g356
I1
sg357
F0.02050495147705078
sg358
F0.16611385345458984
sg359
I3
sg360
I3
sa(dp362
g356
I0
sg357
F9.608268737792969e-05
sg358
F0.0003161430358886719
sg359
I2
sg360
I2
sasS'total_cqs'
p363
I5
ssI45
(dp364
S'iters'
p365
I2
sS'meta'
p366
(lp367
(dp368
S'objective'
p369
I1
sS'query_time'
p370
F0.04518389701843262
sS'comp_time'
p371
F0.0006239414215087891
sS'exec_cq'
p372
I5
sS'total_cq'
p373
I5
sa(dp374
g369
I0
sg370
F0.00014019012451171875
sg371
F0.0005979537963867188
sg372
I2
sg373
I2
sasS'total_cqs'
p375
I5
ssI48
(dp376
S'iters'
p377
I1
sS'meta'
p378
(lp379
(dp380
S'objective'
p381
I0
sS'query_time'
p382
F0.10570311546325684
sS'comp_time'
p383
F0.0059130191802978516
sS'exec_cq'
p384
I2
sS'total_cq'
p385
I2
sasS'total_cqs'
p386
I2
ssI49
(dp387
S'iters'
p388
I3
sS'meta'
p389
(lp390
(dp391
S'objective'
p392
I1
sS'query_time'
p393
F0.255018949508667
sS'comp_time'
p394
F0.006443023681640625
sS'exec_cq'
p395
I5
sS'total_cq'
p396
I5
sa(dp397
g392
I1
sg393
F0.00032401084899902344
sg394
F0.001291036605834961
sg395
I3
sg396
I3
sa(dp398
g392
I0
sg393
F2.5987625122070312e-05
sg394
F0.00010776519775390625
sg395
I2
sg396
I2
sasS'total_cqs'
p399
I5
ssI50
(dp400
S'iters'
p401
I2
sS'meta'
p402
(lp403
(dp404
S'objective'
p405
I3
sS'query_time'
p406
F0.9465348720550537
sS'comp_time'
p407
F0.0012509822845458984
sS'exec_cq'
p408
I5
sS'total_cq'
p409
I5
sa(dp410
g405
I2
sg406
F0.00014901161193847656
sg407
F0.0010800361633300781
sg408
I4
sg409
I4
sasS'total_cqs'
p411
I5
ssI55
(dp412
S'iters'
p413
I1
sS'meta'
p414
(lp415
(dp416
S'objective'
p417
I0
sS'query_time'
p418
F26.396212100982666
sS'comp_time'
p419
F3.980448007583618
sS'exec_cq'
p420
I2
sS'total_cq'
p421
I2
sasS'total_cqs'
p422
I2
ssI57
(dp423
S'iters'
p424
I1
sS'meta'
p425
(lp426
(dp427
S'objective'
p428
I1
sS'query_time'
p429
F13.772365093231201
sS'comp_time'
p430
F1.6483962535858154
sS'exec_cq'
p431
I3
sS'total_cq'
p432
I3
sasS'total_cqs'
p433
I3
ssI116
(dp434
S'iters'
p435
I3
sS'meta'
p436
(lp437
(dp438
S'objective'
p439
I15
sS'query_time'
p440
F5.263381004333496
sS'comp_time'
p441
F0.290057897567749
sS'exec_cq'
p442
I21
sS'total_cq'
p443
I21
sa(dp444
g439
I1
sg440
F0.0013859272003173828
sg441
F0.004119873046875
sg442
I3
sg443
I3
sa(dp445
g439
I0
sg440
F0.0007078647613525391
sg441
F0.00263214111328125
sg442
I2
sg443
I2
sasS'total_cqs'
p446
I21
ssI117
(dp447
S'iters'
p448
I1
sS'meta'
p449
(lp450
(dp451
S'objective'
p452
I3
sS'query_time'
p453
F0.020055055618286133
sS'comp_time'
p454
F0.00011801719665527344
sS'exec_cq'
p455
I5
sS'total_cq'
p456
I5
sasS'total_cqs'
p457
I5
ss.