(dp0
I1
(dp1
S'iters'
p2
I2
sS'meta'
p3
(lp4
(dp5
S'objective'
p6
I2
sS'query_time'
p7
F46.46434688568115
sS'comp_time'
p8
F1.4385709762573242
sS'exec_cq'
p9
I5
sS'total_cq'
p10
I6
sa(dp11
g6
I2
sg7
F0.29651522636413574
sg8
F0.6096251010894775
sg9
I3
sg10
I4
sasS'total_cqs'
p12
I6
ssI2
(dp13
S'iters'
p14
I1
sS'meta'
p15
(lp16
(dp17
S'objective'
p18
I4
sS'query_time'
p19
F1.1503052711486816
sS'comp_time'
p20
F0.15051603317260742
sS'exec_cq'
p21
I6
sS'total_cq'
p22
I6
sasS'total_cqs'
p23
I6
ssI3
(dp24
S'iters'
p25
I15
sS'meta'
p26
(lp27
(dp28
S'objective'
p29
I27
sS'query_time'
p30
F26.455654621124268
sS'comp_time'
p31
F0.5387489795684814
sS'exec_cq'
p32
I33
sS'total_cq'
p33
I33
sa(dp34
g29
I24
sg30
F0.026940107345581055
sg31
F0.12159967422485352
sg32
I30
sg33
I30
sa(dp35
g29
I21
sg30
F0.11196017265319824
sg31
F0.05387735366821289
sg32
I27
sg33
I27
sa(dp36
g29
I18
sg30
F0.019099950790405273
sg31
F0.1512010097503662
sg32
I24
sg33
I24
sa(dp37
g29
I15
sg30
F0.016592979431152344
sg31
F0.11030077934265137
sg32
I21
sg33
I21
sa(dp38
g29
I12
sg30
F0.007024049758911133
sg31
F0.014330148696899414
sg32
I18
sg33
I18
sa(dp39
g29
I9
sg30
F0.007080078125
sg31
F0.013165950775146484
sg32
I15
sg33
I15
sa(dp40
g29
I8
sg30
F0.06333231925964355
sg31
F0.01312875747680664
sg32
I12
sg33
I12
sa(dp41
g29
I8
sg30
F0.0051212310791015625
sg31
F0.012817144393920898
sg32
I10
sg33
I10
sa(dp42
g29
I7
sg30
F0.005033254623413086
sg31
F0.012682914733886719
sg32
I9
sg33
I9
sa(dp43
g29
I6
sg30
F0.00513005256652832
sg31
F0.0714101791381836
sg32
I8
sg33
I8
sa(dp44
g29
I5
sg30
F0.003360271453857422
sg31
F0.005936145782470703
sg32
I7
sg33
I7
sa(dp45
g29
I4
sg30
F0.002618074417114258
sg31
F0.0066297054290771484
sg32
I6
sg33
I6
sa(dp46
g29
I3
sg30
F0.0028412342071533203
sg31
F0.004834175109863281
sg32
I5
sg33
I5
sa(dp47
g29
I2
sg30
F0.002191781997680664
sg31
F0.005097866058349609
sg32
I4
sg33
I4
sasS'total_cqs'
p48
I33
ssI6
(dp49
S'iters'
p50
I2
sS'meta'
p51
(lp52
(dp53
S'objective'
p54
I1
sS'query_time'
p55
F14.21958303451538
sS'comp_time'
p56
F0.0039098262786865234
sS'exec_cq'
p57
I4
sS'total_cq'
p58
I5
sa(dp59
g54
I0
sg55
F0.0002579689025878906
sg56
F0.0003151893615722656
sg57
I2
sg58
I2
sasS'total_cqs'
p60
I5
ssI8
(dp61
S'iters'
p62
I3
sS'meta'
p63
(lp64
(dp65
S'objective'
p66
I4
sS'query_time'
p67
F43.01073908805847
sS'comp_time'
p68
F0.12844133377075195
sS'exec_cq'
p69
I6
sS'total_cq'
p70
I6
sa(dp71
g66
I3
sg67
F41.543811321258545
sg68
F0.00021791458129882812
sg69
I5
sg70
I5
sa(dp72
g66
I2
sg67
F0.09879779815673828
sg68
F0.0001628398895263672
sg69
I4
sg70
I4
sasS'total_cqs'
p73
I6
ssI9
(dp74
S'iters'
p75
I3
sS'meta'
p76
(lp77
(dp78
S'objective'
p79
I0
sS'query_time'
p80
F10.78201699256897
sS'comp_time'
p81
F0.04650616645812988
sS'exec_cq'
p82
I3
sS'total_cq'
p83
I6
sa(dp84
g79
I1
sg80
F0.043099164962768555
sg81
F0.15428471565246582
sg82
I3
sg83
I3
sa(dp85
g79
I0
sg80
F0.00836491584777832
sg81
F0.012809991836547852
sg82
I2
sg83
I2
sasS'total_cqs'
p86
I6
ssI13
(dp87
S'iters'
p88
I1
sS'meta'
p89
(lp90
(dp91
S'objective'
p92
I6
sS'query_time'
p93
F0.01894688606262207
sS'comp_time'
p94
F0.008267641067504883
sS'exec_cq'
p95
I7
sS'total_cq'
p96
I8
sasS'total_cqs'
p97
I8
ssI14
(dp98
S'iters'
p99
I1
sS'meta'
p100
(lp101
(dp102
S'objective'
p103
I3
sS'query_time'
p104
F1.033308982849121
sS'comp_time'
p105
F0.0037925243377685547
sS'exec_cq'
p106
I5
sS'total_cq'
p107
I5
sasS'total_cqs'
p108
I5
ssI16
(dp109
S'iters'
p110
I3
sS'meta'
p111
(lp112
(dp113
S'objective'
p114
I1
sS'query_time'
p115
F1.6793749332427979
sS'comp_time'
p116
F0.0063629150390625
sS'exec_cq'
p117
I4
sS'total_cq'
p118
I5
sa(dp119
g114
I1
sg115
F0.04979991912841797
sg116
F0.00013709068298339844
sg117
I1
sg118
I3
sa(dp120
g114
I0
sg115
F5.507469177246094e-05
sg116
F0.00010395050048828125
sg117
I2
sg118
I2
sasS'total_cqs'
p121
I5
ssI18
(dp122
S'iters'
p123
I3
sS'meta'
p124
(lp125
(dp126
S'objective'
p127
I1
sS'query_time'
p128
F0.2540299892425537
sS'comp_time'
p129
F0.0036590099334716797
sS'exec_cq'
p130
I4
sS'total_cq'
p131
I5
sa(dp132
g127
I1
sg128
F0.04392290115356445
sg129
F0.00015282630920410156
sg130
I1
sg131
I3
sa(dp133
g127
I0
sg128
F5.3882598876953125e-05
sg129
F9.584426879882812e-05
sg130
I2
sg131
I2
sasS'total_cqs'
p134
I5
ssI20
(dp135
S'iters'
p136
I5
sS'meta'
p137
(lp138
(dp139
S'objective'
p140
I8
sS'query_time'
p141
F12.062033891677856
sS'comp_time'
p142
F0.8187308311462402
sS'exec_cq'
p143
I10
sS'total_cq'
p144
I12
sa(dp145
g140
I6
sg141
F0.24950194358825684
sg142
F0.5289061069488525
sg143
I8
sg144
I10
sa(dp146
g140
I4
sg141
F0.19296884536743164
sg142
F0.4144766330718994
sg143
I6
sg144
I8
sa(dp147
g140
I4
sg141
F0.14213085174560547
sg142
F0.4407930374145508
sg143
I5
sg144
I6
sa(dp148
g140
I3
sg141
F0.18710780143737793
sg142
F0.37192702293395996
sg143
I4
sg144
I5
sasS'total_cqs'
p149
I12
ssI21
(dp150
S'iters'
p151
I3
sS'meta'
p152
(lp153
(dp154
S'objective'
p155
I8
sS'query_time'
p156
F60.49270820617676
sS'comp_time'
p157
F0.9755463600158691
sS'exec_cq'
p158
I12
sS'total_cq'
p159
I14
sa(dp160
g155
I7
sg156
F0.11352300643920898
sg157
F0.06486916542053223
sg158
I8
sg159
I11
sa(dp161
g155
I7
sg156
F0.03314781188964844
sg157
F0.025660991668701172
sg158
I7
sg159
I9
sasS'total_cqs'
p162
I14
ssI22
(dp163
S'iters'
p164
I1
sS'meta'
p165
(lp166
(dp167
S'objective'
p168
I0
sS'query_time'
p169
F0.0042760372161865234
sS'comp_time'
p170
F0.0011010169982910156
sS'exec_cq'
p171
I1
sS'total_cq'
p172
I2
sasS'total_cqs'
p173
I2
ssI25
(dp174
S'iters'
p175
I3
sS'meta'
p176
(lp177
(dp178
S'objective'
p179
I3
sS'query_time'
p180
F50.753851890563965
sS'comp_time'
p181
F2.2962400913238525
sS'exec_cq'
p182
I6
sS'total_cq'
p183
I7
sa(dp184
g179
I1
sg180
F0.6978471279144287
sg181
F2.3101298809051514
sg182
I4
sg183
I5
sa(dp185
g179
I1
sg180
F0.33559393882751465
sg181
F0.0005581378936767578
sg182
I3
sg183
I3
sasS'total_cqs'
p186
I7
ssI26
(dp187
S'iters'
p188
I8
sS'meta'
p189
(lp190
(dp191
S'objective'
p192
I9
sS'query_time'
p193
F20.165162801742554
sS'comp_time'
p194
F2.3380141258239746
sS'exec_cq'
p195
I9
sS'total_cq'
p196
I13
sa(dp197
g192
I7
sg193
F4.460491895675659
sg194
F2.1832118034362793
sg195
I9
sg196
I11
sa(dp198
g192
I5
sg193
F0.6593019962310791
sg194
F2.1032302379608154
sg195
I7
sg196
I9
sa(dp199
g192
I5
sg193
F0.7442789077758789
sg194
F2.7674877643585205
sg195
I6
sg196
I7
sa(dp200
g192
I4
sg193
F0.8312520980834961
sg194
F2.36554217338562
sg195
I5
sg196
I6
sa(dp201
g192
I3
sg193
F0.7386178970336914
sg194
F2.1077332496643066
sg195
I4
sg196
I5
sa(dp202
g192
I2
sg193
F1.0205662250518799
sg194
F2.218255043029785
sg195
I3
sg196
I4
sa(dp203
g192
I1
sg193
F0.8140590190887451
sg194
F1.889369249343872
sg195
I3
sg196
I3
sasS'total_cqs'
p204
I13
ssI27
(dp205
S'iters'
p206
I1
sS'meta'
p207
(lp208
(dp209
S'objective'
p210
I0
sS'query_time'
p211
F0.19248509407043457
sS'comp_time'
p212
F0.0022170543670654297
sS'exec_cq'
p213
I1
sS'total_cq'
p214
I2
sasS'total_cqs'
p215
I2
ssI28
(dp216
S'iters'
p217
I3
sS'meta'
p218
(lp219
(dp220
S'objective'
p221
I8
sS'query_time'
p222
F1.6756739616394043
sS'comp_time'
p223
F0.06905174255371094
sS'exec_cq'
p224
I6
sS'total_cq'
p225
I14
sa(dp226
g221
I7
sg222
F0.010196208953857422
sg223
F0.007909059524536133
sg224
I5
sg225
I11
sa(dp227
g221
I7
sg222
F0.002610921859741211
sg223
F0.00012874603271484375
sg224
I3
sg225
I9
sasS'total_cqs'
p228
I14
ssI29
(dp229
S'iters'
p230
I1
sS'meta'
p231
(lp232
(dp233
S'objective'
p234
I0
sS'query_time'
p235
F0.009181976318359375
sS'comp_time'
p236
F0.0018258094787597656
sS'exec_cq'
p237
I2
sS'total_cq'
p238
I2
sasS'total_cqs'
p239
I2
ssI30
(dp240
S'iters'
p241
I1
sS'meta'
p242
(lp243
(dp244
S'objective'
p245
I0
sS'query_time'
p246
F0.363048791885376
sS'comp_time'
p247
F0.0019068717956542969
sS'exec_cq'
p248
I2
sS'total_cq'
p249
I2
sasS'total_cqs'
p250
I2
ssI31
(dp251
S'iters'
p252
I3
sS'meta'
p253
(lp254
(dp255
S'objective'
p256
I3
sS'query_time'
p257
F5.439414024353027
sS'comp_time'
p258
F0.06658029556274414
sS'exec_cq'
p259
I9
sS'total_cq'
p260
I9
sa(dp261
g256
I1
sg257
F0.0069429874420166016
sg258
F0.008743047714233398
sg259
I3
sg260
I3
sa(dp262
g256
I0
sg257
F0.0064890384674072266
sg258
F0.009412288665771484
sg259
I2
sg260
I2
sasS'total_cqs'
p263
I9
ssI32
(dp264
S'iters'
p265
I3
sS'meta'
p266
(lp267
(dp268
S'objective'
p269
I1
sS'query_time'
p270
F18.790464878082275
sS'comp_time'
p271
F1.881756067276001
sS'exec_cq'
p272
I4
sS'total_cq'
p273
I7
sa(dp274
g269
I0
sg270
F1.1953229904174805
sg271
F0.002886056900024414
sg272
I2
sg273
I4
sa(dp275
g269
I0
sg270
F0.24846386909484863
sg271
F0.23333334922790527
sg272
I1
sg273
I2
sasS'total_cqs'
p276
I7
ssI33
(dp277
S'iters'
p278
I1
sS'meta'
p279
(lp280
(dp281
S'objective'
p282
I0
sS'query_time'
p283
F0.02765512466430664
sS'comp_time'
p284
F0.001402139663696289
sS'exec_cq'
p285
I2
sS'total_cq'
p286
I2
sasS'total_cqs'
p287
I2
ssI35
(dp288
S'iters'
p289
I2
sS'meta'
p290
(lp291
(dp292
S'objective'
p293
I1
sS'query_time'
p294
F15.493700981140137
sS'comp_time'
p295
F0.10508990287780762
sS'exec_cq'
p296
I4
sS'total_cq'
p297
I5
sa(dp298
g293
I0
sg294
F0.014071941375732422
sg295
F0.15340828895568848
sg296
I2
sg297
I2
sasS'total_cqs'
p299
I5
ssI37
(dp300
S'iters'
p301
I2
sS'meta'
p302
(lp303
(dp304
S'objective'
p305
I6
sS'query_time'
p306
F1.7404420375823975
sS'comp_time'
p307
F0.03987288475036621
sS'exec_cq'
p308
I8
sS'total_cq'
p309
I10
sa(dp310
g305
I0
sg306
F0.004315853118896484
sg307
F0.12195515632629395
sg308
I2
sg309
I2
sasS'total_cqs'
p311
I10
ssI40
(dp312
S'iters'
p313
I1
sS'meta'
p314
(lp315
(dp316
S'objective'
p317
I0
sS'query_time'
p318
F0.003222942352294922
sS'comp_time'
p319
F0.0010325908660888672
sS'exec_cq'
p320
I1
sS'total_cq'
p321
I2
sasS'total_cqs'
p322
I2
ssI41
(dp323
S'iters'
p324
I2
sS'meta'
p325
(lp326
(dp327
S'objective'
p328
I2
sS'query_time'
p329
F11.410069942474365
sS'comp_time'
p330
F0.6596498489379883
sS'exec_cq'
p331
I5
sS'total_cq'
p332
I6
sa(dp333
g328
I0
sg329
F0.0008459091186523438
sg330
F0.0009860992431640625
sg331
I2
sg332
I2
sasS'total_cqs'
p334
I6
ssI42
(dp335
S'iters'
p336
I1
sS'meta'
p337
(lp338
(dp339
S'objective'
p340
I0
sS'query_time'
p341
F0.011529922485351562
sS'comp_time'
p342
F0.0010440349578857422
sS'exec_cq'
p343
I1
sS'total_cq'
p344
I2
sasS'total_cqs'
p345
I2
ssI44
(dp346
S'iters'
p347
I2
sS'meta'
p348
(lp349
(dp350
S'objective'
p351
I1
sS'query_time'
p352
F1.5688071250915527
sS'comp_time'
p353
F0.034381866455078125
sS'exec_cq'
p354
I4
sS'total_cq'
p355
I5
sa(dp356
g351
I1
sg352
F0.08482480049133301
sg353
F0.03469681739807129
sg354
I3
sg355
I3
sasS'total_cqs'
p357
I5
ssI45
(dp358
S'iters'
p359
I2
sS'meta'
p360
(lp361
(dp362
S'objective'
p363
I1
sS'query_time'
p364
F0.03680586814880371
sS'comp_time'
p365
F0.0028967857360839844
sS'exec_cq'
p366
I3
sS'total_cq'
p367
I5
sa(dp368
g363
I0
sg364
F0.00019693374633789062
sg365
F0.0002529621124267578
sg366
I2
sg367
I2
sasS'total_cqs'
p369
I5
ssI48
(dp370
S'iters'
p371
I1
sS'meta'
p372
(lp373
(dp374
S'objective'
p375
I0
sS'query_time'
p376
F0.2480010986328125
sS'comp_time'
p377
F0.0025005340576171875
sS'exec_cq'
p378
I2
sS'total_cq'
p379
I2
sasS'total_cqs'
p380
I2
ssI49
(dp381
S'iters'
p382
I3
sS'meta'
p383
(lp384
(dp385
S'objective'
p386
I1
sS'query_time'
p387
F0.25949811935424805
sS'comp_time'
p388
F0.0033500194549560547
sS'exec_cq'
p389
I4
sS'total_cq'
p390
I5
sa(dp391
g386
I1
sg387
F0.03479599952697754
sg388
F0.0002601146697998047
sg389
I3
sg390
I3
sa(dp392
g386
I0
sg387
F2.5987625122070312e-05
sg388
F6.604194641113281e-05
sg389
I2
sg390
I2
sasS'total_cqs'
p393
I5
ssI50
(dp394
S'iters'
p395
I1
sS'meta'
p396
(lp397
(dp398
S'objective'
p399
I3
sS'query_time'
p400
F0.8897120952606201
sS'comp_time'
p401
F0.05416274070739746
sS'exec_cq'
p402
I5
sS'total_cq'
p403
I5
sasS'total_cqs'
p404
I5
ssI55
(dp405
S'iters'
p406
I1
sS'meta'
p407
(lp408
(dp409
S'objective'
p410
I0
sS'query_time'
p411
F25.024364948272705
sS'comp_time'
p412
F0.018684864044189453
sS'exec_cq'
p413
I2
sS'total_cq'
p414
I2
sasS'total_cqs'
p415
I2
ssI57
(dp416
S'iters'
p417
I2
sS'meta'
p418
(lp419
(dp420
S'objective'
p421
I1
sS'query_time'
p422
F12.406806945800781
sS'comp_time'
p423
F1.1648638248443604
sS'exec_cq'
p424
I3
sS'total_cq'
p425
I3
sa(dp426
g421
I0
sg422
F0.2528538703918457
sg423
F0.370988130569458
sg424
I1
sg425
I2
sasS'total_cqs'
p427
I3
ssI116
(dp428
S'iters'
p429
I2
sS'meta'
p430
(lp431
(dp432
S'objective'
p433
I17
sS'query_time'
p434
F4.4582679271698
sS'comp_time'
p435
F0.30570101737976074
sS'exec_cq'
p436
I17
sS'total_cq'
p437
I21
sa(dp438
g433
I0
sg434
F0.0011019706726074219
sg435
F0.0009429454803466797
sg436
I2
sg437
I2
sasS'total_cqs'
p439
I21
ssI117
(dp440
S'iters'
p441
I1
sS'meta'
p442
(lp443
(dp444
S'objective'
p445
I3
sS'query_time'
p446
F0.012822151184082031
sS'comp_time'
p447
F0.0018002986907958984
sS'exec_cq'
p448
I5
sS'total_cq'
p449
I5
sasS'total_cqs'
p450
I5
ss.