(dp0
I1
(dp1
S'iters'
p2
I4
sS'meta'
p3
(lp4
(dp5
S'objective'
p6
I9
sS'query_time'
p7
F47.3679621219635
sS'comp_time'
p8
F1.3788986206054688
sS'exec_cq'
p9
I5
sS'total_cq'
p10
I6
sa(dp11
g6
I7
sg7
F0.34854984283447266
sg8
F0.6155922412872314
sg9
I2
sg10
I4
sa(dp12
g6
I1
sg7
F0.0018718242645263672
sg8
F4.982948303222656e-05
sg9
I1
sg10
I3
sa(dp13
g6
I1
sg7
F0.011870861053466797
sg8
F0.007335186004638672
sg9
I1
sg10
I2
sasS'total_cqs'
p14
I6
ssI2
(dp15
S'iters'
p16
I1
sS'meta'
p17
(lp18
(dp19
S'objective'
p20
I15
sS'query_time'
p21
F1.0712130069732666
sS'comp_time'
p22
F0.042337894439697266
sS'exec_cq'
p23
I5
sS'total_cq'
p24
I6
sasS'total_cqs'
p25
I6
ssI3
(dp26
S'iters'
p27
I14
sS'meta'
p28
(lp29
(dp30
S'objective'
p31
I391
sS'query_time'
p32
F26.186940908432007
sS'comp_time'
p33
F0.23462891578674316
sS'exec_cq'
p34
I33
sS'total_cq'
p35
I33
sa(dp36
g31
I350
sg32
F0.022410869598388672
sg33
F0.11783099174499512
sg34
I30
sg35
I30
sa(dp37
g31
I289
sg32
F0.0802762508392334
sg33
F0.03625082969665527
sg34
I27
sg35
I27
sa(dp38
g31
I271
sg32
F0.01688218116760254
sg33
F0.10300588607788086
sg34
I24
sg35
I24
sa(dp39
g31
I247
sg32
F0.017145633697509766
sg33
F0.10097575187683105
sg34
I21
sg35
I21
sa(dp40
g31
I217
sg32
F0.017041921615600586
sg33
F0.10939192771911621
sg34
I19
sg35
I19
sa(dp41
g31
I194
sg32
F0.0067861080169677734
sg33
F0.014507770538330078
sg34
I16
sg35
I16
sa(dp42
g31
I175
sg32
F0.0038788318634033203
sg33
F0.0069370269775390625
sg34
I15
sg35
I15
sa(dp43
g31
I156
sg32
F0.0045511722564697266
sg33
F0.0065155029296875
sg34
I14
sg35
I14
sa(dp44
g31
I137
sg32
F0.0035529136657714844
sg33
F0.006846427917480469
sg34
I13
sg35
I13
sa(dp45
g31
I127
sg32
F0.003512144088745117
sg33
F0.007930755615234375
sg34
I12
sg35
I12
sa(dp46
g31
I116
sg32
F0.0027370452880859375
sg33
F0.06266403198242188
sg34
I10
sg35
I11
sa(dp47
g31
I107
sg32
F0.002926349639892578
sg33
F0.004540205001831055
sg34
I8
sg35
I8
sa(dp48
g31
I98
sg32
F0.0022308826446533203
sg33
F0.004965066909790039
sg34
I7
sg35
I7
sasS'total_cqs'
p49
I33
ssI4
(dp50
S'iters'
p51
I0
sS'meta'
p52
(lp53
sS'total_cqs'
p54
I1
ssI5
(dp55
S'iters'
p56
I0
sS'meta'
p57
(lp58
sS'total_cqs'
p59
I1
ssI6
(dp60
S'iters'
p61
I2
sS'meta'
p62
(lp63
(dp64
S'objective'
p65
I1
sS'query_time'
p66
F14.992987871170044
sS'comp_time'
p67
F0.004118204116821289
sS'exec_cq'
p68
I4
sS'total_cq'
p69
I5
sa(dp70
g65
I2
sg66
F0.00011086463928222656
sg67
F0.00020599365234375
sg68
I1
sg69
I2
sasS'total_cqs'
p71
I5
ssI7
(dp72
S'iters'
p73
I0
sS'meta'
p74
(lp75
sS'total_cqs'
p76
I1
ssI8
(dp77
S'iters'
p78
I4
sS'meta'
p79
(lp80
(dp81
S'objective'
p82
I13
sS'query_time'
p83
F23.224493980407715
sS'comp_time'
p84
F0.07893919944763184
sS'exec_cq'
p85
I5
sS'total_cq'
p86
I6
sa(dp87
g82
I3
sg83
F0.1853961944580078
sg84
F0.00012183189392089844
sg85
I4
sg86
I5
sa(dp88
g82
I0
sg83
F1.7946858406066895
sg84
F0.00011873245239257812
sg85
I2
sg86
I3
sa(dp89
g82
I1
sg83
F0.0014400482177734375
sg84
F4.00543212890625e-05
sg85
I1
sg86
I2
sasS'total_cqs'
p90
I6
ssI9
(dp91
S'iters'
p92
I3
sS'meta'
p93
(lp94
(dp95
S'objective'
p96
I1
sS'query_time'
p97
F11.663386106491089
sS'comp_time'
p98
F0.11828970909118652
sS'exec_cq'
p99
I3
sS'total_cq'
p100
I6
sa(dp101
g96
I2
sg97
F1.7121989727020264
sg98
F0.022966623306274414
sg99
I1
sg100
I4
sa(dp102
g96
I0
sg97
F0.015256881713867188
sg98
F0.006537914276123047
sg99
I1
sg100
I3
sasS'total_cqs'
p103
I6
ssI10
(dp104
S'iters'
p105
I0
sS'meta'
p106
(lp107
sS'total_cqs'
p108
I1
ssI11
(dp109
S'iters'
p110
I0
sS'meta'
p111
(lp112
sS'total_cqs'
p113
I1
ssI12
(dp114
S'iters'
p115
I0
sS'meta'
p116
(lp117
sS'total_cqs'
p118
I1
ssI13
(dp119
S'iters'
p120
I2
sS'meta'
p121
(lp122
(dp123
S'objective'
p124
I20
sS'query_time'
p125
F0.019063949584960938
sS'comp_time'
p126
F0.022802114486694336
sS'exec_cq'
p127
I6
sS'total_cq'
p128
I8
sa(dp129
g124
I22
sg125
F0.0026140213012695312
sg126
F0.00011730194091796875
sg127
I6
sg128
I7
sasS'total_cqs'
p130
I8
ssI14
(dp131
S'iters'
p132
I2
sS'meta'
p133
(lp134
(dp135
S'objective'
p136
I5
sS'query_time'
p137
F1.1742558479309082
sS'comp_time'
p138
F0.00423431396484375
sS'exec_cq'
p139
I5
sS'total_cq'
p140
I5
sa(dp141
g136
I4
sg137
F0.0008540153503417969
sg138
F0.0012400150299072266
sg139
I4
sg140
I4
sasS'total_cqs'
p142
I5
ssI16
(dp143
S'iters'
p144
I2
sS'meta'
p145
(lp146
(dp147
S'objective'
p148
I3
sS'query_time'
p149
F1.492983102798462
sS'comp_time'
p150
F0.00632929801940918
sS'exec_cq'
p151
I4
sS'total_cq'
p152
I5
sa(dp153
g148
I0
sg149
F0.0015518665313720703
sg150
F0.002662181854248047
sg151
I3
sg152
I3
sasS'total_cqs'
p154
I5
ssI17
(dp155
S'iters'
p156
I0
sS'meta'
p157
(lp158
sS'total_cqs'
p159
I1
ssI18
(dp160
S'iters'
p161
I2
sS'meta'
p162
(lp163
(dp164
S'objective'
p165
I1
sS'query_time'
p166
F0.1941220760345459
sS'comp_time'
p167
F0.003986835479736328
sS'exec_cq'
p168
I4
sS'total_cq'
p169
I5
sa(dp170
g165
I2
sg166
F0.03795194625854492
sg167
F7.390975952148438e-05
sg168
I1
sg169
I2
sasS'total_cqs'
p171
I5
ssI19
(dp172
S'iters'
p173
I0
sS'meta'
p174
(lp175
sS'total_cqs'
p176
I1
ssI20
(dp177
S'iters'
p178
I6
sS'meta'
p179
(lp180
(dp181
S'objective'
p182
I40
sS'query_time'
p183
F14.179199934005737
sS'comp_time'
p184
F0.7594599723815918
sS'exec_cq'
p185
I10
sS'total_cq'
p186
I12
sa(dp187
g182
I31
sg183
F0.1802511215209961
sg184
F0.3377244472503662
sg185
I6
sg186
I10
sa(dp188
g182
I21
sg183
F0.20331096649169922
sg184
F0.5708231925964355
sg185
I6
sg186
I8
sa(dp189
g182
I21
sg183
F0.1022801399230957
sg184
F0.6455469131469727
sg185
I5
sg186
I6
sa(dp190
g182
I17
sg183
F0.1007239818572998
sg184
F0.07308053970336914
sg185
I3
sg186
I5
sa(dp191
g182
I14
sg183
F0.09924197196960449
sg184
F0.0003528594970703125
sg185
I3
sg186
I4
sasS'total_cqs'
p192
I12
ssI21
(dp193
S'iters'
p194
I5
sS'meta'
p195
(lp196
(dp197
S'objective'
p198
I69
sS'query_time'
p199
F59.776373863220215
sS'comp_time'
p200
F0.7355098724365234
sS'exec_cq'
p201
I12
sS'total_cq'
p202
I14
sa(dp203
g198
I53
sg199
F0.29621005058288574
sg200
F0.6109302043914795
sg201
I10
sg202
I12
sa(dp204
g198
I42
sg199
F0.3329300880432129
sg200
F0.019753217697143555
sg201
I7
sg202
I9
sa(dp205
g198
I40
sg199
F0.01005697250366211
sg200
F0.017120838165283203
sg201
I6
sg202
I8
sa(dp206
g198
I38
sg199
F0.09025168418884277
sg200
F0.017461776733398438
sg201
I7
sg202
I7
sasS'total_cqs'
p207
I14
ssI22
(dp208
S'iters'
p209
I1
sS'meta'
p210
(lp211
(dp212
S'objective'
p213
I1
sS'query_time'
p214
F0.004746198654174805
sS'comp_time'
p215
F0.0008440017700195312
sS'exec_cq'
p216
I1
sS'total_cq'
p217
I2
sasS'total_cqs'
p218
I2
ssI23
(dp219
S'iters'
p220
I0
sS'meta'
p221
(lp222
sS'total_cqs'
p223
I1
ssI24
(dp224
S'iters'
p225
I0
sS'meta'
p226
(lp227
sS'total_cqs'
p228
I1
ssI25
(dp229
S'iters'
p230
I4
sS'meta'
p231
(lp232
(dp233
S'objective'
p234
I8
sS'query_time'
p235
F47.74126100540161
sS'comp_time'
p236
F2.107574939727783
sS'exec_cq'
p237
I4
sS'total_cq'
p238
I7
sa(dp239
g234
I4
sg235
F0.014121055603027344
sg236
F0.00011706352233886719
sg237
I2
sg238
I5
sa(dp240
g234
I1
sg235
F0.006312131881713867
sg236
F4.220008850097656e-05
sg237
I1
sg238
I4
sa(dp241
g234
I0
sg235
F4.4549500942230225
sg236
F0.014580965042114258
sg237
I2
sg238
I3
sasS'total_cqs'
p242
I7
ssI26
(dp243
S'iters'
p244
I7
sS'meta'
p245
(lp246
(dp247
S'objective'
p248
I55
sS'query_time'
p249
F23.57451629638672
sS'comp_time'
p250
F2.600431442260742
sS'exec_cq'
p251
I7
sS'total_cq'
p252
I13
sa(dp253
g248
I41
sg249
F4.24289083480835
sg250
F2.6603200435638428
sg251
I5
sg252
I11
sa(dp254
g248
I31
sg249
F0.896165132522583
sg250
F2.7280313968658447
sg251
I3
sg252
I9
sa(dp255
g248
I20
sg249
F1.28298020362854
sg250
F3.534496784210205
sg251
I3
sg252
I8
sa(dp256
g248
I10
sg249
F1.1519601345062256
sg250
F2.719172954559326
sg251
I2
sg252
I7
sa(dp257
g248
I5
sg249
F0.013164997100830078
sg250
F0.00010919570922851562
sg251
I2
sg252
I6
sa(dp258
g248
I3
sg249
F0.0045032501220703125
sg250
F0.001882791519165039
sg251
I3
sg252
I4
sasS'total_cqs'
p259
I13
ssI27
(dp260
S'iters'
p261
I1
sS'meta'
p262
(lp263
(dp264
S'objective'
p265
I1
sS'query_time'
p266
F0.2824671268463135
sS'comp_time'
p267
F0.005765676498413086
sS'exec_cq'
p268
I1
sS'total_cq'
p269
I2
sasS'total_cqs'
p270
I2
ssI28
(dp271
S'iters'
p272
I9
sS'meta'
p273
(lp274
(dp275
S'objective'
p276
I61
sS'query_time'
p277
F1.5318670272827148
sS'comp_time'
p278
F0.08656191825866699
sS'exec_cq'
p279
I6
sS'total_cq'
p280
I14
sa(dp281
g276
I49
sg277
F0.007483959197998047
sg278
F0.00899815559387207
sg279
I4
sg280
I12
sa(dp282
g276
I38
sg277
F0.01553797721862793
sg278
F0.00013208389282226562
sg279
I1
sg280
I9
sa(dp283
g276
I26
sg277
F0.009141921997070312
sg278
F9.202957153320312e-05
sg279
I1
sg280
I8
sa(dp284
g276
I21
sg277
F0.0051920413970947266
sg278
F0.00010609626770019531
sg279
I2
sg280
I7
sa(dp285
g276
I14
sg277
F0.017982006072998047
sg278
F0.00011324882507324219
sg279
I1
sg280
I6
sa(dp286
g276
I8
sg277
F0.0025708675384521484
sg278
F3.981590270996094e-05
sg279
I1
sg280
I5
sa(dp287
g276
I3
sg277
F0.00427699089050293
sg278
F0.0022830963134765625
sg279
I1
sg280
I4
sa(dp288
g276
I1
sg277
F0.0025780200958251953
sg278
F3.409385681152344e-05
sg279
I1
sg280
I3
sasS'total_cqs'
p289
I14
ssI29
(dp290
S'iters'
p291
I1
sS'meta'
p292
(lp293
(dp294
S'objective'
p295
I1
sS'query_time'
p296
F0.010667085647583008
sS'comp_time'
p297
F0.0020627975463867188
sS'exec_cq'
p298
I2
sS'total_cq'
p299
I2
sasS'total_cqs'
p300
I2
ssI30
(dp301
S'iters'
p302
I1
sS'meta'
p303
(lp304
(dp305
S'objective'
p306
I1
sS'query_time'
p307
F0.4432518482208252
sS'comp_time'
p308
F0.0023522377014160156
sS'exec_cq'
p309
I2
sS'total_cq'
p310
I2
sasS'total_cqs'
p311
I2
ssI31
(dp312
S'iters'
p313
I3
sS'meta'
p314
(lp315
(dp316
S'objective'
p317
I7
sS'query_time'
p318
F1.8866040706634521
sS'comp_time'
p319
F0.025037288665771484
sS'exec_cq'
p320
I5
sS'total_cq'
p321
I9
sa(dp322
g317
I1
sg318
F0.0066149234771728516
sg319
F0.011690616607666016
sg320
I3
sg321
I3
sa(dp323
g317
I2
sg318
F0.0030641555786132812
sg319
F0.004052877426147461
sg320
I2
sg321
I2
sasS'total_cqs'
p324
I9
ssI32
(dp325
S'iters'
p326
I3
sS'meta'
p327
(lp328
(dp329
S'objective'
p330
I2
sS'query_time'
p331
F1.6949589252471924
sS'comp_time'
p332
F0.014212846755981445
sS'exec_cq'
p333
I2
sS'total_cq'
p334
I7
sa(dp335
g330
I1
sg331
F20.729897022247314
sg332
F1.9214868545532227
sg333
I4
sg334
I5
sa(dp336
g330
I2
sg331
F0.24527502059936523
sg332
F0.2365570068359375
sg333
I1
sg334
I2
sasS'total_cqs'
p337
I7
ssI33
(dp338
S'iters'
p339
I1
sS'meta'
p340
(lp341
(dp342
S'objective'
p343
I1
sS'query_time'
p344
F0.03182721138000488
sS'comp_time'
p345
F0.001608133316040039
sS'exec_cq'
p346
I2
sS'total_cq'
p347
I2
sasS'total_cqs'
p348
I2
ssI34
(dp349
S'iters'
p350
I0
sS'meta'
p351
(lp352
sS'total_cqs'
p353
I1
ssI35
(dp354
S'iters'
p355
I2
sS'meta'
p356
(lp357
(dp358
S'objective'
p359
I1
sS'query_time'
p360
F14.181353092193604
sS'comp_time'
p361
F0.10724282264709473
sS'exec_cq'
p362
I4
sS'total_cq'
p363
I5
sa(dp364
g359
I2
sg360
F0.00067901611328125
sg361
F0.0003161430358886719
sg362
I1
sg363
I2
sasS'total_cqs'
p365
I5
ssI37
(dp366
S'iters'
p367
I2
sS'meta'
p368
(lp369
(dp370
S'objective'
p371
I33
sS'query_time'
p372
F1.8118228912353516
sS'comp_time'
p373
F0.08380436897277832
sS'exec_cq'
p374
I8
sS'total_cq'
p375
I10
sa(dp376
g371
I3
sg372
F0.0030100345611572266
sg373
F0.06315994262695312
sg374
I2
sg375
I2
sasS'total_cqs'
p377
I10
ssI38
(dp378
S'iters'
p379
I0
sS'meta'
p380
(lp381
sS'total_cqs'
p382
I1
ssI39
(dp383
S'iters'
p384
I0
sS'meta'
p385
(lp386
sS'total_cqs'
p387
I1
ssI40
(dp388
S'iters'
p389
I1
sS'meta'
p390
(lp391
(dp392
S'objective'
p393
I1
sS'query_time'
p394
F0.014003992080688477
sS'comp_time'
p395
F0.0011966228485107422
sS'exec_cq'
p396
I1
sS'total_cq'
p397
I2
sasS'total_cqs'
p398
I2
ssI41
(dp399
S'iters'
p400
I2
sS'meta'
p401
(lp402
(dp403
S'objective'
p404
I7
sS'query_time'
p405
F11.265548706054688
sS'comp_time'
p406
F0.7237200736999512
sS'exec_cq'
p407
I5
sS'total_cq'
p408
I6
sa(dp409
g404
I1
sg405
F0.0010170936584472656
sg406
F0.0016977787017822266
sg407
I2
sg408
I2
sasS'total_cqs'
p410
I6
ssI42
(dp411
S'iters'
p412
I1
sS'meta'
p413
(lp414
(dp415
S'objective'
p416
I1
sS'query_time'
p417
F0.05851101875305176
sS'comp_time'
p418
F0.002431154251098633
sS'exec_cq'
p419
I1
sS'total_cq'
p420
I2
sasS'total_cqs'
p421
I2
ssI43
(dp422
S'iters'
p423
I0
sS'meta'
p424
(lp425
sS'total_cqs'
p426
I1
ssI44
(dp427
S'iters'
p428
I3
sS'meta'
p429
(lp430
(dp431
S'objective'
p432
I5
sS'query_time'
p433
F1.4381051063537598
sS'comp_time'
p434
F0.1045689582824707
sS'exec_cq'
p435
I4
sS'total_cq'
p436
I5
sa(dp437
g432
I0
sg433
F0.0189359188079834
sg434
F0.027098894119262695
sg435
I2
sg436
I3
sa(dp438
g432
I1
sg433
F0.012588977813720703
sg434
F0.011090993881225586
sg435
I1
sg436
I2
sasS'total_cqs'
p439
I5
ssI45
(dp440
S'iters'
p441
I2
sS'meta'
p442
(lp443
(dp444
S'objective'
p445
I5
sS'query_time'
p446
F0.037322044372558594
sS'comp_time'
p447
F0.0027663707733154297
sS'exec_cq'
p448
I4
sS'total_cq'
p449
I5
sa(dp450
g445
I1
sg446
F0.00017690658569335938
sg447
F0.00022125244140625
sg448
I2
sg449
I2
sasS'total_cqs'
p451
I5
ssI46
(dp452
S'iters'
p453
I0
sS'meta'
p454
(lp455
sS'total_cqs'
p456
I1
ssI47
(dp457
S'iters'
p458
I0
sS'meta'
p459
(lp460
sS'total_cqs'
p461
I1
ssI48
(dp462
S'iters'
p463
I1
sS'meta'
p464
(lp465
(dp466
S'objective'
p467
I1
sS'query_time'
p468
F0.08410787582397461
sS'comp_time'
p469
F0.0042231082916259766
sS'exec_cq'
p470
I2
sS'total_cq'
p471
I2
sasS'total_cqs'
p472
I2
ssI49
(dp473
S'iters'
p474
I2
sS'meta'
p475
(lp476
(dp477
S'objective'
p478
I1
sS'query_time'
p479
F0.24125194549560547
sS'comp_time'
p480
F0.0059320926666259766
sS'exec_cq'
p481
I4
sS'total_cq'
p482
I5
sa(dp483
g478
I1
sg479
F0.00033402442932128906
sg480
F0.0006191730499267578
sg481
I2
sg482
I2
sasS'total_cqs'
p484
I5
ssI50
(dp485
S'iters'
p486
I3
sS'meta'
p487
(lp488
(dp489
S'objective'
p490
I5
sS'query_time'
p491
F0.5279059410095215
sS'comp_time'
p492
F0.002334117889404297
sS'exec_cq'
p493
I5
sS'total_cq'
p494
I5
sa(dp495
g490
I2
sg491
F0.00015997886657714844
sg492
F0.0003581047058105469
sg493
I4
sg494
I4
sa(dp496
g490
I0
sg491
F0.000164031982421875
sg492
F0.0003771781921386719
sg493
I3
sg494
I3
sasS'total_cqs'
p497
I5
ssI51
(dp498
S'iters'
p499
I0
sS'meta'
p500
(lp501
sS'total_cqs'
p502
I1
ssI52
(dp503
S'iters'
p504
I0
sS'meta'
p505
(lp506
sS'total_cqs'
p507
I1
ssI53
(dp508
S'iters'
p509
I0
sS'meta'
p510
(lp511
sS'total_cqs'
p512
I1
ssI55
(dp513
S'iters'
p514
I1
sS'meta'
p515
(lp516
(dp517
S'objective'
p518
I1
sS'query_time'
p519
F24.592284202575684
sS'comp_time'
p520
F0.01782512664794922
sS'exec_cq'
p521
I2
sS'total_cq'
p522
I2
sasS'total_cqs'
p523
I2
ssI56
(dp524
S'iters'
p525
I0
sS'meta'
p526
(lp527
sS'total_cqs'
p528
I1
ssI57
(dp529
S'iters'
p530
I1
sS'meta'
p531
(lp532
(dp533
S'objective'
p534
I2
sS'query_time'
p535
F13.724613189697266
sS'comp_time'
p536
F1.6147751808166504
sS'exec_cq'
p537
I3
sS'total_cq'
p538
I3
sasS'total_cqs'
p539
I3
ssI108
(dp540
S'iters'
p541
I0
sS'meta'
p542
(lp543
sS'total_cqs'
p544
I1
ssI109
(dp545
S'iters'
p546
I0
sS'meta'
p547
(lp548
sS'total_cqs'
p549
I1
ssI116
(dp550
S'iters'
p551
I3
sS'meta'
p552
(lp553
(dp554
S'objective'
p555
I173
sS'query_time'
p556
F3.6558420658111572
sS'comp_time'
p557
F0.2050161361694336
sS'exec_cq'
p558
I15
sS'total_cq'
p559
I21
sa(dp560
g555
I182
sg556
F0.5664384365081787
sg557
F0.0006377696990966797
sg558
I16
sg559
I19
sa(dp561
g555
I4
sg556
F0.0006840229034423828
sg557
F0.0008561611175537109
sg558
I2
sg559
I2
sasS'total_cqs'
p562
I21
ssI117
(dp563
S'iters'
p564
I2
sS'meta'
p565
(lp566
(dp567
S'objective'
p568
I5
sS'query_time'
p569
F0.00879812240600586
sS'comp_time'
p570
F0.0019919872283935547
sS'exec_cq'
p571
I3
sS'total_cq'
p572
I5
sa(dp573
g568
I4
sg569
F0.002225160598754883
sg570
F3.838539123535156e-05
sg571
I3
sg572
I4
sasS'total_cqs'
p574
I5
ssI118
(dp575
S'iters'
p576
I0
sS'meta'
p577
(lp578
sS'total_cqs'
p579
I1
ssI122
(dp580
S'iters'
p581
I0
sS'meta'
p582
(lp583
sS'total_cqs'
p584
I1
ss.