(dp0
I1
(dp1
S'iters'
p2
I2
sS'meta'
p3
(lp4
(dp5
S'objective'
p6
I1
sS'query_time'
p7
F7.083794116973877
sS'comp_time'
p8
F9.393692016601562e-05
sS'exec_cq'
p9
I1
sS'total_cq'
p10
I6
sa(dp11
g6
I2
sg7
F298.14729499816895
sg8
F0.0001552104949951172
sg9
I1
sg10
I2
sasS'total_cqs'
p12
I6
ssI2
(dp13
S'iters'
p14
I1
sS'meta'
p15
(lp16
(dp17
S'objective'
p18
I9
sS'query_time'
p19
F0.7342009544372559
sS'comp_time'
p20
F8.678436279296875e-05
sS'exec_cq'
p21
I1
sS'total_cq'
p22
I6
sasS'total_cqs'
p23
I6
ssI3
(dp24
S'iters'
p25
I6
sS'meta'
p26
(lp27
(dp28
S'objective'
p29
I471
sS'query_time'
p30
F0.023602962493896484
sS'comp_time'
p31
F0.00011992454528808594
sS'exec_cq'
p32
I1
sS'total_cq'
p33
I33
sa(dp34
g29
I424
sg30
F0.0229949951171875
sg31
F0.00010395050048828125
sg32
I1
sg33
I31
sa(dp35
g29
I410
sg30
F20.041805028915405
sg31
F0.00010180473327636719
sg32
I2
sg33
I28
sa(dp36
g29
I382
sg30
F0.1485438346862793
sg31
F6.890296936035156e-05
sg32
I2
sg33
I27
sa(dp37
g29
I339
sg30
F0.02013397216796875
sg31
F8.893013000488281e-05
sg32
I2
sg33
I26
sa(dp38
g29
I323
sg30
F0.17844891548156738
sg31
F0.00010609626770019531
sg32
I2
sg33
I23
sasS'total_cqs'
p39
I33
ssI6
(dp40
S'iters'
p41
I2
sS'meta'
p42
(lp43
(dp44
S'objective'
p45
I1
sS'query_time'
p46
F2.4390439987182617
sS'comp_time'
p47
F0.00011610984802246094
sS'exec_cq'
p48
I1
sS'total_cq'
p49
I5
sa(dp50
g45
I3
sg46
F47.61272311210632
sg47
F0.0001380443572998047
sg48
I1
sg49
I2
sasS'total_cqs'
p51
I5
ssI8
(dp52
S'iters'
p53
I2
sS'meta'
p54
(lp55
(dp56
S'objective'
p57
I17
sS'query_time'
p58
F42.61475110054016
sS'comp_time'
p59
F0.00016927719116210938
sS'exec_cq'
p60
I3
sS'total_cq'
p61
I6
sa(dp62
g57
I7
sg58
F0.10912513732910156
sg59
F0.000164031982421875
sg60
I2
sg61
I5
sasS'total_cqs'
p63
I6
ssI9
(dp64
S'iters'
p65
I1
sS'meta'
p66
(lp67
(dp68
S'objective'
p69
I9
sS'query_time'
p70
F1.241948127746582
sS'comp_time'
p71
F0.00013589859008789062
sS'exec_cq'
p72
I1
sS'total_cq'
p73
I6
sasS'total_cqs'
p74
I6
ssI13
(dp75
S'iters'
p76
I1
sS'meta'
p77
(lp78
(dp79
S'objective'
p80
I22
sS'query_time'
p81
F0.17407989501953125
sS'comp_time'
p82
F0.00010180473327636719
sS'exec_cq'
p83
I2
sS'total_cq'
p84
I8
sasS'total_cqs'
p85
I8
ssI14
(dp86
S'iters'
p87
I1
sS'meta'
p88
(lp89
(dp90
S'objective'
p91
I5
sS'query_time'
p92
F0.8827419281005859
sS'comp_time'
p93
F6.508827209472656e-05
sS'exec_cq'
p94
I1
sS'total_cq'
p95
I5
sasS'total_cqs'
p96
I5
ssI16
(dp97
S'iters'
p98
I2
sS'meta'
p99
(lp100
(dp101
S'objective'
p102
I1
sS'query_time'
p103
F4.372250080108643
sS'comp_time'
p104
F8.296966552734375e-05
sS'exec_cq'
p105
I1
sS'total_cq'
p106
I5
sa(dp107
g102
I2
sg103
F111.34237599372864
sg104
F8.296966552734375e-05
sg105
I2
sg106
I2
sasS'total_cqs'
p108
I5
ssI18
(dp109
S'iters'
p110
I2
sS'meta'
p111
(lp112
(dp113
S'objective'
p114
I1
sS'query_time'
p115
F0.3969409465789795
sS'comp_time'
p116
F8.988380432128906e-05
sS'exec_cq'
p117
I1
sS'total_cq'
p118
I5
sa(dp119
g114
I2
sg115
F0.3038508892059326
sg116
F7.796287536621094e-05
sg117
I2
sg118
I2
sasS'total_cqs'
p120
I5
ssI20
(dp121
S'iters'
p122
I2
sS'meta'
p123
(lp124
(dp125
S'objective'
p126
I56
sS'query_time'
p127
F1.149284839630127
sS'comp_time'
p128
F8.606910705566406e-05
sS'exec_cq'
p129
I2
sS'total_cq'
p130
I12
sa(dp131
g126
I47
sg127
F0.11491203308105469
sg128
F9.417533874511719e-05
sg129
I2
sg130
I11
sasS'total_cqs'
p132
I12
ssI21
(dp133
S'iters'
p134
I2
sS'meta'
p135
(lp136
(dp137
S'objective'
p138
I23
sS'query_time'
p139
F0.8012139797210693
sS'comp_time'
p140
F8.106231689453125e-05
sS'exec_cq'
p141
I1
sS'total_cq'
p142
I14
sa(dp143
g138
I40
sg139
F0.018821001052856445
sg140
F5.888938903808594e-05
sg141
I1
sg142
I10
sasS'total_cqs'
p144
I14
ssI22
(dp145
S'iters'
p146
I1
sS'meta'
p147
(lp148
(dp149
S'objective'
p150
I1
sS'query_time'
p151
F0.00446319580078125
sS'comp_time'
p152
F6.985664367675781e-05
sS'exec_cq'
p153
I1
sS'total_cq'
p154
I2
sasS'total_cqs'
p155
I2
ssI25
(dp156
S'iters'
p157
I1
sS'meta'
p158
(lp159
(dp160
S'objective'
p161
I14
sS'query_time'
p162
F0.33566880226135254
sS'comp_time'
p163
F8.702278137207031e-05
sS'exec_cq'
p164
I1
sS'total_cq'
p165
I7
sasS'total_cqs'
p166
I7
ssI26
(dp167
S'iters'
p168
I3
sS'meta'
p169
(lp170
(dp171
S'objective'
p172
I65
sS'query_time'
p173
F0.05064201354980469
sS'comp_time'
p174
F8.797645568847656e-05
sS'exec_cq'
p175
I1
sS'total_cq'
p176
I13
sa(dp177
g172
I54
sg173
F0.03170514106750488
sg174
F7.534027099609375e-05
sg175
I1
sg176
I12
sa(dp178
g172
I44
sg173
F0.008610010147094727
sg174
F7.009506225585938e-05
sg175
I1
sg176
I11
sasS'total_cqs'
p179
I13
ssI27
(dp180
S'iters'
p181
I1
sS'meta'
p182
(lp183
(dp184
S'objective'
p185
I1
sS'query_time'
p186
F0.3572559356689453
sS'comp_time'
p187
F9.989738464355469e-05
sS'exec_cq'
p188
I1
sS'total_cq'
p189
I2
sasS'total_cqs'
p190
I2
ssI28
(dp191
S'iters'
p192
I3
sS'meta'
p193
(lp194
(dp195
S'objective'
p196
I77
sS'query_time'
p197
F1.2364590167999268
sS'comp_time'
p198
F0.00015211105346679688
sS'exec_cq'
p199
I1
sS'total_cq'
p200
I14
sa(dp201
g196
I65
sg197
F0.8751459121704102
sg198
F8.20159912109375e-05
sg199
I1
sg200
I13
sa(dp202
g196
I54
sg197
F0.8298978805541992
sg198
F0.00016689300537109375
sg199
I1
sg200
I12
sasS'total_cqs'
p203
I14
ssI29
(dp204
S'iters'
p205
I1
sS'meta'
p206
(lp207
(dp208
S'objective'
p209
I1
sS'query_time'
p210
F0.005282878875732422
sS'comp_time'
p211
F6.4849853515625e-05
sS'exec_cq'
p212
I1
sS'total_cq'
p213
I2
sasS'total_cqs'
p214
I2
ssI30
(dp215
S'iters'
p216
I1
sS'meta'
p217
(lp218
(dp219
S'objective'
p220
I1
sS'query_time'
p221
F0.3598489761352539
sS'comp_time'
p222
F7.295608520507812e-05
sS'exec_cq'
p223
I1
sS'total_cq'
p224
I2
sasS'total_cqs'
p225
I2
ssI31
(dp226
S'iters'
p227
I3
sS'meta'
p228
(lp229
(dp230
S'objective'
p231
I23
sS'query_time'
p232
F0.4635779857635498
sS'comp_time'
p233
F0.00012111663818359375
sS'exec_cq'
p234
I1
sS'total_cq'
p235
I9
sa(dp236
g231
I6
sg232
F0.46883296966552734
sg233
F7.915496826171875e-05
sg234
I1
sg235
I7
sa(dp237
g231
I2
sg232
F0.07643294334411621
sg233
F0.00011396408081054688
sg234
I1
sg235
I2
sasS'total_cqs'
p238
I9
ssI32
(dp239
S'iters'
p240
I1
sS'meta'
p241
(lp242
(dp243
S'objective'
p244
I14
sS'query_time'
p245
F0.1742870807647705
sS'comp_time'
p246
F7.987022399902344e-05
sS'exec_cq'
p247
I1
sS'total_cq'
p248
I7
sasS'total_cqs'
p249
I7
ssI33
(dp250
S'iters'
p251
I1
sS'meta'
p252
(lp253
(dp254
S'objective'
p255
I1
sS'query_time'
p256
F0.03376507759094238
sS'comp_time'
p257
F9.608268737792969e-05
sS'exec_cq'
p258
I1
sS'total_cq'
p259
I2
sasS'total_cqs'
p260
I2
ssI35
(dp261
S'iters'
p262
I2
sS'meta'
p263
(lp264
(dp265
S'objective'
p266
I1
sS'query_time'
p267
F3.0825390815734863
sS'comp_time'
p268
F9.703636169433594e-05
sS'exec_cq'
p269
I1
sS'total_cq'
p270
I5
sa(dp271
g266
I2
sg267
F0.10439705848693848
sg268
F9.512901306152344e-05
sg269
I1
sg270
I2
sasS'total_cqs'
p272
I5
ssI37
(dp273
S'iters'
p274
I2
sS'meta'
p275
(lp276
(dp277
S'objective'
p278
I35
sS'query_time'
p279
F0.5496790409088135
sS'comp_time'
p280
F6.723403930664062e-05
sS'exec_cq'
p281
I1
sS'total_cq'
p282
I10
sa(dp283
g278
I27
sg279
F19.8814058303833
sg280
F0.00010991096496582031
sg281
I1
sg282
I9
sasS'total_cqs'
p284
I10
ssI40
(dp285
S'iters'
p286
I1
sS'meta'
p287
(lp288
(dp289
S'objective'
p290
I1
sS'query_time'
p291
F15.561688899993896
sS'comp_time'
p292
F0.0001742839813232422
sS'exec_cq'
p293
I2
sS'total_cq'
p294
I2
sasS'total_cqs'
p295
I2
ssI41
(dp296
S'iters'
p297
I2
sS'meta'
p298
(lp299
(dp300
S'objective'
p301
I7
sS'query_time'
p302
F7.288165092468262
sS'comp_time'
p303
F8.20159912109375e-05
sS'exec_cq'
p304
I1
sS'total_cq'
p305
I6
sa(dp306
g301
I5
sg302
F66.43854093551636
sg303
F7.82012939453125e-05
sg304
I2
sg305
I2
sasS'total_cqs'
p307
I6
ssI42
(dp308
S'iters'
p309
I1
sS'meta'
p310
(lp311
(dp312
S'objective'
p313
I1
sS'query_time'
p314
F0.01007699966430664
sS'comp_time'
p315
F7.390975952148438e-05
sS'exec_cq'
p316
I1
sS'total_cq'
p317
I2
sasS'total_cqs'
p318
I2
ssI44
(dp319
S'iters'
p320
I1
sS'meta'
p321
(lp322
(dp323
S'objective'
p324
I5
sS'query_time'
p325
F0.009757041931152344
sS'comp_time'
p326
F7.891654968261719e-05
sS'exec_cq'
p327
I1
sS'total_cq'
p328
I5
sasS'total_cqs'
p329
I5
ssI45
(dp330
S'iters'
p331
I2
sS'meta'
p332
(lp333
(dp334
S'objective'
p335
I1
sS'query_time'
p336
F0.04772591590881348
sS'comp_time'
p337
F0.0001010894775390625
sS'exec_cq'
p338
I1
sS'total_cq'
p339
I5
sa(dp340
g335
I3
sg336
F0.5727829933166504
sg337
F7.390975952148438e-05
sg338
I2
sg339
I2
sasS'total_cqs'
p341
I5
ssI48
(dp342
S'iters'
p343
I1
sS'meta'
p344
(lp345
(dp346
S'objective'
p347
I1
sS'query_time'
p348
F0.1275191307067871
sS'comp_time'
p349
F9.298324584960938e-05
sS'exec_cq'
p350
I1
sS'total_cq'
p351
I2
sasS'total_cqs'
p352
I2
ssI49
(dp353
S'iters'
p354
I1
sS'meta'
p355
(lp356
(dp357
S'objective'
p358
I5
sS'query_time'
p359
F0.1229710578918457
sS'comp_time'
p360
F0.00010514259338378906
sS'exec_cq'
p361
I1
sS'total_cq'
p362
I5
sasS'total_cqs'
p363
I5
ssI50
(dp364
S'iters'
p365
I1
sS'meta'
p366
(lp367
(dp368
S'objective'
p369
I5
sS'query_time'
p370
F0.7885451316833496
sS'comp_time'
p371
F7.200241088867188e-05
sS'exec_cq'
p372
I1
sS'total_cq'
p373
I5
sasS'total_cqs'
p374
I5
ssI55
(dp375
S'iters'
p376
I1
sS'meta'
p377
(lp378
(dp379
S'objective'
p380
I1
sS'query_time'
p381
F6.769119024276733
sS'comp_time'
p382
F0.0001251697540283203
sS'exec_cq'
p383
I1
sS'total_cq'
p384
I2
sasS'total_cqs'
p385
I2
ssI57
(dp386
S'iters'
p387
I1
sS'meta'
p388
(lp389
(dp390
S'objective'
p391
I2
sS'query_time'
p392
F10.960567951202393
sS'comp_time'
p393
F0.00013184547424316406
sS'exec_cq'
p394
I2
sS'total_cq'
p395
I3
sasS'total_cqs'
p396
I3
ssI116
(dp397
S'iters'
p398
I1
sS'meta'
p399
(lp400
(dp401
S'objective'
p402
I197
sS'query_time'
p403
F0.252856969833374
sS'comp_time'
p404
F8.273124694824219e-05
sS'exec_cq'
p405
I5
sS'total_cq'
p406
I21
sasS'total_cqs'
p407
I21
ssI117
(dp408
S'iters'
p409
I1
sS'meta'
p410
(lp411
(dp412
S'objective'
p413
I5
sS'query_time'
p414
F0.00465083122253418
sS'comp_time'
p415
F5.221366882324219e-05
sS'exec_cq'
p416
I1
sS'total_cq'
p417
I5
sasS'total_cqs'
p418
I5
ss.