(dp0
I1
(dp1
S'iters'
p2
I2
sS'meta'
p3
(lp4
(dp5
S'objective'
p6
I2
sS'query_time'
p7
F11.135227918624878
sS'total_cq'
p8
I6
sS'comp_time'
p9
F0.956693172454834
sa(dp10
g6
I0
sg7
F0.208665132522583
sg8
I2
sg9
F0.9190981388092041
sasS'total_cqs'
p11
I6
ssI2
(dp12
g2
I1
sg3
(lp13
(dp14
g6
I4
sg7
F0.5701830387115479
sg8
I6
sg9
F0.21670222282409668
sasg11
I6
ssI3
(dp15
g2
I14
sg3
(lp16
(dp17
g6
I27
sg7
F15.93173098564148
sg8
I33
sg9
F0.4357888698577881
sa(dp18
g6
I24
sg7
F0.31549906730651855
sg8
I30
sg9
F0.03180193901062012
sa(dp19
g6
I21
sg7
F0.03332185745239258
sg8
I27
sg9
F0.43430614471435547
sa(dp20
g6
I18
sg7
F0.004018068313598633
sg8
I24
sg9
F0.02815985679626465
sa(dp21
g6
I15
sg7
F0.01617598533630371
sg8
I21
sg9
F0.18800997734069824
sa(dp22
g6
I12
sg7
F0.0034770965576171875
sg8
I18
sg9
F0.02592778205871582
sa(dp23
g6
I9
sg7
F0.01587986946105957
sg8
I15
sg9
F0.15290403366088867
sa(dp24
g6
I10
sg7
F0.2150120735168457
sg8
I12
sg9
F0.030517101287841797
sa(dp25
g6
I9
sg7
F0.061858177185058594
sg8
I11
sg9
F0.005435943603515625
sa(dp26
g6
I6
sg7
F0.0033528804779052734
sg8
I10
sg9
F0.025526046752929688
sa(dp27
g6
I6
sg7
F0.0013051033020019531
sg8
I8
sg9
F0.0006928443908691406
sa(dp28
g6
I5
sg7
F0.0015048980712890625
sg8
I7
sg9
F0.00220489501953125
sa(dp29
g6
I4
sg7
F0.001466989517211914
sg8
I6
sg9
F0.0002739429473876953
sa(dp30
g6
I3
sg7
F0.008003950119018555
sg8
I5
sg9
F0.026842832565307617
sasg11
I33
ssI4
(dp31
g2
I0
sg3
(lp32
sg11
I1
ssI5
(dp33
g2
I0
sg3
(lp34
sg11
I1
ssI6
(dp35
g2
I2
sg3
(lp36
(dp37
g6
I1
sg7
F8.290206909179688
sg8
I5
sg9
F0.011223077774047852
sa(dp38
g6
I0
sg7
F0.0012409687042236328
sg8
I2
sg9
F0.0005581378936767578
sasg11
I5
ssI7
(dp39
g2
I0
sg3
(lp40
sg11
I1
ssI8
(dp41
g2
I4
sg3
(lp42
(dp43
g6
I4
sg7
F83.23039317131042
sg8
I6
sg9
F0.4982452392578125
sa(dp44
g6
I3
sg7
F0.001280069351196289
sg8
I5
sg9
F0.9897849559783936
sa(dp45
g6
I2
sg7
F0.0012211799621582031
sg8
I4
sg9
F0.004145145416259766
sa(dp46
g6
I1
sg7
F0.0012569427490234375
sg8
I3
sg9
F0.0021910667419433594
sasg11
I6
ssI9
(dp47
g2
I3
sg3
(lp48
(dp49
g6
I0
sg7
F6.7755818367004395
sg8
I6
sg9
F0.5121800899505615
sa(dp50
g6
I1
sg7
F0.06679606437683105
sg8
I3
sg9
F0.607614278793335
sa(dp51
g6
I0
sg7
F0.016396045684814453
sg8
I2
sg9
F0.16037225723266602
sasg11
I6
ssI10
(dp52
g2
I0
sg3
(lp53
sg11
I1
ssI11
(dp54
g2
I0
sg3
(lp55
sg11
I1
ssI12
(dp56
g2
I0
sg3
(lp57
sg11
I1
ssI13
(dp58
g2
I2
sg3
(lp59
(dp60
g6
I6
sg7
F0.0075571537017822266
sg8
I8
sg9
F0.00013184547424316406
sa(dp61
g6
I5
sg7
F0.0012481212615966797
sg8
I7
sg9
F0.0001499652862548828
sasg11
I8
ssI14
(dp62
g2
I1
sg3
(lp63
(dp64
g6
I3
sg7
F0.4154629707336426
sg8
I5
sg9
F0.00565338134765625
sasg11
I5
ssI16
(dp65
g2
I3
sg3
(lp66
(dp67
g6
I1
sg7
F0.6159510612487793
sg8
I5
sg9
F0.011295080184936523
sa(dp68
g6
I1
sg7
F0.03184700012207031
sg8
I3
sg9
F0.0008070468902587891
sa(dp69
g6
I0
sg7
F0.0016660690307617188
sg8
I2
sg9
F0.000682830810546875
sasg11
I5
ssI17
(dp70
g2
I0
sg3
(lp71
sg11
I1
ssI18
(dp72
g2
I3
sg3
(lp73
(dp74
g6
I1
sg7
F0.11441993713378906
sg8
I5
sg9
F0.0008859634399414062
sa(dp75
g6
I1
sg7
F0.031926870346069336
sg8
I3
sg9
F0.0006279945373535156
sa(dp76
g6
I0
sg7
F0.0014629364013671875
sg8
I2
sg9
F0.0005061626434326172
sasg11
I5
ssI19
(dp77
g2
I0
sg3
(lp78
sg11
I1
ssI20
(dp79
g2
I6
sg3
(lp80
(dp81
g6
I8
sg7
F6.274650812149048
sg8
I12
sg9
F1.4963648319244385
sa(dp82
g6
I6
sg7
F3.2714219093322754
sg8
I10
sg9
F0.5270280838012695
sa(dp83
g6
I4
sg7
F0.19517803192138672
sg8
I8
sg9
F1.3432891368865967
sa(dp84
g6
I4
sg7
F0.0013420581817626953
sg8
I6
sg9
F0.00011706352233886719
sa(dp85
g6
I3
sg7
F0.22165393829345703
sg8
I5
sg9
F1.0770411491394043
sa(dp86
g6
I2
sg7
F0.12069892883300781
sg8
I4
sg9
F0.006501674652099609
sasg11
I12
ssI21
(dp87
g2
I5
sg3
(lp88
(dp89
g6
I6
sg7
F103.10508489608765
sg8
I14
sg9
F26.717068672180176
sa(dp90
g6
I2
sg7
F28.992536067962646
sg8
I10
sg9
F3.1209819316864014
sa(dp91
g6
I2
sg7
F2.5638859272003174
sg8
I6
sg9
F15.443823337554932
sa(dp92
g6
I0
sg7
F0.009414911270141602
sg8
I4
sg9
F0.08107686042785645
sa(dp93
g6
I0
sg7
F0.01576995849609375
sg8
I2
sg9
F0.0001990795135498047
sasg11
I14
ssI22
(dp94
g2
I1
sg3
(lp95
(dp96
g6
I0
sg7
F0.0014798641204833984
sg8
I2
sg9
F0.00010395050048828125
sasg11
I2
ssI23
(dp97
g2
I0
sg3
(lp98
sg11
I1
ssI24
(dp99
g2
I0
sg3
(lp100
sg11
I1
ssI25
(dp101
g2
I4
sg3
(lp102
(dp103
g6
I3
sg7
F80.31290006637573
sg8
I7
sg9
F22.76170587539673
sa(dp104
g6
I1
sg7
F3.9788129329681396
sg8
I5
sg9
F0.15577387809753418
sa(dp105
g6
I1
sg7
F2.990886926651001
sg8
I3
sg9
F13.582660913467407
sa(dp106
g6
I0
sg7
F0.0014729499816894531
sg8
I2
sg9
F0.028088092803955078
sasg11
I7
ssI26
(dp107
g2
I9
sg3
(lp108
(dp109
g6
I9
sg7
F0.16484689712524414
sg8
I13
sg9
F0.022741079330444336
sa(dp110
g6
I9
sg7
F17.4652099609375
sg8
I11
sg9
F7.587626934051514
sa(dp111
g6
I6
sg7
F0.0074999332427978516
sg8
I10
sg9
F0.00021910667419433594
sa(dp112
g6
I6
sg7
F0.0038690567016601562
sg8
I8
sg9
F0.012726783752441406
sa(dp113
g6
I5
sg7
F0.0013439655303955078
sg8
I7
sg9
F0.005972146987915039
sa(dp114
g6
I2
sg7
F2.923114061355591
sg8
I6
sg9
F0.028820037841796875
sa(dp115
g6
I2
sg7
F0.004209995269775391
sg8
I4
sg9
F0.006677865982055664
sa(dp116
g6
I1
sg7
F0.0012409687042236328
sg8
I3
sg9
F0.0032739639282226562
sa(dp117
g6
I0
sg7
F0.03262186050415039
sg8
I2
sg9
F0.0036160945892333984
sasg11
I13
ssI27
(dp118
g2
I1
sg3
(lp119
(dp120
g6
I0
sg7
F0.11448478698730469
sg8
I2
sg9
F0.007132291793823242
sasg11
I2
ssI28
(dp121
g2
I4
sg3
(lp122
(dp123
g6
I8
sg7
F0.8175339698791504
sg8
I14
sg9
F0.04152727127075195
sa(dp124
g6
I7
sg7
F0.0036699771881103516
sg8
I11
sg9
F0.031137943267822266
sa(dp125
g6
I7
sg7
F0.0037441253662109375
sg8
I9
sg9
F0.00010919570922851562
sa(dp126
g6
I6
sg7
F0.0016560554504394531
sg8
I8
sg9
F0.00012111663818359375
sasg11
I14
ssI29
(dp127
g2
I1
sg3
(lp128
(dp129
g6
I0
sg7
F0.00368499755859375
sg8
I2
sg9
F9.179115295410156e-05
sasg11
I2
ssI30
(dp130
g2
I1
sg3
(lp131
(dp132
g6
I0
sg7
F0.1645500659942627
sg8
I2
sg9
F0.005764961242675781
sasg11
I2
ssI31
(dp133
g2
I4
sg3
(lp134
(dp135
g6
I5
sg7
F2.3265678882598877
sg8
I9
sg9
F0.14889860153198242
sa(dp136
g6
I1
sg7
F0.8171870708465576
sg8
I7
sg9
F0.05318784713745117
sa(dp137
g6
I1
sg7
F0.4005601406097412
sg8
I3
sg9
F0.052381038665771484
sa(dp138
g6
I0
sg7
F0.004270076751708984
sg8
I2
sg9
F0.027301788330078125
sasg11
I9
ssI32
(dp139
g2
I3
sg3
(lp140
(dp141
g6
I1
sg7
F15.185633897781372
sg8
I7
sg9
F6.00758695602417
sa(dp142
g6
I0
sg7
F0.8673350811004639
sg8
I4
sg9
F0.034253835678100586
sa(dp143
g6
I0
sg7
F0.03202986717224121
sg8
I2
sg9
F0.687891960144043
sasg11
I7
ssI33
(dp144
g2
I1
sg3
(lp145
(dp146
g6
I0
sg7
F0.015774965286254883
sg8
I2
sg9
F0.0002639293670654297
sasg11
I2
ssI34
(dp147
g2
I0
sg3
(lp148
sg11
I1
ssI35
(dp149
g2
I3
sg3
(lp150
(dp151
g6
I1
sg7
F10.369057893753052
sg8
I5
sg9
F0.4257936477661133
sa(dp152
g6
I1
sg7
F0.01631617546081543
sg8
I3
sg9
F0.17929601669311523
sa(dp153
g6
I0
sg7
F0.0011470317840576172
sg8
I2
sg9
F0.0055119991302490234
sasg11
I5
ssI37
(dp154
g2
I2
sg3
(lp155
(dp156
g6
I6
sg7
F0.3656940460205078
sg8
I10
sg9
F0.02453470230102539
sa(dp157
g6
I0
sg7
F0.008107900619506836
sg8
I2
sg9
F0.08889889717102051
sasg11
I10
ssI38
(dp158
g2
I0
sg3
(lp159
sg11
I1
ssI39
(dp160
g2
I0
sg3
(lp161
sg11
I1
ssI40
(dp162
g2
I1
sg3
(lp163
(dp164
g6
I0
sg7
F0.0034041404724121094
sg8
I2
sg9
F0.00010991096496582031
sasg11
I2
ssI41
(dp165
g2
I3
sg3
(lp166
(dp167
g6
I2
sg7
F8.158935785293579
sg8
I6
sg9
F2.5827980041503906
sa(dp168
g6
I0
sg7
F0.46539902687072754
sg8
I4
sg9
F0.006705045700073242
sa(dp169
g6
I0
sg7
F0.001194000244140625
sg8
I2
sg9
F0.006040811538696289
sasg11
I6
ssI42
(dp170
g2
I1
sg3
(lp171
(dp172
g6
I0
sg7
F0.007730007171630859
sg8
I2
sg9
F0.0004591941833496094
sasg11
I2
ssI43
(dp173
g2
I0
sg3
(lp174
sg11
I1
ssI44
(dp175
g2
I3
sg3
(lp176
(dp177
g6
I3
sg7
F0.918004035949707
sg8
I5
sg9
F0.34282994270324707
sa(dp178
g6
I0
sg7
F0.16437697410583496
sg8
I4
sg9
F0.0023212432861328125
sa(dp179
g6
I0
sg7
F0.0013980865478515625
sg8
I2
sg9
F0.00133514404296875
sasg11
I5
ssI45
(dp180
g2
I2
sg3
(lp181
(dp182
g6
I1
sg7
F0.03194999694824219
sg8
I5
sg9
F0.0015327930450439453
sa(dp183
g6
I0
sg7
F0.0013260841369628906
sg8
I2
sg9
F0.0014910697937011719
sasg11
I5
ssI46
(dp184
g2
I0
sg3
(lp185
sg11
I1
ssI47
(dp186
g2
I0
sg3
(lp187
sg11
I1
ssI48
(dp188
g2
I1
sg3
(lp189
(dp190
g6
I0
sg7
F0.06424498558044434
sg8
I2
sg9
F0.005240917205810547
sasg11
I2
ssI49
(dp191
g2
I2
sg3
(lp192
(dp193
g6
I1
sg7
F0.16478395462036133
sg8
I5
sg9
F0.0040798187255859375
sa(dp194
g6
I1
sg7
F0.0013699531555175781
sg8
I3
sg9
F0.00024509429931640625
sasg11
I5
ssI50
(dp195
g2
I2
sg3
(lp196
(dp197
g6
I3
sg7
F0.365264892578125
sg8
I5
sg9
F0.002254009246826172
sa(dp198
g6
I2
sg7
F0.0015211105346679688
sg8
I4
sg9
F0.0012009143829345703
sasg11
I5
ssI51
(dp199
g2
I0
sg3
(lp200
sg11
I1
ssI52
(dp201
g2
I0
sg3
(lp202
sg11
I1
ssI53
(dp203
g2
I0
sg3
(lp204
sg11
I1
ssI55
(dp205
g2
I1
sg3
(lp206
(dp207
g6
I0
sg7
F22.673179149627686
sg8
I2
sg9
F0.08362007141113281
sasg11
I2
ssI56
(dp208
g2
I0
sg3
(lp209
sg11
I1
ssI57
(dp210
g2
I1
sg3
(lp211
(dp212
g6
I1
sg7
F11.33436918258667
sg8
I3
sg9
F3.3467822074890137
sasg11
I3
ssI108
(dp213
g2
I0
sg3
(lp214
sg11
I1
ssI109
(dp215
g2
I0
sg3
(lp216
sg11
I1
ssI116
(dp217
g2
I3
sg3
(lp218
(dp219
g6
I17
sg7
F3.4382948875427246
sg8
I21
sg9
F0.7131273746490479
sa(dp220
g6
I15
sg7
F0.3677051067352295
sg8
I19
sg9
F0.0061376094818115234
sa(dp221
g6
I0
sg7
F0.0017709732055664062
sg8
I2
sg9
F0.006059885025024414
sasg11
I21
ssI117
(dp222
g2
I2
sg3
(lp223
(dp224
g6
I3
sg7
F0.007822036743164062
sg8
I5
sg9
F0.00015974044799804688
sa(dp225
g6
I2
sg7
F0.005156993865966797
sg8
I4
sg9
F0.0002529621124267578
sasg11
I5
ssI118
(dp226
g2
I0
sg3
(lp227
sg11
I1
ssI122
(dp228
g2
I0
sg3
(lp229
sg11
I1
ss.