(dp0
I1
(dp1
S'iters'
p2
I2
sS'meta'
p3
(lp4
(dp5
S'objective'
p6
I1
sS'query_time'
p7
F16.702188968658447
sS'comp_time'
p8
F0.6981201171875
sS'exec_cq'
p9
I3
sS'total_cq'
p10
I6
sa(dp11
g6
I2
sg7
F0.1605689525604248
sg8
F0.653796911239624
sg9
I2
sg10
I2
sasS'total_cqs'
p12
I6
ssI2
(dp13
S'iters'
p14
I1
sS'meta'
p15
(lp16
(dp17
S'objective'
p18
I9
sS'query_time'
p19
F0.8556442260742188
sS'comp_time'
p20
F0.21284890174865723
sS'exec_cq'
p21
I5
sS'total_cq'
p22
I6
sasS'total_cqs'
p23
I6
ssI3
(dp24
S'iters'
p25
I12
sS'meta'
p26
(lp27
(dp28
S'objective'
p29
I427
sS'query_time'
p30
F26.215754985809326
sS'comp_time'
p31
F0.45801401138305664
sS'exec_cq'
p32
I15
sS'total_cq'
p33
I33
sa(dp34
g29
I358
sg30
F0.3700740337371826
sg31
F0.01973891258239746
sg32
I13
sg33
I30
sa(dp35
g29
I306
sg30
F0.012984991073608398
sg31
F0.15877604484558105
sg32
I12
sg33
I27
sa(dp36
g29
I288
sg30
F0.0028030872344970703
sg31
F0.016790390014648438
sg32
I10
sg33
I24
sa(dp37
g29
I263
sg30
F0.18749713897705078
sg31
F0.019513607025146484
sg32
I5
sg33
I21
sa(dp38
g29
I227
sg30
F0.0026540756225585938
sg31
F0.015812158584594727
sg32
I7
sg33
I20
sa(dp39
g29
I155
sg30
F0.01028585433959961
sg31
F0.12818217277526855
sg32
I9
sg33
I17
sa(dp40
g29
I150
sg30
F0.0031609535217285156
sg31
F0.020036935806274414
sg32
I4
sg33
I14
sa(dp41
g29
I117
sg30
F0.002852916717529297
sg31
F0.015297889709472656
sg32
I4
sg33
I13
sa(dp42
g29
I94
sg30
F0.002557992935180664
sg31
F0.08740019798278809
sg32
I3
sg33
I11
sa(dp43
g29
I93
sg30
F0.008252859115600586
sg31
F0.05190420150756836
sg32
I6
sg33
I10
sa(dp44
g29
I55
sg30
F0.00251007080078125
sg31
F0.015573978424072266
sg32
I2
sg33
I7
sasS'total_cqs'
p45
I33
ssI4
(dp46
S'iters'
p47
I0
sS'meta'
p48
(lp49
sS'total_cqs'
p50
I1
ssI5
(dp51
S'iters'
p52
I0
sS'meta'
p53
(lp54
sS'total_cqs'
p55
I1
ssI6
(dp56
S'iters'
p57
I2
sS'meta'
p58
(lp59
(dp60
S'objective'
p61
I1
sS'query_time'
p62
F14.852958917617798
sS'comp_time'
p63
F0.00535893440246582
sS'exec_cq'
p64
I4
sS'total_cq'
p65
I5
sa(dp66
g61
I3
sg62
F4.506111145019531e-05
sg63
F0.00041294097900390625
sg64
I1
sg65
I2
sasS'total_cqs'
p67
I5
ssI7
(dp68
S'iters'
p69
I0
sS'meta'
p70
(lp71
sS'total_cqs'
p72
I1
ssI8
(dp73
S'iters'
p74
I2
sS'meta'
p75
(lp76
(dp77
S'objective'
p78
I15
sS'query_time'
p79
F23.228219032287598
sS'comp_time'
p80
F0.44592714309692383
sS'exec_cq'
p81
I5
sS'total_cq'
p82
I6
sa(dp83
g78
I6
sg79
F0.0867319107055664
sg80
F0.0884389877319336
sg81
I4
sg82
I5
sasS'total_cqs'
p84
I6
ssI9
(dp85
S'iters'
p86
I2
sS'meta'
p87
(lp88
(dp89
S'objective'
p90
I3
sS'query_time'
p91
F11.078260898590088
sS'comp_time'
p92
F0.602283239364624
sS'exec_cq'
p93
I3
sS'total_cq'
p94
I6
sa(dp95
g90
I3
sg91
F0.06453299522399902
sg92
F0.7361798286437988
sg93
I2
sg94
I2
sasS'total_cqs'
p96
I6
ssI10
(dp97
S'iters'
p98
I0
sS'meta'
p99
(lp100
sS'total_cqs'
p101
I1
ssI11
(dp102
S'iters'
p103
I0
sS'meta'
p104
(lp105
sS'total_cqs'
p106
I1
ssI12
(dp107
S'iters'
p108
I0
sS'meta'
p109
(lp110
sS'total_cqs'
p111
I1
ssI13
(dp112
S'iters'
p113
I2
sS'meta'
p114
(lp115
(dp116
S'objective'
p117
I20
sS'query_time'
p118
F0.01902604103088379
sS'comp_time'
p119
F0.008125782012939453
sS'exec_cq'
p120
I6
sS'total_cq'
p121
I8
sa(dp122
g117
I14
sg118
F2.5987625122070312e-05
sg119
F0.00012087821960449219
sg120
I5
sg121
I7
sasS'total_cqs'
p123
I8
ssI14
(dp124
S'iters'
p125
I1
sS'meta'
p126
(lp127
(dp128
S'objective'
p129
I5
sS'query_time'
p130
F1.015043020248413
sS'comp_time'
p131
F0.008816719055175781
sS'exec_cq'
p132
I5
sS'total_cq'
p133
I5
sasS'total_cqs'
p134
I5
ssI16
(dp135
S'iters'
p136
I2
sS'meta'
p137
(lp138
(dp139
S'objective'
p140
I3
sS'query_time'
p141
F1.3841230869293213
sS'comp_time'
p142
F0.01180124282836914
sS'exec_cq'
p143
I4
sS'total_cq'
p144
I5
sa(dp145
g140
I4
sg141
F0.0010180473327636719
sg142
F0.007760047912597656
sg143
I2
sg144
I2
sasS'total_cqs'
p146
I5
ssI17
(dp147
S'iters'
p148
I0
sS'meta'
p149
(lp150
sS'total_cqs'
p151
I1
ssI18
(dp152
S'iters'
p153
I2
sS'meta'
p154
(lp155
(dp156
S'objective'
p157
I1
sS'query_time'
p158
F0.19408488273620605
sS'comp_time'
p159
F0.004076242446899414
sS'exec_cq'
p160
I4
sS'total_cq'
p161
I5
sa(dp162
g157
I2
sg158
F0.02544689178466797
sg159
F0.00034999847412109375
sg160
I3
sg161
I3
sasS'total_cqs'
p163
I5
ssI19
(dp164
S'iters'
p165
I0
sS'meta'
p166
(lp167
sS'total_cqs'
p168
I1
ssI20
(dp169
S'iters'
p170
I6
sS'meta'
p171
(lp172
(dp173
S'objective'
p174
I52
sS'query_time'
p175
F9.42428207397461
sS'comp_time'
p176
F1.3172521591186523
sS'exec_cq'
p177
I6
sS'total_cq'
p178
I12
sa(dp179
g174
I49
sg175
F0.2366318702697754
sg176
F1.0936710834503174
sg177
I4
sg178
I10
sa(dp180
g174
I31
sg175
F4.002593994140625
sg176
F0.421802282333374
sg177
I4
sg178
I9
sa(dp181
g174
I28
sg175
F0.010376930236816406
sg176
F0.059407949447631836
sg177
I3
sg178
I7
sa(dp182
g174
I28
sg175
F2.5033950805664062e-05
sg176
F0.0001590251922607422
sg177
I2
sg178
I5
sa(dp183
g174
I12
sg175
F0.09047412872314453
sg176
F0.00438380241394043
sg177
I2
sg178
I4
sasS'total_cqs'
p184
I12
ssI21
(dp185
S'iters'
p186
I4
sS'meta'
p187
(lp188
(dp189
S'objective'
p190
I61
sS'query_time'
p191
F29.98289394378662
sS'comp_time'
p192
F0.25499796867370605
sS'exec_cq'
p193
I8
sS'total_cq'
p194
I14
sa(dp195
g190
I33
sg191
F0.020490169525146484
sg192
F0.22267675399780273
sg193
I6
sg194
I12
sa(dp196
g190
I6
sg191
F29.90469193458557
sg192
F2.411586046218872
sg193
I4
sg194
I8
sa(dp197
g190
I2
sg191
F0.021023035049438477
sg192
F0.00020360946655273438
sg193
I1
sg194
I4
sasS'total_cqs'
p198
I14
ssI22
(dp199
S'iters'
p200
I1
sS'meta'
p201
(lp202
(dp203
S'objective'
p204
I1
sS'query_time'
p205
F0.004603147506713867
sS'comp_time'
p206
F0.0015223026275634766
sS'exec_cq'
p207
I1
sS'total_cq'
p208
I2
sasS'total_cqs'
p209
I2
ssI23
(dp210
S'iters'
p211
I0
sS'meta'
p212
(lp213
sS'total_cqs'
p214
I1
ssI24
(dp215
S'iters'
p216
I0
sS'meta'
p217
(lp218
sS'total_cqs'
p219
I1
ssI25
(dp220
S'iters'
p221
I3
sS'meta'
p222
(lp223
(dp224
S'objective'
p225
I12
sS'query_time'
p226
F47.368407011032104
sS'comp_time'
p227
F4.963679313659668
sS'exec_cq'
p228
I4
sS'total_cq'
p229
I7
sa(dp230
g225
I8
sg226
F0.01672530174255371
sg227
F0.05216407775878906
sg228
I2
sg229
I5
sa(dp231
g225
I0
sg226
F0.17945194244384766
sg227
F0.006001949310302734
sg228
I1
sg229
I4
sasS'total_cqs'
p232
I7
ssI26
(dp233
S'iters'
p234
I5
sS'meta'
p235
(lp236
(dp237
S'objective'
p238
I65
sS'query_time'
p239
F22.794502019882202
sS'comp_time'
p240
F4.799397706985474
sS'exec_cq'
p241
I3
sS'total_cq'
p242
I13
sa(dp243
g238
I34
sg239
F0.02049112319946289
sg240
F0.0002181529998779297
sg241
I2
sg242
I12
sa(dp244
g238
I38
sg239
F0.15406298637390137
sg240
F0.01038980484008789
sg241
I4
sg242
I10
sa(dp245
g238
I21
sg239
F3.152839183807373
sg240
F0.015153169631958008
sg241
I2
sg242
I9
sa(dp246
g238
I12
sg239
F0.003523111343383789
sg240
F0.00011014938354492188
sg241
I1
sg242
I7
sasS'total_cqs'
p247
I13
ssI27
(dp248
S'iters'
p249
I1
sS'meta'
p250
(lp251
(dp252
S'objective'
p253
I1
sS'query_time'
p254
F0.19391489028930664
sS'comp_time'
p255
F0.006882905960083008
sS'exec_cq'
p256
I1
sS'total_cq'
p257
I2
sasS'total_cqs'
p258
I2
ssI28
(dp259
S'iters'
p260
I4
sS'meta'
p261
(lp262
(dp263
S'objective'
p264
I55
sS'query_time'
p265
F1.37974214553833
sS'comp_time'
p266
F0.11990475654602051
sS'exec_cq'
p267
I6
sS'total_cq'
p268
I14
sa(dp269
g264
I44
sg265
F0.006349086761474609
sg266
F0.0342559814453125
sg267
I4
sg268
I12
sa(dp270
g264
I36
sg265
F0.024303913116455078
sg266
F0.0014934539794921875
sg267
I1
sg268
I9
sa(dp271
g264
I25
sg265
F0.006165027618408203
sg266
F0.00014829635620117188
sg267
I1
sg268
I8
sasS'total_cqs'
p272
I14
ssI29
(dp273
S'iters'
p274
I1
sS'meta'
p275
(lp276
(dp277
S'objective'
p278
I1
sS'query_time'
p279
F0.009309053421020508
sS'comp_time'
p280
F0.0019469261169433594
sS'exec_cq'
p281
I2
sS'total_cq'
p282
I2
sasS'total_cqs'
p283
I2
ssI30
(dp284
S'iters'
p285
I1
sS'meta'
p286
(lp287
(dp288
S'objective'
p289
I1
sS'query_time'
p290
F0.355881929397583
sS'comp_time'
p291
F0.0050199031829833984
sS'exec_cq'
p292
I2
sS'total_cq'
p293
I2
sasS'total_cqs'
p294
I2
ssI31
(dp295
S'iters'
p296
I3
sS'meta'
p297
(lp298
(dp299
S'objective'
p300
I21
sS'query_time'
p301
F4.773052930831909
sS'comp_time'
p302
F0.2922070026397705
sS'exec_cq'
p303
I4
sS'total_cq'
p304
I9
sa(dp305
g300
I1
sg301
F1.5375850200653076
sg302
F0.12725400924682617
sg303
I5
sg304
I7
sa(dp306
g300
I1
sg301
F0.009037971496582031
sg302
F0.04636192321777344
sg303
I2
sg304
I2
sasS'total_cqs'
p307
I9
ssI32
(dp308
S'iters'
p309
I2
sS'meta'
p310
(lp311
(dp312
S'objective'
p313
I0
sS'query_time'
p314
F20.55369782447815
sS'comp_time'
p315
F4.423351764678955
sS'exec_cq'
p316
I4
sS'total_cq'
p317
I7
sa(dp318
g313
I0
sg314
F0.07599091529846191
sg315
F0.0021669864654541016
sg316
I1
sg317
I4
sasS'total_cqs'
p319
I7
ssI33
(dp320
S'iters'
p321
I1
sS'meta'
p322
(lp323
(dp324
S'objective'
p325
I1
sS'query_time'
p326
F0.03212904930114746
sS'comp_time'
p327
F0.0018608570098876953
sS'exec_cq'
p328
I2
sS'total_cq'
p329
I2
sasS'total_cqs'
p330
I2
ssI34
(dp331
S'iters'
p332
I0
sS'meta'
p333
(lp334
sS'total_cqs'
p335
I1
ssI35
(dp336
S'iters'
p337
I2
sS'meta'
p338
(lp339
(dp340
S'objective'
p341
I1
sS'query_time'
p342
F12.823791027069092
sS'comp_time'
p343
F0.2669637203216553
sS'exec_cq'
p344
I4
sS'total_cq'
p345
I5
sa(dp346
g341
I2
sg342
F0.07543706893920898
sg343
F0.06436014175415039
sg344
I2
sg345
I3
sasS'total_cqs'
p347
I5
ssI37
(dp348
S'iters'
p349
I3
sS'meta'
p350
(lp351
(dp352
S'objective'
p353
I35
sS'query_time'
p354
F1.2065601348876953
sS'comp_time'
p355
F0.2528269290924072
sS'exec_cq'
p356
I4
sS'total_cq'
p357
I10
sa(dp358
g353
I13
sg354
F0.4572489261627197
sg355
F0.0168149471282959
sg356
I4
sg357
I9
sa(dp359
g353
I2
sg354
F0.0029861927032470703
sg355
F0.015228986740112305
sg356
I2
sg357
I2
sasS'total_cqs'
p360
I10
ssI38
(dp361
S'iters'
p362
I0
sS'meta'
p363
(lp364
sS'total_cqs'
p365
I1
ssI39
(dp366
S'iters'
p367
I0
sS'meta'
p368
(lp369
sS'total_cqs'
p370
I1
ssI40
(dp371
S'iters'
p372
I1
sS'meta'
p373
(lp374
(dp375
S'objective'
p376
I1
sS'query_time'
p377
F0.0032799243927001953
sS'comp_time'
p378
F0.0012962818145751953
sS'exec_cq'
p379
I1
sS'total_cq'
p380
I2
sasS'total_cqs'
p381
I2
ssI41
(dp382
S'iters'
p383
I2
sS'meta'
p384
(lp385
(dp386
S'objective'
p387
I3
sS'query_time'
p388
F0.9777140617370605
sS'comp_time'
p389
F0.009975910186767578
sS'exec_cq'
p390
I2
sS'total_cq'
p391
I6
sa(dp392
g387
I3
sg388
F0.0008780956268310547
sg389
F0.0038461685180664062
sg390
I2
sg391
I2
sasS'total_cqs'
p393
I6
ssI42
(dp394
S'iters'
p395
I1
sS'meta'
p396
(lp397
(dp398
S'objective'
p399
I1
sS'query_time'
p400
F0.011467933654785156
sS'comp_time'
p401
F0.0009179115295410156
sS'exec_cq'
p402
I1
sS'total_cq'
p403
I2
sasS'total_cqs'
p404
I2
ssI43
(dp405
S'iters'
p406
I0
sS'meta'
p407
(lp408
sS'total_cqs'
p409
I1
ssI44
(dp410
S'iters'
p411
I3
sS'meta'
p412
(lp413
(dp414
S'objective'
p415
I3
sS'query_time'
p416
F0.383267879486084
sS'comp_time'
p417
F0.004163503646850586
sS'exec_cq'
p418
I2
sS'total_cq'
p419
I5
sa(dp420
g415
I3
sg416
F1.0222461223602295
sg417
F0.21535468101501465
sg418
I2
sg419
I3
sa(dp421
g415
I4
sg416
F7.987022399902344e-05
sg417
F0.00043702125549316406
sg418
I1
sg419
I2
sasS'total_cqs'
p422
I5
ssI45
(dp423
S'iters'
p424
I2
sS'meta'
p425
(lp426
(dp427
S'objective'
p428
I3
sS'query_time'
p429
F0.03042316436767578
sS'comp_time'
p430
F0.0031309127807617188
sS'exec_cq'
p431
I3
sS'total_cq'
p432
I5
sa(dp433
g428
I1
sg429
F0.00014710426330566406
sg430
F0.08237075805664062
sg431
I2
sg432
I2
sasS'total_cqs'
p434
I5
ssI46
(dp435
S'iters'
p436
I0
sS'meta'
p437
(lp438
sS'total_cqs'
p439
I1
ssI47
(dp440
S'iters'
p441
I0
sS'meta'
p442
(lp443
sS'total_cqs'
p444
I1
ssI48
(dp445
S'iters'
p446
I1
sS'meta'
p447
(lp448
(dp449
S'objective'
p450
I1
sS'query_time'
p451
F0.09244084358215332
sS'comp_time'
p452
F0.004213809967041016
sS'exec_cq'
p453
I2
sS'total_cq'
p454
I2
sasS'total_cqs'
p455
I2
ssI49
(dp456
S'iters'
p457
I2
sS'meta'
p458
(lp459
(dp460
S'objective'
p461
I1
sS'query_time'
p462
F0.17566680908203125
sS'comp_time'
p463
F0.00589299201965332
sS'exec_cq'
p464
I4
sS'total_cq'
p465
I5
sa(dp466
g461
I3
sg462
F0.0004470348358154297
sg463
F0.002321958541870117
sg464
I2
sg465
I2
sasS'total_cqs'
p467
I5
ssI50
(dp468
S'iters'
p469
I1
sS'meta'
p470
(lp471
(dp472
S'objective'
p473
I5
sS'query_time'
p474
F0.7450840473175049
sS'comp_time'
p475
F0.008690834045410156
sS'exec_cq'
p476
I5
sS'total_cq'
p477
I5
sasS'total_cqs'
p478
I5
ssI51
(dp479
S'iters'
p480
I0
sS'meta'
p481
(lp482
sS'total_cqs'
p483
I1
ssI52
(dp484
S'iters'
p485
I0
sS'meta'
p486
(lp487
sS'total_cqs'
p488
I1
ssI53
(dp489
S'iters'
p490
I0
sS'meta'
p491
(lp492
sS'total_cqs'
p493
I1
ssI55
(dp494
S'iters'
p495
I1
sS'meta'
p496
(lp497
(dp498
S'objective'
p499
I1
sS'query_time'
p500
F23.884299993515015
sS'comp_time'
p501
F2.7041611671447754
sS'exec_cq'
p502
I2
sS'total_cq'
p503
I2
sasS'total_cqs'
p504
I2
ssI56
(dp505
S'iters'
p506
I0
sS'meta'
p507
(lp508
sS'total_cqs'
p509
I1
ssI57
(dp510
S'iters'
p511
I1
sS'meta'
p512
(lp513
(dp514
S'objective'
p515
I2
sS'query_time'
p516
F11.894915103912354
sS'comp_time'
p517
F2.3746862411499023
sS'exec_cq'
p518
I2
sS'total_cq'
p519
I3
sasS'total_cqs'
p520
I3
ssI108
(dp521
S'iters'
p522
I0
sS'meta'
p523
(lp524
sS'total_cqs'
p525
I1
ssI109
(dp526
S'iters'
p527
I0
sS'meta'
p528
(lp529
sS'total_cqs'
p530
I1
ssI116
(dp531
S'iters'
p532
I3
sS'meta'
p533
(lp534
(dp535
S'objective'
p536
I191
sS'query_time'
p537
F3.5752501487731934
sS'comp_time'
p538
F0.5250821113586426
sS'exec_cq'
p539
I15
sS'total_cq'
p540
I21
sa(dp541
g536
I165
sg537
F0.4768180847167969
sg538
F0.004076480865478516
sg539
I14
sg540
I19
sa(dp542
g536
I11
sg537
F0.0006718635559082031
sg538
F0.0031502246856689453
sg539
I2
sg540
I2
sasS'total_cqs'
p543
I21
ssI117
(dp544
S'iters'
p545
I2
sS'meta'
p546
(lp547
(dp548
S'objective'
p549
I13
sS'query_time'
p550
F0.008172988891601562
sS'comp_time'
p551
F0.00185394287109375
sS'exec_cq'
p552
I3
sS'total_cq'
p553
I5
sa(dp554
g549
I4
sg550
F0.001971006393432617
sg551
F7.510185241699219e-05
sg552
I1
sg553
I4
sasS'total_cqs'
p555
I5
ssI118
(dp556
S'iters'
p557
I0
sS'meta'
p558
(lp559
sS'total_cqs'
p560
I1
ssI122
(dp561
S'iters'
p562
I0
sS'meta'
p563
(lp564
sS'total_cqs'
p565
I1
ss.