(dp0
I1
(dp1
S'iters'
p2
I2
sS'meta'
p3
(lp4
(dp5
S'objective'
p6
I3
sS'query_time'
p7
F4.300275087356567
sS'comp_time'
p8
F7.390975952148438e-05
sS'exec_cq'
p9
I1
sS'total_cq'
p10
I6
sa(dp11
g6
I3
sg7
F200.1995120048523
sg8
F2.8133392333984375e-05
sg9
I1
sg10
I2
sasS'total_cqs'
p12
I6
ssI2
(dp13
S'iters'
p14
I1
sS'meta'
p15
(lp16
(dp17
S'objective'
p18
I9
sS'query_time'
p19
F0.7365880012512207
sS'comp_time'
p20
F6.604194641113281e-05
sS'exec_cq'
p21
I1
sS'total_cq'
p22
I6
sasS'total_cqs'
p23
I6
ssI3
(dp24
S'iters'
p25
I7
sS'meta'
p26
(lp27
(dp28
S'objective'
p29
I441
sS'query_time'
p30
F0.05832409858703613
sS'comp_time'
p31
F8.392333984375e-05
sS'exec_cq'
p32
I1
sS'total_cq'
p33
I33
sa(dp34
g29
I395
sg30
F0.7576711177825928
sg31
F8.893013000488281e-05
sg32
I1
sg33
I30
sa(dp35
g29
I386
sg30
F0.008100032806396484
sg31
F5.5789947509765625e-05
sg32
I1
sg33
I27
sa(dp36
g29
I269
sg30
F0.0178220272064209
sg31
F5.4836273193359375e-05
sg32
I1
sg33
I26
sa(dp37
g29
I243
sg30
F0.013048887252807617
sg31
F4.482269287109375e-05
sg32
I1
sg33
I23
sa(dp38
g29
I161
sg30
F0.8364791870117188
sg31
F0.0001010894775390625
sg32
I1
sg33
I21
sa(dp39
g29
I175
sg30
F0.1813521385192871
sg31
F7.295608520507812e-05
sg32
I1
sg33
I18
sasS'total_cqs'
p40
I33
ssI4
(dp41
S'iters'
p42
I0
sS'meta'
p43
(lp44
sS'total_cqs'
p45
I1
ssI5
(dp46
S'iters'
p47
I0
sS'meta'
p48
(lp49
sS'total_cqs'
p50
I1
ssI6
(dp51
S'iters'
p52
I2
sS'meta'
p53
(lp54
(dp55
S'objective'
p56
I1
sS'query_time'
p57
F4.185083866119385
sS'comp_time'
p58
F8.392333984375e-05
sS'exec_cq'
p59
I1
sS'total_cq'
p60
I5
sa(dp61
g56
I2
sg57
F89.1004900932312
sg58
F5.91278076171875e-05
sg59
I1
sg60
I2
sasS'total_cqs'
p62
I5
ssI7
(dp63
S'iters'
p64
I0
sS'meta'
p65
(lp66
sS'total_cqs'
p67
I1
ssI8
(dp68
S'iters'
p69
I1
sS'meta'
p70
(lp71
(dp72
S'objective'
p73
I9
sS'query_time'
p74
F32.404908895492554
sS'comp_time'
p75
F8.392333984375e-05
sS'exec_cq'
p76
I1
sS'total_cq'
p77
I6
sasS'total_cqs'
p78
I6
ssI9
(dp79
S'iters'
p80
I2
sS'meta'
p81
(lp82
(dp83
S'objective'
p84
I1
sS'query_time'
p85
F5.654109001159668
sS'comp_time'
p86
F8.20159912109375e-05
sS'exec_cq'
p87
I1
sS'total_cq'
p88
I6
sa(dp89
g84
I2
sg85
F0.005109071731567383
sg86
F3.314018249511719e-05
sg87
I1
sg88
I2
sasS'total_cqs'
p90
I6
ssI10
(dp91
S'iters'
p92
I0
sS'meta'
p93
(lp94
sS'total_cqs'
p95
I1
ssI11
(dp96
S'iters'
p97
I0
sS'meta'
p98
(lp99
sS'total_cqs'
p100
I1
ssI12
(dp101
S'iters'
p102
I0
sS'meta'
p103
(lp104
sS'total_cqs'
p105
I1
ssI13
(dp106
S'iters'
p107
I1
sS'meta'
p108
(lp109
(dp110
S'objective'
p111
I22
sS'query_time'
p112
F0.2766389846801758
sS'comp_time'
p113
F5.2928924560546875e-05
sS'exec_cq'
p114
I2
sS'total_cq'
p115
I8
sasS'total_cqs'
p116
I8
ssI14
(dp117
S'iters'
p118
I1
sS'meta'
p119
(lp120
(dp121
S'objective'
p122
I5
sS'query_time'
p123
F0.9395918846130371
sS'comp_time'
p124
F5.888938903808594e-05
sS'exec_cq'
p125
I1
sS'total_cq'
p126
I5
sasS'total_cqs'
p127
I5
ssI16
(dp128
S'iters'
p129
I2
sS'meta'
p130
(lp131
(dp132
S'objective'
p133
I3
sS'query_time'
p134
F6.708499908447266
sS'comp_time'
p135
F7.295608520507812e-05
sS'exec_cq'
p136
I1
sS'total_cq'
p137
I5
sa(dp138
g133
I4
sg134
F116.52993488311768
sg135
F6.198883056640625e-05
sg136
I2
sg137
I2
sasS'total_cqs'
p139
I5
ssI17
(dp140
S'iters'
p141
I0
sS'meta'
p142
(lp143
sS'total_cqs'
p144
I1
ssI18
(dp145
S'iters'
p146
I2
sS'meta'
p147
(lp148
(dp149
S'objective'
p150
I1
sS'query_time'
p151
F0.413830041885376
sS'comp_time'
p152
F7.200241088867188e-05
sS'exec_cq'
p153
I1
sS'total_cq'
p154
I5
sa(dp155
g150
I3
sg151
F0.3301219940185547
sg152
F0.0001308917999267578
sg153
I2
sg154
I2
sasS'total_cqs'
p156
I5
ssI19
(dp157
S'iters'
p158
I0
sS'meta'
p159
(lp160
sS'total_cqs'
p161
I1
ssI20
(dp162
S'iters'
p163
I2
sS'meta'
p164
(lp165
(dp166
S'objective'
p167
I56
sS'query_time'
p168
F5.712823867797852
sS'comp_time'
p169
F8.106231689453125e-05
sS'exec_cq'
p170
I2
sS'total_cq'
p171
I12
sa(dp172
g167
I47
sg168
F0.1123960018157959
sg169
F7.104873657226562e-05
sg170
I2
sg171
I11
sasS'total_cqs'
p173
I12
ssI21
(dp174
S'iters'
p175
I3
sS'meta'
p176
(lp177
(dp178
S'objective'
p179
I61
sS'query_time'
p180
F20.408150911331177
sS'comp_time'
p181
F0.00011515617370605469
sS'exec_cq'
p182
I1
sS'total_cq'
p183
I14
sa(dp184
g179
I47
sg180
F0.08305907249450684
sg181
F0.00010895729064941406
sg182
I1
sg183
I12
sa(dp185
g179
I41
sg180
F0.014155864715576172
sg181
F3.910064697265625e-05
sg182
I1
sg183
I10
sasS'total_cqs'
p186
I14
ssI22
(dp187
S'iters'
p188
I1
sS'meta'
p189
(lp190
(dp191
S'objective'
p192
I1
sS'query_time'
p193
F0.005202054977416992
sS'comp_time'
p194
F6.890296936035156e-05
sS'exec_cq'
p195
I1
sS'total_cq'
p196
I2
sasS'total_cqs'
p197
I2
ssI23
(dp198
S'iters'
p199
I0
sS'meta'
p200
(lp201
sS'total_cqs'
p202
I1
ssI24
(dp203
S'iters'
p204
I0
sS'meta'
p205
(lp206
sS'total_cqs'
p207
I1
ssI25
(dp208
S'iters'
p209
I1
sS'meta'
p210
(lp211
(dp212
S'objective'
p213
I14
sS'query_time'
p214
F0.39988112449645996
sS'comp_time'
p215
F6.985664367675781e-05
sS'exec_cq'
p216
I1
sS'total_cq'
p217
I7
sasS'total_cqs'
p218
I7
ssI26
(dp219
S'iters'
p220
I3
sS'meta'
p221
(lp222
(dp223
S'objective'
p224
I65
sS'query_time'
p225
F0.10278701782226562
sS'comp_time'
p226
F5.888938903808594e-05
sS'exec_cq'
p227
I1
sS'total_cq'
p228
I13
sa(dp229
g224
I52
sg225
F1.5632729530334473
sg226
F0.0001010894775390625
sg227
I1
sg228
I12
sa(dp230
g224
I43
sg225
F0.007033109664916992
sg226
F4.291534423828125e-05
sg227
I1
sg228
I10
sasS'total_cqs'
p231
I13
ssI27
(dp232
S'iters'
p233
I1
sS'meta'
p234
(lp235
(dp236
S'objective'
p237
I1
sS'query_time'
p238
F0.365537166595459
sS'comp_time'
p239
F6.508827209472656e-05
sS'exec_cq'
p240
I1
sS'total_cq'
p241
I2
sasS'total_cqs'
p242
I2
ssI28
(dp243
S'iters'
p244
I3
sS'meta'
p245
(lp246
(dp247
S'objective'
p248
I77
sS'query_time'
p249
F1.3139009475708008
sS'comp_time'
p250
F8.20159912109375e-05
sS'exec_cq'
p251
I1
sS'total_cq'
p252
I14
sa(dp253
g248
I25
sg249
F1.114691972732544
sg250
F4.100799560546875e-05
sg251
I1
sg252
I13
sa(dp254
g248
I34
sg249
F0.45993804931640625
sg250
F3.218650817871094e-05
sg251
I1
sg252
I8
sasS'total_cqs'
p255
I14
ssI29
(dp256
S'iters'
p257
I1
sS'meta'
p258
(lp259
(dp260
S'objective'
p261
I1
sS'query_time'
p262
F0.006834983825683594
sS'comp_time'
p263
F5.507469177246094e-05
sS'exec_cq'
p264
I1
sS'total_cq'
p265
I2
sasS'total_cqs'
p266
I2
ssI30
(dp267
S'iters'
p268
I1
sS'meta'
p269
(lp270
(dp271
S'objective'
p272
I1
sS'query_time'
p273
F0.3915431499481201
sS'comp_time'
p274
F6.198883056640625e-05
sS'exec_cq'
p275
I1
sS'total_cq'
p276
I2
sasS'total_cqs'
p277
I2
ssI31
(dp278
S'iters'
p279
I3
sS'meta'
p280
(lp281
(dp282
S'objective'
p283
I27
sS'query_time'
p284
F0.014297008514404297
sS'comp_time'
p285
F5.888938903808594e-05
sS'exec_cq'
p286
I1
sS'total_cq'
p287
I9
sa(dp288
g283
I10
sg284
F0.532724142074585
sg285
F5.888938903808594e-05
sg286
I1
sg287
I8
sa(dp289
g283
I3
sg284
F0.259113073348999
sg285
F2.7894973754882812e-05
sg286
I1
sg287
I2
sasS'total_cqs'
p290
I9
ssI32
(dp291
S'iters'
p292
I1
sS'meta'
p293
(lp294
(dp295
S'objective'
p296
I14
sS'query_time'
p297
F0.21477913856506348
sS'comp_time'
p298
F8.296966552734375e-05
sS'exec_cq'
p299
I1
sS'total_cq'
p300
I7
sasS'total_cqs'
p301
I7
ssI33
(dp302
S'iters'
p303
I1
sS'meta'
p304
(lp305
(dp306
S'objective'
p307
I1
sS'query_time'
p308
F0.034713029861450195
sS'comp_time'
p309
F6.818771362304688e-05
sS'exec_cq'
p310
I1
sS'total_cq'
p311
I2
sasS'total_cqs'
p312
I2
ssI34
(dp313
S'iters'
p314
I0
sS'meta'
p315
(lp316
sS'total_cqs'
p317
I1
ssI35
(dp318
S'iters'
p319
I2
sS'meta'
p320
(lp321
(dp322
S'objective'
p323
I1
sS'query_time'
p324
F1.3911101818084717
sS'comp_time'
p325
F7.104873657226562e-05
sS'exec_cq'
p326
I1
sS'total_cq'
p327
I5
sa(dp328
g323
I3
sg324
F0.8118340969085693
sg325
F3.600120544433594e-05
sg326
I1
sg327
I2
sasS'total_cqs'
p329
I5
ssI37
(dp330
S'iters'
p331
I2
sS'meta'
p332
(lp333
(dp334
S'objective'
p335
I35
sS'query_time'
p336
F0.016032934188842773
sS'comp_time'
p337
F6.818771362304688e-05
sS'exec_cq'
p338
I1
sS'total_cq'
p339
I10
sa(dp340
g335
I27
sg336
F0.4404020309448242
sg337
F7.605552673339844e-05
sg338
I1
sg339
I9
sasS'total_cqs'
p341
I10
ssI38
(dp342
S'iters'
p343
I0
sS'meta'
p344
(lp345
sS'total_cqs'
p346
I1
ssI39
(dp347
S'iters'
p348
I0
sS'meta'
p349
(lp350
sS'total_cqs'
p351
I1
ssI40
(dp352
S'iters'
p353
I1
sS'meta'
p354
(lp355
(dp356
S'objective'
p357
I1
sS'query_time'
p358
F16.129554986953735
sS'comp_time'
p359
F0.0001609325408935547
sS'exec_cq'
p360
I2
sS'total_cq'
p361
I2
sasS'total_cqs'
p362
I2
ssI41
(dp363
S'iters'
p364
I2
sS'meta'
p365
(lp366
(dp367
S'objective'
p368
I1
sS'query_time'
p369
F6.485635042190552
sS'comp_time'
p370
F7.605552673339844e-05
sS'exec_cq'
p371
I1
sS'total_cq'
p372
I6
sa(dp373
g368
I2
sg369
F75.75389194488525
sg370
F7.009506225585938e-05
sg371
I2
sg372
I2
sasS'total_cqs'
p374
I6
ssI42
(dp375
S'iters'
p376
I1
sS'meta'
p377
(lp378
(dp379
S'objective'
p380
I1
sS'query_time'
p381
F0.016575098037719727
sS'comp_time'
p382
F6.198883056640625e-05
sS'exec_cq'
p383
I1
sS'total_cq'
p384
I2
sasS'total_cqs'
p385
I2
ssI43
(dp386
S'iters'
p387
I0
sS'meta'
p388
(lp389
sS'total_cqs'
p390
I1
ssI44
(dp391
S'iters'
p392
I1
sS'meta'
p393
(lp394
(dp395
S'objective'
p396
I5
sS'query_time'
p397
F0.0074748992919921875
sS'comp_time'
p398
F3.409385681152344e-05
sS'exec_cq'
p399
I1
sS'total_cq'
p400
I5
sasS'total_cqs'
p401
I5
ssI45
(dp402
S'iters'
p403
I2
sS'meta'
p404
(lp405
(dp406
S'objective'
p407
I3
sS'query_time'
p408
F0.03084087371826172
sS'comp_time'
p409
F5.1021575927734375e-05
sS'exec_cq'
p410
I1
sS'total_cq'
p411
I5
sa(dp412
g407
I1
sg408
F0.6568789482116699
sg409
F6.794929504394531e-05
sg410
I2
sg411
I2
sasS'total_cqs'
p413
I5
ssI46
(dp414
S'iters'
p415
I0
sS'meta'
p416
(lp417
sS'total_cqs'
p418
I1
ssI47
(dp419
S'iters'
p420
I0
sS'meta'
p421
(lp422
sS'total_cqs'
p423
I1
ssI48
(dp424
S'iters'
p425
I1
sS'meta'
p426
(lp427
(dp428
S'objective'
p429
I1
sS'query_time'
p430
F0.1943988800048828
sS'comp_time'
p431
F8.106231689453125e-05
sS'exec_cq'
p432
I1
sS'total_cq'
p433
I2
sasS'total_cqs'
p434
I2
ssI49
(dp435
S'iters'
p436
I1
sS'meta'
p437
(lp438
(dp439
S'objective'
p440
I5
sS'query_time'
p441
F0.1478281021118164
sS'comp_time'
p442
F6.198883056640625e-05
sS'exec_cq'
p443
I1
sS'total_cq'
p444
I5
sasS'total_cqs'
p445
I5
ssI50
(dp446
S'iters'
p447
I1
sS'meta'
p448
(lp449
(dp450
S'objective'
p451
I5
sS'query_time'
p452
F0.7536871433258057
sS'comp_time'
p453
F7.104873657226562e-05
sS'exec_cq'
p454
I1
sS'total_cq'
p455
I5
sasS'total_cqs'
p456
I5
ssI51
(dp457
S'iters'
p458
I0
sS'meta'
p459
(lp460
sS'total_cqs'
p461
I1
ssI52
(dp462
S'iters'
p463
I0
sS'meta'
p464
(lp465
sS'total_cqs'
p466
I1
ssI53
(dp467
S'iters'
p468
I0
sS'meta'
p469
(lp470
sS'total_cqs'
p471
I1
ssI55
(dp472
S'iters'
p473
I1
sS'meta'
p474
(lp475
(dp476
S'objective'
p477
I1
sS'query_time'
p478
F12.38894510269165
sS'comp_time'
p479
F5.888938903808594e-05
sS'exec_cq'
p480
I1
sS'total_cq'
p481
I2
sasS'total_cqs'
p482
I2
ssI56
(dp483
S'iters'
p484
I0
sS'meta'
p485
(lp486
sS'total_cqs'
p487
I1
ssI57
(dp488
S'iters'
p489
I2
sS'meta'
p490
(lp491
(dp492
S'objective'
p493
I0
sS'query_time'
p494
F2.3536031246185303
sS'comp_time'
p495
F0.0011191368103027344
sS'exec_cq'
p496
I1
sS'total_cq'
p497
I3
sa(dp498
g493
I1
sg494
F10.590869903564453
sg495
F0.0001919269561767578
sg496
I1
sg497
I2
sasS'total_cqs'
p499
I3
ssI108
(dp500
S'iters'
p501
I0
sS'meta'
p502
(lp503
sS'total_cqs'
p504
I1
ssI109
(dp505
S'iters'
p506
I0
sS'meta'
p507
(lp508
sS'total_cqs'
p509
I1
ssI116
(dp510
S'iters'
p511
I3
sS'meta'
p512
(lp513
(dp514
S'objective'
p515
I189
sS'query_time'
p516
F3.777899980545044
sS'comp_time'
p517
F0.0006070137023925781
sS'exec_cq'
p518
I1
sS'total_cq'
p519
I21
sa(dp520
g515
I174
sg516
F0.10010099411010742
sg517
F7.414817810058594e-05
sg518
I3
sg519
I20
sa(dp521
g515
I158
sg516
F0.15194201469421387
sg517
F7.605552673339844e-05
sg518
I3
sg519
I19
sasS'total_cqs'
p522
I21
ssI117
(dp523
S'iters'
p524
I1
sS'meta'
p525
(lp526
(dp527
S'objective'
p528
I5
sS'query_time'
p529
F0.0073947906494140625
sS'comp_time'
p530
F5.1975250244140625e-05
sS'exec_cq'
p531
I1
sS'total_cq'
p532
I5
sasS'total_cqs'
p533
I5
ssI118
(dp534
S'iters'
p535
I0
sS'meta'
p536
(lp537
sS'total_cqs'
p538
I1
ssI122
(dp539
S'iters'
p540
I0
sS'meta'
p541
(lp542
sS'total_cqs'
p543
I1
ss.