(dp0
I1
(dp1
S'iters'
p2
I1
sS'meta'
p3
(lp4
(dp5
S'objective'
p6
I9
sS'query_time'
p7
F24.05540680885315
sS'comp_time'
p8
F20.10185408592224
sS'exec_cq'
p9
I6
sS'total_cq'
p10
I6
sasS'total_cqs'
p11
I6
ssI2
(dp12
S'iters'
p13
I1
sS'meta'
p14
(lp15
(dp16
S'objective'
p17
I9
sS'query_time'
p18
F5.268356084823608
sS'comp_time'
p19
F0.07632207870483398
sS'exec_cq'
p20
I6
sS'total_cq'
p21
I6
sasS'total_cqs'
p22
I6
ssI3
(dp23
S'iters'
p24
I6
sS'meta'
p25
(lp26
(dp27
S'objective'
p28
I409
sS'query_time'
p29
F59.88681721687317
sS'comp_time'
p30
F0.16912412643432617
sS'exec_cq'
p31
I33
sS'total_cq'
p32
I33
sa(dp33
g28
I345
sg29
F0.012573957443237305
sg30
F0.0587160587310791
sg31
I30
sg32
I30
sa(dp34
g28
I291
sg29
F0.010443925857543945
sg30
F0.05255699157714844
sg31
I27
sg32
I27
sa(dp35
g28
I265
sg29
F0.010085105895996094
sg30
F0.052091360092163086
sg31
I24
sg32
I24
sa(dp36
g28
I237
sg29
F0.008292913436889648
sg30
F0.06267404556274414
sg31
I21
sg32
I21
sa(dp37
g28
I207
sg29
F0.008517026901245117
sg30
F0.04292798042297363
sg31
I18
sg32
I18
sasS'total_cqs'
p38
I33
ssI4
(dp39
S'iters'
p40
I0
sS'meta'
p41
(lp42
sS'total_cqs'
p43
I1
ssI5
(dp44
S'iters'
p45
I0
sS'meta'
p46
(lp47
sS'total_cqs'
p48
I1
ssI6
(dp49
S'iters'
p50
I4
sS'meta'
p51
(lp52
(dp53
S'objective'
p54
I9
sS'query_time'
p55
F42.76058506965637
sS'comp_time'
p56
F6.565380096435547
sS'exec_cq'
p57
I5
sS'total_cq'
p58
I5
sa(dp59
g54
I10
sg55
F0.0005710124969482422
sg56
F18.165615797042847
sg57
I4
sg58
I4
sa(dp60
g54
I7
sg55
F0.0007190704345703125
sg56
F2.1102328300476074
sg57
I3
sg58
I3
sa(dp61
g54
I1
sg55
F5.316734313964844e-05
sg56
F33.75925898551941
sg57
I2
sg58
I2
sasS'total_cqs'
p62
I5
ssI7
(dp63
S'iters'
p64
I0
sS'meta'
p65
(lp66
sS'total_cqs'
p67
I1
ssI8
(dp68
S'iters'
p69
I1
sS'meta'
p70
(lp71
(dp72
S'objective'
p73
I9
sS'query_time'
p74
F42.22992300987244
sS'comp_time'
p75
F12.999933004379272
sS'exec_cq'
p76
I6
sS'total_cq'
p77
I6
sasS'total_cqs'
p78
I6
ssI9
(dp79
S'iters'
p80
I2
sS'meta'
p81
(lp82
(dp83
S'objective'
p84
I1
sS'query_time'
p85
F28.726671934127808
sS'comp_time'
p86
F20.21580410003662
sS'exec_cq'
p87
I6
sS'total_cq'
p88
I6
sa(dp89
g84
I1
sg85
F0.0071370601654052734
sg86
F0.059587955474853516
sg87
I2
sg88
I2
sasS'total_cqs'
p90
I6
ssI10
(dp91
S'iters'
p92
I0
sS'meta'
p93
(lp94
sS'total_cqs'
p95
I1
ssI11
(dp96
S'iters'
p97
I0
sS'meta'
p98
(lp99
sS'total_cqs'
p100
I1
ssI12
(dp101
S'iters'
p102
I0
sS'meta'
p103
(lp104
sS'total_cqs'
p105
I1
ssI13
(dp106
S'iters'
p107
I1
sS'meta'
p108
(lp109
(dp110
S'objective'
p111
I20
sS'query_time'
p112
F0.7280311584472656
sS'comp_time'
p113
F0.00024819374084472656
sS'exec_cq'
p114
I8
sS'total_cq'
p115
I8
sasS'total_cqs'
p116
I8
ssI14
(dp117
S'iters'
p118
I3
sS'meta'
p119
(lp120
(dp121
S'objective'
p122
I11
sS'query_time'
p123
F40.97336411476135
sS'comp_time'
p124
F0.0055119991302490234
sS'exec_cq'
p125
I5
sS'total_cq'
p126
I5
sa(dp127
g122
I11
sg123
F0.0002338886260986328
sg124
F0.0025701522827148438
sg125
I4
sg126
I4
sa(dp128
g122
I2
sg123
F0.004580974578857422
sg124
F0.12471199035644531
sg125
I3
sg126
I3
sasS'total_cqs'
p129
I5
ssI16
(dp130
S'iters'
p131
I2
sS'meta'
p132
(lp133
(dp134
S'objective'
p135
I1
sS'query_time'
p136
F40.95338797569275
sS'comp_time'
p137
F20.008933067321777
sS'exec_cq'
p138
I5
sS'total_cq'
p139
I5
sa(dp140
g135
I3
sg136
F0.00030994415283203125
sg137
F0.0016179084777832031
sg138
I2
sg139
I2
sasS'total_cqs'
p141
I5
ssI17
(dp142
S'iters'
p143
I0
sS'meta'
p144
(lp145
sS'total_cqs'
p146
I1
ssI18
(dp147
S'iters'
p148
I2
sS'meta'
p149
(lp150
(dp151
S'objective'
p152
I1
sS'query_time'
p153
F11.297164916992188
sS'comp_time'
p154
F0.0003409385681152344
sS'exec_cq'
p155
I5
sS'total_cq'
p156
I5
sa(dp157
g152
I3
sg153
F3.1948089599609375e-05
sg154
F9.202957153320312e-05
sg155
I2
sg156
I2
sasS'total_cqs'
p158
I5
ssI19
(dp159
S'iters'
p160
I0
sS'meta'
p161
(lp162
sS'total_cqs'
p163
I1
ssI20
(dp164
S'iters'
p165
I3
sS'meta'
p166
(lp167
(dp168
S'objective'
p169
I40
sS'query_time'
p170
F50.45829796791077
sS'comp_time'
p171
F1.1523237228393555
sS'exec_cq'
p172
I12
sS'total_cq'
p173
I12
sa(dp174
g169
I31
sg170
F0.22886395454406738
sg171
F0.9223682880401611
sg172
I10
sg173
I10
sa(dp175
g169
I21
sg170
F0.19606995582580566
sg171
F0.9404687881469727
sg172
I8
sg173
I8
sasS'total_cqs'
p176
I12
ssI21
(dp177
S'iters'
p178
I2
sS'meta'
p179
(lp180
(dp181
S'objective'
p182
I67
sS'query_time'
p183
F40.41038918495178
sS'comp_time'
p184
F0.20879077911376953
sS'exec_cq'
p185
I14
sS'total_cq'
p186
I14
sa(dp187
g182
I9
sg183
F0.004163980484008789
sg184
F0.021877050399780273
sg185
I2
sg186
I2
sasS'total_cqs'
p188
I14
ssI22
(dp189
S'iters'
p190
I1
sS'meta'
p191
(lp192
(dp193
S'objective'
p194
I1
sS'query_time'
p195
F0.008034944534301758
sS'comp_time'
p196
F0.00015497207641601562
sS'exec_cq'
p197
I2
sS'total_cq'
p198
I2
sasS'total_cqs'
p199
I2
ssI23
(dp200
S'iters'
p201
I0
sS'meta'
p202
(lp203
sS'total_cqs'
p204
I1
ssI24
(dp205
S'iters'
p206
I0
sS'meta'
p207
(lp208
sS'total_cqs'
p209
I1
ssI25
(dp210
S'iters'
p211
I1
sS'meta'
p212
(lp213
(dp214
S'objective'
p215
I14
sS'query_time'
p216
F27.18996500968933
sS'comp_time'
p217
F0.019309043884277344
sS'exec_cq'
p218
I7
sS'total_cq'
p219
I7
sasS'total_cqs'
p220
I7
ssI26
(dp221
S'iters'
p222
I3
sS'meta'
p223
(lp224
(dp225
S'objective'
p226
I47
sS'query_time'
p227
F26.33932399749756
sS'comp_time'
p228
F0.05612516403198242
sS'exec_cq'
p229
I13
sS'total_cq'
p230
I13
sa(dp231
g226
I35
sg227
F0.00562596321105957
sg228
F0.02977919578552246
sg229
I11
sg230
I11
sa(dp232
g226
I26
sg227
F0.002146005630493164
sg228
F0.011175870895385742
sg229
I9
sg230
I9
sasS'total_cqs'
p233
I13
ssI27
(dp234
S'iters'
p235
I1
sS'meta'
p236
(lp237
(dp238
S'objective'
p239
I1
sS'query_time'
p240
F11.030508041381836
sS'comp_time'
p241
F0.0060160160064697266
sS'exec_cq'
p242
I2
sS'total_cq'
p243
I2
sasS'total_cqs'
p244
I2
ssI28
(dp245
S'iters'
p246
I3
sS'meta'
p247
(lp248
(dp249
S'objective'
p250
I61
sS'query_time'
p251
F24.70223307609558
sS'comp_time'
p252
F0.7460229396820068
sS'exec_cq'
p253
I14
sS'total_cq'
p254
I14
sa(dp255
g250
I45
sg251
F0.0007419586181640625
sg252
F0.4575309753417969
sg253
I11
sg254
I11
sa(dp256
g250
I36
sg251
F0.0003058910369873047
sg252
F0.6939389705657959
sg253
I9
sg254
I9
sasS'total_cqs'
p257
I14
ssI29
(dp258
S'iters'
p259
I1
sS'meta'
p260
(lp261
(dp262
S'objective'
p263
I1
sS'query_time'
p264
F0.009878873825073242
sS'comp_time'
p265
F0.00012302398681640625
sS'exec_cq'
p266
I2
sS'total_cq'
p267
I2
sasS'total_cqs'
p268
I2
ssI30
(dp269
S'iters'
p270
I1
sS'meta'
p271
(lp272
(dp273
S'objective'
p274
I1
sS'query_time'
p275
F20.045463800430298
sS'comp_time'
p276
F0.040927886962890625
sS'exec_cq'
p277
I2
sS'total_cq'
p278
I2
sasS'total_cqs'
p279
I2
ssI31
(dp280
S'iters'
p281
I4
sS'meta'
p282
(lp283
(dp284
S'objective'
p285
I19
sS'query_time'
p286
F20.18029808998108
sS'comp_time'
p287
F0.009425878524780273
sS'exec_cq'
p288
I9
sS'total_cq'
p289
I9
sa(dp290
g285
I18
sg286
F3.790855407714844e-05
sg287
F0.003954887390136719
sg288
I7
sg289
I7
sa(dp291
g285
I17
sg286
F2.6941299438476562e-05
sg287
F0.0035479068756103516
sg288
I6
sg289
I6
sa(dp292
g285
I3
sg286
F2.3754019737243652
sg287
F20.096601009368896
sg288
I5
sg289
I5
sasS'total_cqs'
p293
I9
ssI32
(dp294
S'iters'
p295
I2
sS'meta'
p296
(lp297
(dp298
S'objective'
p299
I6
sS'query_time'
p300
F43.788437843322754
sS'comp_time'
p301
F1.209900140762329
sS'exec_cq'
p302
I7
sS'total_cq'
p303
I7
sa(dp304
g299
I3
sg300
F0.0027861595153808594
sg301
F0.015153169631958008
sg302
I4
sg303
I4
sasS'total_cqs'
p305
I7
ssI33
(dp306
S'iters'
p307
I1
sS'meta'
p308
(lp309
(dp310
S'objective'
p311
I1
sS'query_time'
p312
F6.323235034942627
sS'comp_time'
p313
F0.00022292137145996094
sS'exec_cq'
p314
I2
sS'total_cq'
p315
I2
sasS'total_cqs'
p316
I2
ssI34
(dp317
S'iters'
p318
I0
sS'meta'
p319
(lp320
sS'total_cqs'
p321
I1
ssI35
(dp322
S'iters'
p323
I3
sS'meta'
p324
(lp325
(dp326
S'objective'
p327
I1
sS'query_time'
p328
F43.27320599555969
sS'comp_time'
p329
F1.5852298736572266
sS'exec_cq'
p330
I5
sS'total_cq'
p331
I5
sa(dp332
g327
I6
sg328
F0.011744976043701172
sg329
F5.234593868255615
sg330
I3
sg331
I3
sa(dp333
g327
I3
sg328
F0.0005900859832763672
sg329
F6.893799066543579
sg330
I2
sg331
I2
sasS'total_cqs'
p334
I5
ssI37
(dp335
S'iters'
p336
I5
sS'meta'
p337
(lp338
(dp339
S'objective'
p340
I41
sS'query_time'
p341
F20.194504022598267
sS'comp_time'
p342
F0.008877038955688477
sS'exec_cq'
p343
I10
sS'total_cq'
p344
I10
sa(dp345
g340
I38
sg341
F4.1961669921875e-05
sg342
F0.003677845001220703
sg343
I9
sg344
I9
sa(dp346
g340
I39
sg341
F3.3855438232421875e-05
sg342
F0.0032558441162109375
sg343
I8
sg344
I8
sa(dp347
g340
I39
sg341
F3.600120544433594e-05
sg342
F0.003390073776245117
sg343
I7
sg344
I7
sa(dp348
g340
I20
sg341
F2.371583938598633
sg342
F20.164103984832764
sg343
I6
sg344
I6
sasS'total_cqs'
p349
I10
ssI38
(dp350
S'iters'
p351
I0
sS'meta'
p352
(lp353
sS'total_cqs'
p354
I1
ssI39
(dp355
S'iters'
p356
I0
sS'meta'
p357
(lp358
sS'total_cqs'
p359
I1
ssI40
(dp360
S'iters'
p361
I1
sS'meta'
p362
(lp363
(dp364
S'objective'
p365
I1
sS'query_time'
p366
F20.088356971740723
sS'comp_time'
p367
F0.5995821952819824
sS'exec_cq'
p368
I2
sS'total_cq'
p369
I2
sasS'total_cqs'
p370
I2
ssI41
(dp371
S'iters'
p372
I2
sS'meta'
p373
(lp374
(dp375
S'objective'
p376
I7
sS'query_time'
p377
F43.854658126831055
sS'comp_time'
p378
F20.184543132781982
sS'exec_cq'
p379
I6
sS'total_cq'
p380
I6
sa(dp381
g376
I5
sg377
F0.0009210109710693359
sg378
F0.0035288333892822266
sg379
I2
sg380
I2
sasS'total_cqs'
p382
I6
ssI42
(dp383
S'iters'
p384
I1
sS'meta'
p385
(lp386
(dp387
S'objective'
p388
I1
sS'query_time'
p389
F22.70827317237854
sS'comp_time'
p390
F0.008842945098876953
sS'exec_cq'
p391
I2
sS'total_cq'
p392
I2
sasS'total_cqs'
p393
I2
ssI43
(dp394
S'iters'
p395
I0
sS'meta'
p396
(lp397
sS'total_cqs'
p398
I1
ssI44
(dp399
S'iters'
p400
I2
sS'meta'
p401
(lp402
(dp403
S'objective'
p404
I5
sS'query_time'
p405
F7.138890981674194
sS'comp_time'
p406
F0.09028100967407227
sS'exec_cq'
p407
I5
sS'total_cq'
p408
I5
sa(dp409
g404
I0
sg405
F0.01341700553894043
sg406
F0.08779191970825195
sg407
I3
sg408
I3
sasS'total_cqs'
p410
I5
ssI45
(dp411
S'iters'
p412
I2
sS'meta'
p413
(lp414
(dp415
S'objective'
p416
I1
sS'query_time'
p417
F0.7071130275726318
sS'comp_time'
p418
F0.000762939453125
sS'exec_cq'
p419
I5
sS'total_cq'
p420
I5
sa(dp421
g416
I2
sg417
F0.000125885009765625
sg418
F0.0003898143768310547
sg419
I2
sg420
I2
sasS'total_cqs'
p422
I5
ssI46
(dp423
S'iters'
p424
I0
sS'meta'
p425
(lp426
sS'total_cqs'
p427
I1
ssI47
(dp428
S'iters'
p429
I0
sS'meta'
p430
(lp431
sS'total_cqs'
p432
I1
ssI48
(dp433
S'iters'
p434
I1
sS'meta'
p435
(lp436
(dp437
S'objective'
p438
I1
sS'query_time'
p439
F10.566297054290771
sS'comp_time'
p440
F0.0052831172943115234
sS'exec_cq'
p441
I2
sS'total_cq'
p442
I2
sasS'total_cqs'
p443
I2
ssI49
(dp444
S'iters'
p445
I2
sS'meta'
p446
(lp447
(dp448
S'objective'
p449
I1
sS'query_time'
p450
F6.200942039489746
sS'comp_time'
p451
F0.0023980140686035156
sS'exec_cq'
p452
I5
sS'total_cq'
p453
I5
sa(dp454
g449
I3
sg450
F0.0002720355987548828
sg451
F0.0010669231414794922
sg452
I2
sg453
I2
sasS'total_cqs'
p455
I5
ssI50
(dp456
S'iters'
p457
I4
sS'meta'
p458
(lp459
(dp460
S'objective'
p461
I7
sS'query_time'
p462
F40.97715616226196
sS'comp_time'
p463
F0.0057561397552490234
sS'exec_cq'
p464
I5
sS'total_cq'
p465
I5
sa(dp466
g461
I5
sg462
F0.00013709068298339844
sg463
F0.0014450550079345703
sg464
I4
sg465
I4
sa(dp467
g461
I4
sg462
F6.413459777832031e-05
sg463
F0.0010612010955810547
sg464
I3
sg465
I3
sa(dp468
g461
I4
sg462
F6.103515625e-05
sg463
F0.0009479522705078125
sg464
I2
sg465
I2
sasS'total_cqs'
p469
I5
ssI51
(dp470
S'iters'
p471
I0
sS'meta'
p472
(lp473
sS'total_cqs'
p474
I1
ssI52
(dp475
S'iters'
p476
I0
sS'meta'
p477
(lp478
sS'total_cqs'
p479
I1
ssI53
(dp480
S'iters'
p481
I0
sS'meta'
p482
(lp483
sS'total_cqs'
p484
I1
ssI55
(dp485
S'iters'
p486
I1
sS'meta'
p487
(lp488
(dp489
S'objective'
p490
I1
sS'query_time'
p491
F51.275567293167114
sS'comp_time'
p492
F24.434322118759155
sS'exec_cq'
p493
I2
sS'total_cq'
p494
I2
sasS'total_cqs'
p495
I2
ssI56
(dp496
S'iters'
p497
I0
sS'meta'
p498
(lp499
sS'total_cqs'
p500
I1
ssI57
(dp501
S'iters'
p502
I1
sS'meta'
p503
(lp504
(dp505
S'objective'
p506
I0
sS'query_time'
p507
F21.28419804573059
sS'comp_time'
p508
F0.09103798866271973
sS'exec_cq'
p509
I3
sS'total_cq'
p510
I3
sasS'total_cqs'
p511
I3
ssI108
(dp512
S'iters'
p513
I0
sS'meta'
p514
(lp515
sS'total_cqs'
p516
I1
ssI109
(dp517
S'iters'
p518
I0
sS'meta'
p519
(lp520
sS'total_cqs'
p521
I1
ssI116
(dp522
S'iters'
p523
I2
sS'meta'
p524
(lp525
(dp526
S'objective'
p527
I127
sS'query_time'
p528
F37.396580934524536
sS'comp_time'
p529
F0.2897450923919678
sS'exec_cq'
p530
I21
sS'total_cq'
p531
I21
sa(dp532
g527
I10
sg528
F0.00152587890625
sg529
F0.004384040832519531
sg530
I3
sg531
I3
sasS'total_cqs'
p533
I21
ssI117
(dp534
S'iters'
p535
I1
sS'meta'
p536
(lp537
(dp538
S'objective'
p539
I5
sS'query_time'
p540
F0.5247600078582764
sS'comp_time'
p541
F0.00012683868408203125
sS'exec_cq'
p542
I5
sS'total_cq'
p543
I5
sasS'total_cqs'
p544
I5
ssI118
(dp545
S'iters'
p546
I0
sS'meta'
p547
(lp548
sS'total_cqs'
p549
I1
ssI122
(dp550
S'iters'
p551
I0
sS'meta'
p552
(lp553
sS'total_cqs'
p554
I1
ss.