(dp0
I1
(dp1
S'iters'
p2
I4
sS'meta'
p3
(lp4
(dp5
S'objective'
p6
I9
sS'query_time'
p7
F0.01178598403930664
sS'comp_time'
p8
F5.3882598876953125e-05
sS'exec_cq'
p9
I1
sS'total_cq'
p10
I6
sa(dp11
g6
I3
sg7
F16.866353034973145
sg8
F0.00016999244689941406
sg9
I1
sg10
I5
sa(dp12
g6
I1
sg7
F11.860631942749023
sg8
F0.000392913818359375
sg9
I1
sg10
I3
sa(dp13
g6
I1
sg7
F0.4991779327392578
sg8
F0.0003581047058105469
sg9
I1
sg10
I2
sasS'total_cqs'
p14
I6
ssI2
(dp15
S'iters'
p16
I1
sS'meta'
p17
(lp18
(dp19
S'objective'
p20
I15
sS'query_time'
p21
F1.0329668521881104
sS'comp_time'
p22
F6.818771362304688e-05
sS'exec_cq'
p23
I4
sS'total_cq'
p24
I6
sasS'total_cqs'
p25
I6
ssI3
(dp26
S'iters'
p27
I16
sS'meta'
p28
(lp29
(dp30
S'objective'
p31
I463
sS'query_time'
p32
F0.7086129188537598
sS'comp_time'
p33
F0.00010418891906738281
sS'exec_cq'
p34
I1
sS'total_cq'
p35
I33
sa(dp36
g31
I448
sg32
F0.21630191802978516
sg33
F9.799003601074219e-05
sg34
I1
sg35
I30
sa(dp37
g31
I332
sg32
F0.05035400390625
sg33
F6.508827209472656e-05
sg34
I1
sg35
I29
sa(dp38
g31
I346
sg32
F0.07063603401184082
sg33
F9.012222290039062e-05
sg34
I1
sg35
I26
sa(dp39
g31
I318
sg32
F0.04455900192260742
sg33
F7.605552673339844e-05
sg34
I1
sg35
I25
sa(dp40
g31
I291
sg32
F0.21639394760131836
sg33
F9.894371032714844e-05
sg34
I1
sg35
I24
sa(dp41
g31
I265
sg32
F0.0064239501953125
sg33
F4.9114227294921875e-05
sg34
I1
sg35
I23
sa(dp42
g31
I242
sg32
F0.0020208358764648438
sg33
F4.8160552978515625e-05
sg34
I1
sg35
I22
sa(dp43
g31
I173
sg32
F1.1443800926208496
sg33
F0.00010013580322265625
sg34
I1
sg35
I21
sa(dp44
g31
I134
sg32
F0.0114288330078125
sg33
F4.601478576660156e-05
sg34
I1
sg35
I18
sa(dp45
g31
I129
sg32
F0.01075291633605957
sg33
F3.981590270996094e-05
sg34
I1
sg35
I16
sa(dp46
g31
I115
sg32
F0.0016949176788330078
sg33
F4.291534423828125e-05
sg34
I1
sg35
I14
sa(dp47
g31
I86
sg32
F0.04975581169128418
sg33
F5.3882598876953125e-05
sg34
I2
sg35
I13
sa(dp48
g31
I30
sg32
F0.012540817260742188
sg33
F4.00543212890625e-05
sg34
I2
sg35
I11
sa(dp49
g31
I38
sg32
F0.005237102508544922
sg33
F3.600120544433594e-05
sg34
I2
sg35
I8
sa(dp50
g31
I34
sg32
F0.17958307266235352
sg33
F6.794929504394531e-05
sg34
I3
sg35
I6
sasS'total_cqs'
p51
I33
ssI4
(dp52
S'iters'
p53
I0
sS'meta'
p54
(lp55
sS'total_cqs'
p56
I1
ssI5
(dp57
S'iters'
p58
I0
sS'meta'
p59
(lp60
sS'total_cqs'
p61
I1
ssI6
(dp62
S'iters'
p63
I3
sS'meta'
p64
(lp65
(dp66
S'objective'
p67
I5
sS'query_time'
p68
F7.776658058166504
sS'comp_time'
p69
F7.510185241699219e-05
sS'exec_cq'
p70
I1
sS'total_cq'
p71
I5
sa(dp72
g67
I2
sg68
F0.392927885055542
sg69
F7.700920104980469e-05
sg70
I1
sg71
I4
sa(dp73
g67
I2
sg68
F0.011642932891845703
sg69
F4.696846008300781e-05
sg70
I1
sg71
I2
sasS'total_cqs'
p74
I5
ssI7
(dp75
S'iters'
p76
I0
sS'meta'
p77
(lp78
sS'total_cqs'
p79
I1
ssI8
(dp80
S'iters'
p81
I3
sS'meta'
p82
(lp83
(dp84
S'objective'
p85
I1
sS'query_time'
p86
F20.21960210800171
sS'comp_time'
p87
F6.103515625e-05
sS'exec_cq'
p88
I1
sS'total_cq'
p89
I6
sa(dp90
g85
I2
sg86
F41.48895597457886
sg87
F0.00010395050048828125
sg88
I1
sg89
I4
sa(dp91
g85
I0
sg86
F27.741023063659668
sg87
F8.797645568847656e-05
sg88
I1
sg89
I3
sasS'total_cqs'
p92
I6
ssI9
(dp93
S'iters'
p94
I3
sS'meta'
p95
(lp96
(dp97
S'objective'
p98
I1
sS'query_time'
p99
F22.352893829345703
sS'comp_time'
p100
F0.02342987060546875
sS'exec_cq'
p101
I1
sS'total_cq'
p102
I6
sa(dp103
g98
I8
sg99
F1.9748671054840088
sg100
F4.601478576660156e-05
sg101
I1
sg102
I4
sa(dp104
g98
I3
sg99
F0.8093459606170654
sg100
F5.793571472167969e-05
sg101
I1
sg102
I3
sasS'total_cqs'
p105
I6
ssI10
(dp106
S'iters'
p107
I0
sS'meta'
p108
(lp109
sS'total_cqs'
p110
I1
ssI11
(dp111
S'iters'
p112
I0
sS'meta'
p113
(lp114
sS'total_cqs'
p115
I1
ssI12
(dp116
S'iters'
p117
I0
sS'meta'
p118
(lp119
sS'total_cqs'
p120
I1
ssI13
(dp121
S'iters'
p122
I2
sS'meta'
p123
(lp124
(dp125
S'objective'
p126
I26
sS'query_time'
p127
F8.13966703414917
sS'comp_time'
p128
F6.604194641113281e-05
sS'exec_cq'
p129
I4
sS'total_cq'
p130
I8
sa(dp131
g126
I25
sg127
F0.11231207847595215
sg128
F5.888938903808594e-05
sg129
I5
sg130
I7
sasS'total_cqs'
p132
I8
ssI14
(dp133
S'iters'
p134
I2
sS'meta'
p135
(lp136
(dp137
S'objective'
p138
I5
sS'query_time'
p139
F0.24123096466064453
sS'comp_time'
p140
F7.510185241699219e-05
sS'exec_cq'
p141
I1
sS'total_cq'
p142
I5
sa(dp143
g138
I4
sg139
F1.061399221420288
sg140
F8.106231689453125e-05
sg141
I2
sg142
I4
sasS'total_cqs'
p144
I5
ssI16
(dp145
S'iters'
p146
I3
sS'meta'
p147
(lp148
(dp149
S'objective'
p150
I1
sS'query_time'
p151
F1.0022940635681152
sS'comp_time'
p152
F7.891654968261719e-05
sS'exec_cq'
p153
I1
sS'total_cq'
p154
I5
sa(dp155
g150
I0
sg151
F0.22585701942443848
sg152
F9.393692016601562e-05
sg153
I1
sg154
I3
sa(dp156
g150
I2
sg151
F0.052763938903808594
sg152
F8.58306884765625e-05
sg153
I1
sg154
I2
sasS'total_cqs'
p157
I5
ssI17
(dp158
S'iters'
p159
I0
sS'meta'
p160
(lp161
sS'total_cqs'
p162
I1
ssI18
(dp163
S'iters'
p164
I2
sS'meta'
p165
(lp166
(dp167
S'objective'
p168
I1
sS'query_time'
p169
F4.75129508972168
sS'comp_time'
p170
F0.00010800361633300781
sS'exec_cq'
p171
I1
sS'total_cq'
p172
I5
sa(dp173
g168
I2
sg169
F1.0952949523925781
sg170
F7.104873657226562e-05
sg171
I1
sg172
I3
sasS'total_cqs'
p174
I5
ssI19
(dp175
S'iters'
p176
I0
sS'meta'
p177
(lp178
sS'total_cqs'
p179
I1
ssI20
(dp180
S'iters'
p181
I4
sS'meta'
p182
(lp183
(dp184
S'objective'
p185
I58
sS'query_time'
p186
F5.612059831619263
sS'comp_time'
p187
F0.0014040470123291016
sS'exec_cq'
p188
I3
sS'total_cq'
p189
I12
sa(dp190
g185
I36
sg186
F0.010466814041137695
sg187
F5.1021575927734375e-05
sg188
I3
sg189
I11
sa(dp191
g185
I24
sg186
F5.000255107879639
sg187
F5.698204040527344e-05
sg188
I3
sg189
I9
sa(dp192
g185
I30
sg186
F0.10435605049133301
sg187
F8.606910705566406e-05
sg188
I4
sg189
I7
sasS'total_cqs'
p193
I12
ssI21
(dp194
S'iters'
p195
I9
sS'meta'
p196
(lp197
(dp198
S'objective'
p199
I75
sS'query_time'
p200
F0.9105310440063477
sS'comp_time'
p201
F7.987022399902344e-05
sS'exec_cq'
p202
I1
sS'total_cq'
p203
I14
sa(dp204
g199
I64
sg200
F20.019032955169678
sg201
F7.104873657226562e-05
sg202
I1
sg203
I12
sa(dp205
g199
I53
sg200
F24.575194835662842
sg201
F0.0002391338348388672
sg202
I1
sg203
I11
sa(dp206
g199
I43
sg200
F25.033687114715576
sg201
F0.0005629062652587891
sg202
I1
sg203
I10
sa(dp207
g199
I34
sg200
F0.26547789573669434
sg201
F5.698204040527344e-05
sg202
I1
sg203
I9
sa(dp208
g199
I10
sg200
F9.342741966247559
sg201
F0.0006351470947265625
sg202
I1
sg203
I8
sa(dp209
g199
I13
sg200
F0.8357410430908203
sg201
F6.008148193359375e-05
sg202
I1
sg203
I6
sa(dp210
g199
I8
sg200
F0.08658504486083984
sg201
F0.00013494491577148438
sg202
I1
sg203
I5
sa(dp211
g199
I4
sg200
F0.009092092514038086
sg201
F4.506111145019531e-05
sg202
I1
sg203
I4
sasS'total_cqs'
p212
I14
ssI22
(dp213
S'iters'
p214
I1
sS'meta'
p215
(lp216
(dp217
S'objective'
p218
I1
sS'query_time'
p219
F0.014451980590820312
sS'comp_time'
p220
F6.890296936035156e-05
sS'exec_cq'
p221
I1
sS'total_cq'
p222
I2
sasS'total_cqs'
p223
I2
ssI23
(dp224
S'iters'
p225
I0
sS'meta'
p226
(lp227
sS'total_cqs'
p228
I1
ssI24
(dp229
S'iters'
p230
I0
sS'meta'
p231
(lp232
sS'total_cqs'
p233
I1
ssI25
(dp234
S'iters'
p235
I5
sS'meta'
p236
(lp237
(dp238
S'objective'
p239
I14
sS'query_time'
p240
F12.019259929656982
sS'comp_time'
p241
F0.00030303001403808594
sS'exec_cq'
p242
I1
sS'total_cq'
p243
I7
sa(dp244
g239
I9
sg240
F24.984803915023804
sg241
F0.00024700164794921875
sg242
I1
sg243
I6
sa(dp245
g239
I5
sg240
F7.780672788619995
sg241
F0.00011992454528808594
sg242
I1
sg243
I5
sa(dp246
g239
I0
sg240
F2.519892930984497
sg241
F7.200241088867188e-05
sg242
I1
sg243
I4
sa(dp247
g239
I1
sg240
F0.14884495735168457
sg241
F7.796287536621094e-05
sg242
I1
sg243
I2
sasS'total_cqs'
p248
I7
ssI26
(dp249
S'iters'
p250
I7
sS'meta'
p251
(lp252
(dp253
S'objective'
p254
I53
sS'query_time'
p255
F2.861203908920288
sS'comp_time'
p256
F6.008148193359375e-05
sS'exec_cq'
p257
I1
sS'total_cq'
p258
I13
sa(dp259
g254
I32
sg255
F5.500402927398682
sg256
F7.915496826171875e-05
sg257
I1
sg258
I11
sa(dp260
g254
I30
sg255
F0.033132076263427734
sg256
F4.601478576660156e-05
sg257
I1
sg258
I9
sa(dp261
g254
I21
sg255
F0.060716867446899414
sg256
F8.20159912109375e-05
sg257
I1
sg258
I8
sa(dp262
g254
I13
sg255
F17.73262310028076
sg256
F0.00016498565673828125
sg257
I1
sg258
I7
sa(dp263
g254
I8
sg255
F0.051457881927490234
sg256
F5.1975250244140625e-05
sg257
I1
sg258
I6
sa(dp264
g254
I5
sg255
F0.0029790401458740234
sg256
F2.7894973754882812e-05
sg257
I1
sg258
I5
sasS'total_cqs'
p265
I13
ssI27
(dp266
S'iters'
p267
I1
sS'meta'
p268
(lp269
(dp270
S'objective'
p271
I1
sS'query_time'
p272
F0.37146997451782227
sS'comp_time'
p273
F7.700920104980469e-05
sS'exec_cq'
p274
I1
sS'total_cq'
p275
I2
sasS'total_cqs'
p276
I2
ssI28
(dp277
S'iters'
p278
I7
sS'meta'
p279
(lp280
(dp281
S'objective'
p282
I69
sS'query_time'
p283
F1.9439060688018799
sS'comp_time'
p284
F4.696846008300781e-05
sS'exec_cq'
p285
I1
sS'total_cq'
p286
I14
sa(dp287
g282
I41
sg283
F1.325448989868164
sg284
F4.410743713378906e-05
sg285
I1
sg286
I11
sa(dp288
g282
I10
sg283
F0.599431037902832
sg284
F4.601478576660156e-05
sg285
I1
sg286
I8
sa(dp289
g282
I17
sg283
F0.5281720161437988
sg284
F5.1975250244140625e-05
sg285
I1
sg286
I5
sa(dp290
g282
I9
sg283
F0.3093299865722656
sg284
F9.608268737792969e-05
sg285
I1
sg286
I4
sa(dp291
g282
I4
sg283
F0.19416403770446777
sg284
F4.38690185546875e-05
sg285
I1
sg286
I3
sa(dp292
g282
I1
sg283
F0.10975289344787598
sg284
F4.1961669921875e-05
sg285
I1
sg286
I2
sasS'total_cqs'
p293
I14
ssI29
(dp294
S'iters'
p295
I1
sS'meta'
p296
(lp297
(dp298
S'objective'
p299
I1
sS'query_time'
p300
F0.0059850215911865234
sS'comp_time'
p301
F5.412101745605469e-05
sS'exec_cq'
p302
I1
sS'total_cq'
p303
I2
sasS'total_cqs'
p304
I2
ssI30
(dp305
S'iters'
p306
I1
sS'meta'
p307
(lp308
(dp309
S'objective'
p310
I1
sS'query_time'
p311
F0.5726761817932129
sS'comp_time'
p312
F7.605552673339844e-05
sS'exec_cq'
p313
I1
sS'total_cq'
p314
I2
sasS'total_cqs'
p315
I2
ssI31
(dp316
S'iters'
p317
I5
sS'meta'
p318
(lp319
(dp320
S'objective'
p321
I27
sS'query_time'
p322
F25.51933717727661
sS'comp_time'
p323
F9.107589721679688e-05
sS'exec_cq'
p324
I1
sS'total_cq'
p325
I9
sa(dp326
g321
I20
sg322
F0.24672603607177734
sg323
F7.486343383789062e-05
sg324
I1
sg325
I8
sa(dp327
g321
I2
sg322
F0.18165898323059082
sg323
F3.600120544433594e-05
sg324
I1
sg325
I7
sa(dp328
g321
I5
sg322
F0.30176782608032227
sg323
F0.0003478527069091797
sg324
I1
sg325
I5
sa(dp329
g321
I2
sg322
F0.23857903480529785
sg323
F7.200241088867188e-05
sg324
I1
sg325
I4
sasS'total_cqs'
p330
I9
ssI32
(dp331
S'iters'
p332
I5
sS'meta'
p333
(lp334
(dp335
S'objective'
p336
I10
sS'query_time'
p337
F2.359344005584717
sS'comp_time'
p338
F0.0017650127410888672
sS'exec_cq'
p339
I1
sS'total_cq'
p340
I7
sa(dp341
g336
I7
sg337
F6.711687088012695
sg338
F0.00025010108947753906
sg339
I1
sg340
I5
sa(dp342
g336
I3
sg337
F1.305927038192749
sg338
F8.0108642578125e-05
sg339
I1
sg340
I4
sa(dp343
g336
I0
sg337
F1.5175371170043945
sg338
F0.0001430511474609375
sg339
I1
sg340
I3
sa(dp344
g336
I2
sg337
F0.08185005187988281
sg338
F7.295608520507812e-05
sg339
I1
sg340
I2
sasS'total_cqs'
p345
I7
ssI33
(dp346
S'iters'
p347
I1
sS'meta'
p348
(lp349
(dp350
S'objective'
p351
I1
sS'query_time'
p352
F0.04447007179260254
sS'comp_time'
p353
F0.00011992454528808594
sS'exec_cq'
p354
I1
sS'total_cq'
p355
I2
sasS'total_cqs'
p356
I2
ssI34
(dp357
S'iters'
p358
I0
sS'meta'
p359
(lp360
sS'total_cqs'
p361
I1
ssI35
(dp362
S'iters'
p363
I2
sS'meta'
p364
(lp365
(dp366
S'objective'
p367
I3
sS'query_time'
p368
F3.634554862976074
sS'comp_time'
p369
F9.012222290039062e-05
sS'exec_cq'
p370
I1
sS'total_cq'
p371
I5
sa(dp372
g367
I0
sg368
F0.2088479995727539
sg369
F6.699562072753906e-05
sg370
I1
sg371
I3
sasS'total_cqs'
p373
I5
ssI37
(dp374
S'iters'
p375
I6
sS'meta'
p376
(lp377
(dp378
S'objective'
p379
I37
sS'query_time'
p380
F1.0827980041503906
sS'comp_time'
p381
F0.00010704994201660156
sS'exec_cq'
p382
I2
sS'total_cq'
p383
I10
sa(dp384
g379
I30
sg380
F0.3734772205352783
sg381
F8.916854858398438e-05
sg382
I2
sg383
I9
sa(dp385
g379
I24
sg380
F0.0058400630950927734
sg381
F3.695487976074219e-05
sg382
I2
sg383
I8
sa(dp386
g379
I19
sg380
F0.004761934280395508
sg381
F3.790855407714844e-05
sg382
I2
sg383
I7
sa(dp387
g379
I15
sg380
F0.004034996032714844
sg381
F3.719329833984375e-05
sg382
I2
sg383
I6
sa(dp388
g379
I12
sg380
F0.3114171028137207
sg381
F7.581710815429688e-05
sg382
I2
sg383
I5
sasS'total_cqs'
p389
I10
ssI38
(dp390
S'iters'
p391
I0
sS'meta'
p392
(lp393
sS'total_cqs'
p394
I1
ssI39
(dp395
S'iters'
p396
I0
sS'meta'
p397
(lp398
sS'total_cqs'
p399
I1
ssI40
(dp400
S'iters'
p401
I1
sS'meta'
p402
(lp403
(dp404
S'objective'
p405
I1
sS'query_time'
p406
F17.616724967956543
sS'comp_time'
p407
F0.00030994415283203125
sS'exec_cq'
p408
I2
sS'total_cq'
p409
I2
sasS'total_cqs'
p410
I2
ssI41
(dp411
S'iters'
p412
I4
sS'meta'
p413
(lp414
(dp415
S'objective'
p416
I9
sS'query_time'
p417
F0.3425579071044922
sS'comp_time'
p418
F8.606910705566406e-05
sS'exec_cq'
p419
I1
sS'total_cq'
p420
I6
sa(dp421
g416
I5
sg417
F1.5596809387207031
sg418
F8.106231689453125e-05
sg419
I1
sg420
I5
sa(dp422
g416
I2
sg417
F0.2535831928253174
sg418
F8.20159912109375e-05
sg419
I1
sg420
I4
sa(dp423
g416
I0
sg417
F0.08242201805114746
sg418
F8.797645568847656e-05
sg419
I1
sg420
I3
sasS'total_cqs'
p424
I6
ssI42
(dp425
S'iters'
p426
I1
sS'meta'
p427
(lp428
(dp429
S'objective'
p430
I1
sS'query_time'
p431
F0.01436305046081543
sS'comp_time'
p432
F5.984306335449219e-05
sS'exec_cq'
p433
I1
sS'total_cq'
p434
I2
sasS'total_cqs'
p435
I2
ssI43
(dp436
S'iters'
p437
I0
sS'meta'
p438
(lp439
sS'total_cqs'
p440
I1
ssI44
(dp441
S'iters'
p442
I3
sS'meta'
p443
(lp444
(dp445
S'objective'
p446
I5
sS'query_time'
p447
F0.01930093765258789
sS'comp_time'
p448
F6.508827209472656e-05
sS'exec_cq'
p449
I1
sS'total_cq'
p450
I5
sa(dp451
g446
I2
sg447
F1.3406269550323486
sg448
F8.916854858398438e-05
sg449
I1
sg450
I4
sa(dp452
g446
I0
sg447
F0.0041351318359375
sg448
F4.1961669921875e-05
sg449
I1
sg450
I3
sasS'total_cqs'
p453
I5
ssI45
(dp454
S'iters'
p455
I2
sS'meta'
p456
(lp457
(dp458
S'objective'
p459
I5
sS'query_time'
p460
F0.055505990982055664
sS'comp_time'
p461
F5.817413330078125e-05
sS'exec_cq'
p462
I3
sS'total_cq'
p463
I5
sa(dp464
g459
I1
sg460
F0.7386059761047363
sg461
F7.104873657226562e-05
sg462
I2
sg463
I2
sasS'total_cqs'
p465
I5
ssI46
(dp466
S'iters'
p467
I0
sS'meta'
p468
(lp469
sS'total_cqs'
p470
I1
ssI47
(dp471
S'iters'
p472
I0
sS'meta'
p473
(lp474
sS'total_cqs'
p475
I1
ssI48
(dp476
S'iters'
p477
I1
sS'meta'
p478
(lp479
(dp480
S'objective'
p481
I1
sS'query_time'
p482
F0.17393207550048828
sS'comp_time'
p483
F7.200241088867188e-05
sS'exec_cq'
p484
I1
sS'total_cq'
p485
I2
sasS'total_cqs'
p486
I2
ssI49
(dp487
S'iters'
p488
I3
sS'meta'
p489
(lp490
(dp491
S'objective'
p492
I5
sS'query_time'
p493
F4.138900995254517
sS'comp_time'
p494
F9.298324584960938e-05
sS'exec_cq'
p495
I1
sS'total_cq'
p496
I5
sa(dp497
g492
I2
sg493
F2.951894998550415
sg494
F8.797645568847656e-05
sg495
I1
sg496
I4
sa(dp498
g492
I0
sg493
F0.13865113258361816
sg494
F7.295608520507812e-05
sg495
I1
sg496
I3
sasS'total_cqs'
p499
I5
ssI50
(dp500
S'iters'
p501
I3
sS'meta'
p502
(lp503
(dp504
S'objective'
p505
I5
sS'query_time'
p506
F0.17367100715637207
sS'comp_time'
p507
F6.508827209472656e-05
sS'exec_cq'
p508
I1
sS'total_cq'
p509
I5
sa(dp510
g505
I2
sg506
F0.00583195686340332
sg507
F3.886222839355469e-05
sg508
I1
sg509
I4
sa(dp511
g505
I0
sg506
F0.8970940113067627
sg507
F5.698204040527344e-05
sg508
I1
sg509
I3
sasS'total_cqs'
p512
I5
ssI51
(dp513
S'iters'
p514
I0
sS'meta'
p515
(lp516
sS'total_cqs'
p517
I1
ssI52
(dp518
S'iters'
p519
I0
sS'meta'
p520
(lp521
sS'total_cqs'
p522
I1
ssI53
(dp523
S'iters'
p524
I0
sS'meta'
p525
(lp526
sS'total_cqs'
p527
I1
ssI55
(dp528
S'iters'
p529
I1
sS'meta'
p530
(lp531
(dp532
S'objective'
p533
I1
sS'query_time'
p534
F13.68647289276123
sS'comp_time'
p535
F6.008148193359375e-05
sS'exec_cq'
p536
I1
sS'total_cq'
p537
I2
sasS'total_cqs'
p538
I2
ssI56
(dp539
S'iters'
p540
I0
sS'meta'
p541
(lp542
sS'total_cqs'
p543
I1
ssI57
(dp544
S'iters'
p545
I1
sS'meta'
p546
(lp547
(dp548
S'objective'
p549
I2
sS'query_time'
p550
F12.468405961990356
sS'comp_time'
p551
F0.00017786026000976562
sS'exec_cq'
p552
I2
sS'total_cq'
p553
I3
sasS'total_cqs'
p554
I3
ssI108
(dp555
S'iters'
p556
I0
sS'meta'
p557
(lp558
sS'total_cqs'
p559
I1
ssI109
(dp560
S'iters'
p561
I0
sS'meta'
p562
(lp563
sS'total_cqs'
p564
I1
ssI116
(dp565
S'iters'
p566
I4
sS'meta'
p567
(lp568
(dp569
S'objective'
p570
I201
sS'query_time'
p571
F1.3855931758880615
sS'comp_time'
p572
F9.298324584960938e-05
sS'exec_cq'
p573
I7
sS'total_cq'
p574
I21
sa(dp575
g570
I188
sg571
F3.8151180744171143
sg572
F0.0005471706390380859
sg573
I7
sg574
I20
sa(dp576
g570
I178
sg571
F0.09226512908935547
sg572
F7.915496826171875e-05
sg573
I8
sg574
I19
sa(dp577
g570
I176
sg571
F0.06890106201171875
sg572
F8.0108642578125e-05
sg573
I12
sg574
I18
sasS'total_cqs'
p578
I21
ssI117
(dp579
S'iters'
p580
I2
sS'meta'
p581
(lp582
(dp583
S'objective'
p584
I7
sS'query_time'
p585
F0.006994962692260742
sS'comp_time'
p586
F4.410743713378906e-05
sS'exec_cq'
p587
I2
sS'total_cq'
p588
I5
sa(dp589
g584
I5
sg585
F0.0028460025787353516
sg586
F3.981590270996094e-05
sg587
I2
sg588
I4
sasS'total_cqs'
p590
I5
ssI118
(dp591
S'iters'
p592
I0
sS'meta'
p593
(lp594
sS'total_cqs'
p595
I1
ssI122
(dp596
S'iters'
p597
I0
sS'meta'
p598
(lp599
sS'total_cqs'
p600
I1
ss.