(dp0
I1
(dp1
S'iters'
p2
I2
sS'meta'
p3
(lp4
(dp5
S'objective'
p6
I2
sS'query_time'
p7
F25.39129614830017
sS'comp_time'
p8
F1.5244388580322266
sS'exec_cq'
p9
I6
sS'total_cq'
p10
I6
sa(dp11
g6
I0
sg7
F0.009241104125976562
sg8
F258.41444396972656
sg9
I2
sg10
I2
sasS'total_cqs'
p12
I6
ssI2
(dp13
S'iters'
p14
I1
sS'meta'
p15
(lp16
(dp17
S'objective'
p18
I4
sS'query_time'
p19
F0.8701410293579102
sS'comp_time'
p20
F0.08522891998291016
sS'exec_cq'
p21
I6
sS'total_cq'
p22
I6
sasS'total_cqs'
p23
I6
ssI3
(dp24
S'iters'
p25
I10
sS'meta'
p26
(lp27
(dp28
S'objective'
p29
I27
sS'query_time'
p30
F26.780516862869263
sS'comp_time'
p31
F0.24951601028442383
sS'exec_cq'
p32
I33
sS'total_cq'
p33
I33
sa(dp34
g29
I24
sg30
F0.09242010116577148
sg31
F0.2237100601196289
sg32
I30
sg33
I30
sa(dp35
g29
I21
sg30
F0.037596940994262695
sg31
F0.29457998275756836
sg32
I27
sg33
I27
sa(dp36
g29
I18
sg30
F0.08547806739807129
sg31
F0.23536396026611328
sg32
I24
sg33
I24
sa(dp37
g29
I15
sg30
F0.022449016571044922
sg31
F0.15828704833984375
sg32
I21
sg33
I21
sa(dp38
g29
I12
sg30
F0.010103940963745117
sg31
F0.04336714744567871
sg32
I18
sg33
I18
sa(dp39
g29
I9
sg30
F0.0060541629791259766
sg31
F0.0656580924987793
sg32
I15
sg33
I15
sa(dp40
g29
I8
sg30
F0.006101846694946289
sg31
F0.029975175857543945
sg32
I12
sg33
I12
sa(dp41
g29
I8
sg30
F0.03294491767883301
sg31
F0.029330015182495117
sg32
I10
sg33
I10
sa(dp42
g29
I7
sg30
F0.0030498504638671875
sg31
F0.0161740779876709
sg32
I9
sg33
I9
sasS'total_cqs'
p43
I33
ssI6
(dp44
S'iters'
p45
I2
sS'meta'
p46
(lp47
(dp48
S'objective'
p49
I1
sS'query_time'
p50
F15.693174123764038
sS'comp_time'
p51
F0.002897977828979492
sS'exec_cq'
p52
I5
sS'total_cq'
p53
I5
sa(dp54
g49
I0
sg50
F0.00026679039001464844
sg51
F0.001558065414428711
sg52
I2
sg53
I2
sasS'total_cqs'
p55
I5
ssI8
(dp56
S'iters'
p57
I4
sS'meta'
p58
(lp59
(dp60
S'objective'
p61
I4
sS'query_time'
p62
F23.11203408241272
sS'comp_time'
p63
F0.24834489822387695
sS'exec_cq'
p64
I6
sS'total_cq'
p65
I6
sa(dp66
g61
I1
sg62
F2.01831316947937
sg63
F2.159330129623413
sg64
I5
sg65
I5
sa(dp67
g61
I1
sg62
F21.79072904586792
sg63
F21.675410747528076
sg64
I3
sg65
I3
sa(dp68
g61
I0
sg62
F0.046932220458984375
sg63
F0.04111909866333008
sg64
I2
sg65
I2
sasS'total_cqs'
p69
I6
ssI9
(dp70
S'iters'
p71
I3
sS'meta'
p72
(lp73
(dp74
S'objective'
p75
I0
sS'query_time'
p76
F53.54617404937744
sS'comp_time'
p77
F4.7229039669036865
sS'exec_cq'
p78
I6
sS'total_cq'
p79
I6
sa(dp80
g75
I1
sg76
F0.07099294662475586
sg77
F0.6156187057495117
sg78
I3
sg79
I3
sa(dp81
g75
I0
sg76
F0.03967404365539551
sg77
F0.3491790294647217
sg78
I2
sg79
I2
sasS'total_cqs'
p82
I6
ssI13
(dp83
S'iters'
p84
I2
sS'meta'
p85
(lp86
(dp87
S'objective'
p88
I6
sS'query_time'
p89
F0.020570993423461914
sS'comp_time'
p90
F0.00013589859008789062
sS'exec_cq'
p91
I8
sS'total_cq'
p92
I8
sa(dp93
g88
I5
sg89
F3.0994415283203125e-05
sg90
F5.030632019042969e-05
sg91
I7
sg92
I7
sasS'total_cqs'
p94
I8
ssI14
(dp95
S'iters'
p96
I1
sS'meta'
p97
(lp98
(dp99
S'objective'
p100
I3
sS'query_time'
p101
F1.0707039833068848
sS'comp_time'
p102
F0.007384061813354492
sS'exec_cq'
p103
I5
sS'total_cq'
p104
I5
sasS'total_cqs'
p105
I5
ssI16
(dp106
S'iters'
p107
I3
sS'meta'
p108
(lp109
(dp110
S'objective'
p111
I1
sS'query_time'
p112
F1.9302070140838623
sS'comp_time'
p113
F0.007158041000366211
sS'exec_cq'
p114
I5
sS'total_cq'
p115
I5
sa(dp116
g111
I1
sg112
F0.00011301040649414062
sg113
F0.000492095947265625
sg114
I3
sg115
I3
sa(dp117
g111
I0
sg112
F4.38690185546875e-05
sg113
F0.0001900196075439453
sg114
I2
sg115
I2
sasS'total_cqs'
p118
I5
ssI18
(dp119
S'iters'
p120
I2
sS'meta'
p121
(lp122
(dp123
S'objective'
p124
I1
sS'query_time'
p125
F0.3433380126953125
sS'comp_time'
p126
F0.00035691261291503906
sS'exec_cq'
p127
I5
sS'total_cq'
p128
I5
sa(dp129
g124
I0
sg125
F3.695487976074219e-05
sg126
F0.0001571178436279297
sg127
I2
sg128
I2
sasS'total_cqs'
p130
I5
ssI20
(dp131
S'iters'
p132
I5
sS'meta'
p133
(lp134
(dp135
S'objective'
p136
I8
sS'query_time'
p137
F11.33148193359375
sS'comp_time'
p138
F1.127431869506836
sS'exec_cq'
p139
I12
sS'total_cq'
p140
I12
sa(dp141
g136
I6
sg137
F0.18572616577148438
sg138
F0.6799221038818359
sg139
I10
sg140
I10
sa(dp142
g136
I4
sg137
F0.15276598930358887
sg138
F0.611696720123291
sg139
I8
sg140
I8
sa(dp143
g136
I4
sg137
F0.13630104064941406
sg138
F0.6138999462127686
sg139
I6
sg140
I6
sa(dp144
g136
I3
sg137
F0.0009438991546630859
sg138
F0.003615856170654297
sg139
I5
sg140
I5
sasS'total_cqs'
p145
I12
ssI21
(dp146
S'iters'
p147
I4
sS'meta'
p148
(lp149
(dp150
S'objective'
p151
I6
sS'query_time'
p152
F30.511597156524658
sS'comp_time'
p153
F0.22391581535339355
sS'exec_cq'
p154
I14
sS'total_cq'
p155
I14
sa(dp156
g151
I2
sg152
F0.018826961517333984
sg153
F0.2794358730316162
sg154
I10
sg155
I10
sa(dp157
g151
I2
sg152
F0.016416072845458984
sg153
F0.12106108665466309
sg154
I6
sg155
I6
sa(dp158
g151
I0
sg152
F0.0047571659088134766
sg153
F0.02064967155456543
sg154
I2
sg155
I2
sasS'total_cqs'
p159
I14
ssI22
(dp160
S'iters'
p161
I1
sS'meta'
p162
(lp163
(dp164
S'objective'
p165
I0
sS'query_time'
p166
F0.005548000335693359
sS'comp_time'
p167
F0.00010776519775390625
sS'exec_cq'
p168
I2
sS'total_cq'
p169
I2
sasS'total_cqs'
p170
I2
ssI25
(dp171
S'iters'
p172
I4
sS'meta'
p173
(lp174
(dp175
S'objective'
p176
I3
sS'query_time'
p177
F86.95526885986328
sS'comp_time'
p178
F9.71121096611023
sS'exec_cq'
p179
I7
sS'total_cq'
p180
I7
sa(dp181
g176
I1
sg177
F3.047755002975464
sg178
F9.777644157409668
sg179
I5
sg180
I5
sa(dp182
g176
I1
sg177
F1.787445068359375
sg178
F6.448710203170776
sg179
I3
sg180
I3
sa(dp183
g176
I0
sg177
F0.001116037368774414
sg178
F0.0063512325286865234
sg179
I2
sg180
I2
sasS'total_cqs'
p184
I7
ssI26
(dp185
S'iters'
p186
I9
sS'meta'
p187
(lp188
(dp189
S'objective'
p190
I9
sS'query_time'
p191
F24.746763944625854
sS'comp_time'
p192
F3.0652451515197754
sS'exec_cq'
p193
I13
sS'total_cq'
p194
I13
sa(dp195
g190
I7
sg191
F1.1430070400238037
sg192
F4.11406397819519
sg193
I11
sg194
I11
sa(dp196
g190
I5
sg191
F0.7818880081176758
sg192
F2.953948974609375
sg193
I9
sg194
I9
sa(dp197
g190
I5
sg191
F0.8455369472503662
sg192
F3.2061169147491455
sg193
I7
sg194
I7
sa(dp198
g190
I4
sg191
F0.0019390583038330078
sg192
F0.00641179084777832
sg193
I6
sg194
I6
sa(dp199
g190
I3
sg191
F0.001171112060546875
sg192
F0.0053920745849609375
sg193
I5
sg194
I5
sa(dp200
g190
I2
sg191
F0.000946044921875
sg192
F0.005254030227661133
sg193
I4
sg194
I4
sa(dp201
g190
I1
sg191
F0.00034499168395996094
sg192
F0.0019979476928710938
sg193
I3
sg194
I3
sa(dp202
g190
I0
sg191
F0.00018405914306640625
sg192
F0.0009298324584960938
sg193
I2
sg194
I2
sasS'total_cqs'
p203
I13
ssI27
(dp204
S'iters'
p205
I1
sS'meta'
p206
(lp207
(dp208
S'objective'
p209
I0
sS'query_time'
p210
F0.14151692390441895
sS'comp_time'
p211
F0.004377126693725586
sS'exec_cq'
p212
I2
sS'total_cq'
p213
I2
sasS'total_cqs'
p214
I2
ssI28
(dp215
S'iters'
p216
I6
sS'meta'
p217
(lp218
(dp219
S'objective'
p220
I6
sS'query_time'
p221
F1.739945888519287
sS'comp_time'
p222
F0.02024102210998535
sS'exec_cq'
p223
I14
sS'total_cq'
p224
I14
sa(dp225
g220
I4
sg221
F0.0036602020263671875
sg222
F0.014657974243164062
sg223
I10
sg224
I10
sa(dp226
g220
I3
sg221
F0.0024509429931640625
sg222
F0.03298687934875488
sg223
I7
sg224
I7
sa(dp227
g220
I3
sg221
F0.0025191307067871094
sg222
F0.012524843215942383
sg223
I5
sg224
I5
sa(dp228
g220
I2
sg221
F0.002146005630493164
sg222
F0.011379718780517578
sg223
I4
sg224
I4
sa(dp229
g220
I1
sg221
F2.4080276489257812e-05
sg222
F7.200241088867188e-05
sg223
I3
sg224
I3
sasS'total_cqs'
p230
I14
ssI29
(dp231
S'iters'
p232
I1
sS'meta'
p233
(lp234
(dp235
S'objective'
p236
I0
sS'query_time'
p237
F0.006309032440185547
sS'comp_time'
p238
F0.00012111663818359375
sS'exec_cq'
p239
I2
sS'total_cq'
p240
I2
sasS'total_cqs'
p241
I2
ssI30
(dp242
S'iters'
p243
I1
sS'meta'
p244
(lp245
(dp246
S'objective'
p247
I0
sS'query_time'
p248
F0.3581860065460205
sS'comp_time'
p249
F0.0061910152435302734
sS'exec_cq'
p250
I2
sS'total_cq'
p251
I2
sasS'total_cqs'
p252
I2
ssI31
(dp253
S'iters'
p254
I3
sS'meta'
p255
(lp256
(dp257
S'objective'
p258
I3
sS'query_time'
p259
F6.239413022994995
sS'comp_time'
p260
F0.15757083892822266
sS'exec_cq'
p261
I9
sS'total_cq'
p262
I9
sa(dp263
g258
I1
sg259
F0.007125139236450195
sg260
F0.027940034866333008
sg261
I3
sg262
I3
sa(dp264
g258
I0
sg259
F0.0025560855865478516
sg260
F0.013473987579345703
sg261
I2
sg262
I2
sasS'total_cqs'
p265
I9
ssI32
(dp266
S'iters'
p267
I3
sS'meta'
p268
(lp269
(dp270
S'objective'
p271
I1
sS'query_time'
p272
F19.47873091697693
sS'comp_time'
p273
F3.496796131134033
sS'exec_cq'
p274
I7
sS'total_cq'
p275
I7
sa(dp276
g271
I0
sg272
F0.03973793983459473
sg273
F0.40781092643737793
sg274
I4
sg275
I4
sa(dp277
g271
I0
sg272
F0.09511113166809082
sg273
F0.20757389068603516
sg274
I2
sg275
I2
sasS'total_cqs'
p278
I7
ssI33
(dp279
S'iters'
p280
I1
sS'meta'
p281
(lp282
(dp283
S'objective'
p284
I0
sS'query_time'
p285
F0.029830217361450195
sS'comp_time'
p286
F0.00012731552124023438
sS'exec_cq'
p287
I2
sS'total_cq'
p288
I2
sasS'total_cqs'
p289
I2
ssI35
(dp290
S'iters'
p291
I3
sS'meta'
p292
(lp293
(dp294
S'objective'
p295
I1
sS'query_time'
p296
F17.215410947799683
sS'comp_time'
p297
F0.2627701759338379
sS'exec_cq'
p298
I5
sS'total_cq'
p299
I5
sa(dp300
g295
I1
sg296
F0.04301810264587402
sg297
F0.1748039722442627
sg298
I3
sg299
I3
sa(dp301
g295
I0
sg296
F0.012851953506469727
sg297
F0.06398606300354004
sg298
I2
sg299
I2
sasS'total_cqs'
p302
I5
ssI37
(dp303
S'iters'
p304
I3
sS'meta'
p305
(lp306
(dp307
S'objective'
p308
I4
sS'query_time'
p309
F2.450045108795166
sS'comp_time'
p310
F0.11439919471740723
sS'exec_cq'
p311
I10
sS'total_cq'
p312
I10
sa(dp313
g308
I1
sg309
F0.030164003372192383
sg310
F0.035172224044799805
sg311
I3
sg312
I3
sa(dp314
g308
I0
sg309
F0.002886056900024414
sg310
F0.01149606704711914
sg311
I2
sg312
I2
sasS'total_cqs'
p315
I10
ssI40
(dp316
S'iters'
p317
I1
sS'meta'
p318
(lp319
(dp320
S'objective'
p321
I0
sS'query_time'
p322
F17.668221950531006
sS'comp_time'
p323
F2.4561331272125244
sS'exec_cq'
p324
I2
sS'total_cq'
p325
I2
sasS'total_cqs'
p326
I2
ssI41
(dp327
S'iters'
p328
I3
sS'meta'
p329
(lp330
(dp331
S'objective'
p332
I0
sS'query_time'
p333
F12.275407075881958
sS'comp_time'
p334
F1.2002899646759033
sS'exec_cq'
p335
I6
sS'total_cq'
p336
I6
sa(dp337
g332
I1
sg333
F0.0019659996032714844
sg334
F0.006768941879272461
sg335
I3
sg336
I3
sa(dp338
g332
I0
sg333
F0.0006978511810302734
sg334
F0.0033740997314453125
sg335
I2
sg336
I2
sasS'total_cqs'
p339
I6
ssI42
(dp340
S'iters'
p341
I1
sS'meta'
p342
(lp343
(dp344
S'objective'
p345
I0
sS'query_time'
p346
F17.249720096588135
sS'comp_time'
p347
F2.42621111869812
sS'exec_cq'
p348
I2
sS'total_cq'
p349
I2
sasS'total_cqs'
p350
I2
ssI44
(dp351
S'iters'
p352
I3
sS'meta'
p353
(lp354
(dp355
S'objective'
p356
I1
sS'query_time'
p357
F1.423840045928955
sS'comp_time'
p358
F0.08429121971130371
sS'exec_cq'
p359
I5
sS'total_cq'
p360
I5
sa(dp361
g356
I1
sg357
F0.01317596435546875
sg358
F0.08640193939208984
sg359
I3
sg360
I3
sa(dp362
g356
I0
sg357
F0.0002129077911376953
sg358
F0.0009908676147460938
sg359
I2
sg360
I2
sasS'total_cqs'
p363
I5
ssI45
(dp364
S'iters'
p365
I2
sS'meta'
p366
(lp367
(dp368
S'objective'
p369
I1
sS'query_time'
p370
F0.046495914459228516
sS'comp_time'
p371
F0.0006279945373535156
sS'exec_cq'
p372
I5
sS'total_cq'
p373
I5
sa(dp374
g369
I0
sg370
F0.00015497207641601562
sg371
F0.0006430149078369141
sg372
I2
sg373
I2
sasS'total_cqs'
p375
I5
ssI48
(dp376
S'iters'
p377
I1
sS'meta'
p378
(lp379
(dp380
S'objective'
p381
I0
sS'query_time'
p382
F0.11458587646484375
sS'comp_time'
p383
F0.0063629150390625
sS'exec_cq'
p384
I2
sS'total_cq'
p385
I2
sasS'total_cqs'
p386
I2
ssI49
(dp387
S'iters'
p388
I3
sS'meta'
p389
(lp390
(dp391
S'objective'
p392
I1
sS'query_time'
p393
F0.26087212562561035
sS'comp_time'
p394
F0.007063150405883789
sS'exec_cq'
p395
I5
sS'total_cq'
p396
I5
sa(dp397
g392
I1
sg393
F0.0003180503845214844
sg394
F0.0013320446014404297
sg395
I3
sg396
I3
sa(dp398
g392
I0
sg393
F2.7179718017578125e-05
sg394
F0.00011086463928222656
sg395
I2
sg396
I2
sasS'total_cqs'
p399
I5
ssI50
(dp400
S'iters'
p401
I2
sS'meta'
p402
(lp403
(dp404
S'objective'
p405
I3
sS'query_time'
p406
F0.9575772285461426
sS'comp_time'
p407
F0.0013048648834228516
sS'exec_cq'
p408
I5
sS'total_cq'
p409
I5
sa(dp410
g405
I2
sg406
F0.0001480579376220703
sg407
F0.0008940696716308594
sg408
I4
sg409
I4
sasS'total_cqs'
p411
I5
ssI55
(dp412
S'iters'
p413
I1
sS'meta'
p414
(lp415
(dp416
S'objective'
p417
I0
sS'query_time'
p418
F26.21848201751709
sS'comp_time'
p419
F3.9096052646636963
sS'exec_cq'
p420
I2
sS'total_cq'
p421
I2
sasS'total_cqs'
p422
I2
ssI57
(dp423
S'iters'
p424
I1
sS'meta'
p425
(lp426
(dp427
S'objective'
p428
I1
sS'query_time'
p429
F13.987380981445312
sS'comp_time'
p430
F2.281442880630493
sS'exec_cq'
p431
I3
sS'total_cq'
p432
I3
sasS'total_cqs'
p433
I3
ssI116
(dp434
S'iters'
p435
I3
sS'meta'
p436
(lp437
(dp438
S'objective'
p439
I15
sS'query_time'
p440
F5.653028964996338
sS'comp_time'
p441
F0.288499116897583
sS'exec_cq'
p442
I21
sS'total_cq'
p443
I21
sa(dp444
g439
I1
sg440
F0.0014348030090332031
sg441
F0.004027843475341797
sg442
I3
sg443
I3
sa(dp445
g439
I0
sg440
F0.0007970333099365234
sg441
F0.0026650428771972656
sg442
I2
sg443
I2
sasS'total_cqs'
p446
I21
ssI117
(dp447
S'iters'
p448
I1
sS'meta'
p449
(lp450
(dp451
S'objective'
p452
I3
sS'query_time'
p453
F0.014276981353759766
sS'comp_time'
p454
F7.891654968261719e-05
sS'exec_cq'
p455
I5
sS'total_cq'
p456
I5
sasS'total_cqs'
p457
I5
ss.