(dp0
I1
(dp1
S'iters'
p2
I2
sS'meta'
p3
(lp4
(dp5
S'objective'
p6
I3
sS'query_time'
p7
F17.683504104614258
sS'comp_time'
p8
F0.7200808525085449
sS'exec_cq'
p9
I3
sS'total_cq'
p10
I6
sa(dp11
g6
I1
sg7
F0.16753792762756348
sg8
F0.6645150184631348
sg9
I2
sg10
I2
sasS'total_cqs'
p12
I6
ssI2
(dp13
S'iters'
p14
I1
sS'meta'
p15
(lp16
(dp17
S'objective'
p18
I13
sS'query_time'
p19
F0.9780631065368652
sS'comp_time'
p20
F0.20839381217956543
sS'exec_cq'
p21
I5
sS'total_cq'
p22
I6
sasS'total_cqs'
p23
I6
ssI3
(dp24
S'iters'
p25
I13
sS'meta'
p26
(lp27
(dp28
S'objective'
p29
I399
sS'query_time'
p30
F25.53096580505371
sS'comp_time'
p31
F0.37026357650756836
sS'exec_cq'
p32
I15
sS'total_cq'
p33
I33
sa(dp34
g29
I358
sg30
F0.005077838897705078
sg31
F0.022256851196289062
sg32
I12
sg33
I30
sa(dp35
g29
I303
sg30
F0.3298490047454834
sg31
F0.1538865566253662
sg32
I13
sg33
I27
sa(dp36
g29
I261
sg30
F0.002897024154663086
sg31
F0.017892837524414062
sg32
I10
sg33
I24
sa(dp37
g29
I217
sg30
F0.0026929378509521484
sg31
F0.017964839935302734
sg32
I9
sg33
I22
sa(dp38
g29
I202
sg30
F0.0001780986785888672
sg31
F0.0030977725982666016
sg32
I6
sg33
I19
sa(dp39
g29
I169
sg30
F0.004015922546386719
sg31
F0.01900005340576172
sg32
I8
sg33
I18
sa(dp40
g29
I135
sg30
F0.1930549144744873
sg31
F0.024118423461914062
sg32
I5
sg33
I15
sa(dp41
g29
I162
sg30
F0.000244140625
sg31
F0.003936767578125
sg32
I5
sg33
I14
sa(dp42
g29
I85
sg30
F0.4067349433898926
sg31
F0.3945958614349365
sg32
I4
sg33
I13
sa(dp43
g29
I63
sg30
F0.0055599212646484375
sg31
F0.020863771438598633
sg32
I5
sg33
I10
sa(dp44
g29
I42
sg30
F0.0006968975067138672
sg31
F0.0035212039947509766
sg32
I4
sg33
I7
sa(dp45
g29
I32
sg30
F0.0034699440002441406
sg31
F0.11348485946655273
sg32
I2
sg33
I6
sasS'total_cqs'
p46
I33
ssI4
(dp47
S'iters'
p48
I0
sS'meta'
p49
(lp50
sS'total_cqs'
p51
I1
ssI5
(dp52
S'iters'
p53
I0
sS'meta'
p54
(lp55
sS'total_cqs'
p56
I1
ssI6
(dp57
S'iters'
p58
I2
sS'meta'
p59
(lp60
(dp61
S'objective'
p62
I1
sS'query_time'
p63
F14.912496089935303
sS'comp_time'
p64
F0.007742881774902344
sS'exec_cq'
p65
I4
sS'total_cq'
p66
I5
sa(dp67
g62
I1
sg63
F0.00018095970153808594
sg64
F0.0010113716125488281
sg65
I1
sg66
I2
sasS'total_cqs'
p68
I5
ssI7
(dp69
S'iters'
p70
I0
sS'meta'
p71
(lp72
sS'total_cqs'
p73
I1
ssI8
(dp74
S'iters'
p75
I2
sS'meta'
p76
(lp77
(dp78
S'objective'
p79
I11
sS'query_time'
p80
F23.363234996795654
sS'comp_time'
p81
F0.414247989654541
sS'exec_cq'
p82
I5
sS'total_cq'
p83
I6
sa(dp84
g79
I8
sg80
F0.10698604583740234
sg81
F0.10593986511230469
sg82
I4
sg83
I5
sasS'total_cqs'
p85
I6
ssI9
(dp86
S'iters'
p87
I3
sS'meta'
p88
(lp89
(dp90
S'objective'
p91
I1
sS'query_time'
p92
F13.046684980392456
sS'comp_time'
p93
F0.6362142562866211
sS'exec_cq'
p94
I3
sS'total_cq'
p95
I6
sa(dp96
g91
I1
sg92
F0.05682802200317383
sg93
F0.5630717277526855
sg94
I3
sg95
I3
sa(dp97
g91
I2
sg92
F0.00892186164855957
sg93
F0.04437518119812012
sg94
I2
sg95
I2
sasS'total_cqs'
p98
I6
ssI10
(dp99
S'iters'
p100
I0
sS'meta'
p101
(lp102
sS'total_cqs'
p103
I1
ssI11
(dp104
S'iters'
p105
I0
sS'meta'
p106
(lp107
sS'total_cqs'
p108
I1
ssI12
(dp109
S'iters'
p110
I0
sS'meta'
p111
(lp112
sS'total_cqs'
p113
I1
ssI13
(dp114
S'iters'
p115
I1
sS'meta'
p116
(lp117
(dp118
S'objective'
p119
I26
sS'query_time'
p120
F0.01910686492919922
sS'comp_time'
p121
F0.007832765579223633
sS'exec_cq'
p122
I6
sS'total_cq'
p123
I8
sasS'total_cqs'
p124
I8
ssI14
(dp125
S'iters'
p126
I1
sS'meta'
p127
(lp128
(dp129
S'objective'
p130
I7
sS'query_time'
p131
F0.9319357872009277
sS'comp_time'
p132
F0.008331060409545898
sS'exec_cq'
p133
I5
sS'total_cq'
p134
I5
sasS'total_cqs'
p135
I5
ssI16
(dp136
S'iters'
p137
I2
sS'meta'
p138
(lp139
(dp140
S'objective'
p141
I1
sS'query_time'
p142
F1.4610271453857422
sS'comp_time'
p143
F0.01168513298034668
sS'exec_cq'
p144
I4
sS'total_cq'
p145
I5
sa(dp146
g141
I1
sg142
F0.0016460418701171875
sg143
F0.007430553436279297
sg144
I3
sg145
I3
sasS'total_cqs'
p147
I5
ssI17
(dp148
S'iters'
p149
I0
sS'meta'
p150
(lp151
sS'total_cqs'
p152
I1
ssI18
(dp153
S'iters'
p154
I2
sS'meta'
p155
(lp156
(dp157
S'objective'
p158
I3
sS'query_time'
p159
F0.2395179271697998
sS'comp_time'
p160
F0.009063243865966797
sS'exec_cq'
p161
I4
sS'total_cq'
p162
I5
sa(dp163
g158
I1
sg159
F0.04449295997619629
sg160
F0.00021028518676757812
sg161
I1
sg162
I2
sasS'total_cqs'
p164
I5
ssI19
(dp165
S'iters'
p166
I0
sS'meta'
p167
(lp168
sS'total_cqs'
p169
I1
ssI20
(dp170
S'iters'
p171
I6
sS'meta'
p172
(lp173
(dp174
S'objective'
p175
I46
sS'query_time'
p176
F9.116790056228638
sS'comp_time'
p177
F1.3461339473724365
sS'exec_cq'
p178
I6
sS'total_cq'
p179
I12
sa(dp180
g175
I32
sg176
F0.23045706748962402
sg177
F1.0966050624847412
sg178
I4
sg179
I10
sa(dp181
g175
I13
sg176
F4.06332802772522
sg177
F0.3251841068267822
sg178
I4
sg179
I8
sa(dp182
g175
I22
sg176
F0.06526613235473633
sg177
F0.7746078968048096
sg178
I2
sg179
I6
sa(dp183
g175
I22
sg176
F0.02570509910583496
sg177
F0.37268972396850586
sg178
I3
sg179
I5
sa(dp184
g175
I10
sg176
F0.12198495864868164
sg177
F0.0053637027740478516
sg178
I2
sg179
I4
sasS'total_cqs'
p185
I12
ssI21
(dp186
S'iters'
p187
I5
sS'meta'
p188
(lp189
(dp190
S'objective'
p191
I55
sS'query_time'
p192
F30.963751077651978
sS'comp_time'
p193
F0.23821711540222168
sS'exec_cq'
p194
I8
sS'total_cq'
p195
I14
sa(dp196
g191
I50
sg192
F0.008968830108642578
sg193
F0.06364083290100098
sg194
I4
sg195
I10
sa(dp197
g191
I9
sg192
F30.120867013931274
sg193
F1.9102449417114258
sg194
I4
sg195
I8
sa(dp198
g191
I1
sg192
F0.0013339519500732422
sg193
F0.008582830429077148
sg194
I2
sg195
I4
sa(dp199
g191
I3
sg192
F0.014484882354736328
sg193
F0.00011682510375976562
sg194
I1
sg195
I2
sasS'total_cqs'
p200
I14
ssI22
(dp201
S'iters'
p202
I1
sS'meta'
p203
(lp204
(dp205
S'objective'
p206
I1
sS'query_time'
p207
F0.0043680667877197266
sS'comp_time'
p208
F0.001249074935913086
sS'exec_cq'
p209
I1
sS'total_cq'
p210
I2
sasS'total_cqs'
p211
I2
ssI23
(dp212
S'iters'
p213
I0
sS'meta'
p214
(lp215
sS'total_cqs'
p216
I1
ssI24
(dp217
S'iters'
p218
I0
sS'meta'
p219
(lp220
sS'total_cqs'
p221
I1
ssI25
(dp222
S'iters'
p223
I4
sS'meta'
p224
(lp225
(dp226
S'objective'
p227
I18
sS'query_time'
p228
F47.27683901786804
sS'comp_time'
p229
F4.911599159240723
sS'exec_cq'
p230
I4
sS'total_cq'
p231
I7
sa(dp232
g227
I9
sg228
F0.014645099639892578
sg229
F0.05872201919555664
sg230
I2
sg231
I5
sa(dp233
g227
I0
sg228
F4.688905954360962
sg229
F0.3122138977050781
sg230
I2
sg231
I4
sa(dp234
g227
I2
sg228
F0.008138895034790039
sg229
F0.05736660957336426
sg230
I1
sg231
I2
sasS'total_cqs'
p235
I7
ssI26
(dp236
S'iters'
p237
I8
sS'meta'
p238
(lp239
(dp240
S'objective'
p241
I59
sS'query_time'
p242
F0.27551698684692383
sS'comp_time'
p243
F0.02921128273010254
sS'exec_cq'
p244
I4
sS'total_cq'
p245
I13
sa(dp246
g241
I55
sg242
F22.202456951141357
sg243
F0.007966041564941406
sg244
I3
sg245
I11
sa(dp247
g241
I29
sg242
F0.012703895568847656
sg243
F0.0003101825714111328
sg244
I2
sg245
I10
sa(dp248
g241
I43
sg242
F0.00034999847412109375
sg243
F0.0030210018157958984
sg244
I2
sg245
I8
sa(dp249
g241
I19
sg242
F0.001413106918334961
sg243
F0.0012106895446777344
sg244
I1
sg245
I7
sa(dp250
g241
I14
sg242
F0.0019099712371826172
sg243
F0.006654262542724609
sg244
I2
sg245
I6
sa(dp251
g241
I7
sg242
F3.647702932357788
sg243
F0.15128111839294434
sg244
I2
sg245
I5
sa(dp252
g241
I1
sg242
F0.0037119388580322266
sg243
F0.00010037422180175781
sg244
I1
sg245
I3
sasS'total_cqs'
p253
I13
ssI27
(dp254
S'iters'
p255
I1
sS'meta'
p256
(lp257
(dp258
S'objective'
p259
I1
sS'query_time'
p260
F0.21561002731323242
sS'comp_time'
p261
F0.0072422027587890625
sS'exec_cq'
p262
I1
sS'total_cq'
p263
I2
sasS'total_cqs'
p264
I2
ssI28
(dp265
S'iters'
p266
I6
sS'meta'
p267
(lp268
(dp269
S'objective'
p270
I33
sS'query_time'
p271
F1.5825729370117188
sS'comp_time'
p272
F0.14357209205627441
sS'exec_cq'
p273
I6
sS'total_cq'
p274
I14
sa(dp275
g270
I37
sg271
F0.0032911300659179688
sg272
F0.026298046112060547
sg273
I3
sg274
I11
sa(dp276
g270
I29
sg271
F0.016863107681274414
sg272
F0.0007309913635253906
sg273
I1
sg274
I9
sa(dp277
g270
I19
sg271
F0.0029649734497070312
sg272
F0.00011086463928222656
sg273
I1
sg274
I8
sa(dp278
g270
I16
sg271
F0.0048160552978515625
sg272
F0.00010704994201660156
sg273
I2
sg274
I7
sa(dp279
g270
I7
sg271
F0.0024678707122802734
sg272
F0.00012683868408203125
sg273
I1
sg274
I6
sasS'total_cqs'
p280
I14
ssI29
(dp281
S'iters'
p282
I1
sS'meta'
p283
(lp284
(dp285
S'objective'
p286
I1
sS'query_time'
p287
F0.017179012298583984
sS'comp_time'
p288
F0.0019295215606689453
sS'exec_cq'
p289
I2
sS'total_cq'
p290
I2
sasS'total_cqs'
p291
I2
ssI30
(dp292
S'iters'
p293
I1
sS'meta'
p294
(lp295
(dp296
S'objective'
p297
I1
sS'query_time'
p298
F0.3159799575805664
sS'comp_time'
p299
F0.005357980728149414
sS'exec_cq'
p300
I2
sS'total_cq'
p301
I2
sasS'total_cqs'
p302
I2
ssI31
(dp303
S'iters'
p304
I2
sS'meta'
p305
(lp306
(dp307
S'objective'
p308
I23
sS'query_time'
p309
F1.8338229656219482
sS'comp_time'
p310
F0.05953860282897949
sS'exec_cq'
p311
I5
sS'total_cq'
p312
I9
sa(dp313
g308
I1
sg309
F0.01037287712097168
sg310
F0.11741304397583008
sg311
I3
sg312
I3
sasS'total_cqs'
p314
I9
ssI32
(dp315
S'iters'
p316
I3
sS'meta'
p317
(lp318
(dp319
S'objective'
p320
I2
sS'query_time'
p321
F1.7572760581970215
sS'comp_time'
p322
F0.04167890548706055
sS'exec_cq'
p323
I2
sS'total_cq'
p324
I7
sa(dp325
g320
I1
sg321
F20.668720960617065
sg322
F6.892606019973755
sg323
I4
sg324
I5
sa(dp326
g320
I2
sg321
F0.05923318862915039
sg322
F0.9704306125640869
sg323
I2
sg324
I3
sasS'total_cqs'
p327
I7
ssI33
(dp328
S'iters'
p329
I1
sS'meta'
p330
(lp331
(dp332
S'objective'
p333
I1
sS'query_time'
p334
F0.021867990493774414
sS'comp_time'
p335
F0.0018198490142822266
sS'exec_cq'
p336
I2
sS'total_cq'
p337
I2
sasS'total_cqs'
p338
I2
ssI34
(dp339
S'iters'
p340
I0
sS'meta'
p341
(lp342
sS'total_cqs'
p343
I1
ssI35
(dp344
S'iters'
p345
I2
sS'meta'
p346
(lp347
(dp348
S'objective'
p349
I1
sS'query_time'
p350
F13.884479999542236
sS'comp_time'
p351
F0.35314130783081055
sS'exec_cq'
p352
I4
sS'total_cq'
p353
I5
sa(dp354
g349
I0
sg350
F0.08060598373413086
sg351
F0.06646013259887695
sg352
I2
sg353
I3
sasS'total_cqs'
p355
I5
ssI37
(dp356
S'iters'
p357
I2
sS'meta'
p358
(lp359
(dp360
S'objective'
p361
I25
sS'query_time'
p362
F0.5432829856872559
sS'comp_time'
p363
F0.09534358978271484
sS'exec_cq'
p364
I4
sS'total_cq'
p365
I10
sa(dp366
g361
I3
sg362
F0.004437923431396484
sg363
F0.019442081451416016
sg364
I2
sg365
I2
sasS'total_cqs'
p367
I10
ssI38
(dp368
S'iters'
p369
I0
sS'meta'
p370
(lp371
sS'total_cqs'
p372
I1
ssI39
(dp373
S'iters'
p374
I0
sS'meta'
p375
(lp376
sS'total_cqs'
p377
I1
ssI40
(dp378
S'iters'
p379
I1
sS'meta'
p380
(lp381
(dp382
S'objective'
p383
I1
sS'query_time'
p384
F0.003737211227416992
sS'comp_time'
p385
F0.0031969547271728516
sS'exec_cq'
p386
I1
sS'total_cq'
p387
I2
sasS'total_cqs'
p388
I2
ssI41
(dp389
S'iters'
p390
I4
sS'meta'
p391
(lp392
(dp393
S'objective'
p394
I5
sS'query_time'
p395
F9.936116933822632
sS'comp_time'
p396
F2.020444869995117
sS'exec_cq'
p397
I3
sS'total_cq'
p398
I6
sa(dp399
g394
I1
sg395
F0.0009589195251464844
sg396
F0.0048410892486572266
sg397
I1
sg398
I4
sa(dp400
g394
I3
sg395
F0.6786980628967285
sg396
F0.003963470458984375
sg397
I2
sg398
I3
sa(dp401
g394
I3
sg395
F0.0006151199340820312
sg396
F0.003650188446044922
sg397
I2
sg398
I2
sasS'total_cqs'
p402
I6
ssI42
(dp403
S'iters'
p404
I1
sS'meta'
p405
(lp406
(dp407
S'objective'
p408
I1
sS'query_time'
p409
F0.009871959686279297
sS'comp_time'
p410
F0.0006492137908935547
sS'exec_cq'
p411
I1
sS'total_cq'
p412
I2
sasS'total_cqs'
p413
I2
ssI43
(dp414
S'iters'
p415
I0
sS'meta'
p416
(lp417
sS'total_cqs'
p418
I1
ssI44
(dp419
S'iters'
p420
I3
sS'meta'
p421
(lp422
(dp423
S'objective'
p424
I1
sS'query_time'
p425
F0.40803098678588867
sS'comp_time'
p426
F0.005185127258300781
sS'exec_cq'
p427
I2
sS'total_cq'
p428
I5
sa(dp429
g424
I3
sg425
F1.305250883102417
sg426
F0.17454290390014648
sg427
I2
sg428
I3
sa(dp430
g424
I3
sg425
F6.604194641113281e-05
sg426
F0.0004127025604248047
sg427
I1
sg428
I2
sasS'total_cqs'
p431
I5
ssI45
(dp432
S'iters'
p433
I2
sS'meta'
p434
(lp435
(dp436
S'objective'
p437
I5
sS'query_time'
p438
F0.10871315002441406
sS'comp_time'
p439
F0.002976655960083008
sS'exec_cq'
p440
I3
sS'total_cq'
p441
I5
sa(dp442
g437
I3
sg438
F0.00015497207641601562
sg439
F0.0006492137908935547
sg440
I2
sg441
I2
sasS'total_cqs'
p443
I5
ssI46
(dp444
S'iters'
p445
I0
sS'meta'
p446
(lp447
sS'total_cqs'
p448
I1
ssI47
(dp449
S'iters'
p450
I0
sS'meta'
p451
(lp452
sS'total_cqs'
p453
I1
ssI48
(dp454
S'iters'
p455
I1
sS'meta'
p456
(lp457
(dp458
S'objective'
p459
I1
sS'query_time'
p460
F0.10589909553527832
sS'comp_time'
p461
F0.004916667938232422
sS'exec_cq'
p462
I2
sS'total_cq'
p463
I2
sasS'total_cqs'
p464
I2
ssI49
(dp465
S'iters'
p466
I2
sS'meta'
p467
(lp468
(dp469
S'objective'
p470
I1
sS'query_time'
p471
F0.2615320682525635
sS'comp_time'
p472
F0.00570988655090332
sS'exec_cq'
p473
I4
sS'total_cq'
p474
I5
sa(dp475
g470
I0
sg471
F3.504753112792969e-05
sg472
F0.00023174285888671875
sg473
I2
sg474
I3
sasS'total_cqs'
p476
I5
ssI50
(dp477
S'iters'
p478
I2
sS'meta'
p479
(lp480
(dp481
S'objective'
p482
I5
sS'query_time'
p483
F0.5563969612121582
sS'comp_time'
p484
F0.004643917083740234
sS'exec_cq'
p485
I5
sS'total_cq'
p486
I5
sa(dp487
g482
I2
sg483
F0.0002110004425048828
sg484
F0.0014400482177734375
sg485
I4
sg486
I4
sasS'total_cqs'
p488
I5
ssI51
(dp489
S'iters'
p490
I0
sS'meta'
p491
(lp492
sS'total_cqs'
p493
I1
ssI52
(dp494
S'iters'
p495
I0
sS'meta'
p496
(lp497
sS'total_cqs'
p498
I1
ssI53
(dp499
S'iters'
p500
I0
sS'meta'
p501
(lp502
sS'total_cqs'
p503
I1
ssI55
(dp504
S'iters'
p505
I1
sS'meta'
p506
(lp507
(dp508
S'objective'
p509
I1
sS'query_time'
p510
F24.24361491203308
sS'comp_time'
p511
F2.6930179595947266
sS'exec_cq'
p512
I2
sS'total_cq'
p513
I2
sasS'total_cqs'
p514
I2
ssI56
(dp515
S'iters'
p516
I0
sS'meta'
p517
(lp518
sS'total_cqs'
p519
I1
ssI57
(dp520
S'iters'
p521
I1
sS'meta'
p522
(lp523
(dp524
S'objective'
p525
I0
sS'query_time'
p526
F12.80272388458252
sS'comp_time'
p527
F3.0194151401519775
sS'exec_cq'
p528
I2
sS'total_cq'
p529
I3
sasS'total_cqs'
p530
I3
ssI108
(dp531
S'iters'
p532
I0
sS'meta'
p533
(lp534
sS'total_cqs'
p535
I1
ssI109
(dp536
S'iters'
p537
I0
sS'meta'
p538
(lp539
sS'total_cqs'
p540
I1
ssI116
(dp541
S'iters'
p542
I3
sS'meta'
p543
(lp544
(dp545
S'objective'
p546
I171
sS'query_time'
p547
F3.7944631576538086
sS'comp_time'
p548
F0.5307860374450684
sS'exec_cq'
p549
I15
sS'total_cq'
p550
I21
sa(dp551
g546
I143
sg547
F0.5195879936218262
sg548
F0.004195690155029297
sg549
I14
sg550
I19
sa(dp552
g546
I5
sg547
F0.0007309913635253906
sg548
F0.0034971237182617188
sg549
I2
sg550
I2
sasS'total_cqs'
p553
I21
ssI117
(dp554
S'iters'
p555
I2
sS'meta'
p556
(lp557
(dp558
S'objective'
p559
I5
sS'query_time'
p560
F0.010879039764404297
sS'comp_time'
p561
F0.001993894577026367
sS'exec_cq'
p562
I3
sS'total_cq'
p563
I5
sa(dp564
g559
I2
sg560
F0.003041982650756836
sg561
F0.00011134147644042969
sg562
I3
sg563
I4
sasS'total_cqs'
p565
I5
ssI118
(dp566
S'iters'
p567
I0
sS'meta'
p568
(lp569
sS'total_cqs'
p570
I1
ssI122
(dp571
S'iters'
p572
I0
sS'meta'
p573
(lp574
sS'total_cqs'
p575
I1
ss.