(dp0
I1
(dp1
S'iters'
p2
I2
sS'meta'
p3
(lp4
(dp5
S'objective'
p6
I7
sS'query_time'
p7
F6.5199971199035645
sS'comp_time'
p8
F8.988380432128906e-05
sS'exec_cq'
p9
I1
sS'total_cq'
p10
I6
sa(dp11
g6
I5
sg7
F564.0662438869476
sg8
F0.0001552104949951172
sg9
I1
sg10
I2
sasS'total_cqs'
p12
I6
ssI2
(dp13
S'iters'
p14
I1
sS'meta'
p15
(lp16
(dp17
S'objective'
p18
I9
sS'query_time'
p19
F0.7561922073364258
sS'comp_time'
p20
F7.390975952148438e-05
sS'exec_cq'
p21
I1
sS'total_cq'
p22
I6
sasS'total_cqs'
p23
I6
ssI3
(dp24
S'iters'
p25
I7
sS'meta'
p26
(lp27
(dp28
S'objective'
p29
I495
sS'query_time'
p30
F4.909506797790527
sS'comp_time'
p31
F0.00010895729064941406
sS'exec_cq'
p32
I1
sS'total_cq'
p33
I33
sa(dp34
g29
I464
sg30
F0.37870287895202637
sg31
F9.298324584960938e-05
sg32
I1
sg33
I32
sa(dp35
g29
I426
sg30
F0.029280900955200195
sg31
F0.00011324882507324219
sg32
I1
sg33
I31
sa(dp36
g29
I347
sg30
F0.01957106590270996
sg31
F8.177757263183594e-05
sg32
I1
sg33
I29
sa(dp37
g29
I254
sg30
F0.016352176666259766
sg31
F8.0108642578125e-05
sg32
I1
sg33
I27
sa(dp38
g29
I233
sg30
F0.07756495475769043
sg31
F9.012222290039062e-05
sg32
I1
sg33
I24
sa(dp39
g29
I229
sg30
F0.17806696891784668
sg31
F9.417533874511719e-05
sg32
I1
sg33
I22
sasS'total_cqs'
p40
I33
ssI4
(dp41
S'iters'
p42
I0
sS'meta'
p43
(lp44
sS'total_cqs'
p45
I1
ssI5
(dp46
S'iters'
p47
I0
sS'meta'
p48
(lp49
sS'total_cqs'
p50
I1
ssI6
(dp51
S'iters'
p52
I3
sS'meta'
p53
(lp54
(dp55
S'objective'
p56
I1
sS'query_time'
p57
F1.7696030139923096
sS'comp_time'
p58
F9.512901306152344e-05
sS'exec_cq'
p59
I1
sS'total_cq'
p60
I5
sa(dp61
g56
I6
sg57
F26.707184076309204
sg58
F0.0001480579376220703
sg59
I1
sg60
I3
sa(dp62
g56
I3
sg57
F4.50214695930481
sg58
F7.796287536621094e-05
sg59
I2
sg60
I2
sasS'total_cqs'
p63
I5
ssI7
(dp64
S'iters'
p65
I0
sS'meta'
p66
(lp67
sS'total_cqs'
p68
I1
ssI8
(dp69
S'iters'
p70
I2
sS'meta'
p71
(lp72
(dp73
S'objective'
p74
I15
sS'query_time'
p75
F22.518126010894775
sS'comp_time'
p76
F8.511543273925781e-05
sS'exec_cq'
p77
I2
sS'total_cq'
p78
I6
sa(dp79
g74
I6
sg75
F20.13065814971924
sg76
F0.0001590251922607422
sg77
I2
sg78
I5
sasS'total_cqs'
p80
I6
ssI9
(dp81
S'iters'
p82
I2
sS'meta'
p83
(lp84
(dp85
S'objective'
p86
I3
sS'query_time'
p87
F4.032111167907715
sS'comp_time'
p88
F8.392333984375e-05
sS'exec_cq'
p89
I1
sS'total_cq'
p90
I6
sa(dp91
g86
I3
sg87
F6.58829402923584
sg88
F0.00013208389282226562
sg89
I1
sg90
I2
sasS'total_cqs'
p92
I6
ssI10
(dp93
S'iters'
p94
I0
sS'meta'
p95
(lp96
sS'total_cqs'
p97
I1
ssI11
(dp98
S'iters'
p99
I0
sS'meta'
p100
(lp101
sS'total_cqs'
p102
I1
ssI12
(dp103
S'iters'
p104
I0
sS'meta'
p105
(lp106
sS'total_cqs'
p107
I1
ssI13
(dp108
S'iters'
p109
I1
sS'meta'
p110
(lp111
(dp112
S'objective'
p113
I22
sS'query_time'
p114
F0.29099512100219727
sS'comp_time'
p115
F8.082389831542969e-05
sS'exec_cq'
p116
I2
sS'total_cq'
p117
I8
sasS'total_cqs'
p118
I8
ssI14
(dp119
S'iters'
p120
I1
sS'meta'
p121
(lp122
(dp123
S'objective'
p124
I5
sS'query_time'
p125
F0.9020500183105469
sS'comp_time'
p126
F7.104873657226562e-05
sS'exec_cq'
p127
I1
sS'total_cq'
p128
I5
sasS'total_cqs'
p129
I5
ssI16
(dp130
S'iters'
p131
I2
sS'meta'
p132
(lp133
(dp134
S'objective'
p135
I3
sS'query_time'
p136
F5.051778078079224
sS'comp_time'
p137
F8.988380432128906e-05
sS'exec_cq'
p138
I1
sS'total_cq'
p139
I5
sa(dp140
g135
I4
sg136
F110.46694016456604
sg137
F8.225440979003906e-05
sg138
I2
sg139
I2
sasS'total_cqs'
p141
I5
ssI17
(dp142
S'iters'
p143
I0
sS'meta'
p144
(lp145
sS'total_cqs'
p146
I1
ssI18
(dp147
S'iters'
p148
I2
sS'meta'
p149
(lp150
(dp151
S'objective'
p152
I3
sS'query_time'
p153
F0.40219712257385254
sS'comp_time'
p154
F0.00010085105895996094
sS'exec_cq'
p155
I1
sS'total_cq'
p156
I5
sa(dp157
g152
I4
sg153
F0.32434701919555664
sg154
F9.298324584960938e-05
sg155
I2
sg156
I2
sasS'total_cqs'
p158
I5
ssI19
(dp159
S'iters'
p160
I0
sS'meta'
p161
(lp162
sS'total_cqs'
p163
I1
ssI20
(dp164
S'iters'
p165
I3
sS'meta'
p166
(lp167
(dp168
S'objective'
p169
I54
sS'query_time'
p170
F6.865947961807251
sS'comp_time'
p171
F0.00016379356384277344
sS'exec_cq'
p172
I1
sS'total_cq'
p173
I12
sa(dp174
g169
I40
sg170
F0.01098012924194336
sg171
F7.772445678710938e-05
sg172
I1
sg173
I11
sa(dp175
g169
I33
sg170
F0.10339903831481934
sg171
F8.082389831542969e-05
sg172
I1
sg173
I9
sasS'total_cqs'
p176
I12
ssI21
(dp177
S'iters'
p178
I3
sS'meta'
p179
(lp180
(dp181
S'objective'
p182
I71
sS'query_time'
p183
F0.7855679988861084
sS'comp_time'
p184
F8.392333984375e-05
sS'exec_cq'
p185
I1
sS'total_cq'
p186
I14
sa(dp187
g182
I62
sg183
F0.28313708305358887
sg184
F9.703636169433594e-05
sg185
I1
sg186
I12
sa(dp188
g182
I51
sg183
F0.024662017822265625
sg184
F0.00011706352233886719
sg185
I1
sg186
I11
sasS'total_cqs'
p189
I14
ssI22
(dp190
S'iters'
p191
I1
sS'meta'
p192
(lp193
(dp194
S'objective'
p195
I1
sS'query_time'
p196
F0.004271030426025391
sS'comp_time'
p197
F7.510185241699219e-05
sS'exec_cq'
p198
I1
sS'total_cq'
p199
I2
sasS'total_cqs'
p200
I2
ssI23
(dp201
S'iters'
p202
I0
sS'meta'
p203
(lp204
sS'total_cqs'
p205
I1
ssI24
(dp206
S'iters'
p207
I0
sS'meta'
p208
(lp209
sS'total_cqs'
p210
I1
ssI25
(dp211
S'iters'
p212
I1
sS'meta'
p213
(lp214
(dp215
S'objective'
p216
I14
sS'query_time'
p217
F0.3795151710510254
sS'comp_time'
p218
F6.604194641113281e-05
sS'exec_cq'
p219
I1
sS'total_cq'
p220
I7
sasS'total_cqs'
p221
I7
ssI26
(dp222
S'iters'
p223
I3
sS'meta'
p224
(lp225
(dp226
S'objective'
p227
I65
sS'query_time'
p228
F0.0517430305480957
sS'comp_time'
p229
F8.106231689453125e-05
sS'exec_cq'
p230
I1
sS'total_cq'
p231
I13
sa(dp232
g227
I38
sg228
F1.0069749355316162
sg229
F0.0001399517059326172
sg230
I1
sg231
I12
sa(dp233
g227
I36
sg228
F0.00840616226196289
sg229
F5.1021575927734375e-05
sg230
I1
sg231
I10
sasS'total_cqs'
p234
I13
ssI27
(dp235
S'iters'
p236
I1
sS'meta'
p237
(lp238
(dp239
S'objective'
p240
I1
sS'query_time'
p241
F0.36367201805114746
sS'comp_time'
p242
F9.012222290039062e-05
sS'exec_cq'
p243
I1
sS'total_cq'
p244
I2
sasS'total_cqs'
p245
I2
ssI28
(dp246
S'iters'
p247
I3
sS'meta'
p248
(lp249
(dp250
S'objective'
p251
I77
sS'query_time'
p252
F1.3377151489257812
sS'comp_time'
p253
F9.179115295410156e-05
sS'exec_cq'
p254
I1
sS'total_cq'
p255
I14
sa(dp256
g251
I51
sg252
F1.0433580875396729
sg253
F9.298324584960938e-05
sg254
I1
sg255
I13
sa(dp257
g251
I47
sg252
F0.7280809879302979
sg253
F0.0001690387725830078
sg254
I1
sg255
I11
sasS'total_cqs'
p258
I14
ssI29
(dp259
S'iters'
p260
I1
sS'meta'
p261
(lp262
(dp263
S'objective'
p264
I1
sS'query_time'
p265
F0.005341053009033203
sS'comp_time'
p266
F6.699562072753906e-05
sS'exec_cq'
p267
I1
sS'total_cq'
p268
I2
sasS'total_cqs'
p269
I2
ssI30
(dp270
S'iters'
p271
I1
sS'meta'
p272
(lp273
(dp274
S'objective'
p275
I1
sS'query_time'
p276
F0.3863718509674072
sS'comp_time'
p277
F7.271766662597656e-05
sS'exec_cq'
p278
I1
sS'total_cq'
p279
I2
sasS'total_cqs'
p280
I2
ssI31
(dp281
S'iters'
p282
I3
sS'meta'
p283
(lp284
(dp285
S'objective'
p286
I25
sS'query_time'
p287
F0.4474349021911621
sS'comp_time'
p288
F0.00015401840209960938
sS'exec_cq'
p289
I1
sS'total_cq'
p290
I9
sa(dp291
g286
I15
sg287
F0.3858351707458496
sg288
F7.510185241699219e-05
sg289
I1
sg290
I7
sa(dp292
g286
I6
sg287
F0.08563995361328125
sg288
F9.274482727050781e-05
sg289
I1
sg290
I2
sasS'total_cqs'
p293
I9
ssI32
(dp294
S'iters'
p295
I1
sS'meta'
p296
(lp297
(dp298
S'objective'
p299
I14
sS'query_time'
p300
F0.18503308296203613
sS'comp_time'
p301
F8.082389831542969e-05
sS'exec_cq'
p302
I1
sS'total_cq'
p303
I7
sasS'total_cqs'
p304
I7
ssI33
(dp305
S'iters'
p306
I1
sS'meta'
p307
(lp308
(dp309
S'objective'
p310
I1
sS'query_time'
p311
F0.03259706497192383
sS'comp_time'
p312
F7.486343383789062e-05
sS'exec_cq'
p313
I1
sS'total_cq'
p314
I2
sasS'total_cqs'
p315
I2
ssI34
(dp316
S'iters'
p317
I0
sS'meta'
p318
(lp319
sS'total_cqs'
p320
I1
ssI35
(dp321
S'iters'
p322
I1
sS'meta'
p323
(lp324
(dp325
S'objective'
p326
I5
sS'query_time'
p327
F0.317349910736084
sS'comp_time'
p328
F8.296966552734375e-05
sS'exec_cq'
p329
I1
sS'total_cq'
p330
I5
sasS'total_cqs'
p331
I5
ssI37
(dp332
S'iters'
p333
I2
sS'meta'
p334
(lp335
(dp336
S'objective'
p337
I35
sS'query_time'
p338
F0.012148141860961914
sS'comp_time'
p339
F8.797645568847656e-05
sS'exec_cq'
p340
I1
sS'total_cq'
p341
I10
sa(dp342
g337
I27
sg338
F0.535020112991333
sg339
F9.417533874511719e-05
sg340
I1
sg341
I9
sasS'total_cqs'
p343
I10
ssI38
(dp344
S'iters'
p345
I0
sS'meta'
p346
(lp347
sS'total_cqs'
p348
I1
ssI39
(dp349
S'iters'
p350
I0
sS'meta'
p351
(lp352
sS'total_cqs'
p353
I1
ssI40
(dp354
S'iters'
p355
I1
sS'meta'
p356
(lp357
(dp358
S'objective'
p359
I1
sS'query_time'
p360
F15.812803983688354
sS'comp_time'
p361
F0.00047397613525390625
sS'exec_cq'
p362
I2
sS'total_cq'
p363
I2
sasS'total_cqs'
p364
I2
ssI41
(dp365
S'iters'
p366
I2
sS'meta'
p367
(lp368
(dp369
S'objective'
p370
I5
sS'query_time'
p371
F6.394844055175781
sS'comp_time'
p372
F0.00010013580322265625
sS'exec_cq'
p373
I1
sS'total_cq'
p374
I6
sa(dp375
g370
I4
sg371
F66.08746314048767
sg372
F8.296966552734375e-05
sg373
I2
sg374
I2
sasS'total_cqs'
p376
I6
ssI42
(dp377
S'iters'
p378
I1
sS'meta'
p379
(lp380
(dp381
S'objective'
p382
I1
sS'query_time'
p383
F0.009859085083007812
sS'comp_time'
p384
F6.985664367675781e-05
sS'exec_cq'
p385
I1
sS'total_cq'
p386
I2
sasS'total_cqs'
p387
I2
ssI43
(dp388
S'iters'
p389
I0
sS'meta'
p390
(lp391
sS'total_cqs'
p392
I1
ssI44
(dp393
S'iters'
p394
I1
sS'meta'
p395
(lp396
(dp397
S'objective'
p398
I5
sS'query_time'
p399
F0.009534120559692383
sS'comp_time'
p400
F7.486343383789062e-05
sS'exec_cq'
p401
I1
sS'total_cq'
p402
I5
sasS'total_cqs'
p403
I5
ssI45
(dp404
S'iters'
p405
I2
sS'meta'
p406
(lp407
(dp408
S'objective'
p409
I3
sS'query_time'
p410
F0.03937792778015137
sS'comp_time'
p411
F8.893013000488281e-05
sS'exec_cq'
p412
I1
sS'total_cq'
p413
I5
sa(dp414
g409
I1
sg410
F0.5792691707611084
sg411
F8.702278137207031e-05
sg412
I2
sg413
I2
sasS'total_cqs'
p415
I5
ssI46
(dp416
S'iters'
p417
I0
sS'meta'
p418
(lp419
sS'total_cqs'
p420
I1
ssI47
(dp421
S'iters'
p422
I0
sS'meta'
p423
(lp424
sS'total_cqs'
p425
I1
ssI48
(dp426
S'iters'
p427
I1
sS'meta'
p428
(lp429
(dp430
S'objective'
p431
I1
sS'query_time'
p432
F0.20107197761535645
sS'comp_time'
p433
F0.00014090538024902344
sS'exec_cq'
p434
I1
sS'total_cq'
p435
I2
sasS'total_cqs'
p436
I2
ssI49
(dp437
S'iters'
p438
I1
sS'meta'
p439
(lp440
(dp441
S'objective'
p442
I5
sS'query_time'
p443
F0.11388492584228516
sS'comp_time'
p444
F9.989738464355469e-05
sS'exec_cq'
p445
I1
sS'total_cq'
p446
I5
sasS'total_cqs'
p447
I5
ssI50
(dp448
S'iters'
p449
I1
sS'meta'
p450
(lp451
(dp452
S'objective'
p453
I5
sS'query_time'
p454
F0.7736098766326904
sS'comp_time'
p455
F7.510185241699219e-05
sS'exec_cq'
p456
I1
sS'total_cq'
p457
I5
sasS'total_cqs'
p458
I5
ssI51
(dp459
S'iters'
p460
I0
sS'meta'
p461
(lp462
sS'total_cqs'
p463
I1
ssI52
(dp464
S'iters'
p465
I0
sS'meta'
p466
(lp467
sS'total_cqs'
p468
I1
ssI53
(dp469
S'iters'
p470
I0
sS'meta'
p471
(lp472
sS'total_cqs'
p473
I1
ssI55
(dp474
S'iters'
p475
I1
sS'meta'
p476
(lp477
(dp478
S'objective'
p479
I1
sS'query_time'
p480
F22.695495128631592
sS'comp_time'
p481
F0.0001621246337890625
sS'exec_cq'
p482
I1
sS'total_cq'
p483
I2
sasS'total_cqs'
p484
I2
ssI56
(dp485
S'iters'
p486
I0
sS'meta'
p487
(lp488
sS'total_cqs'
p489
I1
ssI57
(dp490
S'iters'
p491
I2
sS'meta'
p492
(lp493
(dp494
S'objective'
p495
I0
sS'query_time'
p496
F2.0706100463867188
sS'comp_time'
p497
F0.0005347728729248047
sS'exec_cq'
p498
I1
sS'total_cq'
p499
I3
sa(dp500
g495
I1
sg496
F10.413954019546509
sg497
F6.818771362304688e-05
sg498
I1
sg499
I2
sasS'total_cqs'
p501
I3
ssI108
(dp502
S'iters'
p503
I0
sS'meta'
p504
(lp505
sS'total_cqs'
p506
I1
ssI109
(dp507
S'iters'
p508
I0
sS'meta'
p509
(lp510
sS'total_cqs'
p511
I1
ssI116
(dp512
S'iters'
p513
I1
sS'meta'
p514
(lp515
(dp516
S'objective'
p517
I197
sS'query_time'
p518
F0.28000402450561523
sS'comp_time'
p519
F0.0001461505889892578
sS'exec_cq'
p520
I5
sS'total_cq'
p521
I21
sasS'total_cqs'
p522
I21
ssI117
(dp523
S'iters'
p524
I1
sS'meta'
p525
(lp526
(dp527
S'objective'
p528
I5
sS'query_time'
p529
F0.007452964782714844
sS'comp_time'
p530
F7.796287536621094e-05
sS'exec_cq'
p531
I1
sS'total_cq'
p532
I5
sasS'total_cqs'
p533
I5
ssI118
(dp534
S'iters'
p535
I0
sS'meta'
p536
(lp537
sS'total_cqs'
p538
I1
ssI122
(dp539
S'iters'
p540
I0
sS'meta'
p541
(lp542
sS'total_cqs'
p543
I1
ss.