(dp0
I1
(dp1
S'iters'
p2
I2
sS'meta'
p3
(lp4
(dp5
S'objective'
p6
I3
sS'query_time'
p7
F31.432602882385254
sS'comp_time'
p8
F0.2395648956298828
sS'exec_cq'
p9
I2
sS'total_cq'
p10
I6
sa(dp11
g6
I0
sg7
F11.89996600151062
sg8
F0.28538084030151367
sg9
I3
sg10
I4
sasS'total_cqs'
p12
I6
ssI2
(dp13
S'iters'
p14
I1
sS'meta'
p15
(lp16
(dp17
S'objective'
p18
I9
sS'query_time'
p19
F0.8444628715515137
sS'comp_time'
p20
F0.0403447151184082
sS'exec_cq'
p21
I5
sS'total_cq'
p22
I6
sasS'total_cqs'
p23
I6
ssI3
(dp24
S'iters'
p25
I9
sS'meta'
p26
(lp27
(dp28
S'objective'
p29
I423
sS'query_time'
p30
F25.992805004119873
sS'comp_time'
p31
F0.25998735427856445
sS'exec_cq'
p32
I33
sS'total_cq'
p33
I33
sa(dp34
g29
I366
sg30
F0.02695775032043457
sg31
F0.12070846557617188
sg32
I30
sg33
I30
sa(dp35
g29
I313
sg30
F0.08713793754577637
sg31
F0.0479280948638916
sg32
I27
sg33
I27
sa(dp36
g29
I263
sg30
F0.009492635726928711
sg31
F0.015193700790405273
sg32
I24
sg33
I24
sa(dp37
g29
I245
sg30
F0.008872032165527344
sg31
F0.07609963417053223
sg32
I21
sg33
I21
sa(dp38
g29
I209
sg30
F0.008157968521118164
sg31
F0.016148090362548828
sg32
I18
sg33
I18
sa(dp39
g29
I175
sg30
F0.0074748992919921875
sg31
F0.01769423484802246
sg32
I16
sg33
I16
sa(dp40
g29
I146
sg30
F0.006136894226074219
sg31
F0.07438278198242188
sg32
I13
sg33
I13
sa(dp41
g29
I126
sg30
F0.005975961685180664
sg31
F0.015274524688720703
sg32
I12
sg33
I12
sasS'total_cqs'
p42
I33
ssI4
(dp43
S'iters'
p44
I0
sS'meta'
p45
(lp46
sS'total_cqs'
p47
I1
ssI5
(dp48
S'iters'
p49
I0
sS'meta'
p50
(lp51
sS'total_cqs'
p52
I1
ssI6
(dp53
S'iters'
p54
I2
sS'meta'
p55
(lp56
(dp57
S'objective'
p58
I1
sS'query_time'
p59
F14.79137110710144
sS'comp_time'
p60
F0.0033216476440429688
sS'exec_cq'
p61
I4
sS'total_cq'
p62
I5
sa(dp63
g58
I3
sg59
F0.00020694732666015625
sg60
F0.00030994415283203125
sg61
I2
sg62
I2
sasS'total_cqs'
p64
I5
ssI7
(dp65
S'iters'
p66
I0
sS'meta'
p67
(lp68
sS'total_cqs'
p69
I1
ssI8
(dp70
S'iters'
p71
I1
sS'meta'
p72
(lp73
(dp74
S'objective'
p75
I9
sS'query_time'
p76
F83.82292103767395
sS'comp_time'
p77
F0.16109371185302734
sS'exec_cq'
p78
I5
sS'total_cq'
p79
I6
sasS'total_cqs'
p80
I6
ssI9
(dp81
S'iters'
p82
I2
sS'meta'
p83
(lp84
(dp85
S'objective'
p86
I5
sS'query_time'
p87
F12.524521827697754
sS'comp_time'
p88
F0.06304430961608887
sS'exec_cq'
p89
I3
sS'total_cq'
p90
I6
sa(dp91
g86
I1
sg87
F0.05849003791809082
sg88
F0.38803529739379883
sg89
I3
sg90
I3
sasS'total_cqs'
p92
I6
ssI10
(dp93
S'iters'
p94
I0
sS'meta'
p95
(lp96
sS'total_cqs'
p97
I1
ssI11
(dp98
S'iters'
p99
I0
sS'meta'
p100
(lp101
sS'total_cqs'
p102
I1
ssI12
(dp103
S'iters'
p104
I0
sS'meta'
p105
(lp106
sS'total_cqs'
p107
I1
ssI13
(dp108
S'iters'
p109
I1
sS'meta'
p110
(lp111
(dp112
S'objective'
p113
I22
sS'query_time'
p114
F0.01423192024230957
sS'comp_time'
p115
F0.009270906448364258
sS'exec_cq'
p116
I7
sS'total_cq'
p117
I8
sasS'total_cqs'
p118
I8
ssI14
(dp119
S'iters'
p120
I1
sS'meta'
p121
(lp122
(dp123
S'objective'
p124
I5
sS'query_time'
p125
F1.0101299285888672
sS'comp_time'
p126
F0.004345893859863281
sS'exec_cq'
p127
I5
sS'total_cq'
p128
I5
sasS'total_cqs'
p129
I5
ssI16
(dp130
S'iters'
p131
I2
sS'meta'
p132
(lp133
(dp134
S'objective'
p135
I1
sS'query_time'
p136
F1.3530120849609375
sS'comp_time'
p137
F0.005975008010864258
sS'exec_cq'
p138
I4
sS'total_cq'
p139
I5
sa(dp140
g135
I2
sg136
F0.0013170242309570312
sg137
F0.001865386962890625
sg138
I2
sg139
I2
sasS'total_cqs'
p141
I5
ssI17
(dp142
S'iters'
p143
I0
sS'meta'
p144
(lp145
sS'total_cqs'
p146
I1
ssI18
(dp147
S'iters'
p148
I3
sS'meta'
p149
(lp150
(dp151
S'objective'
p152
I1
sS'query_time'
p153
F0.21290206909179688
sS'comp_time'
p154
F0.004208564758300781
sS'exec_cq'
p155
I4
sS'total_cq'
p156
I5
sa(dp157
g152
I4
sg153
F5.1021575927734375e-05
sg154
F0.00011992454528808594
sg155
I2
sg156
I3
sa(dp158
g152
I4
sg153
F3.2901763916015625e-05
sg154
F0.00010824203491210938
sg155
I2
sg156
I2
sasS'total_cqs'
p159
I5
ssI19
(dp160
S'iters'
p161
I0
sS'meta'
p162
(lp163
sS'total_cqs'
p164
I1
ssI20
(dp165
S'iters'
p166
I4
sS'meta'
p167
(lp168
(dp169
S'objective'
p170
I44
sS'query_time'
p171
F13.62427306175232
sS'comp_time'
p172
F0.82281494140625
sS'exec_cq'
p173
I10
sS'total_cq'
p174
I12
sa(dp175
g170
I31
sg171
F0.24678993225097656
sg172
F0.5222482681274414
sg173
I8
sg174
I10
sa(dp176
g170
I24
sg171
F0.14969396591186523
sg172
F0.36081981658935547
sg173
I4
sg174
I8
sa(dp177
g170
I15
sg171
F0.17941880226135254
sg172
F0.3347160816192627
sg173
I5
sg174
I6
sasS'total_cqs'
p178
I12
ssI21
(dp179
S'iters'
p180
I3
sS'meta'
p181
(lp182
(dp183
S'objective'
p184
I51
sS'query_time'
p185
F122.23193717002869
sS'comp_time'
p186
F0.7294347286224365
sS'exec_cq'
p187
I12
sS'total_cq'
p188
I14
sa(dp189
g184
I50
sg185
F0.08693790435791016
sg186
F0.05417060852050781
sg187
I8
sg188
I11
sa(dp190
g184
I40
sg185
F0.02414083480834961
sg186
F0.08960580825805664
sg187
I7
sg188
I9
sasS'total_cqs'
p191
I14
ssI22
(dp192
S'iters'
p193
I1
sS'meta'
p194
(lp195
(dp196
S'objective'
p197
I1
sS'query_time'
p198
F0.0028290748596191406
sS'comp_time'
p199
F0.0010988712310791016
sS'exec_cq'
p200
I1
sS'total_cq'
p201
I2
sasS'total_cqs'
p202
I2
ssI23
(dp203
S'iters'
p204
I0
sS'meta'
p205
(lp206
sS'total_cqs'
p207
I1
ssI24
(dp208
S'iters'
p209
I0
sS'meta'
p210
(lp211
sS'total_cqs'
p212
I1
ssI25
(dp213
S'iters'
p214
I1
sS'meta'
p215
(lp216
(dp217
S'objective'
p218
I14
sS'query_time'
p219
F66.29620885848999
sS'comp_time'
p220
F2.722728729248047
sS'exec_cq'
p221
I5
sS'total_cq'
p222
I7
sasS'total_cqs'
p223
I7
ssI26
(dp224
S'iters'
p225
I5
sS'meta'
p226
(lp227
(dp228
S'objective'
p229
I49
sS'query_time'
p230
F22.306167125701904
sS'comp_time'
p231
F0.030554533004760742
sS'exec_cq'
p232
I7
sS'total_cq'
p233
I13
sa(dp234
g229
I44
sg230
F0.009069204330444336
sg231
F0.0007750988006591797
sg232
I5
sg233
I11
sa(dp235
g229
I31
sg230
F0.00043392181396484375
sg231
F0.0007033348083496094
sg232
I3
sg233
I9
sa(dp236
g229
I22
sg230
F3.744662046432495
sg231
F0.00397491455078125
sg232
I4
sg233
I8
sa(dp237
g229
I11
sg230
F0.00226593017578125
sg231
F0.0007908344268798828
sg232
I3
sg233
I6
sasS'total_cqs'
p238
I13
ssI27
(dp239
S'iters'
p240
I1
sS'meta'
p241
(lp242
(dp243
S'objective'
p244
I1
sS'query_time'
p245
F0.17915701866149902
sS'comp_time'
p246
F0.0021462440490722656
sS'exec_cq'
p247
I1
sS'total_cq'
p248
I2
sasS'total_cqs'
p249
I2
ssI28
(dp250
S'iters'
p251
I5
sS'meta'
p252
(lp253
(dp254
S'objective'
p255
I55
sS'query_time'
p256
F1.486548900604248
sS'comp_time'
p257
F0.07259798049926758
sS'exec_cq'
p258
I6
sS'total_cq'
p259
I14
sa(dp260
g255
I44
sg256
F0.008669853210449219
sg257
F0.011427164077758789
sg258
I5
sg259
I11
sa(dp261
g255
I34
sg256
F1.9788742065429688e-05
sg257
F0.00011706352233886719
sg258
I2
sg259
I9
sa(dp262
g255
I22
sg256
F0.018851041793823242
sg257
F0.00010704994201660156
sg258
I1
sg259
I8
sa(dp263
g255
I11
sg256
F0.0017821788787841797
sg257
F5.221366882324219e-05
sg258
I1
sg259
I7
sasS'total_cqs'
p264
I14
ssI29
(dp265
S'iters'
p266
I1
sS'meta'
p267
(lp268
(dp269
S'objective'
p270
I1
sS'query_time'
p271
F0.0034079551696777344
sS'comp_time'
p272
F0.0011737346649169922
sS'exec_cq'
p273
I2
sS'total_cq'
p274
I2
sasS'total_cqs'
p275
I2
ssI30
(dp276
S'iters'
p277
I1
sS'meta'
p278
(lp279
(dp280
S'objective'
p281
I1
sS'query_time'
p282
F0.37623119354248047
sS'comp_time'
p283
F0.0022857189178466797
sS'exec_cq'
p284
I2
sS'total_cq'
p285
I2
sasS'total_cqs'
p286
I2
ssI31
(dp287
S'iters'
p288
I2
sS'meta'
p289
(lp290
(dp291
S'objective'
p292
I3
sS'query_time'
p293
F1.5875909328460693
sS'comp_time'
p294
F0.031017303466796875
sS'exec_cq'
p295
I5
sS'total_cq'
p296
I9
sa(dp297
g292
I5
sg293
F0.00964498519897461
sg294
F0.013952016830444336
sg295
I3
sg296
I3
sasS'total_cqs'
p298
I9
ssI32
(dp299
S'iters'
p300
I3
sS'meta'
p301
(lp302
(dp303
S'objective'
p304
I8
sS'query_time'
p305
F21.36701989173889
sS'comp_time'
p306
F2.2205140590667725
sS'exec_cq'
p307
I4
sS'total_cq'
p308
I7
sa(dp309
g304
I4
sg305
F1.1554369926452637
sg306
F0.0033659934997558594
sg307
I2
sg308
I4
sa(dp310
g304
I3
sg305
F0.25376200675964355
sg306
F0.23032307624816895
sg307
I1
sg308
I2
sasS'total_cqs'
p311
I7
ssI33
(dp312
S'iters'
p313
I1
sS'meta'
p314
(lp315
(dp316
S'objective'
p317
I1
sS'query_time'
p318
F0.022532939910888672
sS'comp_time'
p319
F0.001669168472290039
sS'exec_cq'
p320
I2
sS'total_cq'
p321
I2
sasS'total_cqs'
p322
I2
ssI34
(dp323
S'iters'
p324
I0
sS'meta'
p325
(lp326
sS'total_cqs'
p327
I1
ssI35
(dp328
S'iters'
p329
I2
sS'meta'
p330
(lp331
(dp332
S'objective'
p333
I1
sS'query_time'
p334
F14.708825826644897
sS'comp_time'
p335
F0.07405567169189453
sS'exec_cq'
p336
I4
sS'total_cq'
p337
I5
sa(dp338
g333
I3
sg334
F0.011922121047973633
sg335
F0.08172821998596191
sg336
I2
sg337
I2
sasS'total_cqs'
p339
I5
ssI37
(dp340
S'iters'
p341
I2
sS'meta'
p342
(lp343
(dp344
S'objective'
p345
I25
sS'query_time'
p346
F1.9375500679016113
sS'comp_time'
p347
F0.09061551094055176
sS'exec_cq'
p348
I8
sS'total_cq'
p349
I10
sa(dp350
g345
I3
sg346
F0.003484964370727539
sg347
F0.11283087730407715
sg348
I2
sg349
I2
sasS'total_cqs'
p351
I10
ssI38
(dp352
S'iters'
p353
I0
sS'meta'
p354
(lp355
sS'total_cqs'
p356
I1
ssI39
(dp357
S'iters'
p358
I0
sS'meta'
p359
(lp360
sS'total_cqs'
p361
I1
ssI40
(dp362
S'iters'
p363
I1
sS'meta'
p364
(lp365
(dp366
S'objective'
p367
I1
sS'query_time'
p368
F0.0015001296997070312
sS'comp_time'
p369
F0.0004398822784423828
sS'exec_cq'
p370
I1
sS'total_cq'
p371
I2
sasS'total_cqs'
p372
I2
ssI41
(dp373
S'iters'
p374
I2
sS'meta'
p375
(lp376
(dp377
S'objective'
p378
I1
sS'query_time'
p379
F1.0379269123077393
sS'comp_time'
p380
F0.0032050609588623047
sS'exec_cq'
p381
I2
sS'total_cq'
p382
I6
sa(dp383
g378
I2
sg379
F0.0009219646453857422
sg380
F0.001397848129272461
sg381
I2
sg382
I2
sasS'total_cqs'
p384
I6
ssI42
(dp385
S'iters'
p386
I1
sS'meta'
p387
(lp388
(dp389
S'objective'
p390
I1
sS'query_time'
p391
F0.006894826889038086
sS'comp_time'
p392
F0.00038695335388183594
sS'exec_cq'
p393
I1
sS'total_cq'
p394
I2
sasS'total_cqs'
p395
I2
ssI43
(dp396
S'iters'
p397
I0
sS'meta'
p398
(lp399
sS'total_cqs'
p400
I1
ssI44
(dp401
S'iters'
p402
I1
sS'meta'
p403
(lp404
(dp405
S'objective'
p406
I5
sS'query_time'
p407
F1.1881988048553467
sS'comp_time'
p408
F0.02796030044555664
sS'exec_cq'
p409
I3
sS'total_cq'
p410
I5
sasS'total_cqs'
p411
I5
ssI45
(dp412
S'iters'
p413
I2
sS'meta'
p414
(lp415
(dp416
S'objective'
p417
I1
sS'query_time'
p418
F0.029152870178222656
sS'comp_time'
p419
F0.002928018569946289
sS'exec_cq'
p420
I3
sS'total_cq'
p421
I5
sa(dp422
g417
I3
sg418
F0.00017905235290527344
sg419
F0.0002338886260986328
sg420
I2
sg421
I2
sasS'total_cqs'
p423
I5
ssI46
(dp424
S'iters'
p425
I0
sS'meta'
p426
(lp427
sS'total_cqs'
p428
I1
ssI47
(dp429
S'iters'
p430
I0
sS'meta'
p431
(lp432
sS'total_cqs'
p433
I1
ssI48
(dp434
S'iters'
p435
I1
sS'meta'
p436
(lp437
(dp438
S'objective'
p439
I1
sS'query_time'
p440
F0.20856094360351562
sS'comp_time'
p441
F0.0026998519897460938
sS'exec_cq'
p442
I2
sS'total_cq'
p443
I2
sasS'total_cqs'
p444
I2
ssI49
(dp445
S'iters'
p446
I2
sS'meta'
p447
(lp448
(dp449
S'objective'
p450
I3
sS'query_time'
p451
F0.16904592514038086
sS'comp_time'
p452
F0.0035550594329833984
sS'exec_cq'
p453
I4
sS'total_cq'
p454
I5
sa(dp455
g450
I1
sg451
F0.00039505958557128906
sg452
F0.0007119178771972656
sg453
I2
sg454
I2
sasS'total_cqs'
p456
I5
ssI50
(dp457
S'iters'
p458
I1
sS'meta'
p459
(lp460
(dp461
S'objective'
p462
I5
sS'query_time'
p463
F0.7443888187408447
sS'comp_time'
p464
F0.0032951831817626953
sS'exec_cq'
p465
I5
sS'total_cq'
p466
I5
sasS'total_cqs'
p467
I5
ssI51
(dp468
S'iters'
p469
I0
sS'meta'
p470
(lp471
sS'total_cqs'
p472
I1
ssI52
(dp473
S'iters'
p474
I0
sS'meta'
p475
(lp476
sS'total_cqs'
p477
I1
ssI53
(dp478
S'iters'
p479
I0
sS'meta'
p480
(lp481
sS'total_cqs'
p482
I1
ssI55
(dp483
S'iters'
p484
I1
sS'meta'
p485
(lp486
(dp487
S'objective'
p488
I1
sS'query_time'
p489
F24.44971489906311
sS'comp_time'
p490
F0.01830601692199707
sS'exec_cq'
p491
I2
sS'total_cq'
p492
I2
sasS'total_cqs'
p493
I2
ssI56
(dp494
S'iters'
p495
I0
sS'meta'
p496
(lp497
sS'total_cqs'
p498
I1
ssI57
(dp499
S'iters'
p500
I2
sS'meta'
p501
(lp502
(dp503
S'objective'
p504
I0
sS'query_time'
p505
F12.927088022232056
sS'comp_time'
p506
F1.0934746265411377
sS'exec_cq'
p507
I2
sS'total_cq'
p508
I3
sa(dp509
g504
I1
sg505
F0.2906789779663086
sg506
F0.39109182357788086
sg507
I1
sg508
I2
sasS'total_cqs'
p510
I3
ssI108
(dp511
S'iters'
p512
I0
sS'meta'
p513
(lp514
sS'total_cqs'
p515
I1
ssI109
(dp516
S'iters'
p517
I0
sS'meta'
p518
(lp519
sS'total_cqs'
p520
I1
ssI116
(dp521
S'iters'
p522
I2
sS'meta'
p523
(lp524
(dp525
S'objective'
p526
I159
sS'query_time'
p527
F0.5540759563446045
sS'comp_time'
p528
F0.014214515686035156
sS'exec_cq'
p529
I14
sS'total_cq'
p530
I21
sa(dp531
g526
I2
sg527
F0.0006620883941650391
sg528
F0.0009300708770751953
sg529
I2
sg530
I2
sasS'total_cqs'
p532
I21
ssI117
(dp533
S'iters'
p534
I1
sS'meta'
p535
(lp536
(dp537
S'objective'
p538
I5
sS'query_time'
p539
F0.0049419403076171875
sS'comp_time'
p540
F0.001466989517211914
sS'exec_cq'
p541
I4
sS'total_cq'
p542
I5
sasS'total_cqs'
p543
I5
ssI118
(dp544
S'iters'
p545
I0
sS'meta'
p546
(lp547
sS'total_cqs'
p548
I1
ssI122
(dp549
S'iters'
p550
I0
sS'meta'
p551
(lp552
sS'total_cqs'
p553
I1
ss.