(dp0
I1
(dp1
S'iters'
p2
I3
sS'meta'
p3
(lp4
(dp5
S'objective'
p6
I9
sS'query_time'
p7
F25.590466022491455
sS'comp_time'
p8
F0.07890081405639648
sS'exec_cq'
p9
I6
sS'total_cq'
p10
I6
sa(dp11
g6
I3
sg7
F0.011256933212280273
sg8
F1.3971238136291504
sg9
I5
sg10
I5
sa(dp12
g6
I1
sg7
F0.010416030883789062
sg8
F240.23350882530212
sg9
I2
sg10
I2
sasS'total_cqs'
p13
I6
ssI2
(dp14
S'iters'
p15
I1
sS'meta'
p16
(lp17
(dp18
S'objective'
p19
I13
sS'query_time'
p20
F0.9613361358642578
sS'comp_time'
p21
F0.07922983169555664
sS'exec_cq'
p22
I6
sS'total_cq'
p23
I6
sasS'total_cqs'
p24
I6
ssI3
(dp25
S'iters'
p26
I12
sS'meta'
p27
(lp28
(dp29
S'objective'
p30
I379
sS'query_time'
p31
F26.38025712966919
sS'comp_time'
p32
F0.25325870513916016
sS'exec_cq'
p33
I33
sS'total_cq'
p34
I33
sa(dp35
g30
I348
sg31
F0.08591008186340332
sg32
F0.22374916076660156
sg33
I30
sg34
I30
sa(dp36
g30
I305
sg31
F0.024197816848754883
sg32
F0.16721796989440918
sg33
I27
sg34
I27
sa(dp37
g30
I255
sg31
F0.023775100708007812
sg32
F0.17311692237854004
sg33
I24
sg34
I24
sa(dp38
g30
I226
sg31
F0.0414729118347168
sg32
F0.15130209922790527
sg33
I21
sg34
I21
sa(dp39
g30
I190
sg31
F0.00878000259399414
sg32
F0.05641603469848633
sg33
I18
sg34
I18
sa(dp40
g30
I160
sg31
F0.007436037063598633
sg32
F0.03420710563659668
sg33
I15
sg34
I15
sa(dp41
g30
I130
sg31
F0.005526065826416016
sg32
F0.0508270263671875
sg33
I12
sg34
I12
sa(dp42
g30
I110
sg31
F0.005778789520263672
sg32
F0.030668973922729492
sg33
I10
sg34
I10
sa(dp43
g30
I86
sg31
F0.002878904342651367
sg32
F0.03504800796508789
sg33
I9
sg34
I9
sa(dp44
g30
I65
sg31
F0.002729177474975586
sg32
F0.016328811645507812
sg33
I8
sg34
I8
sa(dp45
g30
I52
sg31
F0.002474069595336914
sg32
F0.013573884963989258
sg33
I7
sg34
I7
sasS'total_cqs'
p46
I33
ssI4
(dp47
S'iters'
p48
I0
sS'meta'
p49
(lp50
sS'total_cqs'
p51
I1
ssI5
(dp52
S'iters'
p53
I0
sS'meta'
p54
(lp55
sS'total_cqs'
p56
I1
ssI6
(dp57
S'iters'
p58
I3
sS'meta'
p59
(lp60
(dp61
S'objective'
p62
I1
sS'query_time'
p63
F14.997127056121826
sS'comp_time'
p64
F0.0030100345611572266
sS'exec_cq'
p65
I5
sS'total_cq'
p66
I5
sa(dp67
g62
I3
sg63
F0.00043392181396484375
sg64
F0.0022630691528320312
sg65
I3
sg66
I3
sa(dp68
g62
I3
sg63
F0.00023794174194335938
sg64
F0.0015630722045898438
sg65
I2
sg66
I2
sasS'total_cqs'
p69
I5
ssI7
(dp70
S'iters'
p71
I0
sS'meta'
p72
(lp73
sS'total_cqs'
p74
I1
ssI8
(dp75
S'iters'
p76
I4
sS'meta'
p77
(lp78
(dp79
S'objective'
p80
I17
sS'query_time'
p81
F22.846536874771118
sS'comp_time'
p82
F0.2662618160247803
sS'exec_cq'
p83
I6
sS'total_cq'
p84
I6
sa(dp85
g80
I1
sg81
F0.20191597938537598
sg82
F0.19875502586364746
sg83
I5
sg84
I5
sa(dp86
g80
I0
sg81
F1.756108045578003
sg82
F1.8853881359100342
sg83
I3
sg84
I3
sa(dp87
g80
I3
sg81
F0.0014240741729736328
sg82
F0.0009989738464355469
sg83
I2
sg84
I2
sasS'total_cqs'
p88
I6
ssI9
(dp89
S'iters'
p90
I3
sS'meta'
p91
(lp92
(dp93
S'objective'
p94
I1
sS'query_time'
p95
F52.93182110786438
sS'comp_time'
p96
F4.24603009223938
sS'exec_cq'
p97
I6
sS'total_cq'
p98
I6
sa(dp99
g94
I1
sg95
F0.06266498565673828
sg96
F0.5529999732971191
sg97
I3
sg98
I3
sa(dp100
g94
I2
sg95
F0.03964710235595703
sg96
F0.3135049343109131
sg97
I2
sg98
I2
sasS'total_cqs'
p101
I6
ssI10
(dp102
S'iters'
p103
I0
sS'meta'
p104
(lp105
sS'total_cqs'
p106
I1
ssI11
(dp107
S'iters'
p108
I0
sS'meta'
p109
(lp110
sS'total_cqs'
p111
I1
ssI12
(dp112
S'iters'
p113
I0
sS'meta'
p114
(lp115
sS'total_cqs'
p116
I1
ssI13
(dp117
S'iters'
p118
I1
sS'meta'
p119
(lp120
(dp121
S'objective'
p122
I26
sS'query_time'
p123
F0.026960134506225586
sS'comp_time'
p124
F0.00013399124145507812
sS'exec_cq'
p125
I8
sS'total_cq'
p126
I8
sasS'total_cqs'
p127
I8
ssI14
(dp128
S'iters'
p129
I1
sS'meta'
p130
(lp131
(dp132
S'objective'
p133
I7
sS'query_time'
p134
F1.1259589195251465
sS'comp_time'
p135
F0.007557868957519531
sS'exec_cq'
p136
I5
sS'total_cq'
p137
I5
sasS'total_cqs'
p138
I5
ssI16
(dp139
S'iters'
p140
I2
sS'meta'
p141
(lp142
(dp143
S'objective'
p144
I1
sS'query_time'
p145
F1.619837999343872
sS'comp_time'
p146
F0.005909919738769531
sS'exec_cq'
p147
I5
sS'total_cq'
p148
I5
sa(dp149
g144
I0
sg145
F0.00010514259338378906
sg146
F0.0004210472106933594
sg147
I3
sg148
I3
sasS'total_cqs'
p150
I5
ssI17
(dp151
S'iters'
p152
I0
sS'meta'
p153
(lp154
sS'total_cqs'
p155
I1
ssI18
(dp156
S'iters'
p157
I2
sS'meta'
p158
(lp159
(dp160
S'objective'
p161
I1
sS'query_time'
p162
F0.37781286239624023
sS'comp_time'
p163
F0.0003249645233154297
sS'exec_cq'
p164
I5
sS'total_cq'
p165
I5
sa(dp166
g161
I1
sg162
F5.3882598876953125e-05
sg163
F0.00019311904907226562
sg164
I3
sg165
I3
sasS'total_cqs'
p167
I5
ssI19
(dp168
S'iters'
p169
I0
sS'meta'
p170
(lp171
sS'total_cqs'
p172
I1
ssI20
(dp173
S'iters'
p174
I5
sS'meta'
p175
(lp176
(dp177
S'objective'
p178
I38
sS'query_time'
p179
F11.723628044128418
sS'comp_time'
p180
F1.302412748336792
sS'exec_cq'
p181
I12
sS'total_cq'
p182
I12
sa(dp183
g178
I26
sg179
F0.23619389533996582
sg180
F1.0319359302520752
sg181
I10
sg182
I10
sa(dp184
g178
I18
sg179
F0.2242281436920166
sg180
F0.981856107711792
sg181
I8
sg182
I8
sa(dp185
g178
I10
sg179
F0.22708511352539062
sg180
F0.7365028858184814
sg181
I6
sg182
I6
sa(dp186
g178
I6
sg179
F0.030067920684814453
sg180
F0.29250407218933105
sg181
I5
sg182
I5
sasS'total_cqs'
p187
I12
ssI21
(dp188
S'iters'
p189
I3
sS'meta'
p190
(lp191
(dp192
S'objective'
p193
I55
sS'query_time'
p194
F29.456268072128296
sS'comp_time'
p195
F0.527738094329834
sS'exec_cq'
p196
I14
sS'total_cq'
p197
I14
sa(dp198
g193
I46
sg194
F0.05804014205932617
sg195
F0.16377496719360352
sg196
I10
sg197
I10
sa(dp199
g193
I1
sg194
F0.0043718814849853516
sg195
F0.01913285255432129
sg196
I2
sg197
I2
sasS'total_cqs'
p200
I14
ssI22
(dp201
S'iters'
p202
I1
sS'meta'
p203
(lp204
(dp205
S'objective'
p206
I1
sS'query_time'
p207
F0.007570028305053711
sS'comp_time'
p208
F0.00015401840209960938
sS'exec_cq'
p209
I2
sS'total_cq'
p210
I2
sasS'total_cqs'
p211
I2
ssI23
(dp212
S'iters'
p213
I0
sS'meta'
p214
(lp215
sS'total_cqs'
p216
I1
ssI24
(dp217
S'iters'
p218
I0
sS'meta'
p219
(lp220
sS'total_cqs'
p221
I1
ssI25
(dp222
S'iters'
p223
I3
sS'meta'
p224
(lp225
(dp226
S'objective'
p227
I6
sS'query_time'
p228
F87.98308682441711
sS'comp_time'
p229
F10.886835813522339
sS'exec_cq'
p230
I7
sS'total_cq'
p231
I7
sa(dp232
g227
I1
sg228
F2.2936670780181885
sg229
F6.245987892150879
sg230
I5
sg231
I5
sa(dp233
g227
I2
sg228
F3.116528034210205
sg229
F7.241384029388428
sg230
I3
sg231
I3
sasS'total_cqs'
p234
I7
ssI26
(dp235
S'iters'
p236
I6
sS'meta'
p237
(lp238
(dp239
S'objective'
p240
I61
sS'query_time'
p241
F24.622560024261475
sS'comp_time'
p242
F3.444916009902954
sS'exec_cq'
p243
I13
sS'total_cq'
p244
I13
sa(dp245
g240
I50
sg241
F0.7673120498657227
sg242
F3.1732590198516846
sg243
I11
sg244
I11
sa(dp246
g240
I37
sg241
F0.7635359764099121
sg242
F2.912907123565674
sg243
I10
sg244
I10
sa(dp247
g240
I26
sg241
F0.8528070449829102
sg242
F3.2425880432128906
sg243
I8
sg244
I8
sa(dp248
g240
I14
sg241
F0.6737158298492432
sg242
F3.090363025665283
sg243
I7
sg244
I7
sa(dp249
g240
I10
sg241
F0.806934118270874
sg242
F2.909118890762329
sg243
I5
sg244
I5
sasS'total_cqs'
p250
I13
ssI27
(dp251
S'iters'
p252
I1
sS'meta'
p253
(lp254
(dp255
S'objective'
p256
I1
sS'query_time'
p257
F0.14585304260253906
sS'comp_time'
p258
F0.003786802291870117
sS'exec_cq'
p259
I2
sS'total_cq'
p260
I2
sasS'total_cqs'
p261
I2
ssI28
(dp262
S'iters'
p263
I5
sS'meta'
p264
(lp265
(dp266
S'objective'
p267
I25
sS'query_time'
p268
F1.7368309497833252
sS'comp_time'
p269
F0.02000713348388672
sS'exec_cq'
p270
I14
sS'total_cq'
p271
I14
sa(dp272
g267
I35
sg268
F0.003490924835205078
sg269
F0.01542210578918457
sg270
I10
sg271
I10
sa(dp273
g267
I24
sg268
F0.0024199485778808594
sg269
F0.03275585174560547
sg270
I7
sg271
I7
sa(dp274
g267
I11
sg268
F0.002593994140625
sg269
F0.012035131454467773
sg270
I5
sg271
I5
sa(dp275
g267
I8
sg268
F0.0020990371704101562
sg269
F0.011897087097167969
sg270
I4
sg271
I4
sasS'total_cqs'
p276
I14
ssI29
(dp277
S'iters'
p278
I1
sS'meta'
p279
(lp280
(dp281
S'objective'
p282
I1
sS'query_time'
p283
F0.01840806007385254
sS'comp_time'
p284
F0.00013899803161621094
sS'exec_cq'
p285
I2
sS'total_cq'
p286
I2
sasS'total_cqs'
p287
I2
ssI30
(dp288
S'iters'
p289
I1
sS'meta'
p290
(lp291
(dp292
S'objective'
p293
I1
sS'query_time'
p294
F0.3613760471343994
sS'comp_time'
p295
F0.004914045333862305
sS'exec_cq'
p296
I2
sS'total_cq'
p297
I2
sasS'total_cqs'
p298
I2
ssI31
(dp299
S'iters'
p300
I3
sS'meta'
p301
(lp302
(dp303
S'objective'
p304
I5
sS'query_time'
p305
F6.1146080493927
sS'comp_time'
p306
F0.1492619514465332
sS'exec_cq'
p307
I9
sS'total_cq'
p308
I9
sa(dp309
g304
I2
sg305
F0.009215116500854492
sg306
F0.0364837646484375
sg307
I3
sg308
I3
sa(dp310
g304
I1
sg305
F0.008384943008422852
sg306
F0.07199811935424805
sg307
I2
sg308
I2
sasS'total_cqs'
p311
I9
ssI32
(dp312
S'iters'
p313
I3
sS'meta'
p314
(lp315
(dp316
S'objective'
p317
I2
sS'query_time'
p318
F20.024019956588745
sS'comp_time'
p319
F2.7806787490844727
sS'exec_cq'
p320
I7
sS'total_cq'
p321
I7
sa(dp322
g317
I1
sg318
F0.6917531490325928
sg319
F2.951328992843628
sg320
I5
sg321
I5
sa(dp323
g317
I3
sg318
F0.028953075408935547
sg319
F0.13101792335510254
sg320
I2
sg321
I2
sasS'total_cqs'
p324
I7
ssI33
(dp325
S'iters'
p326
I1
sS'meta'
p327
(lp328
(dp329
S'objective'
p330
I1
sS'query_time'
p331
F0.04142594337463379
sS'comp_time'
p332
F0.000141143798828125
sS'exec_cq'
p333
I2
sS'total_cq'
p334
I2
sasS'total_cqs'
p335
I2
ssI34
(dp336
S'iters'
p337
I0
sS'meta'
p338
(lp339
sS'total_cqs'
p340
I1
ssI35
(dp341
S'iters'
p342
I2
sS'meta'
p343
(lp344
(dp345
S'objective'
p346
I1
sS'query_time'
p347
F16.68229603767395
sS'comp_time'
p348
F0.2241230010986328
sS'exec_cq'
p349
I5
sS'total_cq'
p350
I5
sa(dp351
g346
I0
sg347
F0.04056096076965332
sg348
F0.15131402015686035
sg349
I3
sg350
I3
sasS'total_cqs'
p352
I5
ssI37
(dp353
S'iters'
p354
I3
sS'meta'
p355
(lp356
(dp357
S'objective'
p358
I17
sS'query_time'
p359
F2.483333110809326
sS'comp_time'
p360
F0.12454390525817871
sS'exec_cq'
p361
I10
sS'total_cq'
p362
I10
sa(dp363
g358
I1
sg359
F0.030072927474975586
sg360
F0.04301285743713379
sg361
I3
sg362
I3
sa(dp364
g358
I3
sg359
F0.0033659934997558594
sg360
F0.013422966003417969
sg361
I2
sg362
I2
sasS'total_cqs'
p365
I10
ssI38
(dp366
S'iters'
p367
I0
sS'meta'
p368
(lp369
sS'total_cqs'
p370
I1
ssI39
(dp371
S'iters'
p372
I0
sS'meta'
p373
(lp374
sS'total_cqs'
p375
I1
ssI40
(dp376
S'iters'
p377
I1
sS'meta'
p378
(lp379
(dp380
S'objective'
p381
I1
sS'query_time'
p382
F17.625776052474976
sS'comp_time'
p383
F2.4577720165252686
sS'exec_cq'
p384
I2
sS'total_cq'
p385
I2
sasS'total_cqs'
p386
I2
ssI41
(dp387
S'iters'
p388
I2
sS'meta'
p389
(lp390
(dp391
S'objective'
p392
I1
sS'query_time'
p393
F12.681636095046997
sS'comp_time'
p394
F1.1966419219970703
sS'exec_cq'
p395
I6
sS'total_cq'
p396
I6
sa(dp397
g392
I2
sg393
F0.26044416427612305
sg394
F1.2829179763793945
sg395
I4
sg396
I4
sasS'total_cqs'
p398
I6
ssI42
(dp399
S'iters'
p400
I1
sS'meta'
p401
(lp402
(dp403
S'objective'
p404
I1
sS'query_time'
p405
F17.691527128219604
sS'comp_time'
p406
F2.5290510654449463
sS'exec_cq'
p407
I2
sS'total_cq'
p408
I2
sasS'total_cqs'
p409
I2
ssI43
(dp410
S'iters'
p411
I0
sS'meta'
p412
(lp413
sS'total_cqs'
p414
I1
ssI44
(dp415
S'iters'
p416
I3
sS'meta'
p417
(lp418
(dp419
S'objective'
p420
I5
sS'query_time'
p421
F1.5168249607086182
sS'comp_time'
p422
F0.08425688743591309
sS'exec_cq'
p423
I5
sS'total_cq'
p424
I5
sa(dp425
g420
I2
sg421
F0.002496004104614258
sg422
F0.003391742706298828
sg423
I4
sg424
I4
sa(dp426
g420
I2
sg421
F5.0067901611328125e-05
sg422
F0.00026702880859375
sg423
I2
sg424
I2
sasS'total_cqs'
p427
I5
ssI45
(dp428
S'iters'
p429
I2
sS'meta'
p430
(lp431
(dp432
S'objective'
p433
I3
sS'query_time'
p434
F0.04100394248962402
sS'comp_time'
p435
F0.0005497932434082031
sS'exec_cq'
p436
I5
sS'total_cq'
p437
I5
sa(dp438
g433
I2
sg434
F0.00012493133544921875
sg435
F0.0006527900695800781
sg436
I2
sg437
I2
sasS'total_cqs'
p439
I5
ssI46
(dp440
S'iters'
p441
I0
sS'meta'
p442
(lp443
sS'total_cqs'
p444
I1
ssI47
(dp445
S'iters'
p446
I0
sS'meta'
p447
(lp448
sS'total_cqs'
p449
I1
ssI48
(dp450
S'iters'
p451
I1
sS'meta'
p452
(lp453
(dp454
S'objective'
p455
I1
sS'query_time'
p456
F0.11544418334960938
sS'comp_time'
p457
F0.005925893783569336
sS'exec_cq'
p458
I2
sS'total_cq'
p459
I2
sasS'total_cqs'
p460
I2
ssI49
(dp461
S'iters'
p462
I2
sS'meta'
p463
(lp464
(dp465
S'objective'
p466
I1
sS'query_time'
p467
F0.23768305778503418
sS'comp_time'
p468
F0.002841949462890625
sS'exec_cq'
p469
I5
sS'total_cq'
p470
I5
sa(dp471
g466
I1
sg467
F0.00030612945556640625
sg468
F0.0013270378112792969
sg469
I3
sg470
I3
sasS'total_cqs'
p472
I5
ssI50
(dp473
S'iters'
p474
I2
sS'meta'
p475
(lp476
(dp477
S'objective'
p478
I5
sS'query_time'
p479
F0.9866669178009033
sS'comp_time'
p480
F0.0011072158813476562
sS'exec_cq'
p481
I5
sS'total_cq'
p482
I5
sa(dp483
g478
I2
sg479
F0.0001380443572998047
sg480
F0.0008578300476074219
sg481
I4
sg482
I4
sasS'total_cqs'
p484
I5
ssI51
(dp485
S'iters'
p486
I0
sS'meta'
p487
(lp488
sS'total_cqs'
p489
I1
ssI52
(dp490
S'iters'
p491
I0
sS'meta'
p492
(lp493
sS'total_cqs'
p494
I1
ssI53
(dp495
S'iters'
p496
I0
sS'meta'
p497
(lp498
sS'total_cqs'
p499
I1
ssI55
(dp500
S'iters'
p501
I1
sS'meta'
p502
(lp503
(dp504
S'objective'
p505
I1
sS'query_time'
p506
F26.57472586631775
sS'comp_time'
p507
F3.745872735977173
sS'exec_cq'
p508
I2
sS'total_cq'
p509
I2
sasS'total_cqs'
p510
I2
ssI56
(dp511
S'iters'
p512
I0
sS'meta'
p513
(lp514
sS'total_cqs'
p515
I1
ssI57
(dp516
S'iters'
p517
I1
sS'meta'
p518
(lp519
(dp520
S'objective'
p521
I0
sS'query_time'
p522
F14.050045013427734
sS'comp_time'
p523
F1.5597279071807861
sS'exec_cq'
p524
I3
sS'total_cq'
p525
I3
sasS'total_cqs'
p526
I3
ssI108
(dp527
S'iters'
p528
I0
sS'meta'
p529
(lp530
sS'total_cqs'
p531
I1
ssI109
(dp532
S'iters'
p533
I0
sS'meta'
p534
(lp535
sS'total_cqs'
p536
I1
ssI116
(dp537
S'iters'
p538
I3
sS'meta'
p539
(lp540
(dp541
S'objective'
p542
I187
sS'query_time'
p543
F5.468389987945557
sS'comp_time'
p544
F0.2869689464569092
sS'exec_cq'
p545
I21
sS'total_cq'
p546
I21
sa(dp547
g542
I173
sg543
F0.008419036865234375
sg544
F0.07356905937194824
sg545
I19
sg546
I19
sa(dp548
g542
I6
sg543
F0.001127004623413086
sg544
F0.0041599273681640625
sg545
I3
sg546
I3
sasS'total_cqs'
p549
I21
ssI117
(dp550
S'iters'
p551
I2
sS'meta'
p552
(lp553
(dp554
S'objective'
p555
I5
sS'query_time'
p556
F0.015219926834106445
sS'comp_time'
p557
F0.00012183189392089844
sS'exec_cq'
p558
I5
sS'total_cq'
p559
I5
sa(dp560
g555
I2
sg556
F2.7894973754882812e-05
sg557
F5.602836608886719e-05
sg558
I4
sg559
I4
sasS'total_cqs'
p561
I5
ssI118
(dp562
S'iters'
p563
I0
sS'meta'
p564
(lp565
sS'total_cqs'
p566
I1
ssI122
(dp567
S'iters'
p568
I0
sS'meta'
p569
(lp570
sS'total_cqs'
p571
I1
ss.