(dp0
I1
(dp1
S'iters'
p2
I3
sS'meta'
p3
(lp4
(dp5
S'objective'
p6
I1
sS'query_time'
p7
F34.701427936553955
sS'comp_time'
p8
F2.3276023864746094
sS'exec_cq'
p9
I2
sS'total_cq'
p10
I6
sa(dp11
g6
I1
sg7
F12.606235980987549
sg8
F0.6921501159667969
sg9
I3
sg10
I4
sa(dp12
g6
I4
sg7
F0.009816169738769531
sg8
F0.1508173942565918
sg9
I1
sg10
I2
sasS'total_cqs'
p13
I6
ssI2
(dp14
S'iters'
p15
I1
sS'meta'
p16
(lp17
(dp18
S'objective'
p19
I19
sS'query_time'
p20
F0.8530540466308594
sS'comp_time'
p21
F0.282315731048584
sS'exec_cq'
p22
I5
sS'total_cq'
p23
I6
sasS'total_cqs'
p24
I6
ssI3
(dp25
S'iters'
p26
I13
sS'meta'
p27
(lp28
(dp29
S'objective'
p30
I401
sS'query_time'
p31
F25.226111888885498
sS'comp_time'
p32
F0.4014608860015869
sS'exec_cq'
p33
I15
sS'total_cq'
p34
I33
sa(dp35
g30
I371
sg31
F0.37709999084472656
sg32
F0.021436691284179688
sg33
I13
sg34
I30
sa(dp36
g30
I310
sg31
F0.013293027877807617
sg32
F0.15543103218078613
sg33
I12
sg34
I28
sa(dp37
g30
I280
sg31
F0.004204988479614258
sg32
F0.02315807342529297
sg33
I11
sg34
I25
sa(dp38
g30
I212
sg31
F0.010277986526489258
sg32
F0.13822031021118164
sg33
I9
sg34
I22
sa(dp39
g30
I212
sg31
F0.19730710983276367
sg32
F0.020750999450683594
sg33
I5
sg34
I19
sa(dp40
g30
I176
sg31
F0.003871917724609375
sg32
F0.021522045135498047
sg33
I8
sg34
I18
sa(dp41
g30
I156
sg31
F0.003103971481323242
sg32
F0.02160048484802246
sg33
I4
sg34
I15
sa(dp42
g30
I124
sg31
F0.0008788108825683594
sg32
F0.00558781623840332
sg33
I6
sg34
I14
sa(dp43
g30
I97
sg31
F0.0036780834197998047
sg32
F0.08953285217285156
sg33
I5
sg34
I13
sa(dp44
g30
I77
sg31
F0.0005929470062255859
sg32
F0.0034842491149902344
sg33
I3
sg34
I10
sa(dp45
g30
I67
sg31
F0.0008687973022460938
sg32
F0.005288124084472656
sg33
I5
sg34
I9
sa(dp46
g30
I82
sg31
F0.0028128623962402344
sg32
F0.016871213912963867
sg33
I2
sg34
I6
sasS'total_cqs'
p47
I33
ssI4
(dp48
S'iters'
p49
I0
sS'meta'
p50
(lp51
sS'total_cqs'
p52
I1
ssI5
(dp53
S'iters'
p54
I0
sS'meta'
p55
(lp56
sS'total_cqs'
p57
I1
ssI6
(dp58
S'iters'
p59
I3
sS'meta'
p60
(lp61
(dp62
S'objective'
p63
I1
sS'query_time'
p64
F13.862735986709595
sS'comp_time'
p65
F0.007677793502807617
sS'exec_cq'
p66
I4
sS'total_cq'
p67
I5
sa(dp68
g63
I2
sg64
F0.0003509521484375
sg65
F0.0017902851104736328
sg66
I2
sg67
I3
sa(dp69
g63
I1
sg64
F6.103515625e-05
sg65
F0.00046181678771972656
sg66
I1
sg67
I2
sasS'total_cqs'
p70
I5
ssI7
(dp71
S'iters'
p72
I0
sS'meta'
p73
(lp74
sS'total_cqs'
p75
I1
ssI8
(dp76
S'iters'
p77
I4
sS'meta'
p78
(lp79
(dp80
S'objective'
p81
I11
sS'query_time'
p82
F23.547914028167725
sS'comp_time'
p83
F0.494387149810791
sS'exec_cq'
p84
I5
sS'total_cq'
p85
I6
sa(dp86
g81
I4
sg82
F0.20830893516540527
sg83
F0.19633197784423828
sg84
I4
sg85
I5
sa(dp87
g81
I4
sg82
F1.9841499328613281
sg83
F1.7512378692626953
sg84
I2
sg85
I3
sa(dp88
g81
I5
sg82
F0.0016531944274902344
sg83
F0.0016269683837890625
sg84
I1
sg85
I2
sasS'total_cqs'
p89
I6
ssI9
(dp90
S'iters'
p91
I3
sS'meta'
p92
(lp93
(dp94
S'objective'
p95
I1
sS'query_time'
p96
F12.41754698753357
sS'comp_time'
p97
F0.629241943359375
sS'exec_cq'
p98
I3
sS'total_cq'
p99
I6
sa(dp100
g95
I1
sg96
F0.06888580322265625
sg97
F0.4136669635772705
sg98
I3
sg99
I3
sa(dp101
g95
I3
sg96
F0.04558515548706055
sg97
F0.4562809467315674
sg98
I2
sg99
I2
sasS'total_cqs'
p102
I6
ssI10
(dp103
S'iters'
p104
I0
sS'meta'
p105
(lp106
sS'total_cqs'
p107
I1
ssI11
(dp108
S'iters'
p109
I0
sS'meta'
p110
(lp111
sS'total_cqs'
p112
I1
ssI12
(dp113
S'iters'
p114
I0
sS'meta'
p115
(lp116
sS'total_cqs'
p117
I1
ssI13
(dp118
S'iters'
p119
I2
sS'meta'
p120
(lp121
(dp122
S'objective'
p123
I22
sS'query_time'
p124
F0.01687002182006836
sS'comp_time'
p125
F0.007959127426147461
sS'exec_cq'
p126
I6
sS'total_cq'
p127
I8
sa(dp128
g123
I27
sg124
F2.5033950805664062e-05
sg125
F9.679794311523438e-05
sg126
I5
sg127
I7
sasS'total_cqs'
p129
I8
ssI14
(dp130
S'iters'
p131
I3
sS'meta'
p132
(lp133
(dp134
S'objective'
p135
I5
sS'query_time'
p136
F0.8361978530883789
sS'comp_time'
p137
F0.007968902587890625
sS'exec_cq'
p138
I5
sS'total_cq'
p139
I5
sa(dp140
g135
I4
sg136
F0.0005519390106201172
sg137
F0.004077911376953125
sg138
I4
sg139
I4
sa(dp141
g135
I5
sg136
F0.0005850791931152344
sg137
F0.003975868225097656
sg138
I3
sg139
I3
sasS'total_cqs'
p142
I5
ssI16
(dp143
S'iters'
p144
I3
sS'meta'
p145
(lp146
(dp147
S'objective'
p148
I1
sS'query_time'
p149
F1.1062290668487549
sS'comp_time'
p150
F0.011962652206420898
sS'exec_cq'
p151
I4
sS'total_cq'
p152
I5
sa(dp153
g148
I0
sg149
F0.0373380184173584
sg150
F0.0005939006805419922
sg151
I1
sg152
I3
sa(dp154
g148
I2
sg149
F5.91278076171875e-05
sg150
F0.0002620220184326172
sg151
I2
sg152
I2
sasS'total_cqs'
p155
I5
ssI17
(dp156
S'iters'
p157
I0
sS'meta'
p158
(lp159
sS'total_cqs'
p160
I1
ssI18
(dp161
S'iters'
p162
I3
sS'meta'
p163
(lp164
(dp165
S'objective'
p166
I1
sS'query_time'
p167
F0.15958094596862793
sS'comp_time'
p168
F0.0042607784271240234
sS'exec_cq'
p169
I4
sS'total_cq'
p170
I5
sa(dp171
g166
I1
sg167
F0.03213906288146973
sg168
F0.00028395652770996094
sg169
I1
sg170
I3
sa(dp172
g166
I1
sg167
F4.38690185546875e-05
sg168
F0.00019788742065429688
sg169
I2
sg170
I2
sasS'total_cqs'
p173
I5
ssI19
(dp174
S'iters'
p175
I0
sS'meta'
p176
(lp177
sS'total_cqs'
p178
I1
ssI20
(dp179
S'iters'
p180
I6
sS'meta'
p181
(lp182
(dp183
S'objective'
p184
I40
sS'query_time'
p185
F9.360665082931519
sS'comp_time'
p186
F1.4217615127563477
sS'exec_cq'
p187
I6
sS'total_cq'
p188
I12
sa(dp189
g184
I21
sg185
F4.043597936630249
sg186
F0.4645407199859619
sg187
I4
sg188
I10
sa(dp190
g184
I20
sg185
F0.16530799865722656
sg186
F1.0023760795593262
sg187
I4
sg188
I8
sa(dp191
g184
I10
sg185
F3.1948089599609375e-05
sg186
F0.00017714500427246094
sg187
I2
sg188
I6
sa(dp192
g184
I2
sg185
F0.20713305473327637
sg186
F0.823173999786377
sg187
I2
sg188
I5
sa(dp193
g184
I9
sg185
F0.11556553840637207
sg186
F0.003960847854614258
sg187
I4
sg188
I4
sasS'total_cqs'
p194
I12
ssI21
(dp195
S'iters'
p196
I5
sS'meta'
p197
(lp198
(dp199
S'objective'
p200
I57
sS'query_time'
p201
F28.73367190361023
sS'comp_time'
p202
F0.31680846214294434
sS'exec_cq'
p203
I8
sS'total_cq'
p204
I14
sa(dp205
g200
I29
sg201
F0.009536981582641602
sg202
F0.06656384468078613
sg203
I6
sg204
I12
sa(dp206
g200
I9
sg201
F30.117328882217407
sg202
F2.9506399631500244
sg203
I4
sg204
I10
sa(dp207
g200
I10
sg201
F0.012026071548461914
sg202
F0.059755802154541016
sg203
I4
sg204
I6
sa(dp208
g200
I9
sg201
F0.012213945388793945
sg202
F0.00019216537475585938
sg203
I1
sg204
I2
sasS'total_cqs'
p209
I14
ssI22
(dp210
S'iters'
p211
I1
sS'meta'
p212
(lp213
(dp214
S'objective'
p215
I1
sS'query_time'
p216
F0.02524399757385254
sS'comp_time'
p217
F0.0018038749694824219
sS'exec_cq'
p218
I1
sS'total_cq'
p219
I2
sasS'total_cqs'
p220
I2
ssI23
(dp221
S'iters'
p222
I0
sS'meta'
p223
(lp224
sS'total_cqs'
p225
I1
ssI24
(dp226
S'iters'
p227
I0
sS'meta'
p228
(lp229
sS'total_cqs'
p230
I1
ssI25
(dp231
S'iters'
p232
I4
sS'meta'
p233
(lp234
(dp235
S'objective'
p236
I16
sS'query_time'
p237
F48.2535400390625
sS'comp_time'
p238
F4.95381498336792
sS'exec_cq'
p239
I4
sS'total_cq'
p240
I7
sa(dp241
g236
I8
sg237
F0.013249874114990234
sg238
F0.061811208724975586
sg239
I2
sg240
I5
sa(dp242
g236
I1
sg237
F4.549508810043335
sg238
F0.37374114990234375
sg239
I2
sg240
I4
sa(dp243
g236
I5
sg237
F0.012511014938354492
sg238
F0.048677682876586914
sg239
I1
sg240
I2
sasS'total_cqs'
p244
I7
ssI26
(dp245
S'iters'
p246
I9
sS'meta'
p247
(lp248
(dp249
S'objective'
p250
I49
sS'query_time'
p251
F0.24618220329284668
sS'comp_time'
p252
F0.0271451473236084
sS'exec_cq'
p253
I4
sS'total_cq'
p254
I13
sa(dp255
g250
I48
sg251
F22.676959991455078
sg252
F0.009204626083374023
sg253
I3
sg254
I11
sa(dp256
g250
I21
sg251
F3.8308358192443848
sg252
F0.10725784301757812
sg253
I2
sg254
I10
sa(dp257
g250
I20
sg251
F0.0008859634399414062
sg252
F0.005227804183959961
sg253
I2
sg254
I8
sa(dp258
g250
I14
sg251
F0.00024199485778808594
sg252
F0.0037941932678222656
sg253
I2
sg254
I7
sa(dp259
g250
I8
sg251
F0.025655031204223633
sg252
F0.0015439987182617188
sg253
I1
sg254
I6
sa(dp260
g250
I3
sg251
F0.01045989990234375
sg252
F0.00011587142944335938
sg253
I2
sg254
I5
sa(dp261
g250
I1
sg251
F0.0013689994812011719
sg252
F0.0011646747589111328
sg253
I1
sg254
I3
sa(dp262
g250
I2
sg251
F0.0003199577331542969
sg252
F0.0022630691528320312
sg253
I1
sg254
I2
sasS'total_cqs'
p263
I13
ssI27
(dp264
S'iters'
p265
I1
sS'meta'
p266
(lp267
(dp268
S'objective'
p269
I1
sS'query_time'
p270
F0.20814085006713867
sS'comp_time'
p271
F0.008980989456176758
sS'exec_cq'
p272
I1
sS'total_cq'
p273
I2
sasS'total_cqs'
p274
I2
ssI28
(dp275
S'iters'
p276
I10
sS'meta'
p277
(lp278
(dp279
S'objective'
p280
I41
sS'query_time'
p281
F1.5864589214324951
sS'comp_time'
p282
F0.1007237434387207
sS'exec_cq'
p283
I6
sS'total_cq'
p284
I14
sa(dp285
g280
I31
sg281
F0.003214120864868164
sg282
F0.02641773223876953
sg283
I3
sg284
I11
sa(dp286
g280
I24
sg281
F0.0032520294189453125
sg282
F0.0001361370086669922
sg283
I1
sg284
I9
sa(dp287
g280
I18
sg281
F0.018020153045654297
sg282
F0.0011332035064697266
sg283
I1
sg284
I8
sa(dp288
g280
I18
sg281
F0.005099058151245117
sg282
F0.00012183189392089844
sg283
I2
sg284
I7
sa(dp289
g280
I9
sg281
F0.0001499652862548828
sg282
F0.0009291172027587891
sg283
I1
sg284
I6
sa(dp290
g280
I4
sg281
F0.009210824966430664
sg282
F0.0005977153778076172
sg283
I1
sg284
I5
sa(dp291
g280
I2
sg281
F1.2159347534179688e-05
sg282
F7.891654968261719e-05
sg283
I1
sg284
I4
sa(dp292
g280
I0
sg281
F0.022262096405029297
sg282
F0.0013229846954345703
sg283
I1
sg284
I3
sa(dp293
g280
I1
sg281
F0.0028297901153564453
sg282
F0.00010609626770019531
sg283
I1
sg284
I2
sasS'total_cqs'
p294
I14
ssI29
(dp295
S'iters'
p296
I1
sS'meta'
p297
(lp298
(dp299
S'objective'
p300
I1
sS'query_time'
p301
F0.010167121887207031
sS'comp_time'
p302
F0.0024929046630859375
sS'exec_cq'
p303
I2
sS'total_cq'
p304
I2
sasS'total_cqs'
p305
I2
ssI30
(dp306
S'iters'
p307
I1
sS'meta'
p308
(lp309
(dp310
S'objective'
p311
I1
sS'query_time'
p312
F0.30419301986694336
sS'comp_time'
p313
F0.00574803352355957
sS'exec_cq'
p314
I2
sS'total_cq'
p315
I2
sasS'total_cqs'
p316
I2
ssI31
(dp317
S'iters'
p318
I4
sS'meta'
p319
(lp320
(dp321
S'objective'
p322
I13
sS'query_time'
p323
F4.279884099960327
sS'comp_time'
p324
F0.30551719665527344
sS'exec_cq'
p325
I4
sS'total_cq'
p326
I9
sa(dp327
g322
I11
sg323
F1.4407260417938232
sg324
F0.1389939785003662
sg325
I5
sg326
I7
sa(dp328
g322
I3
sg323
F0.008991003036499023
sg324
F0.046875953674316406
sg325
I3
sg326
I3
sa(dp329
g322
I1
sg323
F0.00865483283996582
sg324
F0.04732203483581543
sg325
I2
sg326
I2
sasS'total_cqs'
p330
I9
ssI32
(dp331
S'iters'
p332
I3
sS'meta'
p333
(lp334
(dp335
S'objective'
p336
I2
sS'query_time'
p337
F22.269082069396973
sS'comp_time'
p338
F4.863835573196411
sS'exec_cq'
p339
I4
sS'total_cq'
p340
I7
sa(dp341
g336
I1
sg337
F1.0623290538787842
sg338
F0.02373981475830078
sg339
I2
sg340
I4
sa(dp342
g336
I6
sg337
F0.3581368923187256
sg338
F0.38028883934020996
sg339
I1
sg340
I2
sasS'total_cqs'
p343
I7
ssI33
(dp344
S'iters'
p345
I1
sS'meta'
p346
(lp347
(dp348
S'objective'
p349
I1
sS'query_time'
p350
F0.0221560001373291
sS'comp_time'
p351
F0.001377105712890625
sS'exec_cq'
p352
I2
sS'total_cq'
p353
I2
sasS'total_cqs'
p354
I2
ssI34
(dp355
S'iters'
p356
I0
sS'meta'
p357
(lp358
sS'total_cqs'
p359
I1
ssI35
(dp360
S'iters'
p361
I3
sS'meta'
p362
(lp363
(dp364
S'objective'
p365
I1
sS'query_time'
p366
F13.783085823059082
sS'comp_time'
p367
F0.2806239128112793
sS'exec_cq'
p368
I4
sS'total_cq'
p369
I5
sa(dp370
g365
I2
sg366
F0.07897496223449707
sg367
F0.06740570068359375
sg368
I2
sg369
I3
sa(dp371
g365
I1
sg366
F0.0005860328674316406
sg367
F0.003488302230834961
sg368
I1
sg369
I2
sasS'total_cqs'
p372
I5
ssI37
(dp373
S'iters'
p374
I3
sS'meta'
p375
(lp376
(dp377
S'objective'
p378
I37
sS'query_time'
p379
F1.2832050323486328
sS'comp_time'
p380
F0.28889918327331543
sS'exec_cq'
p381
I4
sS'total_cq'
p382
I10
sa(dp383
g378
I30
sg379
F0.5943129062652588
sg380
F0.02223992347717285
sg381
I4
sg382
I9
sa(dp384
g378
I6
sg379
F0.0050928592681884766
sg380
F0.02139592170715332
sg381
I2
sg382
I2
sasS'total_cqs'
p385
I10
ssI38
(dp386
S'iters'
p387
I0
sS'meta'
p388
(lp389
sS'total_cqs'
p390
I1
ssI39
(dp391
S'iters'
p392
I0
sS'meta'
p393
(lp394
sS'total_cqs'
p395
I1
ssI40
(dp396
S'iters'
p397
I1
sS'meta'
p398
(lp399
(dp400
S'objective'
p401
I1
sS'query_time'
p402
F0.0028231143951416016
sS'comp_time'
p403
F0.001163482666015625
sS'exec_cq'
p404
I1
sS'total_cq'
p405
I2
sasS'total_cqs'
p406
I2
ssI41
(dp407
S'iters'
p408
I4
sS'meta'
p409
(lp410
(dp411
S'objective'
p412
I3
sS'query_time'
p413
F9.99963092803955
sS'comp_time'
p414
F1.905066728591919
sS'exec_cq'
p415
I3
sS'total_cq'
p416
I6
sa(dp417
g412
I2
sg413
F0.15648508071899414
sg414
F0.005009174346923828
sg415
I1
sg416
I4
sa(dp418
g412
I1
sg413
F0.7528560161590576
sg414
F0.004067897796630859
sg415
I2
sg416
I3
sa(dp419
g412
I1
sg413
F0.0006680488586425781
sg414
F0.0037038326263427734
sg415
I2
sg416
I2
sasS'total_cqs'
p420
I6
ssI42
(dp421
S'iters'
p422
I1
sS'meta'
p423
(lp424
(dp425
S'objective'
p426
I1
sS'query_time'
p427
F0.0065381526947021484
sS'comp_time'
p428
F0.001188039779663086
sS'exec_cq'
p429
I1
sS'total_cq'
p430
I2
sasS'total_cqs'
p431
I2
ssI43
(dp432
S'iters'
p433
I0
sS'meta'
p434
(lp435
sS'total_cqs'
p436
I1
ssI44
(dp437
S'iters'
p438
I3
sS'meta'
p439
(lp440
(dp441
S'objective'
p442
I7
sS'query_time'
p443
F1.4015328884124756
sS'comp_time'
p444
F0.2635838985443115
sS'exec_cq'
p445
I2
sS'total_cq'
p446
I5
sa(dp447
g442
I3
sg443
F0.2533590793609619
sg444
F0.002007007598876953
sg445
I2
sg446
I4
sa(dp448
g442
I2
sg443
F0.02174091339111328
sg444
F0.2286839485168457
sg445
I1
sg446
I2
sasS'total_cqs'
p449
I5
ssI45
(dp450
S'iters'
p451
I2
sS'meta'
p452
(lp453
(dp454
S'objective'
p455
I9
sS'query_time'
p456
F0.03456306457519531
sS'comp_time'
p457
F0.002482891082763672
sS'exec_cq'
p458
I3
sS'total_cq'
p459
I5
sa(dp460
g455
I1
sg456
F0.00017595291137695312
sg457
F0.008857965469360352
sg458
I2
sg459
I2
sasS'total_cqs'
p461
I5
ssI46
(dp462
S'iters'
p463
I0
sS'meta'
p464
(lp465
sS'total_cqs'
p466
I1
ssI47
(dp467
S'iters'
p468
I0
sS'meta'
p469
(lp470
sS'total_cqs'
p471
I1
ssI48
(dp472
S'iters'
p473
I1
sS'meta'
p474
(lp475
(dp476
S'objective'
p477
I1
sS'query_time'
p478
F0.20882010459899902
sS'comp_time'
p479
F0.004937171936035156
sS'exec_cq'
p480
I2
sS'total_cq'
p481
I2
sasS'total_cqs'
p482
I2
ssI49
(dp483
S'iters'
p484
I2
sS'meta'
p485
(lp486
(dp487
S'objective'
p488
I1
sS'query_time'
p489
F0.2769508361816406
sS'comp_time'
p490
F0.018617868423461914
sS'exec_cq'
p491
I4
sS'total_cq'
p492
I5
sa(dp493
g488
I5
sg489
F4.601478576660156e-05
sg490
F0.0002951622009277344
sg491
I2
sg492
I3
sasS'total_cqs'
p494
I5
ssI50
(dp495
S'iters'
p496
I4
sS'meta'
p497
(lp498
(dp499
S'objective'
p500
I5
sS'query_time'
p501
F0.48759889602661133
sS'comp_time'
p502
F0.005990266799926758
sS'exec_cq'
p503
I5
sS'total_cq'
p504
I5
sa(dp505
g500
I2
sg501
F0.00017786026000976562
sg502
F0.001253366470336914
sg503
I4
sg504
I4
sa(dp506
g500
I0
sg501
F0.00016689300537109375
sg502
F0.0013380050659179688
sg503
I3
sg504
I3
sa(dp507
g500
I1
sg501
F0.00015687942504882812
sg502
F0.0010647773742675781
sg503
I2
sg504
I2
sasS'total_cqs'
p508
I5
ssI51
(dp509
S'iters'
p510
I0
sS'meta'
p511
(lp512
sS'total_cqs'
p513
I1
ssI52
(dp514
S'iters'
p515
I0
sS'meta'
p516
(lp517
sS'total_cqs'
p518
I1
ssI53
(dp519
S'iters'
p520
I0
sS'meta'
p521
(lp522
sS'total_cqs'
p523
I1
ssI55
(dp524
S'iters'
p525
I1
sS'meta'
p526
(lp527
(dp528
S'objective'
p529
I1
sS'query_time'
p530
F24.31431007385254
sS'comp_time'
p531
F3.4484729766845703
sS'exec_cq'
p532
I2
sS'total_cq'
p533
I2
sasS'total_cqs'
p534
I2
ssI56
(dp535
S'iters'
p536
I0
sS'meta'
p537
(lp538
sS'total_cqs'
p539
I1
ssI57
(dp540
S'iters'
p541
I2
sS'meta'
p542
(lp543
(dp544
S'objective'
p545
I0
sS'query_time'
p546
F12.23856520652771
sS'comp_time'
p547
F2.3642067909240723
sS'exec_cq'
p548
I2
sS'total_cq'
p549
I3
sa(dp550
g545
I1
sg546
F0.434345006942749
sg547
F1.9099438190460205
sg548
I1
sg549
I2
sasS'total_cqs'
p551
I3
ssI108
(dp552
S'iters'
p553
I0
sS'meta'
p554
(lp555
sS'total_cqs'
p556
I1
ssI109
(dp557
S'iters'
p558
I0
sS'meta'
p559
(lp560
sS'total_cqs'
p561
I1
ssI116
(dp562
S'iters'
p563
I5
sS'meta'
p564
(lp565
(dp566
S'objective'
p567
I169
sS'query_time'
p568
F3.736726999282837
sS'comp_time'
p569
F0.5751082897186279
sS'exec_cq'
p570
I15
sS'total_cq'
p571
I21
sa(dp572
g567
I160
sg568
F0.08334803581237793
sg569
F0.0024614334106445312
sg570
I13
sg571
I19
sa(dp573
g567
I148
sg568
F0.007277250289916992
sg569
F0.14318609237670898
sg570
I13
sg571
I18
sa(dp574
g567
I142
sg568
F0.566335916519165
sg569
F0.003912925720214844
sg570
I15
sg571
I17
sa(dp575
g567
I9
sg568
F0.0007390975952148438
sg569
F0.0035691261291503906
sg570
I2
sg571
I2
sasS'total_cqs'
p576
I21
ssI117
(dp577
S'iters'
p578
I2
sS'meta'
p579
(lp580
(dp581
S'objective'
p582
I9
sS'query_time'
p583
F0.01314997673034668
sS'comp_time'
p584
F0.0018792152404785156
sS'exec_cq'
p585
I3
sS'total_cq'
p586
I5
sa(dp587
g582
I10
sg583
F0.005589008331298828
sg584
F0.00012230873107910156
sg585
I4
sg586
I4
sasS'total_cqs'
p588
I5
ssI118
(dp589
S'iters'
p590
I0
sS'meta'
p591
(lp592
sS'total_cqs'
p593
I1
ssI122
(dp594
S'iters'
p595
I0
sS'meta'
p596
(lp597
sS'total_cqs'
p598
I1
ss.