(dp0
I1
(dp1
S'iters'
p2
I2
sS'meta'
p3
(lp4
(dp5
S'objective'
p6
I5
sS'query_time'
p7
F5.6146399974823
sS'comp_time'
p8
F8.678436279296875e-05
sS'exec_cq'
p9
I1
sS'total_cq'
p10
I6
sa(dp11
g6
I4
sg7
F214.68726801872253
sg8
F5.91278076171875e-05
sg9
I1
sg10
I2
sasS'total_cqs'
p12
I6
ssI2
(dp13
S'iters'
p14
I1
sS'meta'
p15
(lp16
(dp17
S'objective'
p18
I9
sS'query_time'
p19
F0.6683969497680664
sS'comp_time'
p20
F7.486343383789062e-05
sS'exec_cq'
p21
I1
sS'total_cq'
p22
I6
sasS'total_cqs'
p23
I6
ssI3
(dp24
S'iters'
p25
I1
sS'meta'
p26
(lp27
(dp28
S'objective'
p29
I495
sS'query_time'
p30
F0.2779700756072998
sS'comp_time'
p31
F8.296966552734375e-05
sS'exec_cq'
p32
I1
sS'total_cq'
p33
I33
sasS'total_cqs'
p34
I33
ssI4
(dp35
S'iters'
p36
I0
sS'meta'
p37
(lp38
sS'total_cqs'
p39
I1
ssI5
(dp40
S'iters'
p41
I0
sS'meta'
p42
(lp43
sS'total_cqs'
p44
I1
ssI6
(dp45
S'iters'
p46
I3
sS'meta'
p47
(lp48
(dp49
S'objective'
p50
I5
sS'query_time'
p51
F2.4812891483306885
sS'comp_time'
p52
F6.4849853515625e-05
sS'exec_cq'
p53
I1
sS'total_cq'
p54
I5
sa(dp55
g50
I2
sg51
F31.063770055770874
sg52
F2.6941299438476562e-05
sg53
I1
sg54
I3
sa(dp56
g50
I4
sg51
F30.533368825912476
sg52
F6.008148193359375e-05
sg53
I1
sg54
I2
sasS'total_cqs'
p57
I5
ssI7
(dp58
S'iters'
p59
I0
sS'meta'
p60
(lp61
sS'total_cqs'
p62
I1
ssI8
(dp63
S'iters'
p64
I1
sS'meta'
p65
(lp66
(dp67
S'objective'
p68
I9
sS'query_time'
p69
F32.04900813102722
sS'comp_time'
p70
F0.00024700164794921875
sS'exec_cq'
p71
I1
sS'total_cq'
p72
I6
sasS'total_cqs'
p73
I6
ssI9
(dp74
S'iters'
p75
I2
sS'meta'
p76
(lp77
(dp78
S'objective'
p79
I1
sS'query_time'
p80
F4.86000394821167
sS'comp_time'
p81
F7.486343383789062e-05
sS'exec_cq'
p82
I1
sS'total_cq'
p83
I6
sa(dp84
g79
I1
sg80
F1.601552963256836
sg81
F3.0994415283203125e-05
sg82
I1
sg83
I2
sasS'total_cqs'
p85
I6
ssI10
(dp86
S'iters'
p87
I0
sS'meta'
p88
(lp89
sS'total_cqs'
p90
I1
ssI11
(dp91
S'iters'
p92
I0
sS'meta'
p93
(lp94
sS'total_cqs'
p95
I1
ssI12
(dp96
S'iters'
p97
I0
sS'meta'
p98
(lp99
sS'total_cqs'
p100
I1
ssI13
(dp101
S'iters'
p102
I1
sS'meta'
p103
(lp104
(dp105
S'objective'
p106
I20
sS'query_time'
p107
F0.23653507232666016
sS'comp_time'
p108
F6.985664367675781e-05
sS'exec_cq'
p109
I1
sS'total_cq'
p110
I8
sasS'total_cqs'
p111
I8
ssI14
(dp112
S'iters'
p113
I1
sS'meta'
p114
(lp115
(dp116
S'objective'
p117
I5
sS'query_time'
p118
F0.792855978012085
sS'comp_time'
p119
F7.200241088867188e-05
sS'exec_cq'
p120
I1
sS'total_cq'
p121
I5
sasS'total_cqs'
p122
I5
ssI16
(dp123
S'iters'
p124
I2
sS'meta'
p125
(lp126
(dp127
S'objective'
p128
I1
sS'query_time'
p129
F3.0196070671081543
sS'comp_time'
p130
F8.296966552734375e-05
sS'exec_cq'
p131
I1
sS'total_cq'
p132
I5
sa(dp133
g128
I2
sg129
F109.6136589050293
sg130
F7.009506225585938e-05
sg131
I2
sg132
I2
sasS'total_cqs'
p134
I5
ssI17
(dp135
S'iters'
p136
I0
sS'meta'
p137
(lp138
sS'total_cqs'
p139
I1
ssI18
(dp140
S'iters'
p141
I2
sS'meta'
p142
(lp143
(dp144
S'objective'
p145
I1
sS'query_time'
p146
F0.34697508811950684
sS'comp_time'
p147
F6.890296936035156e-05
sS'exec_cq'
p148
I1
sS'total_cq'
p149
I5
sa(dp150
g145
I3
sg146
F0.23517704010009766
sg147
F9.202957153320312e-05
sg148
I2
sg149
I2
sasS'total_cqs'
p151
I5
ssI19
(dp152
S'iters'
p153
I0
sS'meta'
p154
(lp155
sS'total_cqs'
p156
I1
ssI20
(dp157
S'iters'
p158
I1
sS'meta'
p159
(lp160
(dp161
S'objective'
p162
I54
sS'query_time'
p163
F0.14264202117919922
sS'comp_time'
p164
F9.393692016601562e-05
sS'exec_cq'
p165
I1
sS'total_cq'
p166
I12
sasS'total_cqs'
p167
I12
ssI21
(dp168
S'iters'
p169
I1
sS'meta'
p170
(lp171
(dp172
S'objective'
p173
I77
sS'query_time'
p174
F0.029307842254638672
sS'comp_time'
p175
F0.00010585784912109375
sS'exec_cq'
p176
I1
sS'total_cq'
p177
I14
sasS'total_cqs'
p178
I14
ssI22
(dp179
S'iters'
p180
I1
sS'meta'
p181
(lp182
(dp183
S'objective'
p184
I1
sS'query_time'
p185
F0.0036640167236328125
sS'comp_time'
p186
F3.504753112792969e-05
sS'exec_cq'
p187
I1
sS'total_cq'
p188
I2
sasS'total_cqs'
p189
I2
ssI23
(dp190
S'iters'
p191
I0
sS'meta'
p192
(lp193
sS'total_cqs'
p194
I1
ssI24
(dp195
S'iters'
p196
I0
sS'meta'
p197
(lp198
sS'total_cqs'
p199
I1
ssI25
(dp200
S'iters'
p201
I1
sS'meta'
p202
(lp203
(dp204
S'objective'
p205
I14
sS'query_time'
p206
F0.29643917083740234
sS'comp_time'
p207
F4.8160552978515625e-05
sS'exec_cq'
p208
I1
sS'total_cq'
p209
I7
sasS'total_cqs'
p210
I7
ssI26
(dp211
S'iters'
p212
I1
sS'meta'
p213
(lp214
(dp215
S'objective'
p216
I65
sS'query_time'
p217
F0.02446889877319336
sS'comp_time'
p218
F5.316734313964844e-05
sS'exec_cq'
p219
I1
sS'total_cq'
p220
I13
sasS'total_cqs'
p221
I13
ssI27
(dp222
S'iters'
p223
I1
sS'meta'
p224
(lp225
(dp226
S'objective'
p227
I1
sS'query_time'
p228
F0.13884782791137695
sS'comp_time'
p229
F5.602836608886719e-05
sS'exec_cq'
p230
I1
sS'total_cq'
p231
I2
sasS'total_cqs'
p232
I2
ssI28
(dp233
S'iters'
p234
I1
sS'meta'
p235
(lp236
(dp237
S'objective'
p238
I77
sS'query_time'
p239
F1.0192911624908447
sS'comp_time'
p240
F9.298324584960938e-05
sS'exec_cq'
p241
I1
sS'total_cq'
p242
I14
sasS'total_cqs'
p243
I14
ssI29
(dp244
S'iters'
p245
I1
sS'meta'
p246
(lp247
(dp248
S'objective'
p249
I1
sS'query_time'
p250
F0.009331941604614258
sS'comp_time'
p251
F6.29425048828125e-05
sS'exec_cq'
p252
I1
sS'total_cq'
p253
I2
sasS'total_cqs'
p254
I2
ssI30
(dp255
S'iters'
p256
I1
sS'meta'
p257
(lp258
(dp259
S'objective'
p260
I1
sS'query_time'
p261
F0.3091578483581543
sS'comp_time'
p262
F6.985664367675781e-05
sS'exec_cq'
p263
I1
sS'total_cq'
p264
I2
sasS'total_cqs'
p265
I2
ssI31
(dp266
S'iters'
p267
I2
sS'meta'
p268
(lp269
(dp270
S'objective'
p271
I13
sS'query_time'
p272
F0.43387794494628906
sS'comp_time'
p273
F7.987022399902344e-05
sS'exec_cq'
p274
I1
sS'total_cq'
p275
I9
sa(dp276
g271
I2
sg272
F0.07409906387329102
sg273
F3.790855407714844e-05
sg274
I1
sg275
I2
sasS'total_cqs'
p277
I9
ssI32
(dp278
S'iters'
p279
I1
sS'meta'
p280
(lp281
(dp282
S'objective'
p283
I14
sS'query_time'
p284
F0.17707109451293945
sS'comp_time'
p285
F8.106231689453125e-05
sS'exec_cq'
p286
I1
sS'total_cq'
p287
I7
sasS'total_cqs'
p288
I7
ssI33
(dp289
S'iters'
p290
I1
sS'meta'
p291
(lp292
(dp293
S'objective'
p294
I1
sS'query_time'
p295
F0.039758920669555664
sS'comp_time'
p296
F7.200241088867188e-05
sS'exec_cq'
p297
I1
sS'total_cq'
p298
I2
sasS'total_cqs'
p299
I2
ssI34
(dp300
S'iters'
p301
I0
sS'meta'
p302
(lp303
sS'total_cqs'
p304
I1
ssI35
(dp305
S'iters'
p306
I2
sS'meta'
p307
(lp308
(dp309
S'objective'
p310
I3
sS'query_time'
p311
F2.3174960613250732
sS'comp_time'
p312
F5.817413330078125e-05
sS'exec_cq'
p313
I1
sS'total_cq'
p314
I5
sa(dp315
g310
I1
sg311
F0.08907008171081543
sg312
F6.318092346191406e-05
sg313
I1
sg314
I2
sasS'total_cqs'
p316
I5
ssI37
(dp317
S'iters'
p318
I1
sS'meta'
p319
(lp320
(dp321
S'objective'
p322
I35
sS'query_time'
p323
F0.3662538528442383
sS'comp_time'
p324
F8.797645568847656e-05
sS'exec_cq'
p325
I1
sS'total_cq'
p326
I10
sasS'total_cqs'
p327
I10
ssI38
(dp328
S'iters'
p329
I0
sS'meta'
p330
(lp331
sS'total_cqs'
p332
I1
ssI39
(dp333
S'iters'
p334
I0
sS'meta'
p335
(lp336
sS'total_cqs'
p337
I1
ssI40
(dp338
S'iters'
p339
I1
sS'meta'
p340
(lp341
(dp342
S'objective'
p343
I1
sS'query_time'
p344
F15.270289182662964
sS'comp_time'
p345
F0.00017714500427246094
sS'exec_cq'
p346
I2
sS'total_cq'
p347
I2
sasS'total_cqs'
p348
I2
ssI41
(dp349
S'iters'
p350
I2
sS'meta'
p351
(lp352
(dp353
S'objective'
p354
I5
sS'query_time'
p355
F2.2678990364074707
sS'comp_time'
p356
F7.009506225585938e-05
sS'exec_cq'
p357
I1
sS'total_cq'
p358
I6
sa(dp359
g354
I4
sg355
F72.46734309196472
sg356
F6.4849853515625e-05
sg357
I2
sg358
I2
sasS'total_cqs'
p360
I6
ssI42
(dp361
S'iters'
p362
I1
sS'meta'
p363
(lp364
(dp365
S'objective'
p366
I1
sS'query_time'
p367
F0.013456106185913086
sS'comp_time'
p368
F6.29425048828125e-05
sS'exec_cq'
p369
I1
sS'total_cq'
p370
I2
sasS'total_cqs'
p371
I2
ssI43
(dp372
S'iters'
p373
I0
sS'meta'
p374
(lp375
sS'total_cqs'
p376
I1
ssI44
(dp377
S'iters'
p378
I1
sS'meta'
p379
(lp380
(dp381
S'objective'
p382
I5
sS'query_time'
p383
F0.01873493194580078
sS'comp_time'
p384
F7.104873657226562e-05
sS'exec_cq'
p385
I1
sS'total_cq'
p386
I5
sasS'total_cqs'
p387
I5
ssI45
(dp388
S'iters'
p389
I2
sS'meta'
p390
(lp391
(dp392
S'objective'
p393
I1
sS'query_time'
p394
F0.046797990798950195
sS'comp_time'
p395
F5.507469177246094e-05
sS'exec_cq'
p396
I1
sS'total_cq'
p397
I5
sa(dp398
g393
I2
sg394
F0.5718340873718262
sg395
F3.981590270996094e-05
sg396
I2
sg397
I2
sasS'total_cqs'
p399
I5
ssI46
(dp400
S'iters'
p401
I0
sS'meta'
p402
(lp403
sS'total_cqs'
p404
I1
ssI47
(dp405
S'iters'
p406
I0
sS'meta'
p407
(lp408
sS'total_cqs'
p409
I1
ssI48
(dp410
S'iters'
p411
I1
sS'meta'
p412
(lp413
(dp414
S'objective'
p415
I1
sS'query_time'
p416
F0.14940309524536133
sS'comp_time'
p417
F6.794929504394531e-05
sS'exec_cq'
p418
I1
sS'total_cq'
p419
I2
sasS'total_cqs'
p420
I2
ssI49
(dp421
S'iters'
p422
I1
sS'meta'
p423
(lp424
(dp425
S'objective'
p426
I5
sS'query_time'
p427
F0.11127281188964844
sS'comp_time'
p428
F5.602836608886719e-05
sS'exec_cq'
p429
I1
sS'total_cq'
p430
I5
sasS'total_cqs'
p431
I5
ssI50
(dp432
S'iters'
p433
I1
sS'meta'
p434
(lp435
(dp436
S'objective'
p437
I5
sS'query_time'
p438
F0.7032248973846436
sS'comp_time'
p439
F7.987022399902344e-05
sS'exec_cq'
p440
I1
sS'total_cq'
p441
I5
sasS'total_cqs'
p442
I5
ssI51
(dp443
S'iters'
p444
I0
sS'meta'
p445
(lp446
sS'total_cqs'
p447
I1
ssI52
(dp448
S'iters'
p449
I0
sS'meta'
p450
(lp451
sS'total_cqs'
p452
I1
ssI53
(dp453
S'iters'
p454
I0
sS'meta'
p455
(lp456
sS'total_cqs'
p457
I1
ssI55
(dp458
S'iters'
p459
I1
sS'meta'
p460
(lp461
(dp462
S'objective'
p463
I1
sS'query_time'
p464
F9.368676900863647
sS'comp_time'
p465
F5.888938903808594e-05
sS'exec_cq'
p466
I1
sS'total_cq'
p467
I2
sasS'total_cqs'
p468
I2
ssI56
(dp469
S'iters'
p470
I0
sS'meta'
p471
(lp472
sS'total_cqs'
p473
I1
ssI57
(dp474
S'iters'
p475
I1
sS'meta'
p476
(lp477
(dp478
S'objective'
p479
I0
sS'query_time'
p480
F10.414586067199707
sS'comp_time'
p481
F0.0004341602325439453
sS'exec_cq'
p482
I1
sS'total_cq'
p483
I3
sasS'total_cqs'
p484
I3
ssI108
(dp485
S'iters'
p486
I0
sS'meta'
p487
(lp488
sS'total_cqs'
p489
I1
ssI109
(dp490
S'iters'
p491
I0
sS'meta'
p492
(lp493
sS'total_cqs'
p494
I1
ssI116
(dp495
S'iters'
p496
I1
sS'meta'
p497
(lp498
(dp499
S'objective'
p500
I189
sS'query_time'
p501
F0.22042012214660645
sS'comp_time'
p502
F8.296966552734375e-05
sS'exec_cq'
p503
I1
sS'total_cq'
p504
I21
sasS'total_cqs'
p505
I21
ssI117
(dp506
S'iters'
p507
I1
sS'meta'
p508
(lp509
(dp510
S'objective'
p511
I5
sS'query_time'
p512
F0.004652976989746094
sS'comp_time'
p513
F4.100799560546875e-05
sS'exec_cq'
p514
I1
sS'total_cq'
p515
I5
sasS'total_cqs'
p516
I5
ssI118
(dp517
S'iters'
p518
I0
sS'meta'
p519
(lp520
sS'total_cqs'
p521
I1
ssI122
(dp522
S'iters'
p523
I0
sS'meta'
p524
(lp525
sS'total_cqs'
p526
I1
ss.