(dp0
I1
(dp1
S'iters'
p2
I4
sS'meta'
p3
(lp4
(dp5
S'objective'
p6
I7
sS'query_time'
p7
F47.61889290809631
sS'comp_time'
p8
F1.1294043064117432
sS'exec_cq'
p9
I5
sS'total_cq'
p10
I6
sa(dp11
g6
I2
sg7
F0.28936004638671875
sg8
F0.5103178024291992
sg9
I2
sg10
I4
sa(dp12
g6
I0
sg7
F24.914304971694946
sg8
F5.793571472167969e-05
sg9
I1
sg10
I3
sa(dp13
g6
I2
sg7
F0.0017349720001220703
sg8
F5.4836273193359375e-05
sg9
I1
sg10
I2
sasS'total_cqs'
p14
I6
ssI2
(dp15
S'iters'
p16
I1
sS'meta'
p17
(lp18
(dp19
S'objective'
p20
I19
sS'query_time'
p21
F1.025451898574829
sS'comp_time'
p22
F0.14048099517822266
sS'exec_cq'
p23
I6
sS'total_cq'
p24
I6
sasS'total_cqs'
p25
I6
ssI3
(dp26
S'iters'
p27
I17
sS'meta'
p28
(lp29
(dp30
S'objective'
p31
I405
sS'query_time'
p32
F25.89821147918701
sS'comp_time'
p33
F0.44106364250183105
sS'exec_cq'
p34
I33
sS'total_cq'
p35
I33
sa(dp36
g31
I357
sg32
F0.013213157653808594
sg33
F0.11849379539489746
sg34
I30
sg35
I30
sa(dp37
g31
I296
sg32
F0.010040044784545898
sg33
F0.015145063400268555
sg34
I27
sg35
I27
sa(dp38
g31
I266
sg32
F0.008589982986450195
sg33
F0.015591859817504883
sg34
I24
sg35
I24
sa(dp39
g31
I244
sg32
F0.15818023681640625
sg33
F0.015231847763061523
sg34
I21
sg35
I21
sa(dp40
g31
I214
sg32
F0.006885051727294922
sg33
F0.014422416687011719
sg34
I19
sg35
I19
sa(dp41
g31
I182
sg32
F0.0051517486572265625
sg33
F0.01277923583984375
sg34
I16
sg35
I16
sa(dp42
g31
I152
sg32
F0.0028548240661621094
sg33
F0.006378173828125
sg34
I11
sg35
I13
sa(dp43
g31
I127
sg32
F0.06848001480102539
sg33
F0.005194187164306641
sg34
I10
sg35
I12
sa(dp44
g31
I111
sg32
F0.0024950504302978516
sg33
F0.0056340694427490234
sg34
I9
sg35
I11
sa(dp45
g31
I91
sg32
F0.002973794937133789
sg33
F0.004662513732910156
sg34
I8
sg35
I10
sa(dp46
g31
I76
sg32
F0.0026879310607910156
sg33
F0.0043888092041015625
sg34
I7
sg35
I9
sa(dp47
g31
I62
sg32
F2.002716064453125e-05
sg33
F5.0067901611328125e-05
sg34
I5
sg35
I8
sa(dp48
g31
I12
sg32
F31.764516830444336
sg33
F0.000102996826171875
sg34
I4
sg35
I7
sa(dp49
g31
I1
sg32
F0.033225297927856445
sg33
F9.894371032714844e-05
sg34
I3
sg35
I6
sa(dp50
g31
I2
sg32
F0.00615692138671875
sg33
F0.0029680728912353516
sg34
I1
sg35
I4
sa(dp51
g31
I8
sg32
F0.003387928009033203
sg33
F0.004897356033325195
sg34
I3
sg35
I3
sasS'total_cqs'
p52
I33
ssI4
(dp53
S'iters'
p54
I0
sS'meta'
p55
(lp56
sS'total_cqs'
p57
I1
ssI5
(dp58
S'iters'
p59
I0
sS'meta'
p60
(lp61
sS'total_cqs'
p62
I1
ssI6
(dp63
S'iters'
p64
I3
sS'meta'
p65
(lp66
(dp67
S'objective'
p68
I1
sS'query_time'
p69
F14.902887105941772
sS'comp_time'
p70
F0.007968425750732422
sS'exec_cq'
p71
I4
sS'total_cq'
p72
I5
sa(dp73
g68
I1
sg69
F0.000186920166015625
sg70
F0.0003161430358886719
sg71
I2
sg72
I3
sa(dp74
g68
I1
sg69
F4.1961669921875e-05
sg70
F3.814697265625e-05
sg71
I1
sg72
I2
sasS'total_cqs'
p75
I5
ssI7
(dp76
S'iters'
p77
I0
sS'meta'
p78
(lp79
sS'total_cqs'
p80
I1
ssI8
(dp81
S'iters'
p82
I5
sS'meta'
p83
(lp84
(dp85
S'objective'
p86
I11
sS'query_time'
p87
F23.270442962646484
sS'comp_time'
p88
F0.0886237621307373
sS'exec_cq'
p89
I5
sS'total_cq'
p90
I6
sa(dp91
g86
I4
sg87
F2.047424077987671
sg88
F0.00011515617370605469
sg89
I4
sg90
I5
sa(dp92
g86
I2
sg87
F21.97087001800537
sg88
F0.0001418590545654297
sg89
I3
sg90
I4
sa(dp93
g86
I2
sg87
F20.044216632843018
sg88
F0.0001327991485595703
sg89
I3
sg90
I3
sa(dp94
g86
I2
sg87
F0.0017268657684326172
sg88
F4.649162292480469e-05
sg89
I1
sg90
I2
sasS'total_cqs'
p95
I6
ssI9
(dp96
S'iters'
p97
I3
sS'meta'
p98
(lp99
(dp100
S'objective'
p101
I9
sS'query_time'
p102
F52.62298107147217
sS'comp_time'
p103
F2.6394307613372803
sS'exec_cq'
p104
I5
sS'total_cq'
p105
I6
sa(dp106
g101
I0
sg102
F0.04250812530517578
sg103
F0.09317302703857422
sg104
I3
sg105
I3
sa(dp107
g101
I1
sg102
F0.04120302200317383
sg103
F0.1817929744720459
sg104
I2
sg105
I2
sasS'total_cqs'
p108
I6
ssI10
(dp109
S'iters'
p110
I0
sS'meta'
p111
(lp112
sS'total_cqs'
p113
I1
ssI11
(dp114
S'iters'
p115
I0
sS'meta'
p116
(lp117
sS'total_cqs'
p118
I1
ssI12
(dp119
S'iters'
p120
I0
sS'meta'
p121
(lp122
sS'total_cqs'
p123
I1
ssI13
(dp124
S'iters'
p125
I2
sS'meta'
p126
(lp127
(dp128
S'objective'
p129
I26
sS'query_time'
p130
F0.025849103927612305
sS'comp_time'
p131
F0.01084589958190918
sS'exec_cq'
p132
I8
sS'total_cq'
p133
I8
sa(dp134
g129
I29
sg130
F4.506111145019531e-05
sg131
F9.942054748535156e-05
sg132
I7
sg133
I7
sasS'total_cqs'
p135
I8
ssI14
(dp136
S'iters'
p137
I3
sS'meta'
p138
(lp139
(dp140
S'objective'
p141
I5
sS'query_time'
p142
F1.1072349548339844
sS'comp_time'
p143
F0.006279706954956055
sS'exec_cq'
p144
I5
sS'total_cq'
p145
I5
sa(dp146
g141
I4
sg142
F0.0005609989166259766
sg143
F0.0008950233459472656
sg144
I4
sg145
I4
sa(dp147
g141
I5
sg142
F0.0005130767822265625
sg143
F0.0010666847229003906
sg144
I3
sg145
I3
sasS'total_cqs'
p148
I5
ssI16
(dp149
S'iters'
p150
I3
sS'meta'
p151
(lp152
(dp153
S'objective'
p154
I1
sS'query_time'
p155
F1.3606879711151123
sS'comp_time'
p156
F0.00573277473449707
sS'exec_cq'
p157
I4
sS'total_cq'
p158
I5
sa(dp159
g154
I1
sg155
F0.043244123458862305
sg156
F0.00015306472778320312
sg157
I1
sg158
I3
sa(dp160
g154
I1
sg155
F5.984306335449219e-05
sg156
F0.00011491775512695312
sg157
I2
sg158
I2
sasS'total_cqs'
p161
I5
ssI17
(dp162
S'iters'
p163
I0
sS'meta'
p164
(lp165
sS'total_cqs'
p166
I1
ssI18
(dp167
S'iters'
p168
I3
sS'meta'
p169
(lp170
(dp171
S'objective'
p172
I1
sS'query_time'
p173
F0.2021770477294922
sS'comp_time'
p174
F0.00445103645324707
sS'exec_cq'
p175
I4
sS'total_cq'
p176
I5
sa(dp177
g172
I2
sg173
F0.05174589157104492
sg174
F0.00013709068298339844
sg175
I1
sg176
I3
sa(dp178
g172
I1
sg173
F3.504753112792969e-05
sg174
F0.00011420249938964844
sg175
I2
sg176
I2
sasS'total_cqs'
p179
I5
ssI19
(dp180
S'iters'
p181
I0
sS'meta'
p182
(lp183
sS'total_cqs'
p184
I1
ssI20
(dp185
S'iters'
p186
I6
sS'meta'
p187
(lp188
(dp189
S'objective'
p190
I32
sS'query_time'
p191
F13.846100091934204
sS'comp_time'
p192
F0.6321818828582764
sS'exec_cq'
p193
I10
sS'total_cq'
p194
I12
sa(dp195
g190
I35
sg191
F0.24649930000305176
sg192
F0.6874539852142334
sg193
I8
sg194
I10
sa(dp196
g190
I29
sg191
F0.07608985900878906
sg192
F0.5406308174133301
sg193
I7
sg194
I8
sa(dp197
g190
I23
sg191
F0.07411813735961914
sg192
F0.5873024463653564
sg193
I6
sg194
I7
sa(dp198
g190
I22
sg191
F0.15993237495422363
sg192
F0.39372992515563965
sg193
I4
sg194
I5
sa(dp199
g190
I24
sg191
F0.11295771598815918
sg192
F0.0006968975067138672
sg193
I4
sg194
I4
sasS'total_cqs'
p200
I12
ssI21
(dp201
S'iters'
p202
I10
sS'meta'
p203
(lp204
(dp205
S'objective'
p206
I45
sS'query_time'
p207
F59.707736015319824
sS'comp_time'
p208
F1.0717041492462158
sS'exec_cq'
p209
I12
sS'total_cq'
p210
I14
sa(dp211
g206
I47
sg207
F0.15697693824768066
sg208
F0.069122314453125
sg209
I8
sg210
I11
sa(dp212
g206
I49
sg207
F0.01028299331665039
sg208
F0.09388875961303711
sg209
I7
sg210
I9
sa(dp213
g206
I45
sg207
F0.008157014846801758
sg208
F0.018999576568603516
sg209
I6
sg210
I8
sa(dp214
g206
I26
sg207
F0.007263898849487305
sg208
F0.00013828277587890625
sg209
I5
sg210
I7
sa(dp215
g206
I18
sg207
F0.0033111572265625
sg208
F0.0001361370086669922
sg209
I4
sg210
I6
sa(dp216
g206
I2
sg207
F0.001062154769897461
sg208
F5.364418029785156e-05
sg209
I1
sg210
I5
sa(dp217
g206
I1
sg207
F0.0013840198516845703
sg208
F7.915496826171875e-05
sg209
I2
sg210
I4
sa(dp218
g206
I1
sg207
F0.0008759498596191406
sg208
F2.4557113647460938e-05
sg209
I1
sg210
I3
sa(dp219
g206
I1
sg207
F0.011912107467651367
sg208
F3.0040740966796875e-05
sg209
I1
sg210
I2
sasS'total_cqs'
p220
I14
ssI22
(dp221
S'iters'
p222
I1
sS'meta'
p223
(lp224
(dp225
S'objective'
p226
I1
sS'query_time'
p227
F0.005115985870361328
sS'comp_time'
p228
F0.0012392997741699219
sS'exec_cq'
p229
I1
sS'total_cq'
p230
I2
sasS'total_cqs'
p231
I2
ssI23
(dp232
S'iters'
p233
I0
sS'meta'
p234
(lp235
sS'total_cqs'
p236
I1
ssI24
(dp237
S'iters'
p238
I0
sS'meta'
p239
(lp240
sS'total_cqs'
p241
I1
ssI25
(dp242
S'iters'
p243
I4
sS'meta'
p244
(lp245
(dp246
S'objective'
p247
I2
sS'query_time'
p248
F52.97344708442688
sS'comp_time'
p249
F2.655122995376587
sS'exec_cq'
p250
I6
sS'total_cq'
p251
I7
sa(dp252
g247
I1
sg248
F0.8308780193328857
sg249
F2.0961172580718994
sg250
I4
sg251
I5
sa(dp253
g247
I2
sg248
F0.013463020324707031
sg249
F0.00017309188842773438
sg250
I2
sg251
I3
sa(dp254
g247
I1
sg248
F0.006377220153808594
sg249
F4.506111145019531e-05
sg250
I1
sg251
I2
sasS'total_cqs'
p255
I7
ssI26
(dp256
S'iters'
p257
I9
sS'meta'
p258
(lp259
(dp260
S'objective'
p261
I47
sS'query_time'
p262
F27.0275719165802
sS'comp_time'
p263
F1.8001708984375
sS'exec_cq'
p264
I5
sS'total_cq'
p265
I13
sa(dp266
g261
I31
sg262
F0.8923819065093994
sg263
F3.760211229324341
sg264
I9
sg265
I11
sa(dp267
g261
I24
sg262
F0.8867480754852295
sg263
F4.431034088134766
sg264
I7
sg265
I9
sa(dp268
g261
I13
sg262
F0.0020940303802490234
sg263
F0.002778291702270508
sg264
I4
sg265
I8
sa(dp269
g261
I7
sg262
F1.135957956314087
sg263
F3.669132709503174
sg264
I4
sg265
I6
sa(dp270
g261
I4
sg262
F0.0010669231414794922
sg263
F0.001073598861694336
sg264
I2
sg265
I5
sa(dp271
g261
I2
sg262
F0.027306079864501953
sg263
F0.0001468658447265625
sg264
I1
sg265
I4
sa(dp272
g261
I0
sg262
F0.00019598007202148438
sg263
F9.703636169433594e-05
sg264
I1
sg265
I3
sa(dp273
g261
I1
sg262
F0.9272210597991943
sg263
F0.7055931091308594
sg264
I1
sg265
I2
sasS'total_cqs'
p274
I13
ssI27
(dp275
S'iters'
p276
I1
sS'meta'
p277
(lp278
(dp279
S'objective'
p280
I1
sS'query_time'
p281
F0.2789340019226074
sS'comp_time'
p282
F0.0016510486602783203
sS'exec_cq'
p283
I1
sS'total_cq'
p284
I2
sasS'total_cqs'
p285
I2
ssI28
(dp286
S'iters'
p287
I10
sS'meta'
p288
(lp289
(dp290
S'objective'
p291
I55
sS'query_time'
p292
F1.4528050422668457
sS'comp_time'
p293
F0.09988284111022949
sS'exec_cq'
p294
I6
sS'total_cq'
p295
I14
sa(dp296
g291
I36
sg292
F0.004377126693725586
sg293
F0.01582169532775879
sg294
I3
sg295
I11
sa(dp297
g291
I34
sg292
F0.052747249603271484
sg293
F0.0002117156982421875
sg294
I3
sg295
I9
sa(dp298
g291
I24
sg292
F0.027945995330810547
sg293
F0.0002148151397705078
sg294
I3
sg295
I8
sa(dp299
g291
I15
sg292
F2.4080276489257812e-05
sg293
F0.00011205673217773438
sg294
I2
sg295
I7
sa(dp300
g291
I9
sg292
F0.00951385498046875
sg293
F7.724761962890625e-05
sg294
I1
sg295
I6
sa(dp301
g291
I3
sg292
F0.004181861877441406
sg293
F0.001989603042602539
sg294
I1
sg295
I5
sa(dp302
g291
I2
sg292
F0.015470027923583984
sg293
F9.679794311523438e-05
sg294
I1
sg295
I4
sa(dp303
g291
I0
sg292
F1.811981201171875e-05
sg293
F3.600120544433594e-05
sg294
I1
sg295
I3
sa(dp304
g291
I1
sg292
F0.002856016159057617
sg293
F2.4080276489257812e-05
sg294
I1
sg295
I2
sasS'total_cqs'
p305
I14
ssI29
(dp306
S'iters'
p307
I1
sS'meta'
p308
(lp309
(dp310
S'objective'
p311
I1
sS'query_time'
p312
F0.020656824111938477
sS'comp_time'
p313
F0.002274036407470703
sS'exec_cq'
p314
I2
sS'total_cq'
p315
I2
sasS'total_cqs'
p316
I2
ssI30
(dp317
S'iters'
p318
I1
sS'meta'
p319
(lp320
(dp321
S'objective'
p322
I1
sS'query_time'
p323
F0.4633028507232666
sS'comp_time'
p324
F0.002681732177734375
sS'exec_cq'
p325
I2
sS'total_cq'
p326
I2
sasS'total_cqs'
p327
I2
ssI31
(dp328
S'iters'
p329
I4
sS'meta'
p330
(lp331
(dp332
S'objective'
p333
I13
sS'query_time'
p334
F6.000911235809326
sS'comp_time'
p335
F0.09024810791015625
sS'exec_cq'
p336
I9
sS'total_cq'
p337
I9
sa(dp338
g333
I11
sg334
F0.008919954299926758
sg335
F0.018285274505615234
sg336
I5
sg337
I7
sa(dp339
g333
I1
sg334
F0.008026838302612305
sg335
F0.011635780334472656
sg336
I3
sg337
I3
sa(dp340
g333
I2
sg334
F0.0865027904510498
sg335
F0.011790037155151367
sg336
I2
sg337
I2
sasS'total_cqs'
p341
I9
ssI32
(dp342
S'iters'
p343
I4
sS'meta'
p344
(lp345
(dp346
S'objective'
p347
I2
sS'query_time'
p348
F21.87583899497986
sS'comp_time'
p349
F2.1485671997070312
sS'exec_cq'
p350
I4
sS'total_cq'
p351
I7
sa(dp352
g347
I1
sg348
F1.2599949836730957
sg349
F0.00426483154296875
sg350
I2
sg351
I4
sa(dp353
g347
I0
sg348
F0.002660036087036133
sg349
F0.0018572807312011719
sg350
I1
sg351
I3
sa(dp354
g347
I2
sg348
F0.02866816520690918
sg349
F0.022451162338256836
sg350
I1
sg351
I2
sasS'total_cqs'
p355
I7
ssI33
(dp356
S'iters'
p357
I1
sS'meta'
p358
(lp359
(dp360
S'objective'
p361
I1
sS'query_time'
p362
F0.03985095024108887
sS'comp_time'
p363
F0.002030611038208008
sS'exec_cq'
p364
I2
sS'total_cq'
p365
I2
sasS'total_cqs'
p366
I2
ssI34
(dp367
S'iters'
p368
I0
sS'meta'
p369
(lp370
sS'total_cqs'
p371
I1
ssI35
(dp372
S'iters'
p373
I3
sS'meta'
p374
(lp375
(dp376
S'objective'
p377
I1
sS'query_time'
p378
F14.313189029693604
sS'comp_time'
p379
F0.08144187927246094
sS'exec_cq'
p380
I4
sS'total_cq'
p381
I5
sa(dp382
g377
I0
sg378
F0.015477895736694336
sg379
F0.09297657012939453
sg380
I2
sg381
I3
sa(dp383
g377
I2
sg378
F0.0006961822509765625
sg379
F0.00033402442932128906
sg380
I1
sg381
I2
sasS'total_cqs'
p384
I5
ssI37
(dp385
S'iters'
p386
I5
sS'meta'
p387
(lp388
(dp389
S'objective'
p390
I37
sS'query_time'
p391
F1.693122148513794
sS'comp_time'
p392
F0.10830926895141602
sS'exec_cq'
p393
I8
sS'total_cq'
p394
I10
sa(dp395
g390
I30
sg391
F0.009048938751220703
sg392
F0.014103174209594727
sg393
I7
sg394
I9
sa(dp396
g390
I24
sg391
F0.5520460605621338
sg392
F0.018172025680541992
sg393
I7
sg394
I8
sa(dp397
g390
I17
sg391
F0.010833024978637695
sg392
F0.015371322631835938
sg393
I6
sg394
I7
sa(dp398
g390
I5
sg391
F0.0770101547241211
sg392
F0.003980875015258789
sg393
I2
sg394
I2
sasS'total_cqs'
p399
I10
ssI38
(dp400
S'iters'
p401
I0
sS'meta'
p402
(lp403
sS'total_cqs'
p404
I1
ssI39
(dp405
S'iters'
p406
I0
sS'meta'
p407
(lp408
sS'total_cqs'
p409
I1
ssI40
(dp410
S'iters'
p411
I1
sS'meta'
p412
(lp413
(dp414
S'objective'
p415
I1
sS'query_time'
p416
F0.0029799938201904297
sS'comp_time'
p417
F0.0004353523254394531
sS'exec_cq'
p418
I1
sS'total_cq'
p419
I2
sasS'total_cqs'
p420
I2
ssI41
(dp421
S'iters'
p422
I4
sS'meta'
p423
(lp424
(dp425
S'objective'
p426
I1
sS'query_time'
p427
F11.01767110824585
sS'comp_time'
p428
F0.7804386615753174
sS'exec_cq'
p429
I3
sS'total_cq'
p430
I6
sa(dp431
g426
I2
sg427
F0.0010089874267578125
sg428
F0.00043511390686035156
sg429
I1
sg430
I4
sa(dp432
g426
I0
sg427
F0.9116330146789551
sg428
F0.0006959438323974609
sg429
I2
sg430
I3
sa(dp433
g426
I1
sg427
F0.0006680488586425781
sg428
F0.0009698867797851562
sg429
I2
sg430
I2
sasS'total_cqs'
p434
I6
ssI42
(dp435
S'iters'
p436
I1
sS'meta'
p437
(lp438
(dp439
S'objective'
p440
I1
sS'query_time'
p441
F0.00895380973815918
sS'comp_time'
p442
F0.0015861988067626953
sS'exec_cq'
p443
I1
sS'total_cq'
p444
I2
sasS'total_cqs'
p445
I2
ssI43
(dp446
S'iters'
p447
I0
sS'meta'
p448
(lp449
sS'total_cqs'
p450
I1
ssI44
(dp451
S'iters'
p452
I3
sS'meta'
p453
(lp454
(dp455
S'objective'
p456
I1
sS'query_time'
p457
F1.614151954650879
sS'comp_time'
p458
F0.0359344482421875
sS'exec_cq'
p459
I4
sS'total_cq'
p460
I5
sa(dp461
g456
I0
sg457
F0.10170602798461914
sg458
F0.03231000900268555
sg459
I2
sg460
I3
sa(dp462
g456
I2
sg457
F0.018981218338012695
sg458
F0.014046907424926758
sg459
I1
sg460
I2
sasS'total_cqs'
p463
I5
ssI45
(dp464
S'iters'
p465
I2
sS'meta'
p466
(lp467
(dp468
S'objective'
p469
I7
sS'query_time'
p470
F0.03328704833984375
sS'comp_time'
p471
F0.002080202102661133
sS'exec_cq'
p472
I4
sS'total_cq'
p473
I5
sa(dp474
g469
I2
sg470
F0.00018215179443359375
sg471
F0.0002372264862060547
sg472
I2
sg473
I2
sasS'total_cqs'
p475
I5
ssI46
(dp476
S'iters'
p477
I0
sS'meta'
p478
(lp479
sS'total_cqs'
p480
I1
ssI47
(dp481
S'iters'
p482
I0
sS'meta'
p483
(lp484
sS'total_cqs'
p485
I1
ssI48
(dp486
S'iters'
p487
I1
sS'meta'
p488
(lp489
(dp490
S'objective'
p491
I1
sS'query_time'
p492
F0.07826709747314453
sS'comp_time'
p493
F0.003476858139038086
sS'exec_cq'
p494
I2
sS'total_cq'
p495
I2
sasS'total_cqs'
p496
I2
ssI49
(dp497
S'iters'
p498
I3
sS'meta'
p499
(lp500
(dp501
S'objective'
p502
I1
sS'query_time'
p503
F0.2123699188232422
sS'comp_time'
p504
F0.003922224044799805
sS'exec_cq'
p505
I4
sS'total_cq'
p506
I5
sa(dp507
g502
I3
sg503
F0.04252815246582031
sg504
F0.0002620220184326172
sg505
I3
sg506
I3
sa(dp508
g502
I3
sg503
F3.2901763916015625e-05
sg504
F7.700920104980469e-05
sg505
I2
sg506
I2
sasS'total_cqs'
p509
I5
ssI50
(dp510
S'iters'
p511
I4
sS'meta'
p512
(lp513
(dp514
S'objective'
p515
I5
sS'query_time'
p516
F0.694162130355835
sS'comp_time'
p517
F0.0054552555084228516
sS'exec_cq'
p518
I5
sS'total_cq'
p519
I5
sa(dp520
g515
I2
sg516
F0.00018405914306640625
sg517
F0.0004112720489501953
sg518
I4
sg519
I4
sa(dp521
g515
I0
sg516
F0.0001819133758544922
sg517
F0.00036978721618652344
sg518
I3
sg519
I3
sa(dp522
g515
I1
sg516
F0.00017404556274414062
sg517
F0.0003802776336669922
sg518
I2
sg519
I2
sasS'total_cqs'
p523
I5
ssI51
(dp524
S'iters'
p525
I0
sS'meta'
p526
(lp527
sS'total_cqs'
p528
I1
ssI52
(dp529
S'iters'
p530
I0
sS'meta'
p531
(lp532
sS'total_cqs'
p533
I1
ssI53
(dp534
S'iters'
p535
I0
sS'meta'
p536
(lp537
sS'total_cqs'
p538
I1
ssI55
(dp539
S'iters'
p540
I1
sS'meta'
p541
(lp542
(dp543
S'objective'
p544
I1
sS'query_time'
p545
F24.44712996482849
sS'comp_time'
p546
F0.013813972473144531
sS'exec_cq'
p547
I2
sS'total_cq'
p548
I2
sasS'total_cqs'
p549
I2
ssI56
(dp550
S'iters'
p551
I0
sS'meta'
p552
(lp553
sS'total_cqs'
p554
I1
ssI57
(dp555
S'iters'
p556
I2
sS'meta'
p557
(lp558
(dp559
S'objective'
p560
I0
sS'query_time'
p561
F12.167241096496582
sS'comp_time'
p562
F0.7972860336303711
sS'exec_cq'
p563
I2
sS'total_cq'
p564
I3
sa(dp565
g560
I1
sg561
F0.24631094932556152
sg562
F0.3767669200897217
sg563
I1
sg564
I2
sasS'total_cqs'
p566
I3
ssI108
(dp567
S'iters'
p568
I0
sS'meta'
p569
(lp570
sS'total_cqs'
p571
I1
ssI109
(dp572
S'iters'
p573
I0
sS'meta'
p574
(lp575
sS'total_cqs'
p576
I1
ssI116
(dp577
S'iters'
p578
I4
sS'meta'
p579
(lp580
(dp581
S'objective'
p582
I177
sS'query_time'
p583
F3.655082941055298
sS'comp_time'
p584
F0.20948100090026855
sS'exec_cq'
p585
I15
sS'total_cq'
p586
I21
sa(dp587
g582
I162
sg583
F0.0724029541015625
sg584
F0.0002739429473876953
sg585
I13
sg586
I19
sa(dp588
g582
I141
sg583
F0.5657780170440674
sg584
F0.0005991458892822266
sg585
I14
sg586
I18
sa(dp589
g582
I19
sg583
F0.0007441043853759766
sg584
F0.0008351802825927734
sg585
I2
sg586
I2
sasS'total_cqs'
p590
I21
ssI117
(dp591
S'iters'
p592
I2
sS'meta'
p593
(lp594
(dp595
S'objective'
p596
I7
sS'query_time'
p597
F0.007853031158447266
sS'comp_time'
p598
F0.0015010833740234375
sS'exec_cq'
p599
I3
sS'total_cq'
p600
I5
sa(dp601
g596
I9
sg597
F0.004965066909790039
sg598
F3.1948089599609375e-05
sg599
I4
sg600
I4
sasS'total_cqs'
p602
I5
ssI118
(dp603
S'iters'
p604
I0
sS'meta'
p605
(lp606
sS'total_cqs'
p607
I1
ssI122
(dp608
S'iters'
p609
I0
sS'meta'
p610
(lp611
sS'total_cqs'
p612
I1
ss.