(dp0
I1
(dp1
S'iters'
p2
I2
sS'meta'
p3
(lp4
(dp5
S'objective'
p6
I3
sS'query_time'
p7
F16.96008610725403
sS'comp_time'
p8
F0.27916908264160156
sS'exec_cq'
p9
I3
sS'total_cq'
p10
I6
sa(dp11
g6
I4
sg7
F31.107259035110474
sg8
F0.4716920852661133
sg9
I3
sg10
I4
sasS'total_cqs'
p12
I6
ssI2
(dp13
S'iters'
p14
I1
sS'meta'
p15
(lp16
(dp17
S'objective'
p18
I13
sS'query_time'
p19
F0.8764822483062744
sS'comp_time'
p20
F0.14272093772888184
sS'exec_cq'
p21
I5
sS'total_cq'
p22
I6
sasS'total_cqs'
p23
I6
ssI3
(dp24
S'iters'
p25
I10
sS'meta'
p26
(lp27
(dp28
S'objective'
p29
I401
sS'query_time'
p30
F26.329397201538086
sS'comp_time'
p31
F0.2606360912322998
sS'exec_cq'
p32
I33
sS'total_cq'
p33
I33
sa(dp34
g29
I337
sg30
F0.027283191680908203
sg31
F0.284404993057251
sg32
I30
sg33
I30
sa(dp35
g29
I295
sg30
F0.027709007263183594
sg31
F0.2896275520324707
sg32
I27
sg33
I27
sa(dp36
g29
I242
sg30
F0.025920867919921875
sg31
F0.25923871994018555
sg32
I24
sg33
I24
sa(dp37
g29
I221
sg30
F0.0073146820068359375
sg31
F0.014947175979614258
sg32
I21
sg33
I21
sa(dp38
g29
I193
sg30
F0.005536794662475586
sg31
F0.013235330581665039
sg32
I18
sg33
I18
sa(dp39
g29
I162
sg30
F0.0058591365814208984
sg31
F0.09085273742675781
sg32
I17
sg33
I17
sa(dp40
g29
I134
sg30
F0.006729841232299805
sg31
F0.01086735725402832
sg32
I15
sg33
I15
sa(dp41
g29
I108
sg30
F0.00589299201965332
sg31
F0.011959552764892578
sg32
I14
sg33
I14
sa(dp42
g29
I100
sg30
F0.0062830448150634766
sg31
F0.011031627655029297
sg32
I13
sg33
I13
sasS'total_cqs'
p43
I33
ssI4
(dp44
S'iters'
p45
I0
sS'meta'
p46
(lp47
sS'total_cqs'
p48
I1
ssI5
(dp49
S'iters'
p50
I0
sS'meta'
p51
(lp52
sS'total_cqs'
p53
I1
ssI6
(dp54
S'iters'
p55
I2
sS'meta'
p56
(lp57
(dp58
S'objective'
p59
I1
sS'query_time'
p60
F14.43253493309021
sS'comp_time'
p61
F0.004317760467529297
sS'exec_cq'
p62
I4
sS'total_cq'
p63
I5
sa(dp64
g59
I0
sg60
F0.0008058547973632812
sg61
F0.001657247543334961
sg62
I3
sg63
I3
sasS'total_cqs'
p65
I5
ssI7
(dp66
S'iters'
p67
I0
sS'meta'
p68
(lp69
sS'total_cqs'
p70
I1
ssI8
(dp71
S'iters'
p72
I3
sS'meta'
p73
(lp74
(dp75
S'objective'
p76
I9
sS'query_time'
p77
F23.13769221305847
sS'comp_time'
p78
F0.07762789726257324
sS'exec_cq'
p79
I5
sS'total_cq'
p80
I6
sa(dp81
g76
I5
sg77
F1.7048852443695068
sg78
F0.00011968612670898438
sg79
I4
sg80
I5
sa(dp82
g76
I2
sg77
F0.04913806915283203
sg78
F7.390975952148438e-05
sg79
I3
sg80
I4
sasS'total_cqs'
p83
I6
ssI9
(dp84
S'iters'
p85
I3
sS'meta'
p86
(lp87
(dp88
S'objective'
p89
I1
sS'query_time'
p90
F13.166802167892456
sS'comp_time'
p91
F0.06178116798400879
sS'exec_cq'
p92
I3
sS'total_cq'
p93
I6
sa(dp94
g89
I1
sg90
F0.045001983642578125
sg91
F0.156447172164917
sg92
I3
sg93
I3
sa(dp95
g89
I2
sg90
F0.008628129959106445
sg91
F0.01337122917175293
sg92
I2
sg93
I2
sasS'total_cqs'
p96
I6
ssI10
(dp97
S'iters'
p98
I0
sS'meta'
p99
(lp100
sS'total_cqs'
p101
I1
ssI11
(dp102
S'iters'
p103
I0
sS'meta'
p104
(lp105
sS'total_cqs'
p106
I1
ssI12
(dp107
S'iters'
p108
I0
sS'meta'
p109
(lp110
sS'total_cqs'
p111
I1
ssI13
(dp112
S'iters'
p113
I1
sS'meta'
p114
(lp115
(dp116
S'objective'
p117
I26
sS'query_time'
p118
F0.020194053649902344
sS'comp_time'
p119
F0.007223844528198242
sS'exec_cq'
p120
I7
sS'total_cq'
p121
I8
sasS'total_cqs'
p122
I8
ssI14
(dp123
S'iters'
p124
I2
sS'meta'
p125
(lp126
(dp127
S'objective'
p128
I5
sS'query_time'
p129
F0.8896360397338867
sS'comp_time'
p130
F0.004777431488037109
sS'exec_cq'
p131
I5
sS'total_cq'
p132
I5
sa(dp133
g128
I2
sg129
F0.0005688667297363281
sg130
F0.0010828971862792969
sg131
I4
sg132
I4
sasS'total_cqs'
p134
I5
ssI16
(dp135
S'iters'
p136
I2
sS'meta'
p137
(lp138
(dp139
S'objective'
p140
I3
sS'query_time'
p141
F1.3306810855865479
sS'comp_time'
p142
F0.005730628967285156
sS'exec_cq'
p143
I4
sS'total_cq'
p144
I5
sa(dp145
g140
I1
sg141
F4.506111145019531e-05
sg142
F0.00018453598022460938
sg143
I2
sg144
I3
sasS'total_cqs'
p146
I5
ssI17
(dp147
S'iters'
p148
I0
sS'meta'
p149
(lp150
sS'total_cqs'
p151
I1
ssI18
(dp152
S'iters'
p153
I2
sS'meta'
p154
(lp155
(dp156
S'objective'
p157
I1
sS'query_time'
p158
F0.19868898391723633
sS'comp_time'
p159
F0.004743814468383789
sS'exec_cq'
p160
I4
sS'total_cq'
p161
I5
sa(dp162
g157
I1
sg158
F3.504753112792969e-05
sg159
F0.0001678466796875
sg160
I2
sg161
I3
sasS'total_cqs'
p163
I5
ssI19
(dp164
S'iters'
p165
I0
sS'meta'
p166
(lp167
sS'total_cqs'
p168
I1
ssI20
(dp169
S'iters'
p170
I5
sS'meta'
p171
(lp172
(dp173
S'objective'
p174
I40
sS'query_time'
p175
F13.833329200744629
sS'comp_time'
p176
F0.9879236221313477
sS'exec_cq'
p177
I10
sS'total_cq'
p178
I12
sa(dp179
g174
I29
sg175
F0.24015593528747559
sg176
F0.3332540988922119
sg177
I6
sg178
I10
sa(dp180
g174
I24
sg175
F0.1543428897857666
sg176
F0.43751978874206543
sg177
I6
sg178
I8
sa(dp181
g174
I16
sg175
F0.14490818977355957
sg176
F0.3825109004974365
sg177
I4
sg178
I7
sa(dp182
g174
I11
sg175
F0.19696807861328125
sg176
F0.22240138053894043
sg177
I3
sg178
I5
sasS'total_cqs'
p183
I12
ssI21
(dp184
S'iters'
p185
I5
sS'meta'
p186
(lp187
(dp188
S'objective'
p189
I67
sS'query_time'
p190
F60.6127610206604
sS'comp_time'
p191
F0.9103071689605713
sS'exec_cq'
p192
I12
sS'total_cq'
p193
I14
sa(dp194
g189
I60
sg190
F0.38373613357543945
sg191
F0.0460810661315918
sg192
I9
sg193
I11
sa(dp195
g189
I47
sg190
F0.09348797798156738
sg191
F0.05667686462402344
sg192
I8
sg193
I10
sa(dp196
g189
I40
sg190
F0.010493040084838867
sg191
F0.01756000518798828
sg192
I6
sg193
I8
sa(dp197
g189
I34
sg190
F0.09252381324768066
sg191
F0.019613027572631836
sg192
I7
sg193
I7
sasS'total_cqs'
p198
I14
ssI22
(dp199
S'iters'
p200
I1
sS'meta'
p201
(lp202
(dp203
S'objective'
p204
I1
sS'query_time'
p205
F0.01920604705810547
sS'comp_time'
p206
F0.0013687610626220703
sS'exec_cq'
p207
I1
sS'total_cq'
p208
I2
sasS'total_cqs'
p209
I2
ssI23
(dp210
S'iters'
p211
I0
sS'meta'
p212
(lp213
sS'total_cqs'
p214
I1
ssI24
(dp215
S'iters'
p216
I0
sS'meta'
p217
(lp218
sS'total_cqs'
p219
I1
ssI25
(dp220
S'iters'
p221
I4
sS'meta'
p222
(lp223
(dp224
S'objective'
p225
I12
sS'query_time'
p226
F52.40173530578613
sS'comp_time'
p227
F2.1262707710266113
sS'exec_cq'
p228
I6
sS'total_cq'
p229
I7
sa(dp230
g225
I8
sg226
F0.7011799812316895
sg227
F2.305548906326294
sg228
I4
sg229
I5
sa(dp231
g225
I2
sg226
F0.07454586029052734
sg227
F0.00015664100646972656
sg228
I2
sg229
I3
sa(dp232
g225
I2
sg226
F0.008311986923217773
sg227
F5.602836608886719e-05
sg228
I1
sg229
I2
sasS'total_cqs'
p233
I7
ssI26
(dp234
S'iters'
p235
I5
sS'meta'
p236
(lp237
(dp238
S'objective'
p239
I47
sS'query_time'
p240
F0.2948489189147949
sS'comp_time'
p241
F0.014540910720825195
sS'exec_cq'
p242
I4
sS'total_cq'
p243
I13
sa(dp244
g239
I33
sg240
F4.9829370975494385
sg241
F0.0033257007598876953
sg242
I2
sg243
I11
sa(dp245
g239
I25
sg240
F0.0015671253204345703
sg241
F0.0016126632690429688
sg242
I2
sg243
I9
sa(dp246
g239
I20
sg240
F21.890373945236206
sg241
F2.2879300117492676
sg242
I4
sg243
I8
sa(dp247
g239
I13
sg240
F0.8335456848144531
sg241
F1.935211420059204
sg242
I4
sg243
I7
sasS'total_cqs'
p248
I13
ssI27
(dp249
S'iters'
p250
I1
sS'meta'
p251
(lp252
(dp253
S'objective'
p254
I1
sS'query_time'
p255
F0.1890561580657959
sS'comp_time'
p256
F0.001987934112548828
sS'exec_cq'
p257
I1
sS'total_cq'
p258
I2
sasS'total_cqs'
p259
I2
ssI28
(dp260
S'iters'
p261
I6
sS'meta'
p262
(lp263
(dp264
S'objective'
p265
I59
sS'query_time'
p266
F1.445113182067871
sS'comp_time'
p267
F0.09039592742919922
sS'exec_cq'
p268
I6
sS'total_cq'
p269
I14
sa(dp270
g265
I44
sg266
F0.002599000930786133
sg267
F0.005918025970458984
sg268
I4
sg269
I12
sa(dp271
g265
I37
sg266
F0.005981922149658203
sg267
F0.00012183189392089844
sg268
I2
sg269
I9
sa(dp272
g265
I26
sg266
F0.02220296859741211
sg267
F0.00013375282287597656
sg268
I1
sg269
I8
sa(dp273
g265
I16
sg266
F0.009519815444946289
sg267
F8.273124694824219e-05
sg268
I1
sg269
I7
sa(dp274
g265
I11
sg266
F0.0025010108947753906
sg267
F4.315376281738281e-05
sg268
I1
sg269
I6
sasS'total_cqs'
p275
I14
ssI29
(dp276
S'iters'
p277
I1
sS'meta'
p278
(lp279
(dp280
S'objective'
p281
I1
sS'query_time'
p282
F0.008714914321899414
sS'comp_time'
p283
F0.0022268295288085938
sS'exec_cq'
p284
I2
sS'total_cq'
p285
I2
sasS'total_cqs'
p286
I2
ssI30
(dp287
S'iters'
p288
I1
sS'meta'
p289
(lp290
(dp291
S'objective'
p292
I1
sS'query_time'
p293
F0.3733479976654053
sS'comp_time'
p294
F0.0023348331451416016
sS'exec_cq'
p295
I2
sS'total_cq'
p296
I2
sasS'total_cqs'
p297
I2
ssI31
(dp298
S'iters'
p299
I3
sS'meta'
p300
(lp301
(dp302
S'objective'
p303
I7
sS'query_time'
p304
F6.084728002548218
sS'comp_time'
p305
F0.07855606079101562
sS'exec_cq'
p306
I9
sS'total_cq'
p307
I9
sa(dp308
g303
I3
sg304
F0.008878946304321289
sg305
F0.013361930847167969
sg306
I3
sg307
I3
sa(dp309
g303
I1
sg304
F0.003287792205810547
sg305
F0.006073951721191406
sg306
I2
sg307
I2
sasS'total_cqs'
p310
I9
ssI32
(dp311
S'iters'
p312
I3
sS'meta'
p313
(lp314
(dp315
S'objective'
p316
I2
sS'query_time'
p317
F21.608050107955933
sS'comp_time'
p318
F2.183198928833008
sS'exec_cq'
p319
I4
sS'total_cq'
p320
I7
sa(dp321
g316
I5
sg317
F1.1818270683288574
sg318
F0.0031418800354003906
sg319
I2
sg320
I5
sa(dp322
g316
I0
sg317
F0.29640984535217285
sg318
F0.3223111629486084
sg319
I2
sg320
I3
sasS'total_cqs'
p323
I7
ssI33
(dp324
S'iters'
p325
I1
sS'meta'
p326
(lp327
(dp328
S'objective'
p329
I1
sS'query_time'
p330
F0.05290102958679199
sS'comp_time'
p331
F0.0016303062438964844
sS'exec_cq'
p332
I2
sS'total_cq'
p333
I2
sasS'total_cqs'
p334
I2
ssI34
(dp335
S'iters'
p336
I0
sS'meta'
p337
(lp338
sS'total_cqs'
p339
I1
ssI35
(dp340
S'iters'
p341
I2
sS'meta'
p342
(lp343
(dp344
S'objective'
p345
I1
sS'query_time'
p346
F14.226885080337524
sS'comp_time'
p347
F0.10299038887023926
sS'exec_cq'
p348
I4
sS'total_cq'
p349
I5
sa(dp350
g345
I1
sg346
F0.017416000366210938
sg347
F0.14700007438659668
sg348
I2
sg349
I3
sasS'total_cqs'
p351
I5
ssI37
(dp352
S'iters'
p353
I2
sS'meta'
p354
(lp355
(dp356
S'objective'
p357
I25
sS'query_time'
p358
F1.7896490097045898
sS'comp_time'
p359
F0.12070131301879883
sS'exec_cq'
p360
I8
sS'total_cq'
p361
I10
sa(dp362
g357
I3
sg358
F0.003000020980834961
sg359
F0.06295084953308105
sg360
I2
sg361
I2
sasS'total_cqs'
p363
I10
ssI38
(dp364
S'iters'
p365
I0
sS'meta'
p366
(lp367
sS'total_cqs'
p368
I1
ssI39
(dp369
S'iters'
p370
I0
sS'meta'
p371
(lp372
sS'total_cqs'
p373
I1
ssI40
(dp374
S'iters'
p375
I1
sS'meta'
p376
(lp377
(dp378
S'objective'
p379
I1
sS'query_time'
p380
F0.016180038452148438
sS'comp_time'
p381
F0.002166748046875
sS'exec_cq'
p382
I1
sS'total_cq'
p383
I2
sasS'total_cqs'
p384
I2
ssI41
(dp385
S'iters'
p386
I3
sS'meta'
p387
(lp388
(dp389
S'objective'
p390
I1
sS'query_time'
p391
F10.153427124023438
sS'comp_time'
p392
F0.8133728504180908
sS'exec_cq'
p393
I3
sS'total_cq'
p394
I6
sa(dp395
g390
I4
sg391
F0.7392230033874512
sg392
F0.0006949901580810547
sg393
I2
sg394
I4
sa(dp396
g390
I1
sg391
F0.0006070137023925781
sg392
F0.000926971435546875
sg393
I2
sg394
I2
sasS'total_cqs'
p397
I6
ssI42
(dp398
S'iters'
p399
I1
sS'meta'
p400
(lp401
(dp402
S'objective'
p403
I1
sS'query_time'
p404
F0.01601386070251465
sS'comp_time'
p405
F0.0009043216705322266
sS'exec_cq'
p406
I1
sS'total_cq'
p407
I2
sasS'total_cqs'
p408
I2
ssI43
(dp409
S'iters'
p410
I0
sS'meta'
p411
(lp412
sS'total_cqs'
p413
I1
ssI44
(dp414
S'iters'
p415
I2
sS'meta'
p416
(lp417
(dp418
S'objective'
p419
I3
sS'query_time'
p420
F0.2344670295715332
sS'comp_time'
p421
F0.11286401748657227
sS'exec_cq'
p422
I2
sS'total_cq'
p423
I5
sa(dp424
g419
I1
sg420
F1.116006851196289
sg421
F0.027386188507080078
sg422
I3
sg423
I3
sasS'total_cqs'
p425
I5
ssI45
(dp426
S'iters'
p427
I2
sS'meta'
p428
(lp429
(dp430
S'objective'
p431
I3
sS'query_time'
p432
F0.061840057373046875
sS'comp_time'
p433
F0.0021810531616210938
sS'exec_cq'
p434
I3
sS'total_cq'
p435
I5
sa(dp436
g431
I2
sg432
F0.0001571178436279297
sg433
F0.00020599365234375
sg434
I2
sg435
I2
sasS'total_cqs'
p437
I5
ssI46
(dp438
S'iters'
p439
I0
sS'meta'
p440
(lp441
sS'total_cqs'
p442
I1
ssI47
(dp443
S'iters'
p444
I0
sS'meta'
p445
(lp446
sS'total_cqs'
p447
I1
ssI48
(dp448
S'iters'
p449
I1
sS'meta'
p450
(lp451
(dp452
S'objective'
p453
I1
sS'query_time'
p454
F0.09634113311767578
sS'comp_time'
p455
F0.0016169548034667969
sS'exec_cq'
p456
I2
sS'total_cq'
p457
I2
sasS'total_cqs'
p458
I2
ssI49
(dp459
S'iters'
p460
I2
sS'meta'
p461
(lp462
(dp463
S'objective'
p464
I1
sS'query_time'
p465
F0.240325927734375
sS'comp_time'
p466
F0.0039615631103515625
sS'exec_cq'
p467
I4
sS'total_cq'
p468
I5
sa(dp469
g464
I1
sg465
F3.695487976074219e-05
sg466
F0.00012159347534179688
sg467
I2
sg468
I3
sasS'total_cqs'
p470
I5
ssI50
(dp471
S'iters'
p472
I2
sS'meta'
p473
(lp474
(dp475
S'objective'
p476
I5
sS'query_time'
p477
F0.6872830390930176
sS'comp_time'
p478
F0.0028715133666992188
sS'exec_cq'
p479
I5
sS'total_cq'
p480
I5
sa(dp481
g476
I2
sg477
F0.00013899803161621094
sg478
F0.0003330707550048828
sg479
I4
sg480
I4
sasS'total_cqs'
p482
I5
ssI51
(dp483
S'iters'
p484
I0
sS'meta'
p485
(lp486
sS'total_cqs'
p487
I1
ssI52
(dp488
S'iters'
p489
I0
sS'meta'
p490
(lp491
sS'total_cqs'
p492
I1
ssI53
(dp493
S'iters'
p494
I0
sS'meta'
p495
(lp496
sS'total_cqs'
p497
I1
ssI55
(dp498
S'iters'
p499
I1
sS'meta'
p500
(lp501
(dp502
S'objective'
p503
I1
sS'query_time'
p504
F24.800312995910645
sS'comp_time'
p505
F0.017105817794799805
sS'exec_cq'
p506
I2
sS'total_cq'
p507
I2
sasS'total_cqs'
p508
I2
ssI56
(dp509
S'iters'
p510
I0
sS'meta'
p511
(lp512
sS'total_cqs'
p513
I1
ssI57
(dp514
S'iters'
p515
I1
sS'meta'
p516
(lp517
(dp518
S'objective'
p519
I0
sS'query_time'
p520
F12.48493504524231
sS'comp_time'
p521
F0.9120855331420898
sS'exec_cq'
p522
I2
sS'total_cq'
p523
I3
sasS'total_cqs'
p524
I3
ssI108
(dp525
S'iters'
p526
I0
sS'meta'
p527
(lp528
sS'total_cqs'
p529
I1
ssI109
(dp530
S'iters'
p531
I0
sS'meta'
p532
(lp533
sS'total_cqs'
p534
I1
ssI116
(dp535
S'iters'
p536
I2
sS'meta'
p537
(lp538
(dp539
S'objective'
p540
I169
sS'query_time'
p541
F4.209877014160156
sS'comp_time'
p542
F0.1744530200958252
sS'exec_cq'
p543
I17
sS'total_cq'
p544
I21
sa(dp545
g540
I7
sg541
F0.0009081363677978516
sg542
F0.0009250640869140625
sg543
I2
sg544
I2
sasS'total_cqs'
p546
I21
ssI117
(dp547
S'iters'
p548
I2
sS'meta'
p549
(lp550
(dp551
S'objective'
p552
I5
sS'query_time'
p553
F0.013376951217651367
sS'comp_time'
p554
F0.0022661685943603516
sS'exec_cq'
p555
I3
sS'total_cq'
p556
I5
sa(dp557
g552
I2
sg553
F0.002398252487182617
sg554
F3.266334533691406e-05
sg555
I3
sg556
I4
sasS'total_cqs'
p558
I5
ssI118
(dp559
S'iters'
p560
I0
sS'meta'
p561
(lp562
sS'total_cqs'
p563
I1
ssI122
(dp564
S'iters'
p565
I0
sS'meta'
p566
(lp567
sS'total_cqs'
p568
I1
ss.