(dp0
I1
(dp1
S'iters'
p2
I3
sS'meta'
p3
(lp4
(dp5
S'objective'
p6
I1
sS'query_time'
p7
F36.285109996795654
sS'comp_time'
p8
F2.6390841007232666
sS'exec_cq'
p9
I2
sS'total_cq'
p10
I6
sa(dp11
g6
I0
sg7
F12.422751188278198
sg8
F0.7125089168548584
sg9
I3
sg10
I4
sa(dp12
g6
I3
sg7
F0.16986680030822754
sg8
F0.6664090156555176
sg9
I2
sg10
I2
sasS'total_cqs'
p13
I6
ssI2
(dp14
S'iters'
p15
I1
sS'meta'
p16
(lp17
(dp18
S'objective'
p19
I19
sS'query_time'
p20
F0.8866040706634521
sS'comp_time'
p21
F0.32450222969055176
sS'exec_cq'
p22
I5
sS'total_cq'
p23
I6
sasS'total_cqs'
p24
I6
ssI3
(dp25
S'iters'
p26
I14
sS'meta'
p27
(lp28
(dp29
S'objective'
p30
I439
sS'query_time'
p31
F25.767235040664673
sS'comp_time'
p32
F0.4595811367034912
sS'exec_cq'
p33
I15
sS'total_cq'
p34
I33
sa(dp35
g30
I356
sg31
F0.3226919174194336
sg32
F0.021664142608642578
sg33
I13
sg34
I30
sa(dp36
g30
I308
sg31
F0.17091798782348633
sg32
F0.08066773414611816
sg33
I12
sg34
I27
sa(dp37
g30
I252
sg31
F0.0029458999633789062
sg32
F0.017731904983520508
sg33
I10
sg34
I24
sa(dp38
g30
I248
sg31
F0.07798385620117188
sg32
F0.0610041618347168
sg33
I9
sg34
I22
sa(dp39
g30
I165
sg31
F0.003170013427734375
sg32
F0.01743793487548828
sg33
I8
sg34
I21
sa(dp40
g30
I180
sg31
F0.008862018585205078
sg32
F0.12970590591430664
sg33
I8
sg34
I18
sa(dp41
g30
I167
sg31
F3.2901763916015625e-05
sg32
F0.0026917457580566406
sg33
I5
sg34
I15
sa(dp42
g30
I120
sg31
F0.1851201057434082
sg32
F0.020812273025512695
sg33
I5
sg34
I14
sa(dp43
g30
I52
sg31
F0.0027360916137695312
sg32
F0.016112804412841797
sg33
I5
sg34
I13
sa(dp44
g30
I24
sg31
F0.4581298828125
sg32
F0.4011211395263672
sg33
I4
sg34
I10
sa(dp45
g30
I37
sg31
F0.1537609100341797
sg32
F0.02161097526550293
sg33
I4
sg34
I7
sa(dp46
g30
I30
sg31
F0.0021278858184814453
sg32
F0.016242027282714844
sg33
I4
sg34
I6
sa(dp47
g30
I38
sg31
F0.003899097442626953
sg32
F0.016516685485839844
sg33
I3
sg34
I5
sasS'total_cqs'
p48
I33
ssI4
(dp49
S'iters'
p50
I0
sS'meta'
p51
(lp52
sS'total_cqs'
p53
I1
ssI5
(dp54
S'iters'
p55
I0
sS'meta'
p56
(lp57
sS'total_cqs'
p58
I1
ssI6
(dp59
S'iters'
p60
I3
sS'meta'
p61
(lp62
(dp63
S'objective'
p64
I1
sS'query_time'
p65
F14.770807981491089
sS'comp_time'
p66
F0.0070493221282958984
sS'exec_cq'
p67
I4
sS'total_cq'
p68
I5
sa(dp69
g64
I1
sg65
F0.0005559921264648438
sg66
F0.0031359195709228516
sg67
I2
sg68
I3
sa(dp70
g64
I1
sg65
F7.200241088867188e-05
sg66
F0.0005512237548828125
sg67
I1
sg68
I2
sasS'total_cqs'
p71
I5
ssI7
(dp72
S'iters'
p73
I0
sS'meta'
p74
(lp75
sS'total_cqs'
p76
I1
ssI8
(dp77
S'iters'
p78
I5
sS'meta'
p79
(lp80
(dp81
S'objective'
p82
I11
sS'query_time'
p83
F23.45598316192627
sS'comp_time'
p84
F0.28795599937438965
sS'exec_cq'
p85
I5
sS'total_cq'
p86
I6
sa(dp87
g82
I4
sg83
F41.84789705276489
sg84
F41.601680278778076
sg85
I4
sg86
I5
sa(dp88
g82
I4
sg83
F0.9848918914794922
sg84
F0.9332809448242188
sg85
I3
sg86
I4
sa(dp89
g82
I3
sg83
F0.002852916717529297
sg84
F0.0023152828216552734
sg85
I2
sg86
I3
sa(dp90
g82
I3
sg83
F0.0012760162353515625
sg84
F0.0014193058013916016
sg85
I1
sg86
I2
sasS'total_cqs'
p91
I6
ssI9
(dp92
S'iters'
p93
I3
sS'meta'
p94
(lp95
(dp96
S'objective'
p97
I3
sS'query_time'
p98
F11.63547396659851
sS'comp_time'
p99
F0.5064406394958496
sS'exec_cq'
p100
I3
sS'total_cq'
p101
I6
sa(dp102
g97
I3
sg98
F0.056097984313964844
sg99
F0.44480180740356445
sg100
I3
sg101
I3
sa(dp103
g97
I1
sg98
F0.043721914291381836
sg99
F0.41854000091552734
sg100
I2
sg101
I2
sasS'total_cqs'
p104
I6
ssI10
(dp105
S'iters'
p106
I0
sS'meta'
p107
(lp108
sS'total_cqs'
p109
I1
ssI11
(dp110
S'iters'
p111
I0
sS'meta'
p112
(lp113
sS'total_cqs'
p114
I1
ssI12
(dp115
S'iters'
p116
I0
sS'meta'
p117
(lp118
sS'total_cqs'
p119
I1
ssI13
(dp120
S'iters'
p121
I2
sS'meta'
p122
(lp123
(dp124
S'objective'
p125
I26
sS'query_time'
p126
F0.016575098037719727
sS'comp_time'
p127
F0.008473873138427734
sS'exec_cq'
p128
I6
sS'total_cq'
p129
I8
sa(dp130
g125
I29
sg126
F2.8133392333984375e-05
sg127
F0.00011110305786132812
sg128
I5
sg129
I7
sasS'total_cqs'
p131
I8
ssI14
(dp132
S'iters'
p133
I3
sS'meta'
p134
(lp135
(dp136
S'objective'
p137
I5
sS'query_time'
p138
F1.11332106590271
sS'comp_time'
p139
F0.0184171199798584
sS'exec_cq'
p140
I5
sS'total_cq'
p141
I5
sa(dp142
g137
I4
sg138
F0.0005590915679931641
sg139
F0.003789186477661133
sg140
I4
sg141
I4
sa(dp143
g137
I5
sg138
F0.0006160736083984375
sg139
F0.003747701644897461
sg140
I3
sg141
I3
sasS'total_cqs'
p144
I5
ssI16
(dp145
S'iters'
p146
I3
sS'meta'
p147
(lp148
(dp149
S'objective'
p150
I3
sS'query_time'
p151
F1.379094123840332
sS'comp_time'
p152
F0.009519815444946289
sS'exec_cq'
p153
I4
sS'total_cq'
p154
I5
sa(dp155
g150
I0
sg151
F0.0011219978332519531
sg152
F0.005567789077758789
sg153
I3
sg154
I3
sa(dp156
g150
I1
sg151
F0.00017213821411132812
sg152
F0.0010869503021240234
sg153
I2
sg154
I2
sasS'total_cqs'
p157
I5
ssI17
(dp158
S'iters'
p159
I0
sS'meta'
p160
(lp161
sS'total_cqs'
p162
I1
ssI18
(dp163
S'iters'
p164
I3
sS'meta'
p165
(lp166
(dp167
S'objective'
p168
I1
sS'query_time'
p169
F0.17168593406677246
sS'comp_time'
p170
F0.004714012145996094
sS'exec_cq'
p171
I4
sS'total_cq'
p172
I5
sa(dp173
g168
I0
sg169
F0.04481101036071777
sg170
F0.0002758502960205078
sg171
I1
sg172
I3
sa(dp174
g168
I2
sg169
F4.601478576660156e-05
sg170
F0.0001881122589111328
sg171
I2
sg172
I2
sasS'total_cqs'
p175
I5
ssI19
(dp176
S'iters'
p177
I0
sS'meta'
p178
(lp179
sS'total_cqs'
p180
I1
ssI20
(dp181
S'iters'
p182
I6
sS'meta'
p183
(lp184
(dp185
S'objective'
p186
I40
sS'query_time'
p187
F9.347769021987915
sS'comp_time'
p188
F1.5214567184448242
sS'exec_cq'
p189
I6
sS'total_cq'
p190
I12
sa(dp191
g186
I25
sg187
F0.2257239818572998
sg188
F1.1264278888702393
sg189
I4
sg190
I10
sa(dp192
g186
I16
sg187
F4.0226240158081055
sg188
F0.3228433132171631
sg189
I4
sg190
I8
sa(dp193
g186
I25
sg187
F0.00292205810546875
sg188
F0.0001468658447265625
sg189
I3
sg190
I6
sa(dp194
g186
I15
sg187
F0.06597495079040527
sg188
F0.7527379989624023
sg189
I3
sg190
I5
sa(dp195
g186
I19
sg187
F0.11252903938293457
sg188
F0.005213022232055664
sg189
I4
sg190
I4
sasS'total_cqs'
p196
I12
ssI21
(dp197
S'iters'
p198
I5
sS'meta'
p199
(lp200
(dp201
S'objective'
p202
I57
sS'query_time'
p203
F30.541635036468506
sS'comp_time'
p204
F0.3739449977874756
sS'exec_cq'
p205
I8
sS'total_cq'
p206
I14
sa(dp207
g202
I27
sg203
F0.011600017547607422
sg204
F0.06969523429870605
sg205
I6
sg206
I12
sa(dp208
g202
I6
sg203
F30.433223009109497
sg204
F2.1796748638153076
sg205
I4
sg206
I8
sa(dp209
g202
I0
sg203
F0.0012059211730957031
sg204
F0.008511781692504883
sg205
I2
sg206
I4
sa(dp210
g202
I13
sg203
F0.014088869094848633
sg204
F0.00025200843811035156
sg205
I1
sg206
I2
sasS'total_cqs'
p211
I14
ssI22
(dp212
S'iters'
p213
I1
sS'meta'
p214
(lp215
(dp216
S'objective'
p217
I1
sS'query_time'
p218
F0.00351715087890625
sS'comp_time'
p219
F0.0015468597412109375
sS'exec_cq'
p220
I1
sS'total_cq'
p221
I2
sasS'total_cqs'
p222
I2
ssI23
(dp223
S'iters'
p224
I0
sS'meta'
p225
(lp226
sS'total_cqs'
p227
I1
ssI24
(dp228
S'iters'
p229
I0
sS'meta'
p230
(lp231
sS'total_cqs'
p232
I1
ssI25
(dp233
S'iters'
p234
I4
sS'meta'
p235
(lp236
(dp237
S'objective'
p238
I2
sS'query_time'
p239
F48.38203692436218
sS'comp_time'
p240
F4.889465093612671
sS'exec_cq'
p241
I4
sS'total_cq'
p242
I7
sa(dp243
g238
I5
sg239
F0.07033014297485352
sg240
F0.11078190803527832
sg241
I2
sg242
I5
sa(dp244
g238
I2
sg239
F4.886369943618774
sg240
F0.3912675380706787
sg241
I2
sg242
I4
sa(dp245
g238
I2
sg239
F0.010734081268310547
sg240
F0.05119061470031738
sg241
I1
sg242
I2
sasS'total_cqs'
p246
I7
ssI26
(dp247
S'iters'
p248
I9
sS'meta'
p249
(lp250
(dp251
S'objective'
p252
I57
sS'query_time'
p253
F0.3495640754699707
sS'comp_time'
p254
F0.03327584266662598
sS'exec_cq'
p255
I4
sS'total_cq'
p256
I13
sa(dp257
g252
I26
sg253
F5.21753191947937
sg254
F0.021179914474487305
sg255
I2
sg256
I11
sa(dp258
g252
I26
sg253
F21.941828966140747
sg254
F4.738718748092651
sg255
I3
sg256
I9
sa(dp259
g252
I20
sg253
F0.0009350776672363281
sg254
F0.004998922348022461
sg255
I2
sg256
I8
sa(dp260
g252
I7
sg253
F0.014375925064086914
sg254
F0.000293731689453125
sg255
I2
sg256
I7
sa(dp261
g252
I8
sg253
F0.001188039779663086
sg254
F0.006870746612548828
sg255
I2
sg256
I5
sa(dp262
g252
I1
sg253
F0.02570199966430664
sg254
F0.001699209213256836
sg255
I1
sg256
I4
sa(dp263
g252
I1
sg253
F0.0011470317840576172
sg254
F0.0033648014068603516
sg255
I1
sg256
I3
sa(dp264
g252
I1
sg253
F0.00021386146545410156
sg254
F0.0012669563293457031
sg255
I1
sg256
I2
sasS'total_cqs'
p265
I13
ssI27
(dp266
S'iters'
p267
I1
sS'meta'
p268
(lp269
(dp270
S'objective'
p271
I1
sS'query_time'
p272
F0.30155491828918457
sS'comp_time'
p273
F0.0072858333587646484
sS'exec_cq'
p274
I1
sS'total_cq'
p275
I2
sasS'total_cqs'
p276
I2
ssI28
(dp277
S'iters'
p278
I10
sS'meta'
p279
(lp280
(dp281
S'objective'
p282
I69
sS'query_time'
p283
F1.5373008251190186
sS'comp_time'
p284
F0.09990787506103516
sS'exec_cq'
p285
I6
sS'total_cq'
p286
I14
sa(dp287
g282
I59
sg283
F0.005825996398925781
sg284
F0.00037598609924316406
sg285
I2
sg286
I11
sa(dp288
g282
I53
sg283
F0.007655143737792969
sg284
F0.029905080795288086
sg285
I3
sg286
I10
sa(dp289
g282
I37
sg283
F0.003690004348754883
sg284
F0.00022339820861816406
sg285
I1
sg286
I8
sa(dp290
g282
I26
sg283
F0.017987966537475586
sg284
F0.0010399818420410156
sg285
I1
sg286
I7
sa(dp291
g282
I16
sg283
F0.009826898574829102
sg284
F0.0005650520324707031
sg285
I1
sg286
I6
sa(dp292
g282
I7
sg283
F1.0967254638671875e-05
sg284
F8.487701416015625e-05
sg285
I1
sg286
I5
sa(dp293
g282
I3
sg283
F0.01540517807006836
sg284
F0.001138925552368164
sg285
I1
sg286
I4
sa(dp294
g282
I0
sg283
F0.004789113998413086
sg284
F0.02326798439025879
sg285
I1
sg286
I3
sa(dp295
g282
I3
sg283
F0.0030930042266845703
sg284
F0.0001289844512939453
sg285
I1
sg286
I2
sasS'total_cqs'
p296
I14
ssI29
(dp297
S'iters'
p298
I1
sS'meta'
p299
(lp300
(dp301
S'objective'
p302
I1
sS'query_time'
p303
F0.008148908615112305
sS'comp_time'
p304
F0.0016982555389404297
sS'exec_cq'
p305
I2
sS'total_cq'
p306
I2
sasS'total_cqs'
p307
I2
ssI30
(dp308
S'iters'
p309
I1
sS'meta'
p310
(lp311
(dp312
S'objective'
p313
I1
sS'query_time'
p314
F0.36139512062072754
sS'comp_time'
p315
F0.005471467971801758
sS'exec_cq'
p316
I2
sS'total_cq'
p317
I2
sasS'total_cqs'
p318
I2
ssI31
(dp319
S'iters'
p320
I4
sS'meta'
p321
(lp322
(dp323
S'objective'
p324
I15
sS'query_time'
p325
F4.365478038787842
sS'comp_time'
p326
F0.46617674827575684
sS'exec_cq'
p327
I4
sS'total_cq'
p328
I9
sa(dp329
g324
I14
sg325
F1.512394905090332
sg326
F0.12173700332641602
sg327
I5
sg328
I7
sa(dp330
g324
I2
sg325
F0.008960962295532227
sg326
F0.04701685905456543
sg327
I3
sg328
I3
sa(dp331
g324
I1
sg325
F0.008673906326293945
sg326
F0.04741787910461426
sg327
I2
sg328
I2
sasS'total_cqs'
p332
I9
ssI32
(dp333
S'iters'
p334
I4
sS'meta'
p335
(lp336
(dp337
S'objective'
p338
I2
sS'query_time'
p339
F22.786967039108276
sS'comp_time'
p340
F4.503536939620972
sS'exec_cq'
p341
I4
sS'total_cq'
p342
I7
sa(dp343
g338
I1
sg339
F1.0924890041351318
sg340
F0.02097916603088379
sg341
I2
sg342
I4
sa(dp344
g338
I2
sg339
F0.0017518997192382812
sg340
F0.013769865036010742
sg341
I1
sg342
I3
sa(dp345
g338
I1
sg339
F0.5518841743469238
sg340
F1.8930919170379639
sg341
I1
sg342
I2
sasS'total_cqs'
p346
I7
ssI33
(dp347
S'iters'
p348
I1
sS'meta'
p349
(lp350
(dp351
S'objective'
p352
I1
sS'query_time'
p353
F0.04313802719116211
sS'comp_time'
p354
F0.0018587112426757812
sS'exec_cq'
p355
I2
sS'total_cq'
p356
I2
sasS'total_cqs'
p357
I2
ssI34
(dp358
S'iters'
p359
I0
sS'meta'
p360
(lp361
sS'total_cqs'
p362
I1
ssI35
(dp363
S'iters'
p364
I3
sS'meta'
p365
(lp366
(dp367
S'objective'
p368
I1
sS'query_time'
p369
F13.886957883834839
sS'comp_time'
p370
F0.31096887588500977
sS'exec_cq'
p371
I4
sS'total_cq'
p372
I5
sa(dp373
g368
I2
sg369
F0.08323383331298828
sg370
F0.08382606506347656
sg371
I2
sg372
I3
sa(dp374
g368
I1
sg369
F0.012971878051757812
sg370
F0.14502525329589844
sg371
I2
sg372
I2
sasS'total_cqs'
p375
I5
ssI37
(dp376
S'iters'
p377
I2
sS'meta'
p378
(lp379
(dp380
S'objective'
p381
I43
sS'query_time'
p382
F0.5139379501342773
sS'comp_time'
p383
F0.08042335510253906
sS'exec_cq'
p384
I4
sS'total_cq'
p385
I10
sa(dp386
g381
I4
sg382
F0.004889965057373047
sg383
F0.021091938018798828
sg384
I2
sg385
I2
sasS'total_cqs'
p387
I10
ssI38
(dp388
S'iters'
p389
I0
sS'meta'
p390
(lp391
sS'total_cqs'
p392
I1
ssI39
(dp393
S'iters'
p394
I0
sS'meta'
p395
(lp396
sS'total_cqs'
p397
I1
ssI40
(dp398
S'iters'
p399
I1
sS'meta'
p400
(lp401
(dp402
S'objective'
p403
I1
sS'query_time'
p404
F0.002936124801635742
sS'comp_time'
p405
F0.0005390644073486328
sS'exec_cq'
p406
I1
sS'total_cq'
p407
I2
sasS'total_cqs'
p408
I2
ssI41
(dp409
S'iters'
p410
I3
sS'meta'
p411
(lp412
(dp413
S'objective'
p414
I11
sS'query_time'
p415
F10.111939907073975
sS'comp_time'
p416
F1.8844561576843262
sS'exec_cq'
p417
I3
sS'total_cq'
p418
I6
sa(dp419
g414
I4
sg415
F0.738239049911499
sg416
F0.004091978073120117
sg417
I2
sg418
I4
sa(dp420
g414
I4
sg415
F0.0006420612335205078
sg416
F0.0034029483795166016
sg417
I2
sg418
I2
sasS'total_cqs'
p421
I6
ssI42
(dp422
S'iters'
p423
I1
sS'meta'
p424
(lp425
(dp426
S'objective'
p427
I1
sS'query_time'
p428
F0.03354191780090332
sS'comp_time'
p429
F0.0008442401885986328
sS'exec_cq'
p430
I1
sS'total_cq'
p431
I2
sasS'total_cqs'
p432
I2
ssI43
(dp433
S'iters'
p434
I0
sS'meta'
p435
(lp436
sS'total_cqs'
p437
I1
ssI44
(dp438
S'iters'
p439
I4
sS'meta'
p440
(lp441
(dp442
S'objective'
p443
I5
sS'query_time'
p444
F1.4530670642852783
sS'comp_time'
p445
F0.22975468635559082
sS'exec_cq'
p446
I2
sS'total_cq'
p447
I5
sa(dp448
g443
I4
sg444
F0.24739408493041992
sg445
F0.002402067184448242
sg446
I2
sg447
I4
sa(dp449
g443
I1
sg444
F6.699562072753906e-05
sg445
F0.0004868507385253906
sg446
I1
sg447
I3
sa(dp450
g443
I1
sg444
F0.023463010787963867
sg445
F0.2560539245605469
sg446
I1
sg447
I2
sasS'total_cqs'
p451
I5
ssI45
(dp452
S'iters'
p453
I2
sS'meta'
p454
(lp455
(dp456
S'objective'
p457
I9
sS'query_time'
p458
F0.03229188919067383
sS'comp_time'
p459
F0.008807182312011719
sS'exec_cq'
p460
I3
sS'total_cq'
p461
I5
sa(dp462
g457
I1
sg458
F0.00014591217041015625
sg459
F0.054947853088378906
sg460
I2
sg461
I2
sasS'total_cqs'
p463
I5
ssI46
(dp464
S'iters'
p465
I0
sS'meta'
p466
(lp467
sS'total_cqs'
p468
I1
ssI47
(dp469
S'iters'
p470
I0
sS'meta'
p471
(lp472
sS'total_cqs'
p473
I1
ssI48
(dp474
S'iters'
p475
I1
sS'meta'
p476
(lp477
(dp478
S'objective'
p479
I1
sS'query_time'
p480
F0.08890914916992188
sS'comp_time'
p481
F0.004584789276123047
sS'exec_cq'
p482
I2
sS'total_cq'
p483
I2
sasS'total_cqs'
p484
I2
ssI49
(dp485
S'iters'
p486
I2
sS'meta'
p487
(lp488
(dp489
S'objective'
p490
I1
sS'query_time'
p491
F0.1600339412689209
sS'comp_time'
p492
F0.005322933197021484
sS'exec_cq'
p493
I4
sS'total_cq'
p494
I5
sa(dp495
g490
I6
sg491
F3.1948089599609375e-05
sg492
F0.00019478797912597656
sg493
I2
sg494
I3
sasS'total_cqs'
p496
I5
ssI50
(dp497
S'iters'
p498
I4
sS'meta'
p499
(lp500
(dp501
S'objective'
p502
I5
sS'query_time'
p503
F0.6448469161987305
sS'comp_time'
p504
F0.002540111541748047
sS'exec_cq'
p505
I5
sS'total_cq'
p506
I5
sa(dp507
g502
I2
sg503
F0.00020194053649902344
sg504
F0.003687143325805664
sg505
I4
sg506
I4
sa(dp508
g502
I0
sg503
F0.00017499923706054688
sg504
F0.001168966293334961
sg505
I3
sg506
I3
sa(dp509
g502
I1
sg503
F0.00010585784912109375
sg504
F0.0006885528564453125
sg505
I2
sg506
I2
sasS'total_cqs'
p510
I5
ssI51
(dp511
S'iters'
p512
I0
sS'meta'
p513
(lp514
sS'total_cqs'
p515
I1
ssI52
(dp516
S'iters'
p517
I0
sS'meta'
p518
(lp519
sS'total_cqs'
p520
I1
ssI53
(dp521
S'iters'
p522
I0
sS'meta'
p523
(lp524
sS'total_cqs'
p525
I1
ssI55
(dp526
S'iters'
p527
I1
sS'meta'
p528
(lp529
(dp530
S'objective'
p531
I1
sS'query_time'
p532
F24.421754121780396
sS'comp_time'
p533
F3.438394069671631
sS'exec_cq'
p534
I2
sS'total_cq'
p535
I2
sasS'total_cqs'
p536
I2
ssI56
(dp537
S'iters'
p538
I0
sS'meta'
p539
(lp540
sS'total_cqs'
p541
I1
ssI57
(dp542
S'iters'
p543
I2
sS'meta'
p544
(lp545
(dp546
S'objective'
p547
I0
sS'query_time'
p548
F12.658169984817505
sS'comp_time'
p549
F2.396239995956421
sS'exec_cq'
p550
I2
sS'total_cq'
p551
I3
sa(dp552
g547
I1
sg548
F0.44049906730651855
sg549
F1.8818681240081787
sg550
I1
sg551
I2
sasS'total_cqs'
p553
I3
ssI108
(dp554
S'iters'
p555
I0
sS'meta'
p556
(lp557
sS'total_cqs'
p558
I1
ssI109
(dp559
S'iters'
p560
I0
sS'meta'
p561
(lp562
sS'total_cqs'
p563
I1
ssI116
(dp564
S'iters'
p565
I4
sS'meta'
p566
(lp567
(dp568
S'objective'
p569
I185
sS'query_time'
p570
F3.761460065841675
sS'comp_time'
p571
F0.4715099334716797
sS'exec_cq'
p572
I15
sS'total_cq'
p573
I21
sa(dp574
g569
I172
sg570
F0.07324409484863281
sg571
F0.0025064945220947266
sg572
I13
sg573
I19
sa(dp575
g569
I154
sg570
F0.5484786033630371
sg571
F0.003918647766113281
sg572
I14
sg573
I18
sa(dp576
g569
I16
sg570
F0.0007178783416748047
sg571
F0.003278970718383789
sg572
I2
sg573
I2
sasS'total_cqs'
p577
I21
ssI117
(dp578
S'iters'
p579
I2
sS'meta'
p580
(lp581
(dp582
S'objective'
p583
I5
sS'query_time'
p584
F0.007352113723754883
sS'comp_time'
p585
F0.001577138900756836
sS'exec_cq'
p586
I3
sS'total_cq'
p587
I5
sa(dp588
g583
I8
sg584
F0.004244089126586914
sg585
F0.00010609626770019531
sg586
I4
sg587
I4
sasS'total_cqs'
p589
I5
ssI118
(dp590
S'iters'
p591
I0
sS'meta'
p592
(lp593
sS'total_cqs'
p594
I1
ssI122
(dp595
S'iters'
p596
I0
sS'meta'
p597
(lp598
sS'total_cqs'
p599
I1
ss.