(dp0
I1
(dp1
S'iters'
p2
I4
sS'meta'
p3
(lp4
(dp5
S'objective'
p6
I9
sS'query_time'
p7
F23.890531063079834
sS'comp_time'
p8
F0.0002110004425048828
sS'exec_cq'
p9
I1
sS'total_cq'
p10
I6
sa(dp11
g6
I1
sg7
F10.084046125411987
sg8
F0.00020194053649902344
sg9
I1
sg10
I5
sa(dp12
g6
I6
sg7
F3.073837995529175
sg8
F6.389617919921875e-05
sg9
I1
sg10
I3
sa(dp13
g6
I1
sg7
F213.53513193130493
sg8
F5.698204040527344e-05
sg9
I1
sg10
I2
sasS'total_cqs'
p14
I6
ssI2
(dp15
S'iters'
p16
I1
sS'meta'
p17
(lp18
(dp19
S'objective'
p20
I13
sS'query_time'
p21
F0.7237460613250732
sS'comp_time'
p22
F7.510185241699219e-05
sS'exec_cq'
p23
I3
sS'total_cq'
p24
I6
sasS'total_cqs'
p25
I6
ssI3
(dp26
S'iters'
p27
I12
sS'meta'
p28
(lp29
(dp30
S'objective'
p31
I495
sS'query_time'
p32
F0.007411003112792969
sS'comp_time'
p33
F9.799003601074219e-05
sS'exec_cq'
p34
I1
sS'total_cq'
p35
I33
sa(dp36
g31
I430
sg32
F0.021194934844970703
sg33
F9.608268737792969e-05
sg34
I1
sg35
I32
sa(dp37
g31
I347
sg32
F0.03301095962524414
sg33
F5.412101745605469e-05
sg34
I1
sg35
I30
sa(dp38
g31
I309
sg32
F0.044690847396850586
sg33
F7.319450378417969e-05
sg34
I1
sg35
I27
sa(dp39
g31
I273
sg32
F1.0038580894470215
sg33
F0.00010800361633300781
sg34
I2
sg35
I24
sa(dp40
g31
I237
sg32
F0.01568603515625
sg33
F5.1021575927734375e-05
sg34
I2
sg35
I21
sa(dp41
g31
I225
sg32
F0.20977997779846191
sg33
F0.0001049041748046875
sg34
I2
sg35
I18
sa(dp42
g31
I133
sg32
F0.009835004806518555
sg33
F4.482269287109375e-05
sg34
I2
sg35
I17
sa(dp43
g31
I148
sg32
F0.007066965103149414
sg33
F4.1961669921875e-05
sg34
I2
sg35
I14
sa(dp44
g31
I120
sg32
F0.10446619987487793
sg33
F9.107589721679688e-05
sg34
I3
sg35
I13
sa(dp45
g31
I107
sg32
F0.041236162185668945
sg33
F7.700920104980469e-05
sg34
I3
sg35
I11
sa(dp46
g31
I90
sg32
F0.22208213806152344
sg33
F0.00011205673217773438
sg34
I3
sg35
I10
sasS'total_cqs'
p47
I33
ssI4
(dp48
S'iters'
p49
I0
sS'meta'
p50
(lp51
sS'total_cqs'
p52
I1
ssI5
(dp53
S'iters'
p54
I0
sS'meta'
p55
(lp56
sS'total_cqs'
p57
I1
ssI6
(dp58
S'iters'
p59
I3
sS'meta'
p60
(lp61
(dp62
S'objective'
p63
I5
sS'query_time'
p64
F7.261151075363159
sS'comp_time'
p65
F8.082389831542969e-05
sS'exec_cq'
p66
I1
sS'total_cq'
p67
I5
sa(dp68
g63
I2
sg64
F2.509891986846924
sg65
F4.38690185546875e-05
sg66
I1
sg67
I4
sa(dp69
g63
I2
sg64
F2.4901649951934814
sg65
F3.4809112548828125e-05
sg66
I1
sg67
I2
sasS'total_cqs'
p70
I5
ssI7
(dp71
S'iters'
p72
I0
sS'meta'
p73
(lp74
sS'total_cqs'
p75
I1
ssI8
(dp76
S'iters'
p77
I2
sS'meta'
p78
(lp79
(dp80
S'objective'
p81
I1
sS'query_time'
p82
F22.180532932281494
sS'comp_time'
p83
F0.00010418891906738281
sS'exec_cq'
p84
I1
sS'total_cq'
p85
I6
sa(dp86
g81
I2
sg82
F30.4342839717865
sg83
F0.00011110305786132812
sg84
I1
sg85
I4
sasS'total_cqs'
p87
I6
ssI9
(dp88
S'iters'
p89
I3
sS'meta'
p90
(lp91
(dp92
S'objective'
p93
I5
sS'query_time'
p94
F4.859327077865601
sS'comp_time'
p95
F6.29425048828125e-05
sS'exec_cq'
p96
I1
sS'total_cq'
p97
I6
sa(dp98
g93
I3
sg94
F21.209654092788696
sg95
F0.0004050731658935547
sg96
I1
sg97
I4
sa(dp99
g93
I0
sg94
F0.6244308948516846
sg95
F6.604194641113281e-05
sg96
I1
sg97
I3
sasS'total_cqs'
p100
I6
ssI10
(dp101
S'iters'
p102
I0
sS'meta'
p103
(lp104
sS'total_cqs'
p105
I1
ssI11
(dp106
S'iters'
p107
I0
sS'meta'
p108
(lp109
sS'total_cqs'
p110
I1
ssI12
(dp111
S'iters'
p112
I0
sS'meta'
p113
(lp114
sS'total_cqs'
p115
I1
ssI13
(dp116
S'iters'
p117
I1
sS'meta'
p118
(lp119
(dp120
S'objective'
p121
I26
sS'query_time'
p122
F0.16425514221191406
sS'comp_time'
p123
F6.198883056640625e-05
sS'exec_cq'
p124
I4
sS'total_cq'
p125
I8
sasS'total_cqs'
p126
I8
ssI14
(dp127
S'iters'
p128
I2
sS'meta'
p129
(lp130
(dp131
S'objective'
p132
I5
sS'query_time'
p133
F0.024903059005737305
sS'comp_time'
p134
F5.602836608886719e-05
sS'exec_cq'
p135
I1
sS'total_cq'
p136
I5
sa(dp137
g132
I2
sg133
F1.0498709678649902
sg134
F6.29425048828125e-05
sg135
I1
sg136
I4
sasS'total_cqs'
p138
I5
ssI16
(dp139
S'iters'
p140
I2
sS'meta'
p141
(lp142
(dp143
S'objective'
p144
I1
sS'query_time'
p145
F2.099944829940796
sS'comp_time'
p146
F7.700920104980469e-05
sS'exec_cq'
p147
I1
sS'total_cq'
p148
I5
sa(dp149
g144
I1
sg145
F0.04575490951538086
sg146
F6.4849853515625e-05
sg147
I1
sg148
I3
sasS'total_cqs'
p150
I5
ssI17
(dp151
S'iters'
p152
I0
sS'meta'
p153
(lp154
sS'total_cqs'
p155
I1
ssI18
(dp156
S'iters'
p157
I2
sS'meta'
p158
(lp159
(dp160
S'objective'
p161
I3
sS'query_time'
p162
F0.4103081226348877
sS'comp_time'
p163
F5.793571472167969e-05
sS'exec_cq'
p164
I1
sS'total_cq'
p165
I5
sa(dp166
g161
I1
sg162
F0.023952007293701172
sg163
F3.504753112792969e-05
sg164
I1
sg165
I2
sasS'total_cqs'
p167
I5
ssI19
(dp168
S'iters'
p169
I0
sS'meta'
p170
(lp171
sS'total_cqs'
p172
I1
ssI20
(dp173
S'iters'
p174
I4
sS'meta'
p175
(lp176
(dp177
S'objective'
p178
I44
sS'query_time'
p179
F6.775190114974976
sS'comp_time'
p180
F4.100799560546875e-05
sS'exec_cq'
p181
I1
sS'total_cq'
p182
I12
sa(dp183
g178
I39
sg179
F5.010157108306885
sg180
F0.0003509521484375
sg181
I1
sg182
I10
sa(dp184
g178
I32
sg179
F1.0417828559875488
sg180
F7.700920104980469e-05
sg181
I2
sg182
I9
sa(dp185
g178
I27
sg179
F0.10553812980651855
sg180
F7.200241088867188e-05
sg181
I3
sg182
I8
sasS'total_cqs'
p186
I12
ssI21
(dp187
S'iters'
p188
I5
sS'meta'
p189
(lp190
(dp191
S'objective'
p192
I17
sS'query_time'
p193
F2.8882110118865967
sS'comp_time'
p194
F6.29425048828125e-05
sS'exec_cq'
p195
I1
sS'total_cq'
p196
I14
sa(dp197
g192
I39
sg193
F0.28440403938293457
sg194
F8.893013000488281e-05
sg195
I1
sg196
I10
sa(dp198
g192
I30
sg193
F20.013813972473145
sg194
F5.984306335449219e-05
sg195
I1
sg196
I9
sa(dp199
g192
I22
sg193
F25.652942180633545
sg194
F0.00016999244689941406
sg195
I1
sg196
I8
sa(dp200
g192
I15
sg193
F0.01626110076904297
sg194
F4.410743713378906e-05
sg195
I1
sg196
I7
sasS'total_cqs'
p201
I14
ssI22
(dp202
S'iters'
p203
I1
sS'meta'
p204
(lp205
(dp206
S'objective'
p207
I1
sS'query_time'
p208
F0.004755973815917969
sS'comp_time'
p209
F4.00543212890625e-05
sS'exec_cq'
p210
I1
sS'total_cq'
p211
I2
sasS'total_cqs'
p212
I2
ssI23
(dp213
S'iters'
p214
I0
sS'meta'
p215
(lp216
sS'total_cqs'
p217
I1
ssI24
(dp218
S'iters'
p219
I0
sS'meta'
p220
(lp221
sS'total_cqs'
p222
I1
ssI25
(dp223
S'iters'
p224
I3
sS'meta'
p225
(lp226
(dp227
S'objective'
p228
I8
sS'query_time'
p229
F8.195891857147217
sS'comp_time'
p230
F9.703636169433594e-05
sS'exec_cq'
p231
I1
sS'total_cq'
p232
I7
sa(dp233
g228
I6
sg229
F24.78920006752014
sg230
F0.000164031982421875
sg231
I1
sg232
I5
sa(dp234
g228
I2
sg229
F0.15487408638000488
sg230
F7.390975952148438e-05
sg231
I1
sg232
I4
sasS'total_cqs'
p235
I7
ssI26
(dp236
S'iters'
p237
I6
sS'meta'
p238
(lp239
(dp240
S'objective'
p241
I65
sS'query_time'
p242
F0.11356997489929199
sS'comp_time'
p243
F9.393692016601562e-05
sS'exec_cq'
p244
I1
sS'total_cq'
p245
I13
sa(dp246
g241
I54
sg242
F6.655970096588135
sg243
F8.0108642578125e-05
sg244
I1
sg245
I12
sa(dp247
g241
I44
sg242
F0.03467297554016113
sg243
F4.1961669921875e-05
sg244
I1
sg245
I11
sa(dp248
g241
I23
sg242
F1.9968109130859375
sg243
F6.604194641113281e-05
sg244
I1
sg245
I10
sa(dp249
g241
I21
sg242
F0.026590824127197266
sg243
F4.696846008300781e-05
sg244
I1
sg245
I8
sa(dp250
g241
I14
sg242
F0.003934144973754883
sg243
F2.9087066650390625e-05
sg244
I1
sg245
I7
sasS'total_cqs'
p251
I13
ssI27
(dp252
S'iters'
p253
I1
sS'meta'
p254
(lp255
(dp256
S'objective'
p257
I1
sS'query_time'
p258
F0.38454103469848633
sS'comp_time'
p259
F5.984306335449219e-05
sS'exec_cq'
p260
I1
sS'total_cq'
p261
I2
sasS'total_cqs'
p262
I2
ssI28
(dp263
S'iters'
p264
I7
sS'meta'
p265
(lp266
(dp267
S'objective'
p268
I77
sS'query_time'
p269
F1.4855341911315918
sS'comp_time'
p270
F7.891654968261719e-05
sS'exec_cq'
p271
I1
sS'total_cq'
p272
I14
sa(dp273
g268
I35
sg269
F1.512826919555664
sg270
F4.410743713378906e-05
sg271
I1
sg272
I13
sa(dp274
g268
I39
sg269
F0.5676069259643555
sg270
F4.9114227294921875e-05
sg271
I1
sg272
I8
sa(dp275
g268
I29
sg269
F0.47238898277282715
sg270
F3.695487976074219e-05
sg271
I1
sg272
I7
sa(dp276
g268
I20
sg269
F0.46124815940856934
sg270
F3.790855407714844e-05
sg271
I1
sg272
I6
sa(dp277
g268
I12
sg269
F0.5983791351318359
sg270
F5.1021575927734375e-05
sg271
I1
sg272
I5
sa(dp278
g268
I5
sg269
F0.3027207851409912
sg270
F3.600120544433594e-05
sg271
I1
sg272
I4
sasS'total_cqs'
p279
I14
ssI29
(dp280
S'iters'
p281
I1
sS'meta'
p282
(lp283
(dp284
S'objective'
p285
I1
sS'query_time'
p286
F0.006638050079345703
sS'comp_time'
p287
F4.506111145019531e-05
sS'exec_cq'
p288
I1
sS'total_cq'
p289
I2
sasS'total_cqs'
p290
I2
ssI30
(dp291
S'iters'
p292
I1
sS'meta'
p293
(lp294
(dp295
S'objective'
p296
I1
sS'query_time'
p297
F0.425152063369751
sS'comp_time'
p298
F7.700920104980469e-05
sS'exec_cq'
p299
I1
sS'total_cq'
p300
I2
sasS'total_cqs'
p301
I2
ssI31
(dp302
S'iters'
p303
I4
sS'meta'
p304
(lp305
(dp306
S'objective'
p307
I27
sS'query_time'
p308
F6.319422006607056
sS'comp_time'
p309
F8.58306884765625e-05
sS'exec_cq'
p310
I1
sS'total_cq'
p311
I9
sa(dp312
g307
I20
sg308
F3.3078601360321045
sg309
F9.298324584960938e-05
sg310
I1
sg311
I8
sa(dp313
g307
I14
sg308
F6.435386896133423
sg309
F7.796287536621094e-05
sg310
I1
sg311
I7
sa(dp314
g307
I9
sg308
F0.24420595169067383
sg309
F0.0003731250762939453
sg310
I1
sg311
I6
sasS'total_cqs'
p315
I9
ssI32
(dp316
S'iters'
p317
I3
sS'meta'
p318
(lp319
(dp320
S'objective'
p321
I14
sS'query_time'
p322
F2.2964558601379395
sS'comp_time'
p323
F0.001123189926147461
sS'exec_cq'
p324
I1
sS'total_cq'
p325
I7
sa(dp326
g321
I9
sg322
F1.6871039867401123
sg323
F9.393692016601562e-05
sg324
I1
sg325
I6
sa(dp327
g321
I5
sg322
F0.1254260540008545
sg323
F0.00010514259338378906
sg324
I1
sg325
I5
sasS'total_cqs'
p328
I7
ssI33
(dp329
S'iters'
p330
I1
sS'meta'
p331
(lp332
(dp333
S'objective'
p334
I1
sS'query_time'
p335
F0.04498600959777832
sS'comp_time'
p336
F5.698204040527344e-05
sS'exec_cq'
p337
I1
sS'total_cq'
p338
I2
sasS'total_cqs'
p339
I2
ssI34
(dp340
S'iters'
p341
I0
sS'meta'
p342
(lp343
sS'total_cqs'
p344
I1
ssI35
(dp345
S'iters'
p346
I3
sS'meta'
p347
(lp348
(dp349
S'objective'
p350
I5
sS'query_time'
p351
F9.467654943466187
sS'comp_time'
p352
F9.918212890625e-05
sS'exec_cq'
p353
I1
sS'total_cq'
p354
I5
sa(dp355
g350
I0
sg351
F1.7545208930969238
sg352
F7.390975952148438e-05
sg353
I1
sg354
I4
sa(dp356
g350
I3
sg351
F0.09538888931274414
sg352
F2.9802322387695312e-05
sg353
I1
sg354
I2
sasS'total_cqs'
p357
I5
ssI37
(dp358
S'iters'
p359
I5
sS'meta'
p360
(lp361
(dp362
S'objective'
p363
I35
sS'query_time'
p364
F0.010990142822265625
sS'comp_time'
p365
F8.106231689453125e-05
sS'exec_cq'
p366
I1
sS'total_cq'
p367
I10
sa(dp368
g363
I27
sg364
F0.7254741191864014
sg365
F7.915496826171875e-05
sg366
I1
sg367
I9
sa(dp369
g363
I20
sg364
F0.005630016326904297
sg365
F4.315376281738281e-05
sg366
I1
sg367
I8
sa(dp370
g363
I14
sg364
F0.0052738189697265625
sg365
F4.506111145019531e-05
sg366
I1
sg367
I7
sa(dp371
g363
I9
sg364
F20.27997589111328
sg365
F9.489059448242188e-05
sg366
I1
sg367
I6
sasS'total_cqs'
p372
I10
ssI38
(dp373
S'iters'
p374
I0
sS'meta'
p375
(lp376
sS'total_cqs'
p377
I1
ssI39
(dp378
S'iters'
p379
I0
sS'meta'
p380
(lp381
sS'total_cqs'
p382
I1
ssI40
(dp383
S'iters'
p384
I1
sS'meta'
p385
(lp386
(dp387
S'objective'
p388
I1
sS'query_time'
p389
F18.287486791610718
sS'comp_time'
p390
F0.0002899169921875
sS'exec_cq'
p391
I2
sS'total_cq'
p392
I2
sasS'total_cqs'
p393
I2
ssI41
(dp394
S'iters'
p395
I4
sS'meta'
p396
(lp397
(dp398
S'objective'
p399
I9
sS'query_time'
p400
F0.3114631175994873
sS'comp_time'
p401
F6.723403930664062e-05
sS'exec_cq'
p402
I1
sS'total_cq'
p403
I6
sa(dp404
g399
I5
sg400
F0.33098602294921875
sg401
F8.106231689453125e-05
sg402
I1
sg403
I5
sa(dp405
g399
I2
sg400
F8.165122985839844
sg401
F8.511543273925781e-05
sg402
I1
sg403
I4
sa(dp406
g399
I2
sg400
F60.384702920913696
sg401
F7.319450378417969e-05
sg402
I2
sg403
I2
sasS'total_cqs'
p407
I6
ssI42
(dp408
S'iters'
p409
I1
sS'meta'
p410
(lp411
(dp412
S'objective'
p413
I1
sS'query_time'
p414
F0.016144990921020508
sS'comp_time'
p415
F5.2928924560546875e-05
sS'exec_cq'
p416
I1
sS'total_cq'
p417
I2
sasS'total_cqs'
p418
I2
ssI43
(dp419
S'iters'
p420
I0
sS'meta'
p421
(lp422
sS'total_cqs'
p423
I1
ssI44
(dp424
S'iters'
p425
I2
sS'meta'
p426
(lp427
(dp428
S'objective'
p429
I3
sS'query_time'
p430
F2.9744679927825928
sS'comp_time'
p431
F5.602836608886719e-05
sS'exec_cq'
p432
I1
sS'total_cq'
p433
I5
sa(dp434
g429
I1
sg430
F0.0036919116973876953
sg431
F3.910064697265625e-05
sg432
I1
sg433
I3
sasS'total_cqs'
p435
I5
ssI45
(dp436
S'iters'
p437
I2
sS'meta'
p438
(lp439
(dp440
S'objective'
p441
I5
sS'query_time'
p442
F0.04228711128234863
sS'comp_time'
p443
F5.1975250244140625e-05
sS'exec_cq'
p444
I2
sS'total_cq'
p445
I5
sa(dp446
g441
I3
sg442
F0.7787818908691406
sg443
F6.699562072753906e-05
sg444
I2
sg445
I2
sasS'total_cqs'
p447
I5
ssI46
(dp448
S'iters'
p449
I0
sS'meta'
p450
(lp451
sS'total_cqs'
p452
I1
ssI47
(dp453
S'iters'
p454
I0
sS'meta'
p455
(lp456
sS'total_cqs'
p457
I1
ssI48
(dp458
S'iters'
p459
I1
sS'meta'
p460
(lp461
(dp462
S'objective'
p463
I1
sS'query_time'
p464
F0.16667985916137695
sS'comp_time'
p465
F7.390975952148438e-05
sS'exec_cq'
p466
I1
sS'total_cq'
p467
I2
sasS'total_cqs'
p468
I2
ssI49
(dp469
S'iters'
p470
I2
sS'meta'
p471
(lp472
(dp473
S'objective'
p474
I3
sS'query_time'
p475
F4.751857042312622
sS'comp_time'
p476
F7.390975952148438e-05
sS'exec_cq'
p477
I1
sS'total_cq'
p478
I5
sa(dp479
g474
I1
sg475
F0.23453497886657715
sg476
F4.506111145019531e-05
sg477
I1
sg478
I3
sasS'total_cqs'
p480
I5
ssI50
(dp481
S'iters'
p482
I2
sS'meta'
p483
(lp484
(dp485
S'objective'
p486
I5
sS'query_time'
p487
F0.011514902114868164
sS'comp_time'
p488
F8.20159912109375e-05
sS'exec_cq'
p489
I1
sS'total_cq'
p490
I5
sa(dp491
g486
I2
sg487
F0.8987929821014404
sg488
F8.606910705566406e-05
sg489
I1
sg490
I4
sasS'total_cqs'
p492
I5
ssI51
(dp493
S'iters'
p494
I0
sS'meta'
p495
(lp496
sS'total_cqs'
p497
I1
ssI52
(dp498
S'iters'
p499
I0
sS'meta'
p500
(lp501
sS'total_cqs'
p502
I1
ssI53
(dp503
S'iters'
p504
I0
sS'meta'
p505
(lp506
sS'total_cqs'
p507
I1
ssI55
(dp508
S'iters'
p509
I1
sS'meta'
p510
(lp511
(dp512
S'objective'
p513
I1
sS'query_time'
p514
F14.32631802558899
sS'comp_time'
p515
F3.600120544433594e-05
sS'exec_cq'
p516
I1
sS'total_cq'
p517
I2
sasS'total_cqs'
p518
I2
ssI56
(dp519
S'iters'
p520
I0
sS'meta'
p521
(lp522
sS'total_cqs'
p523
I1
ssI57
(dp524
S'iters'
p525
I1
sS'meta'
p526
(lp527
(dp528
S'objective'
p529
I0
sS'query_time'
p530
F11.95424199104309
sS'comp_time'
p531
F0.00019812583923339844
sS'exec_cq'
p532
I1
sS'total_cq'
p533
I3
sasS'total_cqs'
p534
I3
ssI108
(dp535
S'iters'
p536
I0
sS'meta'
p537
(lp538
sS'total_cqs'
p539
I1
ssI109
(dp540
S'iters'
p541
I0
sS'meta'
p542
(lp543
sS'total_cqs'
p544
I1
ssI116
(dp545
S'iters'
p546
I4
sS'meta'
p547
(lp548
(dp549
S'objective'
p550
I189
sS'query_time'
p551
F0.20725202560424805
sS'comp_time'
p552
F9.703636169433594e-05
sS'exec_cq'
p553
I1
sS'total_cq'
p554
I21
sa(dp555
g550
I178
sg551
F3.8866031169891357
sg552
F0.0005311965942382812
sg553
I5
sg554
I20
sa(dp556
g550
I164
sg551
F0.10615706443786621
sg552
F7.104873657226562e-05
sg553
I5
sg554
I19
sa(dp557
g550
I155
sg551
F0.19177579879760742
sg552
F9.918212890625e-05
sg553
I7
sg554
I18
sasS'total_cqs'
p558
I21
ssI117
(dp559
S'iters'
p560
I1
sS'meta'
p561
(lp562
(dp563
S'objective'
p564
I7
sS'query_time'
p565
F0.007088899612426758
sS'comp_time'
p566
F6.914138793945312e-05
sS'exec_cq'
p567
I2
sS'total_cq'
p568
I5
sasS'total_cqs'
p569
I5
ssI118
(dp570
S'iters'
p571
I0
sS'meta'
p572
(lp573
sS'total_cqs'
p574
I1
ssI122
(dp575
S'iters'
p576
I0
sS'meta'
p577
(lp578
sS'total_cqs'
p579
I1
ss.