(dp0
I1
(dp1
S'iters'
p2
I2
sS'meta'
p3
(lp4
(dp5
S'objective'
p6
I1
sS'query_time'
p7
F24.899474143981934
sS'comp_time'
p8
F1.3195581436157227
sS'exec_cq'
p9
I6
sS'total_cq'
p10
I6
sa(dp11
g6
I1
sg7
F0.00942087173461914
sg8
F236.7912118434906
sg9
I2
sg10
I2
sasS'total_cqs'
p12
I6
ssI2
(dp13
S'iters'
p14
I1
sS'meta'
p15
(lp16
(dp17
S'objective'
p18
I9
sS'query_time'
p19
F0.7499029636383057
sS'comp_time'
p20
F0.08056998252868652
sS'exec_cq'
p21
I6
sS'total_cq'
p22
I6
sasS'total_cqs'
p23
I6
ssI3
(dp24
S'iters'
p25
I9
sS'meta'
p26
(lp27
(dp28
S'objective'
p29
I391
sS'query_time'
p30
F25.592957019805908
sS'comp_time'
p31
F0.2359788417816162
sS'exec_cq'
p32
I33
sS'total_cq'
p33
I33
sa(dp34
g29
I356
sg30
F0.0801088809967041
sg31
F0.2362229824066162
sg32
I30
sg33
I30
sa(dp35
g29
I300
sg30
F0.03258991241455078
sg31
F0.27411603927612305
sg32
I27
sg33
I27
sa(dp36
g29
I246
sg30
F0.057376861572265625
sg31
F0.08183622360229492
sg32
I24
sg33
I24
sa(dp37
g29
I194
sg30
F0.009134054183959961
sg31
F0.038086891174316406
sg32
I21
sg33
I21
sa(dp38
g29
I152
sg30
F0.031713008880615234
sg31
F0.037941932678222656
sg32
I18
sg33
I18
sa(dp39
g29
I138
sg30
F0.006523847579956055
sg31
F0.05710196495056152
sg32
I15
sg33
I15
sa(dp40
g29
I113
sg30
F0.003756999969482422
sg31
F0.020727872848510742
sg32
I14
sg33
I14
sa(dp41
g29
I89
sg30
F0.0032300949096679688
sg31
F0.02086806297302246
sg32
I13
sg33
I13
sasS'total_cqs'
p42
I33
ssI4
(dp43
S'iters'
p44
I0
sS'meta'
p45
(lp46
sS'total_cqs'
p47
I1
ssI5
(dp48
S'iters'
p49
I0
sS'meta'
p50
(lp51
sS'total_cqs'
p52
I1
ssI6
(dp53
S'iters'
p54
I2
sS'meta'
p55
(lp56
(dp57
S'objective'
p58
I1
sS'query_time'
p59
F14.705070972442627
sS'comp_time'
p60
F0.0029370784759521484
sS'exec_cq'
p61
I5
sS'total_cq'
p62
I5
sa(dp63
g58
I2
sg59
F0.00026488304138183594
sg60
F0.0011830329895019531
sg61
I2
sg62
I2
sasS'total_cqs'
p64
I5
ssI7
(dp65
S'iters'
p66
I0
sS'meta'
p67
(lp68
sS'total_cqs'
p69
I1
ssI8
(dp70
S'iters'
p71
I2
sS'meta'
p72
(lp73
(dp74
S'objective'
p75
I19
sS'query_time'
p76
F22.810727834701538
sS'comp_time'
p77
F0.2869851589202881
sS'exec_cq'
p78
I6
sS'total_cq'
p79
I6
sa(dp80
g75
I8
sg76
F0.08896493911743164
sg77
F0.0878143310546875
sg78
I5
sg79
I5
sasS'total_cqs'
p81
I6
ssI9
(dp82
S'iters'
p83
I2
sS'meta'
p84
(lp85
(dp86
S'objective'
p87
I1
sS'query_time'
p88
F52.51645088195801
sS'comp_time'
p89
F4.805294990539551
sS'exec_cq'
p90
I6
sS'total_cq'
p91
I6
sa(dp92
g87
I2
sg88
F0.04345703125
sg89
F0.38437414169311523
sg90
I2
sg91
I2
sasS'total_cqs'
p93
I6
ssI10
(dp94
S'iters'
p95
I0
sS'meta'
p96
(lp97
sS'total_cqs'
p98
I1
ssI11
(dp99
S'iters'
p100
I0
sS'meta'
p101
(lp102
sS'total_cqs'
p103
I1
ssI12
(dp104
S'iters'
p105
I0
sS'meta'
p106
(lp107
sS'total_cqs'
p108
I1
ssI13
(dp109
S'iters'
p110
I1
sS'meta'
p111
(lp112
(dp113
S'objective'
p114
I22
sS'query_time'
p115
F0.024997949600219727
sS'comp_time'
p116
F0.00013566017150878906
sS'exec_cq'
p117
I8
sS'total_cq'
p118
I8
sasS'total_cqs'
p119
I8
ssI14
(dp120
S'iters'
p121
I1
sS'meta'
p122
(lp123
(dp124
S'objective'
p125
I5
sS'query_time'
p126
F1.0604050159454346
sS'comp_time'
p127
F0.007720947265625
sS'exec_cq'
p128
I5
sS'total_cq'
p129
I5
sasS'total_cqs'
p130
I5
ssI16
(dp131
S'iters'
p132
I2
sS'meta'
p133
(lp134
(dp135
S'objective'
p136
I1
sS'query_time'
p137
F1.5348541736602783
sS'comp_time'
p138
F0.007158041000366211
sS'exec_cq'
p139
I5
sS'total_cq'
p140
I5
sa(dp141
g136
I3
sg137
F5.0067901611328125e-05
sg138
F0.00020003318786621094
sg139
I2
sg140
I2
sasS'total_cqs'
p142
I5
ssI17
(dp143
S'iters'
p144
I0
sS'meta'
p145
(lp146
sS'total_cqs'
p147
I1
ssI18
(dp148
S'iters'
p149
I2
sS'meta'
p150
(lp151
(dp152
S'objective'
p153
I1
sS'query_time'
p154
F0.2942080497741699
sS'comp_time'
p155
F0.0003371238708496094
sS'exec_cq'
p156
I5
sS'total_cq'
p157
I5
sa(dp158
g153
I3
sg154
F4.00543212890625e-05
sg155
F0.0001239776611328125
sg156
I2
sg157
I2
sasS'total_cqs'
p159
I5
ssI19
(dp160
S'iters'
p161
I0
sS'meta'
p162
(lp163
sS'total_cqs'
p164
I1
ssI20
(dp165
S'iters'
p166
I2
sS'meta'
p167
(lp168
(dp169
S'objective'
p170
I32
sS'query_time'
p171
F11.74497103691101
sS'comp_time'
p172
F1.199195146560669
sS'exec_cq'
p173
I12
sS'total_cq'
p174
I12
sa(dp175
g170
I35
sg171
F0.24033117294311523
sg172
F1.0822019577026367
sg173
I10
sg174
I10
sasS'total_cqs'
p176
I12
ssI21
(dp177
S'iters'
p178
I3
sS'meta'
p179
(lp180
(dp181
S'objective'
p182
I33
sS'query_time'
p183
F29.18507981300354
sS'comp_time'
p184
F0.5282537937164307
sS'exec_cq'
p185
I14
sS'total_cq'
p186
I14
sa(dp187
g182
I39
sg183
F0.056498050689697266
sg184
F0.17397475242614746
sg185
I10
sg186
I10
sa(dp188
g182
I9
sg183
F0.004343986511230469
sg184
F0.01901102066040039
sg185
I2
sg186
I2
sasS'total_cqs'
p189
I14
ssI22
(dp190
S'iters'
p191
I1
sS'meta'
p192
(lp193
(dp194
S'objective'
p195
I1
sS'query_time'
p196
F0.005352020263671875
sS'comp_time'
p197
F0.0001277923583984375
sS'exec_cq'
p198
I2
sS'total_cq'
p199
I2
sasS'total_cqs'
p200
I2
ssI23
(dp201
S'iters'
p202
I0
sS'meta'
p203
(lp204
sS'total_cqs'
p205
I1
ssI24
(dp206
S'iters'
p207
I0
sS'meta'
p208
(lp209
sS'total_cqs'
p210
I1
ssI25
(dp211
S'iters'
p212
I3
sS'meta'
p213
(lp214
(dp215
S'objective'
p216
I10
sS'query_time'
p217
F87.13697695732117
sS'comp_time'
p218
F10.09484601020813
sS'exec_cq'
p219
I7
sS'total_cq'
p220
I7
sa(dp221
g216
I5
sg217
F2.2466089725494385
sg218
F6.215306758880615
sg219
I5
sg220
I5
sa(dp222
g216
I2
sg217
F2.000854969024658
sg218
F6.377593040466309
sg219
I3
sg220
I3
sasS'total_cqs'
p223
I7
ssI26
(dp224
S'iters'
p225
I3
sS'meta'
p226
(lp227
(dp228
S'objective'
p229
I41
sS'query_time'
p230
F24.551762104034424
sS'comp_time'
p231
F3.068476915359497
sS'exec_cq'
p232
I13
sS'total_cq'
p233
I13
sa(dp234
g229
I42
sg230
F0.7623817920684814
sg231
F3.2016870975494385
sg232
I11
sg233
I11
sa(dp235
g229
I32
sg230
F0.7454659938812256
sg231
F3.202029228210449
sg232
I9
sg233
I9
sasS'total_cqs'
p236
I13
ssI27
(dp237
S'iters'
p238
I1
sS'meta'
p239
(lp240
(dp241
S'objective'
p242
I1
sS'query_time'
p243
F0.1513359546661377
sS'comp_time'
p244
F0.004080772399902344
sS'exec_cq'
p245
I2
sS'total_cq'
p246
I2
sasS'total_cqs'
p247
I2
ssI28
(dp248
S'iters'
p249
I4
sS'meta'
p250
(lp251
(dp252
S'objective'
p253
I53
sS'query_time'
p254
F1.7029190063476562
sS'comp_time'
p255
F0.021019935607910156
sS'exec_cq'
p256
I14
sS'total_cq'
p257
I14
sa(dp258
g253
I27
sg254
F0.004742145538330078
sg255
F0.01972794532775879
sg256
I11
sg257
I11
sa(dp259
g253
I25
sg254
F0.01921987533569336
sg255
F0.01840806007385254
sg256
I7
sg257
I7
sa(dp260
g253
I15
sg254
F0.0032269954681396484
sg255
F0.012948989868164062
sg256
I5
sg257
I5
sasS'total_cqs'
p261
I14
ssI29
(dp262
S'iters'
p263
I1
sS'meta'
p264
(lp265
(dp266
S'objective'
p267
I1
sS'query_time'
p268
F0.006189107894897461
sS'comp_time'
p269
F0.00012421607971191406
sS'exec_cq'
p270
I2
sS'total_cq'
p271
I2
sasS'total_cqs'
p272
I2
ssI30
(dp273
S'iters'
p274
I1
sS'meta'
p275
(lp276
(dp277
S'objective'
p278
I1
sS'query_time'
p279
F0.40092921257019043
sS'comp_time'
p280
F0.005392789840698242
sS'exec_cq'
p281
I2
sS'total_cq'
p282
I2
sasS'total_cqs'
p283
I2
ssI31
(dp284
S'iters'
p285
I3
sS'meta'
p286
(lp287
(dp288
S'objective'
p289
I3
sS'query_time'
p290
F6.336175918579102
sS'comp_time'
p291
F0.18797922134399414
sS'exec_cq'
p292
I9
sS'total_cq'
p293
I9
sa(dp294
g289
I3
sg290
F0.00903010368347168
sg291
F0.03486180305480957
sg292
I3
sg293
I3
sa(dp295
g289
I4
sg290
F0.0071468353271484375
sg291
F0.05917692184448242
sg292
I2
sg293
I2
sasS'total_cqs'
p296
I9
ssI32
(dp297
S'iters'
p298
I3
sS'meta'
p299
(lp300
(dp301
S'objective'
p302
I6
sS'query_time'
p303
F19.588629007339478
sS'comp_time'
p304
F3.4945058822631836
sS'exec_cq'
p305
I7
sS'total_cq'
p306
I7
sa(dp307
g302
I3
sg303
F0.04398012161254883
sg304
F0.4084639549255371
sg305
I4
sg306
I4
sa(dp308
g302
I4
sg303
F0.028236865997314453
sg304
F0.3082618713378906
sg305
I2
sg306
I2
sasS'total_cqs'
p309
I7
ssI33
(dp310
S'iters'
p311
I1
sS'meta'
p312
(lp313
(dp314
S'objective'
p315
I1
sS'query_time'
p316
F0.035273075103759766
sS'comp_time'
p317
F0.00013136863708496094
sS'exec_cq'
p318
I2
sS'total_cq'
p319
I2
sasS'total_cqs'
p320
I2
ssI34
(dp321
S'iters'
p322
I0
sS'meta'
p323
(lp324
sS'total_cqs'
p325
I1
ssI35
(dp326
S'iters'
p327
I2
sS'meta'
p328
(lp329
(dp330
S'objective'
p331
I1
sS'query_time'
p332
F16.132413864135742
sS'comp_time'
p333
F0.24030399322509766
sS'exec_cq'
p334
I5
sS'total_cq'
p335
I5
sa(dp336
g331
I2
sg332
F0.013070106506347656
sg333
F0.05106496810913086
sg334
I2
sg335
I2
sasS'total_cqs'
p337
I5
ssI37
(dp338
S'iters'
p339
I2
sS'meta'
p340
(lp341
(dp342
S'objective'
p343
I23
sS'query_time'
p344
F2.29960298538208
sS'comp_time'
p345
F0.11147499084472656
sS'exec_cq'
p346
I10
sS'total_cq'
p347
I10
sa(dp348
g343
I2
sg344
F0.026304006576538086
sg345
F0.03578805923461914
sg346
I3
sg347
I3
sasS'total_cqs'
p349
I10
ssI38
(dp350
S'iters'
p351
I0
sS'meta'
p352
(lp353
sS'total_cqs'
p354
I1
ssI39
(dp355
S'iters'
p356
I0
sS'meta'
p357
(lp358
sS'total_cqs'
p359
I1
ssI40
(dp360
S'iters'
p361
I1
sS'meta'
p362
(lp363
(dp364
S'objective'
p365
I1
sS'query_time'
p366
F17.022325038909912
sS'comp_time'
p367
F2.8749258518218994
sS'exec_cq'
p368
I2
sS'total_cq'
p369
I2
sasS'total_cqs'
p370
I2
ssI41
(dp371
S'iters'
p372
I2
sS'meta'
p373
(lp374
(dp375
S'objective'
p376
I1
sS'query_time'
p377
F12.23898696899414
sS'comp_time'
p378
F1.2327921390533447
sS'exec_cq'
p379
I6
sS'total_cq'
p380
I6
sa(dp381
g376
I2
sg377
F0.0008778572082519531
sg378
F0.0034322738647460938
sg379
I2
sg380
I2
sasS'total_cqs'
p382
I6
ssI42
(dp383
S'iters'
p384
I1
sS'meta'
p385
(lp386
(dp387
S'objective'
p388
I1
sS'query_time'
p389
F17.59587597846985
sS'comp_time'
p390
F2.795056104660034
sS'exec_cq'
p391
I2
sS'total_cq'
p392
I2
sasS'total_cqs'
p393
I2
ssI43
(dp394
S'iters'
p395
I0
sS'meta'
p396
(lp397
sS'total_cqs'
p398
I1
ssI44
(dp399
S'iters'
p400
I1
sS'meta'
p401
(lp402
(dp403
S'objective'
p404
I5
sS'query_time'
p405
F1.43650484085083
sS'comp_time'
p406
F0.10395407676696777
sS'exec_cq'
p407
I5
sS'total_cq'
p408
I5
sasS'total_cqs'
p409
I5
ssI45
(dp410
S'iters'
p411
I2
sS'meta'
p412
(lp413
(dp414
S'objective'
p415
I1
sS'query_time'
p416
F0.04445314407348633
sS'comp_time'
p417
F0.00084686279296875
sS'exec_cq'
p418
I5
sS'total_cq'
p419
I5
sa(dp420
g415
I2
sg416
F0.0001499652862548828
sg417
F0.0005059242248535156
sg418
I2
sg419
I2
sasS'total_cqs'
p421
I5
ssI46
(dp422
S'iters'
p423
I0
sS'meta'
p424
(lp425
sS'total_cqs'
p426
I1
ssI47
(dp427
S'iters'
p428
I0
sS'meta'
p429
(lp430
sS'total_cqs'
p431
I1
ssI48
(dp432
S'iters'
p433
I1
sS'meta'
p434
(lp435
(dp436
S'objective'
p437
I1
sS'query_time'
p438
F0.10919380187988281
sS'comp_time'
p439
F0.005471706390380859
sS'exec_cq'
p440
I2
sS'total_cq'
p441
I2
sasS'total_cqs'
p442
I2
ssI49
(dp443
S'iters'
p444
I2
sS'meta'
p445
(lp446
(dp447
S'objective'
p448
I1
sS'query_time'
p449
F0.24048900604248047
sS'comp_time'
p450
F0.002988100051879883
sS'exec_cq'
p451
I5
sS'total_cq'
p452
I5
sa(dp453
g448
I2
sg449
F0.0003159046173095703
sg450
F0.0013446807861328125
sg451
I3
sg452
I3
sasS'total_cqs'
p454
I5
ssI50
(dp455
S'iters'
p456
I1
sS'meta'
p457
(lp458
(dp459
S'objective'
p460
I5
sS'query_time'
p461
F0.9732749462127686
sS'comp_time'
p462
F0.001355886459350586
sS'exec_cq'
p463
I5
sS'total_cq'
p464
I5
sasS'total_cqs'
p465
I5
ssI51
(dp466
S'iters'
p467
I0
sS'meta'
p468
(lp469
sS'total_cqs'
p470
I1
ssI52
(dp471
S'iters'
p472
I0
sS'meta'
p473
(lp474
sS'total_cqs'
p475
I1
ssI53
(dp476
S'iters'
p477
I0
sS'meta'
p478
(lp479
sS'total_cqs'
p480
I1
ssI55
(dp481
S'iters'
p482
I1
sS'meta'
p483
(lp484
(dp485
S'objective'
p486
I1
sS'query_time'
p487
F26.3874728679657
sS'comp_time'
p488
F3.3481056690216064
sS'exec_cq'
p489
I2
sS'total_cq'
p490
I2
sasS'total_cqs'
p491
I2
ssI56
(dp492
S'iters'
p493
I0
sS'meta'
p494
(lp495
sS'total_cqs'
p496
I1
ssI57
(dp497
S'iters'
p498
I2
sS'meta'
p499
(lp500
(dp501
S'objective'
p502
I0
sS'query_time'
p503
F14.08372688293457
sS'comp_time'
p504
F2.1314778327941895
sS'exec_cq'
p505
I3
sS'total_cq'
p506
I3
sa(dp507
g502
I1
sg503
F0.5362849235534668
sg504
F1.387826919555664
sg505
I2
sg506
I2
sasS'total_cqs'
p508
I3
ssI108
(dp509
S'iters'
p510
I0
sS'meta'
p511
(lp512
sS'total_cqs'
p513
I1
ssI109
(dp514
S'iters'
p515
I0
sS'meta'
p516
(lp517
sS'total_cqs'
p518
I1
ssI116
(dp519
S'iters'
p520
I2
sS'meta'
p521
(lp522
(dp523
S'objective'
p524
I143
sS'query_time'
p525
F5.360030174255371
sS'comp_time'
p526
F0.29433679580688477
sS'exec_cq'
p527
I21
sS'total_cq'
p528
I21
sa(dp529
g524
I10
sg525
F0.0013041496276855469
sg526
F0.00439000129699707
sg527
I3
sg528
I3
sasS'total_cqs'
p530
I21
ssI117
(dp531
S'iters'
p532
I1
sS'meta'
p533
(lp534
(dp535
S'objective'
p536
I5
sS'query_time'
p537
F0.014168024063110352
sS'comp_time'
p538
F8.392333984375e-05
sS'exec_cq'
p539
I5
sS'total_cq'
p540
I5
sasS'total_cqs'
p541
I5
ssI118
(dp542
S'iters'
p543
I0
sS'meta'
p544
(lp545
sS'total_cqs'
p546
I1
ssI122
(dp547
S'iters'
p548
I0
sS'meta'
p549
(lp550
sS'total_cqs'
p551
I1
ss.