(dp0
I1
(dp1
S'iters'
p2
I2
sS'meta'
p3
(lp4
(dp5
S'objective'
p6
I7
sS'query_time'
p7
F46.93116903305054
sS'comp_time'
p8
F1.4588730335235596
sS'exec_cq'
p9
I5
sS'total_cq'
p10
I6
sa(dp11
g6
I5
sg7
F0.16858386993408203
sg8
F0.2286381721496582
sg9
I2
sg10
I2
sasS'total_cqs'
p12
I6
ssI2
(dp13
S'iters'
p14
I1
sS'meta'
p15
(lp16
(dp17
S'objective'
p18
I9
sS'query_time'
p19
F0.9130580425262451
sS'comp_time'
p20
F0.03220391273498535
sS'exec_cq'
p21
I5
sS'total_cq'
p22
I6
sasS'total_cqs'
p23
I6
ssI3
(dp24
S'iters'
p25
I10
sS'meta'
p26
(lp27
(dp28
S'objective'
p29
I415
sS'query_time'
p30
F24.956024169921875
sS'comp_time'
p31
F0.39022183418273926
sS'exec_cq'
p32
I33
sS'total_cq'
p33
I33
sa(dp34
g29
I358
sg30
F0.10903501510620117
sg31
F0.17279386520385742
sg32
I30
sg33
I30
sa(dp35
g29
I295
sg30
F0.0419924259185791
sg31
F0.1583852767944336
sg32
I27
sg33
I27
sa(dp36
g29
I239
sg30
F0.02253580093383789
sg31
F0.1084434986114502
sg32
I24
sg33
I24
sa(dp37
g29
I191
sg30
F0.07962298393249512
sg31
F0.0602107048034668
sg32
I21
sg33
I21
sa(dp38
g29
I157
sg30
F0.06569695472717285
sg31
F0.012048006057739258
sg32
I15
sg33
I18
sa(dp39
g29
I125
sg30
F0.007194995880126953
sg31
F0.014049291610717773
sg32
I13
sg33
I16
sa(dp40
g29
I95
sg30
F0.007042884826660156
sg31
F0.01425313949584961
sg32
I10
sg33
I13
sa(dp41
g29
I75
sg30
F0.00526881217956543
sg31
F0.011288166046142578
sg32
I7
sg33
I10
sa(dp42
g29
I50
sg30
F0.06082606315612793
sg31
F0.009521961212158203
sg32
I6
sg33
I9
sasS'total_cqs'
p43
I33
ssI6
(dp44
S'iters'
p45
I2
sS'meta'
p46
(lp47
(dp48
S'objective'
p49
I1
sS'query_time'
p50
F14.05492901802063
sS'comp_time'
p51
F0.00327301025390625
sS'exec_cq'
p52
I4
sS'total_cq'
p53
I5
sa(dp54
g49
I3
sg50
F0.0001900196075439453
sg51
F0.00034308433532714844
sg52
I2
sg53
I2
sasS'total_cqs'
p55
I5
ssI8
(dp56
S'iters'
p57
I2
sS'meta'
p58
(lp59
(dp60
S'objective'
p61
I13
sS'query_time'
p62
F22.892581939697266
sS'comp_time'
p63
F0.07802510261535645
sS'exec_cq'
p64
I5
sS'total_cq'
p65
I6
sa(dp66
g61
I5
sg62
F0.10906004905700684
sg63
F0.00017118453979492188
sg64
I4
sg65
I5
sasS'total_cqs'
p67
I6
ssI9
(dp68
S'iters'
p69
I2
sS'meta'
p70
(lp71
(dp72
S'objective'
p73
I1
sS'query_time'
p74
F11.052549839019775
sS'comp_time'
p75
F0.04613208770751953
sS'exec_cq'
p76
I3
sS'total_cq'
p77
I6
sa(dp78
g73
I1
sg74
F0.04386496543884277
sg75
F0.2993617057800293
sg76
I3
sg77
I3
sasS'total_cqs'
p79
I6
ssI13
(dp80
S'iters'
p81
I1
sS'meta'
p82
(lp83
(dp84
S'objective'
p85
I22
sS'query_time'
p86
F0.018597841262817383
sS'comp_time'
p87
F0.008809089660644531
sS'exec_cq'
p88
I7
sS'total_cq'
p89
I8
sasS'total_cqs'
p90
I8
ssI14
(dp91
S'iters'
p92
I1
sS'meta'
p93
(lp94
(dp95
S'objective'
p96
I5
sS'query_time'
p97
F1.1910820007324219
sS'comp_time'
p98
F0.004620790481567383
sS'exec_cq'
p99
I5
sS'total_cq'
p100
I5
sasS'total_cqs'
p101
I5
ssI16
(dp102
S'iters'
p103
I2
sS'meta'
p104
(lp105
(dp106
S'objective'
p107
I1
sS'query_time'
p108
F1.5514721870422363
sS'comp_time'
p109
F0.005278348922729492
sS'exec_cq'
p110
I4
sS'total_cq'
p111
I5
sa(dp112
g107
I3
sg108
F0.0011370182037353516
sg109
F0.0019669532775878906
sg110
I2
sg111
I2
sasS'total_cqs'
p113
I5
ssI18
(dp114
S'iters'
p115
I2
sS'meta'
p116
(lp117
(dp118
S'objective'
p119
I3
sS'query_time'
p120
F0.20051217079162598
sS'comp_time'
p121
F0.0047838687896728516
sS'exec_cq'
p122
I4
sS'total_cq'
p123
I5
sa(dp124
g119
I1
sg120
F0.0470271110534668
sg121
F0.000125885009765625
sg122
I1
sg123
I2
sasS'total_cqs'
p125
I5
ssI20
(dp126
S'iters'
p127
I2
sS'meta'
p128
(lp129
(dp130
S'objective'
p131
I46
sS'query_time'
p132
F11.47464394569397
sS'comp_time'
p133
F0.6735281944274902
sS'exec_cq'
p134
I10
sS'total_cq'
p135
I12
sa(dp136
g131
I42
sg132
F0.37798285484313965
sg133
F0.5879220962524414
sg134
I9
sg135
I10
sasS'total_cqs'
p137
I12
ssI21
(dp138
S'iters'
p139
I2
sS'meta'
p140
(lp141
(dp142
S'objective'
p143
I47
sS'query_time'
p144
F60.715686321258545
sS'comp_time'
p145
F1.185723066329956
sS'exec_cq'
p146
I12
sS'total_cq'
p147
I14
sa(dp148
g143
I52
sg144
F0.03869795799255371
sg145
F0.06840991973876953
sg146
I10
sg147
I11
sasS'total_cqs'
p149
I14
ssI22
(dp150
S'iters'
p151
I1
sS'meta'
p152
(lp153
(dp154
S'objective'
p155
I1
sS'query_time'
p156
F0.004497051239013672
sS'comp_time'
p157
F0.0015058517456054688
sS'exec_cq'
p158
I1
sS'total_cq'
p159
I2
sasS'total_cqs'
p160
I2
ssI25
(dp161
S'iters'
p162
I3
sS'meta'
p163
(lp164
(dp165
S'objective'
p166
I12
sS'query_time'
p167
F45.205305099487305
sS'comp_time'
p168
F2.101745843887329
sS'exec_cq'
p169
I4
sS'total_cq'
p170
I7
sa(dp171
g166
I6
sg167
F4.4861249923706055
sg168
F0.021339893341064453
sg169
I2
sg170
I5
sa(dp172
g166
I1
sg167
F0.17971110343933105
sg168
F0.0006039142608642578
sg169
I3
sg170
I3
sasS'total_cqs'
p173
I7
ssI26
(dp174
S'iters'
p175
I5
sS'meta'
p176
(lp177
(dp178
S'objective'
p179
I47
sS'query_time'
p180
F4.714749097824097
sS'comp_time'
p181
F0.01231694221496582
sS'exec_cq'
p182
I2
sS'total_cq'
p183
I13
sa(dp184
g179
I39
sg180
F19.57883381843567
sg181
F1.9049150943756104
sg182
I7
sg183
I11
sa(dp185
g179
I30
sg180
F0.8115048408508301
sg181
F2.260361909866333
sg182
I5
sg183
I9
sa(dp186
g179
I18
sg180
F0.7400650978088379
sg181
F2.0554189682006836
sg182
I4
sg183
I7
sa(dp187
g179
I8
sg180
F0.683398962020874
sg181
F2.445215940475464
sg182
I4
sg183
I6
sasS'total_cqs'
p188
I13
ssI27
(dp189
S'iters'
p190
I1
sS'meta'
p191
(lp192
(dp193
S'objective'
p194
I1
sS'query_time'
p195
F0.4446239471435547
sS'comp_time'
p196
F0.002649068832397461
sS'exec_cq'
p197
I1
sS'total_cq'
p198
I2
sasS'total_cqs'
p199
I2
ssI28
(dp200
S'iters'
p201
I4
sS'meta'
p202
(lp203
(dp204
S'objective'
p205
I67
sS'query_time'
p206
F1.5379228591918945
sS'comp_time'
p207
F0.0727090835571289
sS'exec_cq'
p208
I6
sS'total_cq'
p209
I14
sa(dp210
g205
I48
sg206
F0.0029380321502685547
sg207
F0.005450010299682617
sg208
I4
sg209
I12
sa(dp211
g205
I41
sg206
F0.014003992080688477
sg207
F0.00015592575073242188
sg208
I3
sg209
I9
sa(dp212
g205
I30
sg206
F0.0023331642150878906
sg207
F9.870529174804688e-05
sg208
I3
sg209
I8
sasS'total_cqs'
p213
I14
ssI29
(dp214
S'iters'
p215
I1
sS'meta'
p216
(lp217
(dp218
S'objective'
p219
I1
sS'query_time'
p220
F0.05257987976074219
sS'comp_time'
p221
F0.0019791126251220703
sS'exec_cq'
p222
I2
sS'total_cq'
p223
I2
sasS'total_cqs'
p224
I2
ssI30
(dp225
S'iters'
p226
I1
sS'meta'
p227
(lp228
(dp229
S'objective'
p230
I1
sS'query_time'
p231
F0.6235110759735107
sS'comp_time'
p232
F0.0026922225952148438
sS'exec_cq'
p233
I2
sS'total_cq'
p234
I2
sasS'total_cqs'
p235
I2
ssI31
(dp236
S'iters'
p237
I3
sS'meta'
p238
(lp239
(dp240
S'objective'
p241
I13
sS'query_time'
p242
F5.565307140350342
sS'comp_time'
p243
F0.09008312225341797
sS'exec_cq'
p244
I9
sS'total_cq'
p245
I9
sa(dp246
g241
I1
sg242
F0.007554054260253906
sg243
F0.011248588562011719
sg244
I5
sg245
I7
sa(dp247
g241
I2
sg242
F0.0027549266815185547
sg243
F0.004008054733276367
sg244
I2
sg245
I2
sasS'total_cqs'
p248
I9
ssI32
(dp249
S'iters'
p250
I3
sS'meta'
p251
(lp252
(dp253
S'objective'
p254
I6
sS'query_time'
p255
F1.5528841018676758
sS'comp_time'
p256
F0.010407447814941406
sS'exec_cq'
p257
I2
sS'total_cq'
p258
I7
sa(dp259
g254
I1
sg255
F17.072305917739868
sg256
F2.0663392543792725
sg257
I4
sg258
I5
sa(dp260
g254
I6
sg255
F0.2396700382232666
sg256
F0.23386502265930176
sg257
I1
sg258
I2
sasS'total_cqs'
p261
I7
ssI33
(dp262
S'iters'
p263
I1
sS'meta'
p264
(lp265
(dp266
S'objective'
p267
I1
sS'query_time'
p268
F0.04031705856323242
sS'comp_time'
p269
F0.0018908977508544922
sS'exec_cq'
p270
I2
sS'total_cq'
p271
I2
sasS'total_cqs'
p272
I2
ssI35
(dp273
S'iters'
p274
I2
sS'meta'
p275
(lp276
(dp277
S'objective'
p278
I1
sS'query_time'
p279
F14.879213094711304
sS'comp_time'
p280
F0.07683968544006348
sS'exec_cq'
p281
I4
sS'total_cq'
p282
I5
sa(dp283
g278
I2
sg279
F0.012923002243041992
sg280
F0.08286333084106445
sg281
I2
sg282
I2
sasS'total_cqs'
p284
I5
ssI37
(dp285
S'iters'
p286
I2
sS'meta'
p287
(lp288
(dp289
S'objective'
p290
I29
sS'query_time'
p291
F1.828721046447754
sS'comp_time'
p292
F0.11428332328796387
sS'exec_cq'
p293
I8
sS'total_cq'
p294
I10
sa(dp295
g290
I5
sg291
F0.004987955093383789
sg292
F0.0050029754638671875
sg293
I2
sg294
I2
sasS'total_cqs'
p296
I10
ssI40
(dp297
S'iters'
p298
I1
sS'meta'
p299
(lp300
(dp301
S'objective'
p302
I1
sS'query_time'
p303
F0.003511190414428711
sS'comp_time'
p304
F0.0011358261108398438
sS'exec_cq'
p305
I1
sS'total_cq'
p306
I2
sasS'total_cqs'
p307
I2
ssI41
(dp308
S'iters'
p309
I2
sS'meta'
p310
(lp311
(dp312
S'objective'
p313
I7
sS'query_time'
p314
F11.427154302597046
sS'comp_time'
p315
F0.7868719100952148
sS'exec_cq'
p316
I5
sS'total_cq'
p317
I6
sa(dp318
g313
I5
sg314
F0.0008940696716308594
sg315
F0.0009908676147460938
sg316
I2
sg317
I2
sasS'total_cqs'
p319
I6
ssI42
(dp320
S'iters'
p321
I1
sS'meta'
p322
(lp323
(dp324
S'objective'
p325
I1
sS'query_time'
p326
F0.022724151611328125
sS'comp_time'
p327
F0.001027822494506836
sS'exec_cq'
p328
I1
sS'total_cq'
p329
I2
sasS'total_cqs'
p330
I2
ssI44
(dp331
S'iters'
p332
I1
sS'meta'
p333
(lp334
(dp335
S'objective'
p336
I5
sS'query_time'
p337
F1.25612211227417
sS'comp_time'
p338
F0.04087328910827637
sS'exec_cq'
p339
I3
sS'total_cq'
p340
I5
sasS'total_cqs'
p341
I5
ssI45
(dp342
S'iters'
p343
I2
sS'meta'
p344
(lp345
(dp346
S'objective'
p347
I1
sS'query_time'
p348
F0.04802417755126953
sS'comp_time'
p349
F0.0033588409423828125
sS'exec_cq'
p350
I3
sS'total_cq'
p351
I5
sa(dp352
g347
I3
sg348
F0.000202178955078125
sg349
F0.0002646446228027344
sg350
I2
sg351
I2
sasS'total_cqs'
p353
I5
ssI48
(dp354
S'iters'
p355
I1
sS'meta'
p356
(lp357
(dp358
S'objective'
p359
I1
sS'query_time'
p360
F0.1803290843963623
sS'comp_time'
p361
F0.0022971630096435547
sS'exec_cq'
p362
I2
sS'total_cq'
p363
I2
sasS'total_cqs'
p364
I2
ssI49
(dp365
S'iters'
p366
I2
sS'meta'
p367
(lp368
(dp369
S'objective'
p370
I1
sS'query_time'
p371
F0.28888916969299316
sS'comp_time'
p372
F0.003888845443725586
sS'exec_cq'
p373
I4
sS'total_cq'
p374
I5
sa(dp375
g370
I2
sg371
F0.0003261566162109375
sg372
F0.0006563663482666016
sg373
I2
sg374
I2
sasS'total_cqs'
p376
I5
ssI50
(dp377
S'iters'
p378
I1
sS'meta'
p379
(lp380
(dp381
S'objective'
p382
I5
sS'query_time'
p383
F0.8832459449768066
sS'comp_time'
p384
F0.05504965782165527
sS'exec_cq'
p385
I5
sS'total_cq'
p386
I5
sasS'total_cqs'
p387
I5
ssI55
(dp388
S'iters'
p389
I1
sS'meta'
p390
(lp391
(dp392
S'objective'
p393
I1
sS'query_time'
p394
F24.572148084640503
sS'comp_time'
p395
F0.01677703857421875
sS'exec_cq'
p396
I2
sS'total_cq'
p397
I2
sasS'total_cqs'
p398
I2
ssI57
(dp399
S'iters'
p400
I2
sS'meta'
p401
(lp402
(dp403
S'objective'
p404
I0
sS'query_time'
p405
F12.32541298866272
sS'comp_time'
p406
F0.8411753177642822
sS'exec_cq'
p407
I2
sS'total_cq'
p408
I3
sa(dp409
g404
I1
sg405
F0.24864697456359863
sg406
F0.37123727798461914
sg407
I1
sg408
I2
sasS'total_cqs'
p410
I3
ssI116
(dp411
S'iters'
p412
I2
sS'meta'
p413
(lp414
(dp415
S'objective'
p416
I159
sS'query_time'
p417
F0.692147970199585
sS'comp_time'
p418
F0.012754201889038086
sS'exec_cq'
p419
I14
sS'total_cq'
p420
I21
sa(dp421
g416
I2
sg417
F0.0006680488586425781
sg418
F0.0008978843688964844
sg419
I2
sg420
I2
sasS'total_cqs'
p422
I21
ssI117
(dp423
S'iters'
p424
I1
sS'meta'
p425
(lp426
(dp427
S'objective'
p428
I5
sS'query_time'
p429
F0.008984088897705078
sS'comp_time'
p430
F0.0014395713806152344
sS'exec_cq'
p431
I4
sS'total_cq'
p432
I5
sasS'total_cqs'
p433
I5
ss.