(dp0
I1
(dp1
S'iters'
p2
I2
sS'meta'
p3
(lp4
(dp5
S'objective'
p6
I1
sS'query_time'
p7
F25.039201974868774
sS'comp_time'
p8
F1.3105289936065674
sS'exec_cq'
p9
I6
sS'total_cq'
p10
I6
sa(dp11
g6
I2
sg7
F0.009737968444824219
sg8
F253.58924794197083
sg9
I2
sg10
I2
sasS'total_cqs'
p12
I6
ssI2
(dp13
S'iters'
p14
I1
sS'meta'
p15
(lp16
(dp17
S'objective'
p18
I9
sS'query_time'
p19
F0.8317019939422607
sS'comp_time'
p20
F0.09887313842773438
sS'exec_cq'
p21
I6
sS'total_cq'
p22
I6
sasS'total_cqs'
p23
I6
ssI3
(dp24
S'iters'
p25
I11
sS'meta'
p26
(lp27
(dp28
S'objective'
p29
I441
sS'query_time'
p30
F25.82496213912964
sS'comp_time'
p31
F0.24902987480163574
sS'exec_cq'
p32
I33
sS'total_cq'
p33
I33
sa(dp34
g29
I387
sg30
F0.08984804153442383
sg31
F0.25699687004089355
sg32
I30
sg33
I30
sa(dp35
g29
I330
sg30
F0.035151004791259766
sg31
F0.3034842014312744
sg32
I27
sg33
I27
sa(dp36
g29
I293
sg30
F0.07450389862060547
sg31
F0.20392298698425293
sg32
I24
sg33
I24
sa(dp37
g29
I252
sg30
F0.03109002113342285
sg31
F0.2560691833496094
sg32
I21
sg33
I21
sa(dp38
g29
I210
sg30
F0.01604485511779785
sg31
F0.1128687858581543
sg32
I18
sg33
I18
sa(dp39
g29
I183
sg30
F0.006918907165527344
sg31
F0.02949070930480957
sg32
I15
sg33
I15
sa(dp40
g29
I152
sg30
F0.006654977798461914
sg31
F0.030356884002685547
sg32
I13
sg33
I13
sa(dp41
g29
I123
sg30
F0.007050037384033203
sg31
F0.030520200729370117
sg32
I12
sg33
I12
sa(dp42
g29
I96
sg30
F0.0070438385009765625
sg31
F0.05737900733947754
sg32
I11
sg33
I11
sa(dp43
g29
I73
sg30
F0.005629062652587891
sg31
F0.03134894371032715
sg32
I8
sg33
I8
sasS'total_cqs'
p44
I33
ssI4
(dp45
S'iters'
p46
I0
sS'meta'
p47
(lp48
sS'total_cqs'
p49
I1
ssI5
(dp50
S'iters'
p51
I0
sS'meta'
p52
(lp53
sS'total_cqs'
p54
I1
ssI6
(dp55
S'iters'
p56
I2
sS'meta'
p57
(lp58
(dp59
S'objective'
p60
I1
sS'query_time'
p61
F15.396744966506958
sS'comp_time'
p62
F0.0036020278930664062
sS'exec_cq'
p63
I5
sS'total_cq'
p64
I5
sa(dp65
g60
I3
sg61
F0.0003249645233154297
sg62
F0.001967906951904297
sg63
I2
sg64
I2
sasS'total_cqs'
p66
I5
ssI7
(dp67
S'iters'
p68
I0
sS'meta'
p69
(lp70
sS'total_cqs'
p71
I1
ssI8
(dp72
S'iters'
p73
I2
sS'meta'
p74
(lp75
(dp76
S'objective'
p77
I13
sS'query_time'
p78
F22.88625693321228
sS'comp_time'
p79
F0.2196338176727295
sS'exec_cq'
p80
I6
sS'total_cq'
p81
I6
sa(dp82
g77
I5
sg78
F0.09811806678771973
sg79
F0.09658098220825195
sg80
I5
sg81
I5
sasS'total_cqs'
p83
I6
ssI9
(dp84
S'iters'
p85
I2
sS'meta'
p86
(lp87
(dp88
S'objective'
p89
I1
sS'query_time'
p90
F52.67636489868164
sS'comp_time'
p91
F4.137742042541504
sS'exec_cq'
p92
I6
sS'total_cq'
p93
I6
sa(dp94
g89
I1
sg90
F0.028294801712036133
sg91
F0.3888421058654785
sg92
I2
sg93
I2
sasS'total_cqs'
p95
I6
ssI10
(dp96
S'iters'
p97
I0
sS'meta'
p98
(lp99
sS'total_cqs'
p100
I1
ssI11
(dp101
S'iters'
p102
I0
sS'meta'
p103
(lp104
sS'total_cqs'
p105
I1
ssI12
(dp106
S'iters'
p107
I0
sS'meta'
p108
(lp109
sS'total_cqs'
p110
I1
ssI13
(dp111
S'iters'
p112
I1
sS'meta'
p113
(lp114
(dp115
S'objective'
p116
I22
sS'query_time'
p117
F0.020915985107421875
sS'comp_time'
p118
F0.00013303756713867188
sS'exec_cq'
p119
I8
sS'total_cq'
p120
I8
sasS'total_cqs'
p121
I8
ssI14
(dp122
S'iters'
p123
I1
sS'meta'
p124
(lp125
(dp126
S'objective'
p127
I5
sS'query_time'
p128
F1.049799919128418
sS'comp_time'
p129
F0.007987022399902344
sS'exec_cq'
p130
I5
sS'total_cq'
p131
I5
sasS'total_cqs'
p132
I5
ssI16
(dp133
S'iters'
p134
I2
sS'meta'
p135
(lp136
(dp137
S'objective'
p138
I1
sS'query_time'
p139
F1.5156729221343994
sS'comp_time'
p140
F0.005362987518310547
sS'exec_cq'
p141
I5
sS'total_cq'
p142
I5
sa(dp143
g138
I2
sg139
F0.0001850128173828125
sg140
F0.0009529590606689453
sg141
I3
sg142
I3
sasS'total_cqs'
p144
I5
ssI17
(dp145
S'iters'
p146
I0
sS'meta'
p147
(lp148
sS'total_cqs'
p149
I1
ssI18
(dp150
S'iters'
p151
I2
sS'meta'
p152
(lp153
(dp154
S'objective'
p155
I1
sS'query_time'
p156
F0.3144209384918213
sS'comp_time'
p157
F0.0002770423889160156
sS'exec_cq'
p158
I5
sS'total_cq'
p159
I5
sa(dp160
g155
I2
sg156
F3.0040740966796875e-05
sg157
F0.00010013580322265625
sg158
I2
sg159
I2
sasS'total_cqs'
p161
I5
ssI19
(dp162
S'iters'
p163
I0
sS'meta'
p164
(lp165
sS'total_cqs'
p166
I1
ssI20
(dp167
S'iters'
p168
I3
sS'meta'
p169
(lp170
(dp171
S'objective'
p172
I42
sS'query_time'
p173
F11.539083003997803
sS'comp_time'
p174
F1.1821558475494385
sS'exec_cq'
p175
I12
sS'total_cq'
p176
I12
sa(dp177
g172
I26
sg173
F0.2300870418548584
sg174
F0.9410758018493652
sg175
I10
sg176
I10
sa(dp178
g172
I23
sg173
F0.20253705978393555
sg174
F0.8998579978942871
sg175
I8
sg176
I8
sasS'total_cqs'
p179
I12
ssI21
(dp180
S'iters'
p181
I4
sS'meta'
p182
(lp183
(dp184
S'objective'
p185
I21
sS'query_time'
p186
F30.495060920715332
sS'comp_time'
p187
F0.2333390712738037
sS'exec_cq'
p188
I14
sS'total_cq'
p189
I14
sa(dp190
g185
I11
sg186
F0.022015094757080078
sg187
F0.23606610298156738
sg188
I10
sg189
I10
sa(dp191
g185
I9
sg186
F0.015182018280029297
sg187
F0.11414885520935059
sg188
I6
sg189
I6
sa(dp192
g185
I10
sg186
F0.004266977310180664
sg187
F0.01978611946105957
sg188
I2
sg189
I2
sasS'total_cqs'
p193
I14
ssI22
(dp194
S'iters'
p195
I1
sS'meta'
p196
(lp197
(dp198
S'objective'
p199
I1
sS'query_time'
p200
F0.005933046340942383
sS'comp_time'
p201
F0.00013589859008789062
sS'exec_cq'
p202
I2
sS'total_cq'
p203
I2
sasS'total_cqs'
p204
I2
ssI23
(dp205
S'iters'
p206
I0
sS'meta'
p207
(lp208
sS'total_cqs'
p209
I1
ssI24
(dp210
S'iters'
p211
I0
sS'meta'
p212
(lp213
sS'total_cqs'
p214
I1
ssI25
(dp215
S'iters'
p216
I2
sS'meta'
p217
(lp218
(dp219
S'objective'
p220
I14
sS'query_time'
p221
F86.00943899154663
sS'comp_time'
p222
F9.959970951080322
sS'exec_cq'
p223
I7
sS'total_cq'
p224
I7
sa(dp225
g220
I7
sg221
F3.0057599544525146
sg222
F9.969720125198364
sg223
I5
sg224
I5
sasS'total_cqs'
p226
I7
ssI26
(dp227
S'iters'
p228
I4
sS'meta'
p229
(lp230
(dp231
S'objective'
p232
I55
sS'query_time'
p233
F24.466413974761963
sS'comp_time'
p234
F3.210041046142578
sS'exec_cq'
p235
I13
sS'total_cq'
p236
I13
sa(dp237
g232
I39
sg233
F0.7496168613433838
sg234
F3.1436100006103516
sg235
I11
sg236
I11
sa(dp238
g232
I26
sg233
F0.7486529350280762
sg234
F2.9054291248321533
sg235
I9
sg236
I9
sa(dp239
g232
I19
sg233
F0.8293728828430176
sg234
F4.950155973434448
sg235
I7
sg236
I7
sasS'total_cqs'
p240
I13
ssI27
(dp241
S'iters'
p242
I1
sS'meta'
p243
(lp244
(dp245
S'objective'
p246
I1
sS'query_time'
p247
F0.15376496315002441
sS'comp_time'
p248
F0.004534006118774414
sS'exec_cq'
p249
I2
sS'total_cq'
p250
I2
sasS'total_cqs'
p251
I2
ssI28
(dp252
S'iters'
p253
I5
sS'meta'
p254
(lp255
(dp256
S'objective'
p257
I47
sS'query_time'
p258
F1.7166669368743896
sS'comp_time'
p259
F0.020305156707763672
sS'exec_cq'
p260
I14
sS'total_cq'
p261
I14
sa(dp262
g257
I34
sg258
F0.0046389102935791016
sg259
F0.019869089126586914
sg260
I11
sg261
I11
sa(dp263
g257
I19
sg258
F0.018047094345092773
sg259
F0.013670921325683594
sg260
I7
sg261
I7
sa(dp264
g257
I9
sg258
F0.002585172653198242
sg259
F0.012228965759277344
sg260
I5
sg261
I5
sa(dp265
g257
I1
sg258
F8.606910705566406e-05
sg259
F0.00040602684020996094
sg260
I4
sg261
I4
sasS'total_cqs'
p266
I14
ssI29
(dp267
S'iters'
p268
I1
sS'meta'
p269
(lp270
(dp271
S'objective'
p272
I1
sS'query_time'
p273
F0.008371114730834961
sS'comp_time'
p274
F0.00011777877807617188
sS'exec_cq'
p275
I2
sS'total_cq'
p276
I2
sasS'total_cqs'
p277
I2
ssI30
(dp278
S'iters'
p279
I1
sS'meta'
p280
(lp281
(dp282
S'objective'
p283
I1
sS'query_time'
p284
F0.3572349548339844
sS'comp_time'
p285
F0.005823850631713867
sS'exec_cq'
p286
I2
sS'total_cq'
p287
I2
sasS'total_cqs'
p288
I2
ssI31
(dp289
S'iters'
p290
I2
sS'meta'
p291
(lp292
(dp293
S'objective'
p294
I7
sS'query_time'
p295
F6.292573928833008
sS'comp_time'
p296
F0.16138601303100586
sS'exec_cq'
p297
I9
sS'total_cq'
p298
I9
sa(dp299
g294
I3
sg295
F0.007894039154052734
sg296
F0.027758121490478516
sg297
I3
sg298
I3
sasS'total_cqs'
p300
I9
ssI32
(dp301
S'iters'
p302
I3
sS'meta'
p303
(lp304
(dp305
S'objective'
p306
I2
sS'query_time'
p307
F19.52470898628235
sS'comp_time'
p308
F2.7932820320129395
sS'exec_cq'
p309
I7
sS'total_cq'
p310
I7
sa(dp311
g306
I1
sg307
F0.03739213943481445
sg308
F0.3805217742919922
sg309
I4
sg310
I4
sa(dp312
g306
I6
sg307
F0.026584148406982422
sg308
F0.2608039379119873
sg309
I2
sg310
I2
sasS'total_cqs'
p313
I7
ssI33
(dp314
S'iters'
p315
I1
sS'meta'
p316
(lp317
(dp318
S'objective'
p319
I1
sS'query_time'
p320
F0.025630950927734375
sS'comp_time'
p321
F0.00013899803161621094
sS'exec_cq'
p322
I2
sS'total_cq'
p323
I2
sasS'total_cqs'
p324
I2
ssI34
(dp325
S'iters'
p326
I0
sS'meta'
p327
(lp328
sS'total_cqs'
p329
I1
ssI35
(dp330
S'iters'
p331
I2
sS'meta'
p332
(lp333
(dp334
S'objective'
p335
I1
sS'query_time'
p336
F16.362876892089844
sS'comp_time'
p337
F0.24349117279052734
sS'exec_cq'
p338
I5
sS'total_cq'
p339
I5
sa(dp340
g335
I2
sg336
F0.01840996742248535
sg337
F0.06518697738647461
sg338
I2
sg339
I2
sasS'total_cqs'
p341
I5
ssI37
(dp342
S'iters'
p343
I2
sS'meta'
p344
(lp345
(dp346
S'objective'
p347
I19
sS'query_time'
p348
F2.341377019882202
sS'comp_time'
p349
F0.13313913345336914
sS'exec_cq'
p350
I10
sS'total_cq'
p351
I10
sa(dp352
g347
I0
sg348
F0.028582096099853516
sg349
F0.036231040954589844
sg350
I3
sg351
I3
sasS'total_cqs'
p353
I10
ssI38
(dp354
S'iters'
p355
I0
sS'meta'
p356
(lp357
sS'total_cqs'
p358
I1
ssI39
(dp359
S'iters'
p360
I0
sS'meta'
p361
(lp362
sS'total_cqs'
p363
I1
ssI40
(dp364
S'iters'
p365
I1
sS'meta'
p366
(lp367
(dp368
S'objective'
p369
I1
sS'query_time'
p370
F17.582104206085205
sS'comp_time'
p371
F2.5911948680877686
sS'exec_cq'
p372
I2
sS'total_cq'
p373
I2
sasS'total_cqs'
p374
I2
ssI41
(dp375
S'iters'
p376
I2
sS'meta'
p377
(lp378
(dp379
S'objective'
p380
I5
sS'query_time'
p381
F12.290219068527222
sS'comp_time'
p382
F1.1005501747131348
sS'exec_cq'
p383
I6
sS'total_cq'
p384
I6
sa(dp385
g380
I4
sg381
F0.0009601116180419922
sg382
F0.0034101009368896484
sg383
I2
sg384
I2
sasS'total_cqs'
p386
I6
ssI42
(dp387
S'iters'
p388
I1
sS'meta'
p389
(lp390
(dp391
S'objective'
p392
I1
sS'query_time'
p393
F17.42220187187195
sS'comp_time'
p394
F2.848043203353882
sS'exec_cq'
p395
I2
sS'total_cq'
p396
I2
sasS'total_cqs'
p397
I2
ssI43
(dp398
S'iters'
p399
I0
sS'meta'
p400
(lp401
sS'total_cqs'
p402
I1
ssI44
(dp403
S'iters'
p404
I2
sS'meta'
p405
(lp406
(dp407
S'objective'
p408
I1
sS'query_time'
p409
F1.62288498878479
sS'comp_time'
p410
F0.10438203811645508
sS'exec_cq'
p411
I5
sS'total_cq'
p412
I5
sa(dp413
g408
I2
sg409
F0.019324064254760742
sg410
F0.09686493873596191
sg411
I3
sg412
I3
sasS'total_cqs'
p414
I5
ssI45
(dp415
S'iters'
p416
I2
sS'meta'
p417
(lp418
(dp419
S'objective'
p420
I1
sS'query_time'
p421
F0.04053616523742676
sS'comp_time'
p422
F0.0006699562072753906
sS'exec_cq'
p423
I5
sS'total_cq'
p424
I5
sa(dp425
g420
I3
sg421
F0.0001590251922607422
sg422
F0.0005171298980712891
sg423
I2
sg424
I2
sasS'total_cqs'
p426
I5
ssI46
(dp427
S'iters'
p428
I0
sS'meta'
p429
(lp430
sS'total_cqs'
p431
I1
ssI47
(dp432
S'iters'
p433
I0
sS'meta'
p434
(lp435
sS'total_cqs'
p436
I1
ssI48
(dp437
S'iters'
p438
I1
sS'meta'
p439
(lp440
(dp441
S'objective'
p442
I1
sS'query_time'
p443
F0.10694599151611328
sS'comp_time'
p444
F0.006239175796508789
sS'exec_cq'
p445
I2
sS'total_cq'
p446
I2
sasS'total_cqs'
p447
I2
ssI49
(dp448
S'iters'
p449
I2
sS'meta'
p450
(lp451
(dp452
S'objective'
p453
I1
sS'query_time'
p454
F0.23411798477172852
sS'comp_time'
p455
F0.002711057662963867
sS'exec_cq'
p456
I5
sS'total_cq'
p457
I5
sa(dp458
g453
I3
sg454
F3.0040740966796875e-05
sg455
F0.0001049041748046875
sg456
I2
sg457
I2
sasS'total_cqs'
p459
I5
ssI50
(dp460
S'iters'
p461
I1
sS'meta'
p462
(lp463
(dp464
S'objective'
p465
I5
sS'query_time'
p466
F0.8379449844360352
sS'comp_time'
p467
F0.0012061595916748047
sS'exec_cq'
p468
I5
sS'total_cq'
p469
I5
sasS'total_cqs'
p470
I5
ssI51
(dp471
S'iters'
p472
I0
sS'meta'
p473
(lp474
sS'total_cqs'
p475
I1
ssI52
(dp476
S'iters'
p477
I0
sS'meta'
p478
(lp479
sS'total_cqs'
p480
I1
ssI53
(dp481
S'iters'
p482
I0
sS'meta'
p483
(lp484
sS'total_cqs'
p485
I1
ssI55
(dp486
S'iters'
p487
I1
sS'meta'
p488
(lp489
(dp490
S'objective'
p491
I1
sS'query_time'
p492
F26.746365785598755
sS'comp_time'
p493
F3.3484907150268555
sS'exec_cq'
p494
I2
sS'total_cq'
p495
I2
sasS'total_cqs'
p496
I2
ssI56
(dp497
S'iters'
p498
I0
sS'meta'
p499
(lp500
sS'total_cqs'
p501
I1
ssI57
(dp502
S'iters'
p503
I2
sS'meta'
p504
(lp505
(dp506
S'objective'
p507
I0
sS'query_time'
p508
F14.200644969940186
sS'comp_time'
p509
F1.502025842666626
sS'exec_cq'
p510
I3
sS'total_cq'
p511
I3
sa(dp512
g507
I1
sg508
F0.3446080684661865
sg509
F1.2946398258209229
sg510
I2
sg511
I2
sasS'total_cqs'
p513
I3
ssI108
(dp514
S'iters'
p515
I0
sS'meta'
p516
(lp517
sS'total_cqs'
p518
I1
ssI109
(dp519
S'iters'
p520
I0
sS'meta'
p521
(lp522
sS'total_cqs'
p523
I1
ssI116
(dp524
S'iters'
p525
I2
sS'meta'
p526
(lp527
(dp528
S'objective'
p529
I169
sS'query_time'
p530
F5.748833894729614
sS'comp_time'
p531
F0.28954482078552246
sS'exec_cq'
p532
I21
sS'total_cq'
p533
I21
sa(dp534
g529
I3
sg530
F0.0012199878692626953
sg531
F0.0043261051177978516
sg532
I3
sg533
I3
sasS'total_cqs'
p535
I21
ssI117
(dp536
S'iters'
p537
I1
sS'meta'
p538
(lp539
(dp540
S'objective'
p541
I5
sS'query_time'
p542
F0.017854928970336914
sS'comp_time'
p543
F0.0001220703125
sS'exec_cq'
p544
I5
sS'total_cq'
p545
I5
sasS'total_cqs'
p546
I5
ssI118
(dp547
S'iters'
p548
I0
sS'meta'
p549
(lp550
sS'total_cqs'
p551
I1
ssI122
(dp552
S'iters'
p553
I0
sS'meta'
p554
(lp555
sS'total_cqs'
p556
I1
ss.