(dp0
I1
(dp1
S'iters'
p2
I2
sS'meta'
p3
(lp4
(dp5
S'objective'
p6
I9
sS'query_time'
p7
F48.623815059661865
sS'comp_time'
p8
F1.6000454425811768
sS'exec_cq'
p9
I5
sS'total_cq'
p10
I6
sa(dp11
g6
I9
sg7
F25.87795877456665
sg8
F0.8367972373962402
sg9
I4
sg10
I4
sasS'total_cqs'
p12
I6
ssI2
(dp13
S'iters'
p14
I1
sS'meta'
p15
(lp16
(dp17
S'objective'
p18
I15
sS'query_time'
p19
F1.359917163848877
sS'comp_time'
p20
F0.24747085571289062
sS'exec_cq'
p21
I6
sS'total_cq'
p22
I6
sasS'total_cqs'
p23
I6
ssI3
(dp24
S'iters'
p25
I14
sS'meta'
p26
(lp27
(dp28
S'objective'
p29
I427
sS'query_time'
p30
F27.275463104248047
sS'comp_time'
p31
F0.27368688583374023
sS'exec_cq'
p32
I28
sS'total_cq'
p33
I33
sa(dp34
g29
I364
sg30
F0.021093130111694336
sg31
F0.04147028923034668
sg32
I25
sg33
I30
sa(dp35
g29
I309
sg30
F0.007233142852783203
sg31
F0.0700674057006836
sg32
I22
sg33
I27
sa(dp36
g29
I249
sg30
F0.005290031433105469
sg31
F0.007524967193603516
sg32
I19
sg33
I24
sa(dp37
g29
I213
sg30
F0.0032732486724853516
sg31
F0.006880283355712891
sg32
I16
sg33
I21
sa(dp38
g29
I175
sg30
F0.1893470287322998
sg31
F0.014710426330566406
sg32
I18
sg33
I18
sa(dp39
g29
I136
sg30
F0.006558895111083984
sg31
F0.07108926773071289
sg32
I15
sg33
I15
sa(dp40
g29
I113
sg30
F0.007231712341308594
sg31
F0.012123823165893555
sg32
I13
sg33
I13
sa(dp41
g29
I85
sg30
F0.007703065872192383
sg31
F0.011400461196899414
sg32
I12
sg33
I12
sa(dp42
g29
I57
sg30
F0.007277965545654297
sg31
F0.011029958724975586
sg32
I10
sg33
I11
sa(dp43
g29
I58
sg30
F0.059068918228149414
sg31
F0.012529134750366211
sg32
I8
sg33
I8
sa(dp44
g29
I46
sg30
F0.005131959915161133
sg31
F0.009790897369384766
sg32
I7
sg33
I7
sa(dp45
g29
I35
sg30
F0.004945039749145508
sg31
F0.009784936904907227
sg32
I6
sg33
I6
sa(dp46
g29
I27
sg30
F0.0021119117736816406
sg31
F0.0039052963256835938
sg32
I3
sg33
I5
sasS'total_cqs'
p47
I33
ssI4
(dp48
S'iters'
p49
I0
sS'meta'
p50
(lp51
sS'total_cqs'
p52
I1
ssI5
(dp53
S'iters'
p54
I0
sS'meta'
p55
(lp56
sS'total_cqs'
p57
I1
ssI6
(dp58
S'iters'
p59
I3
sS'meta'
p60
(lp61
(dp62
S'objective'
p63
I1
sS'query_time'
p64
F15.226192951202393
sS'comp_time'
p65
F0.008554220199584961
sS'exec_cq'
p66
I4
sS'total_cq'
p67
I5
sa(dp68
g63
I0
sg64
F0.0006999969482421875
sg65
F0.0010113716125488281
sg66
I3
sg67
I3
sa(dp69
g63
I2
sg64
F0.00026702880859375
sg65
F0.00035643577575683594
sg66
I2
sg67
I2
sasS'total_cqs'
p70
I5
ssI7
(dp71
S'iters'
p72
I0
sS'meta'
p73
(lp74
sS'total_cqs'
p75
I1
ssI8
(dp76
S'iters'
p77
I4
sS'meta'
p78
(lp79
(dp80
S'objective'
p81
I17
sS'query_time'
p82
F43.54930400848389
sS'comp_time'
p83
F0.11308693885803223
sS'exec_cq'
p84
I6
sS'total_cq'
p85
I6
sa(dp86
g81
I7
sg82
F1.3167588710784912
sg83
F0.00017499923706054688
sg84
I4
sg85
I5
sa(dp87
g81
I3
sg82
F0.013991117477416992
sg83
F0.0002605915069580078
sg84
I3
sg85
I4
sa(dp88
g81
I2
sg82
F0.004058122634887695
sg83
F0.00015282630920410156
sg84
I3
sg85
I3
sasS'total_cqs'
p89
I6
ssI9
(dp90
S'iters'
p91
I3
sS'meta'
p92
(lp93
(dp94
S'objective'
p95
I3
sS'query_time'
p96
F11.998332977294922
sS'comp_time'
p97
F0.08688569068908691
sS'exec_cq'
p98
I3
sS'total_cq'
p99
I6
sa(dp100
g95
I1
sg96
F0.06496596336364746
sg97
F0.27211952209472656
sg98
I3
sg99
I3
sa(dp101
g95
I2
sg96
F0.012900114059448242
sg97
F0.023298263549804688
sg98
I2
sg99
I2
sasS'total_cqs'
p102
I6
ssI10
(dp103
S'iters'
p104
I0
sS'meta'
p105
(lp106
sS'total_cqs'
p107
I1
ssI11
(dp108
S'iters'
p109
I0
sS'meta'
p110
(lp111
sS'total_cqs'
p112
I1
ssI12
(dp113
S'iters'
p114
I0
sS'meta'
p115
(lp116
sS'total_cqs'
p117
I1
ssI13
(dp118
S'iters'
p119
I1
sS'meta'
p120
(lp121
(dp122
S'objective'
p123
I30
sS'query_time'
p124
F0.03065013885498047
sS'comp_time'
p125
F0.007638692855834961
sS'exec_cq'
p126
I8
sS'total_cq'
p127
I8
sasS'total_cqs'
p128
I8
ssI14
(dp129
S'iters'
p130
I1
sS'meta'
p131
(lp132
(dp133
S'objective'
p134
I9
sS'query_time'
p135
F1.0440070629119873
sS'comp_time'
p136
F0.004279613494873047
sS'exec_cq'
p137
I5
sS'total_cq'
p138
I5
sasS'total_cqs'
p139
I5
ssI16
(dp140
S'iters'
p141
I3
sS'meta'
p142
(lp143
(dp144
S'objective'
p145
I3
sS'query_time'
p146
F1.3386080265045166
sS'comp_time'
p147
F0.005303144454956055
sS'exec_cq'
p148
I4
sS'total_cq'
p149
I5
sa(dp150
g145
I1
sg146
F0.001567840576171875
sg147
F0.0017387866973876953
sg148
I3
sg149
I3
sa(dp151
g145
I1
sg146
F0.0012531280517578125
sg147
F0.0018601417541503906
sg148
I2
sg149
I2
sasS'total_cqs'
p152
I5
ssI17
(dp153
S'iters'
p154
I0
sS'meta'
p155
(lp156
sS'total_cqs'
p157
I1
ssI18
(dp158
S'iters'
p159
I3
sS'meta'
p160
(lp161
(dp162
S'objective'
p163
I1
sS'query_time'
p164
F0.23289895057678223
sS'comp_time'
p165
F0.00400090217590332
sS'exec_cq'
p166
I4
sS'total_cq'
p167
I5
sa(dp168
g163
I0
sg164
F0.02976703643798828
sg165
F0.0003883838653564453
sg166
I3
sg167
I3
sa(dp169
g163
I2
sg164
F5.4836273193359375e-05
sg165
F0.0001659393310546875
sg166
I2
sg167
I2
sasS'total_cqs'
p170
I5
ssI19
(dp171
S'iters'
p172
I0
sS'meta'
p173
(lp174
sS'total_cqs'
p175
I1
ssI20
(dp176
S'iters'
p177
I6
sS'meta'
p178
(lp179
(dp180
S'objective'
p181
I38
sS'query_time'
p182
F14.464591979980469
sS'comp_time'
p183
F0.7409482002258301
sS'exec_cq'
p184
I10
sS'total_cq'
p185
I12
sa(dp186
g181
I20
sg182
F0.28250908851623535
sg183
F0.5708591938018799
sg184
I8
sg185
I10
sa(dp187
g181
I17
sg182
F0.1772167682647705
sg183
F0.4590775966644287
sg184
I6
sg185
I8
sa(dp188
g181
I12
sg182
F0.01211404800415039
sg183
F0.026773929595947266
sg184
I5
sg185
I7
sa(dp189
g181
I6
sg182
F2.47955322265625e-05
sg183
F8.797645568847656e-05
sg184
I2
sg185
I5
sa(dp190
g181
I5
sg182
F0.10936999320983887
sg183
F0.00044083595275878906
sg184
I2
sg185
I4
sasS'total_cqs'
p191
I12
ssI21
(dp192
S'iters'
p193
I10
sS'meta'
p194
(lp195
(dp196
S'objective'
p197
I61
sS'query_time'
p198
F29.970574140548706
sS'comp_time'
p199
F0.2984459400177002
sS'exec_cq'
p200
I8
sS'total_cq'
p201
I14
sa(dp202
g197
I63
sg198
F30.710808992385864
sg199
F0.6385400295257568
sg200
I10
sg201
I12
sa(dp203
g197
I55
sg198
F0.5506687164306641
sg199
F0.8490469455718994
sg200
I10
sg201
I11
sa(dp204
g197
I48
sg198
F0.23333287239074707
sg199
F0.6886618137359619
sg200
I9
sg201
I10
sa(dp205
g197
I44
sg198
F0.008493185043334961
sg199
F0.09047317504882812
sg200
I6
sg201
I7
sa(dp206
g197
I24
sg198
F0.009460210800170898
sg199
F0.00016021728515625
sg200
I4
sg201
I6
sa(dp207
g197
I13
sg198
F0.004187107086181641
sg199
F0.0001239776611328125
sg200
I3
sg201
I5
sa(dp208
g197
I3
sg198
F0.0012352466583251953
sg199
F4.220008850097656e-05
sg200
I1
sg201
I4
sa(dp209
g197
I0
sg198
F0.0025987625122070312
sg199
F8.320808410644531e-05
sg200
I2
sg201
I3
sa(dp210
g197
I3
sg198
F0.0011229515075683594
sg199
F3.62396240234375e-05
sg200
I1
sg201
I2
sasS'total_cqs'
p211
I14
ssI22
(dp212
S'iters'
p213
I1
sS'meta'
p214
(lp215
(dp216
S'objective'
p217
I1
sS'query_time'
p218
F0.0036458969116210938
sS'comp_time'
p219
F0.0013720989227294922
sS'exec_cq'
p220
I1
sS'total_cq'
p221
I2
sasS'total_cqs'
p222
I2
ssI23
(dp223
S'iters'
p224
I0
sS'meta'
p225
(lp226
sS'total_cqs'
p227
I1
ssI24
(dp228
S'iters'
p229
I0
sS'meta'
p230
(lp231
sS'total_cqs'
p232
I1
ssI25
(dp233
S'iters'
p234
I4
sS'meta'
p235
(lp236
(dp237
S'objective'
p238
I12
sS'query_time'
p239
F53.838346004486084
sS'comp_time'
p240
F2.818636894226074
sS'exec_cq'
p241
I6
sS'total_cq'
p242
I7
sa(dp243
g238
I8
sg239
F0.844836950302124
sg240
F2.4024407863616943
sg241
I4
sg242
I5
sa(dp244
g238
I0
sg239
F0.09344315528869629
sg240
F0.00011920928955078125
sg241
I2
sg242
I3
sa(dp245
g238
I1
sg239
F0.009841203689575195
sg240
F3.695487976074219e-05
sg241
I1
sg242
I2
sasS'total_cqs'
p246
I7
ssI26
(dp247
S'iters'
p248
I7
sS'meta'
p249
(lp250
(dp251
S'objective'
p252
I51
sS'query_time'
p253
F0.3117561340332031
sS'comp_time'
p254
F0.020092010498046875
sS'exec_cq'
p255
I4
sS'total_cq'
p256
I13
sa(dp257
g252
I33
sg253
F0.013436079025268555
sg254
F0.00015115737915039062
sg255
I2
sg256
I11
sa(dp258
g252
I26
sg253
F27.28799605369568
sg254
F1.8359291553497314
sg255
I7
sg256
I9
sa(dp259
g252
I13
sg253
F0.7820160388946533
sg254
F1.857550859451294
sg255
I5
sg256
I7
sa(dp260
g252
I10
sg253
F0.9716129302978516
sg254
F1.9976601600646973
sg255
I3
sg256
I6
sa(dp261
g252
I6
sg253
F0.00020599365234375
sg254
F0.00012803077697753906
sg255
I1
sg256
I5
sa(dp262
g252
I2
sg253
F0.005637168884277344
sg254
F0.0009942054748535156
sg255
I3
sg256
I4
sasS'total_cqs'
p263
I13
ssI27
(dp264
S'iters'
p265
I1
sS'meta'
p266
(lp267
(dp268
S'objective'
p269
I1
sS'query_time'
p270
F0.26710987091064453
sS'comp_time'
p271
F0.0017490386962890625
sS'exec_cq'
p272
I1
sS'total_cq'
p273
I2
sasS'total_cqs'
p274
I2
ssI28
(dp275
S'iters'
p276
I7
sS'meta'
p277
(lp278
(dp279
S'objective'
p280
I47
sS'query_time'
p281
F1.471642017364502
sS'comp_time'
p282
F0.14488649368286133
sS'exec_cq'
p283
I6
sS'total_cq'
p284
I14
sa(dp285
g280
I26
sg281
F0.003504037857055664
sg282
F0.0077021121978759766
sg283
I3
sg284
I11
sa(dp286
g280
I27
sg281
F0.028039932250976562
sg282
F0.00015807151794433594
sg283
I1
sg284
I9
sa(dp287
g280
I21
sg281
F0.010136842727661133
sg282
F8.7738037109375e-05
sg283
I1
sg284
I8
sa(dp288
g280
I14
sg281
F0.002649068832397461
sg282
F4.38690185546875e-05
sg283
I1
sg284
I7
sa(dp289
g280
I8
sg281
F0.0001418590545654297
sg282
F9.608268737792969e-05
sg283
I1
sg284
I6
sa(dp290
g280
I5
sg281
F0.002379179000854492
sg282
F3.2901763916015625e-05
sg283
I1
sg284
I5
sasS'total_cqs'
p291
I14
ssI29
(dp292
S'iters'
p293
I1
sS'meta'
p294
(lp295
(dp296
S'objective'
p297
I1
sS'query_time'
p298
F0.029392004013061523
sS'comp_time'
p299
F0.0018725395202636719
sS'exec_cq'
p300
I2
sS'total_cq'
p301
I2
sasS'total_cqs'
p302
I2
ssI30
(dp303
S'iters'
p304
I1
sS'meta'
p305
(lp306
(dp307
S'objective'
p308
I1
sS'query_time'
p309
F0.4360799789428711
sS'comp_time'
p310
F0.0022079944610595703
sS'exec_cq'
p311
I2
sS'total_cq'
p312
I2
sasS'total_cqs'
p313
I2
ssI31
(dp314
S'iters'
p315
I3
sS'meta'
p316
(lp317
(dp318
S'objective'
p319
I13
sS'query_time'
p320
F5.076277256011963
sS'comp_time'
p321
F0.1529979705810547
sS'exec_cq'
p322
I9
sS'total_cq'
p323
I9
sa(dp324
g319
I2
sg320
F0.008521080017089844
sg321
F0.013863086700439453
sg322
I3
sg323
I3
sa(dp325
g319
I1
sg320
F0.007844924926757812
sg321
F0.019935131072998047
sg322
I2
sg323
I2
sasS'total_cqs'
p326
I9
ssI32
(dp327
S'iters'
p328
I4
sS'meta'
p329
(lp330
(dp331
S'objective'
p332
I4
sS'query_time'
p333
F22.462141036987305
sS'comp_time'
p334
F1.979111671447754
sS'exec_cq'
p335
I6
sS'total_cq'
p336
I7
sa(dp337
g332
I2
sg333
F0.5997819900512695
sg334
F2.0881049633026123
sg335
I4
sg336
I5
sa(dp338
g332
I1
sg333
F0.554171085357666
sg334
F1.138504981994629
sg335
I2
sg336
I3
sa(dp339
g332
I1
sg333
F0.3244030475616455
sg334
F0.40929198265075684
sg335
I1
sg336
I2
sasS'total_cqs'
p340
I7
ssI33
(dp341
S'iters'
p342
I1
sS'meta'
p343
(lp344
(dp345
S'objective'
p346
I1
sS'query_time'
p347
F0.03275108337402344
sS'comp_time'
p348
F0.0018105506896972656
sS'exec_cq'
p349
I2
sS'total_cq'
p350
I2
sasS'total_cqs'
p351
I2
ssI34
(dp352
S'iters'
p353
I0
sS'meta'
p354
(lp355
sS'total_cqs'
p356
I1
ssI35
(dp357
S'iters'
p358
I2
sS'meta'
p359
(lp360
(dp361
S'objective'
p362
I1
sS'query_time'
p363
F13.615062952041626
sS'comp_time'
p364
F0.11953997611999512
sS'exec_cq'
p365
I4
sS'total_cq'
p366
I5
sa(dp367
g362
I2
sg363
F0.0009310245513916016
sg364
F0.0003447532653808594
sg365
I1
sg366
I2
sasS'total_cqs'
p368
I5
ssI37
(dp369
S'iters'
p370
I2
sS'meta'
p371
(lp372
(dp373
S'objective'
p374
I29
sS'query_time'
p375
F1.8802580833435059
sS'comp_time'
p376
F0.09447050094604492
sS'exec_cq'
p377
I8
sS'total_cq'
p378
I10
sa(dp379
g374
I5
sg375
F0.0048830509185791016
sg376
F0.06946897506713867
sg377
I2
sg378
I2
sasS'total_cqs'
p380
I10
ssI38
(dp381
S'iters'
p382
I0
sS'meta'
p383
(lp384
sS'total_cqs'
p385
I1
ssI39
(dp386
S'iters'
p387
I0
sS'meta'
p388
(lp389
sS'total_cqs'
p390
I1
ssI40
(dp391
S'iters'
p392
I1
sS'meta'
p393
(lp394
(dp395
S'objective'
p396
I1
sS'query_time'
p397
F0.0033690929412841797
sS'comp_time'
p398
F0.0031189918518066406
sS'exec_cq'
p399
I1
sS'total_cq'
p400
I2
sasS'total_cqs'
p401
I2
ssI41
(dp402
S'iters'
p403
I3
sS'meta'
p404
(lp405
(dp406
S'objective'
p407
I7
sS'query_time'
p408
F10.093914985656738
sS'comp_time'
p409
F1.1454389095306396
sS'exec_cq'
p410
I3
sS'total_cq'
p411
I6
sa(dp412
g407
I4
sg408
F0.7785518169403076
sg409
F0.0007560253143310547
sg410
I2
sg411
I4
sa(dp413
g407
I1
sg408
F0.0006809234619140625
sg409
F0.0009591579437255859
sg410
I2
sg411
I2
sasS'total_cqs'
p414
I6
ssI42
(dp415
S'iters'
p416
I1
sS'meta'
p417
(lp418
(dp419
S'objective'
p420
I1
sS'query_time'
p421
F0.033770084381103516
sS'comp_time'
p422
F0.0012428760528564453
sS'exec_cq'
p423
I1
sS'total_cq'
p424
I2
sasS'total_cqs'
p425
I2
ssI43
(dp426
S'iters'
p427
I0
sS'meta'
p428
(lp429
sS'total_cqs'
p430
I1
ssI44
(dp431
S'iters'
p432
I3
sS'meta'
p433
(lp434
(dp435
S'objective'
p436
I3
sS'query_time'
p437
F1.6563379764556885
sS'comp_time'
p438
F0.10775423049926758
sS'exec_cq'
p439
I4
sS'total_cq'
p440
I5
sa(dp441
g436
I1
sg437
F0.014286994934082031
sg438
F0.029590129852294922
sg439
I2
sg440
I3
sa(dp442
g436
I2
sg437
F7.009506225585938e-05
sg438
F6.794929504394531e-05
sg439
I1
sg440
I2
sasS'total_cqs'
p443
I5
ssI45
(dp444
S'iters'
p445
I2
sS'meta'
p446
(lp447
(dp448
S'objective'
p449
I7
sS'query_time'
p450
F0.04287004470825195
sS'comp_time'
p451
F0.002507925033569336
sS'exec_cq'
p452
I4
sS'total_cq'
p453
I5
sa(dp454
g449
I2
sg450
F0.00018596649169921875
sg451
F0.0002522468566894531
sg452
I2
sg453
I2
sasS'total_cqs'
p455
I5
ssI46
(dp456
S'iters'
p457
I0
sS'meta'
p458
(lp459
sS'total_cqs'
p460
I1
ssI47
(dp461
S'iters'
p462
I0
sS'meta'
p463
(lp464
sS'total_cqs'
p465
I1
ssI48
(dp466
S'iters'
p467
I1
sS'meta'
p468
(lp469
(dp470
S'objective'
p471
I1
sS'query_time'
p472
F0.09261298179626465
sS'comp_time'
p473
F0.0019197463989257812
sS'exec_cq'
p474
I2
sS'total_cq'
p475
I2
sasS'total_cqs'
p476
I2
ssI49
(dp477
S'iters'
p478
I2
sS'meta'
p479
(lp480
(dp481
S'objective'
p482
I1
sS'query_time'
p483
F0.2181711196899414
sS'comp_time'
p484
F0.003102540969848633
sS'exec_cq'
p485
I4
sS'total_cq'
p486
I5
sa(dp487
g482
I2
sg483
F0.0003249645233154297
sg484
F0.0004839897155761719
sg485
I2
sg486
I2
sasS'total_cqs'
p488
I5
ssI50
(dp489
S'iters'
p490
I3
sS'meta'
p491
(lp492
(dp493
S'objective'
p494
I5
sS'query_time'
p495
F0.6748800277709961
sS'comp_time'
p496
F0.001992464065551758
sS'exec_cq'
p497
I5
sS'total_cq'
p498
I5
sa(dp499
g494
I2
sg495
F0.00017905235290527344
sg496
F0.0004169940948486328
sg497
I4
sg498
I4
sa(dp500
g494
I0
sg495
F0.00015783309936523438
sg496
F0.00037217140197753906
sg497
I3
sg498
I3
sasS'total_cqs'
p501
I5
ssI51
(dp502
S'iters'
p503
I0
sS'meta'
p504
(lp505
sS'total_cqs'
p506
I1
ssI52
(dp507
S'iters'
p508
I0
sS'meta'
p509
(lp510
sS'total_cqs'
p511
I1
ssI53
(dp512
S'iters'
p513
I0
sS'meta'
p514
(lp515
sS'total_cqs'
p516
I1
ssI55
(dp517
S'iters'
p518
I1
sS'meta'
p519
(lp520
(dp521
S'objective'
p522
I1
sS'query_time'
p523
F24.238725900650024
sS'comp_time'
p524
F0.017386198043823242
sS'exec_cq'
p525
I2
sS'total_cq'
p526
I2
sasS'total_cqs'
p527
I2
ssI56
(dp528
S'iters'
p529
I0
sS'meta'
p530
(lp531
sS'total_cqs'
p532
I1
ssI57
(dp533
S'iters'
p534
I2
sS'meta'
p535
(lp536
(dp537
S'objective'
p538
I0
sS'query_time'
p539
F12.186782836914062
sS'comp_time'
p540
F0.8879809379577637
sS'exec_cq'
p541
I2
sS'total_cq'
p542
I3
sa(dp543
g538
I1
sg539
F0.26326799392700195
sg540
F0.4093508720397949
sg541
I1
sg542
I2
sasS'total_cqs'
p544
I3
ssI108
(dp545
S'iters'
p546
I0
sS'meta'
p547
(lp548
sS'total_cqs'
p549
I1
ssI109
(dp550
S'iters'
p551
I0
sS'meta'
p552
(lp553
sS'total_cqs'
p554
I1
ssI116
(dp555
S'iters'
p556
I3
sS'meta'
p557
(lp558
(dp559
S'objective'
p560
I181
sS'query_time'
p561
F3.7526607513427734
sS'comp_time'
p562
F0.28901243209838867
sS'exec_cq'
p563
I15
sS'total_cq'
p564
I21
sa(dp565
g560
I164
sg561
F0.5029089450836182
sg562
F0.0006647109985351562
sg563
I14
sg564
I19
sa(dp566
g560
I7
sg561
F0.0013930797576904297
sg562
F0.0011529922485351562
sg563
I2
sg564
I2
sasS'total_cqs'
p567
I21
ssI117
(dp568
S'iters'
p569
I1
sS'meta'
p570
(lp571
(dp572
S'objective'
p573
I9
sS'query_time'
p574
F0.009518146514892578
sS'comp_time'
p575
F0.0015082359313964844
sS'exec_cq'
p576
I4
sS'total_cq'
p577
I5
sasS'total_cqs'
p578
I5
ssI118
(dp579
S'iters'
p580
I0
sS'meta'
p581
(lp582
sS'total_cqs'
p583
I1
ssI122
(dp584
S'iters'
p585
I0
sS'meta'
p586
(lp587
sS'total_cqs'
p588
I1
ss.