(dp0
I1
(dp1
S'iters'
p2
I2
sS'meta'
p3
(lp4
(dp5
S'objective'
p6
I1
sS'query_time'
p7
F17.990605115890503
sS'comp_time'
p8
F0.2967498302459717
sS'exec_cq'
p9
I3
sS'total_cq'
p10
I6
sa(dp11
g6
I2
sg7
F0.07375097274780273
sg8
F0.2098701000213623
sg9
I2
sg10
I2
sasS'total_cqs'
p12
I6
ssI2
(dp13
S'iters'
p14
I1
sS'meta'
p15
(lp16
(dp17
S'objective'
p18
I9
sS'query_time'
p19
F0.8837289810180664
sS'comp_time'
p20
F0.03445029258728027
sS'exec_cq'
p21
I5
sS'total_cq'
p22
I6
sasS'total_cqs'
p23
I6
ssI3
(dp24
S'iters'
p25
I11
sS'meta'
p26
(lp27
(dp28
S'objective'
p29
I445
sS'query_time'
p30
F26.91260290145874
sS'comp_time'
p31
F0.2774510383605957
sS'exec_cq'
p32
I33
sS'total_cq'
p33
I33
sa(dp34
g29
I395
sg30
F0.044342994689941406
sg31
F0.2648484706878662
sg32
I30
sg33
I30
sa(dp35
g29
I347
sg30
F0.039507150650024414
sg31
F0.1681208610534668
sg32
I27
sg33
I27
sa(dp36
g29
I306
sg30
F0.11255288124084473
sg31
F0.22493696212768555
sg32
I24
sg33
I24
sa(dp37
g29
I262
sg30
F0.04603099822998047
sg31
F0.22818779945373535
sg32
I22
sg33
I22
sa(dp38
g29
I223
sg30
F0.048452138900756836
sg31
F0.3506934642791748
sg32
I19
sg33
I19
sa(dp39
g29
I187
sg30
F0.02501988410949707
sg31
F0.16382694244384766
sg32
I16
sg33
I16
sa(dp40
g29
I158
sg30
F0.02661275863647461
sg31
F0.17707300186157227
sg32
I13
sg33
I13
sa(dp41
g29
I128
sg30
F0.007508993148803711
sg31
F0.012544393539428711
sg32
I10
sg33
I10
sa(dp42
g29
I100
sg30
F0.0060040950775146484
sg31
F0.012233972549438477
sg32
I9
sg33
I9
sa(dp43
g29
I78
sg30
F0.0060007572174072266
sg31
F0.012546300888061523
sg32
I8
sg33
I8
sasS'total_cqs'
p44
I33
ssI4
(dp45
S'iters'
p46
I0
sS'meta'
p47
(lp48
sS'total_cqs'
p49
I1
ssI5
(dp50
S'iters'
p51
I0
sS'meta'
p52
(lp53
sS'total_cqs'
p54
I1
ssI6
(dp55
S'iters'
p56
I2
sS'meta'
p57
(lp58
(dp59
S'objective'
p60
I1
sS'query_time'
p61
F15.659566164016724
sS'comp_time'
p62
F0.004101991653442383
sS'exec_cq'
p63
I4
sS'total_cq'
p64
I5
sa(dp65
g60
I3
sg61
F0.0004220008850097656
sg62
F0.0005807876586914062
sg63
I2
sg64
I2
sasS'total_cqs'
p66
I5
ssI7
(dp67
S'iters'
p68
I0
sS'meta'
p69
(lp70
sS'total_cqs'
p71
I1
ssI8
(dp72
S'iters'
p73
I2
sS'meta'
p74
(lp75
(dp76
S'objective'
p77
I17
sS'query_time'
p78
F43.45660591125488
sS'comp_time'
p79
F0.10199880599975586
sS'exec_cq'
p80
I6
sS'total_cq'
p81
I6
sa(dp82
g77
I7
sg78
F0.08216214179992676
sg79
F0.00015234947204589844
sg80
I4
sg81
I5
sasS'total_cqs'
p83
I6
ssI9
(dp84
S'iters'
p85
I2
sS'meta'
p86
(lp87
(dp88
S'objective'
p89
I1
sS'query_time'
p90
F11.597413063049316
sS'comp_time'
p91
F0.12477803230285645
sS'exec_cq'
p92
I3
sS'total_cq'
p93
I6
sa(dp94
g89
I2
sg90
F0.05582714080810547
sg91
F0.20005536079406738
sg92
I2
sg93
I2
sasS'total_cqs'
p95
I6
ssI10
(dp96
S'iters'
p97
I0
sS'meta'
p98
(lp99
sS'total_cqs'
p100
I1
ssI11
(dp101
S'iters'
p102
I0
sS'meta'
p103
(lp104
sS'total_cqs'
p105
I1
ssI12
(dp106
S'iters'
p107
I0
sS'meta'
p108
(lp109
sS'total_cqs'
p110
I1
ssI13
(dp111
S'iters'
p112
I1
sS'meta'
p113
(lp114
(dp115
S'objective'
p116
I22
sS'query_time'
p117
F0.062304019927978516
sS'comp_time'
p118
F0.008654356002807617
sS'exec_cq'
p119
I6
sS'total_cq'
p120
I8
sasS'total_cqs'
p121
I8
ssI14
(dp122
S'iters'
p123
I1
sS'meta'
p124
(lp125
(dp126
S'objective'
p127
I5
sS'query_time'
p128
F1.2011280059814453
sS'comp_time'
p129
F0.005012035369873047
sS'exec_cq'
p130
I5
sS'total_cq'
p131
I5
sasS'total_cqs'
p132
I5
ssI16
(dp133
S'iters'
p134
I2
sS'meta'
p135
(lp136
(dp137
S'objective'
p138
I3
sS'query_time'
p139
F1.4229819774627686
sS'comp_time'
p140
F0.0066869258880615234
sS'exec_cq'
p141
I4
sS'total_cq'
p142
I5
sa(dp143
g138
I1
sg139
F0.0014910697937011719
sg140
F0.0025653839111328125
sg141
I3
sg142
I3
sasS'total_cqs'
p144
I5
ssI17
(dp145
S'iters'
p146
I0
sS'meta'
p147
(lp148
sS'total_cqs'
p149
I1
ssI18
(dp150
S'iters'
p151
I2
sS'meta'
p152
(lp153
(dp154
S'objective'
p155
I3
sS'query_time'
p156
F0.2866189479827881
sS'comp_time'
p157
F0.003808259963989258
sS'exec_cq'
p158
I4
sS'total_cq'
p159
I5
sa(dp160
g155
I1
sg156
F0.02074885368347168
sg157
F0.00032591819763183594
sg158
I3
sg159
I3
sasS'total_cqs'
p161
I5
ssI19
(dp162
S'iters'
p163
I0
sS'meta'
p164
(lp165
sS'total_cqs'
p166
I1
ssI20
(dp167
S'iters'
p168
I4
sS'meta'
p169
(lp170
(dp171
S'objective'
p172
I44
sS'query_time'
p173
F13.544081211090088
sS'comp_time'
p174
F0.8258628845214844
sS'exec_cq'
p175
I10
sS'total_cq'
p176
I12
sa(dp177
g172
I27
sg173
F0.29662203788757324
sg174
F0.532517671585083
sg175
I8
sg176
I10
sa(dp178
g172
I20
sg173
F0.15975499153137207
sg174
F0.4079921245574951
sg175
I5
sg176
I8
sa(dp179
g172
I12
sg173
F0.09362411499023438
sg174
F0.0003750324249267578
sg175
I2
sg176
I6
sasS'total_cqs'
p180
I12
ssI21
(dp181
S'iters'
p182
I2
sS'meta'
p183
(lp184
(dp185
S'objective'
p186
I47
sS'query_time'
p187
F60.72884178161621
sS'comp_time'
p188
F0.8303210735321045
sS'exec_cq'
p189
I12
sS'total_cq'
p190
I14
sa(dp191
g186
I52
sg187
F0.16804218292236328
sg188
F0.06364130973815918
sg189
I9
sg190
I11
sasS'total_cqs'
p192
I14
ssI22
(dp193
S'iters'
p194
I1
sS'meta'
p195
(lp196
(dp197
S'objective'
p198
I1
sS'query_time'
p199
F0.01604914665222168
sS'comp_time'
p200
F0.0009303092956542969
sS'exec_cq'
p201
I1
sS'total_cq'
p202
I2
sasS'total_cqs'
p203
I2
ssI23
(dp204
S'iters'
p205
I0
sS'meta'
p206
(lp207
sS'total_cqs'
p208
I1
ssI24
(dp209
S'iters'
p210
I0
sS'meta'
p211
(lp212
sS'total_cqs'
p213
I1
ssI25
(dp214
S'iters'
p215
I2
sS'meta'
p216
(lp217
(dp218
S'objective'
p219
I10
sS'query_time'
p220
F52.43315100669861
sS'comp_time'
p221
F1.8570377826690674
sS'exec_cq'
p222
I6
sS'total_cq'
p223
I7
sa(dp224
g219
I5
sg220
F0.9975731372833252
sg221
F1.9482290744781494
sg222
I5
sg223
I5
sasS'total_cqs'
p225
I7
ssI26
(dp226
S'iters'
p227
I4
sS'meta'
p228
(lp229
(dp230
S'objective'
p231
I47
sS'query_time'
p232
F5.118987083435059
sS'comp_time'
p233
F0.014900922775268555
sS'exec_cq'
p234
I2
sS'total_cq'
p235
I13
sa(dp236
g231
I37
sg232
F21.848066568374634
sg233
F1.927306890487671
sg234
I9
sg235
I11
sa(dp237
g231
I25
sg232
F0.7858550548553467
sg233
F2.189774990081787
sg234
I7
sg235
I9
sa(dp238
g231
I17
sg232
F0.6883618831634521
sg233
F1.895603895187378
sg234
I4
sg235
I7
sasS'total_cqs'
p239
I13
ssI27
(dp240
S'iters'
p241
I1
sS'meta'
p242
(lp243
(dp244
S'objective'
p245
I1
sS'query_time'
p246
F0.22493410110473633
sS'comp_time'
p247
F0.0023517608642578125
sS'exec_cq'
p248
I1
sS'total_cq'
p249
I2
sasS'total_cqs'
p250
I2
ssI28
(dp251
S'iters'
p252
I4
sS'meta'
p253
(lp254
(dp255
S'objective'
p256
I49
sS'query_time'
p257
F1.505944013595581
sS'comp_time'
p258
F0.09977984428405762
sS'exec_cq'
p259
I6
sS'total_cq'
p260
I14
sa(dp261
g256
I47
sg257
F0.0032160282135009766
sg258
F0.005440950393676758
sg259
I3
sg260
I11
sa(dp262
g256
I34
sg257
F0.0029578208923339844
sg258
F5.698204040527344e-05
sg259
I1
sg260
I9
sa(dp263
g256
I24
sg257
F0.002290010452270508
sg258
F4.220008850097656e-05
sg259
I1
sg260
I8
sasS'total_cqs'
p264
I14
ssI29
(dp265
S'iters'
p266
I1
sS'meta'
p267
(lp268
(dp269
S'objective'
p270
I1
sS'query_time'
p271
F0.005851030349731445
sS'comp_time'
p272
F0.0009691715240478516
sS'exec_cq'
p273
I2
sS'total_cq'
p274
I2
sasS'total_cqs'
p275
I2
ssI30
(dp276
S'iters'
p277
I1
sS'meta'
p278
(lp279
(dp280
S'objective'
p281
I1
sS'query_time'
p282
F0.39804792404174805
sS'comp_time'
p283
F0.0025467872619628906
sS'exec_cq'
p284
I2
sS'total_cq'
p285
I2
sasS'total_cqs'
p286
I2
ssI31
(dp287
S'iters'
p288
I3
sS'meta'
p289
(lp290
(dp291
S'objective'
p292
I13
sS'query_time'
p293
F6.099869012832642
sS'comp_time'
p294
F0.09076786041259766
sS'exec_cq'
p295
I9
sS'total_cq'
p296
I9
sa(dp297
g292
I1
sg293
F0.010006904602050781
sg294
F0.018403053283691406
sg295
I5
sg296
I7
sa(dp298
g292
I1
sg293
F0.009158134460449219
sg294
F0.018926143646240234
sg295
I3
sg296
I3
sasS'total_cqs'
p299
I9
ssI32
(dp300
S'iters'
p301
I3
sS'meta'
p302
(lp303
(dp304
S'objective'
p305
I6
sS'query_time'
p306
F21.352598905563354
sS'comp_time'
p307
F2.3141191005706787
sS'exec_cq'
p308
I4
sS'total_cq'
p309
I7
sa(dp310
g305
I1
sg306
F1.1334011554718018
sg307
F0.0030481815338134766
sg308
I2
sg309
I4
sa(dp311
g305
I6
sg306
F0.03040790557861328
sg307
F0.03421473503112793
sg308
I1
sg309
I2
sasS'total_cqs'
p312
I7
ssI33
(dp313
S'iters'
p314
I1
sS'meta'
p315
(lp316
(dp317
S'objective'
p318
I1
sS'query_time'
p319
F0.04327392578125
sS'comp_time'
p320
F0.002212047576904297
sS'exec_cq'
p321
I2
sS'total_cq'
p322
I2
sasS'total_cqs'
p323
I2
ssI34
(dp324
S'iters'
p325
I0
sS'meta'
p326
(lp327
sS'total_cqs'
p328
I1
ssI35
(dp329
S'iters'
p330
I2
sS'meta'
p331
(lp332
(dp333
S'objective'
p334
I1
sS'query_time'
p335
F14.034271955490112
sS'comp_time'
p336
F0.08031201362609863
sS'exec_cq'
p337
I4
sS'total_cq'
p338
I5
sa(dp339
g334
I2
sg335
F0.013283967971801758
sg336
F0.09061384201049805
sg337
I2
sg338
I2
sasS'total_cqs'
p340
I5
ssI37
(dp341
S'iters'
p342
I2
sS'meta'
p343
(lp344
(dp345
S'objective'
p346
I29
sS'query_time'
p347
F1.9193108081817627
sS'comp_time'
p348
F0.09571242332458496
sS'exec_cq'
p349
I8
sS'total_cq'
p350
I10
sa(dp351
g346
I5
sg347
F0.004288911819458008
sg348
F0.07102799415588379
sg349
I2
sg350
I2
sasS'total_cqs'
p352
I10
ssI38
(dp353
S'iters'
p354
I0
sS'meta'
p355
(lp356
sS'total_cqs'
p357
I1
ssI39
(dp358
S'iters'
p359
I0
sS'meta'
p360
(lp361
sS'total_cqs'
p362
I1
ssI40
(dp363
S'iters'
p364
I1
sS'meta'
p365
(lp366
(dp367
S'objective'
p368
I1
sS'query_time'
p369
F0.00481104850769043
sS'comp_time'
p370
F0.0011692047119140625
sS'exec_cq'
p371
I1
sS'total_cq'
p372
I2
sasS'total_cqs'
p373
I2
ssI41
(dp374
S'iters'
p375
I2
sS'meta'
p376
(lp377
(dp378
S'objective'
p379
I7
sS'query_time'
p380
F11.062721014022827
sS'comp_time'
p381
F0.7701897621154785
sS'exec_cq'
p382
I5
sS'total_cq'
p383
I6
sa(dp384
g379
I5
sg380
F0.0008780956268310547
sg381
F0.0010509490966796875
sg382
I2
sg383
I2
sasS'total_cqs'
p385
I6
ssI42
(dp386
S'iters'
p387
I1
sS'meta'
p388
(lp389
(dp390
S'objective'
p391
I1
sS'query_time'
p392
F0.008156776428222656
sS'comp_time'
p393
F0.00045943260192871094
sS'exec_cq'
p394
I1
sS'total_cq'
p395
I2
sasS'total_cqs'
p396
I2
ssI43
(dp397
S'iters'
p398
I0
sS'meta'
p399
(lp400
sS'total_cqs'
p401
I1
ssI44
(dp402
S'iters'
p403
I2
sS'meta'
p404
(lp405
(dp406
S'objective'
p407
I3
sS'query_time'
p408
F0.23725199699401855
sS'comp_time'
p409
F0.0037517547607421875
sS'exec_cq'
p410
I2
sS'total_cq'
p411
I5
sa(dp412
g407
I1
sg408
F1.360368013381958
sg409
F0.09676194190979004
sg410
I3
sg411
I3
sasS'total_cqs'
p413
I5
ssI45
(dp414
S'iters'
p415
I2
sS'meta'
p416
(lp417
(dp418
S'objective'
p419
I3
sS'query_time'
p420
F0.0469968318939209
sS'comp_time'
p421
F0.00408482551574707
sS'exec_cq'
p422
I3
sS'total_cq'
p423
I5
sa(dp424
g419
I4
sg420
F0.0001571178436279297
sg421
F0.00020384788513183594
sg422
I2
sg423
I2
sasS'total_cqs'
p425
I5
ssI46
(dp426
S'iters'
p427
I0
sS'meta'
p428
(lp429
sS'total_cqs'
p430
I1
ssI47
(dp431
S'iters'
p432
I0
sS'meta'
p433
(lp434
sS'total_cqs'
p435
I1
ssI48
(dp436
S'iters'
p437
I1
sS'meta'
p438
(lp439
(dp440
S'objective'
p441
I1
sS'query_time'
p442
F0.1785430908203125
sS'comp_time'
p443
F0.002231597900390625
sS'exec_cq'
p444
I2
sS'total_cq'
p445
I2
sasS'total_cqs'
p446
I2
ssI49
(dp447
S'iters'
p448
I2
sS'meta'
p449
(lp450
(dp451
S'objective'
p452
I1
sS'query_time'
p453
F0.1608262062072754
sS'comp_time'
p454
F0.0029218196868896484
sS'exec_cq'
p455
I4
sS'total_cq'
p456
I5
sa(dp457
g452
I3
sg453
F0.0003161430358886719
sg454
F0.0005030632019042969
sg455
I2
sg456
I2
sasS'total_cqs'
p458
I5
ssI50
(dp459
S'iters'
p460
I1
sS'meta'
p461
(lp462
(dp463
S'objective'
p464
I5
sS'query_time'
p465
F0.7195630073547363
sS'comp_time'
p466
F0.004330635070800781
sS'exec_cq'
p467
I5
sS'total_cq'
p468
I5
sasS'total_cqs'
p469
I5
ssI51
(dp470
S'iters'
p471
I0
sS'meta'
p472
(lp473
sS'total_cqs'
p474
I1
ssI52
(dp475
S'iters'
p476
I0
sS'meta'
p477
(lp478
sS'total_cqs'
p479
I1
ssI53
(dp480
S'iters'
p481
I0
sS'meta'
p482
(lp483
sS'total_cqs'
p484
I1
ssI55
(dp485
S'iters'
p486
I1
sS'meta'
p487
(lp488
(dp489
S'objective'
p490
I1
sS'query_time'
p491
F24.406111001968384
sS'comp_time'
p492
F0.01989126205444336
sS'exec_cq'
p493
I2
sS'total_cq'
p494
I2
sasS'total_cqs'
p495
I2
ssI56
(dp496
S'iters'
p497
I0
sS'meta'
p498
(lp499
sS'total_cqs'
p500
I1
ssI57
(dp501
S'iters'
p502
I2
sS'meta'
p503
(lp504
(dp505
S'objective'
p506
I0
sS'query_time'
p507
F12.64206600189209
sS'comp_time'
p508
F1.1164920330047607
sS'exec_cq'
p509
I2
sS'total_cq'
p510
I3
sa(dp511
g506
I1
sg507
F0.33298397064208984
sg508
F0.5535948276519775
sg509
I1
sg510
I2
sasS'total_cqs'
p512
I3
ssI108
(dp513
S'iters'
p514
I0
sS'meta'
p515
(lp516
sS'total_cqs'
p517
I1
ssI109
(dp518
S'iters'
p519
I0
sS'meta'
p520
(lp521
sS'total_cqs'
p522
I1
ssI116
(dp523
S'iters'
p524
I3
sS'meta'
p525
(lp526
(dp527
S'objective'
p528
I153
sS'query_time'
p529
F3.5300729274749756
sS'comp_time'
p530
F0.24296903610229492
sS'exec_cq'
p531
I15
sS'total_cq'
p532
I21
sa(dp533
g528
I152
sg529
F0.5243649482727051
sg530
F0.0006163120269775391
sg531
I14
sg532
I19
sa(dp534
g528
I14
sg529
F0.0006461143493652344
sg530
F0.0008227825164794922
sg531
I2
sg532
I2
sasS'total_cqs'
p535
I21
ssI117
(dp536
S'iters'
p537
I1
sS'meta'
p538
(lp539
(dp540
S'objective'
p541
I5
sS'query_time'
p542
F0.009023189544677734
sS'comp_time'
p543
F0.0014958381652832031
sS'exec_cq'
p544
I4
sS'total_cq'
p545
I5
sasS'total_cqs'
p546
I5
ssI118
(dp547
S'iters'
p548
I0
sS'meta'
p549
(lp550
sS'total_cqs'
p551
I1
ssI122
(dp552
S'iters'
p553
I0
sS'meta'
p554
(lp555
sS'total_cqs'
p556
I1
ss.