(dp0
I1
(dp1
S'iters'
p2
I2
sS'meta'
p3
(lp4
(dp5
S'objective'
p6
I5
sS'query_time'
p7
F24.625401973724365
sS'comp_time'
p8
F1.2857439517974854
sS'exec_cq'
p9
I6
sS'total_cq'
p10
I6
sa(dp11
g6
I4
sg7
F0.009675979614257812
sg8
F235.54087114334106
sg9
I2
sg10
I2
sasS'total_cqs'
p12
I6
ssI2
(dp13
S'iters'
p14
I1
sS'meta'
p15
(lp16
(dp17
S'objective'
p18
I9
sS'query_time'
p19
F0.8429310321807861
sS'comp_time'
p20
F0.11552691459655762
sS'exec_cq'
p21
I6
sS'total_cq'
p22
I6
sasS'total_cqs'
p23
I6
ssI3
(dp24
S'iters'
p25
I10
sS'meta'
p26
(lp27
(dp28
S'objective'
p29
I431
sS'query_time'
p30
F25.902508020401
sS'comp_time'
p31
F0.2431347370147705
sS'exec_cq'
p32
I33
sS'total_cq'
p33
I33
sa(dp34
g29
I370
sg30
F0.07967400550842285
sg31
F0.2150862216949463
sg32
I30
sg33
I30
sa(dp35
g29
I311
sg30
F0.022110939025878906
sg31
F0.1592700481414795
sg32
I27
sg33
I27
sa(dp36
g29
I262
sg30
F0.008529186248779297
sg31
F0.0377650260925293
sg32
I24
sg33
I24
sa(dp37
g29
I209
sg30
F0.008124113082885742
sg31
F0.06306290626525879
sg32
I21
sg33
I21
sa(dp38
g29
I175
sg30
F0.0066759586334228516
sg31
F0.03803086280822754
sg32
I18
sg33
I18
sa(dp39
g29
I143
sg30
F0.007580995559692383
sg31
F0.03465008735656738
sg32
I16
sg33
I16
sa(dp40
g29
I115
sg30
F0.007306098937988281
sg31
F0.05745506286621094
sg32
I13
sg33
I13
sa(dp41
g29
I90
sg30
F0.005733966827392578
sg31
F0.029779911041259766
sg32
I10
sg33
I10
sa(dp42
g29
I67
sg30
F0.006209850311279297
sg31
F0.0513758659362793
sg32
I9
sg33
I9
sasS'total_cqs'
p43
I33
ssI6
(dp44
S'iters'
p45
I2
sS'meta'
p46
(lp47
(dp48
S'objective'
p49
I1
sS'query_time'
p50
F15.328326940536499
sS'comp_time'
p51
F0.0030291080474853516
sS'exec_cq'
p52
I5
sS'total_cq'
p53
I5
sa(dp54
g49
I2
sg50
F0.0005350112915039062
sg51
F0.0018057823181152344
sg52
I3
sg53
I3
sasS'total_cqs'
p55
I5
ssI8
(dp56
S'iters'
p57
I2
sS'meta'
p58
(lp59
(dp60
S'objective'
p61
I15
sS'query_time'
p62
F22.74215292930603
sS'comp_time'
p63
F0.26410889625549316
sS'exec_cq'
p64
I6
sS'total_cq'
p65
I6
sa(dp66
g61
I6
sg62
F0.08516883850097656
sg63
F0.08576107025146484
sg64
I5
sg65
I5
sasS'total_cqs'
p67
I6
ssI9
(dp68
S'iters'
p69
I2
sS'meta'
p70
(lp71
(dp72
S'objective'
p73
I1
sS'query_time'
p74
F52.94204902648926
sS'comp_time'
p75
F4.127408981323242
sS'exec_cq'
p76
I6
sS'total_cq'
p77
I6
sa(dp78
g73
I1
sg74
F0.0635690689086914
sg75
F0.5748088359832764
sg76
I3
sg77
I3
sasS'total_cqs'
p79
I6
ssI13
(dp80
S'iters'
p81
I1
sS'meta'
p82
(lp83
(dp84
S'objective'
p85
I22
sS'query_time'
p86
F0.019958019256591797
sS'comp_time'
p87
F0.00014519691467285156
sS'exec_cq'
p88
I8
sS'total_cq'
p89
I8
sasS'total_cqs'
p90
I8
ssI14
(dp91
S'iters'
p92
I1
sS'meta'
p93
(lp94
(dp95
S'objective'
p96
I5
sS'query_time'
p97
F1.176365852355957
sS'comp_time'
p98
F0.007339954376220703
sS'exec_cq'
p99
I5
sS'total_cq'
p100
I5
sasS'total_cqs'
p101
I5
ssI16
(dp102
S'iters'
p103
I2
sS'meta'
p104
(lp105
(dp106
S'objective'
p107
I1
sS'query_time'
p108
F1.67756986618042
sS'comp_time'
p109
F0.005276203155517578
sS'exec_cq'
p110
I5
sS'total_cq'
p111
I5
sa(dp112
g107
I3
sg108
F0.0009720325469970703
sg109
F0.0041370391845703125
sg110
I2
sg111
I2
sasS'total_cqs'
p113
I5
ssI18
(dp114
S'iters'
p115
I2
sS'meta'
p116
(lp117
(dp118
S'objective'
p119
I1
sS'query_time'
p120
F0.3038330078125
sS'comp_time'
p121
F0.0003209114074707031
sS'exec_cq'
p122
I5
sS'total_cq'
p123
I5
sa(dp124
g119
I2
sg120
F3.600120544433594e-05
sg121
F0.00014781951904296875
sg122
I2
sg123
I2
sasS'total_cqs'
p125
I5
ssI20
(dp126
S'iters'
p127
I4
sS'meta'
p128
(lp129
(dp130
S'objective'
p131
I48
sS'query_time'
p132
F11.474112033843994
sS'comp_time'
p133
F1.3222839832305908
sS'exec_cq'
p134
I12
sS'total_cq'
p135
I12
sa(dp136
g131
I37
sg132
F0.2724790573120117
sg133
F1.0640199184417725
sg134
I10
sg135
I10
sa(dp137
g131
I26
sg132
F0.2174968719482422
sg133
F0.941831111907959
sg134
I8
sg135
I8
sa(dp138
g131
I18
sg132
F0.19591498374938965
sg133
F0.7234010696411133
sg134
I6
sg135
I6
sasS'total_cqs'
p139
I12
ssI21
(dp140
S'iters'
p141
I2
sS'meta'
p142
(lp143
(dp144
S'objective'
p145
I55
sS'query_time'
p146
F28.51493000984192
sS'comp_time'
p147
F0.25061702728271484
sS'exec_cq'
p148
I14
sS'total_cq'
p149
I14
sa(dp150
g145
I1
sg146
F0.00421595573425293
sg147
F0.019959211349487305
sg148
I2
sg149
I2
sasS'total_cqs'
p151
I14
ssI22
(dp152
S'iters'
p153
I1
sS'meta'
p154
(lp155
(dp156
S'objective'
p157
I1
sS'query_time'
p158
F0.008318901062011719
sS'comp_time'
p159
F0.0001537799835205078
sS'exec_cq'
p160
I2
sS'total_cq'
p161
I2
sasS'total_cqs'
p162
I2
ssI25
(dp163
S'iters'
p164
I3
sS'meta'
p165
(lp166
(dp167
S'objective'
p168
I6
sS'query_time'
p169
F86.92587995529175
sS'comp_time'
p170
F10.322978019714355
sS'exec_cq'
p171
I7
sS'total_cq'
p172
I7
sa(dp173
g168
I3
sg169
F2.266416072845459
sg170
F6.359601020812988
sg171
I5
sg172
I5
sa(dp174
g168
I4
sg169
F2.0114738941192627
sg170
F6.386007308959961
sg171
I3
sg172
I3
sasS'total_cqs'
p175
I7
ssI26
(dp176
S'iters'
p177
I4
sS'meta'
p178
(lp179
(dp180
S'objective'
p181
I51
sS'query_time'
p182
F24.77972102165222
sS'comp_time'
p183
F3.6062490940093994
sS'exec_cq'
p184
I13
sS'total_cq'
p185
I13
sa(dp186
g181
I43
sg182
F0.7641680240631104
sg183
F3.157273292541504
sg184
I11
sg185
I11
sa(dp187
g181
I33
sg182
F0.7712209224700928
sg183
F3.1266207695007324
sg184
I9
sg185
I9
sa(dp188
g181
I23
sg182
F0.744718074798584
sg183
F3.140070915222168
sg184
I8
sg185
I8
sasS'total_cqs'
p189
I13
ssI27
(dp190
S'iters'
p191
I1
sS'meta'
p192
(lp193
(dp194
S'objective'
p195
I1
sS'query_time'
p196
F0.13421010971069336
sS'comp_time'
p197
F0.004227876663208008
sS'exec_cq'
p198
I2
sS'total_cq'
p199
I2
sasS'total_cqs'
p200
I2
ssI28
(dp201
S'iters'
p202
I5
sS'meta'
p203
(lp204
(dp205
S'objective'
p206
I55
sS'query_time'
p207
F1.6816840171813965
sS'comp_time'
p208
F0.026767969131469727
sS'exec_cq'
p209
I14
sS'total_cq'
p210
I14
sa(dp211
g206
I40
sg207
F0.006876945495605469
sg208
F0.02510380744934082
sg209
I12
sg210
I12
sa(dp212
g206
I24
sg207
F0.021363019943237305
sg208
F0.01745772361755371
sg209
I8
sg210
I8
sa(dp213
g206
I16
sg207
F0.004247188568115234
sg208
F0.01663804054260254
sg209
I5
sg210
I5
sa(dp214
g206
I5
sg207
F0.0033681392669677734
sg208
F0.016518115997314453
sg209
I4
sg210
I4
sasS'total_cqs'
p215
I14
ssI29
(dp216
S'iters'
p217
I1
sS'meta'
p218
(lp219
(dp220
S'objective'
p221
I1
sS'query_time'
p222
F0.006533145904541016
sS'comp_time'
p223
F0.00013589859008789062
sS'exec_cq'
p224
I2
sS'total_cq'
p225
I2
sasS'total_cqs'
p226
I2
ssI30
(dp227
S'iters'
p228
I1
sS'meta'
p229
(lp230
(dp231
S'objective'
p232
I1
sS'query_time'
p233
F0.3503899574279785
sS'comp_time'
p234
F0.005715847015380859
sS'exec_cq'
p235
I2
sS'total_cq'
p236
I2
sasS'total_cqs'
p237
I2
ssI31
(dp238
S'iters'
p239
I3
sS'meta'
p240
(lp241
(dp242
S'objective'
p243
I9
sS'query_time'
p244
F6.378846883773804
sS'comp_time'
p245
F0.19434595108032227
sS'exec_cq'
p246
I9
sS'total_cq'
p247
I9
sa(dp248
g243
I0
sg244
F0.006166934967041016
sg245
F0.027944087982177734
sg246
I3
sg247
I3
sa(dp249
g243
I7
sg244
F0.005754947662353516
sg245
F0.05571103096008301
sg246
I2
sg247
I2
sasS'total_cqs'
p250
I9
ssI32
(dp251
S'iters'
p252
I3
sS'meta'
p253
(lp254
(dp255
S'objective'
p256
I2
sS'query_time'
p257
F19.160059928894043
sS'comp_time'
p258
F3.0719571113586426
sS'exec_cq'
p259
I7
sS'total_cq'
p260
I7
sa(dp261
g256
I1
sg257
F0.29404616355895996
sg258
F1.0234899520874023
sg259
I4
sg260
I4
sa(dp262
g256
I6
sg257
F0.283980131149292
sg258
F1.0231590270996094
sg259
I2
sg260
I2
sasS'total_cqs'
p263
I7
ssI33
(dp264
S'iters'
p265
I1
sS'meta'
p266
(lp267
(dp268
S'objective'
p269
I1
sS'query_time'
p270
F0.03555607795715332
sS'comp_time'
p271
F0.00011992454528808594
sS'exec_cq'
p272
I2
sS'total_cq'
p273
I2
sasS'total_cqs'
p274
I2
ssI35
(dp275
S'iters'
p276
I2
sS'meta'
p277
(lp278
(dp279
S'objective'
p280
I1
sS'query_time'
p281
F16.48522400856018
sS'comp_time'
p282
F0.19848132133483887
sS'exec_cq'
p283
I5
sS'total_cq'
p284
I5
sa(dp285
g280
I2
sg281
F0.02929091453552246
sg282
F0.16354918479919434
sg283
I3
sg284
I3
sasS'total_cqs'
p286
I5
ssI37
(dp287
S'iters'
p288
I2
sS'meta'
p289
(lp290
(dp291
S'objective'
p292
I17
sS'query_time'
p293
F2.344259023666382
sS'comp_time'
p294
F0.11709403991699219
sS'exec_cq'
p295
I10
sS'total_cq'
p296
I10
sa(dp297
g292
I1
sg293
F0.029062986373901367
sg294
F0.036334991455078125
sg295
I3
sg296
I3
sasS'total_cqs'
p298
I10
ssI40
(dp299
S'iters'
p300
I1
sS'meta'
p301
(lp302
(dp303
S'objective'
p304
I1
sS'query_time'
p305
F17.629085063934326
sS'comp_time'
p306
F2.4916622638702393
sS'exec_cq'
p307
I2
sS'total_cq'
p308
I2
sasS'total_cqs'
p309
I2
ssI41
(dp310
S'iters'
p311
I2
sS'meta'
p312
(lp313
(dp314
S'objective'
p315
I1
sS'query_time'
p316
F11.984721899032593
sS'comp_time'
p317
F1.406609058380127
sS'exec_cq'
p318
I6
sS'total_cq'
p319
I6
sa(dp320
g315
I2
sg316
F0.002362966537475586
sg317
F0.00728607177734375
sg318
I3
sg319
I3
sasS'total_cqs'
p321
I6
ssI42
(dp322
S'iters'
p323
I1
sS'meta'
p324
(lp325
(dp326
S'objective'
p327
I1
sS'query_time'
p328
F17.172225952148438
sS'comp_time'
p329
F2.843636989593506
sS'exec_cq'
p330
I2
sS'total_cq'
p331
I2
sasS'total_cqs'
p332
I2
ssI44
(dp333
S'iters'
p334
I1
sS'meta'
p335
(lp336
(dp337
S'objective'
p338
I5
sS'query_time'
p339
F1.5475690364837646
sS'comp_time'
p340
F0.12059712409973145
sS'exec_cq'
p341
I5
sS'total_cq'
p342
I5
sasS'total_cqs'
p343
I5
ssI45
(dp344
S'iters'
p345
I2
sS'meta'
p346
(lp347
(dp348
S'objective'
p349
I3
sS'query_time'
p350
F0.05965995788574219
sS'comp_time'
p351
F0.0006451606750488281
sS'exec_cq'
p352
I5
sS'total_cq'
p353
I5
sa(dp354
g349
I1
sg350
F0.0001571178436279297
sg351
F0.000637054443359375
sg352
I2
sg353
I2
sasS'total_cqs'
p355
I5
ssI48
(dp356
S'iters'
p357
I1
sS'meta'
p358
(lp359
(dp360
S'objective'
p361
I1
sS'query_time'
p362
F0.10329484939575195
sS'comp_time'
p363
F0.0058841705322265625
sS'exec_cq'
p364
I2
sS'total_cq'
p365
I2
sasS'total_cqs'
p366
I2
ssI49
(dp367
S'iters'
p368
I2
sS'meta'
p369
(lp370
(dp371
S'objective'
p372
I1
sS'query_time'
p373
F0.268298864364624
sS'comp_time'
p374
F0.006116151809692383
sS'exec_cq'
p375
I5
sS'total_cq'
p376
I5
sa(dp377
g372
I2
sg373
F3.409385681152344e-05
sg374
F0.00011467933654785156
sg375
I2
sg376
I2
sasS'total_cqs'
p378
I5
ssI50
(dp379
S'iters'
p380
I1
sS'meta'
p381
(lp382
(dp383
S'objective'
p384
I5
sS'query_time'
p385
F0.9175012111663818
sS'comp_time'
p386
F0.0013670921325683594
sS'exec_cq'
p387
I5
sS'total_cq'
p388
I5
sasS'total_cqs'
p389
I5
ssI55
(dp390
S'iters'
p391
I1
sS'meta'
p392
(lp393
(dp394
S'objective'
p395
I1
sS'query_time'
p396
F26.652857065200806
sS'comp_time'
p397
F3.651663064956665
sS'exec_cq'
p398
I2
sS'total_cq'
p399
I2
sasS'total_cqs'
p400
I2
ssI57
(dp401
S'iters'
p402
I2
sS'meta'
p403
(lp404
(dp405
S'objective'
p406
I0
sS'query_time'
p407
F13.968641996383667
sS'comp_time'
p408
F1.6643569469451904
sS'exec_cq'
p409
I3
sS'total_cq'
p410
I3
sa(dp411
g406
I1
sg407
F0.29842519760131836
sg408
F1.3246278762817383
sg409
I2
sg410
I2
sasS'total_cqs'
p412
I3
ssI116
(dp413
S'iters'
p414
I3
sS'meta'
p415
(lp416
(dp417
S'objective'
p418
I139
sS'query_time'
p419
F5.258608102798462
sS'comp_time'
p420
F0.2946288585662842
sS'exec_cq'
p421
I21
sS'total_cq'
p422
I21
sa(dp423
g418
I6
sg419
F0.0012950897216796875
sg420
F0.0041849613189697266
sg421
I3
sg422
I3
sa(dp424
g418
I8
sg419
F0.0007441043853759766
sg420
F0.002743959426879883
sg421
I2
sg422
I2
sasS'total_cqs'
p425
I21
ssI117
(dp426
S'iters'
p427
I1
sS'meta'
p428
(lp429
(dp430
S'objective'
p431
I5
sS'query_time'
p432
F0.016024112701416016
sS'comp_time'
p433
F7.104873657226562e-05
sS'exec_cq'
p434
I5
sS'total_cq'
p435
I5
sasS'total_cqs'
p436
I5
ss.