(dp0
I1
(dp1
S'iters'
p2
I4
sS'meta'
p3
(lp4
(dp5
S'objective'
p6
I1
sS'query_time'
p7
F16.94103717803955
sS'comp_time'
p8
F0.23241972923278809
sS'exec_cq'
p9
I3
sS'total_cq'
p10
I6
sa(dp11
g6
I4
sg7
F31.112240076065063
sg8
F0.5189657211303711
sg9
I2
sg10
I4
sa(dp12
g6
I1
sg7
F0.0025589466094970703
sg8
F5.698204040527344e-05
sg9
I1
sg10
I3
sa(dp13
g6
I1
sg7
F0.017262935638427734
sg8
F0.2582519054412842
sg9
I1
sg10
I2
sasS'total_cqs'
p14
I6
ssI2
(dp15
S'iters'
p16
I1
sS'meta'
p17
(lp18
(dp19
S'objective'
p20
I19
sS'query_time'
p21
F1.051408052444458
sS'comp_time'
p22
F0.3325314521789551
sS'exec_cq'
p23
I6
sS'total_cq'
p24
I6
sasS'total_cqs'
p25
I6
ssI3
(dp26
S'iters'
p27
I16
sS'meta'
p28
(lp29
(dp30
S'objective'
p31
I441
sS'query_time'
p32
F25.909257173538208
sS'comp_time'
p33
F0.27465152740478516
sS'exec_cq'
p34
I33
sS'total_cq'
p35
I33
sa(dp36
g31
I395
sg32
F0.08965539932250977
sg33
F0.04875946044921875
sg34
I30
sg35
I30
sa(dp37
g31
I362
sg32
F0.021647930145263672
sg33
F0.11704635620117188
sg34
I27
sg35
I27
sa(dp38
g31
I325
sg32
F0.02058696746826172
sg33
F0.11296534538269043
sg34
I24
sg35
I24
sa(dp39
g31
I285
sg32
F0.019730091094970703
sg33
F0.11008405685424805
sg34
I21
sg35
I21
sa(dp40
g31
I261
sg32
F0.019429922103881836
sg33
F0.11037087440490723
sg34
I18
sg35
I18
sa(dp41
g31
I231
sg32
F0.01962590217590332
sg33
F0.04024052619934082
sg34
I17
sg35
I17
sa(dp42
g31
I208
sg32
F0.01998305320739746
sg33
F0.12702178955078125
sg34
I16
sg35
I16
sa(dp43
g31
I183
sg32
F0.01905202865600586
sg33
F0.18227505683898926
sg34
I15
sg35
I15
sa(dp44
g31
I167
sg32
F0.004472017288208008
sg33
F0.0063741207122802734
sg34
I12
sg35
I12
sa(dp45
g31
I148
sg32
F0.0037412643432617188
sg33
F0.005203962326049805
sg34
I11
sg35
I11
sa(dp46
g31
I132
sg32
F0.0035872459411621094
sg33
F0.005722999572753906
sg34
I9
sg35
I9
sa(dp47
g31
I32
sg32
F0.471668004989624
sg33
F0.0001652240753173828
sg34
I4
sg35
I8
sa(dp48
g31
I57
sg32
F0.007512807846069336
sg33
F0.010309934616088867
sg34
I5
sg35
I5
sa(dp49
g31
I46
sg32
F0.002032041549682617
sg33
F0.004802227020263672
sg34
I4
sg35
I4
sa(dp50
g31
I58
sg32
F0.0020389556884765625
sg33
F0.005167245864868164
sg34
I3
sg35
I3
sasS'total_cqs'
p51
I33
ssI4
(dp52
S'iters'
p53
I0
sS'meta'
p54
(lp55
sS'total_cqs'
p56
I1
ssI5
(dp57
S'iters'
p58
I0
sS'meta'
p59
(lp60
sS'total_cqs'
p61
I1
ssI6
(dp62
S'iters'
p63
I3
sS'meta'
p64
(lp65
(dp66
S'objective'
p67
I1
sS'query_time'
p68
F15.422183990478516
sS'comp_time'
p69
F0.004118204116821289
sS'exec_cq'
p70
I4
sS'total_cq'
p71
I5
sa(dp72
g67
I2
sg68
F0.0003559589385986328
sg69
F0.0005109310150146484
sg70
I2
sg71
I3
sa(dp73
g67
I1
sg68
F0.00034809112548828125
sg69
F0.0006158351898193359
sg70
I2
sg71
I2
sasS'total_cqs'
p74
I5
ssI7
(dp75
S'iters'
p76
I0
sS'meta'
p77
(lp78
sS'total_cqs'
p79
I1
ssI8
(dp80
S'iters'
p81
I4
sS'meta'
p82
(lp83
(dp84
S'objective'
p85
I9
sS'query_time'
p86
F23.423845052719116
sS'comp_time'
p87
F0.10153436660766602
sS'exec_cq'
p88
I5
sS'total_cq'
p89
I6
sa(dp90
g85
I1
sg86
F0.2192528247833252
sg87
F0.00017309188842773438
sg88
I4
sg89
I5
sa(dp91
g85
I2
sg86
F22.03813910484314
sg87
F0.00012969970703125
sg88
I3
sg89
I3
sa(dp92
g85
I3
sg86
F0.0020580291748046875
sg87
F5.5789947509765625e-05
sg88
I1
sg89
I2
sasS'total_cqs'
p93
I6
ssI9
(dp94
S'iters'
p95
I3
sS'meta'
p96
(lp97
(dp98
S'objective'
p99
I5
sS'query_time'
p100
F11.893241167068481
sS'comp_time'
p101
F0.05844998359680176
sS'exec_cq'
p102
I3
sS'total_cq'
p103
I6
sa(dp104
g99
I2
sg100
F0.05893588066101074
sg101
F0.19925618171691895
sg102
I3
sg103
I3
sa(dp105
g99
I1
sg100
F0.13865089416503906
sg101
F0.10951519012451172
sg102
I2
sg103
I2
sasS'total_cqs'
p106
I6
ssI10
(dp107
S'iters'
p108
I0
sS'meta'
p109
(lp110
sS'total_cqs'
p111
I1
ssI11
(dp112
S'iters'
p113
I0
sS'meta'
p114
(lp115
sS'total_cqs'
p116
I1
ssI12
(dp117
S'iters'
p118
I0
sS'meta'
p119
(lp120
sS'total_cqs'
p121
I1
ssI13
(dp122
S'iters'
p123
I2
sS'meta'
p124
(lp125
(dp126
S'objective'
p127
I20
sS'query_time'
p128
F0.024865150451660156
sS'comp_time'
p129
F0.009591817855834961
sS'exec_cq'
p130
I6
sS'total_cq'
p131
I8
sa(dp132
g127
I26
sg128
F0.008612871170043945
sg129
F0.0001380443572998047
sg130
I7
sg131
I7
sasS'total_cqs'
p133
I8
ssI14
(dp134
S'iters'
p135
I3
sS'meta'
p136
(lp137
(dp138
S'objective'
p139
I5
sS'query_time'
p140
F1.059988021850586
sS'comp_time'
p141
F0.012421846389770508
sS'exec_cq'
p142
I5
sS'total_cq'
p143
I5
sa(dp144
g139
I6
sg140
F0.0009379386901855469
sg141
F0.001207113265991211
sg142
I4
sg143
I4
sa(dp145
g139
I6
sg140
F0.0005199909210205078
sg141
F0.0009682178497314453
sg142
I3
sg143
I3
sasS'total_cqs'
p146
I5
ssI16
(dp147
S'iters'
p148
I3
sS'meta'
p149
(lp150
(dp151
S'objective'
p152
I1
sS'query_time'
p153
F1.4088828563690186
sS'comp_time'
p154
F0.006023883819580078
sS'exec_cq'
p155
I4
sS'total_cq'
p156
I5
sa(dp157
g152
I2
sg153
F0.0491030216217041
sg154
F0.00023317337036132812
sg155
I3
sg156
I3
sa(dp158
g152
I3
sg153
F6.29425048828125e-05
sg154
F0.0001227855682373047
sg155
I2
sg156
I2
sasS'total_cqs'
p159
I5
ssI17
(dp160
S'iters'
p161
I0
sS'meta'
p162
(lp163
sS'total_cqs'
p164
I1
ssI18
(dp165
S'iters'
p166
I3
sS'meta'
p167
(lp168
(dp169
S'objective'
p170
I1
sS'query_time'
p171
F0.17895197868347168
sS'comp_time'
p172
F0.004102230072021484
sS'exec_cq'
p173
I4
sS'total_cq'
p174
I5
sa(dp175
g170
I2
sg171
F5.2928924560546875e-05
sg172
F0.00021696090698242188
sg173
I2
sg174
I3
sa(dp176
g170
I1
sg171
F0.04139399528503418
sg172
F5.793571472167969e-05
sg173
I1
sg174
I2
sasS'total_cqs'
p177
I5
ssI19
(dp178
S'iters'
p179
I0
sS'meta'
p180
(lp181
sS'total_cqs'
p182
I1
ssI20
(dp183
S'iters'
p184
I6
sS'meta'
p185
(lp186
(dp187
S'objective'
p188
I38
sS'query_time'
p189
F13.52839708328247
sS'comp_time'
p190
F0.690619945526123
sS'exec_cq'
p191
I10
sS'total_cq'
p192
I12
sa(dp193
g188
I36
sg189
F0.2764601707458496
sg190
F0.7711789608001709
sg191
I8
sg192
I10
sa(dp194
g188
I27
sg189
F0.27382802963256836
sg190
F0.652332067489624
sg191
I6
sg192
I8
sa(dp195
g188
I23
sg189
F0.11895608901977539
sg190
F0.17923974990844727
sg191
I5
sg192
I7
sa(dp196
g188
I18
sg189
F0.010104894638061523
sg190
F0.0985250473022461
sg191
I4
sg192
I6
sa(dp197
g188
I22
sg189
F0.1324307918548584
sg190
F0.0003864765167236328
sg191
I4
sg192
I4
sasS'total_cqs'
p198
I12
ssI21
(dp199
S'iters'
p200
I10
sS'meta'
p201
(lp202
(dp203
S'objective'
p204
I47
sS'query_time'
p205
F59.76064610481262
sS'comp_time'
p206
F0.7473397254943848
sS'exec_cq'
p207
I12
sS'total_cq'
p208
I14
sa(dp209
g204
I50
sg205
F0.08910894393920898
sg206
F0.05536603927612305
sg207
I8
sg208
I11
sa(dp210
g204
I49
sg205
F0.26993870735168457
sg206
F0.09221100807189941
sg207
I7
sg208
I9
sa(dp211
g204
I48
sg205
F0.008803844451904297
sg206
F0.02130579948425293
sg207
I7
sg208
I8
sa(dp212
g204
I48
sg205
F0.0072460174560546875
sg206
F0.0871741771697998
sg207
I6
sg208
I7
sa(dp213
g204
I24
sg205
F0.009059667587280273
sg206
F0.00014090538024902344
sg207
I4
sg208
I6
sa(dp214
g204
I15
sg205
F0.003832101821899414
sg206
F0.00012135505676269531
sg207
I3
sg208
I5
sa(dp215
g204
I6
sg205
F0.0021979808807373047
sg206
F9.131431579589844e-05
sg207
I2
sg208
I4
sa(dp216
g204
I2
sg205
F0.0011508464813232422
sg206
F4.100799560546875e-05
sg207
I1
sg208
I3
sa(dp217
g204
I5
sg205
F0.0010609626770019531
sg206
F3.409385681152344e-05
sg207
I1
sg208
I2
sasS'total_cqs'
p218
I14
ssI22
(dp219
S'iters'
p220
I1
sS'meta'
p221
(lp222
(dp223
S'objective'
p224
I1
sS'query_time'
p225
F0.004461050033569336
sS'comp_time'
p226
F0.0008978843688964844
sS'exec_cq'
p227
I1
sS'total_cq'
p228
I2
sasS'total_cqs'
p229
I2
ssI23
(dp230
S'iters'
p231
I0
sS'meta'
p232
(lp233
sS'total_cqs'
p234
I1
ssI24
(dp235
S'iters'
p236
I0
sS'meta'
p237
(lp238
sS'total_cqs'
p239
I1
ssI25
(dp240
S'iters'
p241
I4
sS'meta'
p242
(lp243
(dp244
S'objective'
p245
I8
sS'query_time'
p246
F53.632803201675415
sS'comp_time'
p247
F2.456357955932617
sS'exec_cq'
p248
I6
sS'total_cq'
p249
I7
sa(dp250
g245
I0
sg246
F0.7133049964904785
sg247
F2.3615996837615967
sg248
I4
sg249
I5
sa(dp251
g245
I3
sg246
F0.07510495185852051
sg247
F0.000171661376953125
sg248
I2
sg249
I3
sa(dp252
g245
I1
sg246
F0.007318973541259766
sg247
F5.5789947509765625e-05
sg248
I1
sg249
I2
sasS'total_cqs'
p253
I7
ssI26
(dp254
S'iters'
p255
I9
sS'meta'
p256
(lp257
(dp258
S'objective'
p259
I43
sS'query_time'
p260
F0.2594599723815918
sS'comp_time'
p261
F0.014316320419311523
sS'exec_cq'
p262
I4
sS'total_cq'
p263
I13
sa(dp264
g259
I41
sg260
F27.248973846435547
sg261
F0.0057871341705322266
sg262
I5
sg263
I11
sa(dp265
g259
I30
sg260
F0.0006461143493652344
sg261
F0.0010552406311035156
sg262
I3
sg263
I9
sa(dp266
g259
I20
sg260
F0.015724897384643555
sg261
F0.00014591217041015625
sg262
I2
sg263
I8
sa(dp267
g259
I11
sg260
F0.031388044357299805
sg261
F0.0017099380493164062
sg262
I3
sg263
I6
sa(dp268
g259
I9
sg260
F0.0012161731719970703
sg261
F0.0016126632690429688
sg262
I4
sg263
I5
sa(dp269
g259
I7
sg260
F0.0007729530334472656
sg261
F0.0006234645843505859
sg262
I3
sg263
I4
sa(dp270
g259
I5
sg260
F0.00020503997802734375
sg261
F0.0003631114959716797
sg262
I2
sg263
I3
sa(dp271
g259
I6
sg260
F0.0017189979553222656
sg261
F2.7894973754882812e-05
sg262
I1
sg263
I2
sasS'total_cqs'
p272
I13
ssI27
(dp273
S'iters'
p274
I1
sS'meta'
p275
(lp276
(dp277
S'objective'
p278
I1
sS'query_time'
p279
F0.24353694915771484
sS'comp_time'
p280
F0.0020401477813720703
sS'exec_cq'
p281
I1
sS'total_cq'
p282
I2
sasS'total_cqs'
p283
I2
ssI28
(dp284
S'iters'
p285
I10
sS'meta'
p286
(lp287
(dp288
S'objective'
p289
I67
sS'query_time'
p290
F1.5083162784576416
sS'comp_time'
p291
F0.07297301292419434
sS'exec_cq'
p292
I8
sS'total_cq'
p293
I14
sa(dp294
g289
I48
sg290
F0.003287792205810547
sg291
F0.006779909133911133
sg292
I5
sg293
I11
sa(dp295
g289
I39
sg290
F1.811981201171875e-05
sg291
F0.00011181831359863281
sg292
I2
sg293
I9
sa(dp296
g289
I29
sg290
F0.022442102432250977
sg291
F0.0001289844512939453
sg292
I1
sg293
I8
sa(dp297
g289
I19
sg290
F0.002515077590942383
sg291
F0.0015139579772949219
sg292
I1
sg293
I7
sa(dp298
g289
I10
sg290
F0.015772104263305664
sg291
F9.72747802734375e-05
sg292
I1
sg293
I6
sa(dp299
g289
I4
sg290
F1.7881393432617188e-05
sg291
F4.029273986816406e-05
sg292
I1
sg293
I5
sa(dp300
g289
I2
sg290
F0.021160125732421875
sg291
F0.00013589859008789062
sg292
I1
sg293
I4
sa(dp301
g289
I1
sg290
F0.004647970199584961
sg291
F5.555152893066406e-05
sg292
I1
sg293
I3
sa(dp302
g289
I1
sg290
F0.0045239925384521484
sg291
F5.602836608886719e-05
sg292
I1
sg293
I2
sasS'total_cqs'
p303
I14
ssI29
(dp304
S'iters'
p305
I1
sS'meta'
p306
(lp307
(dp308
S'objective'
p309
I1
sS'query_time'
p310
F0.007099151611328125
sS'comp_time'
p311
F0.0015430450439453125
sS'exec_cq'
p312
I2
sS'total_cq'
p313
I2
sasS'total_cqs'
p314
I2
ssI30
(dp315
S'iters'
p316
I1
sS'meta'
p317
(lp318
(dp319
S'objective'
p320
I1
sS'query_time'
p321
F0.37036800384521484
sS'comp_time'
p322
F0.002953052520751953
sS'exec_cq'
p323
I2
sS'total_cq'
p324
I2
sasS'total_cqs'
p325
I2
ssI31
(dp326
S'iters'
p327
I3
sS'meta'
p328
(lp329
(dp330
S'objective'
p331
I19
sS'query_time'
p332
F5.786733150482178
sS'comp_time'
p333
F0.1748638153076172
sS'exec_cq'
p334
I9
sS'total_cq'
p335
I9
sa(dp336
g331
I5
sg332
F0.010154962539672852
sg333
F0.016433238983154297
sg334
I3
sg335
I3
sa(dp337
g331
I2
sg332
F0.0035037994384765625
sg333
F0.0052907466888427734
sg334
I2
sg335
I2
sasS'total_cqs'
p338
I9
ssI32
(dp339
S'iters'
p340
I4
sS'meta'
p341
(lp342
(dp343
S'objective'
p344
I2
sS'query_time'
p345
F21.476941108703613
sS'comp_time'
p346
F2.2042388916015625
sS'exec_cq'
p347
I4
sS'total_cq'
p348
I7
sa(dp349
g344
I3
sg345
F1.2148351669311523
sg346
F0.003677845001220703
sg347
I2
sg348
I5
sa(dp350
g344
I0
sg345
F0.35604405403137207
sg346
F1.0478930473327637
sg347
I2
sg348
I3
sa(dp351
g344
I1
sg345
F0.3347451686859131
sg346
F0.3138711452484131
sg347
I1
sg348
I2
sasS'total_cqs'
p352
I7
ssI33
(dp353
S'iters'
p354
I1
sS'meta'
p355
(lp356
(dp357
S'objective'
p358
I1
sS'query_time'
p359
F0.04876995086669922
sS'comp_time'
p360
F0.007853031158447266
sS'exec_cq'
p361
I2
sS'total_cq'
p362
I2
sasS'total_cqs'
p363
I2
ssI34
(dp364
S'iters'
p365
I0
sS'meta'
p366
(lp367
sS'total_cqs'
p368
I1
ssI35
(dp369
S'iters'
p370
I3
sS'meta'
p371
(lp372
(dp373
S'objective'
p374
I1
sS'query_time'
p375
F14.293592929840088
sS'comp_time'
p376
F0.08701586723327637
sS'exec_cq'
p377
I4
sS'total_cq'
p378
I5
sa(dp379
g374
I2
sg375
F0.012037992477416992
sg376
F0.08731889724731445
sg377
I2
sg378
I3
sa(dp380
g374
I1
sg375
F0.0007309913635253906
sg376
F0.0002770423889160156
sg377
I1
sg378
I2
sasS'total_cqs'
p381
I5
ssI37
(dp382
S'iters'
p383
I3
sS'meta'
p384
(lp385
(dp386
S'objective'
p387
I35
sS'query_time'
p388
F1.8649611473083496
sS'comp_time'
p389
F0.16044878959655762
sS'exec_cq'
p390
I8
sS'total_cq'
p391
I10
sa(dp392
g387
I25
sg388
F0.014212846755981445
sg389
F0.02230381965637207
sg390
I7
sg391
I9
sa(dp393
g387
I8
sg388
F0.0035741329193115234
sg389
F0.004047393798828125
sg390
I2
sg391
I2
sasS'total_cqs'
p394
I10
ssI38
(dp395
S'iters'
p396
I0
sS'meta'
p397
(lp398
sS'total_cqs'
p399
I1
ssI39
(dp400
S'iters'
p401
I0
sS'meta'
p402
(lp403
sS'total_cqs'
p404
I1
ssI40
(dp405
S'iters'
p406
I1
sS'meta'
p407
(lp408
(dp409
S'objective'
p410
I1
sS'query_time'
p411
F0.0038559436798095703
sS'comp_time'
p412
F0.0040130615234375
sS'exec_cq'
p413
I1
sS'total_cq'
p414
I2
sasS'total_cqs'
p415
I2
ssI41
(dp416
S'iters'
p417
I3
sS'meta'
p418
(lp419
(dp420
S'objective'
p421
I1
sS'query_time'
p422
F10.248828172683716
sS'comp_time'
p423
F0.8866400718688965
sS'exec_cq'
p424
I3
sS'total_cq'
p425
I6
sa(dp426
g421
I1
sg422
F0.8543620109558105
sg423
F0.0007011890411376953
sg424
I2
sg425
I4
sa(dp427
g421
I4
sg422
F0.0006749629974365234
sg423
F0.001004934310913086
sg424
I2
sg425
I2
sasS'total_cqs'
p428
I6
ssI42
(dp429
S'iters'
p430
I1
sS'meta'
p431
(lp432
(dp433
S'objective'
p434
I1
sS'query_time'
p435
F0.009822845458984375
sS'comp_time'
p436
F0.001619100570678711
sS'exec_cq'
p437
I1
sS'total_cq'
p438
I2
sasS'total_cqs'
p439
I2
ssI43
(dp440
S'iters'
p441
I0
sS'meta'
p442
(lp443
sS'total_cqs'
p444
I1
ssI44
(dp445
S'iters'
p446
I3
sS'meta'
p447
(lp448
(dp449
S'objective'
p450
I3
sS'query_time'
p451
F1.6021308898925781
sS'comp_time'
p452
F0.03503870964050293
sS'exec_cq'
p453
I4
sS'total_cq'
p454
I5
sa(dp455
g450
I1
sg451
F0.09966087341308594
sg452
F0.04100680351257324
sg453
I2
sg454
I3
sa(dp456
g450
I2
sg451
F0.00010514259338378906
sg452
F8.034706115722656e-05
sg453
I1
sg454
I2
sasS'total_cqs'
p457
I5
ssI45
(dp458
S'iters'
p459
I2
sS'meta'
p460
(lp461
(dp462
S'objective'
p463
I5
sS'query_time'
p464
F0.028185129165649414
sS'comp_time'
p465
F0.0023288726806640625
sS'exec_cq'
p466
I3
sS'total_cq'
p467
I5
sa(dp468
g463
I3
sg464
F0.00011396408081054688
sg465
F0.00016498565673828125
sg466
I2
sg467
I2
sasS'total_cqs'
p469
I5
ssI46
(dp470
S'iters'
p471
I0
sS'meta'
p472
(lp473
sS'total_cqs'
p474
I1
ssI47
(dp475
S'iters'
p476
I0
sS'meta'
p477
(lp478
sS'total_cqs'
p479
I1
ssI48
(dp480
S'iters'
p481
I1
sS'meta'
p482
(lp483
(dp484
S'objective'
p485
I1
sS'query_time'
p486
F0.08696198463439941
sS'comp_time'
p487
F0.0015540122985839844
sS'exec_cq'
p488
I2
sS'total_cq'
p489
I2
sasS'total_cqs'
p490
I2
ssI49
(dp491
S'iters'
p492
I3
sS'meta'
p493
(lp494
(dp495
S'objective'
p496
I1
sS'query_time'
p497
F0.17235016822814941
sS'comp_time'
p498
F0.004116535186767578
sS'exec_cq'
p499
I4
sS'total_cq'
p500
I5
sa(dp501
g496
I4
sg497
F0.05264997482299805
sg498
F0.00035190582275390625
sg499
I3
sg500
I3
sa(dp502
g496
I4
sg497
F5.0067901611328125e-05
sg498
F0.00012993812561035156
sg499
I2
sg500
I2
sasS'total_cqs'
p503
I5
ssI50
(dp504
S'iters'
p505
I4
sS'meta'
p506
(lp507
(dp508
S'objective'
p509
I5
sS'query_time'
p510
F0.7862710952758789
sS'comp_time'
p511
F0.0016980171203613281
sS'exec_cq'
p512
I5
sS'total_cq'
p513
I5
sa(dp514
g509
I2
sg510
F0.00011897087097167969
sg511
F0.00026106834411621094
sg512
I4
sg513
I4
sa(dp515
g509
I0
sg510
F8.20159912109375e-05
sg511
F0.00019693374633789062
sg512
I3
sg513
I3
sa(dp516
g509
I1
sg510
F8.320808410644531e-05
sg511
F0.00019288063049316406
sg512
I2
sg513
I2
sasS'total_cqs'
p517
I5
ssI51
(dp518
S'iters'
p519
I0
sS'meta'
p520
(lp521
sS'total_cqs'
p522
I1
ssI52
(dp523
S'iters'
p524
I0
sS'meta'
p525
(lp526
sS'total_cqs'
p527
I1
ssI53
(dp528
S'iters'
p529
I0
sS'meta'
p530
(lp531
sS'total_cqs'
p532
I1
ssI55
(dp533
S'iters'
p534
I1
sS'meta'
p535
(lp536
(dp537
S'objective'
p538
I1
sS'query_time'
p539
F24.540438890457153
sS'comp_time'
p540
F0.015687942504882812
sS'exec_cq'
p541
I2
sS'total_cq'
p542
I2
sasS'total_cqs'
p543
I2
ssI56
(dp544
S'iters'
p545
I0
sS'meta'
p546
(lp547
sS'total_cqs'
p548
I1
ssI57
(dp549
S'iters'
p550
I2
sS'meta'
p551
(lp552
(dp553
S'objective'
p554
I0
sS'query_time'
p555
F13.00400185585022
sS'comp_time'
p556
F1.0058796405792236
sS'exec_cq'
p557
I2
sS'total_cq'
p558
I3
sa(dp559
g554
I1
sg555
F0.2563009262084961
sg556
F0.38648319244384766
sg557
I1
sg558
I2
sasS'total_cqs'
p560
I3
ssI108
(dp561
S'iters'
p562
I0
sS'meta'
p563
(lp564
sS'total_cqs'
p565
I1
ssI109
(dp566
S'iters'
p567
I0
sS'meta'
p568
(lp569
sS'total_cqs'
p570
I1
ssI116
(dp571
S'iters'
p572
I3
sS'meta'
p573
(lp574
(dp575
S'objective'
p576
I171
sS'query_time'
p577
F3.6886861324310303
sS'comp_time'
p578
F0.23274016380310059
sS'exec_cq'
p579
I15
sS'total_cq'
p580
I21
sa(dp581
g576
I183
sg577
F0.5343921184539795
sg578
F0.0006842613220214844
sg579
I16
sg580
I19
sa(dp582
g576
I7
sg577
F0.0006830692291259766
sg578
F0.0009002685546875
sg579
I2
sg580
I2
sasS'total_cqs'
p583
I21
ssI117
(dp584
S'iters'
p585
I2
sS'meta'
p586
(lp587
(dp588
S'objective'
p589
I11
sS'query_time'
p590
F0.010089874267578125
sS'comp_time'
p591
F0.0015370845794677734
sS'exec_cq'
p592
I4
sS'total_cq'
p593
I5
sa(dp594
g589
I11
sg590
F0.002173900604248047
sg591
F3.981590270996094e-05
sg592
I4
sg593
I4
sasS'total_cqs'
p595
I5
ssI118
(dp596
S'iters'
p597
I0
sS'meta'
p598
(lp599
sS'total_cqs'
p600
I1
ssI122
(dp601
S'iters'
p602
I0
sS'meta'
p603
(lp604
sS'total_cqs'
p605
I1
ss.