(dp0
I1
(dp1
S'iters'
p2
I3
sS'meta'
p3
(lp4
(dp5
S'objective'
p6
I1
sS'query_time'
p7
F16.952070951461792
sS'comp_time'
p8
F0.9473934173583984
sS'exec_cq'
p9
I3
sS'total_cq'
p10
I6
sa(dp11
g6
I1
sg7
F25.24287509918213
sg8
F0.0037581920623779297
sg9
I1
sg10
I4
sa(dp12
g6
I0
sg7
F29.70080280303955
sg8
F2.4768450260162354
sg9
I2
sg10
I3
sasS'total_cqs'
p13
I6
ssI2
(dp14
S'iters'
p15
I1
sS'meta'
p16
(lp17
(dp18
S'objective'
p19
I15
sS'query_time'
p20
F0.9660019874572754
sS'comp_time'
p21
F0.22080302238464355
sS'exec_cq'
p22
I2
sS'total_cq'
p23
I6
sasS'total_cqs'
p24
I6
ssI3
(dp25
S'iters'
p26
I13
sS'meta'
p27
(lp28
(dp29
S'objective'
p30
I431
sS'query_time'
p31
F26.514822959899902
sS'comp_time'
p32
F0.4495692253112793
sS'exec_cq'
p33
I15
sS'total_cq'
p34
I33
sa(dp35
g30
I378
sg31
F0.4116489887237549
sg32
F0.020695924758911133
sg33
I13
sg34
I30
sa(dp36
g30
I315
sg31
F0.030601024627685547
sg32
F0.4216949939727783
sg33
I12
sg34
I27
sa(dp37
g30
I270
sg31
F0.004427909851074219
sg32
F0.02099132537841797
sg33
I10
sg34
I24
sa(dp38
g30
I231
sg31
F0.016869068145751953
sg32
F0.21580910682678223
sg33
I9
sg34
I22
sa(dp39
g30
I175
sg31
F0.004415988922119141
sg32
F0.11380529403686523
sg33
I8
sg34
I19
sa(dp40
g30
I164
sg31
F0.21130895614624023
sg32
F0.020023107528686523
sg33
I5
sg34
I16
sa(dp41
g30
I139
sg31
F0.0022008419036865234
sg32
F0.015234947204589844
sg33
I4
sg34
I15
sa(dp42
g30
I109
sg31
F0.014501094818115234
sg32
F0.1805100440979004
sg33
I6
sg34
I14
sa(dp43
g30
I72
sg31
F0.004253864288330078
sg32
F0.01879429817199707
sg33
I5
sg34
I13
sa(dp44
g30
I57
sg31
F0.002766132354736328
sg32
F0.015058755874633789
sg33
I3
sg34
I10
sa(dp45
g30
I29
sg31
F0.23847508430480957
sg32
F0.08487629890441895
sg33
I5
sg34
I9
sa(dp46
g30
I35
sg31
F0.0026259422302246094
sg32
F0.08654093742370605
sg33
I2
sg34
I6
sasS'total_cqs'
p47
I33
ssI4
(dp48
S'iters'
p49
I0
sS'meta'
p50
(lp51
sS'total_cqs'
p52
I1
ssI5
(dp53
S'iters'
p54
I0
sS'meta'
p55
(lp56
sS'total_cqs'
p57
I1
ssI6
(dp58
S'iters'
p59
I2
sS'meta'
p60
(lp61
(dp62
S'objective'
p63
I1
sS'query_time'
p64
F14.068574905395508
sS'comp_time'
p65
F0.015121221542358398
sS'exec_cq'
p66
I4
sS'total_cq'
p67
I5
sa(dp68
g63
I1
sg64
F0.00010418891906738281
sg65
F0.0007998943328857422
sg66
I1
sg67
I2
sasS'total_cqs'
p69
I5
ssI7
(dp70
S'iters'
p71
I0
sS'meta'
p72
(lp73
sS'total_cqs'
p74
I1
ssI8
(dp75
S'iters'
p76
I4
sS'meta'
p77
(lp78
(dp79
S'objective'
p80
I13
sS'query_time'
p81
F23.402175188064575
sS'comp_time'
p82
F0.5020029544830322
sS'exec_cq'
p83
I5
sS'total_cq'
p84
I6
sa(dp85
g80
I3
sg81
F0.18141603469848633
sg82
F0.1791062355041504
sg83
I4
sg84
I5
sa(dp86
g80
I0
sg81
F1.7967932224273682
sg82
F1.816349983215332
sg83
I2
sg84
I3
sa(dp87
g80
I1
sg81
F0.0016400814056396484
sg82
F0.00156402587890625
sg83
I1
sg84
I2
sasS'total_cqs'
p88
I6
ssI9
(dp89
S'iters'
p90
I3
sS'meta'
p91
(lp92
(dp93
S'objective'
p94
I5
sS'query_time'
p95
F11.586224794387817
sS'comp_time'
p96
F0.5501906871795654
sS'exec_cq'
p97
I3
sS'total_cq'
p98
I6
sa(dp99
g94
I0
sg95
F0.06896400451660156
sg96
F0.667151927947998
sg97
I3
sg98
I3
sa(dp100
g94
I2
sg95
F0.06272006034851074
sg96
F0.619835376739502
sg97
I2
sg98
I2
sasS'total_cqs'
p101
I6
ssI10
(dp102
S'iters'
p103
I0
sS'meta'
p104
(lp105
sS'total_cqs'
p106
I1
ssI11
(dp107
S'iters'
p108
I0
sS'meta'
p109
(lp110
sS'total_cqs'
p111
I1
ssI12
(dp112
S'iters'
p113
I0
sS'meta'
p114
(lp115
sS'total_cqs'
p116
I1
ssI13
(dp117
S'iters'
p118
I2
sS'meta'
p119
(lp120
(dp121
S'objective'
p122
I26
sS'query_time'
p123
F0.03270292282104492
sS'comp_time'
p124
F0.009598970413208008
sS'exec_cq'
p125
I6
sS'total_cq'
p126
I8
sa(dp127
g122
I25
sg123
F3.600120544433594e-05
sg124
F0.0001251697540283203
sg125
I5
sg126
I7
sasS'total_cqs'
p128
I8
ssI14
(dp129
S'iters'
p130
I1
sS'meta'
p131
(lp132
(dp133
S'objective'
p134
I9
sS'query_time'
p135
F1.0640389919281006
sS'comp_time'
p136
F0.008439302444458008
sS'exec_cq'
p137
I5
sS'total_cq'
p138
I5
sasS'total_cqs'
p139
I5
ssI16
(dp140
S'iters'
p141
I2
sS'meta'
p142
(lp143
(dp144
S'objective'
p145
I1
sS'query_time'
p146
F1.3238990306854248
sS'comp_time'
p147
F0.01491999626159668
sS'exec_cq'
p148
I4
sS'total_cq'
p149
I5
sa(dp150
g145
I1
sg146
F0.0014281272888183594
sg147
F0.007381439208984375
sg148
I2
sg149
I2
sasS'total_cqs'
p151
I5
ssI17
(dp152
S'iters'
p153
I0
sS'meta'
p154
(lp155
sS'total_cqs'
p156
I1
ssI18
(dp157
S'iters'
p158
I3
sS'meta'
p159
(lp160
(dp161
S'objective'
p162
I1
sS'query_time'
p163
F0.17470693588256836
sS'comp_time'
p164
F0.004421234130859375
sS'exec_cq'
p165
I4
sS'total_cq'
p166
I5
sa(dp167
g162
I0
sg163
F3.314018249511719e-05
sg164
F0.00023508071899414062
sg165
I2
sg166
I3
sa(dp168
g162
I2
sg163
F0.04564714431762695
sg164
F0.0001800060272216797
sg165
I1
sg166
I2
sasS'total_cqs'
p169
I5
ssI19
(dp170
S'iters'
p171
I0
sS'meta'
p172
(lp173
sS'total_cqs'
p174
I1
ssI20
(dp175
S'iters'
p176
I6
sS'meta'
p177
(lp178
(dp179
S'objective'
p180
I34
sS'query_time'
p181
F10.033838987350464
sS'comp_time'
p182
F1.5882880687713623
sS'exec_cq'
p183
I6
sS'total_cq'
p184
I12
sa(dp185
g180
I26
sg181
F4.327447175979614
sg182
F0.5135960578918457
sg183
I4
sg184
I10
sa(dp186
g180
I21
sg181
F0.1621570587158203
sg182
F1.0941689014434814
sg183
I4
sg184
I8
sa(dp187
g180
I25
sg181
F0.030476093292236328
sg182
F0.40171170234680176
sg183
I3
sg184
I6
sa(dp188
g180
I26
sg181
F0.17914295196533203
sg182
F0.924332857131958
sg183
I3
sg184
I5
sa(dp189
g180
I19
sg181
F0.0952918529510498
sg182
F0.003906726837158203
sg183
I4
sg184
I4
sasS'total_cqs'
p190
I12
ssI21
(dp191
S'iters'
p192
I5
sS'meta'
p193
(lp194
(dp195
S'objective'
p196
I77
sS'query_time'
p197
F30.720932960510254
sS'comp_time'
p198
F0.23520183563232422
sS'exec_cq'
p199
I8
sS'total_cq'
p200
I14
sa(dp201
g196
I35
sg197
F0.009562969207763672
sg198
F0.06930971145629883
sg199
I6
sg200
I12
sa(dp202
g196
I11
sg197
F29.865089178085327
sg198
F2.2504830360412598
sg199
I4
sg200
I8
sa(dp203
g196
I0
sg197
F0.0014371871948242188
sg198
F0.00780487060546875
sg199
I2
sg200
I4
sa(dp204
g196
I3
sg197
F0.013123035430908203
sg198
F0.00012993812561035156
sg199
I1
sg200
I2
sasS'total_cqs'
p205
I14
ssI22
(dp206
S'iters'
p207
I1
sS'meta'
p208
(lp209
(dp210
S'objective'
p211
I1
sS'query_time'
p212
F0.007720232009887695
sS'comp_time'
p213
F0.0014545917510986328
sS'exec_cq'
p214
I1
sS'total_cq'
p215
I2
sasS'total_cqs'
p216
I2
ssI23
(dp217
S'iters'
p218
I0
sS'meta'
p219
(lp220
sS'total_cqs'
p221
I1
ssI24
(dp222
S'iters'
p223
I0
sS'meta'
p224
(lp225
sS'total_cqs'
p226
I1
ssI25
(dp227
S'iters'
p228
I4
sS'meta'
p229
(lp230
(dp231
S'objective'
p232
I6
sS'query_time'
p233
F48.44580101966858
sS'comp_time'
p234
F4.948500156402588
sS'exec_cq'
p235
I4
sS'total_cq'
p236
I7
sa(dp237
g232
I5
sg233
F4.622657060623169
sg234
F0.40331029891967773
sg235
I2
sg236
I5
sa(dp238
g232
I2
sg233
F0.06996393203735352
sg234
F0.11271381378173828
sg235
I2
sg236
I3
sa(dp239
g232
I2
sg233
F0.00749969482421875
sg234
F0.04793691635131836
sg235
I1
sg236
I2
sasS'total_cqs'
p240
I7
ssI26
(dp241
S'iters'
p242
I9
sS'meta'
p243
(lp244
(dp245
S'objective'
p246
I63
sS'query_time'
p247
F0.2600820064544678
sS'comp_time'
p248
F0.025265932083129883
sS'exec_cq'
p249
I4
sS'total_cq'
p250
I13
sa(dp251
g246
I59
sg247
F23.777162075042725
sg248
F5.057528257369995
sg249
I3
sg250
I11
sa(dp252
g246
I42
sg247
F0.0009508132934570312
sg248
F0.005600452423095703
sg249
I2
sg250
I10
sa(dp253
g246
I25
sg247
F3.1244630813598633
sg248
F0.013370037078857422
sg249
I2
sg250
I9
sa(dp254
g246
I24
sg247
F0.8840839862823486
sg248
F5.514455080032349
sg249
I2
sg250
I7
sa(dp255
g246
I8
sg247
F0.017621994018554688
sg248
F0.0002989768981933594
sg249
I2
sg250
I6
sa(dp256
g246
I6
sg247
F0.02477097511291504
sg248
F0.0017359256744384766
sg249
I1
sg250
I4
sa(dp257
g246
I1
sg247
F0.00030303001403808594
sg248
F0.0014157295227050781
sg249
I1
sg250
I3
sa(dp258
g246
I3
sg247
F0.00023412704467773438
sg248
F0.0014767646789550781
sg249
I1
sg250
I2
sasS'total_cqs'
p259
I13
ssI27
(dp260
S'iters'
p261
I1
sS'meta'
p262
(lp263
(dp264
S'objective'
p265
I1
sS'query_time'
p266
F0.20528507232666016
sS'comp_time'
p267
F0.0077838897705078125
sS'exec_cq'
p268
I1
sS'total_cq'
p269
I2
sasS'total_cqs'
p270
I2
ssI28
(dp271
S'iters'
p272
I9
sS'meta'
p273
(lp274
(dp275
S'objective'
p276
I45
sS'query_time'
p277
F1.4644460678100586
sS'comp_time'
p278
F0.11589264869689941
sS'exec_cq'
p279
I6
sS'total_cq'
p280
I14
sa(dp281
g276
I51
sg277
F0.005426168441772461
sg278
F0.00029659271240234375
sg279
I2
sg280
I11
sa(dp282
g276
I39
sg277
F0.0040400028228759766
sg278
F0.021689176559448242
sg279
I3
sg280
I10
sa(dp283
g276
I29
sg277
F1.5974044799804688e-05
sg278
F0.00012946128845214844
sg279
I1
sg280
I8
sa(dp284
g276
I22
sg277
F0.002087116241455078
sg278
F0.01812887191772461
sg279
I1
sg280
I7
sa(dp285
g276
I15
sg277
F0.01569080352783203
sg278
F0.0008785724639892578
sg279
I1
sg280
I6
sa(dp286
g276
I9
sg277
F0.009974956512451172
sg278
F0.0005030632019042969
sg279
I1
sg280
I5
sa(dp287
g276
I4
sg277
F0.00279998779296875
sg278
F9.298324584960938e-05
sg279
I1
sg280
I4
sa(dp288
g276
I0
sg277
F0.0028679370880126953
sg278
F0.00012421607971191406
sg279
I1
sg280
I3
sasS'total_cqs'
p289
I14
ssI29
(dp290
S'iters'
p291
I1
sS'meta'
p292
(lp293
(dp294
S'objective'
p295
I1
sS'query_time'
p296
F0.007184028625488281
sS'comp_time'
p297
F0.001711130142211914
sS'exec_cq'
p298
I2
sS'total_cq'
p299
I2
sasS'total_cqs'
p300
I2
ssI30
(dp301
S'iters'
p302
I1
sS'meta'
p303
(lp304
(dp305
S'objective'
p306
I1
sS'query_time'
p307
F0.4094359874725342
sS'comp_time'
p308
F0.012786149978637695
sS'exec_cq'
p309
I2
sS'total_cq'
p310
I2
sasS'total_cqs'
p311
I2
ssI31
(dp312
S'iters'
p313
I3
sS'meta'
p314
(lp315
(dp316
S'objective'
p317
I7
sS'query_time'
p318
F1.6973369121551514
sS'comp_time'
p319
F0.05873727798461914
sS'exec_cq'
p320
I5
sS'total_cq'
p321
I9
sa(dp322
g317
I1
sg318
F0.01032710075378418
sg319
F0.1233372688293457
sg320
I3
sg321
I3
sa(dp323
g317
I2
sg318
F0.003968954086303711
sg319
F0.021939992904663086
sg320
I2
sg321
I2
sasS'total_cqs'
p324
I9
ssI32
(dp325
S'iters'
p326
I4
sS'meta'
p327
(lp328
(dp329
S'objective'
p330
I2
sS'query_time'
p331
F21.35489511489868
sS'comp_time'
p332
F4.551612854003906
sS'exec_cq'
p333
I4
sS'total_cq'
p334
I7
sa(dp335
g330
I1
sg331
F1.1064560413360596
sg332
F0.02095198631286621
sg333
I2
sg334
I4
sa(dp336
g330
I0
sg331
F0.002763986587524414
sg332
F0.33509206771850586
sg333
I1
sg334
I3
sa(dp337
g330
I2
sg331
F0.3383169174194336
sg332
F2.1734631061553955
sg333
I1
sg334
I2
sasS'total_cqs'
p338
I7
ssI33
(dp339
S'iters'
p340
I1
sS'meta'
p341
(lp342
(dp343
S'objective'
p344
I1
sS'query_time'
p345
F0.031072139739990234
sS'comp_time'
p346
F0.0034503936767578125
sS'exec_cq'
p347
I2
sS'total_cq'
p348
I2
sasS'total_cqs'
p349
I2
ssI34
(dp350
S'iters'
p351
I0
sS'meta'
p352
(lp353
sS'total_cqs'
p354
I1
ssI35
(dp355
S'iters'
p356
I3
sS'meta'
p357
(lp358
(dp359
S'objective'
p360
I1
sS'query_time'
p361
F13.339480876922607
sS'comp_time'
p362
F0.32642698287963867
sS'exec_cq'
p363
I4
sS'total_cq'
p364
I5
sa(dp365
g360
I0
sg361
F0.10931587219238281
sg362
F0.07485032081604004
sg363
I2
sg364
I3
sa(dp366
g360
I2
sg361
F0.01225590705871582
sg362
F0.17749762535095215
sg363
I2
sg364
I2
sasS'total_cqs'
p367
I5
ssI37
(dp368
S'iters'
p369
I2
sS'meta'
p370
(lp371
(dp372
S'objective'
p373
I33
sS'query_time'
p374
F0.5339550971984863
sS'comp_time'
p375
F0.11422204971313477
sS'exec_cq'
p376
I4
sS'total_cq'
p377
I10
sa(dp378
g373
I3
sg374
F0.00446319580078125
sg375
F0.020196914672851562
sg376
I2
sg377
I2
sasS'total_cqs'
p379
I10
ssI38
(dp380
S'iters'
p381
I0
sS'meta'
p382
(lp383
sS'total_cqs'
p384
I1
ssI39
(dp385
S'iters'
p386
I0
sS'meta'
p387
(lp388
sS'total_cqs'
p389
I1
ssI40
(dp390
S'iters'
p391
I1
sS'meta'
p392
(lp393
(dp394
S'objective'
p395
I1
sS'query_time'
p396
F0.022893905639648438
sS'comp_time'
p397
F0.0006029605865478516
sS'exec_cq'
p398
I1
sS'total_cq'
p399
I2
sasS'total_cqs'
p400
I2
ssI41
(dp401
S'iters'
p402
I2
sS'meta'
p403
(lp404
(dp405
S'objective'
p406
I3
sS'query_time'
p407
F0.8352680206298828
sS'comp_time'
p408
F0.009115219116210938
sS'exec_cq'
p409
I2
sS'total_cq'
p410
I6
sa(dp411
g406
I3
sg407
F0.0010089874267578125
sg408
F0.005295991897583008
sg409
I2
sg410
I2
sasS'total_cqs'
p412
I6
ssI42
(dp413
S'iters'
p414
I1
sS'meta'
p415
(lp416
(dp417
S'objective'
p418
I1
sS'query_time'
p419
F0.010312080383300781
sS'comp_time'
p420
F0.001837015151977539
sS'exec_cq'
p421
I1
sS'total_cq'
p422
I2
sasS'total_cqs'
p423
I2
ssI43
(dp424
S'iters'
p425
I0
sS'meta'
p426
(lp427
sS'total_cqs'
p428
I1
ssI44
(dp429
S'iters'
p430
I3
sS'meta'
p431
(lp432
(dp433
S'objective'
p434
I3
sS'query_time'
p435
F0.33522891998291016
sS'comp_time'
p436
F0.0043833255767822266
sS'exec_cq'
p437
I2
sS'total_cq'
p438
I5
sa(dp439
g434
I2
sg435
F1.1555829048156738
sg436
F0.17127561569213867
sg437
I2
sg438
I3
sa(dp440
g434
I2
sg435
F7.700920104980469e-05
sg436
F0.0003960132598876953
sg437
I1
sg438
I2
sasS'total_cqs'
p441
I5
ssI45
(dp442
S'iters'
p443
I2
sS'meta'
p444
(lp445
(dp446
S'objective'
p447
I5
sS'query_time'
p448
F0.03892803192138672
sS'comp_time'
p449
F0.002431154251098633
sS'exec_cq'
p450
I3
sS'total_cq'
p451
I5
sa(dp452
g447
I1
sg448
F0.00015091896057128906
sg449
F0.0007114410400390625
sg450
I2
sg451
I2
sasS'total_cqs'
p453
I5
ssI46
(dp454
S'iters'
p455
I0
sS'meta'
p456
(lp457
sS'total_cqs'
p458
I1
ssI47
(dp459
S'iters'
p460
I0
sS'meta'
p461
(lp462
sS'total_cqs'
p463
I1
ssI48
(dp464
S'iters'
p465
I1
sS'meta'
p466
(lp467
(dp468
S'objective'
p469
I1
sS'query_time'
p470
F0.1058659553527832
sS'comp_time'
p471
F0.009175777435302734
sS'exec_cq'
p472
I2
sS'total_cq'
p473
I2
sasS'total_cqs'
p474
I2
ssI49
(dp475
S'iters'
p476
I2
sS'meta'
p477
(lp478
(dp479
S'objective'
p480
I1
sS'query_time'
p481
F0.2445390224456787
sS'comp_time'
p482
F0.006989240646362305
sS'exec_cq'
p483
I4
sS'total_cq'
p484
I5
sa(dp485
g480
I2
sg481
F0.0004420280456542969
sg482
F0.0024068355560302734
sg483
I2
sg484
I2
sasS'total_cqs'
p486
I5
ssI50
(dp487
S'iters'
p488
I3
sS'meta'
p489
(lp490
(dp491
S'objective'
p492
I5
sS'query_time'
p493
F0.6462569236755371
sS'comp_time'
p494
F0.0025801658630371094
sS'exec_cq'
p495
I5
sS'total_cq'
p496
I5
sa(dp497
g492
I2
sg493
F0.00012993812561035156
sg494
F0.0010509490966796875
sg495
I4
sg496
I4
sa(dp498
g492
I0
sg493
F0.00011610984802246094
sg494
F0.0008478164672851562
sg495
I3
sg496
I3
sasS'total_cqs'
p499
I5
ssI51
(dp500
S'iters'
p501
I0
sS'meta'
p502
(lp503
sS'total_cqs'
p504
I1
ssI52
(dp505
S'iters'
p506
I0
sS'meta'
p507
(lp508
sS'total_cqs'
p509
I1
ssI53
(dp510
S'iters'
p511
I0
sS'meta'
p512
(lp513
sS'total_cqs'
p514
I1
ssI55
(dp515
S'iters'
p516
I1
sS'meta'
p517
(lp518
(dp519
S'objective'
p520
I1
sS'query_time'
p521
F24.098095893859863
sS'comp_time'
p522
F2.7073378562927246
sS'exec_cq'
p523
I2
sS'total_cq'
p524
I2
sasS'total_cqs'
p525
I2
ssI56
(dp526
S'iters'
p527
I0
sS'meta'
p528
(lp529
sS'total_cqs'
p530
I1
ssI57
(dp531
S'iters'
p532
I2
sS'meta'
p533
(lp534
(dp535
S'objective'
p536
I0
sS'query_time'
p537
F12.414392232894897
sS'comp_time'
p538
F2.395134210586548
sS'exec_cq'
p539
I2
sS'total_cq'
p540
I3
sa(dp541
g536
I1
sg537
F0.43257999420166016
sg538
F2.1440322399139404
sg539
I1
sg540
I2
sasS'total_cqs'
p542
I3
ssI108
(dp543
S'iters'
p544
I0
sS'meta'
p545
(lp546
sS'total_cqs'
p547
I1
ssI109
(dp548
S'iters'
p549
I0
sS'meta'
p550
(lp551
sS'total_cqs'
p552
I1
ssI116
(dp553
S'iters'
p554
I4
sS'meta'
p555
(lp556
(dp557
S'objective'
p558
I209
sS'query_time'
p559
F0.12084603309631348
sS'comp_time'
p560
F0.015887975692749023
sS'exec_cq'
p561
I15
sS'total_cq'
p562
I21
sa(dp563
g558
I200
sg559
F3.5582289695739746
sg560
F0.49980783462524414
sg561
I17
sg562
I20
sa(dp564
g558
I192
sg559
F0.5370254516601562
sg560
F0.0036711692810058594
sg561
I17
sg562
I18
sa(dp565
g558
I5
sg559
F0.0006859302520751953
sg560
F0.0034422874450683594
sg561
I2
sg562
I2
sasS'total_cqs'
p566
I21
ssI117
(dp567
S'iters'
p568
I2
sS'meta'
p569
(lp570
(dp571
S'objective'
p572
I11
sS'query_time'
p573
F0.009797096252441406
sS'comp_time'
p574
F0.0016705989837646484
sS'exec_cq'
p575
I3
sS'total_cq'
p576
I5
sa(dp577
g572
I7
sg573
F0.0022592544555664062
sg574
F7.104873657226562e-05
sg575
I3
sg576
I4
sasS'total_cqs'
p578
I5
ssI118
(dp579
S'iters'
p580
I0
sS'meta'
p581
(lp582
sS'total_cqs'
p583
I1
ssI122
(dp584
S'iters'
p585
I0
sS'meta'
p586
(lp587
sS'total_cqs'
p588
I1
ss.