(dp0
I1
(dp1
S'iters'
p2
I3
sS'meta'
p3
(lp4
(dp5
S'objective'
p6
I5
sS'query_time'
p7
F18.025369882583618
sS'comp_time'
p8
F0.6985666751861572
sS'exec_cq'
p9
I3
sS'total_cq'
p10
I6
sa(dp11
g6
I1
sg7
F30.97157096862793
sg8
F2.6998279094696045
sg9
I2
sg10
I4
sa(dp12
g6
I4
sg7
F0.012367010116577148
sg8
F0.05968046188354492
sg9
I1
sg10
I2
sasS'total_cqs'
p13
I6
ssI2
(dp14
S'iters'
p15
I1
sS'meta'
p16
(lp17
(dp18
S'objective'
p19
I19
sS'query_time'
p20
F1.0271189212799072
sS'comp_time'
p21
F0.20776772499084473
sS'exec_cq'
p22
I6
sS'total_cq'
p23
I6
sasS'total_cqs'
p24
I6
ssI3
(dp25
S'iters'
p26
I17
sS'meta'
p27
(lp28
(dp29
S'objective'
p30
I445
sS'query_time'
p31
F25.647908926010132
sS'comp_time'
p32
F0.5073273181915283
sS'exec_cq'
p33
I15
sS'total_cq'
p34
I33
sa(dp35
g30
I401
sg31
F0.003919839859008789
sg32
F0.022179126739501953
sg33
I12
sg34
I30
sa(dp36
g30
I360
sg31
F0.0007760524749755859
sg32
F0.007903099060058594
sg33
I9
sg34
I27
sa(dp37
g30
I310
sg31
F0.30463409423828125
sg32
F0.1229088306427002
sg33
I13
sg34
I24
sa(dp38
g30
I294
sg31
F0.000225067138671875
sg32
F0.0034699440002441406
sg33
I6
sg34
I22
sa(dp39
g30
I272
sg31
F0.1917860507965088
sg32
F0.022737741470336914
sg33
I5
sg34
I21
sa(dp40
g30
I207
sg31
F0.004386186599731445
sg32
F0.022463083267211914
sg33
I11
sg34
I20
sa(dp41
g30
I207
sg31
F2.7179718017578125e-05
sg32
F0.0023789405822753906
sg33
I5
sg34
I17
sa(dp42
g30
I178
sg31
F0.0006620883941650391
sg32
F0.0033409595489501953
sg33
I4
sg34
I16
sa(dp43
g30
I138
sg31
F27.79752802848816
sg32
F22.77230405807495
sg33
I4
sg34
I15
sa(dp44
g30
I113
sg31
F0.009956121444702148
sg32
F0.023334026336669922
sg33
I8
sg34
I14
sa(dp45
g30
I92
sg31
F7.605552673339844e-05
sg32
F0.00045680999755859375
sg33
I3
sg34
I11
sa(dp46
g30
I33
sg31
F0.003729104995727539
sg32
F0.028800010681152344
sg33
I3
sg34
I10
sa(dp47
g30
I27
sg31
F2.6941299438476562e-05
sg32
F0.00015234947204589844
sg33
I2
sg34
I8
sa(dp48
g30
I3
sg31
F0.003841876983642578
sg32
F0.01653766632080078
sg33
I5
sg34
I7
sa(dp49
g30
I0
sg31
F1.6927719116210938e-05
sg32
F0.0001399517059326172
sg33
I1
sg34
I4
sa(dp50
g30
I10
sg31
F0.002148866653442383
sg32
F0.13066744804382324
sg33
I2
sg34
I3
sasS'total_cqs'
p51
I33
ssI4
(dp52
S'iters'
p53
I0
sS'meta'
p54
(lp55
sS'total_cqs'
p56
I1
ssI5
(dp57
S'iters'
p58
I0
sS'meta'
p59
(lp60
sS'total_cqs'
p61
I1
ssI6
(dp62
S'iters'
p63
I3
sS'meta'
p64
(lp65
(dp66
S'objective'
p67
I1
sS'query_time'
p68
F15.58013105392456
sS'comp_time'
p69
F0.005434274673461914
sS'exec_cq'
p70
I4
sS'total_cq'
p71
I5
sa(dp72
g67
I0
sg68
F0.0004298686981201172
sg69
F0.00937795639038086
sg70
I2
sg71
I3
sa(dp73
g67
I2
sg68
F6.604194641113281e-05
sg69
F0.0005390644073486328
sg70
I1
sg71
I2
sasS'total_cqs'
p74
I5
ssI7
(dp75
S'iters'
p76
I0
sS'meta'
p77
(lp78
sS'total_cqs'
p79
I1
ssI8
(dp80
S'iters'
p81
I4
sS'meta'
p82
(lp83
(dp84
S'objective'
p85
I15
sS'query_time'
p86
F23.605917930603027
sS'comp_time'
p87
F0.41751718521118164
sS'exec_cq'
p88
I5
sS'total_cq'
p89
I6
sa(dp90
g85
I2
sg86
F0.20714139938354492
sg87
F0.2150709629058838
sg88
I4
sg89
I5
sa(dp91
g85
I2
sg86
F1.7517411708831787
sg87
F1.8040170669555664
sg88
I2
sg89
I3
sa(dp92
g85
I4
sg86
F0.0016908645629882812
sg87
F0.0015926361083984375
sg88
I1
sg89
I2
sasS'total_cqs'
p93
I6
ssI9
(dp94
S'iters'
p95
I3
sS'meta'
p96
(lp97
(dp98
S'objective'
p99
I1
sS'query_time'
p100
F12.69120717048645
sS'comp_time'
p101
F0.46596407890319824
sS'exec_cq'
p102
I3
sS'total_cq'
p103
I6
sa(dp104
g99
I1
sg100
F0.044754981994628906
sg101
F0.39096522331237793
sg102
I3
sg103
I3
sa(dp105
g99
I3
sg100
F0.04493594169616699
sg101
F0.41090965270996094
sg102
I2
sg103
I2
sasS'total_cqs'
p106
I6
ssI10
(dp107
S'iters'
p108
I0
sS'meta'
p109
(lp110
sS'total_cqs'
p111
I1
ssI11
(dp112
S'iters'
p113
I0
sS'meta'
p114
(lp115
sS'total_cqs'
p116
I1
ssI12
(dp117
S'iters'
p118
I0
sS'meta'
p119
(lp120
sS'total_cqs'
p121
I1
ssI13
(dp122
S'iters'
p123
I2
sS'meta'
p124
(lp125
(dp126
S'objective'
p127
I26
sS'query_time'
p128
F0.02019190788269043
sS'comp_time'
p129
F0.009295940399169922
sS'exec_cq'
p130
I6
sS'total_cq'
p131
I8
sa(dp132
g127
I29
sg128
F3.2901763916015625e-05
sg129
F0.000141143798828125
sg130
I5
sg131
I7
sasS'total_cqs'
p133
I8
ssI14
(dp134
S'iters'
p135
I3
sS'meta'
p136
(lp137
(dp138
S'objective'
p139
I9
sS'query_time'
p140
F0.9560790061950684
sS'comp_time'
p141
F0.00899195671081543
sS'exec_cq'
p142
I5
sS'total_cq'
p143
I5
sa(dp144
g139
I8
sg140
F0.0007541179656982422
sg141
F0.0051004886627197266
sg142
I4
sg143
I4
sa(dp145
g139
I8
sg140
F0.0005450248718261719
sg141
F0.004118919372558594
sg142
I3
sg143
I3
sasS'total_cqs'
p146
I5
ssI16
(dp147
S'iters'
p148
I3
sS'meta'
p149
(lp150
(dp151
S'objective'
p152
I1
sS'query_time'
p153
F1.34946608543396
sS'comp_time'
p154
F0.013234376907348633
sS'exec_cq'
p155
I4
sS'total_cq'
p156
I5
sa(dp157
g152
I1
sg153
F0.001993894577026367
sg154
F0.008187532424926758
sg155
I3
sg156
I3
sa(dp158
g152
I1
sg153
F0.00024700164794921875
sg154
F0.0015251636505126953
sg155
I2
sg156
I2
sasS'total_cqs'
p159
I5
ssI17
(dp160
S'iters'
p161
I0
sS'meta'
p162
(lp163
sS'total_cqs'
p164
I1
ssI18
(dp165
S'iters'
p166
I3
sS'meta'
p167
(lp168
(dp169
S'objective'
p170
I1
sS'query_time'
p171
F0.170119047164917
sS'comp_time'
p172
F0.004185914993286133
sS'exec_cq'
p173
I4
sS'total_cq'
p174
I5
sa(dp175
g170
I2
sg171
F5.412101745605469e-05
sg172
F0.0003390312194824219
sg173
I2
sg174
I3
sa(dp176
g170
I1
sg171
F0.050882816314697266
sg172
F0.0002186298370361328
sg173
I1
sg174
I2
sasS'total_cqs'
p177
I5
ssI19
(dp178
S'iters'
p179
I0
sS'meta'
p180
(lp181
sS'total_cqs'
p182
I1
ssI20
(dp183
S'iters'
p184
I6
sS'meta'
p185
(lp186
(dp187
S'objective'
p188
I40
sS'query_time'
p189
F9.332342147827148
sS'comp_time'
p190
F1.3325550556182861
sS'exec_cq'
p191
I6
sS'total_cq'
p192
I12
sa(dp193
g188
I19
sg189
F4.120977163314819
sg190
F0.51833176612854
sg191
I4
sg192
I10
sa(dp194
g188
I13
sg189
F0.25504207611083984
sg190
F1.2561867237091064
sg191
I4
sg192
I8
sa(dp195
g188
I20
sg189
F0.032028913497924805
sg190
F0.4671032428741455
sg191
I2
sg192
I6
sa(dp196
g188
I15
sg189
F0.18680214881896973
sg190
F0.9055867195129395
sg191
I3
sg192
I5
sa(dp197
g188
I17
sg189
F0.10169601440429688
sg190
F0.003812551498413086
sg191
I4
sg192
I4
sasS'total_cqs'
p198
I12
ssI21
(dp199
S'iters'
p200
I5
sS'meta'
p201
(lp202
(dp203
S'objective'
p204
I21
sS'query_time'
p205
F29.49493384361267
sS'comp_time'
p206
F0.24702215194702148
sS'exec_cq'
p207
I8
sS'total_cq'
p208
I14
sa(dp209
g204
I25
sg205
F0.009211063385009766
sg206
F0.06371212005615234
sg207
I4
sg208
I10
sa(dp210
g204
I6
sg205
F30.853949069976807
sg206
F1.7103819847106934
sg207
I4
sg208
I8
sa(dp211
g204
I7
sg205
F0.009181022644042969
sg206
F0.053182125091552734
sg207
I2
sg208
I4
sa(dp212
g204
I4
sg205
F0.01699209213256836
sg206
F0.00015997886657714844
sg207
I1
sg208
I2
sasS'total_cqs'
p213
I14
ssI22
(dp214
S'iters'
p215
I1
sS'meta'
p216
(lp217
(dp218
S'objective'
p219
I1
sS'query_time'
p220
F0.0057218074798583984
sS'comp_time'
p221
F0.001996755599975586
sS'exec_cq'
p222
I1
sS'total_cq'
p223
I2
sasS'total_cqs'
p224
I2
ssI23
(dp225
S'iters'
p226
I0
sS'meta'
p227
(lp228
sS'total_cqs'
p229
I1
ssI24
(dp230
S'iters'
p231
I0
sS'meta'
p232
(lp233
sS'total_cqs'
p234
I1
ssI25
(dp235
S'iters'
p236
I4
sS'meta'
p237
(lp238
(dp239
S'objective'
p240
I12
sS'query_time'
p241
F48.15444493293762
sS'comp_time'
p242
F4.897234678268433
sS'exec_cq'
p243
I4
sS'total_cq'
p244
I7
sa(dp245
g240
I6
sg241
F0.010351896286010742
sg242
F0.05280303955078125
sg243
I2
sg244
I5
sa(dp246
g240
I3
sg241
F4.645299911499023
sg242
F0.5588159561157227
sg243
I2
sg244
I4
sa(dp247
g240
I3
sg241
F0.0080108642578125
sg242
F0.05056619644165039
sg243
I1
sg244
I2
sasS'total_cqs'
p248
I7
ssI26
(dp249
S'iters'
p250
I9
sS'meta'
p251
(lp252
(dp253
S'objective'
p254
I65
sS'query_time'
p255
F23.61426091194153
sS'comp_time'
p256
F5.1443932056427
sS'exec_cq'
p257
I3
sS'total_cq'
p258
I13
sa(dp259
g254
I52
sg255
F0.14198589324951172
sg256
F0.0106201171875
sg257
I4
sg258
I12
sa(dp260
g254
I45
sg255
F0.0005590915679931641
sg256
F0.0031690597534179688
sg257
I2
sg258
I10
sa(dp261
g254
I21
sg255
F0.008899927139282227
sg256
F0.00014138221740722656
sg257
I2
sg258
I9
sa(dp262
g254
I24
sg255
F0.0009970664978027344
sg256
F0.006935834884643555
sg257
I2
sg258
I7
sa(dp263
g254
I9
sg255
F3.470797061920166
sg256
F0.014251947402954102
sg257
I2
sg258
I6
sa(dp264
g254
I2
sg255
F0.0002810955047607422
sg256
F0.0013511180877685547
sg257
I1
sg258
I4
sa(dp265
g254
I1
sg255
F0.0007560253143310547
sg256
F0.003383159637451172
sg257
I1
sg258
I3
sa(dp266
g254
I3
sg255
F0.0358271598815918
sg256
F0.0016143321990966797
sg257
I1
sg258
I2
sasS'total_cqs'
p267
I13
ssI27
(dp268
S'iters'
p269
I1
sS'meta'
p270
(lp271
(dp272
S'objective'
p273
I1
sS'query_time'
p274
F0.18318414688110352
sS'comp_time'
p275
F0.007589101791381836
sS'exec_cq'
p276
I1
sS'total_cq'
p277
I2
sasS'total_cqs'
p278
I2
ssI28
(dp279
S'iters'
p280
I10
sS'meta'
p281
(lp282
(dp283
S'objective'
p284
I67
sS'query_time'
p285
F1.497831106185913
sS'comp_time'
p286
F0.10857081413269043
sS'exec_cq'
p287
I6
sS'total_cq'
p288
I14
sa(dp289
g284
I50
sg285
F0.003489971160888672
sg286
F0.02606821060180664
sg287
I3
sg288
I11
sa(dp290
g284
I40
sg285
F0.03144502639770508
sg286
F0.0008728504180908203
sg287
I1
sg288
I9
sa(dp291
g284
I28
sg285
F0.023309946060180664
sg286
F0.0015797615051269531
sg287
I1
sg288
I8
sa(dp292
g284
I17
sg285
F0.009831905364990234
sg286
F0.0005419254302978516
sg287
I1
sg288
I7
sa(dp293
g284
I17
sg285
F0.0049381256103515625
sg286
F0.00011420249938964844
sg287
I2
sg288
I6
sa(dp294
g284
I3
sg285
F0.019329071044921875
sg286
F0.0010128021240234375
sg287
I1
sg288
I5
sa(dp295
g284
I3
sg285
F0.0026230812072753906
sg286
F9.226799011230469e-05
sg287
I1
sg288
I4
sa(dp296
g284
I0
sg285
F1.0967254638671875e-05
sg286
F7.414817810058594e-05
sg287
I1
sg288
I3
sa(dp297
g284
I2
sg285
F0.0025949478149414062
sg286
F0.00010442733764648438
sg287
I1
sg288
I2
sasS'total_cqs'
p298
I14
ssI29
(dp299
S'iters'
p300
I1
sS'meta'
p301
(lp302
(dp303
S'objective'
p304
I1
sS'query_time'
p305
F0.008349895477294922
sS'comp_time'
p306
F0.0015480518341064453
sS'exec_cq'
p307
I2
sS'total_cq'
p308
I2
sasS'total_cqs'
p309
I2
ssI30
(dp310
S'iters'
p311
I1
sS'meta'
p312
(lp313
(dp314
S'objective'
p315
I1
sS'query_time'
p316
F0.33890199661254883
sS'comp_time'
p317
F0.0048830509185791016
sS'exec_cq'
p318
I2
sS'total_cq'
p319
I2
sasS'total_cqs'
p320
I2
ssI31
(dp321
S'iters'
p322
I4
sS'meta'
p323
(lp324
(dp325
S'objective'
p326
I15
sS'query_time'
p327
F4.456430196762085
sS'comp_time'
p328
F0.21727395057678223
sS'exec_cq'
p329
I4
sS'total_cq'
p330
I9
sa(dp331
g326
I14
sg327
F1.3864529132843018
sg328
F0.11735701560974121
sg329
I5
sg330
I7
sa(dp332
g326
I2
sg327
F0.008410930633544922
sg328
F0.043526411056518555
sg329
I3
sg330
I3
sa(dp333
g326
I1
sg327
F0.008133172988891602
sg328
F0.04408884048461914
sg329
I2
sg330
I2
sasS'total_cqs'
p334
I9
ssI32
(dp335
S'iters'
p336
I3
sS'meta'
p337
(lp338
(dp339
S'objective'
p340
I2
sS'query_time'
p341
F20.94595694541931
sS'comp_time'
p342
F5.247266054153442
sS'exec_cq'
p343
I4
sS'total_cq'
p344
I7
sa(dp345
g340
I3
sg341
F1.162971019744873
sg342
F0.02132892608642578
sg343
I2
sg344
I4
sa(dp346
g340
I4
sg341
F0.22112107276916504
sg342
F0.2878086566925049
sg343
I1
sg344
I2
sasS'total_cqs'
p347
I7
ssI33
(dp348
S'iters'
p349
I1
sS'meta'
p350
(lp351
(dp352
S'objective'
p353
I1
sS'query_time'
p354
F0.03121805191040039
sS'comp_time'
p355
F0.0018889904022216797
sS'exec_cq'
p356
I2
sS'total_cq'
p357
I2
sasS'total_cqs'
p358
I2
ssI34
(dp359
S'iters'
p360
I0
sS'meta'
p361
(lp362
sS'total_cqs'
p363
I1
ssI35
(dp364
S'iters'
p365
I3
sS'meta'
p366
(lp367
(dp368
S'objective'
p369
I1
sS'query_time'
p370
F14.236409902572632
sS'comp_time'
p371
F0.2801370620727539
sS'exec_cq'
p372
I4
sS'total_cq'
p373
I5
sa(dp374
g369
I0
sg370
F0.08176612854003906
sg371
F0.07100391387939453
sg372
I2
sg373
I3
sa(dp375
g369
I2
sg370
F0.0005869865417480469
sg371
F0.0033872127532958984
sg372
I1
sg373
I2
sasS'total_cqs'
p376
I5
ssI37
(dp377
S'iters'
p378
I6
sS'meta'
p379
(lp380
(dp381
S'objective'
p382
I37
sS'query_time'
p383
F1.2274868488311768
sS'comp_time'
p384
F0.21488595008850098
sS'exec_cq'
p385
I4
sS'total_cq'
p386
I10
sa(dp387
g382
I26
sg383
F0.46171021461486816
sg384
F0.021519184112548828
sg385
I4
sg386
I9
sa(dp388
g382
I22
sg383
F0.016337156295776367
sg384
F0.08884692192077637
sg385
I3
sg386
I8
sa(dp389
g382
I17
sg383
F0.006730079650878906
sg384
F0.03972887992858887
sg385
I2
sg386
I7
sa(dp390
g382
I11
sg383
F0.005088090896606445
sg384
F0.021898269653320312
sg385
I3
sg386
I6
sa(dp391
g382
I4
sg383
F0.0035390853881835938
sg384
F0.018738508224487305
sg385
I2
sg386
I2
sasS'total_cqs'
p392
I10
ssI38
(dp393
S'iters'
p394
I0
sS'meta'
p395
(lp396
sS'total_cqs'
p397
I1
ssI39
(dp398
S'iters'
p399
I0
sS'meta'
p400
(lp401
sS'total_cqs'
p402
I1
ssI40
(dp403
S'iters'
p404
I1
sS'meta'
p405
(lp406
(dp407
S'objective'
p408
I1
sS'query_time'
p409
F0.015182971954345703
sS'comp_time'
p410
F0.0016870498657226562
sS'exec_cq'
p411
I1
sS'total_cq'
p412
I2
sasS'total_cqs'
p413
I2
ssI41
(dp414
S'iters'
p415
I3
sS'meta'
p416
(lp417
(dp418
S'objective'
p419
I3
sS'query_time'
p420
F9.834933042526245
sS'comp_time'
p421
F1.963191032409668
sS'exec_cq'
p422
I3
sS'total_cq'
p423
I6
sa(dp424
g419
I2
sg420
F0.7282309532165527
sg421
F0.004186868667602539
sg422
I2
sg423
I4
sa(dp425
g419
I3
sg420
F0.0006198883056640625
sg421
F0.0037398338317871094
sg422
I2
sg423
I2
sasS'total_cqs'
p426
I6
ssI42
(dp427
S'iters'
p428
I1
sS'meta'
p429
(lp430
(dp431
S'objective'
p432
I1
sS'query_time'
p433
F0.012044906616210938
sS'comp_time'
p434
F0.003264904022216797
sS'exec_cq'
p435
I1
sS'total_cq'
p436
I2
sasS'total_cqs'
p437
I2
ssI43
(dp438
S'iters'
p439
I0
sS'meta'
p440
(lp441
sS'total_cqs'
p442
I1
ssI44
(dp443
S'iters'
p444
I3
sS'meta'
p445
(lp446
(dp447
S'objective'
p448
I3
sS'query_time'
p449
F0.33103394508361816
sS'comp_time'
p450
F0.009302854537963867
sS'exec_cq'
p451
I2
sS'total_cq'
p452
I5
sa(dp453
g448
I0
sg449
F1.249255895614624
sg450
F0.2330031394958496
sg451
I2
sg452
I3
sa(dp454
g448
I1
sg449
F9.989738464355469e-05
sg450
F0.0005588531494140625
sg451
I1
sg452
I2
sasS'total_cqs'
p455
I5
ssI45
(dp456
S'iters'
p457
I2
sS'meta'
p458
(lp459
(dp460
S'objective'
p461
I9
sS'query_time'
p462
F0.03289914131164551
sS'comp_time'
p463
F0.0026056766510009766
sS'exec_cq'
p464
I3
sS'total_cq'
p465
I5
sa(dp466
g461
I1
sg462
F0.00019288063049316406
sg463
F0.000827789306640625
sg464
I2
sg465
I2
sasS'total_cqs'
p467
I5
ssI46
(dp468
S'iters'
p469
I0
sS'meta'
p470
(lp471
sS'total_cqs'
p472
I1
ssI47
(dp473
S'iters'
p474
I0
sS'meta'
p475
(lp476
sS'total_cqs'
p477
I1
ssI48
(dp478
S'iters'
p479
I1
sS'meta'
p480
(lp481
(dp482
S'objective'
p483
I1
sS'query_time'
p484
F0.13689017295837402
sS'comp_time'
p485
F0.004277944564819336
sS'exec_cq'
p486
I2
sS'total_cq'
p487
I2
sasS'total_cqs'
p488
I2
ssI49
(dp489
S'iters'
p490
I2
sS'meta'
p491
(lp492
(dp493
S'objective'
p494
I1
sS'query_time'
p495
F0.22763586044311523
sS'comp_time'
p496
F0.00669407844543457
sS'exec_cq'
p497
I4
sS'total_cq'
p498
I5
sa(dp499
g494
I6
sg495
F3.1948089599609375e-05
sg496
F0.00019693374633789062
sg497
I2
sg498
I3
sasS'total_cqs'
p500
I5
ssI50
(dp501
S'iters'
p502
I4
sS'meta'
p503
(lp504
(dp505
S'objective'
p506
I5
sS'query_time'
p507
F0.7021069526672363
sS'comp_time'
p508
F0.004110574722290039
sS'exec_cq'
p509
I5
sS'total_cq'
p510
I5
sa(dp511
g506
I2
sg507
F0.00018405914306640625
sg508
F0.0015909671783447266
sg509
I4
sg510
I4
sa(dp512
g506
I0
sg507
F0.0001800060272216797
sg508
F0.0012469291687011719
sg509
I3
sg510
I3
sa(dp513
g506
I1
sg507
F0.0001380443572998047
sg508
F0.0009984970092773438
sg509
I2
sg510
I2
sasS'total_cqs'
p514
I5
ssI51
(dp515
S'iters'
p516
I0
sS'meta'
p517
(lp518
sS'total_cqs'
p519
I1
ssI52
(dp520
S'iters'
p521
I0
sS'meta'
p522
(lp523
sS'total_cqs'
p524
I1
ssI53
(dp525
S'iters'
p526
I0
sS'meta'
p527
(lp528
sS'total_cqs'
p529
I1
ssI55
(dp530
S'iters'
p531
I1
sS'meta'
p532
(lp533
(dp534
S'objective'
p535
I1
sS'query_time'
p536
F24.374202013015747
sS'comp_time'
p537
F3.4339091777801514
sS'exec_cq'
p538
I2
sS'total_cq'
p539
I2
sasS'total_cqs'
p540
I2
ssI56
(dp541
S'iters'
p542
I0
sS'meta'
p543
(lp544
sS'total_cqs'
p545
I1
ssI57
(dp546
S'iters'
p547
I2
sS'meta'
p548
(lp549
(dp550
S'objective'
p551
I0
sS'query_time'
p552
F12.043577909469604
sS'comp_time'
p553
F2.4101531505584717
sS'exec_cq'
p554
I2
sS'total_cq'
p555
I3
sa(dp556
g551
I1
sg552
F0.4525911808013916
sg553
F1.9195549488067627
sg554
I1
sg555
I2
sasS'total_cqs'
p557
I3
ssI108
(dp558
S'iters'
p559
I0
sS'meta'
p560
(lp561
sS'total_cqs'
p562
I1
ssI109
(dp563
S'iters'
p564
I0
sS'meta'
p565
(lp566
sS'total_cqs'
p567
I1
ssI116
(dp568
S'iters'
p569
I4
sS'meta'
p570
(lp571
(dp572
S'objective'
p573
I189
sS'query_time'
p574
F0.16280531883239746
sS'comp_time'
p575
F0.01657700538635254
sS'exec_cq'
p576
I13
sS'total_cq'
p577
I21
sa(dp578
g573
I174
sg574
F3.4994049072265625
sg575
F0.47632312774658203
sg576
I15
sg577
I20
sa(dp579
g573
I160
sg574
F0.5146739482879639
sg575
F0.003989696502685547
sg576
I14
sg577
I18
sa(dp580
g573
I14
sg574
F0.0007238388061523438
sg575
F0.0034143924713134766
sg576
I2
sg577
I2
sasS'total_cqs'
p581
I21
ssI117
(dp582
S'iters'
p583
I2
sS'meta'
p584
(lp585
(dp586
S'objective'
p587
I11
sS'query_time'
p588
F0.010693788528442383
sS'comp_time'
p589
F0.001661062240600586
sS'exec_cq'
p590
I3
sS'total_cq'
p591
I5
sa(dp592
g587
I11
sg588
F0.004274845123291016
sg589
F9.751319885253906e-05
sg590
I4
sg591
I4
sasS'total_cqs'
p593
I5
ssI118
(dp594
S'iters'
p595
I0
sS'meta'
p596
(lp597
sS'total_cqs'
p598
I1
ssI122
(dp599
S'iters'
p600
I0
sS'meta'
p601
(lp602
sS'total_cqs'
p603
I1
ss.