(dp0
I1
(dp1
S'iters'
p2
I2
sS'meta'
p3
(lp4
(dp5
S'objective'
p6
I7
sS'query_time'
p7
F16.982683897018433
sS'comp_time'
p8
F0.260875940322876
sS'exec_cq'
p9
I3
sS'total_cq'
p10
I6
sa(dp11
g6
I5
sg7
F0.07235980033874512
sg8
F0.2045271396636963
sg9
I2
sg10
I2
sasS'total_cqs'
p12
I6
ssI2
(dp13
S'iters'
p14
I1
sS'meta'
p15
(lp16
(dp17
S'objective'
p18
I9
sS'query_time'
p19
F0.962155818939209
sS'comp_time'
p20
F0.03312325477600098
sS'exec_cq'
p21
I5
sS'total_cq'
p22
I6
sasS'total_cqs'
p23
I6
ssI3
(dp24
S'iters'
p25
I9
sS'meta'
p26
(lp27
(dp28
S'objective'
p29
I389
sS'query_time'
p30
F25.80824613571167
sS'comp_time'
p31
F0.25194597244262695
sS'exec_cq'
p32
I28
sS'total_cq'
p33
I33
sa(dp34
g29
I347
sg30
F0.018517017364501953
sg31
F0.034554481506347656
sg32
I25
sg33
I30
sa(dp35
g29
I301
sg30
F0.11002993583679199
sg31
F0.03311944007873535
sg32
I22
sg33
I27
sa(dp36
g29
I262
sg30
F0.01772284507751465
sg31
F0.14035344123840332
sg32
I19
sg33
I24
sa(dp37
g29
I225
sg30
F0.19226408004760742
sg31
F0.019854307174682617
sg32
I21
sg33
I21
sa(dp38
g29
I199
sg30
F0.006643772125244141
sg31
F0.011175870895385742
sg32
I18
sg33
I18
sa(dp39
g29
I173
sg30
F0.09707522392272949
sg31
F0.010833978652954102
sg32
I15
sg33
I15
sa(dp40
g29
I147
sg30
F0.005977153778076172
sg31
F0.010760307312011719
sg32
I14
sg33
I14
sa(dp41
g29
I123
sg30
F0.005305051803588867
sg31
F0.01133108139038086
sg32
I13
sg33
I13
sasS'total_cqs'
p42
I33
ssI4
(dp43
S'iters'
p44
I0
sS'meta'
p45
(lp46
sS'total_cqs'
p47
I1
ssI5
(dp48
S'iters'
p49
I0
sS'meta'
p50
(lp51
sS'total_cqs'
p52
I1
ssI6
(dp53
S'iters'
p54
I2
sS'meta'
p55
(lp56
(dp57
S'objective'
p58
I1
sS'query_time'
p59
F14.744271993637085
sS'comp_time'
p60
F0.014269113540649414
sS'exec_cq'
p61
I4
sS'total_cq'
p62
I5
sa(dp63
g58
I2
sg59
F0.0005819797515869141
sg60
F0.0011479854583740234
sg61
I3
sg62
I3
sasS'total_cqs'
p64
I5
ssI7
(dp65
S'iters'
p66
I0
sS'meta'
p67
(lp68
sS'total_cqs'
p69
I1
ssI8
(dp70
S'iters'
p71
I2
sS'meta'
p72
(lp73
(dp74
S'objective'
p75
I11
sS'query_time'
p76
F23.61972403526306
sS'comp_time'
p77
F0.08528470993041992
sS'exec_cq'
p78
I5
sS'total_cq'
p79
I6
sa(dp80
g75
I4
sg76
F0.09807491302490234
sg77
F0.00012302398681640625
sg78
I4
sg79
I5
sasS'total_cqs'
p81
I6
ssI9
(dp82
S'iters'
p83
I2
sS'meta'
p84
(lp85
(dp86
S'objective'
p87
I1
sS'query_time'
p88
F11.657345056533813
sS'comp_time'
p89
F0.058016300201416016
sS'exec_cq'
p90
I3
sS'total_cq'
p91
I6
sa(dp92
g87
I2
sg88
F0.05908203125
sg89
F0.48209667205810547
sg90
I3
sg91
I3
sasS'total_cqs'
p93
I6
ssI10
(dp94
S'iters'
p95
I0
sS'meta'
p96
(lp97
sS'total_cqs'
p98
I1
ssI11
(dp99
S'iters'
p100
I0
sS'meta'
p101
(lp102
sS'total_cqs'
p103
I1
ssI12
(dp104
S'iters'
p105
I0
sS'meta'
p106
(lp107
sS'total_cqs'
p108
I1
ssI13
(dp109
S'iters'
p110
I1
sS'meta'
p111
(lp112
(dp113
S'objective'
p114
I22
sS'query_time'
p115
F0.03259897232055664
sS'comp_time'
p116
F0.010878801345825195
sS'exec_cq'
p117
I7
sS'total_cq'
p118
I8
sasS'total_cqs'
p119
I8
ssI14
(dp120
S'iters'
p121
I1
sS'meta'
p122
(lp123
(dp124
S'objective'
p125
I5
sS'query_time'
p126
F0.9709610939025879
sS'comp_time'
p127
F0.0042781829833984375
sS'exec_cq'
p128
I5
sS'total_cq'
p129
I5
sasS'total_cqs'
p130
I5
ssI16
(dp131
S'iters'
p132
I2
sS'meta'
p133
(lp134
(dp135
S'objective'
p136
I3
sS'query_time'
p137
F1.2337980270385742
sS'comp_time'
p138
F0.007725238800048828
sS'exec_cq'
p139
I4
sS'total_cq'
p140
I5
sa(dp141
g136
I1
sg137
F5.1975250244140625e-05
sg138
F0.00022411346435546875
sg139
I2
sg140
I3
sasS'total_cqs'
p142
I5
ssI17
(dp143
S'iters'
p144
I0
sS'meta'
p145
(lp146
sS'total_cqs'
p147
I1
ssI18
(dp148
S'iters'
p149
I2
sS'meta'
p150
(lp151
(dp152
S'objective'
p153
I1
sS'query_time'
p154
F0.2058429718017578
sS'comp_time'
p155
F0.004063129425048828
sS'exec_cq'
p156
I4
sS'total_cq'
p157
I5
sa(dp158
g153
I2
sg154
F4.291534423828125e-05
sg155
F0.0002617835998535156
sg156
I2
sg157
I3
sasS'total_cqs'
p159
I5
ssI19
(dp160
S'iters'
p161
I0
sS'meta'
p162
(lp163
sS'total_cqs'
p164
I1
ssI20
(dp165
S'iters'
p166
I2
sS'meta'
p167
(lp168
(dp169
S'objective'
p170
I36
sS'query_time'
p171
F9.353034019470215
sS'comp_time'
p172
F0.3980429172515869
sS'exec_cq'
p173
I6
sS'total_cq'
p174
I12
sa(dp175
g170
I37
sg171
F5.035676002502441
sg172
F0.8211619853973389
sg173
I9
sg174
I10
sasS'total_cqs'
p176
I12
ssI21
(dp177
S'iters'
p178
I2
sS'meta'
p179
(lp180
(dp181
S'objective'
p182
I29
sS'query_time'
p183
F59.467543840408325
sS'comp_time'
p184
F0.7238104343414307
sS'exec_cq'
p185
I12
sS'total_cq'
p186
I14
sa(dp187
g182
I43
sg183
F0.1040499210357666
sg184
F0.05145406723022461
sg185
I9
sg186
I11
sasS'total_cqs'
p188
I14
ssI22
(dp189
S'iters'
p190
I1
sS'meta'
p191
(lp192
(dp193
S'objective'
p194
I1
sS'query_time'
p195
F0.00475621223449707
sS'comp_time'
p196
F0.0014023780822753906
sS'exec_cq'
p197
I1
sS'total_cq'
p198
I2
sasS'total_cqs'
p199
I2
ssI23
(dp200
S'iters'
p201
I0
sS'meta'
p202
(lp203
sS'total_cqs'
p204
I1
ssI24
(dp205
S'iters'
p206
I0
sS'meta'
p207
(lp208
sS'total_cqs'
p209
I1
ssI25
(dp210
S'iters'
p211
I2
sS'meta'
p212
(lp213
(dp214
S'objective'
p215
I10
sS'query_time'
p216
F47.937044858932495
sS'comp_time'
p217
F2.120023012161255
sS'exec_cq'
p218
I4
sS'total_cq'
p219
I7
sa(dp220
g215
I5
sg216
F0.1781609058380127
sg217
F0.000640869140625
sg218
I3
sg219
I5
sasS'total_cqs'
p221
I7
ssI26
(dp222
S'iters'
p223
I5
sS'meta'
p224
(lp225
(dp226
S'objective'
p227
I55
sS'query_time'
p228
F22.42221188545227
sS'comp_time'
p229
F0.013954401016235352
sS'exec_cq'
p230
I9
sS'total_cq'
p231
I13
sa(dp232
g227
I41
sg228
F3.4417712688446045
sg229
F0.09557175636291504
sg230
I9
sg231
I11
sa(dp233
g227
I31
sg228
F0.0024509429931640625
sg229
F0.0035562515258789062
sg230
I7
sg231
I9
sa(dp234
g227
I20
sg228
F0.0018851757049560547
sg229
F0.003705739974975586
sg230
I6
sg231
I8
sa(dp235
g227
I10
sg228
F0.003551006317138672
sg229
F0.0003509521484375
sg230
I3
sg231
I6
sasS'total_cqs'
p236
I13
ssI27
(dp237
S'iters'
p238
I1
sS'meta'
p239
(lp240
(dp241
S'objective'
p242
I1
sS'query_time'
p243
F0.22878098487854004
sS'comp_time'
p244
F0.0021872520446777344
sS'exec_cq'
p245
I1
sS'total_cq'
p246
I2
sasS'total_cqs'
p247
I2
ssI28
(dp248
S'iters'
p249
I3
sS'meta'
p250
(lp251
(dp252
S'objective'
p253
I61
sS'query_time'
p254
F1.5574259757995605
sS'comp_time'
p255
F0.3338582515716553
sS'exec_cq'
p256
I6
sS'total_cq'
p257
I14
sa(dp258
g253
I47
sg254
F0.003484010696411133
sg255
F0.00551295280456543
sg256
I3
sg257
I11
sa(dp259
g253
I41
sg254
F0.003329038619995117
sg255
F9.894371032714844e-05
sg256
I1
sg257
I9
sasS'total_cqs'
p260
I14
ssI29
(dp261
S'iters'
p262
I1
sS'meta'
p263
(lp264
(dp265
S'objective'
p266
I1
sS'query_time'
p267
F0.00822591781616211
sS'comp_time'
p268
F0.001348257064819336
sS'exec_cq'
p269
I2
sS'total_cq'
p270
I2
sasS'total_cqs'
p271
I2
ssI30
(dp272
S'iters'
p273
I1
sS'meta'
p274
(lp275
(dp276
S'objective'
p277
I1
sS'query_time'
p278
F0.3694438934326172
sS'comp_time'
p279
F0.0024797916412353516
sS'exec_cq'
p280
I2
sS'total_cq'
p281
I2
sasS'total_cqs'
p282
I2
ssI31
(dp283
S'iters'
p284
I3
sS'meta'
p285
(lp286
(dp287
S'objective'
p288
I13
sS'query_time'
p289
F5.8132359981536865
sS'comp_time'
p290
F0.19589495658874512
sS'exec_cq'
p291
I9
sS'total_cq'
p292
I9
sa(dp293
g288
I3
sg289
F0.010679960250854492
sg290
F0.021077871322631836
sg291
I5
sg292
I7
sa(dp294
g288
I3
sg289
F0.0091400146484375
sg290
F0.015880584716796875
sg291
I3
sg292
I3
sasS'total_cqs'
p295
I9
ssI32
(dp296
S'iters'
p297
I2
sS'meta'
p298
(lp299
(dp300
S'objective'
p301
I2
sS'query_time'
p302
F20.90963912010193
sS'comp_time'
p303
F1.9147028923034668
sS'exec_cq'
p304
I4
sS'total_cq'
p305
I7
sa(dp306
g301
I1
sg302
F0.0864100456237793
sg303
F0.0002129077911376953
sg304
I1
sg305
I4
sasS'total_cqs'
p307
I7
ssI33
(dp308
S'iters'
p309
I1
sS'meta'
p310
(lp311
(dp312
S'objective'
p313
I1
sS'query_time'
p314
F0.030908823013305664
sS'comp_time'
p315
F0.0017728805541992188
sS'exec_cq'
p316
I2
sS'total_cq'
p317
I2
sasS'total_cqs'
p318
I2
ssI34
(dp319
S'iters'
p320
I0
sS'meta'
p321
(lp322
sS'total_cqs'
p323
I1
ssI35
(dp324
S'iters'
p325
I2
sS'meta'
p326
(lp327
(dp328
S'objective'
p329
I1
sS'query_time'
p330
F12.941033124923706
sS'comp_time'
p331
F0.19612669944763184
sS'exec_cq'
p332
I4
sS'total_cq'
p333
I5
sa(dp334
g329
I2
sg330
F0.029121875762939453
sg331
F0.06341195106506348
sg332
I3
sg333
I3
sasS'total_cqs'
p335
I5
ssI37
(dp336
S'iters'
p337
I2
sS'meta'
p338
(lp339
(dp340
S'objective'
p341
I21
sS'query_time'
p342
F1.5552871227264404
sS'comp_time'
p343
F0.15360689163208008
sS'exec_cq'
p344
I8
sS'total_cq'
p345
I10
sa(dp346
g341
I1
sg342
F0.0028848648071289062
sg343
F0.004418134689331055
sg344
I2
sg345
I2
sasS'total_cqs'
p347
I10
ssI38
(dp348
S'iters'
p349
I0
sS'meta'
p350
(lp351
sS'total_cqs'
p352
I1
ssI39
(dp353
S'iters'
p354
I0
sS'meta'
p355
(lp356
sS'total_cqs'
p357
I1
ssI40
(dp358
S'iters'
p359
I1
sS'meta'
p360
(lp361
(dp362
S'objective'
p363
I1
sS'query_time'
p364
F0.0030198097229003906
sS'comp_time'
p365
F0.0005502700805664062
sS'exec_cq'
p366
I1
sS'total_cq'
p367
I2
sasS'total_cqs'
p368
I2
ssI41
(dp369
S'iters'
p370
I2
sS'meta'
p371
(lp372
(dp373
S'objective'
p374
I1
sS'query_time'
p375
F1.0600690841674805
sS'comp_time'
p376
F0.004963874816894531
sS'exec_cq'
p377
I2
sS'total_cq'
p378
I6
sa(dp379
g374
I1
sg375
F0.0015308856964111328
sg376
F0.001399993896484375
sg377
I2
sg378
I2
sasS'total_cqs'
p380
I6
ssI42
(dp381
S'iters'
p382
I1
sS'meta'
p383
(lp384
(dp385
S'objective'
p386
I1
sS'query_time'
p387
F0.006757974624633789
sS'comp_time'
p388
F0.0004718303680419922
sS'exec_cq'
p389
I1
sS'total_cq'
p390
I2
sasS'total_cqs'
p391
I2
ssI43
(dp392
S'iters'
p393
I0
sS'meta'
p394
(lp395
sS'total_cqs'
p396
I1
ssI44
(dp397
S'iters'
p398
I2
sS'meta'
p399
(lp400
(dp401
S'objective'
p402
I3
sS'query_time'
p403
F0.34822607040405273
sS'comp_time'
p404
F0.0035767555236816406
sS'exec_cq'
p405
I2
sS'total_cq'
p406
I5
sa(dp407
g402
I1
sg403
F1.0490219593048096
sg404
F0.027898073196411133
sg405
I3
sg406
I3
sasS'total_cqs'
p408
I5
ssI45
(dp409
S'iters'
p410
I2
sS'meta'
p411
(lp412
(dp413
S'objective'
p414
I1
sS'query_time'
p415
F0.03469085693359375
sS'comp_time'
p416
F0.0020830631256103516
sS'exec_cq'
p417
I3
sS'total_cq'
p418
I5
sa(dp419
g414
I2
sg415
F0.0001468658447265625
sg416
F0.00020623207092285156
sg417
I2
sg418
I2
sasS'total_cqs'
p420
I5
ssI46
(dp421
S'iters'
p422
I0
sS'meta'
p423
(lp424
sS'total_cqs'
p425
I1
ssI47
(dp426
S'iters'
p427
I0
sS'meta'
p428
(lp429
sS'total_cqs'
p430
I1
ssI48
(dp431
S'iters'
p432
I1
sS'meta'
p433
(lp434
(dp435
S'objective'
p436
I1
sS'query_time'
p437
F0.18444013595581055
sS'comp_time'
p438
F0.002048969268798828
sS'exec_cq'
p439
I2
sS'total_cq'
p440
I2
sasS'total_cqs'
p441
I2
ssI49
(dp442
S'iters'
p443
I2
sS'meta'
p444
(lp445
(dp446
S'objective'
p447
I1
sS'query_time'
p448
F0.24164915084838867
sS'comp_time'
p449
F0.0037622451782226562
sS'exec_cq'
p450
I4
sS'total_cq'
p451
I5
sa(dp452
g447
I2
sg448
F0.00032401084899902344
sg449
F0.0006220340728759766
sg450
I2
sg451
I2
sasS'total_cqs'
p453
I5
ssI50
(dp454
S'iters'
p455
I1
sS'meta'
p456
(lp457
(dp458
S'objective'
p459
I5
sS'query_time'
p460
F0.6569259166717529
sS'comp_time'
p461
F0.0023200511932373047
sS'exec_cq'
p462
I5
sS'total_cq'
p463
I5
sasS'total_cqs'
p464
I5
ssI51
(dp465
S'iters'
p466
I0
sS'meta'
p467
(lp468
sS'total_cqs'
p469
I1
ssI52
(dp470
S'iters'
p471
I0
sS'meta'
p472
(lp473
sS'total_cqs'
p474
I1
ssI53
(dp475
S'iters'
p476
I0
sS'meta'
p477
(lp478
sS'total_cqs'
p479
I1
ssI55
(dp480
S'iters'
p481
I1
sS'meta'
p482
(lp483
(dp484
S'objective'
p485
I1
sS'query_time'
p486
F24.153975009918213
sS'comp_time'
p487
F0.016696929931640625
sS'exec_cq'
p488
I2
sS'total_cq'
p489
I2
sasS'total_cqs'
p490
I2
ssI56
(dp491
S'iters'
p492
I0
sS'meta'
p493
(lp494
sS'total_cqs'
p495
I1
ssI57
(dp496
S'iters'
p497
I1
sS'meta'
p498
(lp499
(dp500
S'objective'
p501
I2
sS'query_time'
p502
F12.047667980194092
sS'comp_time'
p503
F1.197117805480957
sS'exec_cq'
p504
I3
sS'total_cq'
p505
I3
sasS'total_cqs'
p506
I3
ssI108
(dp507
S'iters'
p508
I0
sS'meta'
p509
(lp510
sS'total_cqs'
p511
I1
ssI109
(dp512
S'iters'
p513
I0
sS'meta'
p514
(lp515
sS'total_cqs'
p516
I1
ssI116
(dp517
S'iters'
p518
I3
sS'meta'
p519
(lp520
(dp521
S'objective'
p522
I173
sS'query_time'
p523
F3.650282144546509
sS'comp_time'
p524
F0.28841304779052734
sS'exec_cq'
p525
I15
sS'total_cq'
p526
I21
sa(dp527
g522
I148
sg523
F0.5174069404602051
sg524
F0.0006651878356933594
sg525
I14
sg526
I19
sa(dp528
g522
I7
sg523
F0.0007069110870361328
sg524
F0.0008671283721923828
sg525
I2
sg526
I2
sasS'total_cqs'
p529
I21
ssI117
(dp530
S'iters'
p531
I1
sS'meta'
p532
(lp533
(dp534
S'objective'
p535
I5
sS'query_time'
p536
F0.016729116439819336
sS'comp_time'
p537
F0.0027513504028320312
sS'exec_cq'
p538
I4
sS'total_cq'
p539
I5
sasS'total_cqs'
p540
I5
ssI118
(dp541
S'iters'
p542
I0
sS'meta'
p543
(lp544
sS'total_cqs'
p545
I1
ssI122
(dp546
S'iters'
p547
I0
sS'meta'
p548
(lp549
sS'total_cqs'
p550
I1
ss.