(dp0
I1
(dp1
S'iters'
p2
I2
sS'meta'
p3
(lp4
(dp5
S'objective'
p6
I5
sS'query_time'
p7
F48.54936695098877
sS'comp_time'
p8
F1.1252272129058838
sS'exec_cq'
p9
I5
sS'total_cq'
p10
I6
sa(dp11
g6
I4
sg7
F0.16048312187194824
sg8
F0.22199702262878418
sg9
I2
sg10
I2
sasS'total_cqs'
p12
I6
ssI2
(dp13
S'iters'
p14
I1
sS'meta'
p15
(lp16
(dp17
S'objective'
p18
I9
sS'query_time'
p19
F0.8728809356689453
sS'comp_time'
p20
F0.158219575881958
sS'exec_cq'
p21
I5
sS'total_cq'
p22
I6
sasS'total_cqs'
p23
I6
ssI3
(dp24
S'iters'
p25
I5
sS'meta'
p26
(lp27
(dp28
S'objective'
p29
I429
sS'query_time'
p30
F26.20104956626892
sS'comp_time'
p31
F0.28975439071655273
sS'exec_cq'
p32
I33
sS'total_cq'
p33
I33
sa(dp34
g29
I379
sg30
F0.028658151626586914
sg31
F0.16778945922851562
sg32
I30
sg33
I30
sa(dp35
g29
I331
sg30
F0.12013506889343262
sg31
F0.06195878982543945
sg32
I27
sg33
I27
sa(dp36
g29
I304
sg30
F0.029990673065185547
sg31
F0.1241159439086914
sg32
I24
sg33
I24
sa(dp37
g29
I278
sg30
F0.016431808471679688
sg31
F0.10257911682128906
sg32
I21
sg33
I21
sasS'total_cqs'
p38
I33
ssI4
(dp39
S'iters'
p40
I0
sS'meta'
p41
(lp42
sS'total_cqs'
p43
I1
ssI5
(dp44
S'iters'
p45
I0
sS'meta'
p46
(lp47
sS'total_cqs'
p48
I1
ssI6
(dp49
S'iters'
p50
I2
sS'meta'
p51
(lp52
(dp53
S'objective'
p54
I1
sS'query_time'
p55
F14.366643905639648
sS'comp_time'
p56
F0.00419306755065918
sS'exec_cq'
p57
I4
sS'total_cq'
p58
I5
sa(dp59
g54
I2
sg55
F0.0006029605865478516
sg56
F0.0007531642913818359
sg57
I2
sg58
I3
sasS'total_cqs'
p60
I5
ssI7
(dp61
S'iters'
p62
I0
sS'meta'
p63
(lp64
sS'total_cqs'
p65
I1
ssI8
(dp66
S'iters'
p67
I2
sS'meta'
p68
(lp69
(dp70
S'objective'
p71
I13
sS'query_time'
p72
F43.39669609069824
sS'comp_time'
p73
F0.12507390975952148
sS'exec_cq'
p74
I6
sS'total_cq'
p75
I6
sa(dp76
g71
I5
sg72
F0.08713126182556152
sg73
F0.00013566017150878906
sg74
I4
sg75
I5
sasS'total_cqs'
p77
I6
ssI9
(dp78
S'iters'
p79
I2
sS'meta'
p80
(lp81
(dp82
S'objective'
p83
I1
sS'query_time'
p84
F12.309566974639893
sS'comp_time'
p85
F0.062258243560791016
sS'exec_cq'
p86
I3
sS'total_cq'
p87
I6
sa(dp88
g83
I1
sg84
F0.05894899368286133
sg85
F0.36548924446105957
sg86
I3
sg87
I3
sasS'total_cqs'
p89
I6
ssI10
(dp90
S'iters'
p91
I0
sS'meta'
p92
(lp93
sS'total_cqs'
p94
I1
ssI11
(dp95
S'iters'
p96
I0
sS'meta'
p97
(lp98
sS'total_cqs'
p99
I1
ssI12
(dp100
S'iters'
p101
I0
sS'meta'
p102
(lp103
sS'total_cqs'
p104
I1
ssI13
(dp105
S'iters'
p106
I1
sS'meta'
p107
(lp108
(dp109
S'objective'
p110
I20
sS'query_time'
p111
F0.017680883407592773
sS'comp_time'
p112
F0.008632183074951172
sS'exec_cq'
p113
I6
sS'total_cq'
p114
I8
sasS'total_cqs'
p115
I8
ssI14
(dp116
S'iters'
p117
I1
sS'meta'
p118
(lp119
(dp120
S'objective'
p121
I5
sS'query_time'
p122
F1.1469409465789795
sS'comp_time'
p123
F0.004043102264404297
sS'exec_cq'
p124
I5
sS'total_cq'
p125
I5
sasS'total_cqs'
p126
I5
ssI16
(dp127
S'iters'
p128
I2
sS'meta'
p129
(lp130
(dp131
S'objective'
p132
I1
sS'query_time'
p133
F1.5693590641021729
sS'comp_time'
p134
F0.005991458892822266
sS'exec_cq'
p135
I4
sS'total_cq'
p136
I5
sa(dp137
g132
I2
sg133
F0.0022530555725097656
sg134
F0.002767801284790039
sg135
I3
sg136
I3
sasS'total_cqs'
p138
I5
ssI17
(dp139
S'iters'
p140
I0
sS'meta'
p141
(lp142
sS'total_cqs'
p143
I1
ssI18
(dp144
S'iters'
p145
I3
sS'meta'
p146
(lp147
(dp148
S'objective'
p149
I1
sS'query_time'
p150
F0.24673008918762207
sS'comp_time'
p151
F0.004358768463134766
sS'exec_cq'
p152
I4
sS'total_cq'
p153
I5
sa(dp154
g149
I4
sg150
F4.1961669921875e-05
sg151
F0.00017404556274414062
sg152
I2
sg153
I3
sa(dp155
g149
I4
sg150
F0.02472686767578125
sg151
F0.00018858909606933594
sg152
I2
sg153
I2
sasS'total_cqs'
p156
I5
ssI19
(dp157
S'iters'
p158
I0
sS'meta'
p159
(lp160
sS'total_cqs'
p161
I1
ssI20
(dp162
S'iters'
p163
I3
sS'meta'
p164
(lp165
(dp166
S'objective'
p167
I44
sS'query_time'
p168
F14.535640001296997
sS'comp_time'
p169
F0.7177529335021973
sS'exec_cq'
p170
I10
sS'total_cq'
p171
I12
sa(dp172
g167
I31
sg168
F0.05504894256591797
sg169
F0.1801149845123291
sg170
I4
sg171
I10
sa(dp173
g167
I22
sg168
F0.20072722434997559
sg169
F0.36472392082214355
sg170
I5
sg171
I8
sasS'total_cqs'
p174
I12
ssI21
(dp175
S'iters'
p176
I2
sS'meta'
p177
(lp178
(dp179
S'objective'
p180
I57
sS'query_time'
p181
F61.8251690864563
sS'comp_time'
p182
F0.9774856567382812
sS'exec_cq'
p183
I12
sS'total_cq'
p184
I14
sa(dp185
g180
I53
sg181
F0.3142991065979004
sg182
F0.7170181274414062
sg183
I11
sg184
I12
sasS'total_cqs'
p186
I14
ssI22
(dp187
S'iters'
p188
I1
sS'meta'
p189
(lp190
(dp191
S'objective'
p192
I1
sS'query_time'
p193
F0.006134986877441406
sS'comp_time'
p194
F0.0016820430755615234
sS'exec_cq'
p195
I1
sS'total_cq'
p196
I2
sasS'total_cqs'
p197
I2
ssI23
(dp198
S'iters'
p199
I0
sS'meta'
p200
(lp201
sS'total_cqs'
p202
I1
ssI24
(dp203
S'iters'
p204
I0
sS'meta'
p205
(lp206
sS'total_cqs'
p207
I1
ssI25
(dp208
S'iters'
p209
I2
sS'meta'
p210
(lp211
(dp212
S'objective'
p213
I14
sS'query_time'
p214
F52.17707395553589
sS'comp_time'
p215
F2.780639171600342
sS'exec_cq'
p216
I6
sS'total_cq'
p217
I7
sa(dp218
g213
I7
sg214
F1.0718951225280762
sg215
F3.1771323680877686
sg216
I5
sg217
I5
sasS'total_cqs'
p219
I7
ssI26
(dp220
S'iters'
p221
I1
sS'meta'
p222
(lp223
(dp224
S'objective'
p225
I65
sS'query_time'
p226
F23.687648057937622
sS'comp_time'
p227
F2.9822347164154053
sS'exec_cq'
p228
I8
sS'total_cq'
p229
I13
sasS'total_cqs'
p230
I13
ssI27
(dp231
S'iters'
p232
I1
sS'meta'
p233
(lp234
(dp235
S'objective'
p236
I1
sS'query_time'
p237
F0.22028112411499023
sS'comp_time'
p238
F0.002416849136352539
sS'exec_cq'
p239
I1
sS'total_cq'
p240
I2
sasS'total_cqs'
p241
I2
ssI28
(dp242
S'iters'
p243
I1
sS'meta'
p244
(lp245
(dp246
S'objective'
p247
I77
sS'query_time'
p248
F1.6587650775909424
sS'comp_time'
p249
F0.08018684387207031
sS'exec_cq'
p250
I7
sS'total_cq'
p251
I14
sasS'total_cqs'
p252
I14
ssI29
(dp253
S'iters'
p254
I1
sS'meta'
p255
(lp256
(dp257
S'objective'
p258
I1
sS'query_time'
p259
F0.010816097259521484
sS'comp_time'
p260
F0.001589059829711914
sS'exec_cq'
p261
I2
sS'total_cq'
p262
I2
sasS'total_cqs'
p263
I2
ssI30
(dp264
S'iters'
p265
I1
sS'meta'
p266
(lp267
(dp268
S'objective'
p269
I1
sS'query_time'
p270
F0.426501989364624
sS'comp_time'
p271
F0.0027332305908203125
sS'exec_cq'
p272
I2
sS'total_cq'
p273
I2
sasS'total_cqs'
p274
I2
ssI31
(dp275
S'iters'
p276
I2
sS'meta'
p277
(lp278
(dp279
S'objective'
p280
I17
sS'query_time'
p281
F5.8639349937438965
sS'comp_time'
p282
F0.15532970428466797
sS'exec_cq'
p283
I9
sS'total_cq'
p284
I9
sa(dp285
g280
I4
sg281
F0.008970975875854492
sg282
F0.015169382095336914
sg283
I3
sg284
I3
sasS'total_cqs'
p286
I9
ssI32
(dp287
S'iters'
p288
I2
sS'meta'
p289
(lp290
(dp291
S'objective'
p292
I2
sS'query_time'
p293
F21.069126844406128
sS'comp_time'
p294
F2.2251479625701904
sS'exec_cq'
p295
I4
sS'total_cq'
p296
I7
sa(dp297
g292
I1
sg293
F0.09488987922668457
sg294
F0.0004420280456542969
sg295
I1
sg296
I4
sasS'total_cqs'
p298
I7
ssI33
(dp299
S'iters'
p300
I1
sS'meta'
p301
(lp302
(dp303
S'objective'
p304
I1
sS'query_time'
p305
F0.03185915946960449
sS'comp_time'
p306
F0.0013141632080078125
sS'exec_cq'
p307
I2
sS'total_cq'
p308
I2
sasS'total_cqs'
p309
I2
ssI34
(dp310
S'iters'
p311
I0
sS'meta'
p312
(lp313
sS'total_cqs'
p314
I1
ssI35
(dp315
S'iters'
p316
I2
sS'meta'
p317
(lp318
(dp319
S'objective'
p320
I1
sS'query_time'
p321
F13.93687391281128
sS'comp_time'
p322
F0.0867464542388916
sS'exec_cq'
p323
I4
sS'total_cq'
p324
I5
sa(dp325
g320
I2
sg321
F0.012341976165771484
sg322
F0.08800792694091797
sg323
I2
sg324
I2
sasS'total_cqs'
p326
I5
ssI37
(dp327
S'iters'
p328
I2
sS'meta'
p329
(lp330
(dp331
S'objective'
p332
I17
sS'query_time'
p333
F1.8416547775268555
sS'comp_time'
p334
F0.04825401306152344
sS'exec_cq'
p335
I8
sS'total_cq'
p336
I10
sa(dp337
g332
I1
sg333
F0.004736900329589844
sg334
F0.08385276794433594
sg335
I2
sg336
I2
sasS'total_cqs'
p338
I10
ssI38
(dp339
S'iters'
p340
I0
sS'meta'
p341
(lp342
sS'total_cqs'
p343
I1
ssI39
(dp344
S'iters'
p345
I0
sS'meta'
p346
(lp347
sS'total_cqs'
p348
I1
ssI40
(dp349
S'iters'
p350
I1
sS'meta'
p351
(lp352
(dp353
S'objective'
p354
I1
sS'query_time'
p355
F0.008738994598388672
sS'comp_time'
p356
F0.0010533332824707031
sS'exec_cq'
p357
I1
sS'total_cq'
p358
I2
sasS'total_cqs'
p359
I2
ssI41
(dp360
S'iters'
p361
I2
sS'meta'
p362
(lp363
(dp364
S'objective'
p365
I3
sS'query_time'
p366
F10.835345029830933
sS'comp_time'
p367
F0.6761517524719238
sS'exec_cq'
p368
I5
sS'total_cq'
p369
I6
sa(dp370
g365
I3
sg366
F0.0008170604705810547
sg367
F0.000993490219116211
sg368
I2
sg369
I2
sasS'total_cqs'
p371
I6
ssI42
(dp372
S'iters'
p373
I1
sS'meta'
p374
(lp375
(dp376
S'objective'
p377
I1
sS'query_time'
p378
F0.008165121078491211
sS'comp_time'
p379
F0.00051116943359375
sS'exec_cq'
p380
I1
sS'total_cq'
p381
I2
sasS'total_cqs'
p382
I2
ssI43
(dp383
S'iters'
p384
I0
sS'meta'
p385
(lp386
sS'total_cqs'
p387
I1
ssI44
(dp388
S'iters'
p389
I2
sS'meta'
p390
(lp391
(dp392
S'objective'
p393
I1
sS'query_time'
p394
F0.2676210403442383
sS'comp_time'
p395
F0.003776073455810547
sS'exec_cq'
p396
I2
sS'total_cq'
p397
I5
sa(dp398
g393
I2
sg394
F1.2791199684143066
sg395
F0.10180234909057617
sg396
I3
sg397
I3
sasS'total_cqs'
p399
I5
ssI45
(dp400
S'iters'
p401
I2
sS'meta'
p402
(lp403
(dp404
S'objective'
p405
I3
sS'query_time'
p406
F0.02786993980407715
sS'comp_time'
p407
F0.0026895999908447266
sS'exec_cq'
p408
I3
sS'total_cq'
p409
I5
sa(dp410
g405
I4
sg406
F0.00016689300537109375
sg407
F0.00023102760314941406
sg408
I2
sg409
I2
sasS'total_cqs'
p411
I5
ssI46
(dp412
S'iters'
p413
I0
sS'meta'
p414
(lp415
sS'total_cqs'
p416
I1
ssI47
(dp417
S'iters'
p418
I0
sS'meta'
p419
(lp420
sS'total_cqs'
p421
I1
ssI48
(dp422
S'iters'
p423
I1
sS'meta'
p424
(lp425
(dp426
S'objective'
p427
I1
sS'query_time'
p428
F0.14642000198364258
sS'comp_time'
p429
F0.0049474239349365234
sS'exec_cq'
p430
I2
sS'total_cq'
p431
I2
sasS'total_cqs'
p432
I2
ssI49
(dp433
S'iters'
p434
I2
sS'meta'
p435
(lp436
(dp437
S'objective'
p438
I3
sS'query_time'
p439
F0.2190260887145996
sS'comp_time'
p440
F0.0031158924102783203
sS'exec_cq'
p441
I4
sS'total_cq'
p442
I5
sa(dp443
g438
I1
sg439
F0.00044608116149902344
sg440
F0.0005548000335693359
sg441
I2
sg442
I2
sasS'total_cqs'
p444
I5
ssI50
(dp445
S'iters'
p446
I1
sS'meta'
p447
(lp448
(dp449
S'objective'
p450
I5
sS'query_time'
p451
F0.7280030250549316
sS'comp_time'
p452
F0.0027158260345458984
sS'exec_cq'
p453
I5
sS'total_cq'
p454
I5
sasS'total_cqs'
p455
I5
ssI51
(dp456
S'iters'
p457
I0
sS'meta'
p458
(lp459
sS'total_cqs'
p460
I1
ssI52
(dp461
S'iters'
p462
I0
sS'meta'
p463
(lp464
sS'total_cqs'
p465
I1
ssI53
(dp466
S'iters'
p467
I0
sS'meta'
p468
(lp469
sS'total_cqs'
p470
I1
ssI55
(dp471
S'iters'
p472
I1
sS'meta'
p473
(lp474
(dp475
S'objective'
p476
I1
sS'query_time'
p477
F24.317506074905396
sS'comp_time'
p478
F0.017470598220825195
sS'exec_cq'
p479
I2
sS'total_cq'
p480
I2
sasS'total_cqs'
p481
I2
ssI56
(dp482
S'iters'
p483
I0
sS'meta'
p484
(lp485
sS'total_cqs'
p486
I1
ssI57
(dp487
S'iters'
p488
I1
sS'meta'
p489
(lp490
(dp491
S'objective'
p492
I0
sS'query_time'
p493
F12.919127941131592
sS'comp_time'
p494
F1.1067910194396973
sS'exec_cq'
p495
I2
sS'total_cq'
p496
I3
sasS'total_cqs'
p497
I3
ssI108
(dp498
S'iters'
p499
I0
sS'meta'
p500
(lp501
sS'total_cqs'
p502
I1
ssI109
(dp503
S'iters'
p504
I0
sS'meta'
p505
(lp506
sS'total_cqs'
p507
I1
ssI116
(dp508
S'iters'
p509
I2
sS'meta'
p510
(lp511
(dp512
S'objective'
p513
I153
sS'query_time'
p514
F0.5628807544708252
sS'comp_time'
p515
F0.014258384704589844
sS'exec_cq'
p516
I14
sS'total_cq'
p517
I21
sa(dp518
g513
I3
sg514
F0.0006818771362304688
sg515
F0.0008733272552490234
sg516
I2
sg517
I2
sasS'total_cqs'
p519
I21
ssI117
(dp520
S'iters'
p521
I1
sS'meta'
p522
(lp523
(dp524
S'objective'
p525
I5
sS'query_time'
p526
F0.01093602180480957
sS'comp_time'
p527
F0.003165006637573242
sS'exec_cq'
p528
I4
sS'total_cq'
p529
I5
sasS'total_cqs'
p530
I5
ssI118
(dp531
S'iters'
p532
I0
sS'meta'
p533
(lp534
sS'total_cqs'
p535
I1
ssI122
(dp536
S'iters'
p537
I0
sS'meta'
p538
(lp539
sS'total_cqs'
p540
I1
ss.