(dp0
I1
(dp1
S'iters'
p2
I3
sS'meta'
p3
(lp4
(dp5
S'objective'
p6
I9
sS'query_time'
p7
F24.609451055526733
sS'comp_time'
p8
F0.08384513854980469
sS'exec_cq'
p9
I6
sS'total_cq'
p10
I6
sa(dp11
g6
I3
sg7
F0.009801149368286133
sg8
F1.3168590068817139
sg9
I5
sg10
I5
sa(dp12
g6
I1
sg7
F0.014922857284545898
sg8
F236.9920871257782
sg9
I2
sg10
I2
sasS'total_cqs'
p13
I6
ssI2
(dp14
S'iters'
p15
I1
sS'meta'
p16
(lp17
(dp18
S'objective'
p19
I13
sS'query_time'
p20
F0.8437809944152832
sS'comp_time'
p21
F0.10441994667053223
sS'exec_cq'
p22
I6
sS'total_cq'
p23
I6
sasS'total_cqs'
p24
I6
ssI3
(dp25
S'iters'
p26
I11
sS'meta'
p27
(lp28
(dp29
S'objective'
p30
I389
sS'query_time'
p31
F25.77589201927185
sS'comp_time'
p32
F0.21768712997436523
sS'exec_cq'
p33
I33
sS'total_cq'
p34
I33
sa(dp35
g30
I303
sg31
F0.07589197158813477
sg32
F0.2238759994506836
sg33
I30
sg34
I30
sa(dp36
g30
I265
sg31
F0.02466416358947754
sg32
F0.2151651382446289
sg33
I27
sg34
I27
sa(dp37
g30
I203
sg31
F0.023131847381591797
sg32
F0.1580061912536621
sg33
I24
sg34
I24
sa(dp38
g30
I145
sg31
F0.020630836486816406
sg32
F0.14410901069641113
sg33
I21
sg34
I21
sa(dp39
g30
I139
sg31
F0.01961493492126465
sg32
F0.14210104942321777
sg33
I18
sg34
I18
sa(dp40
g30
I110
sg31
F0.019669055938720703
sg32
F0.14619803428649902
sg33
I15
sg34
I15
sa(dp41
g30
I85
sg31
F0.005520820617675781
sg32
F0.05395793914794922
sg33
I12
sg34
I12
sa(dp42
g30
I67
sg31
F0.0052509307861328125
sg32
F0.030031204223632812
sg33
I10
sg34
I10
sa(dp43
g30
I52
sg31
F0.005847930908203125
sg32
F0.050415754318237305
sg33
I9
sg34
I9
sa(dp44
g30
I35
sg31
F0.004864931106567383
sg32
F0.028855085372924805
sg33
I8
sg34
I8
sasS'total_cqs'
p45
I33
ssI4
(dp46
S'iters'
p47
I0
sS'meta'
p48
(lp49
sS'total_cqs'
p50
I1
ssI5
(dp51
S'iters'
p52
I0
sS'meta'
p53
(lp54
sS'total_cqs'
p55
I1
ssI6
(dp56
S'iters'
p57
I2
sS'meta'
p58
(lp59
(dp60
S'objective'
p61
I1
sS'query_time'
p62
F14.463089942932129
sS'comp_time'
p63
F0.0029802322387695312
sS'exec_cq'
p64
I5
sS'total_cq'
p65
I5
sa(dp66
g61
I0
sg62
F0.0005090236663818359
sg63
F0.0018649101257324219
sg64
I3
sg65
I3
sasS'total_cqs'
p67
I5
ssI7
(dp68
S'iters'
p69
I0
sS'meta'
p70
(lp71
sS'total_cqs'
p72
I1
ssI8
(dp73
S'iters'
p74
I3
sS'meta'
p75
(lp76
(dp77
S'objective'
p78
I17
sS'query_time'
p79
F22.88476800918579
sS'comp_time'
p80
F0.29572081565856934
sS'exec_cq'
p81
I6
sS'total_cq'
p82
I6
sa(dp83
g78
I3
sg79
F0.18808984756469727
sg80
F0.18631696701049805
sg81
I5
sg82
I5
sa(dp84
g78
I0
sg79
F0.0031621456146240234
sg80
F0.0024847984313964844
sg81
I3
sg82
I3
sasS'total_cqs'
p85
I6
ssI9
(dp86
S'iters'
p87
I3
sS'meta'
p88
(lp89
(dp90
S'objective'
p91
I1
sS'query_time'
p92
F52.39579200744629
sS'comp_time'
p93
F5.383790016174316
sS'exec_cq'
p94
I6
sS'total_cq'
p95
I6
sa(dp96
g91
I1
sg92
F0.06927299499511719
sg93
F0.5586471557617188
sg94
I3
sg95
I3
sa(dp97
g91
I2
sg92
F0.02651691436767578
sg93
F0.28781986236572266
sg94
I2
sg95
I2
sasS'total_cqs'
p98
I6
ssI10
(dp99
S'iters'
p100
I0
sS'meta'
p101
(lp102
sS'total_cqs'
p103
I1
ssI11
(dp104
S'iters'
p105
I0
sS'meta'
p106
(lp107
sS'total_cqs'
p108
I1
ssI12
(dp109
S'iters'
p110
I0
sS'meta'
p111
(lp112
sS'total_cqs'
p113
I1
ssI13
(dp114
S'iters'
p115
I2
sS'meta'
p116
(lp117
(dp118
S'objective'
p119
I22
sS'query_time'
p120
F0.03209209442138672
sS'comp_time'
p121
F0.00014209747314453125
sS'exec_cq'
p122
I8
sS'total_cq'
p123
I8
sa(dp124
g119
I19
sg120
F3.0994415283203125e-05
sg121
F5.0067901611328125e-05
sg122
I7
sg123
I7
sasS'total_cqs'
p125
I8
ssI14
(dp126
S'iters'
p127
I2
sS'meta'
p128
(lp129
(dp130
S'objective'
p131
I5
sS'query_time'
p132
F1.136652946472168
sS'comp_time'
p133
F0.007523059844970703
sS'exec_cq'
p134
I5
sS'total_cq'
p135
I5
sa(dp136
g131
I2
sg132
F0.0005390644073486328
sg133
F0.0029997825622558594
sg134
I4
sg135
I4
sasS'total_cqs'
p137
I5
ssI16
(dp138
S'iters'
p139
I2
sS'meta'
p140
(lp141
(dp142
S'objective'
p143
I1
sS'query_time'
p144
F1.4994089603424072
sS'comp_time'
p145
F0.006937980651855469
sS'exec_cq'
p146
I5
sS'total_cq'
p147
I5
sa(dp148
g143
I0
sg144
F0.00011086463928222656
sg145
F0.0004589557647705078
sg146
I3
sg147
I3
sasS'total_cqs'
p149
I5
ssI17
(dp150
S'iters'
p151
I0
sS'meta'
p152
(lp153
sS'total_cqs'
p154
I1
ssI18
(dp155
S'iters'
p156
I2
sS'meta'
p157
(lp158
(dp159
S'objective'
p160
I1
sS'query_time'
p161
F0.2942500114440918
sS'comp_time'
p162
F0.0003421306610107422
sS'exec_cq'
p163
I5
sS'total_cq'
p164
I5
sa(dp165
g160
I1
sg161
F5.078315734863281e-05
sg162
F0.00017714500427246094
sg163
I3
sg164
I3
sasS'total_cqs'
p166
I5
ssI19
(dp167
S'iters'
p168
I0
sS'meta'
p169
(lp170
sS'total_cqs'
p171
I1
ssI20
(dp172
S'iters'
p173
I4
sS'meta'
p174
(lp175
(dp176
S'objective'
p177
I50
sS'query_time'
p178
F11.364404916763306
sS'comp_time'
p179
F1.2067768573760986
sS'exec_cq'
p180
I12
sS'total_cq'
p181
I12
sa(dp182
g177
I42
sg178
F0.17899608612060547
sg179
F0.6750128269195557
sg180
I10
sg181
I10
sa(dp183
g177
I37
sg178
F0.15108704566955566
sg179
F0.6218001842498779
sg180
I8
sg181
I8
sa(dp184
g177
I31
sg178
F0.14309287071228027
sg179
F0.5990960597991943
sg180
I7
sg181
I7
sasS'total_cqs'
p185
I12
ssI21
(dp186
S'iters'
p187
I3
sS'meta'
p188
(lp189
(dp190
S'objective'
p191
I37
sS'query_time'
p192
F28.038267135620117
sS'comp_time'
p193
F0.22920918464660645
sS'exec_cq'
p194
I14
sS'total_cq'
p195
I14
sa(dp196
g191
I35
sg192
F0.02082085609436035
sg193
F0.14801812171936035
sg194
I10
sg195
I10
sa(dp197
g191
I2
sg192
F0.0037508010864257812
sg193
F0.019938945770263672
sg194
I2
sg195
I2
sasS'total_cqs'
p198
I14
ssI22
(dp199
S'iters'
p200
I1
sS'meta'
p201
(lp202
(dp203
S'objective'
p204
I1
sS'query_time'
p205
F0.007128000259399414
sS'comp_time'
p206
F0.00013208389282226562
sS'exec_cq'
p207
I2
sS'total_cq'
p208
I2
sasS'total_cqs'
p209
I2
ssI23
(dp210
S'iters'
p211
I0
sS'meta'
p212
(lp213
sS'total_cqs'
p214
I1
ssI24
(dp215
S'iters'
p216
I0
sS'meta'
p217
(lp218
sS'total_cqs'
p219
I1
ssI25
(dp220
S'iters'
p221
I2
sS'meta'
p222
(lp223
(dp224
S'objective'
p225
I10
sS'query_time'
p226
F49.924915075302124
sS'comp_time'
p227
F3.6014790534973145
sS'exec_cq'
p228
I7
sS'total_cq'
p229
I7
sa(dp230
g225
I9
sg226
F0.012924909591674805
sg227
F0.2995319366455078
sg228
I5
sg229
I5
sasS'total_cqs'
p231
I7
ssI26
(dp232
S'iters'
p233
I5
sS'meta'
p234
(lp235
(dp236
S'objective'
p237
I43
sS'query_time'
p238
F24.704915046691895
sS'comp_time'
p239
F3.2810373306274414
sS'exec_cq'
p240
I13
sS'total_cq'
p241
I13
sa(dp242
g237
I35
sg238
F0.7535719871520996
sg239
F3.1339452266693115
sg240
I11
sg241
I11
sa(dp243
g237
I31
sg238
F0.754486083984375
sg239
F2.9062931537628174
sg240
I9
sg241
I9
sa(dp244
g237
I23
sg238
F0.0016798973083496094
sg239
F0.006880044937133789
sg240
I8
sg241
I8
sa(dp245
g237
I16
sg238
F0.0015711784362792969
sg239
F0.005880832672119141
sg240
I7
sg241
I7
sasS'total_cqs'
p246
I13
ssI27
(dp247
S'iters'
p248
I1
sS'meta'
p249
(lp250
(dp251
S'objective'
p252
I1
sS'query_time'
p253
F0.16124606132507324
sS'comp_time'
p254
F0.00413203239440918
sS'exec_cq'
p255
I2
sS'total_cq'
p256
I2
sasS'total_cqs'
p257
I2
ssI28
(dp258
S'iters'
p259
I6
sS'meta'
p260
(lp261
(dp262
S'objective'
p263
I37
sS'query_time'
p264
F1.7638378143310547
sS'comp_time'
p265
F0.02063298225402832
sS'exec_cq'
p266
I14
sS'total_cq'
p267
I14
sa(dp268
g263
I29
sg264
F0.0026869773864746094
sg265
F0.014976024627685547
sg266
I10
sg267
I10
sa(dp269
g263
I24
sg264
F0.0024678707122802734
sg265
F0.03241896629333496
sg266
I7
sg267
I7
sa(dp270
g263
I11
sg264
F0.0025479793548583984
sg265
F0.012551069259643555
sg266
I5
sg267
I5
sa(dp271
g263
I0
sg264
F0.0021178722381591797
sg265
F0.012478113174438477
sg266
I4
sg267
I4
sa(dp272
g263
I4
sg264
F8.702278137207031e-05
sg265
F0.0003991127014160156
sg266
I3
sg267
I3
sasS'total_cqs'
p273
I14
ssI29
(dp274
S'iters'
p275
I1
sS'meta'
p276
(lp277
(dp278
S'objective'
p279
I1
sS'query_time'
p280
F0.005815029144287109
sS'comp_time'
p281
F0.00011682510375976562
sS'exec_cq'
p282
I2
sS'total_cq'
p283
I2
sasS'total_cqs'
p284
I2
ssI30
(dp285
S'iters'
p286
I1
sS'meta'
p287
(lp288
(dp289
S'objective'
p290
I1
sS'query_time'
p291
F0.4018738269805908
sS'comp_time'
p292
F0.005970954895019531
sS'exec_cq'
p293
I2
sS'total_cq'
p294
I2
sasS'total_cqs'
p295
I2
ssI31
(dp296
S'iters'
p297
I4
sS'meta'
p298
(lp299
(dp300
S'objective'
p301
I15
sS'query_time'
p302
F6.023550033569336
sS'comp_time'
p303
F0.15533685684204102
sS'exec_cq'
p304
I9
sS'total_cq'
p305
I9
sa(dp306
g301
I2
sg302
F0.03709101676940918
sg303
F0.17776012420654297
sg304
I7
sg305
I7
sa(dp307
g301
I0
sg302
F0.007756948471069336
sg303
F0.02812790870666504
sg304
I5
sg305
I5
sa(dp308
g301
I4
sg302
F0.00310516357421875
sg303
F0.012901067733764648
sg304
I2
sg305
I2
sasS'total_cqs'
p309
I9
ssI32
(dp310
S'iters'
p311
I3
sS'meta'
p312
(lp313
(dp314
S'objective'
p315
I6
sS'query_time'
p316
F19.296645879745483
sS'comp_time'
p317
F2.864733934402466
sS'exec_cq'
p318
I7
sS'total_cq'
p319
I7
sa(dp320
g315
I1
sg316
F0.28954100608825684
sg317
F1.0010828971862793
sg318
I4
sg319
I4
sa(dp321
g315
I2
sg316
F0.2785649299621582
sg317
F1.0173389911651611
sg318
I2
sg319
I2
sasS'total_cqs'
p322
I7
ssI33
(dp323
S'iters'
p324
I1
sS'meta'
p325
(lp326
(dp327
S'objective'
p328
I1
sS'query_time'
p329
F0.03725314140319824
sS'comp_time'
p330
F0.00013780593872070312
sS'exec_cq'
p331
I2
sS'total_cq'
p332
I2
sasS'total_cqs'
p333
I2
ssI34
(dp334
S'iters'
p335
I0
sS'meta'
p336
(lp337
sS'total_cqs'
p338
I1
ssI35
(dp339
S'iters'
p340
I2
sS'meta'
p341
(lp342
(dp343
S'objective'
p344
I1
sS'query_time'
p345
F16.26866316795349
sS'comp_time'
p346
F0.2446308135986328
sS'exec_cq'
p347
I5
sS'total_cq'
p348
I5
sa(dp349
g344
I1
sg345
F0.03790593147277832
sg346
F0.1939678192138672
sg347
I3
sg348
I3
sasS'total_cqs'
p350
I5
ssI37
(dp351
S'iters'
p352
I2
sS'meta'
p353
(lp354
(dp355
S'objective'
p356
I29
sS'query_time'
p357
F2.391055107116699
sS'comp_time'
p358
F0.117340087890625
sS'exec_cq'
p359
I10
sS'total_cq'
p360
I10
sa(dp361
g356
I1
sg357
F0.0319058895111084
sg358
F0.036853790283203125
sg359
I3
sg360
I3
sasS'total_cqs'
p362
I10
ssI38
(dp363
S'iters'
p364
I0
sS'meta'
p365
(lp366
sS'total_cqs'
p367
I1
ssI39
(dp368
S'iters'
p369
I0
sS'meta'
p370
(lp371
sS'total_cqs'
p372
I1
ssI40
(dp373
S'iters'
p374
I1
sS'meta'
p375
(lp376
(dp377
S'objective'
p378
I1
sS'query_time'
p379
F17.257808923721313
sS'comp_time'
p380
F2.4876949787139893
sS'exec_cq'
p381
I2
sS'total_cq'
p382
I2
sasS'total_cqs'
p383
I2
ssI41
(dp384
S'iters'
p385
I2
sS'meta'
p386
(lp387
(dp388
S'objective'
p389
I1
sS'query_time'
p390
F12.175418138504028
sS'comp_time'
p391
F1.1095168590545654
sS'exec_cq'
p392
I6
sS'total_cq'
p393
I6
sa(dp394
g389
I2
sg390
F0.0009090900421142578
sg391
F0.0035529136657714844
sg392
I2
sg393
I2
sasS'total_cqs'
p395
I6
ssI42
(dp396
S'iters'
p397
I1
sS'meta'
p398
(lp399
(dp400
S'objective'
p401
I1
sS'query_time'
p402
F17.058722972869873
sS'comp_time'
p403
F3.28079891204834
sS'exec_cq'
p404
I2
sS'total_cq'
p405
I2
sasS'total_cqs'
p406
I2
ssI43
(dp407
S'iters'
p408
I0
sS'meta'
p409
(lp410
sS'total_cqs'
p411
I1
ssI44
(dp412
S'iters'
p413
I2
sS'meta'
p414
(lp415
(dp416
S'objective'
p417
I5
sS'query_time'
p418
F1.5518779754638672
sS'comp_time'
p419
F0.11725902557373047
sS'exec_cq'
p420
I5
sS'total_cq'
p421
I5
sa(dp422
g417
I2
sg418
F0.0003819465637207031
sg419
F0.0012888908386230469
sg420
I4
sg421
I4
sasS'total_cqs'
p423
I5
ssI45
(dp424
S'iters'
p425
I2
sS'meta'
p426
(lp427
(dp428
S'objective'
p429
I1
sS'query_time'
p430
F0.04159092903137207
sS'comp_time'
p431
F0.0009799003601074219
sS'exec_cq'
p432
I5
sS'total_cq'
p433
I5
sa(dp434
g429
I1
sg430
F0.00014710426330566406
sg431
F0.00047707557678222656
sg432
I2
sg433
I2
sasS'total_cqs'
p435
I5
ssI46
(dp436
S'iters'
p437
I0
sS'meta'
p438
(lp439
sS'total_cqs'
p440
I1
ssI47
(dp441
S'iters'
p442
I0
sS'meta'
p443
(lp444
sS'total_cqs'
p445
I1
ssI48
(dp446
S'iters'
p447
I1
sS'meta'
p448
(lp449
(dp450
S'objective'
p451
I1
sS'query_time'
p452
F0.1417829990386963
sS'comp_time'
p453
F0.006657123565673828
sS'exec_cq'
p454
I2
sS'total_cq'
p455
I2
sasS'total_cqs'
p456
I2
ssI49
(dp457
S'iters'
p458
I2
sS'meta'
p459
(lp460
(dp461
S'objective'
p462
I1
sS'query_time'
p463
F0.2650618553161621
sS'comp_time'
p464
F0.002752065658569336
sS'exec_cq'
p465
I5
sS'total_cq'
p466
I5
sa(dp467
g462
I1
sg463
F0.0002970695495605469
sg464
F0.001341104507446289
sg465
I3
sg466
I3
sasS'total_cqs'
p468
I5
ssI50
(dp469
S'iters'
p470
I2
sS'meta'
p471
(lp472
(dp473
S'objective'
p474
I5
sS'query_time'
p475
F0.9665188789367676
sS'comp_time'
p476
F0.0012748241424560547
sS'exec_cq'
p477
I5
sS'total_cq'
p478
I5
sa(dp479
g474
I2
sg475
F0.00017309188842773438
sg476
F0.0010747909545898438
sg477
I4
sg478
I4
sasS'total_cqs'
p480
I5
ssI51
(dp481
S'iters'
p482
I0
sS'meta'
p483
(lp484
sS'total_cqs'
p485
I1
ssI52
(dp486
S'iters'
p487
I0
sS'meta'
p488
(lp489
sS'total_cqs'
p490
I1
ssI53
(dp491
S'iters'
p492
I0
sS'meta'
p493
(lp494
sS'total_cqs'
p495
I1
ssI55
(dp496
S'iters'
p497
I1
sS'meta'
p498
(lp499
(dp500
S'objective'
p501
I1
sS'query_time'
p502
F26.952646017074585
sS'comp_time'
p503
F3.39815092086792
sS'exec_cq'
p504
I2
sS'total_cq'
p505
I2
sasS'total_cqs'
p506
I2
ssI56
(dp507
S'iters'
p508
I0
sS'meta'
p509
(lp510
sS'total_cqs'
p511
I1
ssI57
(dp512
S'iters'
p513
I1
sS'meta'
p514
(lp515
(dp516
S'objective'
p517
I0
sS'query_time'
p518
F14.08525800704956
sS'comp_time'
p519
F1.683100938796997
sS'exec_cq'
p520
I3
sS'total_cq'
p521
I3
sasS'total_cqs'
p522
I3
ssI108
(dp523
S'iters'
p524
I0
sS'meta'
p525
(lp526
sS'total_cqs'
p527
I1
ssI109
(dp528
S'iters'
p529
I0
sS'meta'
p530
(lp531
sS'total_cqs'
p532
I1
ssI116
(dp533
S'iters'
p534
I2
sS'meta'
p535
(lp536
(dp537
S'objective'
p538
I173
sS'query_time'
p539
F5.375192165374756
sS'comp_time'
p540
F0.2888338565826416
sS'exec_cq'
p541
I21
sS'total_cq'
p542
I21
sa(dp543
g538
I5
sg539
F0.0016398429870605469
sg540
F0.0043299198150634766
sg541
I3
sg542
I3
sasS'total_cqs'
p544
I21
ssI117
(dp545
S'iters'
p546
I1
sS'meta'
p547
(lp548
(dp549
S'objective'
p550
I7
sS'query_time'
p551
F0.01834893226623535
sS'comp_time'
p552
F9.989738464355469e-05
sS'exec_cq'
p553
I5
sS'total_cq'
p554
I5
sasS'total_cqs'
p555
I5
ssI118
(dp556
S'iters'
p557
I0
sS'meta'
p558
(lp559
sS'total_cqs'
p560
I1
ssI122
(dp561
S'iters'
p562
I0
sS'meta'
p563
(lp564
sS'total_cqs'
p565
I1
ss.