(dp0
I1
(dp1
S'iters'
p2
I3
sS'meta'
p3
(lp4
(dp5
S'objective'
p6
I7
sS'query_time'
p7
F3.188640832901001
sS'comp_time'
p8
F9.608268737792969e-05
sS'exec_cq'
p9
I1
sS'total_cq'
p10
I6
sa(dp11
g6
I2
sg7
F12.34486699104309
sg8
F0.00022983551025390625
sg9
I1
sg10
I4
sa(dp12
g6
I2
sg7
F0.4864039421081543
sg8
F0.00015997886657714844
sg9
I1
sg10
I2
sasS'total_cqs'
p13
I6
ssI2
(dp14
S'iters'
p15
I1
sS'meta'
p16
(lp17
(dp18
S'objective'
p19
I13
sS'query_time'
p20
F0.7515280246734619
sS'comp_time'
p21
F7.176399230957031e-05
sS'exec_cq'
p22
I3
sS'total_cq'
p23
I6
sasS'total_cqs'
p24
I6
ssI3
(dp25
S'iters'
p26
I11
sS'meta'
p27
(lp28
(dp29
S'objective'
p30
I391
sS'query_time'
p31
F1.1621530055999756
sS'comp_time'
p32
F0.00010609626770019531
sS'exec_cq'
p33
I1
sS'total_cq'
p34
I33
sa(dp35
g30
I384
sg31
F0.015592098236083984
sg32
F6.723403930664062e-05
sg33
I1
sg34
I30
sa(dp36
g30
I368
sg31
F0.4979820251464844
sg32
F9.608268737792969e-05
sg33
I1
sg34
I27
sa(dp37
g30
I341
sg31
F0.007333040237426758
sg32
F6.771087646484375e-05
sg33
I1
sg34
I26
sa(dp38
g30
I280
sg31
F0.017470121383666992
sg32
F9.489059448242188e-05
sg33
I2
sg34
I25
sa(dp39
g30
I273
sg31
F0.0034639835357666016
sg32
F6.4849853515625e-05
sg33
I2
sg34
I22
sa(dp40
g30
I203
sg31
F0.09576702117919922
sg32
F9.72747802734375e-05
sg33
I2
sg34
I21
sa(dp41
g30
I203
sg31
F0.15881705284118652
sg32
F7.224082946777344e-05
sg33
I2
sg34
I19
sa(dp42
g30
I185
sg31
F0.04308891296386719
sg32
F7.987022399902344e-05
sg33
I2
sg34
I18
sa(dp43
g30
I106
sg31
F0.013281106948852539
sg32
F5.2928924560546875e-05
sg33
I2
sg34
I17
sa(dp44
g30
I120
sg31
F0.1853029727935791
sg32
F7.295608520507812e-05
sg33
I2
sg34
I14
sasS'total_cqs'
p45
I33
ssI4
(dp46
S'iters'
p47
I0
sS'meta'
p48
(lp49
sS'total_cqs'
p50
I1
ssI5
(dp51
S'iters'
p52
I0
sS'meta'
p53
(lp54
sS'total_cqs'
p55
I1
ssI6
(dp56
S'iters'
p57
I3
sS'meta'
p58
(lp59
(dp60
S'objective'
p61
I5
sS'query_time'
p62
F7.17677903175354
sS'comp_time'
p63
F0.00014901161193847656
sS'exec_cq'
p64
I1
sS'total_cq'
p65
I5
sa(dp66
g61
I0
sg62
F2.332387924194336
sg63
F0.00014901161193847656
sg64
I1
sg65
I4
sa(dp67
g61
I3
sg62
F10.004663944244385
sg63
F0.00015616416931152344
sg64
I1
sg65
I2
sasS'total_cqs'
p68
I5
ssI7
(dp69
S'iters'
p70
I0
sS'meta'
p71
(lp72
sS'total_cqs'
p73
I1
ssI8
(dp74
S'iters'
p75
I3
sS'meta'
p76
(lp77
(dp78
S'objective'
p79
I11
sS'query_time'
p80
F22.090759992599487
sS'comp_time'
p81
F0.0009081363677978516
sS'exec_cq'
p82
I2
sS'total_cq'
p83
I6
sa(dp84
g79
I2
sg80
F0.16753101348876953
sg81
F0.0001518726348876953
sg82
I1
sg83
I5
sa(dp85
g79
I1
sg80
F0.0036640167236328125
sg81
F9.107589721679688e-05
sg82
I1
sg83
I3
sasS'total_cqs'
p86
I6
ssI9
(dp87
S'iters'
p88
I2
sS'meta'
p89
(lp90
(dp91
S'objective'
p92
I11
sS'query_time'
p93
F21.12987494468689
sS'comp_time'
p94
F0.00012803077697753906
sS'exec_cq'
p95
I2
sS'total_cq'
p96
I6
sa(dp97
g92
I8
sg93
F0.6378130912780762
sg94
F0.00048089027404785156
sg95
I2
sg96
I5
sasS'total_cqs'
p98
I6
ssI10
(dp99
S'iters'
p100
I0
sS'meta'
p101
(lp102
sS'total_cqs'
p103
I1
ssI11
(dp104
S'iters'
p105
I0
sS'meta'
p106
(lp107
sS'total_cqs'
p108
I1
ssI12
(dp109
S'iters'
p110
I0
sS'meta'
p111
(lp112
sS'total_cqs'
p113
I1
ssI13
(dp114
S'iters'
p115
I1
sS'meta'
p116
(lp117
(dp118
S'objective'
p119
I26
sS'query_time'
p120
F0.14116382598876953
sS'comp_time'
p121
F7.581710815429688e-05
sS'exec_cq'
p122
I4
sS'total_cq'
p123
I8
sasS'total_cqs'
p124
I8
ssI14
(dp125
S'iters'
p126
I1
sS'meta'
p127
(lp128
(dp129
S'objective'
p130
I7
sS'query_time'
p131
F1.1535711288452148
sS'comp_time'
p132
F7.987022399902344e-05
sS'exec_cq'
p133
I2
sS'total_cq'
p134
I5
sasS'total_cqs'
p135
I5
ssI16
(dp136
S'iters'
p137
I2
sS'meta'
p138
(lp139
(dp140
S'objective'
p141
I5
sS'query_time'
p142
F1.6868739128112793
sS'comp_time'
p143
F7.677078247070312e-05
sS'exec_cq'
p144
I1
sS'total_cq'
p145
I5
sa(dp146
g141
I2
sg142
F0.06144309043884277
sg143
F5.6743621826171875e-05
sg144
I1
sg145
I4
sasS'total_cqs'
p147
I5
ssI17
(dp148
S'iters'
p149
I0
sS'meta'
p150
(lp151
sS'total_cqs'
p152
I1
ssI18
(dp153
S'iters'
p154
I2
sS'meta'
p155
(lp156
(dp157
S'objective'
p158
I1
sS'query_time'
p159
F2.306978940963745
sS'comp_time'
p160
F9.775161743164062e-05
sS'exec_cq'
p161
I1
sS'total_cq'
p162
I5
sa(dp163
g158
I0
sg159
F0.07372307777404785
sg160
F8.678436279296875e-05
sg161
I1
sg162
I3
sasS'total_cqs'
p164
I5
ssI19
(dp165
S'iters'
p166
I0
sS'meta'
p167
(lp168
sS'total_cqs'
p169
I1
ssI20
(dp170
S'iters'
p171
I4
sS'meta'
p172
(lp173
(dp174
S'objective'
p175
I54
sS'query_time'
p176
F8.33274793624878
sS'comp_time'
p177
F0.00043511390686035156
sS'exec_cq'
p178
I1
sS'total_cq'
p179
I12
sa(dp180
g175
I44
sg176
F4.858908176422119
sg177
F0.00016379356384277344
sg178
I1
sg179
I11
sa(dp181
g175
I27
sg176
F0.014410972595214844
sg177
F7.796287536621094e-05
sg178
I1
sg179
I10
sa(dp182
g175
I27
sg176
F0.10679006576538086
sg177
F7.486343383789062e-05
sg178
I3
sg179
I8
sasS'total_cqs'
p183
I12
ssI21
(dp184
S'iters'
p185
I5
sS'meta'
p186
(lp187
(dp188
S'objective'
p189
I51
sS'query_time'
p190
F20.562140941619873
sS'comp_time'
p191
F9.799003601074219e-05
sS'exec_cq'
p192
I2
sS'total_cq'
p193
I14
sa(dp194
g189
I32
sg190
F21.229886054992676
sg191
F0.00016880035400390625
sg192
I2
sg193
I12
sa(dp195
g189
I35
sg190
F8.772490978240967
sg191
F0.00047087669372558594
sg192
I1
sg193
I10
sa(dp196
g189
I21
sg190
F0.08239197731018066
sg191
F6.103515625e-05
sg192
I1
sg193
I9
sa(dp197
g189
I17
sg190
F0.014167070388793945
sg191
F0.00010180473327636719
sg192
I1
sg193
I7
sasS'total_cqs'
p198
I14
ssI22
(dp199
S'iters'
p200
I1
sS'meta'
p201
(lp202
(dp203
S'objective'
p204
I1
sS'query_time'
p205
F0.004076957702636719
sS'comp_time'
p206
F6.4849853515625e-05
sS'exec_cq'
p207
I1
sS'total_cq'
p208
I2
sasS'total_cqs'
p209
I2
ssI23
(dp210
S'iters'
p211
I0
sS'meta'
p212
(lp213
sS'total_cqs'
p214
I1
ssI24
(dp215
S'iters'
p216
I0
sS'meta'
p217
(lp218
sS'total_cqs'
p219
I1
ssI25
(dp220
S'iters'
p221
I2
sS'meta'
p222
(lp223
(dp224
S'objective'
p225
I16
sS'query_time'
p226
F32.73393511772156
sS'comp_time'
p227
F0.00017213821411132812
sS'exec_cq'
p228
I2
sS'total_cq'
p229
I7
sa(dp230
g225
I12
sg226
F0.16371798515319824
sg227
F7.891654968261719e-05
sg228
I2
sg229
I6
sasS'total_cqs'
p231
I7
ssI26
(dp232
S'iters'
p233
I6
sS'meta'
p234
(lp235
(dp236
S'objective'
p237
I65
sS'query_time'
p238
F0.0341799259185791
sS'comp_time'
p239
F8.106231689453125e-05
sS'exec_cq'
p240
I1
sS'total_cq'
p241
I13
sa(dp242
g237
I54
sg238
F0.04360604286193848
sg239
F8.893013000488281e-05
sg240
I1
sg241
I12
sa(dp243
g237
I44
sg238
F6.390904903411865
sg239
F0.00015091896057128906
sg240
I1
sg241
I11
sa(dp244
g237
I25
sg238
F0.30457615852355957
sg239
F0.00010204315185546875
sg240
I1
sg241
I10
sa(dp245
g237
I22
sg238
F17.88758897781372
sg239
F0.00045609474182128906
sg240
I1
sg241
I8
sa(dp246
g237
I15
sg238
F0.005085945129394531
sg239
F5.2928924560546875e-05
sg240
I1
sg241
I7
sasS'total_cqs'
p247
I13
ssI27
(dp248
S'iters'
p249
I1
sS'meta'
p250
(lp251
(dp252
S'objective'
p253
I1
sS'query_time'
p254
F0.3769040107727051
sS'comp_time'
p255
F0.00010800361633300781
sS'exec_cq'
p256
I1
sS'total_cq'
p257
I2
sasS'total_cqs'
p258
I2
ssI28
(dp259
S'iters'
p260
I6
sS'meta'
p261
(lp262
(dp263
S'objective'
p264
I77
sS'query_time'
p265
F1.5543029308319092
sS'comp_time'
p266
F0.0001380443572998047
sS'exec_cq'
p267
I1
sS'total_cq'
p268
I14
sa(dp269
g264
I65
sg265
F1.2937190532684326
sg266
F9.775161743164062e-05
sg267
I1
sg268
I13
sa(dp270
g264
I54
sg265
F1.0560188293457031
sg266
F9.417533874511719e-05
sg267
I1
sg268
I12
sa(dp271
g264
I44
sg265
F0.8411531448364258
sg266
F0.00010013580322265625
sg267
I1
sg268
I11
sa(dp272
g264
I5
sg265
F0.8996810913085938
sg266
F9.202957153320312e-05
sg267
I1
sg268
I10
sa(dp273
g264
I14
sg265
F0.3801870346069336
sg266
F0.0001049041748046875
sg267
I1
sg268
I7
sasS'total_cqs'
p274
I14
ssI29
(dp275
S'iters'
p276
I1
sS'meta'
p277
(lp278
(dp279
S'objective'
p280
I1
sS'query_time'
p281
F0.00465083122253418
sS'comp_time'
p282
F6.198883056640625e-05
sS'exec_cq'
p283
I1
sS'total_cq'
p284
I2
sasS'total_cqs'
p285
I2
ssI30
(dp286
S'iters'
p287
I1
sS'meta'
p288
(lp289
(dp290
S'objective'
p291
I1
sS'query_time'
p292
F0.4011530876159668
sS'comp_time'
p293
F7.271766662597656e-05
sS'exec_cq'
p294
I1
sS'total_cq'
p295
I2
sasS'total_cqs'
p296
I2
ssI31
(dp297
S'iters'
p298
I3
sS'meta'
p299
(lp300
(dp301
S'objective'
p302
I11
sS'query_time'
p303
F3.871570110321045
sS'comp_time'
p304
F9.012222290039062e-05
sS'exec_cq'
p305
I1
sS'total_cq'
p306
I9
sa(dp307
g302
I14
sg303
F0.33292388916015625
sg304
F6.794929504394531e-05
sg305
I1
sg306
I7
sa(dp308
g302
I9
sg303
F0.30377697944641113
sg304
F0.00010180473327636719
sg305
I1
sg306
I6
sasS'total_cqs'
p309
I9
ssI32
(dp310
S'iters'
p311
I3
sS'meta'
p312
(lp313
(dp314
S'objective'
p315
I12
sS'query_time'
p316
F3.5068819522857666
sS'comp_time'
p317
F9.799003601074219e-05
sS'exec_cq'
p318
I1
sS'total_cq'
p319
I7
sa(dp320
g315
I8
sg316
F1.9735798835754395
sg317
F0.0003306865692138672
sg318
I1
sg319
I5
sa(dp321
g315
I4
sg316
F0.11905884742736816
sg317
F6.890296936035156e-05
sg318
I1
sg319
I4
sasS'total_cqs'
p322
I7
ssI33
(dp323
S'iters'
p324
I1
sS'meta'
p325
(lp326
(dp327
S'objective'
p328
I1
sS'query_time'
p329
F0.03995990753173828
sS'comp_time'
p330
F8.296966552734375e-05
sS'exec_cq'
p331
I1
sS'total_cq'
p332
I2
sasS'total_cqs'
p333
I2
ssI34
(dp334
S'iters'
p335
I0
sS'meta'
p336
(lp337
sS'total_cqs'
p338
I1
ssI35
(dp339
S'iters'
p340
I2
sS'meta'
p341
(lp342
(dp343
S'objective'
p344
I5
sS'query_time'
p345
F5.1907830238342285
sS'comp_time'
p346
F0.00010704994201660156
sS'exec_cq'
p347
I1
sS'total_cq'
p348
I5
sa(dp349
g344
I2
sg345
F0.8206868171691895
sg346
F0.00014710426330566406
sg347
I1
sg348
I3
sasS'total_cqs'
p350
I5
ssI37
(dp351
S'iters'
p352
I5
sS'meta'
p353
(lp354
(dp355
S'objective'
p356
I35
sS'query_time'
p357
F0.010144948959350586
sS'comp_time'
p358
F8.392333984375e-05
sS'exec_cq'
p359
I1
sS'total_cq'
p360
I10
sa(dp361
g356
I27
sg357
F0.6459438800811768
sg358
F9.012222290039062e-05
sg359
I1
sg360
I9
sa(dp362
g356
I20
sg357
F0.006350994110107422
sg358
F6.29425048828125e-05
sg359
I1
sg360
I8
sa(dp363
g356
I14
sg357
F0.34571003913879395
sg358
F8.821487426757812e-05
sg359
I1
sg360
I7
sa(dp364
g356
I9
sg357
F0.3116331100463867
sg358
F7.605552673339844e-05
sg359
I1
sg360
I6
sasS'total_cqs'
p365
I10
ssI38
(dp366
S'iters'
p367
I0
sS'meta'
p368
(lp369
sS'total_cqs'
p370
I1
ssI39
(dp371
S'iters'
p372
I0
sS'meta'
p373
(lp374
sS'total_cqs'
p375
I1
ssI40
(dp376
S'iters'
p377
I1
sS'meta'
p378
(lp379
(dp380
S'objective'
p381
I1
sS'query_time'
p382
F16.98295497894287
sS'comp_time'
p383
F0.00029587745666503906
sS'exec_cq'
p384
I2
sS'total_cq'
p385
I2
sasS'total_cqs'
p386
I2
ssI41
(dp387
S'iters'
p388
I3
sS'meta'
p389
(lp390
(dp391
S'objective'
p392
I9
sS'query_time'
p393
F1.7916228771209717
sS'comp_time'
p394
F8.392333984375e-05
sS'exec_cq'
p395
I1
sS'total_cq'
p396
I6
sa(dp397
g392
I5
sg393
F1.9315600395202637
sg394
F0.0007119178771972656
sg395
I1
sg396
I5
sa(dp398
g392
I2
sg393
F0.08993101119995117
sg394
F7.987022399902344e-05
sg395
I1
sg396
I4
sasS'total_cqs'
p399
I6
ssI42
(dp400
S'iters'
p401
I1
sS'meta'
p402
(lp403
(dp404
S'objective'
p405
I1
sS'query_time'
p406
F0.01041412353515625
sS'comp_time'
p407
F6.699562072753906e-05
sS'exec_cq'
p408
I1
sS'total_cq'
p409
I2
sasS'total_cqs'
p410
I2
ssI43
(dp411
S'iters'
p412
I0
sS'meta'
p413
(lp414
sS'total_cqs'
p415
I1
ssI44
(dp416
S'iters'
p417
I2
sS'meta'
p418
(lp419
(dp420
S'objective'
p421
I1
sS'query_time'
p422
F3.5799200534820557
sS'comp_time'
p423
F7.605552673339844e-05
sS'exec_cq'
p424
I1
sS'total_cq'
p425
I5
sa(dp426
g421
I0
sg422
F0.003216981887817383
sg423
F4.410743713378906e-05
sg424
I1
sg425
I3
sasS'total_cqs'
p427
I5
ssI45
(dp428
S'iters'
p429
I2
sS'meta'
p430
(lp431
(dp432
S'objective'
p433
I3
sS'query_time'
p434
F0.046031951904296875
sS'comp_time'
p435
F0.000102996826171875
sS'exec_cq'
p436
I2
sS'total_cq'
p437
I5
sa(dp438
g433
I2
sg434
F0.729295015335083
sg435
F0.00010013580322265625
sg436
I2
sg437
I2
sasS'total_cqs'
p439
I5
ssI46
(dp440
S'iters'
p441
I0
sS'meta'
p442
(lp443
sS'total_cqs'
p444
I1
ssI47
(dp445
S'iters'
p446
I0
sS'meta'
p447
(lp448
sS'total_cqs'
p449
I1
ssI48
(dp450
S'iters'
p451
I1
sS'meta'
p452
(lp453
(dp454
S'objective'
p455
I1
sS'query_time'
p456
F0.14713287353515625
sS'comp_time'
p457
F9.202957153320312e-05
sS'exec_cq'
p458
I1
sS'total_cq'
p459
I2
sasS'total_cqs'
p460
I2
ssI49
(dp461
S'iters'
p462
I2
sS'meta'
p463
(lp464
(dp465
S'objective'
p466
I3
sS'query_time'
p467
F3.9946889877319336
sS'comp_time'
p468
F7.891654968261719e-05
sS'exec_cq'
p469
I1
sS'total_cq'
p470
I5
sa(dp471
g466
I1
sg467
F0.017663002014160156
sg468
F6.818771362304688e-05
sg469
I1
sg470
I3
sasS'total_cqs'
p472
I5
ssI50
(dp473
S'iters'
p474
I2
sS'meta'
p475
(lp476
(dp477
S'objective'
p478
I5
sS'query_time'
p479
F0.008601903915405273
sS'comp_time'
p480
F7.081031799316406e-05
sS'exec_cq'
p481
I1
sS'total_cq'
p482
I5
sa(dp483
g478
I2
sg479
F0.9483799934387207
sg480
F8.797645568847656e-05
sg481
I1
sg482
I4
sasS'total_cqs'
p484
I5
ssI51
(dp485
S'iters'
p486
I0
sS'meta'
p487
(lp488
sS'total_cqs'
p489
I1
ssI52
(dp490
S'iters'
p491
I0
sS'meta'
p492
(lp493
sS'total_cqs'
p494
I1
ssI53
(dp495
S'iters'
p496
I0
sS'meta'
p497
(lp498
sS'total_cqs'
p499
I1
ssI55
(dp500
S'iters'
p501
I1
sS'meta'
p502
(lp503
(dp504
S'objective'
p505
I1
sS'query_time'
p506
F22.941164016723633
sS'comp_time'
p507
F0.00014209747314453125
sS'exec_cq'
p508
I1
sS'total_cq'
p509
I2
sasS'total_cqs'
p510
I2
ssI56
(dp511
S'iters'
p512
I0
sS'meta'
p513
(lp514
sS'total_cqs'
p515
I1
ssI57
(dp516
S'iters'
p517
I1
sS'meta'
p518
(lp519
(dp520
S'objective'
p521
I0
sS'query_time'
p522
F13.827873945236206
sS'comp_time'
p523
F0.00017905235290527344
sS'exec_cq'
p524
I1
sS'total_cq'
p525
I3
sasS'total_cqs'
p526
I3
ssI108
(dp527
S'iters'
p528
I0
sS'meta'
p529
(lp530
sS'total_cqs'
p531
I1
ssI109
(dp532
S'iters'
p533
I0
sS'meta'
p534
(lp535
sS'total_cqs'
p536
I1
ssI116
(dp537
S'iters'
p538
I4
sS'meta'
p539
(lp540
(dp541
S'objective'
p542
I189
sS'query_time'
p543
F0.15134906768798828
sS'comp_time'
p544
F0.000102996826171875
sS'exec_cq'
p545
I1
sS'total_cq'
p546
I21
sa(dp547
g542
I170
sg543
F1.1847560405731201
sg544
F0.00010704994201660156
sg545
I1
sg546
I20
sa(dp548
g542
I160
sg543
F0.14402103424072266
sg544
F9.107589721679688e-05
sg545
I5
sg546
I19
sa(dp549
g542
I151
sg543
F0.20063185691833496
sg544
F0.00015282630920410156
sg545
I7
sg546
I18
sasS'total_cqs'
p550
I21
ssI117
(dp551
S'iters'
p552
I1
sS'meta'
p553
(lp554
(dp555
S'objective'
p556
I7
sS'query_time'
p557
F0.0084381103515625
sS'comp_time'
p558
F7.605552673339844e-05
sS'exec_cq'
p559
I2
sS'total_cq'
p560
I5
sasS'total_cqs'
p561
I5
ssI118
(dp562
S'iters'
p563
I0
sS'meta'
p564
(lp565
sS'total_cqs'
p566
I1
ssI122
(dp567
S'iters'
p568
I0
sS'meta'
p569
(lp570
sS'total_cqs'
p571
I1
ss.