(dp0
I1
(dp1
S'iters'
p2
I4
sS'meta'
p3
(lp4
(dp5
S'objective'
p6
I5
sS'query_time'
p7
F16.25707697868347
sS'comp_time'
p8
F0.00021195411682128906
sS'exec_cq'
p9
I1
sS'total_cq'
p10
I6
sa(dp11
g6
I3
sg7
F11.713804960250854
sg8
F0.00017905235290527344
sg9
I1
sg10
I4
sa(dp12
g6
I0
sg7
F0.0042378902435302734
sg8
F3.600120544433594e-05
sg9
I1
sg10
I3
sa(dp13
g6
I2
sg7
F0.488828182220459
sg8
F7.009506225585938e-05
sg9
I1
sg10
I2
sasS'total_cqs'
p14
I6
ssI2
(dp15
S'iters'
p16
I1
sS'meta'
p17
(lp18
(dp19
S'objective'
p20
I15
sS'query_time'
p21
F0.7159500122070312
sS'comp_time'
p22
F7.510185241699219e-05
sS'exec_cq'
p23
I4
sS'total_cq'
p24
I6
sasS'total_cqs'
p25
I6
ssI3
(dp26
S'iters'
p27
I17
sS'meta'
p28
(lp29
(dp30
S'objective'
p31
I495
sS'query_time'
p32
F0.7880580425262451
sS'comp_time'
p33
F9.703636169433594e-05
sS'exec_cq'
p34
I1
sS'total_cq'
p35
I33
sa(dp36
g31
I446
sg32
F0.017303943634033203
sg33
F4.38690185546875e-05
sg34
I1
sg35
I32
sa(dp37
g31
I425
sg32
F0.007622957229614258
sg33
F4.291534423828125e-05
sg34
I1
sg35
I30
sa(dp38
g31
I368
sg32
F0.01632094383239746
sg33
F0.00013208389282226562
sg34
I1
sg35
I29
sa(dp39
g31
I316
sg32
F0.021857023239135742
sg33
F4.506111145019531e-05
sg34
I1
sg35
I26
sa(dp40
g31
I244
sg32
F0.0167238712310791
sg33
F9.393692016601562e-05
sg34
I1
sg35
I24
sa(dp41
g31
I250
sg32
F6.886084079742432
sg33
F8.893013000488281e-05
sg34
I1
sg35
I21
sa(dp42
g31
I213
sg32
F0.2582211494445801
sg33
F0.00011491775512695312
sg34
I1
sg35
I20
sa(dp43
g31
I153
sg32
F0.014380216598510742
sg33
F4.410743713378906e-05
sg34
I1
sg35
I18
sa(dp44
g31
I153
sg32
F0.0034160614013671875
sg33
F3.886222839355469e-05
sg34
I1
sg35
I16
sa(dp45
g31
I102
sg32
F0.0797719955444336
sg33
F5.91278076171875e-05
sg34
I1
sg35
I15
sa(dp46
g31
I99
sg32
F0.03179001808166504
sg33
F8.511543273925781e-05
sg34
I1
sg35
I13
sa(dp47
g31
I83
sg32
F0.008439064025878906
sg33
F4.291534423828125e-05
sg34
I1
sg35
I12
sa(dp48
g31
I67
sg32
F0.035523176193237305
sg33
F5.602836608886719e-05
sg34
I1
sg35
I11
sa(dp49
g31
I54
sg32
F0.005605936050415039
sg33
F3.314018249511719e-05
sg34
I1
sg35
I10
sa(dp50
g31
I1
sg32
F0.7643611431121826
sg33
F0.00011897087097167969
sg34
I1
sg35
I9
sa(dp51
g31
I15
sg32
F0.1698589324951172
sg33
F7.796287536621094e-05
sg34
I2
sg35
I6
sasS'total_cqs'
p52
I33
ssI4
(dp53
S'iters'
p54
I0
sS'meta'
p55
(lp56
sS'total_cqs'
p57
I1
ssI5
(dp58
S'iters'
p59
I0
sS'meta'
p60
(lp61
sS'total_cqs'
p62
I1
ssI6
(dp63
S'iters'
p64
I3
sS'meta'
p65
(lp66
(dp67
S'objective'
p68
I9
sS'query_time'
p69
F11.606097936630249
sS'comp_time'
p70
F7.700920104980469e-05
sS'exec_cq'
p71
I1
sS'total_cq'
p72
I5
sa(dp73
g68
I2
sg69
F0.04256582260131836
sg70
F2.8848648071289062e-05
sg71
I1
sg72
I3
sa(dp74
g68
I1
sg69
F5.322529077529907
sg70
F7.104873657226562e-05
sg71
I1
sg72
I2
sasS'total_cqs'
p75
I5
ssI7
(dp76
S'iters'
p77
I0
sS'meta'
p78
(lp79
sS'total_cqs'
p80
I1
ssI8
(dp81
S'iters'
p82
I3
sS'meta'
p83
(lp84
(dp85
S'objective'
p86
I1
sS'query_time'
p87
F22.08804488182068
sS'comp_time'
p88
F6.4849853515625e-05
sS'exec_cq'
p89
I1
sS'total_cq'
p90
I6
sa(dp91
g86
I2
sg87
F20.015767097473145
sg88
F6.29425048828125e-05
sg89
I1
sg90
I4
sa(dp92
g86
I0
sg87
F27.7413330078125
sg88
F0.00020503997802734375
sg89
I1
sg90
I3
sasS'total_cqs'
p93
I6
ssI9
(dp94
S'iters'
p95
I5
sS'meta'
p96
(lp97
(dp98
S'objective'
p99
I9
sS'query_time'
p100
F20.05761408805847
sS'comp_time'
p101
F0.00010585784912109375
sS'exec_cq'
p102
I1
sS'total_cq'
p103
I6
sa(dp104
g99
I5
sg100
F17.924885034561157
sg101
F0.000308990478515625
sg102
I1
sg103
I5
sa(dp105
g99
I2
sg100
F0.007384061813354492
sg101
F4.482269287109375e-05
sg102
I1
sg103
I4
sa(dp106
g99
I4
sg100
F2.5218851566314697
sg101
F7.009506225585938e-05
sg102
I1
sg103
I3
sa(dp107
g99
I1
sg100
F2.7455639839172363
sg101
F5.984306335449219e-05
sg102
I1
sg103
I2
sasS'total_cqs'
p108
I6
ssI10
(dp109
S'iters'
p110
I0
sS'meta'
p111
(lp112
sS'total_cqs'
p113
I1
ssI11
(dp114
S'iters'
p115
I0
sS'meta'
p116
(lp117
sS'total_cqs'
p118
I1
ssI12
(dp119
S'iters'
p120
I0
sS'meta'
p121
(lp122
sS'total_cqs'
p123
I1
ssI13
(dp124
S'iters'
p125
I2
sS'meta'
p126
(lp127
(dp128
S'objective'
p129
I28
sS'query_time'
p130
F9.272779941558838
sS'comp_time'
p131
F5.1975250244140625e-05
sS'exec_cq'
p132
I5
sS'total_cq'
p133
I8
sa(dp134
g129
I26
sg130
F0.0691690444946289
sg131
F3.600120544433594e-05
sg132
I5
sg133
I7
sasS'total_cqs'
p135
I8
ssI14
(dp136
S'iters'
p137
I2
sS'meta'
p138
(lp139
(dp140
S'objective'
p141
I7
sS'query_time'
p142
F0.23496484756469727
sS'comp_time'
p143
F7.319450378417969e-05
sS'exec_cq'
p144
I2
sS'total_cq'
p145
I5
sa(dp146
g141
I5
sg142
F0.9863319396972656
sg143
F9.512901306152344e-05
sg144
I2
sg145
I4
sasS'total_cqs'
p147
I5
ssI16
(dp148
S'iters'
p149
I3
sS'meta'
p150
(lp151
(dp152
S'objective'
p153
I3
sS'query_time'
p154
F7.546210050582886
sS'comp_time'
p155
F8.20159912109375e-05
sS'exec_cq'
p156
I1
sS'total_cq'
p157
I5
sa(dp158
g153
I1
sg154
F0.04662013053894043
sg155
F8.487701416015625e-05
sg156
I1
sg157
I3
sa(dp159
g153
I1
sg154
F0.04256892204284668
sg155
F8.106231689453125e-05
sg156
I1
sg157
I2
sasS'total_cqs'
p160
I5
ssI17
(dp161
S'iters'
p162
I0
sS'meta'
p163
(lp164
sS'total_cqs'
p165
I1
ssI18
(dp166
S'iters'
p167
I3
sS'meta'
p168
(lp169
(dp170
S'objective'
p171
I5
sS'query_time'
p172
F0.09392690658569336
sS'comp_time'
p173
F6.008148193359375e-05
sS'exec_cq'
p174
I1
sS'total_cq'
p175
I5
sa(dp176
g171
I2
sg172
F0.19799399375915527
sg173
F7.486343383789062e-05
sg174
I1
sg175
I4
sa(dp177
g171
I0
sg172
F0.040316104888916016
sg173
F4.696846008300781e-05
sg174
I1
sg175
I3
sasS'total_cqs'
p178
I5
ssI19
(dp179
S'iters'
p180
I0
sS'meta'
p181
(lp182
sS'total_cqs'
p183
I1
ssI20
(dp184
S'iters'
p185
I7
sS'meta'
p186
(lp187
(dp188
S'objective'
p189
I54
sS'query_time'
p190
F1.3365840911865234
sS'comp_time'
p191
F7.891654968261719e-05
sS'exec_cq'
p192
I1
sS'total_cq'
p193
I12
sa(dp194
g189
I44
sg190
F5.498205184936523
sg191
F0.00012993812561035156
sg192
I1
sg193
I11
sa(dp195
g189
I35
sg190
F4.290663003921509
sg191
F0.0002951622009277344
sg192
I1
sg193
I10
sa(dp196
g189
I29
sg190
F0.847294807434082
sg191
F7.319450378417969e-05
sg192
I2
sg193
I9
sa(dp197
g189
I25
sg190
F0.4375479221343994
sg191
F3.695487976074219e-05
sg192
I3
sg193
I8
sa(dp198
g189
I21
sg190
F0.005354881286621094
sg191
F7.891654968261719e-05
sg192
I3
sg193
I7
sa(dp199
g189
I18
sg190
F0.1009819507598877
sg191
F6.508827209472656e-05
sg192
I3
sg193
I6
sasS'total_cqs'
p200
I12
ssI21
(dp201
S'iters'
p202
I7
sS'meta'
p203
(lp204
(dp205
S'objective'
p206
I77
sS'query_time'
p207
F24.054147005081177
sS'comp_time'
p208
F0.0001361370086669922
sS'exec_cq'
p209
I1
sS'total_cq'
p210
I14
sa(dp211
g206
I51
sg207
F1.8819708824157715
sg208
F6.318092346191406e-05
sg209
I1
sg210
I13
sa(dp212
g206
I21
sg207
F0.09748101234436035
sg208
F8.082389831542969e-05
sg209
I1
sg210
I9
sa(dp213
g206
I24
sg207
F0.2709197998046875
sg208
F7.700920104980469e-05
sg209
I1
sg210
I6
sa(dp214
g206
I15
sg207
F26.568982124328613
sg208
F0.00023818016052246094
sg209
I1
sg210
I5
sa(dp215
g206
I9
sg207
F0.4307441711425781
sg208
F6.604194641113281e-05
sg209
I1
sg210
I4
sa(dp216
g206
I2
sg207
F0.011126041412353516
sg208
F5.91278076171875e-05
sg209
I1
sg210
I2
sasS'total_cqs'
p217
I14
ssI22
(dp218
S'iters'
p219
I1
sS'meta'
p220
(lp221
(dp222
S'objective'
p223
I1
sS'query_time'
p224
F0.004659891128540039
sS'comp_time'
p225
F6.103515625e-05
sS'exec_cq'
p226
I1
sS'total_cq'
p227
I2
sasS'total_cqs'
p228
I2
ssI23
(dp229
S'iters'
p230
I0
sS'meta'
p231
(lp232
sS'total_cqs'
p233
I1
ssI24
(dp234
S'iters'
p235
I0
sS'meta'
p236
(lp237
sS'total_cqs'
p238
I1
ssI25
(dp239
S'iters'
p240
I4
sS'meta'
p241
(lp242
(dp243
S'objective'
p244
I6
sS'query_time'
p245
F3.7440710067749023
sS'comp_time'
p246
F8.296966552734375e-05
sS'exec_cq'
p247
I1
sS'total_cq'
p248
I7
sa(dp249
g244
I5
sg245
F24.974618196487427
sg246
F0.0001068115234375
sg247
I1
sg248
I5
sa(dp250
g244
I1
sg245
F24.255043029785156
sg246
F0.00015807151794433594
sg247
I1
sg248
I4
sa(dp251
g244
I0
sg245
F0.14104390144348145
sg246
F7.104873657226562e-05
sg247
I1
sg248
I3
sasS'total_cqs'
p252
I7
ssI26
(dp253
S'iters'
p254
I8
sS'meta'
p255
(lp256
(dp257
S'objective'
p258
I65
sS'query_time'
p259
F20.716020822525024
sS'comp_time'
p260
F0.00014901161193847656
sS'exec_cq'
p261
I1
sS'total_cq'
p262
I13
sa(dp263
g258
I54
sg259
F0.032238006591796875
sg260
F7.104873657226562e-05
sg261
I1
sg262
I12
sa(dp264
g258
I44
sg259
F0.03978085517883301
sg260
F4.100799560546875e-05
sg261
I1
sg262
I11
sa(dp265
g258
I17
sg259
F1.2359960079193115
sg260
F8.20159912109375e-05
sg261
I1
sg262
I10
sa(dp266
g258
I20
sg259
F0.054296016693115234
sg260
F5.1021575927734375e-05
sg261
I1
sg262
I8
sa(dp267
g258
I14
sg259
F0.03273200988769531
sg260
F3.695487976074219e-05
sg261
I1
sg262
I7
sa(dp268
g258
I7
sg259
F0.4266340732574463
sg260
F3.695487976074219e-05
sg261
I1
sg262
I6
sa(dp269
g258
I4
sg259
F0.0025980472564697266
sg260
F3.314018249511719e-05
sg261
I1
sg262
I4
sasS'total_cqs'
p270
I13
ssI27
(dp271
S'iters'
p272
I1
sS'meta'
p273
(lp274
(dp275
S'objective'
p276
I1
sS'query_time'
p277
F0.39072418212890625
sS'comp_time'
p278
F7.700920104980469e-05
sS'exec_cq'
p279
I1
sS'total_cq'
p280
I2
sasS'total_cqs'
p281
I2
ssI28
(dp282
S'iters'
p283
I7
sS'meta'
p284
(lp285
(dp286
S'objective'
p287
I77
sS'query_time'
p288
F1.6046710014343262
sS'comp_time'
p289
F5.2928924560546875e-05
sS'exec_cq'
p290
I1
sS'total_cq'
p291
I14
sa(dp292
g287
I3
sg288
F1.7302789688110352
sg289
F4.9114227294921875e-05
sg290
I1
sg291
I13
sa(dp293
g287
I21
sg288
F0.7463898658752441
sg289
F3.4809112548828125e-05
sg290
I1
sg291
I8
sa(dp294
g287
I16
sg288
F0.4980039596557617
sg289
F5.602836608886719e-05
sg290
I1
sg291
I6
sa(dp295
g287
I9
sg288
F0.4127779006958008
sg289
F3.600120544433594e-05
sg290
I1
sg291
I5
sa(dp296
g287
I5
sg288
F0.4044067859649658
sg289
F8.20159912109375e-05
sg290
I1
sg291
I4
sa(dp297
g287
I1
sg288
F0.2547938823699951
sg289
F3.600120544433594e-05
sg290
I1
sg291
I3
sasS'total_cqs'
p298
I14
ssI29
(dp299
S'iters'
p300
I1
sS'meta'
p301
(lp302
(dp303
S'objective'
p304
I1
sS'query_time'
p305
F0.0051860809326171875
sS'comp_time'
p306
F4.696846008300781e-05
sS'exec_cq'
p307
I1
sS'total_cq'
p308
I2
sasS'total_cqs'
p309
I2
ssI30
(dp310
S'iters'
p311
I1
sS'meta'
p312
(lp313
(dp314
S'objective'
p315
I1
sS'query_time'
p316
F0.419266939163208
sS'comp_time'
p317
F6.794929504394531e-05
sS'exec_cq'
p318
I1
sS'total_cq'
p319
I2
sasS'total_cqs'
p320
I2
ssI31
(dp321
S'iters'
p322
I5
sS'meta'
p323
(lp324
(dp325
S'objective'
p326
I27
sS'query_time'
p327
F0.012840986251831055
sS'comp_time'
p328
F5.0067901611328125e-05
sS'exec_cq'
p329
I1
sS'total_cq'
p330
I9
sa(dp331
g326
I18
sg327
F1.0356559753417969
sg328
F6.890296936035156e-05
sg329
I1
sg330
I8
sa(dp332
g326
I3
sg327
F3.6387460231781006
sg328
F4.1961669921875e-05
sg329
I1
sg330
I6
sa(dp333
g326
I3
sg327
F6.311844110488892
sg328
F9.393692016601562e-05
sg329
I1
sg330
I4
sa(dp334
g326
I1
sg327
F0.3355739116668701
sg328
F6.794929504394531e-05
sg329
I1
sg330
I3
sasS'total_cqs'
p335
I9
ssI32
(dp336
S'iters'
p337
I5
sS'meta'
p338
(lp339
(dp340
S'objective'
p341
I10
sS'query_time'
p342
F1.7381041049957275
sS'comp_time'
p343
F7.414817810058594e-05
sS'exec_cq'
p344
I1
sS'total_cq'
p345
I7
sa(dp346
g341
I7
sg342
F2.1749660968780518
sg343
F0.0004210472106933594
sg344
I1
sg345
I5
sa(dp347
g341
I3
sg342
F8.75586199760437
sg343
F0.00014901161193847656
sg344
I1
sg345
I4
sa(dp348
g341
I0
sg342
F1.5552189350128174
sg343
F0.00036907196044921875
sg344
I1
sg345
I3
sa(dp349
g341
I2
sg342
F0.08452105522155762
sg343
F6.794929504394531e-05
sg344
I1
sg345
I2
sasS'total_cqs'
p350
I7
ssI33
(dp351
S'iters'
p352
I1
sS'meta'
p353
(lp354
(dp355
S'objective'
p356
I1
sS'query_time'
p357
F0.036585092544555664
sS'comp_time'
p358
F7.82012939453125e-05
sS'exec_cq'
p359
I1
sS'total_cq'
p360
I2
sasS'total_cqs'
p361
I2
ssI34
(dp362
S'iters'
p363
I0
sS'meta'
p364
(lp365
sS'total_cqs'
p366
I1
ssI35
(dp367
S'iters'
p368
I2
sS'meta'
p369
(lp370
(dp371
S'objective'
p372
I3
sS'query_time'
p373
F10.890751123428345
sS'comp_time'
p374
F6.890296936035156e-05
sS'exec_cq'
p375
I1
sS'total_cq'
p376
I5
sa(dp377
g372
I0
sg373
F0.04962897300720215
sg374
F7.295608520507812e-05
sg375
I1
sg376
I3
sasS'total_cqs'
p378
I5
ssI37
(dp379
S'iters'
p380
I7
sS'meta'
p381
(lp382
(dp383
S'objective'
p384
I35
sS'query_time'
p385
F0.7964699268341064
sS'comp_time'
p386
F0.00010085105895996094
sS'exec_cq'
p387
I1
sS'total_cq'
p388
I10
sa(dp389
g384
I27
sg385
F0.0069561004638671875
sg386
F4.291534423828125e-05
sg387
I1
sg388
I9
sa(dp390
g384
I20
sg385
F0.005769014358520508
sg386
F4.1961669921875e-05
sg387
I1
sg388
I8
sa(dp391
g384
I14
sg385
F0.004866838455200195
sg386
F3.981590270996094e-05
sg387
I1
sg388
I7
sa(dp392
g384
I9
sg385
F0.6547369956970215
sg386
F7.796287536621094e-05
sg387
I1
sg388
I6
sa(dp393
g384
I3
sg385
F8.781075954437256
sg386
F7.414817810058594e-05
sg387
I1
sg388
I5
sa(dp394
g384
I1
sg385
F0.0023779869079589844
sg386
F4.601478576660156e-05
sg387
I1
sg388
I2
sasS'total_cqs'
p395
I10
ssI38
(dp396
S'iters'
p397
I0
sS'meta'
p398
(lp399
sS'total_cqs'
p400
I1
ssI39
(dp401
S'iters'
p402
I0
sS'meta'
p403
(lp404
sS'total_cqs'
p405
I1
ssI40
(dp406
S'iters'
p407
I1
sS'meta'
p408
(lp409
(dp410
S'objective'
p411
I1
sS'query_time'
p412
F18.30376100540161
sS'comp_time'
p413
F0.00044417381286621094
sS'exec_cq'
p414
I2
sS'total_cq'
p415
I2
sasS'total_cqs'
p416
I2
ssI41
(dp417
S'iters'
p418
I4
sS'meta'
p419
(lp420
(dp421
S'objective'
p422
I9
sS'query_time'
p423
F0.3259108066558838
sS'comp_time'
p424
F8.702278137207031e-05
sS'exec_cq'
p425
I1
sS'total_cq'
p426
I6
sa(dp427
g422
I3
sg423
F9.775668859481812
sg424
F0.00010013580322265625
sg425
I1
sg426
I5
sa(dp428
g422
I1
sg423
F0.960716962814331
sg424
F6.604194641113281e-05
sg425
I1
sg426
I3
sa(dp429
g422
I1
sg423
F0.05031585693359375
sg424
F0.00010180473327636719
sg425
I1
sg426
I2
sasS'total_cqs'
p430
I6
ssI42
(dp431
S'iters'
p432
I1
sS'meta'
p433
(lp434
(dp435
S'objective'
p436
I1
sS'query_time'
p437
F0.011327028274536133
sS'comp_time'
p438
F7.104873657226562e-05
sS'exec_cq'
p439
I1
sS'total_cq'
p440
I2
sasS'total_cqs'
p441
I2
ssI43
(dp442
S'iters'
p443
I0
sS'meta'
p444
(lp445
sS'total_cqs'
p446
I1
ssI44
(dp447
S'iters'
p448
I3
sS'meta'
p449
(lp450
(dp451
S'objective'
p452
I1
sS'query_time'
p453
F0.7847988605499268
sS'comp_time'
p454
F9.107589721679688e-05
sS'exec_cq'
p455
I1
sS'total_cq'
p456
I5
sa(dp457
g452
I0
sg453
F1.2062511444091797
sg454
F7.605552673339844e-05
sg455
I1
sg456
I3
sa(dp458
g452
I2
sg453
F0.0028951168060302734
sg454
F3.3855438232421875e-05
sg455
I1
sg456
I2
sasS'total_cqs'
p459
I5
ssI45
(dp460
S'iters'
p461
I2
sS'meta'
p462
(lp463
(dp464
S'objective'
p465
I5
sS'query_time'
p466
F0.04914593696594238
sS'comp_time'
p467
F4.982948303222656e-05
sS'exec_cq'
p468
I3
sS'total_cq'
p469
I5
sa(dp470
g465
I1
sg466
F0.7653779983520508
sg467
F6.103515625e-05
sg468
I2
sg469
I2
sasS'total_cqs'
p471
I5
ssI46
(dp472
S'iters'
p473
I0
sS'meta'
p474
(lp475
sS'total_cqs'
p476
I1
ssI47
(dp477
S'iters'
p478
I0
sS'meta'
p479
(lp480
sS'total_cqs'
p481
I1
ssI48
(dp482
S'iters'
p483
I1
sS'meta'
p484
(lp485
(dp486
S'objective'
p487
I1
sS'query_time'
p488
F0.1368417739868164
sS'comp_time'
p489
F7.796287536621094e-05
sS'exec_cq'
p490
I1
sS'total_cq'
p491
I2
sasS'total_cqs'
p492
I2
ssI49
(dp493
S'iters'
p494
I2
sS'meta'
p495
(lp496
(dp497
S'objective'
p498
I5
sS'query_time'
p499
F1.736166000366211
sS'comp_time'
p500
F7.796287536621094e-05
sS'exec_cq'
p501
I2
sS'total_cq'
p502
I5
sa(dp503
g498
I4
sg499
F0.009814023971557617
sg500
F4.506111145019531e-05
sg501
I2
sg502
I3
sasS'total_cqs'
p504
I5
ssI50
(dp505
S'iters'
p506
I3
sS'meta'
p507
(lp508
(dp509
S'objective'
p510
I5
sS'query_time'
p511
F0.023655176162719727
sS'comp_time'
p512
F6.794929504394531e-05
sS'exec_cq'
p513
I1
sS'total_cq'
p514
I5
sa(dp515
g510
I2
sg511
F0.005276918411254883
sg512
F4.315376281738281e-05
sg513
I1
sg514
I4
sa(dp516
g510
I0
sg511
F0.8711011409759521
sg512
F8.106231689453125e-05
sg513
I1
sg514
I3
sasS'total_cqs'
p517
I5
ssI51
(dp518
S'iters'
p519
I0
sS'meta'
p520
(lp521
sS'total_cqs'
p522
I1
ssI52
(dp523
S'iters'
p524
I0
sS'meta'
p525
(lp526
sS'total_cqs'
p527
I1
ssI53
(dp528
S'iters'
p529
I0
sS'meta'
p530
(lp531
sS'total_cqs'
p532
I1
ssI55
(dp533
S'iters'
p534
I1
sS'meta'
p535
(lp536
(dp537
S'objective'
p538
I1
sS'query_time'
p539
F22.231674909591675
sS'comp_time'
p540
F5.793571472167969e-05
sS'exec_cq'
p541
I1
sS'total_cq'
p542
I2
sasS'total_cqs'
p543
I2
ssI56
(dp544
S'iters'
p545
I0
sS'meta'
p546
(lp547
sS'total_cqs'
p548
I1
ssI57
(dp549
S'iters'
p550
I2
sS'meta'
p551
(lp552
(dp553
S'objective'
p554
I0
sS'query_time'
p555
F2.229891061782837
sS'comp_time'
p556
F0.0013151168823242188
sS'exec_cq'
p557
I1
sS'total_cq'
p558
I3
sa(dp559
g554
I1
sg555
F12.240777969360352
sg556
F0.00012302398681640625
sg557
I1
sg558
I2
sasS'total_cqs'
p560
I3
ssI108
(dp561
S'iters'
p562
I0
sS'meta'
p563
(lp564
sS'total_cqs'
p565
I1
ssI109
(dp566
S'iters'
p567
I0
sS'meta'
p568
(lp569
sS'total_cqs'
p570
I1
ssI116
(dp571
S'iters'
p572
I5
sS'meta'
p573
(lp574
(dp575
S'objective'
p576
I191
sS'query_time'
p577
F0.1590878963470459
sS'comp_time'
p578
F9.417533874511719e-05
sS'exec_cq'
p579
I2
sS'total_cq'
p580
I21
sa(dp581
g576
I175
sg577
F0.3028750419616699
sg578
F9.584426879882812e-05
sg579
I3
sg580
I20
sa(dp582
g576
I167
sg577
F4.435621023178101
sg578
F0.001338958740234375
sg579
I7
sg580
I19
sa(dp583
g576
I142
sg577
F1.3074090480804443
sg578
F0.00011205673217773438
sg579
I7
sg580
I18
sa(dp584
g576
I5
sg577
F0.20962285995483398
sg578
F6.103515625e-05
sg579
I1
sg580
I2
sasS'total_cqs'
p585
I21
ssI117
(dp586
S'iters'
p587
I2
sS'meta'
p588
(lp589
(dp590
S'objective'
p591
I7
sS'query_time'
p592
F0.007884979248046875
sS'comp_time'
p593
F4.982948303222656e-05
sS'exec_cq'
p594
I2
sS'total_cq'
p595
I5
sa(dp596
g591
I5
sg592
F0.003467082977294922
sg593
F5.2928924560546875e-05
sg594
I2
sg595
I4
sasS'total_cqs'
p597
I5
ssI118
(dp598
S'iters'
p599
I0
sS'meta'
p600
(lp601
sS'total_cqs'
p602
I1
ssI122
(dp603
S'iters'
p604
I0
sS'meta'
p605
(lp606
sS'total_cqs'
p607
I1
ss.