(dp0
I1
(dp1
S'iters'
p2
I3
sS'meta'
p3
(lp4
(dp5
S'objective'
p6
I5
sS'query_time'
p7
F17.18141484260559
sS'comp_time'
p8
F0.00017189979553222656
sS'exec_cq'
p9
I1
sS'total_cq'
p10
I6
sa(dp11
g6
I1
sg7
F28.692223072052002
sg8
F0.0003299713134765625
sg9
I2
sg10
I4
sa(dp12
g6
I1
sg7
F441.8518340587616
sg8
F0.0001499652862548828
sg9
I2
sg10
I2
sasS'total_cqs'
p13
I6
ssI2
(dp14
S'iters'
p15
I1
sS'meta'
p16
(lp17
(dp18
S'objective'
p19
I15
sS'query_time'
p20
F0.9568710327148438
sS'comp_time'
p21
F7.915496826171875e-05
sS'exec_cq'
p22
I4
sS'total_cq'
p23
I6
sasS'total_cqs'
p24
I6
ssI3
(dp25
S'iters'
p26
I12
sS'meta'
p27
(lp28
(dp29
S'objective'
p30
I405
sS'query_time'
p31
F0.025909900665283203
sS'comp_time'
p32
F0.00010395050048828125
sS'exec_cq'
p33
I1
sS'total_cq'
p34
I33
sa(dp35
g30
I395
sg31
F0.02220296859741211
sg32
F0.00010180473327636719
sg33
I1
sg34
I30
sa(dp36
g30
I327
sg31
F0.017077922821044922
sg32
F9.083747863769531e-05
sg33
I1
sg34
I27
sa(dp37
g30
I251
sg31
F0.04194998741149902
sg32
F9.894371032714844e-05
sg33
I1
sg34
I25
sa(dp38
g30
I261
sg31
F0.008496999740600586
sg32
F7.390975952148438e-05
sg33
I1
sg34
I22
sa(dp39
g30
I203
sg31
F0.018716096878051758
sg32
F7.605552673339844e-05
sg33
I1
sg34
I21
sa(dp40
g30
I198
sg31
F20.048490047454834
sg32
F0.0001010894775390625
sg33
I2
sg34
I18
sa(dp41
g30
I122
sg31
F0.31899118423461914
sg32
F8.106231689453125e-05
sg33
I2
sg34
I17
sa(dp42
g30
I104
sg31
F0.04497504234313965
sg32
F7.295608520507812e-05
sg33
I2
sg34
I14
sa(dp43
g30
I100
sg31
F0.041407108306884766
sg32
F5.91278076171875e-05
sg33
I3
sg34
I12
sa(dp44
g30
I95
sg31
F0.03112316131591797
sg32
F5.91278076171875e-05
sg33
I4
sg34
I11
sa(dp45
g30
I87
sg31
F0.15777087211608887
sg32
F6.794929504394531e-05
sg33
I4
sg34
I10
sasS'total_cqs'
p46
I33
ssI4
(dp47
S'iters'
p48
I0
sS'meta'
p49
(lp50
sS'total_cqs'
p51
I1
ssI5
(dp52
S'iters'
p53
I0
sS'meta'
p54
(lp55
sS'total_cqs'
p56
I1
ssI6
(dp57
S'iters'
p58
I4
sS'meta'
p59
(lp60
(dp61
S'objective'
p62
I5
sS'query_time'
p63
F7.749871015548706
sS'comp_time'
p64
F0.00011301040649414062
sS'exec_cq'
p65
I1
sS'total_cq'
p66
I5
sa(dp67
g62
I2
sg63
F4.735619068145752
sg64
F0.00011301040649414062
sg65
I1
sg66
I4
sa(dp68
g62
I4
sg63
F1.3079190254211426
sg64
F0.00010895729064941406
sg65
I1
sg66
I3
sa(dp69
g62
I1
sg63
F1.567775011062622
sg64
F8.702278137207031e-05
sg65
I1
sg66
I2
sasS'total_cqs'
p70
I5
ssI7
(dp71
S'iters'
p72
I0
sS'meta'
p73
(lp74
sS'total_cqs'
p75
I1
ssI8
(dp76
S'iters'
p77
I4
sS'meta'
p78
(lp79
(dp80
S'objective'
p81
I17
sS'query_time'
p82
F22.15492606163025
sS'comp_time'
p83
F0.00020694732666015625
sS'exec_cq'
p84
I2
sS'total_cq'
p85
I6
sa(dp86
g81
I3
sg82
F0.18906903266906738
sg83
F0.0001461505889892578
sg84
I1
sg85
I5
sa(dp87
g81
I0
sg82
F0.0040090084075927734
sg83
F8.58306884765625e-05
sg84
I2
sg85
I3
sa(dp88
g81
I2
sg82
F0.002859830856323242
sg83
F0.00010204315185546875
sg84
I1
sg85
I2
sasS'total_cqs'
p89
I6
ssI9
(dp90
S'iters'
p91
I3
sS'meta'
p92
(lp93
(dp94
S'objective'
p95
I1
sS'query_time'
p96
F23.905272006988525
sS'comp_time'
p97
F0.00037932395935058594
sS'exec_cq'
p98
I1
sS'total_cq'
p99
I6
sa(dp100
g95
I2
sg96
F2.33316707611084
sg97
F7.486343383789062e-05
sg98
I1
sg99
I4
sa(dp101
g95
I2
sg96
F0.6209490299224854
sg97
F7.200241088867188e-05
sg98
I1
sg99
I2
sasS'total_cqs'
p102
I6
ssI10
(dp103
S'iters'
p104
I0
sS'meta'
p105
(lp106
sS'total_cqs'
p107
I1
ssI11
(dp108
S'iters'
p109
I0
sS'meta'
p110
(lp111
sS'total_cqs'
p112
I1
ssI12
(dp113
S'iters'
p114
I0
sS'meta'
p115
(lp116
sS'total_cqs'
p117
I1
ssI13
(dp118
S'iters'
p119
I1
sS'meta'
p120
(lp121
(dp122
S'objective'
p123
I30
sS'query_time'
p124
F0.012694835662841797
sS'comp_time'
p125
F7.677078247070312e-05
sS'exec_cq'
p126
I6
sS'total_cq'
p127
I8
sasS'total_cqs'
p128
I8
ssI14
(dp129
S'iters'
p130
I2
sS'meta'
p131
(lp132
(dp133
S'objective'
p134
I7
sS'query_time'
p135
F0.03121018409729004
sS'comp_time'
p136
F7.510185241699219e-05
sS'exec_cq'
p137
I2
sS'total_cq'
p138
I5
sa(dp139
g134
I5
sg135
F1.1483829021453857
sg136
F7.915496826171875e-05
sg137
I2
sg138
I4
sasS'total_cqs'
p140
I5
ssI16
(dp141
S'iters'
p142
I3
sS'meta'
p143
(lp144
(dp145
S'objective'
p146
I7
sS'query_time'
p147
F8.849079132080078
sS'comp_time'
p148
F0.00011897087097167969
sS'exec_cq'
p149
I2
sS'total_cq'
p150
I5
sa(dp151
g146
I3
sg147
F4.517980098724365
sg148
F0.00010800361633300781
sg149
I2
sg150
I4
sa(dp152
g146
I2
sg147
F90.2195680141449
sg148
F8.0108642578125e-05
sg149
I2
sg150
I2
sasS'total_cqs'
p153
I5
ssI17
(dp154
S'iters'
p155
I0
sS'meta'
p156
(lp157
sS'total_cqs'
p158
I1
ssI18
(dp159
S'iters'
p160
I3
sS'meta'
p161
(lp162
(dp163
S'objective'
p164
I3
sS'query_time'
p165
F4.612340927124023
sS'comp_time'
p166
F0.00011897087097167969
sS'exec_cq'
p167
I1
sS'total_cq'
p168
I5
sa(dp169
g164
I1
sg165
F0.1032710075378418
sg166
F8.916854858398438e-05
sg167
I1
sg168
I3
sa(dp170
g164
I1
sg165
F0.023212909698486328
sg166
F6.508827209472656e-05
sg167
I1
sg168
I2
sasS'total_cqs'
p171
I5
ssI19
(dp172
S'iters'
p173
I0
sS'meta'
p174
(lp175
sS'total_cqs'
p176
I1
ssI20
(dp177
S'iters'
p178
I6
sS'meta'
p179
(lp180
(dp181
S'objective'
p182
I54
sS'query_time'
p183
F9.430364847183228
sS'comp_time'
p184
F0.0002620220184326172
sS'exec_cq'
p185
I1
sS'total_cq'
p186
I12
sa(dp187
g182
I38
sg183
F4.487717866897583
sg184
F0.00011682510375976562
sg185
I1
sg186
I11
sa(dp188
g182
I30
sg183
F0.010619878768920898
sg184
F8.511543273925781e-05
sg185
I2
sg186
I9
sa(dp189
g182
I11
sg183
F0.00645899772644043
sg184
F6.318092346191406e-05
sg185
I2
sg186
I7
sa(dp190
g182
I14
sg183
F4.658840894699097
sg184
F8.392333984375e-05
sg185
I2
sg186
I5
sa(dp191
g182
I12
sg183
F0.09738302230834961
sg184
F7.104873657226562e-05
sg185
I3
sg186
I4
sasS'total_cqs'
p192
I12
ssI21
(dp193
S'iters'
p194
I5
sS'meta'
p195
(lp196
(dp197
S'objective'
p198
I43
sS'query_time'
p199
F0.8134369850158691
sS'comp_time'
p200
F7.796287536621094e-05
sS'exec_cq'
p201
I1
sS'total_cq'
p202
I14
sa(dp203
g198
I14
sg199
F1.578287124633789
sg200
F0.00013113021850585938
sg201
I1
sg202
I10
sa(dp204
g198
I8
sg199
F45.93220496177673
sg200
F0.0002627372741699219
sg201
I3
sg202
I6
sa(dp205
g198
I14
sg199
F0.2644929885864258
sg200
F0.00012302398681640625
sg201
I2
sg202
I4
sa(dp206
g198
I10
sg199
F0.018806934356689453
sg200
F0.00011801719665527344
sg201
I2
sg202
I3
sasS'total_cqs'
p207
I14
ssI22
(dp208
S'iters'
p209
I1
sS'meta'
p210
(lp211
(dp212
S'objective'
p213
I1
sS'query_time'
p214
F0.004511117935180664
sS'comp_time'
p215
F7.414817810058594e-05
sS'exec_cq'
p216
I1
sS'total_cq'
p217
I2
sasS'total_cqs'
p218
I2
ssI23
(dp219
S'iters'
p220
I0
sS'meta'
p221
(lp222
sS'total_cqs'
p223
I1
ssI24
(dp224
S'iters'
p225
I0
sS'meta'
p226
(lp227
sS'total_cqs'
p228
I1
ssI25
(dp229
S'iters'
p230
I3
sS'meta'
p231
(lp232
(dp233
S'objective'
p234
I4
sS'query_time'
p235
F7.392291784286499
sS'comp_time'
p236
F8.416175842285156e-05
sS'exec_cq'
p237
I1
sS'total_cq'
p238
I7
sa(dp239
g234
I4
sg235
F9.278409004211426
sg236
F0.0010569095611572266
sg237
I1
sg238
I5
sa(dp240
g234
I4
sg235
F24.5200138092041
sg236
F0.00013566017150878906
sg237
I2
sg238
I4
sasS'total_cqs'
p241
I7
ssI26
(dp242
S'iters'
p243
I8
sS'meta'
p244
(lp245
(dp246
S'objective'
p247
I65
sS'query_time'
p248
F0.04167294502258301
sS'comp_time'
p249
F8.821487426757812e-05
sS'exec_cq'
p250
I1
sS'total_cq'
p251
I13
sa(dp252
g247
I34
sg248
F1.326692819595337
sg249
F8.988380432128906e-05
sg250
I1
sg251
I12
sa(dp253
g247
I34
sg248
F0.5253238677978516
sg249
F0.00011396408081054688
sg250
I1
sg251
I10
sa(dp254
g247
I27
sg248
F0.0849001407623291
sg249
F8.797645568847656e-05
sg250
I1
sg251
I9
sa(dp255
g247
I20
sg248
F0.03282809257507324
sg249
F7.677078247070312e-05
sg250
I1
sg251
I8
sa(dp256
g247
I14
sg248
F0.03347897529602051
sg249
F6.175041198730469e-05
sg250
I1
sg251
I7
sa(dp257
g247
I9
sg248
F0.006587028503417969
sg249
F4.696846008300781e-05
sg250
I1
sg251
I6
sa(dp258
g247
I5
sg248
F0.0038650035858154297
sg249
F6.413459777832031e-05
sg250
I1
sg251
I5
sasS'total_cqs'
p259
I13
ssI27
(dp260
S'iters'
p261
I1
sS'meta'
p262
(lp263
(dp264
S'objective'
p265
I1
sS'query_time'
p266
F0.4050419330596924
sS'comp_time'
p267
F9.489059448242188e-05
sS'exec_cq'
p268
I1
sS'total_cq'
p269
I2
sasS'total_cqs'
p270
I2
ssI28
(dp271
S'iters'
p272
I6
sS'meta'
p273
(lp274
(dp275
S'objective'
p276
I77
sS'query_time'
p277
F1.5795180797576904
sS'comp_time'
p278
F9.584426879882812e-05
sS'exec_cq'
p279
I1
sS'total_cq'
p280
I14
sa(dp281
g276
I11
sg277
F1.4857909679412842
sg278
F9.012222290039062e-05
sg279
I1
sg280
I13
sa(dp282
g276
I27
sg277
F0.6807308197021484
sg278
F7.891654968261719e-05
sg279
I1
sg280
I8
sa(dp283
g276
I17
sg277
F0.5197370052337646
sg278
F9.989738464355469e-05
sg279
I1
sg280
I7
sa(dp284
g276
I12
sg277
F0.8090250492095947
sg278
F7.486343383789062e-05
sg279
I1
sg280
I6
sa(dp285
g276
I2
sg277
F0.1380910873413086
sg278
F8.606910705566406e-05
sg279
I1
sg280
I3
sasS'total_cqs'
p286
I14
ssI29
(dp287
S'iters'
p288
I1
sS'meta'
p289
(lp290
(dp291
S'objective'
p292
I1
sS'query_time'
p293
F0.005908966064453125
sS'comp_time'
p294
F7.62939453125e-05
sS'exec_cq'
p295
I1
sS'total_cq'
p296
I2
sasS'total_cqs'
p297
I2
ssI30
(dp298
S'iters'
p299
I1
sS'meta'
p300
(lp301
(dp302
S'objective'
p303
I1
sS'query_time'
p304
F0.41246581077575684
sS'comp_time'
p305
F6.008148193359375e-05
sS'exec_cq'
p306
I1
sS'total_cq'
p307
I2
sasS'total_cqs'
p308
I2
ssI31
(dp309
S'iters'
p310
I6
sS'meta'
p311
(lp312
(dp313
S'objective'
p314
I27
sS'query_time'
p315
F7.777040958404541
sS'comp_time'
p316
F8.726119995117188e-05
sS'exec_cq'
p317
I1
sS'total_cq'
p318
I9
sa(dp319
g314
I10
sg315
F2.4617059230804443
sg316
F9.417533874511719e-05
sg317
I1
sg318
I8
sa(dp320
g314
I9
sg315
F0.0960538387298584
sg316
F0.00012874603271484375
sg317
I1
sg318
I6
sa(dp321
g314
I0
sg315
F6.423359155654907
sg316
F9.202957153320312e-05
sg317
I1
sg318
I5
sa(dp322
g314
I2
sg315
F0.2823009490966797
sg316
F7.176399230957031e-05
sg317
I1
sg318
I3
sa(dp323
g314
I3
sg315
F0.14777898788452148
sg316
F8.296966552734375e-05
sg317
I1
sg318
I2
sasS'total_cqs'
p324
I9
ssI32
(dp325
S'iters'
p326
I4
sS'meta'
p327
(lp328
(dp329
S'objective'
p330
I4
sS'query_time'
p331
F2.391732931137085
sS'comp_time'
p332
F8.797645568847656e-05
sS'exec_cq'
p333
I1
sS'total_cq'
p334
I7
sa(dp335
g330
I4
sg331
F2.062812089920044
sg332
F0.00034618377685546875
sg333
I1
sg334
I5
sa(dp336
g330
I2
sg331
F6.621096134185791
sg332
F0.00028514862060546875
sg333
I1
sg334
I4
sa(dp337
g330
I0
sg331
F0.10961413383483887
sg332
F5.412101745605469e-05
sg333
I1
sg334
I3
sasS'total_cqs'
p338
I7
ssI33
(dp339
S'iters'
p340
I1
sS'meta'
p341
(lp342
(dp343
S'objective'
p344
I1
sS'query_time'
p345
F0.03986001014709473
sS'comp_time'
p346
F6.914138793945312e-05
sS'exec_cq'
p347
I1
sS'total_cq'
p348
I2
sasS'total_cqs'
p349
I2
ssI34
(dp350
S'iters'
p351
I0
sS'meta'
p352
(lp353
sS'total_cqs'
p354
I1
ssI35
(dp355
S'iters'
p356
I4
sS'meta'
p357
(lp358
(dp359
S'objective'
p360
I5
sS'query_time'
p361
F7.178369998931885
sS'comp_time'
p362
F8.988380432128906e-05
sS'exec_cq'
p363
I1
sS'total_cq'
p364
I5
sa(dp365
g360
I2
sg361
F3.9024300575256348
sg362
F0.0003662109375
sg363
I1
sg364
I4
sa(dp366
g360
I4
sg361
F0.7154760360717773
sg362
F0.0001380443572998047
sg363
I1
sg364
I3
sa(dp367
g360
I1
sg361
F0.1185600757598877
sg362
F0.00010013580322265625
sg363
I1
sg364
I2
sasS'total_cqs'
p368
I5
ssI37
(dp369
S'iters'
p370
I6
sS'meta'
p371
(lp372
(dp373
S'objective'
p374
I35
sS'query_time'
p375
F0.9040789604187012
sS'comp_time'
p376
F8.7738037109375e-05
sS'exec_cq'
p377
I1
sS'total_cq'
p378
I10
sa(dp379
g374
I27
sg375
F0.42591309547424316
sg376
F0.00010204315185546875
sg377
I1
sg378
I9
sa(dp380
g374
I20
sg375
F0.006155967712402344
sg376
F5.888938903808594e-05
sg377
I1
sg378
I8
sa(dp381
g374
I16
sg375
F0.00516200065612793
sg376
F6.4849853515625e-05
sg377
I2
sg378
I7
sa(dp382
g374
I12
sg375
F0.6557700634002686
sg376
F0.00010824203491210938
sg377
I2
sg378
I6
sa(dp383
g374
I9
sg375
F0.3622159957885742
sg376
F0.0011067390441894531
sg377
I2
sg378
I5
sasS'total_cqs'
p384
I10
ssI38
(dp385
S'iters'
p386
I0
sS'meta'
p387
(lp388
sS'total_cqs'
p389
I1
ssI39
(dp390
S'iters'
p391
I0
sS'meta'
p392
(lp393
sS'total_cqs'
p394
I1
ssI40
(dp395
S'iters'
p396
I1
sS'meta'
p397
(lp398
(dp399
S'objective'
p400
I1
sS'query_time'
p401
F17.783791065216064
sS'comp_time'
p402
F0.00023293495178222656
sS'exec_cq'
p403
I2
sS'total_cq'
p404
I2
sasS'total_cqs'
p405
I2
ssI41
(dp406
S'iters'
p407
I3
sS'meta'
p408
(lp409
(dp410
S'objective'
p411
I1
sS'query_time'
p412
F2.181631088256836
sS'comp_time'
p413
F6.699562072753906e-05
sS'exec_cq'
p414
I1
sS'total_cq'
p415
I6
sa(dp416
g411
I1
sg412
F1.3870739936828613
sg413
F0.00021886825561523438
sg414
I1
sg415
I4
sa(dp417
g411
I0
sg412
F0.08369112014770508
sg413
F5.91278076171875e-05
sg414
I1
sg415
I3
sasS'total_cqs'
p418
I6
ssI42
(dp419
S'iters'
p420
I1
sS'meta'
p421
(lp422
(dp423
S'objective'
p424
I1
sS'query_time'
p425
F0.015343189239501953
sS'comp_time'
p426
F7.510185241699219e-05
sS'exec_cq'
p427
I1
sS'total_cq'
p428
I2
sasS'total_cqs'
p429
I2
ssI43
(dp430
S'iters'
p431
I0
sS'meta'
p432
(lp433
sS'total_cqs'
p434
I1
ssI44
(dp435
S'iters'
p436
I3
sS'meta'
p437
(lp438
(dp439
S'objective'
p440
I5
sS'query_time'
p441
F1.6747682094573975
sS'comp_time'
p442
F0.0001010894775390625
sS'exec_cq'
p443
I1
sS'total_cq'
p444
I5
sa(dp445
g440
I2
sg441
F0.009675025939941406
sg442
F6.818771362304688e-05
sg443
I1
sg444
I4
sa(dp446
g440
I0
sg441
F0.0043299198150634766
sg442
F6.198883056640625e-05
sg443
I1
sg444
I3
sasS'total_cqs'
p447
I5
ssI45
(dp448
S'iters'
p449
I2
sS'meta'
p450
(lp451
(dp452
S'objective'
p453
I5
sS'query_time'
p454
F5.669403076171875
sS'comp_time'
p455
F0.00016021728515625
sS'exec_cq'
p456
I1
sS'total_cq'
p457
I5
sa(dp458
g453
I4
sg454
F0.006487846374511719
sg455
F4.1961669921875e-05
sg456
I2
sg457
I4
sasS'total_cqs'
p459
I5
ssI46
(dp460
S'iters'
p461
I0
sS'meta'
p462
(lp463
sS'total_cqs'
p464
I1
ssI47
(dp465
S'iters'
p466
I0
sS'meta'
p467
(lp468
sS'total_cqs'
p469
I1
ssI48
(dp470
S'iters'
p471
I1
sS'meta'
p472
(lp473
(dp474
S'objective'
p475
I1
sS'query_time'
p476
F0.13467693328857422
sS'comp_time'
p477
F9.298324584960938e-05
sS'exec_cq'
p478
I1
sS'total_cq'
p479
I2
sasS'total_cqs'
p480
I2
ssI49
(dp481
S'iters'
p482
I2
sS'meta'
p483
(lp484
(dp485
S'objective'
p486
I1
sS'query_time'
p487
F1.709136962890625
sS'comp_time'
p488
F0.00010704994201660156
sS'exec_cq'
p489
I1
sS'total_cq'
p490
I5
sa(dp491
g486
I2
sg487
F0.011385917663574219
sg488
F5.817413330078125e-05
sg489
I2
sg490
I3
sasS'total_cqs'
p492
I5
ssI50
(dp493
S'iters'
p494
I3
sS'meta'
p495
(lp496
(dp497
S'objective'
p498
I5
sS'query_time'
p499
F0.19586396217346191
sS'comp_time'
p500
F8.392333984375e-05
sS'exec_cq'
p501
I1
sS'total_cq'
p502
I5
sa(dp503
g498
I2
sg499
F0.020602941513061523
sg500
F8.106231689453125e-05
sg501
I1
sg502
I4
sa(dp504
g498
I0
sg499
F0.8490979671478271
sg500
F9.107589721679688e-05
sg501
I1
sg502
I3
sasS'total_cqs'
p505
I5
ssI51
(dp506
S'iters'
p507
I0
sS'meta'
p508
(lp509
sS'total_cqs'
p510
I1
ssI52
(dp511
S'iters'
p512
I0
sS'meta'
p513
(lp514
sS'total_cqs'
p515
I1
ssI53
(dp516
S'iters'
p517
I0
sS'meta'
p518
(lp519
sS'total_cqs'
p520
I1
ssI55
(dp521
S'iters'
p522
I1
sS'meta'
p523
(lp524
(dp525
S'objective'
p526
I1
sS'query_time'
p527
F14.331099033355713
sS'comp_time'
p528
F0.00010085105895996094
sS'exec_cq'
p529
I1
sS'total_cq'
p530
I2
sasS'total_cqs'
p531
I2
ssI56
(dp532
S'iters'
p533
I0
sS'meta'
p534
(lp535
sS'total_cqs'
p536
I1
ssI57
(dp537
S'iters'
p538
I2
sS'meta'
p539
(lp540
(dp541
S'objective'
p542
I0
sS'query_time'
p543
F12.443248987197876
sS'comp_time'
p544
F8.606910705566406e-05
sS'exec_cq'
p545
I2
sS'total_cq'
p546
I3
sa(dp547
g542
I1
sg543
F0.08111000061035156
sg544
F6.4849853515625e-05
sg545
I1
sg546
I2
sasS'total_cqs'
p548
I3
ssI108
(dp549
S'iters'
p550
I0
sS'meta'
p551
(lp552
sS'total_cqs'
p553
I1
ssI109
(dp554
S'iters'
p555
I0
sS'meta'
p556
(lp557
sS'total_cqs'
p558
I1
ssI116
(dp559
S'iters'
p560
I3
sS'meta'
p561
(lp562
(dp563
S'objective'
p564
I191
sS'query_time'
p565
F1.5515549182891846
sS'comp_time'
p566
F0.00010585784912109375
sS'exec_cq'
p567
I2
sS'total_cq'
p568
I21
sa(dp569
g564
I159
sg565
F1.6720199584960938
sg566
F0.00011587142944335938
sg567
I2
sg568
I20
sa(dp570
g564
I12
sg565
F0.18115615844726562
sg566
F0.00011491775512695312
sg567
I1
sg568
I2
sasS'total_cqs'
p571
I21
ssI117
(dp572
S'iters'
p573
I2
sS'meta'
p574
(lp575
(dp576
S'objective'
p577
I7
sS'query_time'
p578
F0.007567167282104492
sS'comp_time'
p579
F6.29425048828125e-05
sS'exec_cq'
p580
I2
sS'total_cq'
p581
I5
sa(dp582
g577
I5
sg578
F0.0026941299438476562
sg579
F5.1975250244140625e-05
sg580
I2
sg581
I4
sasS'total_cqs'
p583
I5
ssI118
(dp584
S'iters'
p585
I0
sS'meta'
p586
(lp587
sS'total_cqs'
p588
I1
ssI122
(dp589
S'iters'
p590
I0
sS'meta'
p591
(lp592
sS'total_cqs'
p593
I1
ss.