(dp0
I1
(dp1
S'iters'
p2
I2
sS'meta'
p3
(lp4
(dp5
S'objective'
p6
I5
sS'query_time'
p7
F6.3227808475494385
sS'comp_time'
p8
F7.486343383789062e-05
sS'exec_cq'
p9
I1
sS'total_cq'
p10
I6
sa(dp11
g6
I4
sg7
F140.76847386360168
sg8
F5.817413330078125e-05
sg9
I1
sg10
I2
sasS'total_cqs'
p12
I6
ssI2
(dp13
S'iters'
p14
I1
sS'meta'
p15
(lp16
(dp17
S'objective'
p18
I9
sS'query_time'
p19
F0.6836059093475342
sS'comp_time'
p20
F7.700920104980469e-05
sS'exec_cq'
p21
I1
sS'total_cq'
p22
I6
sasS'total_cqs'
p23
I6
ssI3
(dp24
S'iters'
p25
I1
sS'meta'
p26
(lp27
(dp28
S'objective'
p29
I495
sS'query_time'
p30
F0.2592449188232422
sS'comp_time'
p31
F0.00011110305786132812
sS'exec_cq'
p32
I1
sS'total_cq'
p33
I33
sasS'total_cqs'
p34
I33
ssI4
(dp35
S'iters'
p36
I0
sS'meta'
p37
(lp38
sS'total_cqs'
p39
I1
ssI5
(dp40
S'iters'
p41
I0
sS'meta'
p42
(lp43
sS'total_cqs'
p44
I1
ssI6
(dp45
S'iters'
p46
I3
sS'meta'
p47
(lp48
(dp49
S'objective'
p50
I5
sS'query_time'
p51
F3.23651385307312
sS'comp_time'
p52
F5.602836608886719e-05
sS'exec_cq'
p53
I1
sS'total_cq'
p54
I5
sa(dp55
g50
I4
sg51
F4.525171995162964
sg52
F6.008148193359375e-05
sg53
I1
sg54
I3
sa(dp56
g50
I3
sg51
F37.0942599773407
sg52
F2.7894973754882812e-05
sg53
I1
sg54
I2
sasS'total_cqs'
p57
I5
ssI7
(dp58
S'iters'
p59
I0
sS'meta'
p60
(lp61
sS'total_cqs'
p62
I1
ssI8
(dp63
S'iters'
p64
I1
sS'meta'
p65
(lp66
(dp67
S'objective'
p68
I9
sS'query_time'
p69
F31.899049997329712
sS'comp_time'
p70
F8.988380432128906e-05
sS'exec_cq'
p71
I1
sS'total_cq'
p72
I6
sasS'total_cqs'
p73
I6
ssI9
(dp74
S'iters'
p75
I2
sS'meta'
p76
(lp77
(dp78
S'objective'
p79
I7
sS'query_time'
p80
F2.8733458518981934
sS'comp_time'
p81
F7.414817810058594e-05
sS'exec_cq'
p82
I1
sS'total_cq'
p83
I6
sa(dp84
g79
I5
sg80
F7.3167901039123535
sg81
F3.0040740966796875e-05
sg82
I1
sg83
I2
sasS'total_cqs'
p85
I6
ssI10
(dp86
S'iters'
p87
I0
sS'meta'
p88
(lp89
sS'total_cqs'
p90
I1
ssI11
(dp91
S'iters'
p92
I0
sS'meta'
p93
(lp94
sS'total_cqs'
p95
I1
ssI12
(dp96
S'iters'
p97
I0
sS'meta'
p98
(lp99
sS'total_cqs'
p100
I1
ssI13
(dp101
S'iters'
p102
I1
sS'meta'
p103
(lp104
(dp105
S'objective'
p106
I20
sS'query_time'
p107
F0.253324031829834
sS'comp_time'
p108
F4.291534423828125e-05
sS'exec_cq'
p109
I1
sS'total_cq'
p110
I8
sasS'total_cqs'
p111
I8
ssI14
(dp112
S'iters'
p113
I1
sS'meta'
p114
(lp115
(dp116
S'objective'
p117
I5
sS'query_time'
p118
F0.8126928806304932
sS'comp_time'
p119
F9.894371032714844e-05
sS'exec_cq'
p120
I1
sS'total_cq'
p121
I5
sasS'total_cqs'
p122
I5
ssI16
(dp123
S'iters'
p124
I2
sS'meta'
p125
(lp126
(dp127
S'objective'
p128
I1
sS'query_time'
p129
F6.686759948730469
sS'comp_time'
p130
F7.104873657226562e-05
sS'exec_cq'
p131
I1
sS'total_cq'
p132
I5
sa(dp133
g128
I3
sg129
F107.52141118049622
sg130
F5.984306335449219e-05
sg131
I2
sg132
I2
sasS'total_cqs'
p134
I5
ssI17
(dp135
S'iters'
p136
I0
sS'meta'
p137
(lp138
sS'total_cqs'
p139
I1
ssI18
(dp140
S'iters'
p141
I2
sS'meta'
p142
(lp143
(dp144
S'objective'
p145
I1
sS'query_time'
p146
F0.35730886459350586
sS'comp_time'
p147
F6.29425048828125e-05
sS'exec_cq'
p148
I1
sS'total_cq'
p149
I5
sa(dp150
g145
I2
sg146
F0.25213003158569336
sg147
F7.510185241699219e-05
sg148
I2
sg149
I2
sasS'total_cqs'
p151
I5
ssI19
(dp152
S'iters'
p153
I0
sS'meta'
p154
(lp155
sS'total_cqs'
p156
I1
ssI20
(dp157
S'iters'
p158
I1
sS'meta'
p159
(lp160
(dp161
S'objective'
p162
I54
sS'query_time'
p163
F0.14307308197021484
sS'comp_time'
p164
F7.319450378417969e-05
sS'exec_cq'
p165
I1
sS'total_cq'
p166
I12
sasS'total_cqs'
p167
I12
ssI21
(dp168
S'iters'
p169
I1
sS'meta'
p170
(lp171
(dp172
S'objective'
p173
I77
sS'query_time'
p174
F0.05286407470703125
sS'comp_time'
p175
F7.414817810058594e-05
sS'exec_cq'
p176
I1
sS'total_cq'
p177
I14
sasS'total_cqs'
p178
I14
ssI22
(dp179
S'iters'
p180
I1
sS'meta'
p181
(lp182
(dp183
S'objective'
p184
I1
sS'query_time'
p185
F0.005120038986206055
sS'comp_time'
p186
F5.1975250244140625e-05
sS'exec_cq'
p187
I1
sS'total_cq'
p188
I2
sasS'total_cqs'
p189
I2
ssI23
(dp190
S'iters'
p191
I0
sS'meta'
p192
(lp193
sS'total_cqs'
p194
I1
ssI24
(dp195
S'iters'
p196
I0
sS'meta'
p197
(lp198
sS'total_cqs'
p199
I1
ssI25
(dp200
S'iters'
p201
I1
sS'meta'
p202
(lp203
(dp204
S'objective'
p205
I14
sS'query_time'
p206
F0.3060181140899658
sS'comp_time'
p207
F7.104873657226562e-05
sS'exec_cq'
p208
I1
sS'total_cq'
p209
I7
sasS'total_cqs'
p210
I7
ssI26
(dp211
S'iters'
p212
I1
sS'meta'
p213
(lp214
(dp215
S'objective'
p216
I65
sS'query_time'
p217
F0.02069997787475586
sS'comp_time'
p218
F4.887580871582031e-05
sS'exec_cq'
p219
I1
sS'total_cq'
p220
I13
sasS'total_cqs'
p221
I13
ssI27
(dp222
S'iters'
p223
I1
sS'meta'
p224
(lp225
(dp226
S'objective'
p227
I1
sS'query_time'
p228
F0.3558380603790283
sS'comp_time'
p229
F8.106231689453125e-05
sS'exec_cq'
p230
I1
sS'total_cq'
p231
I2
sasS'total_cqs'
p232
I2
ssI28
(dp233
S'iters'
p234
I1
sS'meta'
p235
(lp236
(dp237
S'objective'
p238
I77
sS'query_time'
p239
F1.0443990230560303
sS'comp_time'
p240
F5.698204040527344e-05
sS'exec_cq'
p241
I1
sS'total_cq'
p242
I14
sasS'total_cqs'
p243
I14
ssI29
(dp244
S'iters'
p245
I1
sS'meta'
p246
(lp247
(dp248
S'objective'
p249
I1
sS'query_time'
p250
F0.007075071334838867
sS'comp_time'
p251
F4.291534423828125e-05
sS'exec_cq'
p252
I1
sS'total_cq'
p253
I2
sasS'total_cqs'
p254
I2
ssI30
(dp255
S'iters'
p256
I1
sS'meta'
p257
(lp258
(dp259
S'objective'
p260
I1
sS'query_time'
p261
F0.3072519302368164
sS'comp_time'
p262
F6.29425048828125e-05
sS'exec_cq'
p263
I1
sS'total_cq'
p264
I2
sasS'total_cqs'
p265
I2
ssI31
(dp266
S'iters'
p267
I1
sS'meta'
p268
(lp269
(dp270
S'objective'
p271
I27
sS'query_time'
p272
F0.4474601745605469
sS'comp_time'
p273
F8.0108642578125e-05
sS'exec_cq'
p274
I1
sS'total_cq'
p275
I9
sasS'total_cqs'
p276
I9
ssI32
(dp277
S'iters'
p278
I1
sS'meta'
p279
(lp280
(dp281
S'objective'
p282
I14
sS'query_time'
p283
F0.15537691116333008
sS'comp_time'
p284
F5.698204040527344e-05
sS'exec_cq'
p285
I1
sS'total_cq'
p286
I7
sasS'total_cqs'
p287
I7
ssI33
(dp288
S'iters'
p289
I1
sS'meta'
p290
(lp291
(dp292
S'objective'
p293
I1
sS'query_time'
p294
F0.02995610237121582
sS'comp_time'
p295
F7.700920104980469e-05
sS'exec_cq'
p296
I1
sS'total_cq'
p297
I2
sasS'total_cqs'
p298
I2
ssI34
(dp299
S'iters'
p300
I0
sS'meta'
p301
(lp302
sS'total_cqs'
p303
I1
ssI35
(dp304
S'iters'
p305
I2
sS'meta'
p306
(lp307
(dp308
S'objective'
p309
I1
sS'query_time'
p310
F2.576665163040161
sS'comp_time'
p311
F7.700920104980469e-05
sS'exec_cq'
p312
I1
sS'total_cq'
p313
I5
sa(dp314
g309
I3
sg310
F0.09139490127563477
sg311
F2.8848648071289062e-05
sg312
I1
sg313
I2
sasS'total_cqs'
p315
I5
ssI37
(dp316
S'iters'
p317
I1
sS'meta'
p318
(lp319
(dp320
S'objective'
p321
I35
sS'query_time'
p322
F0.3907308578491211
sS'comp_time'
p323
F7.915496826171875e-05
sS'exec_cq'
p324
I1
sS'total_cq'
p325
I10
sasS'total_cqs'
p326
I10
ssI38
(dp327
S'iters'
p328
I0
sS'meta'
p329
(lp330
sS'total_cqs'
p331
I1
ssI39
(dp332
S'iters'
p333
I0
sS'meta'
p334
(lp335
sS'total_cqs'
p336
I1
ssI40
(dp337
S'iters'
p338
I1
sS'meta'
p339
(lp340
(dp341
S'objective'
p342
I1
sS'query_time'
p343
F15.535694122314453
sS'comp_time'
p344
F0.00016689300537109375
sS'exec_cq'
p345
I2
sS'total_cq'
p346
I2
sasS'total_cqs'
p347
I2
ssI41
(dp348
S'iters'
p349
I2
sS'meta'
p350
(lp351
(dp352
S'objective'
p353
I5
sS'query_time'
p354
F6.2350358963012695
sS'comp_time'
p355
F7.390975952148438e-05
sS'exec_cq'
p356
I1
sS'total_cq'
p357
I6
sa(dp358
g353
I4
sg354
F70.53974890708923
sg355
F7.200241088867188e-05
sg356
I2
sg357
I2
sasS'total_cqs'
p359
I6
ssI42
(dp360
S'iters'
p361
I1
sS'meta'
p362
(lp363
(dp364
S'objective'
p365
I1
sS'query_time'
p366
F0.010979175567626953
sS'comp_time'
p367
F5.793571472167969e-05
sS'exec_cq'
p368
I1
sS'total_cq'
p369
I2
sasS'total_cqs'
p370
I2
ssI43
(dp371
S'iters'
p372
I0
sS'meta'
p373
(lp374
sS'total_cqs'
p375
I1
ssI44
(dp376
S'iters'
p377
I1
sS'meta'
p378
(lp379
(dp380
S'objective'
p381
I5
sS'query_time'
p382
F0.009842872619628906
sS'comp_time'
p383
F4.696846008300781e-05
sS'exec_cq'
p384
I1
sS'total_cq'
p385
I5
sasS'total_cqs'
p386
I5
ssI45
(dp387
S'iters'
p388
I2
sS'meta'
p389
(lp390
(dp391
S'objective'
p392
I3
sS'query_time'
p393
F0.0463259220123291
sS'comp_time'
p394
F5.602836608886719e-05
sS'exec_cq'
p395
I1
sS'total_cq'
p396
I5
sa(dp397
g392
I4
sg393
F0.6764161586761475
sg394
F6.103515625e-05
sg395
I2
sg396
I2
sasS'total_cqs'
p398
I5
ssI46
(dp399
S'iters'
p400
I0
sS'meta'
p401
(lp402
sS'total_cqs'
p403
I1
ssI47
(dp404
S'iters'
p405
I0
sS'meta'
p406
(lp407
sS'total_cqs'
p408
I1
ssI48
(dp409
S'iters'
p410
I1
sS'meta'
p411
(lp412
(dp413
S'objective'
p414
I1
sS'query_time'
p415
F0.11187887191772461
sS'comp_time'
p416
F8.106231689453125e-05
sS'exec_cq'
p417
I1
sS'total_cq'
p418
I2
sasS'total_cqs'
p419
I2
ssI49
(dp420
S'iters'
p421
I2
sS'meta'
p422
(lp423
(dp424
S'objective'
p425
I3
sS'query_time'
p426
F0.04743695259094238
sS'comp_time'
p427
F5.316734313964844e-05
sS'exec_cq'
p428
I1
sS'total_cq'
p429
I5
sa(dp430
g425
I4
sg426
F0.1328601837158203
sg427
F2.6941299438476562e-05
sg428
I1
sg429
I2
sasS'total_cqs'
p431
I5
ssI50
(dp432
S'iters'
p433
I1
sS'meta'
p434
(lp435
(dp436
S'objective'
p437
I5
sS'query_time'
p438
F0.7296490669250488
sS'comp_time'
p439
F6.890296936035156e-05
sS'exec_cq'
p440
I1
sS'total_cq'
p441
I5
sasS'total_cqs'
p442
I5
ssI51
(dp443
S'iters'
p444
I0
sS'meta'
p445
(lp446
sS'total_cqs'
p447
I1
ssI52
(dp448
S'iters'
p449
I0
sS'meta'
p450
(lp451
sS'total_cqs'
p452
I1
ssI53
(dp453
S'iters'
p454
I0
sS'meta'
p455
(lp456
sS'total_cqs'
p457
I1
ssI55
(dp458
S'iters'
p459
I1
sS'meta'
p460
(lp461
(dp462
S'objective'
p463
I1
sS'query_time'
p464
F21.673341989517212
sS'comp_time'
p465
F5.698204040527344e-05
sS'exec_cq'
p466
I1
sS'total_cq'
p467
I2
sasS'total_cqs'
p468
I2
ssI56
(dp469
S'iters'
p470
I0
sS'meta'
p471
(lp472
sS'total_cqs'
p473
I1
ssI57
(dp474
S'iters'
p475
I1
sS'meta'
p476
(lp477
(dp478
S'objective'
p479
I0
sS'query_time'
p480
F13.824481964111328
sS'comp_time'
p481
F0.0005040168762207031
sS'exec_cq'
p482
I1
sS'total_cq'
p483
I3
sasS'total_cqs'
p484
I3
ssI108
(dp485
S'iters'
p486
I0
sS'meta'
p487
(lp488
sS'total_cqs'
p489
I1
ssI109
(dp490
S'iters'
p491
I0
sS'meta'
p492
(lp493
sS'total_cqs'
p494
I1
ssI116
(dp495
S'iters'
p496
I2
sS'meta'
p497
(lp498
(dp499
S'objective'
p500
I187
sS'query_time'
p501
F4.753063201904297
sS'comp_time'
p502
F8.20159912109375e-05
sS'exec_cq'
p503
I1
sS'total_cq'
p504
I21
sa(dp505
g500
I20
sg501
F6.133769989013672
sg502
F3.0040740966796875e-05
sg503
I1
sg504
I2
sasS'total_cqs'
p506
I21
ssI117
(dp507
S'iters'
p508
I1
sS'meta'
p509
(lp510
(dp511
S'objective'
p512
I5
sS'query_time'
p513
F0.005460023880004883
sS'comp_time'
p514
F4.601478576660156e-05
sS'exec_cq'
p515
I1
sS'total_cq'
p516
I5
sasS'total_cqs'
p517
I5
ssI118
(dp518
S'iters'
p519
I0
sS'meta'
p520
(lp521
sS'total_cqs'
p522
I1
ssI122
(dp523
S'iters'
p524
I0
sS'meta'
p525
(lp526
sS'total_cqs'
p527
I1
ss.