(dp0
I1
(dp1
S'iters'
p2
I4
sS'meta'
p3
(lp4
(dp5
S'objective'
p6
I11
sS'query_time'
p7
F20.057355880737305
sS'comp_time'
p8
F7.987022399902344e-05
sS'exec_cq'
p9
I2
sS'total_cq'
p10
I6
sa(dp11
g6
I4
sg7
F10.820414066314697
sg8
F0.0007109642028808594
sg9
I2
sg10
I5
sa(dp12
g6
I2
sg7
F0.6690809726715088
sg8
F7.414817810058594e-05
sg9
I1
sg10
I3
sa(dp13
g6
I2
sg7
F477.2203600406647
sg8
F0.0001480579376220703
sg9
I1
sg10
I2
sasS'total_cqs'
p14
I6
ssI2
(dp15
S'iters'
p16
I1
sS'meta'
p17
(lp18
(dp19
S'objective'
p20
I15
sS'query_time'
p21
F0.9129579067230225
sS'comp_time'
p22
F6.794929504394531e-05
sS'exec_cq'
p23
I4
sS'total_cq'
p24
I6
sasS'total_cqs'
p25
I6
ssI3
(dp26
S'iters'
p27
I12
sS'meta'
p28
(lp29
(dp30
S'objective'
p31
I433
sS'query_time'
p32
F0.0454258918762207
sS'comp_time'
p33
F0.00013494491577148438
sS'exec_cq'
p34
I1
sS'total_cq'
p35
I33
sa(dp36
g31
I315
sg32
F0.9240999221801758
sg33
F0.00017118453979492188
sg34
I1
sg35
I30
sa(dp37
g31
I346
sg32
F0.007228851318359375
sg33
F7.82012939453125e-05
sg34
I1
sg35
I27
sa(dp38
g31
I290
sg32
F0.020277023315429688
sg33
F8.606910705566406e-05
sg34
I1
sg35
I26
sa(dp39
g31
I261
sg32
F0.018458843231201172
sg33
F8.177757263183594e-05
sg34
I1
sg35
I24
sa(dp40
g31
I231
sg32
F20.017441034317017
sg33
F9.512901306152344e-05
sg34
I3
sg35
I21
sa(dp41
g31
I218
sg32
F0.012929201126098633
sg33
F7.605552673339844e-05
sg34
I3
sg35
I18
sa(dp42
g31
I177
sg32
F0.010058879852294922
sg33
F6.29425048828125e-05
sg34
I4
sg35
I17
sa(dp43
g31
I135
sg32
F0.07099199295043945
sg33
F8.368492126464844e-05
sg34
I4
sg35
I15
sa(dp44
g31
I138
sg32
F0.16107797622680664
sg33
F0.0001430511474609375
sg34
I4
sg35
I13
sa(dp45
g31
I129
sg32
F0.0375669002532959
sg33
F7.081031799316406e-05
sg34
I4
sg35
I12
sa(dp46
g31
I122
sg32
F0.1675260066986084
sg33
F7.605552673339844e-05
sg34
I4
sg35
I11
sasS'total_cqs'
p47
I33
ssI4
(dp48
S'iters'
p49
I0
sS'meta'
p50
(lp51
sS'total_cqs'
p52
I1
ssI5
(dp53
S'iters'
p54
I0
sS'meta'
p55
(lp56
sS'total_cqs'
p57
I1
ssI6
(dp58
S'iters'
p59
I3
sS'meta'
p60
(lp61
(dp62
S'objective'
p63
I3
sS'query_time'
p64
F12.786993980407715
sS'comp_time'
p65
F0.00010585784912109375
sS'exec_cq'
p66
I1
sS'total_cq'
p67
I5
sa(dp68
g63
I1
sg64
F4.914062976837158
sg65
F9.775161743164062e-05
sg66
I1
sg67
I3
sa(dp69
g63
I1
sg64
F0.010667085647583008
sg65
F6.699562072753906e-05
sg66
I1
sg67
I2
sasS'total_cqs'
p70
I5
ssI7
(dp71
S'iters'
p72
I0
sS'meta'
p73
(lp74
sS'total_cqs'
p75
I1
ssI8
(dp76
S'iters'
p77
I4
sS'meta'
p78
(lp79
(dp80
S'objective'
p81
I17
sS'query_time'
p82
F42.138535022735596
sS'comp_time'
p83
F0.0004279613494873047
sS'exec_cq'
p84
I3
sS'total_cq'
p85
I6
sa(dp86
g81
I1
sg82
F1.7104570865631104
sg83
F0.00024008750915527344
sg84
I2
sg85
I5
sa(dp87
g81
I1
sg82
F0.004168033599853516
sg83
F8.702278137207031e-05
sg84
I1
sg85
I3
sa(dp88
g81
I2
sg82
F0.0025060176849365234
sg83
F8.487701416015625e-05
sg84
I1
sg85
I2
sasS'total_cqs'
p89
I6
ssI9
(dp90
S'iters'
p91
I3
sS'meta'
p92
(lp93
(dp94
S'objective'
p95
I1
sS'query_time'
p96
F7.698359966278076
sS'comp_time'
p97
F9.489059448242188e-05
sS'exec_cq'
p98
I1
sS'total_cq'
p99
I6
sa(dp100
g95
I2
sg96
F1.3586180210113525
sg97
F8.296966552734375e-05
sg98
I1
sg99
I4
sa(dp101
g95
I0
sg96
F0.8171501159667969
sg97
F0.0002510547637939453
sg98
I1
sg99
I3
sasS'total_cqs'
p102
I6
ssI10
(dp103
S'iters'
p104
I0
sS'meta'
p105
(lp106
sS'total_cqs'
p107
I1
ssI11
(dp108
S'iters'
p109
I0
sS'meta'
p110
(lp111
sS'total_cqs'
p112
I1
ssI12
(dp113
S'iters'
p114
I0
sS'meta'
p115
(lp116
sS'total_cqs'
p117
I1
ssI13
(dp118
S'iters'
p119
I1
sS'meta'
p120
(lp121
(dp122
S'objective'
p123
I30
sS'query_time'
p124
F0.1665639877319336
sS'comp_time'
p125
F9.059906005859375e-05
sS'exec_cq'
p126
I6
sS'total_cq'
p127
I8
sasS'total_cqs'
p128
I8
ssI14
(dp129
S'iters'
p130
I2
sS'meta'
p131
(lp132
(dp133
S'objective'
p134
I5
sS'query_time'
p135
F0.019632816314697266
sS'comp_time'
p136
F7.796287536621094e-05
sS'exec_cq'
p137
I1
sS'total_cq'
p138
I5
sa(dp139
g134
I4
sg135
F1.0473191738128662
sg136
F8.797645568847656e-05
sg137
I2
sg138
I4
sasS'total_cqs'
p140
I5
ssI16
(dp141
S'iters'
p142
I3
sS'meta'
p143
(lp144
(dp145
S'objective'
p146
I3
sS'query_time'
p147
F9.514755010604858
sS'comp_time'
p148
F8.416175842285156e-05
sS'exec_cq'
p149
I1
sS'total_cq'
p150
I5
sa(dp151
g146
I1
sg147
F0.039453983306884766
sg148
F7.510185241699219e-05
sg149
I1
sg150
I3
sa(dp152
g146
I1
sg147
F0.03818106651306152
sg148
F7.104873657226562e-05
sg149
I1
sg150
I2
sasS'total_cqs'
p153
I5
ssI17
(dp154
S'iters'
p155
I0
sS'meta'
p156
(lp157
sS'total_cqs'
p158
I1
ssI18
(dp159
S'iters'
p160
I3
sS'meta'
p161
(lp162
(dp163
S'objective'
p164
I3
sS'query_time'
p165
F5.043856143951416
sS'comp_time'
p166
F0.00010991096496582031
sS'exec_cq'
p167
I1
sS'total_cq'
p168
I5
sa(dp169
g164
I1
sg165
F0.10819196701049805
sg166
F7.987022399902344e-05
sg167
I1
sg168
I3
sa(dp170
g164
I1
sg165
F0.02527904510498047
sg166
F5.602836608886719e-05
sg167
I1
sg168
I2
sasS'total_cqs'
p171
I5
ssI19
(dp172
S'iters'
p173
I0
sS'meta'
p174
(lp175
sS'total_cqs'
p176
I1
ssI20
(dp177
S'iters'
p178
I6
sS'meta'
p179
(lp180
(dp181
S'objective'
p182
I50
sS'query_time'
p183
F7.908941030502319
sS'comp_time'
p184
F0.0001068115234375
sS'exec_cq'
p185
I1
sS'total_cq'
p186
I12
sa(dp187
g182
I42
sg183
F2.963521957397461
sg184
F0.0003008842468261719
sg185
I1
sg186
I10
sa(dp188
g182
I31
sg183
F0.015885114669799805
sg184
F0.00010585784912109375
sg185
I1
sg186
I9
sa(dp189
g182
I24
sg183
F0.9416658878326416
sg184
F8.177757263183594e-05
sg185
I1
sg186
I7
sa(dp190
g182
I21
sg183
F0.004363059997558594
sg184
F7.176399230957031e-05
sg185
I3
sg186
I6
sa(dp191
g182
I19
sg183
F0.10293793678283691
sg184
F7.319450378417969e-05
sg185
I4
sg186
I5
sasS'total_cqs'
p192
I12
ssI21
(dp193
S'iters'
p194
I5
sS'meta'
p195
(lp196
(dp197
S'objective'
p198
I27
sS'query_time'
p199
F0.8107287883758545
sS'comp_time'
p200
F8.797645568847656e-05
sS'exec_cq'
p201
I1
sS'total_cq'
p202
I14
sa(dp203
g198
I42
sg199
F16.292556047439575
sg200
F0.0002200603485107422
sg201
I1
sg202
I10
sa(dp204
g198
I20
sg199
F0.4473750591278076
sg200
F7.486343383789062e-05
sg201
I1
sg202
I9
sa(dp205
g198
I3
sg199
F1.6490399837493896
sg200
F0.0001537799835205078
sg201
I1
sg202
I7
sa(dp206
g198
I10
sg199
F25.181023120880127
sg200
F0.0005340576171875
sg201
I2
sg202
I5
sasS'total_cqs'
p207
I14
ssI22
(dp208
S'iters'
p209
I1
sS'meta'
p210
(lp211
(dp212
S'objective'
p213
I1
sS'query_time'
p214
F0.004293203353881836
sS'comp_time'
p215
F7.104873657226562e-05
sS'exec_cq'
p216
I1
sS'total_cq'
p217
I2
sasS'total_cqs'
p218
I2
ssI23
(dp219
S'iters'
p220
I0
sS'meta'
p221
(lp222
sS'total_cqs'
p223
I1
ssI24
(dp224
S'iters'
p225
I0
sS'meta'
p226
(lp227
sS'total_cqs'
p228
I1
ssI25
(dp229
S'iters'
p230
I3
sS'meta'
p231
(lp232
(dp233
S'objective'
p234
I8
sS'query_time'
p235
F26.780706882476807
sS'comp_time'
p236
F0.00018787384033203125
sS'exec_cq'
p237
I2
sS'total_cq'
p238
I7
sa(dp239
g234
I8
sg235
F8.072297096252441
sg236
F0.00028824806213378906
sg237
I2
sg238
I5
sa(dp240
g234
I7
sg235
F0.187697172164917
sg236
F7.200241088867188e-05
sg237
I2
sg238
I4
sasS'total_cqs'
p241
I7
ssI26
(dp242
S'iters'
p243
I9
sS'meta'
p244
(lp245
(dp246
S'objective'
p247
I65
sS'query_time'
p248
F0.0714259147644043
sS'comp_time'
p249
F7.486343383789062e-05
sS'exec_cq'
p250
I1
sS'total_cq'
p251
I13
sa(dp252
g247
I54
sg248
F7.6190760135650635
sg249
F0.00010895729064941406
sg250
I1
sg251
I12
sa(dp253
g247
I44
sg248
F0.027323007583618164
sg249
F7.104873657226562e-05
sg250
I1
sg251
I11
sa(dp254
g247
I35
sg248
F0.030299901962280273
sg249
F6.794929504394531e-05
sg250
I1
sg251
I10
sa(dp255
g247
I27
sg248
F0.0635530948638916
sg249
F7.796287536621094e-05
sg250
I1
sg251
I9
sa(dp256
g247
I20
sg248
F0.023006916046142578
sg249
F6.413459777832031e-05
sg250
I1
sg251
I8
sa(dp257
g247
I14
sg248
F0.027451038360595703
sg249
F7.915496826171875e-05
sg250
I1
sg251
I7
sa(dp258
g247
I9
sg248
F18.378479957580566
sg249
F0.0002422332763671875
sg250
I1
sg251
I6
sa(dp259
g247
I5
sg248
F0.004384040832519531
sg249
F4.482269287109375e-05
sg250
I1
sg251
I5
sasS'total_cqs'
p260
I13
ssI27
(dp261
S'iters'
p262
I1
sS'meta'
p263
(lp264
(dp265
S'objective'
p266
I1
sS'query_time'
p267
F0.14632296562194824
sS'comp_time'
p268
F6.890296936035156e-05
sS'exec_cq'
p269
I1
sS'total_cq'
p270
I2
sasS'total_cqs'
p271
I2
ssI28
(dp272
S'iters'
p273
I7
sS'meta'
p274
(lp275
(dp276
S'objective'
p277
I53
sS'query_time'
p278
F3.015822172164917
sS'comp_time'
p279
F9.489059448242188e-05
sS'exec_cq'
p280
I1
sS'total_cq'
p281
I14
sa(dp282
g277
I53
sg278
F1.895266056060791
sg279
F0.00010991096496582031
sg280
I1
sg281
I12
sa(dp283
g277
I30
sg278
F1.3730289936065674
sg279
F0.00010013580322265625
sg280
I1
sg281
I11
sa(dp284
g277
I8
sg278
F0.8688449859619141
sg279
F0.0001251697540283203
sg280
I1
sg281
I9
sa(dp285
g277
I10
sg278
F0.6916041374206543
sg279
F8.487701416015625e-05
sg280
I1
sg281
I6
sa(dp286
g277
I3
sg278
F0.513077974319458
sg279
F0.00010991096496582031
sg280
I1
sg281
I5
sa(dp287
g277
I1
sg278
F0.35611605644226074
sg279
F0.00010609626770019531
sg280
I1
sg281
I4
sasS'total_cqs'
p288
I14
ssI29
(dp289
S'iters'
p290
I1
sS'meta'
p291
(lp292
(dp293
S'objective'
p294
I1
sS'query_time'
p295
F0.005281925201416016
sS'comp_time'
p296
F8.296966552734375e-05
sS'exec_cq'
p297
I1
sS'total_cq'
p298
I2
sasS'total_cqs'
p299
I2
ssI30
(dp300
S'iters'
p301
I1
sS'meta'
p302
(lp303
(dp304
S'objective'
p305
I1
sS'query_time'
p306
F0.383281946182251
sS'comp_time'
p307
F7.081031799316406e-05
sS'exec_cq'
p308
I1
sS'total_cq'
p309
I2
sasS'total_cqs'
p310
I2
ssI31
(dp311
S'iters'
p312
I5
sS'meta'
p313
(lp314
(dp315
S'objective'
p316
I23
sS'query_time'
p317
F4.604042053222656
sS'comp_time'
p318
F9.298324584960938e-05
sS'exec_cq'
p319
I1
sS'total_cq'
p320
I9
sa(dp321
g316
I18
sg317
F0.006016969680786133
sg318
F6.29425048828125e-05
sg319
I1
sg320
I7
sa(dp322
g316
I8
sg317
F3.9966719150543213
sg318
F7.891654968261719e-05
sg319
I1
sg320
I6
sa(dp323
g316
I3
sg317
F20.239118814468384
sg318
F0.0001430511474609375
sg319
I1
sg320
I3
sa(dp324
g316
I2
sg317
F2.622342109680176
sg318
F0.0001437664031982422
sg319
I1
sg320
I2
sasS'total_cqs'
p325
I9
ssI32
(dp326
S'iters'
p327
I5
sS'meta'
p328
(lp329
(dp330
S'objective'
p331
I14
sS'query_time'
p332
F2.183237075805664
sS'comp_time'
p333
F0.0005218982696533203
sS'exec_cq'
p334
I1
sS'total_cq'
p335
I7
sa(dp336
g331
I9
sg332
F1.7304081916809082
sg333
F0.00011014938354492188
sg334
I1
sg335
I6
sa(dp337
g331
I5
sg332
F8.753711938858032
sg333
F0.0002560615539550781
sg334
I1
sg335
I5
sa(dp338
g331
I2
sg332
F0.8862380981445312
sg333
F0.0002529621124267578
sg334
I1
sg335
I4
sa(dp339
g331
I2
sg332
F0.10308218002319336
sg333
F5.316734313964844e-05
sg334
I1
sg335
I2
sasS'total_cqs'
p340
I7
ssI33
(dp341
S'iters'
p342
I1
sS'meta'
p343
(lp344
(dp345
S'objective'
p346
I1
sS'query_time'
p347
F0.029780864715576172
sS'comp_time'
p348
F7.081031799316406e-05
sS'exec_cq'
p349
I1
sS'total_cq'
p350
I2
sasS'total_cqs'
p351
I2
ssI34
(dp352
S'iters'
p353
I0
sS'meta'
p354
(lp355
sS'total_cqs'
p356
I1
ssI35
(dp357
S'iters'
p358
I3
sS'meta'
p359
(lp360
(dp361
S'objective'
p362
I3
sS'query_time'
p363
F3.440587043762207
sS'comp_time'
p364
F9.703636169433594e-05
sS'exec_cq'
p365
I1
sS'total_cq'
p366
I5
sa(dp367
g362
I1
sg363
F7.738275051116943
sg364
F0.00033283233642578125
sg365
I1
sg366
I3
sa(dp368
g362
I1
sg363
F0.05555987358093262
sg364
F5.817413330078125e-05
sg365
I1
sg366
I2
sasS'total_cqs'
p369
I5
ssI37
(dp370
S'iters'
p371
I6
sS'meta'
p372
(lp373
(dp374
S'objective'
p375
I37
sS'query_time'
p376
F0.019013166427612305
sS'comp_time'
p377
F9.822845458984375e-05
sS'exec_cq'
p378
I2
sS'total_cq'
p379
I10
sa(dp380
g375
I30
sg376
F0.38742613792419434
sg377
F8.511543273925781e-05
sg378
I2
sg379
I9
sa(dp381
g375
I24
sg376
F0.005216836929321289
sg377
F8.511543273925781e-05
sg378
I2
sg379
I8
sa(dp382
g375
I19
sg376
F0.6891939640045166
sg377
F7.987022399902344e-05
sg378
I2
sg379
I7
sa(dp383
g375
I15
sg376
F0.68007493019104
sg377
F7.104873657226562e-05
sg378
I2
sg379
I6
sa(dp384
g375
I12
sg376
F0.35353803634643555
sg377
F7.414817810058594e-05
sg378
I2
sg379
I5
sasS'total_cqs'
p385
I10
ssI38
(dp386
S'iters'
p387
I0
sS'meta'
p388
(lp389
sS'total_cqs'
p390
I1
ssI39
(dp391
S'iters'
p392
I0
sS'meta'
p393
(lp394
sS'total_cqs'
p395
I1
ssI40
(dp396
S'iters'
p397
I1
sS'meta'
p398
(lp399
(dp400
S'objective'
p401
I1
sS'query_time'
p402
F17.708906888961792
sS'comp_time'
p403
F0.0002300739288330078
sS'exec_cq'
p404
I2
sS'total_cq'
p405
I2
sasS'total_cqs'
p406
I2
ssI41
(dp407
S'iters'
p408
I4
sS'meta'
p409
(lp410
(dp411
S'objective'
p412
I9
sS'query_time'
p413
F9.905189037322998
sS'comp_time'
p414
F8.487701416015625e-05
sS'exec_cq'
p415
I1
sS'total_cq'
p416
I6
sa(dp417
g412
I5
sg413
F0.9097540378570557
sg414
F7.700920104980469e-05
sg415
I1
sg416
I5
sa(dp418
g412
I2
sg413
F0.17394089698791504
sg414
F6.508827209472656e-05
sg415
I1
sg416
I4
sa(dp419
g412
I0
sg413
F0.062081098556518555
sg414
F7.510185241699219e-05
sg415
I1
sg416
I3
sasS'total_cqs'
p420
I6
ssI42
(dp421
S'iters'
p422
I1
sS'meta'
p423
(lp424
(dp425
S'objective'
p426
I1
sS'query_time'
p427
F0.010601997375488281
sS'comp_time'
p428
F7.319450378417969e-05
sS'exec_cq'
p429
I1
sS'total_cq'
p430
I2
sasS'total_cqs'
p431
I2
ssI43
(dp432
S'iters'
p433
I0
sS'meta'
p434
(lp435
sS'total_cqs'
p436
I1
ssI44
(dp437
S'iters'
p438
I3
sS'meta'
p439
(lp440
(dp441
S'objective'
p442
I5
sS'query_time'
p443
F1.3143301010131836
sS'comp_time'
p444
F7.700920104980469e-05
sS'exec_cq'
p445
I1
sS'total_cq'
p446
I5
sa(dp447
g442
I2
sg443
F0.921781063079834
sg444
F0.0001227855682373047
sg445
I1
sg446
I4
sa(dp448
g442
I2
sg443
F0.003885984420776367
sg444
F7.200241088867188e-05
sg445
I1
sg446
I2
sasS'total_cqs'
p449
I5
ssI45
(dp450
S'iters'
p451
I2
sS'meta'
p452
(lp453
(dp454
S'objective'
p455
I1
sS'query_time'
p456
F0.3590729236602783
sS'comp_time'
p457
F0.00010609626770019531
sS'exec_cq'
p458
I1
sS'total_cq'
p459
I5
sa(dp460
g455
I2
sg456
F6.92743992805481
sg457
F0.00012493133544921875
sg458
I1
sg459
I2
sasS'total_cqs'
p461
I5
ssI46
(dp462
S'iters'
p463
I0
sS'meta'
p464
(lp465
sS'total_cqs'
p466
I1
ssI47
(dp467
S'iters'
p468
I0
sS'meta'
p469
(lp470
sS'total_cqs'
p471
I1
ssI48
(dp472
S'iters'
p473
I1
sS'meta'
p474
(lp475
(dp476
S'objective'
p477
I1
sS'query_time'
p478
F0.11908411979675293
sS'comp_time'
p479
F8.487701416015625e-05
sS'exec_cq'
p480
I1
sS'total_cq'
p481
I2
sasS'total_cqs'
p482
I2
ssI49
(dp483
S'iters'
p484
I2
sS'meta'
p485
(lp486
(dp487
S'objective'
p488
I7
sS'query_time'
p489
F5.462695121765137
sS'comp_time'
p490
F0.00011992454528808594
sS'exec_cq'
p491
I2
sS'total_cq'
p492
I5
sa(dp493
g488
I5
sg489
F0.0848228931427002
sg490
F0.00010800361633300781
sg491
I2
sg492
I4
sasS'total_cqs'
p494
I5
ssI50
(dp495
S'iters'
p496
I3
sS'meta'
p497
(lp498
(dp499
S'objective'
p500
I5
sS'query_time'
p501
F0.00878596305847168
sS'comp_time'
p502
F7.295608520507812e-05
sS'exec_cq'
p503
I1
sS'total_cq'
p504
I5
sa(dp505
g500
I2
sg501
F0.20773696899414062
sg502
F0.00010180473327636719
sg503
I1
sg504
I4
sa(dp506
g500
I0
sg501
F0.9827971458435059
sg502
F9.584426879882812e-05
sg503
I1
sg504
I3
sasS'total_cqs'
p507
I5
ssI51
(dp508
S'iters'
p509
I0
sS'meta'
p510
(lp511
sS'total_cqs'
p512
I1
ssI52
(dp513
S'iters'
p514
I0
sS'meta'
p515
(lp516
sS'total_cqs'
p517
I1
ssI53
(dp518
S'iters'
p519
I0
sS'meta'
p520
(lp521
sS'total_cqs'
p522
I1
ssI55
(dp523
S'iters'
p524
I1
sS'meta'
p525
(lp526
(dp527
S'objective'
p528
I1
sS'query_time'
p529
F25.916786909103394
sS'comp_time'
p530
F0.00011181831359863281
sS'exec_cq'
p531
I1
sS'total_cq'
p532
I2
sasS'total_cqs'
p533
I2
ssI56
(dp534
S'iters'
p535
I0
sS'meta'
p536
(lp537
sS'total_cqs'
p538
I1
ssI57
(dp539
S'iters'
p540
I1
sS'meta'
p541
(lp542
(dp543
S'objective'
p544
I2
sS'query_time'
p545
F12.303953170776367
sS'comp_time'
p546
F0.0001800060272216797
sS'exec_cq'
p547
I2
sS'total_cq'
p548
I3
sasS'total_cqs'
p549
I3
ssI108
(dp550
S'iters'
p551
I0
sS'meta'
p552
(lp553
sS'total_cqs'
p554
I1
ssI109
(dp555
S'iters'
p556
I0
sS'meta'
p557
(lp558
sS'total_cqs'
p559
I1
ssI116
(dp560
S'iters'
p561
I4
sS'meta'
p562
(lp563
(dp564
S'objective'
p565
I191
sS'query_time'
p566
F0.1563410758972168
sS'comp_time'
p567
F7.081031799316406e-05
sS'exec_cq'
p568
I2
sS'total_cq'
p569
I21
sa(dp570
g565
I173
sg566
F1.1473360061645508
sg567
F9.393692016601562e-05
sg568
I3
sg569
I20
sa(dp571
g565
I158
sg566
F0.14159798622131348
sg567
F9.72747802734375e-05
sg568
I3
sg569
I18
sa(dp572
g565
I161
sg566
F0.24565720558166504
sg567
F0.00011920928955078125
sg568
I12
sg569
I17
sasS'total_cqs'
p573
I21
ssI117
(dp574
S'iters'
p575
I1
sS'meta'
p576
(lp577
(dp578
S'objective'
p579
I9
sS'query_time'
p580
F0.006402015686035156
sS'comp_time'
p581
F7.104873657226562e-05
sS'exec_cq'
p582
I3
sS'total_cq'
p583
I5
sasS'total_cqs'
p584
I5
ssI118
(dp585
S'iters'
p586
I0
sS'meta'
p587
(lp588
sS'total_cqs'
p589
I1
ssI122
(dp590
S'iters'
p591
I0
sS'meta'
p592
(lp593
sS'total_cqs'
p594
I1
ss.