(dp0
I1
(dp1
S'iters'
p2
I2
sS'meta'
p3
(lp4
(dp5
S'objective'
p6
I7
sS'query_time'
p7
F17.435773849487305
sS'comp_time'
p8
F0.7023160457611084
sS'exec_cq'
p9
I3
sS'total_cq'
p10
I6
sa(dp11
g6
I5
sg7
F0.16140198707580566
sg8
F0.6441607475280762
sg9
I2
sg10
I2
sasS'total_cqs'
p12
I6
ssI2
(dp13
S'iters'
p14
I1
sS'meta'
p15
(lp16
(dp17
S'objective'
p18
I9
sS'query_time'
p19
F0.9466879367828369
sS'comp_time'
p20
F0.27852821350097656
sS'exec_cq'
p21
I2
sS'total_cq'
p22
I6
sasS'total_cqs'
p23
I6
ssI3
(dp24
S'iters'
p25
I6
sS'meta'
p26
(lp27
(dp28
S'objective'
p29
I403
sS'query_time'
p30
F26.223896026611328
sS'comp_time'
p31
F0.48664236068725586
sS'exec_cq'
p32
I15
sS'total_cq'
p33
I33
sa(dp34
g29
I362
sg30
F0.44141697883605957
sg31
F0.01996135711669922
sg32
I13
sg33
I30
sa(dp35
g29
I336
sg30
F0.012660980224609375
sg31
F0.14828109741210938
sg32
I12
sg33
I27
sa(dp36
g29
I273
sg30
F0.004052877426147461
sg31
F0.020877599716186523
sg32
I10
sg33
I24
sa(dp37
g29
I246
sg30
F0.009568929672241211
sg31
F0.13088536262512207
sg32
I9
sg33
I21
sa(dp38
g29
I220
sg30
F0.002753019332885742
sg31
F0.016129016876220703
sg32
I7
sg33
I18
sasS'total_cqs'
p39
I33
ssI4
(dp40
S'iters'
p41
I0
sS'meta'
p42
(lp43
sS'total_cqs'
p44
I1
ssI5
(dp45
S'iters'
p46
I0
sS'meta'
p47
(lp48
sS'total_cqs'
p49
I1
ssI6
(dp50
S'iters'
p51
I2
sS'meta'
p52
(lp53
(dp54
S'objective'
p55
I1
sS'query_time'
p56
F14.841997146606445
sS'comp_time'
p57
F0.006417036056518555
sS'exec_cq'
p58
I4
sS'total_cq'
p59
I5
sa(dp60
g55
I2
sg56
F0.00024700164794921875
sg57
F0.0013246536254882812
sg58
I2
sg59
I2
sasS'total_cqs'
p61
I5
ssI7
(dp62
S'iters'
p63
I0
sS'meta'
p64
(lp65
sS'total_cqs'
p66
I1
ssI8
(dp67
S'iters'
p68
I2
sS'meta'
p69
(lp70
(dp71
S'objective'
p72
I13
sS'query_time'
p73
F23.48037099838257
sS'comp_time'
p74
F0.287111759185791
sS'exec_cq'
p75
I5
sS'total_cq'
p76
I6
sa(dp77
g72
I5
sg73
F0.08202004432678223
sg74
F0.08100485801696777
sg75
I4
sg76
I5
sasS'total_cqs'
p78
I6
ssI9
(dp79
S'iters'
p80
I2
sS'meta'
p81
(lp82
(dp83
S'objective'
p84
I3
sS'query_time'
p85
F12.47350811958313
sS'comp_time'
p86
F0.7007930278778076
sS'exec_cq'
p87
I3
sS'total_cq'
p88
I6
sa(dp89
g84
I3
sg85
F0.06568408012390137
sg86
F0.5658080577850342
sg87
I3
sg88
I3
sasS'total_cqs'
p90
I6
ssI10
(dp91
S'iters'
p92
I0
sS'meta'
p93
(lp94
sS'total_cqs'
p95
I1
ssI11
(dp96
S'iters'
p97
I0
sS'meta'
p98
(lp99
sS'total_cqs'
p100
I1
ssI12
(dp101
S'iters'
p102
I0
sS'meta'
p103
(lp104
sS'total_cqs'
p105
I1
ssI13
(dp106
S'iters'
p107
I1
sS'meta'
p108
(lp109
(dp110
S'objective'
p111
I20
sS'query_time'
p112
F0.030569076538085938
sS'comp_time'
p113
F0.008331537246704102
sS'exec_cq'
p114
I6
sS'total_cq'
p115
I8
sasS'total_cqs'
p116
I8
ssI14
(dp117
S'iters'
p118
I1
sS'meta'
p119
(lp120
(dp121
S'objective'
p122
I5
sS'query_time'
p123
F0.9705469608306885
sS'comp_time'
p124
F0.008511066436767578
sS'exec_cq'
p125
I5
sS'total_cq'
p126
I5
sasS'total_cqs'
p127
I5
ssI16
(dp128
S'iters'
p129
I2
sS'meta'
p130
(lp131
(dp132
S'objective'
p133
I1
sS'query_time'
p134
F1.5258281230926514
sS'comp_time'
p135
F0.010793924331665039
sS'exec_cq'
p136
I4
sS'total_cq'
p137
I5
sa(dp138
g133
I3
sg134
F0.0011150836944580078
sg135
F0.006459236145019531
sg136
I2
sg137
I2
sasS'total_cqs'
p139
I5
ssI17
(dp140
S'iters'
p141
I0
sS'meta'
p142
(lp143
sS'total_cqs'
p144
I1
ssI18
(dp145
S'iters'
p146
I3
sS'meta'
p147
(lp148
(dp149
S'objective'
p150
I1
sS'query_time'
p151
F0.18828392028808594
sS'comp_time'
p152
F0.003984928131103516
sS'exec_cq'
p153
I4
sS'total_cq'
p154
I5
sa(dp155
g150
I4
sg151
F3.910064697265625e-05
sg152
F0.0002923011779785156
sg153
I2
sg154
I3
sa(dp156
g150
I4
sg151
F0.04327392578125
sg152
F0.00019097328186035156
sg153
I1
sg154
I2
sasS'total_cqs'
p157
I5
ssI19
(dp158
S'iters'
p159
I0
sS'meta'
p160
(lp161
sS'total_cqs'
p162
I1
ssI20
(dp163
S'iters'
p164
I4
sS'meta'
p165
(lp166
(dp167
S'objective'
p168
I50
sS'query_time'
p169
F9.748934984207153
sS'comp_time'
p170
F1.4163322448730469
sS'exec_cq'
p171
I6
sS'total_cq'
p172
I12
sa(dp173
g168
I30
sg169
F4.0919530391693115
sg170
F0.4682643413543701
sg171
I4
sg172
I10
sa(dp174
g168
I25
sg169
F0.16358399391174316
sg170
F1.1271779537200928
sg171
I4
sg172
I8
sa(dp175
g168
I12
sg169
F0.10671710968017578
sg170
F0.00607609748840332
sg171
I1
sg172
I6
sasS'total_cqs'
p176
I12
ssI21
(dp177
S'iters'
p178
I4
sS'meta'
p179
(lp180
(dp181
S'objective'
p182
I37
sS'query_time'
p183
F31.607518196105957
sS'comp_time'
p184
F0.414355993270874
sS'exec_cq'
p185
I8
sS'total_cq'
p186
I14
sa(dp187
g182
I9
sg183
F29.732038974761963
sg184
F1.7788972854614258
sg185
I4
sg186
I10
sa(dp188
g182
I18
sg183
F0.009436845779418945
sg184
F0.06567025184631348
sg185
I4
sg186
I6
sa(dp189
g182
I1
sg183
F0.013957977294921875
sg184
F0.00018310546875
sg185
I1
sg186
I4
sasS'total_cqs'
p190
I14
ssI22
(dp191
S'iters'
p192
I1
sS'meta'
p193
(lp194
(dp195
S'objective'
p196
I1
sS'query_time'
p197
F0.005991935729980469
sS'comp_time'
p198
F0.0012819766998291016
sS'exec_cq'
p199
I1
sS'total_cq'
p200
I2
sasS'total_cqs'
p201
I2
ssI23
(dp202
S'iters'
p203
I0
sS'meta'
p204
(lp205
sS'total_cqs'
p206
I1
ssI24
(dp207
S'iters'
p208
I0
sS'meta'
p209
(lp210
sS'total_cqs'
p211
I1
ssI25
(dp212
S'iters'
p213
I4
sS'meta'
p214
(lp215
(dp216
S'objective'
p217
I16
sS'query_time'
p218
F49.49089002609253
sS'comp_time'
p219
F4.9455578327178955
sS'exec_cq'
p220
I4
sS'total_cq'
p221
I7
sa(dp222
g217
I6
sg218
F4.3416218757629395
sg219
F0.38137221336364746
sg220
I2
sg221
I5
sa(dp223
g217
I2
sg218
F0.012386798858642578
sg219
F0.04961204528808594
sg220
I2
sg221
I3
sa(dp224
g217
I6
sg218
F0.007830142974853516
sg219
F0.046678781509399414
sg220
I1
sg221
I2
sasS'total_cqs'
p225
I7
ssI26
(dp226
S'iters'
p227
I6
sS'meta'
p228
(lp229
(dp230
S'objective'
p231
I67
sS'query_time'
p232
F23.368216037750244
sS'comp_time'
p233
F5.044931173324585
sS'exec_cq'
p234
I3
sS'total_cq'
p235
I13
sa(dp236
g231
I51
sg232
F0.15707087516784668
sg233
F0.01058197021484375
sg234
I4
sg235
I12
sa(dp237
g231
I33
sg232
F3.083745002746582
sg233
F0.014990568161010742
sg234
I2
sg235
I10
sa(dp238
g231
I33
sg232
F1.082550048828125
sg233
F5.157104015350342
sg234
I2
sg235
I8
sa(dp239
g231
I13
sg232
F0.013935089111328125
sg233
F0.00018978118896484375
sg234
I2
sg235
I7
sa(dp240
g231
I1
sg232
F0.002477884292602539
sg233
F9.918212890625e-05
sg234
I1
sg235
I5
sasS'total_cqs'
p241
I13
ssI27
(dp242
S'iters'
p243
I1
sS'meta'
p244
(lp245
(dp246
S'objective'
p247
I1
sS'query_time'
p248
F0.1767868995666504
sS'comp_time'
p249
F0.007754087448120117
sS'exec_cq'
p250
I1
sS'total_cq'
p251
I2
sasS'total_cqs'
p252
I2
ssI28
(dp253
S'iters'
p254
I3
sS'meta'
p255
(lp256
(dp257
S'objective'
p258
I65
sS'query_time'
p259
F1.8166260719299316
sS'comp_time'
p260
F0.13043594360351562
sS'exec_cq'
p261
I6
sS'total_cq'
p262
I14
sa(dp263
g258
I61
sg259
F0.005263090133666992
sg260
F0.0004050731658935547
sg261
I2
sg262
I11
sa(dp264
g258
I45
sg259
F0.0023119449615478516
sg260
F0.00012302398681640625
sg261
I1
sg262
I10
sasS'total_cqs'
p265
I14
ssI29
(dp266
S'iters'
p267
I1
sS'meta'
p268
(lp269
(dp270
S'objective'
p271
I1
sS'query_time'
p272
F0.030534029006958008
sS'comp_time'
p273
F0.002907276153564453
sS'exec_cq'
p274
I2
sS'total_cq'
p275
I2
sasS'total_cqs'
p276
I2
ssI30
(dp277
S'iters'
p278
I1
sS'meta'
p279
(lp280
(dp281
S'objective'
p282
I1
sS'query_time'
p283
F0.44445180892944336
sS'comp_time'
p284
F0.005377054214477539
sS'exec_cq'
p285
I2
sS'total_cq'
p286
I2
sasS'total_cqs'
p287
I2
ssI31
(dp288
S'iters'
p289
I2
sS'meta'
p290
(lp291
(dp292
S'objective'
p293
I7
sS'query_time'
p294
F1.751281976699829
sS'comp_time'
p295
F0.04971909523010254
sS'exec_cq'
p296
I5
sS'total_cq'
p297
I9
sa(dp298
g293
I1
sg294
F0.008424997329711914
sg295
F0.13036680221557617
sg296
I3
sg297
I3
sasS'total_cqs'
p299
I9
ssI32
(dp300
S'iters'
p301
I2
sS'meta'
p302
(lp303
(dp304
S'objective'
p305
I0
sS'query_time'
p306
F20.342516899108887
sS'comp_time'
p307
F4.441756725311279
sS'exec_cq'
p308
I4
sS'total_cq'
p309
I7
sa(dp310
g305
I0
sg306
F0.07815694808959961
sg307
F0.002588033676147461
sg308
I1
sg309
I4
sasS'total_cqs'
p311
I7
ssI33
(dp312
S'iters'
p313
I1
sS'meta'
p314
(lp315
(dp316
S'objective'
p317
I1
sS'query_time'
p318
F0.024901866912841797
sS'comp_time'
p319
F0.0017328262329101562
sS'exec_cq'
p320
I2
sS'total_cq'
p321
I2
sasS'total_cqs'
p322
I2
ssI34
(dp323
S'iters'
p324
I0
sS'meta'
p325
(lp326
sS'total_cqs'
p327
I1
ssI35
(dp328
S'iters'
p329
I2
sS'meta'
p330
(lp331
(dp332
S'objective'
p333
I1
sS'query_time'
p334
F13.643848180770874
sS'comp_time'
p335
F0.2935030460357666
sS'exec_cq'
p336
I4
sS'total_cq'
p337
I5
sa(dp338
g333
I2
sg334
F0.1042318344116211
sg335
F0.315263032913208
sg336
I3
sg337
I3
sasS'total_cqs'
p339
I5
ssI37
(dp340
S'iters'
p341
I2
sS'meta'
p342
(lp343
(dp344
S'objective'
p345
I25
sS'query_time'
p346
F0.6546690464019775
sS'comp_time'
p347
F0.10744595527648926
sS'exec_cq'
p348
I4
sS'total_cq'
p349
I10
sa(dp350
g345
I5
sg346
F0.0061130523681640625
sg347
F0.03076791763305664
sg348
I2
sg349
I2
sasS'total_cqs'
p351
I10
ssI38
(dp352
S'iters'
p353
I0
sS'meta'
p354
(lp355
sS'total_cqs'
p356
I1
ssI39
(dp357
S'iters'
p358
I0
sS'meta'
p359
(lp360
sS'total_cqs'
p361
I1
ssI40
(dp362
S'iters'
p363
I1
sS'meta'
p364
(lp365
(dp366
S'objective'
p367
I1
sS'query_time'
p368
F0.02151012420654297
sS'comp_time'
p369
F0.001260995864868164
sS'exec_cq'
p370
I1
sS'total_cq'
p371
I2
sasS'total_cqs'
p372
I2
ssI41
(dp373
S'iters'
p374
I3
sS'meta'
p375
(lp376
(dp377
S'objective'
p378
I5
sS'query_time'
p379
F10.047487020492554
sS'comp_time'
p380
F1.8356244564056396
sS'exec_cq'
p381
I3
sS'total_cq'
p382
I6
sa(dp383
g378
I3
sg379
F0.6986730098724365
sg380
F0.004221916198730469
sg381
I2
sg382
I4
sa(dp384
g378
I4
sg379
F0.0006089210510253906
sg380
F0.003591775894165039
sg381
I2
sg382
I2
sasS'total_cqs'
p385
I6
ssI42
(dp386
S'iters'
p387
I1
sS'meta'
p388
(lp389
(dp390
S'objective'
p391
I1
sS'query_time'
p392
F0.02723979949951172
sS'comp_time'
p393
F0.0011429786682128906
sS'exec_cq'
p394
I1
sS'total_cq'
p395
I2
sasS'total_cqs'
p396
I2
ssI43
(dp397
S'iters'
p398
I0
sS'meta'
p399
(lp400
sS'total_cqs'
p401
I1
ssI44
(dp402
S'iters'
p403
I3
sS'meta'
p404
(lp405
(dp406
S'objective'
p407
I1
sS'query_time'
p408
F0.3413810729980469
sS'comp_time'
p409
F0.003451108932495117
sS'exec_cq'
p410
I2
sS'total_cq'
p411
I5
sa(dp412
g407
I4
sg408
F1.352024793624878
sg409
F0.18196630477905273
sg410
I2
sg411
I3
sa(dp413
g407
I4
sg408
F0.017993927001953125
sg409
F0.18132543563842773
sg410
I1
sg411
I2
sasS'total_cqs'
p414
I5
ssI45
(dp415
S'iters'
p416
I2
sS'meta'
p417
(lp418
(dp419
S'objective'
p420
I1
sS'query_time'
p421
F0.03218197822570801
sS'comp_time'
p422
F0.00489044189453125
sS'exec_cq'
p423
I3
sS'total_cq'
p424
I5
sa(dp425
g420
I2
sg421
F0.0001499652862548828
sg422
F0.1383497714996338
sg423
I2
sg424
I2
sasS'total_cqs'
p426
I5
ssI46
(dp427
S'iters'
p428
I0
sS'meta'
p429
(lp430
sS'total_cqs'
p431
I1
ssI47
(dp432
S'iters'
p433
I0
sS'meta'
p434
(lp435
sS'total_cqs'
p436
I1
ssI48
(dp437
S'iters'
p438
I1
sS'meta'
p439
(lp440
(dp441
S'objective'
p442
I1
sS'query_time'
p443
F0.1427900791168213
sS'comp_time'
p444
F0.0041697025299072266
sS'exec_cq'
p445
I2
sS'total_cq'
p446
I2
sasS'total_cqs'
p447
I2
ssI49
(dp448
S'iters'
p449
I2
sS'meta'
p450
(lp451
(dp452
S'objective'
p453
I1
sS'query_time'
p454
F0.22564196586608887
sS'comp_time'
p455
F0.00700068473815918
sS'exec_cq'
p456
I4
sS'total_cq'
p457
I5
sa(dp458
g453
I2
sg454
F0.0004551410675048828
sg455
F0.002626657485961914
sg456
I2
sg457
I2
sasS'total_cqs'
p459
I5
ssI50
(dp460
S'iters'
p461
I1
sS'meta'
p462
(lp463
(dp464
S'objective'
p465
I5
sS'query_time'
p466
F0.6678111553192139
sS'comp_time'
p467
F0.0045070648193359375
sS'exec_cq'
p468
I5
sS'total_cq'
p469
I5
sasS'total_cqs'
p470
I5
ssI51
(dp471
S'iters'
p472
I0
sS'meta'
p473
(lp474
sS'total_cqs'
p475
I1
ssI52
(dp476
S'iters'
p477
I0
sS'meta'
p478
(lp479
sS'total_cqs'
p480
I1
ssI53
(dp481
S'iters'
p482
I0
sS'meta'
p483
(lp484
sS'total_cqs'
p485
I1
ssI55
(dp486
S'iters'
p487
I1
sS'meta'
p488
(lp489
(dp490
S'objective'
p491
I1
sS'query_time'
p492
F24.231751203536987
sS'comp_time'
p493
F2.611443042755127
sS'exec_cq'
p494
I2
sS'total_cq'
p495
I2
sasS'total_cqs'
p496
I2
ssI56
(dp497
S'iters'
p498
I0
sS'meta'
p499
(lp500
sS'total_cqs'
p501
I1
ssI57
(dp502
S'iters'
p503
I1
sS'meta'
p504
(lp505
(dp506
S'objective'
p507
I0
sS'query_time'
p508
F12.507774114608765
sS'comp_time'
p509
F2.454946756362915
sS'exec_cq'
p510
I2
sS'total_cq'
p511
I3
sasS'total_cqs'
p512
I3
ssI108
(dp513
S'iters'
p514
I0
sS'meta'
p515
(lp516
sS'total_cqs'
p517
I1
ssI109
(dp518
S'iters'
p519
I0
sS'meta'
p520
(lp521
sS'total_cqs'
p522
I1
ssI116
(dp523
S'iters'
p524
I3
sS'meta'
p525
(lp526
(dp527
S'objective'
p528
I157
sS'query_time'
p529
F3.7896339893341064
sS'comp_time'
p530
F0.5497481822967529
sS'exec_cq'
p531
I15
sS'total_cq'
p532
I21
sa(dp533
g528
I114
sg529
F0.4798109531402588
sg530
F0.00393986701965332
sg531
I14
sg532
I19
sa(dp534
g528
I2
sg529
F0.0006811618804931641
sg530
F0.0031299591064453125
sg531
I2
sg532
I2
sasS'total_cqs'
p535
I21
ssI117
(dp536
S'iters'
p537
I2
sS'meta'
p538
(lp539
(dp540
S'objective'
p541
I13
sS'query_time'
p542
F0.007324934005737305
sS'comp_time'
p543
F0.001523733139038086
sS'exec_cq'
p544
I3
sS'total_cq'
p545
I5
sa(dp546
g541
I4
sg542
F0.001771688461303711
sg543
F7.987022399902344e-05
sg544
I3
sg545
I4
sasS'total_cqs'
p547
I5
ssI118
(dp548
S'iters'
p549
I0
sS'meta'
p550
(lp551
sS'total_cqs'
p552
I1
ssI122
(dp553
S'iters'
p554
I0
sS'meta'
p555
(lp556
sS'total_cqs'
p557
I1
ss.