(dp0
I1
(dp1
S'iters'
p2
I4
sS'meta'
p3
(lp4
(dp5
S'objective'
p6
I9
sS'query_time'
p7
F23.759873151779175
sS'comp_time'
p8
F0.00010991096496582031
sS'exec_cq'
p9
I1
sS'total_cq'
p10
I6
sa(dp11
g6
I3
sg7
F20.30494999885559
sg8
F0.00010395050048828125
sg9
I1
sg10
I5
sa(dp12
g6
I0
sg7
F10.693725109100342
sg8
F0.0001888275146484375
sg9
I1
sg10
I3
sa(dp13
g6
I1
sg7
F0.004770994186401367
sg8
F8.106231689453125e-05
sg9
I1
sg10
I2
sasS'total_cqs'
p14
I6
ssI2
(dp15
S'iters'
p16
I1
sS'meta'
p17
(lp18
(dp19
S'objective'
p20
I19
sS'query_time'
p21
F0.8556358814239502
sS'comp_time'
p22
F7.104873657226562e-05
sS'exec_cq'
p23
I6
sS'total_cq'
p24
I6
sasS'total_cqs'
p25
I6
ssI3
(dp26
S'iters'
p27
I22
sS'meta'
p28
(lp29
(dp30
S'objective'
p31
I495
sS'query_time'
p32
F7.644512891769409
sS'comp_time'
p33
F9.512901306152344e-05
sS'exec_cq'
p34
I1
sS'total_cq'
p35
I33
sa(dp36
g31
I464
sg32
F0.5383238792419434
sg33
F8.893013000488281e-05
sg34
I1
sg35
I32
sa(dp37
g31
I428
sg32
F0.06778502464294434
sg33
F7.510185241699219e-05
sg34
I1
sg35
I31
sa(dp38
g31
I370
sg32
F0.02205181121826172
sg33
F5.1975250244140625e-05
sg34
I1
sg35
I29
sa(dp39
g31
I358
sg32
F0.3126969337463379
sg33
F9.512901306152344e-05
sg34
I1
sg35
I27
sa(dp40
g31
I331
sg32
F0.04397082328796387
sg33
F6.985664367675781e-05
sg34
I1
sg35
I26
sa(dp41
g31
I305
sg32
F0.19980502128601074
sg33
F0.0004870891571044922
sg34
I1
sg35
I25
sa(dp42
g31
I280
sg32
F0.012867927551269531
sg33
F4.1961669921875e-05
sg34
I1
sg35
I24
sa(dp43
g31
I256
sg32
F0.003305196762084961
sg33
F4.482269287109375e-05
sg34
I1
sg35
I23
sa(dp44
g31
I205
sg32
F0.018388986587524414
sg33
F6.4849853515625e-05
sg34
I2
sg35
I22
sa(dp45
g31
I195
sg32
F0.010068893432617188
sg33
F4.410743713378906e-05
sg34
I2
sg35
I20
sa(dp46
g31
I147
sg32
F0.6471869945526123
sg33
F7.796287536621094e-05
sg34
I2
sg35
I18
sa(dp47
g31
I105
sg32
F0.0077321529388427734
sg33
F4.1961669921875e-05
sg34
I2
sg35
I15
sa(dp48
g31
I88
sg32
F0.007093906402587891
sg33
F3.886222839355469e-05
sg34
I2
sg35
I13
sa(dp49
g31
I82
sg32
F0.04532909393310547
sg33
F7.009506225585938e-05
sg34
I2
sg35
I11
sa(dp50
g31
I45
sg32
F0.06879806518554688
sg33
F8.797645568847656e-05
sg34
I2
sg35
I10
sa(dp51
g31
I48
sg32
F0.005479097366333008
sg33
F4.100799560546875e-05
sg34
I2
sg35
I8
sa(dp52
g31
I44
sg32
F0.005548000335693359
sg33
F3.790855407714844e-05
sg34
I3
sg35
I7
sa(dp53
g31
I38
sg32
F0.0008821487426757812
sg33
F3.600120544433594e-05
sg34
I3
sg35
I6
sa(dp54
g31
I35
sg32
F0.0021529197692871094
sg33
F3.600120544433594e-05
sg34
I3
sg35
I5
sa(dp55
g31
I32
sg32
F0.02345895767211914
sg33
F5.316734313964844e-05
sg34
I3
sg35
I4
sa(dp56
g31
I34
sg32
F0.22577381134033203
sg33
F9.799003601074219e-05
sg34
I3
sg35
I3
sasS'total_cqs'
p57
I33
ssI4
(dp58
S'iters'
p59
I0
sS'meta'
p60
(lp61
sS'total_cqs'
p62
I1
ssI5
(dp63
S'iters'
p64
I0
sS'meta'
p65
(lp66
sS'total_cqs'
p67
I1
ssI6
(dp68
S'iters'
p69
I3
sS'meta'
p70
(lp71
(dp72
S'objective'
p73
I5
sS'query_time'
p74
F5.749922037124634
sS'comp_time'
p75
F8.296966552734375e-05
sS'exec_cq'
p76
I1
sS'total_cq'
p77
I5
sa(dp78
g73
I2
sg74
F3.479458808898926
sg75
F7.104873657226562e-05
sg76
I1
sg77
I4
sa(dp79
g73
I2
sg74
F5.8026041984558105
sg75
F0.00015592575073242188
sg76
I1
sg77
I2
sasS'total_cqs'
p80
I5
ssI7
(dp81
S'iters'
p82
I0
sS'meta'
p83
(lp84
sS'total_cqs'
p85
I1
ssI8
(dp86
S'iters'
p87
I5
sS'meta'
p88
(lp89
(dp90
S'objective'
p91
I9
sS'query_time'
p92
F21.641544103622437
sS'comp_time'
p93
F6.198883056640625e-05
sS'exec_cq'
p94
I1
sS'total_cq'
p95
I6
sa(dp96
g91
I5
sg92
F2.151978015899658
sg93
F0.001190185546875
sg94
I1
sg95
I5
sa(dp97
g91
I2
sg92
F41.53705406188965
sg93
F7.081031799316406e-05
sg94
I1
sg95
I4
sa(dp98
g91
I0
sg92
F20.01484203338623
sg93
F0.00010204315185546875
sg94
I1
sg95
I3
sa(dp99
g91
I1
sg92
F20.04776382446289
sg93
F9.608268737792969e-05
sg94
I1
sg95
I2
sasS'total_cqs'
p100
I6
ssI9
(dp101
S'iters'
p102
I5
sS'meta'
p103
(lp104
(dp105
S'objective'
p106
I9
sS'query_time'
p107
F14.892432928085327
sS'comp_time'
p108
F0.00039887428283691406
sS'exec_cq'
p109
I1
sS'total_cq'
p110
I6
sa(dp111
g106
I5
sg107
F20.012789964675903
sg108
F8.511543273925781e-05
sg109
I1
sg110
I5
sa(dp112
g106
I2
sg107
F17.671148777008057
sg108
F0.00026798248291015625
sg109
I1
sg110
I4
sa(dp113
g106
I0
sg107
F1.05948805809021
sg108
F0.00032901763916015625
sg109
I1
sg110
I3
sa(dp114
g106
I1
sg107
F0.06234598159790039
sg108
F5.3882598876953125e-05
sg109
I1
sg110
I2
sasS'total_cqs'
p115
I6
ssI10
(dp116
S'iters'
p117
I0
sS'meta'
p118
(lp119
sS'total_cqs'
p120
I1
ssI11
(dp121
S'iters'
p122
I0
sS'meta'
p123
(lp124
sS'total_cqs'
p125
I1
ssI12
(dp126
S'iters'
p127
I0
sS'meta'
p128
(lp129
sS'total_cqs'
p130
I1
ssI13
(dp131
S'iters'
p132
I2
sS'meta'
p133
(lp134
(dp135
S'objective'
p136
I20
sS'query_time'
p137
F10.031721830368042
sS'comp_time'
p138
F6.103515625e-05
sS'exec_cq'
p139
I1
sS'total_cq'
p140
I8
sa(dp141
g136
I26
sg137
F0.005733013153076172
sg138
F4.410743713378906e-05
sg139
I7
sg140
I7
sasS'total_cqs'
p142
I8
ssI14
(dp143
S'iters'
p144
I3
sS'meta'
p145
(lp146
(dp147
S'objective'
p148
I5
sS'query_time'
p149
F0.027163028717041016
sS'comp_time'
p150
F5.2928924560546875e-05
sS'exec_cq'
p151
I1
sS'total_cq'
p152
I5
sa(dp153
g148
I4
sg149
F0.23761200904846191
sg150
F9.107589721679688e-05
sg151
I2
sg152
I4
sa(dp154
g148
I5
sg149
F0.9908900260925293
sg150
F9.894371032714844e-05
sg151
I3
sg152
I3
sasS'total_cqs'
p155
I5
ssI16
(dp156
S'iters'
p157
I4
sS'meta'
p158
(lp159
(dp160
S'objective'
p161
I7
sS'query_time'
p162
F2.2561800479888916
sS'comp_time'
p163
F8.702278137207031e-05
sS'exec_cq'
p164
I2
sS'total_cq'
p165
I5
sa(dp166
g161
I5
sg162
F0.24663209915161133
sg163
F8.296966552734375e-05
sg164
I2
sg165
I4
sa(dp167
g161
I4
sg162
F0.05753183364868164
sg163
F8.893013000488281e-05
sg164
I2
sg165
I3
sa(dp168
g161
I4
sg162
F0.054921865463256836
sg163
F8.702278137207031e-05
sg164
I2
sg165
I2
sasS'total_cqs'
p169
I5
ssI17
(dp170
S'iters'
p171
I0
sS'meta'
p172
(lp173
sS'total_cqs'
p174
I1
ssI18
(dp175
S'iters'
p176
I3
sS'meta'
p177
(lp178
(dp179
S'objective'
p180
I3
sS'query_time'
p181
F2.74357008934021
sS'comp_time'
p182
F8.0108642578125e-05
sS'exec_cq'
p183
I1
sS'total_cq'
p184
I5
sa(dp185
g180
I0
sg181
F0.07510519027709961
sg182
F8.416175842285156e-05
sg183
I1
sg184
I3
sa(dp186
g180
I1
sg181
F0.07443499565124512
sg182
F7.700920104980469e-05
sg183
I1
sg184
I2
sasS'total_cqs'
p187
I5
ssI19
(dp188
S'iters'
p189
I0
sS'meta'
p190
(lp191
sS'total_cqs'
p192
I1
ssI20
(dp193
S'iters'
p194
I7
sS'meta'
p195
(lp196
(dp197
S'objective'
p198
I40
sS'query_time'
p199
F6.289051055908203
sS'comp_time'
p200
F0.00010609626770019531
sS'exec_cq'
p201
I1
sS'total_cq'
p202
I12
sa(dp203
g198
I41
sg199
F1.4636051654815674
sg200
F0.0004150867462158203
sg201
I3
sg202
I10
sa(dp204
g198
I34
sg199
F5.334258079528809
sg200
F0.0001220703125
sg201
I3
sg202
I9
sa(dp205
g198
I32
sg199
F0.0065610408782958984
sg200
F5.4836273193359375e-05
sg201
I4
sg202
I8
sa(dp206
g198
I29
sg199
F0.0038030147552490234
sg200
F5.1021575927734375e-05
sg201
I4
sg202
I7
sa(dp207
g198
I23
sg199
F0.005097150802612305
sg200
F4.982948303222656e-05
sg201
I4
sg202
I6
sa(dp208
g198
I26
sg199
F0.10023093223571777
sg200
F7.796287536621094e-05
sg201
I4
sg202
I4
sasS'total_cqs'
p209
I12
ssI21
(dp210
S'iters'
p211
I9
sS'meta'
p212
(lp213
(dp214
S'objective'
p215
I59
sS'query_time'
p216
F0.846520185470581
sS'comp_time'
p217
F7.987022399902344e-05
sS'exec_cq'
p218
I1
sS'total_cq'
p219
I14
sa(dp220
g215
I44
sg216
F1.9275310039520264
sg217
F7.796287536621094e-05
sg218
I1
sg219
I12
sa(dp221
g215
I39
sg216
F24.97264289855957
sg217
F0.00021600723266601562
sg218
I1
sg219
I10
sa(dp222
g215
I9
sg216
F0.08635902404785156
sg217
F3.910064697265625e-05
sg218
I1
sg219
I9
sa(dp223
g215
I14
sg216
F0.28073883056640625
sg217
F6.794929504394531e-05
sg218
I1
sg219
I7
sa(dp224
g215
I4
sg216
F0.45287394523620605
sg217
F6.890296936035156e-05
sg218
I1
sg219
I6
sa(dp225
g215
I3
sg216
F10.217814922332764
sg217
F0.0003421306610107422
sg218
I1
sg219
I4
sa(dp226
g215
I0
sg216
F0.049375057220458984
sg217
F6.890296936035156e-05
sg218
I1
sg219
I3
sa(dp227
g215
I2
sg216
F0.07784891128540039
sg217
F7.319450378417969e-05
sg218
I1
sg219
I2
sasS'total_cqs'
p228
I14
ssI22
(dp229
S'iters'
p230
I1
sS'meta'
p231
(lp232
(dp233
S'objective'
p234
I1
sS'query_time'
p235
F0.004797935485839844
sS'comp_time'
p236
F4.696846008300781e-05
sS'exec_cq'
p237
I1
sS'total_cq'
p238
I2
sasS'total_cqs'
p239
I2
ssI23
(dp240
S'iters'
p241
I0
sS'meta'
p242
(lp243
sS'total_cqs'
p244
I1
ssI24
(dp245
S'iters'
p246
I0
sS'meta'
p247
(lp248
sS'total_cqs'
p249
I1
ssI25
(dp250
S'iters'
p251
I4
sS'meta'
p252
(lp253
(dp254
S'objective'
p255
I8
sS'query_time'
p256
F3.896066904067993
sS'comp_time'
p257
F7.700920104980469e-05
sS'exec_cq'
p258
I1
sS'total_cq'
p259
I7
sa(dp260
g255
I6
sg256
F11.751864910125732
sg257
F0.0004949569702148438
sg258
I1
sg259
I5
sa(dp261
g255
I6
sg256
F8.449469804763794
sg257
F0.00014090538024902344
sg258
I1
sg259
I4
sa(dp262
g255
I1
sg256
F24.722498893737793
sg257
F0.0001068115234375
sg258
I1
sg259
I2
sasS'total_cqs'
p263
I7
ssI26
(dp264
S'iters'
p265
I10
sS'meta'
p266
(lp267
(dp268
S'objective'
p269
I55
sS'query_time'
p270
F7.759960174560547
sS'comp_time'
p271
F0.00010013580322265625
sS'exec_cq'
p272
I1
sS'total_cq'
p273
I13
sa(dp274
g269
I49
sg270
F0.04757809638977051
sg271
F6.222724914550781e-05
sg272
I1
sg273
I11
sa(dp275
g269
I39
sg270
F0.07559585571289062
sg271
F7.414817810058594e-05
sg272
I1
sg273
I10
sa(dp276
g269
I30
sg270
F0.0295870304107666
sg271
F4.601478576660156e-05
sg272
I1
sg273
I9
sa(dp277
g269
I22
sg270
F0.030272960662841797
sg271
F8.106231689453125e-05
sg272
I1
sg273
I8
sa(dp278
g269
I15
sg270
F0.0403900146484375
sg271
F5.316734313964844e-05
sg272
I1
sg273
I7
sa(dp279
g269
I9
sg270
F0.03386688232421875
sg271
F4.696846008300781e-05
sg272
I1
sg273
I6
sa(dp280
g269
I0
sg270
F1.3851799964904785
sg271
F3.790855407714844e-05
sg272
I1
sg273
I5
sa(dp281
g269
I0
sg270
F0.04885697364807129
sg271
F6.699562072753906e-05
sg272
I1
sg273
I3
sa(dp282
g269
I2
sg270
F18.231693983078003
sg271
F0.0004291534423828125
sg272
I1
sg273
I2
sasS'total_cqs'
p283
I13
ssI27
(dp284
S'iters'
p285
I1
sS'meta'
p286
(lp287
(dp288
S'objective'
p289
I1
sS'query_time'
p290
F0.14606213569641113
sS'comp_time'
p291
F7.486343383789062e-05
sS'exec_cq'
p292
I2
sS'total_cq'
p293
I2
sasS'total_cqs'
p294
I2
ssI28
(dp295
S'iters'
p296
I9
sS'meta'
p297
(lp298
(dp299
S'objective'
p300
I51
sS'query_time'
p301
F2.3206160068511963
sS'comp_time'
p302
F9.989738464355469e-05
sS'exec_cq'
p303
I1
sS'total_cq'
p304
I14
sa(dp305
g300
I24
sg301
F1.0896990299224854
sg302
F4.696846008300781e-05
sg303
I1
sg304
I12
sa(dp306
g300
I29
sg301
F0.8890221118927002
sg302
F4.291534423828125e-05
sg303
I1
sg304
I9
sa(dp307
g300
I16
sg301
F1.1495070457458496
sg302
F5.3882598876953125e-05
sg303
I1
sg304
I8
sa(dp308
g300
I10
sg301
F0.582801103591919
sg302
F4.00543212890625e-05
sg303
I1
sg304
I6
sa(dp309
g300
I7
sg301
F0.43347883224487305
sg302
F7.009506225585938e-05
sg303
I1
sg304
I5
sa(dp310
g300
I3
sg301
F0.26982593536376953
sg302
F4.1961669921875e-05
sg303
I1
sg304
I4
sa(dp311
g300
I0
sg301
F0.2674570083618164
sg302
F3.600120544433594e-05
sg303
I1
sg304
I3
sa(dp312
g300
I2
sg301
F0.14066004753112793
sg302
F4.887580871582031e-05
sg303
I1
sg304
I2
sasS'total_cqs'
p313
I14
ssI29
(dp314
S'iters'
p315
I1
sS'meta'
p316
(lp317
(dp318
S'objective'
p319
I1
sS'query_time'
p320
F0.007402896881103516
sS'comp_time'
p321
F6.198883056640625e-05
sS'exec_cq'
p322
I2
sS'total_cq'
p323
I2
sasS'total_cqs'
p324
I2
ssI30
(dp325
S'iters'
p326
I1
sS'meta'
p327
(lp328
(dp329
S'objective'
p330
I1
sS'query_time'
p331
F0.4381380081176758
sS'comp_time'
p332
F7.987022399902344e-05
sS'exec_cq'
p333
I2
sS'total_cq'
p334
I2
sasS'total_cqs'
p335
I2
ssI31
(dp336
S'iters'
p337
I6
sS'meta'
p338
(lp339
(dp340
S'objective'
p341
I13
sS'query_time'
p342
F0.6642959117889404
sS'comp_time'
p343
F4.601478576660156e-05
sS'exec_cq'
p344
I1
sS'total_cq'
p345
I9
sa(dp346
g341
I13
sg342
F0.16434001922607422
sg343
F4.1961669921875e-05
sg344
I1
sg345
I7
sa(dp347
g341
I9
sg342
F7.6435370445251465
sg343
F8.296966552734375e-05
sg344
I1
sg345
I6
sa(dp348
g341
I5
sg342
F4.807548999786377
sg343
F7.796287536621094e-05
sg344
I1
sg345
I5
sa(dp349
g341
I4
sg342
F5.439313888549805
sg343
F8.487701416015625e-05
sg344
I1
sg345
I4
sa(dp350
g341
I1
sg342
F0.0031359195709228516
sg343
F8.606910705566406e-05
sg344
I1
sg345
I2
sasS'total_cqs'
p351
I9
ssI32
(dp352
S'iters'
p353
I4
sS'meta'
p354
(lp355
(dp356
S'objective'
p357
I10
sS'query_time'
p358
F2.2496178150177
sS'comp_time'
p359
F0.0012218952178955078
sS'exec_cq'
p360
I1
sS'total_cq'
p361
I7
sa(dp362
g357
I1
sg358
F2.851943016052246
sg359
F8.58306884765625e-05
sg360
I1
sg361
I5
sa(dp363
g357
I0
sg358
F7.161576986312866
sg359
F0.00022602081298828125
sg360
I1
sg361
I3
sa(dp364
g357
I3
sg358
F1.5076940059661865
sg359
F0.0006108283996582031
sg360
I1
sg361
I2
sasS'total_cqs'
p365
I7
ssI33
(dp366
S'iters'
p367
I1
sS'meta'
p368
(lp369
(dp370
S'objective'
p371
I1
sS'query_time'
p372
F0.033950090408325195
sS'comp_time'
p373
F5.507469177246094e-05
sS'exec_cq'
p374
I2
sS'total_cq'
p375
I2
sasS'total_cqs'
p376
I2
ssI34
(dp377
S'iters'
p378
I0
sS'meta'
p379
(lp380
sS'total_cqs'
p381
I1
ssI35
(dp382
S'iters'
p383
I3
sS'meta'
p384
(lp385
(dp386
S'objective'
p387
I5
sS'query_time'
p388
F9.208598852157593
sS'comp_time'
p389
F9.608268737792969e-05
sS'exec_cq'
p390
I1
sS'total_cq'
p391
I5
sa(dp392
g387
I4
sg388
F1.738417148590088
sg389
F0.0004038810729980469
sg390
I1
sg391
I4
sa(dp393
g387
I1
sg388
F5.171380996704102
sg389
F7.414817810058594e-05
sg390
I1
sg391
I2
sasS'total_cqs'
p394
I5
ssI37
(dp395
S'iters'
p396
I9
sS'meta'
p397
(lp398
(dp399
S'objective'
p400
I37
sS'query_time'
p401
F0.012024164199829102
sS'comp_time'
p402
F4.9114227294921875e-05
sS'exec_cq'
p403
I2
sS'total_cq'
p404
I10
sa(dp405
g400
I30
sg401
F0.007524967193603516
sg402
F4.506111145019531e-05
sg403
I2
sg404
I9
sa(dp406
g400
I24
sg401
F0.007863998413085938
sg402
F5.1021575927734375e-05
sg403
I2
sg404
I8
sa(dp407
g400
I19
sg401
F0.7973790168762207
sg402
F8.296966552734375e-05
sg403
I2
sg404
I7
sa(dp408
g400
I15
sg401
F0.35217714309692383
sg402
F7.390975952148438e-05
sg403
I2
sg404
I6
sa(dp409
g400
I12
sg401
F0.0033528804779052734
sg402
F4.410743713378906e-05
sg403
I2
sg404
I5
sa(dp410
g400
I10
sg401
F0.7860109806060791
sg402
F7.390975952148438e-05
sg403
I2
sg404
I4
sa(dp411
g400
I9
sg401
F0.828963041305542
sg402
F0.0004699230194091797
sg403
I2
sg404
I3
sa(dp412
g400
I9
sg401
F0.2695939540863037
sg402
F6.198883056640625e-05
sg403
I2
sg404
I2
sasS'total_cqs'
p413
I10
ssI38
(dp414
S'iters'
p415
I0
sS'meta'
p416
(lp417
sS'total_cqs'
p418
I1
ssI39
(dp419
S'iters'
p420
I0
sS'meta'
p421
(lp422
sS'total_cqs'
p423
I1
ssI40
(dp424
S'iters'
p425
I1
sS'meta'
p426
(lp427
(dp428
S'objective'
p429
I1
sS'query_time'
p430
F18.955377101898193
sS'comp_time'
p431
F0.0002951622009277344
sS'exec_cq'
p432
I1
sS'total_cq'
p433
I2
sasS'total_cqs'
p434
I2
ssI41
(dp435
S'iters'
p436
I5
sS'meta'
p437
(lp438
(dp439
S'objective'
p440
I9
sS'query_time'
p441
F1.6657299995422363
sS'comp_time'
p442
F6.29425048828125e-05
sS'exec_cq'
p443
I1
sS'total_cq'
p444
I6
sa(dp445
g440
I5
sg441
F2.045909881591797
sg442
F0.0004210472106933594
sg443
I1
sg444
I5
sa(dp446
g440
I2
sg441
F0.2769150733947754
sg442
F7.200241088867188e-05
sg443
I1
sg444
I4
sa(dp447
g440
I0
sg441
F0.23465800285339355
sg442
F7.581710815429688e-05
sg443
I1
sg444
I3
sa(dp448
g440
I1
sg441
F9.385918855667114
sg442
F0.0005440711975097656
sg443
I1
sg444
I2
sasS'total_cqs'
p449
I6
ssI42
(dp450
S'iters'
p451
I1
sS'meta'
p452
(lp453
(dp454
S'objective'
p455
I1
sS'query_time'
p456
F18.8380229473114
sS'comp_time'
p457
F0.00024008750915527344
sS'exec_cq'
p458
I1
sS'total_cq'
p459
I2
sasS'total_cqs'
p460
I2
ssI43
(dp461
S'iters'
p462
I0
sS'meta'
p463
(lp464
sS'total_cqs'
p465
I1
ssI44
(dp466
S'iters'
p467
I4
sS'meta'
p468
(lp469
(dp470
S'objective'
p471
I5
sS'query_time'
p472
F0.02450704574584961
sS'comp_time'
p473
F5.602836608886719e-05
sS'exec_cq'
p474
I1
sS'total_cq'
p475
I5
sa(dp476
g471
I2
sg472
F1.277994155883789
sg473
F7.605552673339844e-05
sg474
I1
sg475
I4
sa(dp477
g471
I0
sg472
F1.3525278568267822
sg473
F7.987022399902344e-05
sg474
I1
sg475
I3
sa(dp478
g471
I1
sg472
F0.008234024047851562
sg473
F7.390975952148438e-05
sg474
I1
sg475
I2
sasS'total_cqs'
p479
I5
ssI45
(dp480
S'iters'
p481
I2
sS'meta'
p482
(lp483
(dp484
S'objective'
p485
I11
sS'query_time'
p486
F5.888783931732178
sS'comp_time'
p487
F6.890296936035156e-05
sS'exec_cq'
p488
I4
sS'total_cq'
p489
I5
sa(dp490
g485
I11
sg486
F0.005012035369873047
sg487
F4.100799560546875e-05
sg488
I4
sg489
I4
sasS'total_cqs'
p491
I5
ssI46
(dp492
S'iters'
p493
I0
sS'meta'
p494
(lp495
sS'total_cqs'
p496
I1
ssI47
(dp497
S'iters'
p498
I0
sS'meta'
p499
(lp500
sS'total_cqs'
p501
I1
ssI48
(dp502
S'iters'
p503
I1
sS'meta'
p504
(lp505
(dp506
S'objective'
p507
I1
sS'query_time'
p508
F0.12310504913330078
sS'comp_time'
p509
F6.008148193359375e-05
sS'exec_cq'
p510
I2
sS'total_cq'
p511
I2
sasS'total_cqs'
p512
I2
ssI49
(dp513
S'iters'
p514
I3
sS'meta'
p515
(lp516
(dp517
S'objective'
p518
I5
sS'query_time'
p519
F5.882871150970459
sS'comp_time'
p520
F9.083747863769531e-05
sS'exec_cq'
p521
I1
sS'total_cq'
p522
I5
sa(dp523
g518
I2
sg519
F2.954272985458374
sg520
F6.508827209472656e-05
sg521
I1
sg522
I4
sa(dp524
g518
I2
sg519
F0.00864410400390625
sg520
F4.482269287109375e-05
sg521
I2
sg522
I2
sasS'total_cqs'
p525
I5
ssI50
(dp526
S'iters'
p527
I4
sS'meta'
p528
(lp529
(dp530
S'objective'
p531
I5
sS'query_time'
p532
F0.017019033432006836
sS'comp_time'
p533
F4.792213439941406e-05
sS'exec_cq'
p534
I1
sS'total_cq'
p535
I5
sa(dp536
g531
I2
sg532
F0.0263979434967041
sg533
F8.106231689453125e-05
sg534
I1
sg535
I4
sa(dp537
g531
I0
sg532
F0.0039598941802978516
sg533
F4.00543212890625e-05
sg534
I1
sg535
I3
sa(dp538
g531
I1
sg532
F0.19059300422668457
sg533
F8.082389831542969e-05
sg534
I1
sg535
I2
sasS'total_cqs'
p539
I5
ssI51
(dp540
S'iters'
p541
I0
sS'meta'
p542
(lp543
sS'total_cqs'
p544
I1
ssI52
(dp545
S'iters'
p546
I0
sS'meta'
p547
(lp548
sS'total_cqs'
p549
I1
ssI53
(dp550
S'iters'
p551
I0
sS'meta'
p552
(lp553
sS'total_cqs'
p554
I1
ssI55
(dp555
S'iters'
p556
I1
sS'meta'
p557
(lp558
(dp559
S'objective'
p560
I1
sS'query_time'
p561
F23.878413915634155
sS'comp_time'
p562
F6.699562072753906e-05
sS'exec_cq'
p563
I2
sS'total_cq'
p564
I2
sasS'total_cqs'
p565
I2
ssI56
(dp566
S'iters'
p567
I0
sS'meta'
p568
(lp569
sS'total_cqs'
p570
I1
ssI57
(dp571
S'iters'
p572
I2
sS'meta'
p573
(lp574
(dp575
S'objective'
p576
I0
sS'query_time'
p577
F2.6481740474700928
sS'comp_time'
p578
F0.0003631114959716797
sS'exec_cq'
p579
I1
sS'total_cq'
p580
I3
sa(dp581
g576
I1
sg577
F13.233637809753418
sg578
F0.00012993812561035156
sg579
I2
sg580
I2
sasS'total_cqs'
p582
I3
ssI108
(dp583
S'iters'
p584
I0
sS'meta'
p585
(lp586
sS'total_cqs'
p587
I1
ssI109
(dp588
S'iters'
p589
I0
sS'meta'
p590
(lp591
sS'total_cqs'
p592
I1
ssI116
(dp593
S'iters'
p594
I6
sS'meta'
p595
(lp596
(dp597
S'objective'
p598
I197
sS'query_time'
p599
F1.2738819122314453
sS'comp_time'
p600
F0.00010991096496582031
sS'exec_cq'
p601
I5
sS'total_cq'
p602
I21
sa(dp603
g598
I188
sg599
F1.5424320697784424
sg600
F8.702278137207031e-05
sg601
I8
sg602
I20
sa(dp604
g598
I185
sg599
F4.151952028274536
sg600
F0.0006361007690429688
sg601
I12
sg602
I19
sa(dp605
g598
I179
sg599
F0.11311507225036621
sg600
F8.106231689453125e-05
sg601
I12
sg602
I18
sa(dp606
g598
I176
sg599
F0.12350010871887207
sg600
F8.177757263183594e-05
sg601
I13
sg602
I17
sa(dp607
g598
I179
sg599
F0.07932591438293457
sg600
F6.914138793945312e-05
sg601
I16
sg602
I16
sasS'total_cqs'
p608
I21
ssI117
(dp609
S'iters'
p610
I2
sS'meta'
p611
(lp612
(dp613
S'objective'
p614
I9
sS'query_time'
p615
F0.008852005004882812
sS'comp_time'
p616
F4.696846008300781e-05
sS'exec_cq'
p617
I3
sS'total_cq'
p618
I5
sa(dp619
g614
I10
sg615
F0.0026679039001464844
sg616
F4.1961669921875e-05
sg617
I4
sg618
I4
sasS'total_cqs'
p620
I5
ssI118
(dp621
S'iters'
p622
I0
sS'meta'
p623
(lp624
sS'total_cqs'
p625
I1
ssI122
(dp626
S'iters'
p627
I0
sS'meta'
p628
(lp629
sS'total_cqs'
p630
I1
ss.