(dp0
I1
(dp1
S'iters'
p2
I2
sS'meta'
p3
(lp4
(dp5
S'objective'
p6
I3
sS'query_time'
p7
F7.6736180782318115
sS'comp_time'
p8
F8.678436279296875e-05
sS'exec_cq'
p9
I1
sS'total_cq'
p10
I6
sa(dp11
g6
I4
sg7
F25.388400077819824
sg8
F0.0003180503845214844
sg9
I2
sg10
I4
sasS'total_cqs'
p12
I6
ssI2
(dp13
S'iters'
p14
I1
sS'meta'
p15
(lp16
(dp17
S'objective'
p18
I13
sS'query_time'
p19
F0.8180429935455322
sS'comp_time'
p20
F9.989738464355469e-05
sS'exec_cq'
p21
I3
sS'total_cq'
p22
I6
sasS'total_cqs'
p23
I6
ssI3
(dp24
S'iters'
p25
I11
sS'meta'
p26
(lp27
(dp28
S'objective'
p29
I485
sS'query_time'
p30
F0.024408817291259766
sS'comp_time'
p31
F0.0001201629638671875
sS'exec_cq'
p32
I1
sS'total_cq'
p33
I33
sa(dp34
g29
I403
sg30
F0.023717880249023438
sg31
F0.0001251697540283203
sg32
I1
sg33
I31
sa(dp35
g29
I311
sg30
F0.041224002838134766
sg31
F9.72747802734375e-05
sg32
I1
sg33
I29
sa(dp36
g29
I311
sg30
F0.07107710838317871
sg31
F0.00010395050048828125
sg32
I1
sg33
I26
sa(dp37
g29
I297
sg30
F0.0051691532135009766
sg31
F7.200241088867188e-05
sg32
I2
sg33
I24
sa(dp38
g29
I273
sg30
F0.049777984619140625
sg31
F9.322166442871094e-05
sg32
I2
sg33
I23
sa(dp39
g29
I252
sg30
F20.048816919326782
sg31
F0.00010704994201660156
sg32
I3
sg33
I22
sa(dp40
g29
I193
sg30
F0.01633906364440918
sg31
F7.987022399902344e-05
sg32
I3
sg33
I21
sa(dp41
g29
I162
sg30
F0.018476009368896484
sg31
F7.104873657226562e-05
sg32
I3
sg33
I18
sa(dp42
g29
I158
sg30
F0.0074920654296875
sg31
F6.508827209472656e-05
sg32
I3
sg33
I15
sa(dp43
g29
I142
sg30
F0.17179298400878906
sg31
F7.295608520507812e-05
sg32
I3
sg33
I14
sasS'total_cqs'
p44
I33
ssI4
(dp45
S'iters'
p46
I0
sS'meta'
p47
(lp48
sS'total_cqs'
p49
I1
ssI5
(dp50
S'iters'
p51
I0
sS'meta'
p52
(lp53
sS'total_cqs'
p54
I1
ssI6
(dp55
S'iters'
p56
I3
sS'meta'
p57
(lp58
(dp59
S'objective'
p60
I1
sS'query_time'
p61
F3.9992799758911133
sS'comp_time'
p62
F0.00010800361633300781
sS'exec_cq'
p63
I1
sS'total_cq'
p64
I5
sa(dp65
g60
I2
sg61
F4.071300983428955
sg62
F0.00010585784912109375
sg63
I1
sg64
I3
sa(dp66
g60
I3
sg61
F36.46801400184631
sg62
F0.00013494491577148438
sg63
I1
sg64
I2
sasS'total_cqs'
p67
I5
ssI7
(dp68
S'iters'
p69
I0
sS'meta'
p70
(lp71
sS'total_cqs'
p72
I1
ssI8
(dp73
S'iters'
p74
I4
sS'meta'
p75
(lp76
(dp77
S'objective'
p78
I17
sS'query_time'
p79
F42.133450984954834
sS'comp_time'
p80
F0.00022101402282714844
sS'exec_cq'
p81
I3
sS'total_cq'
p82
I6
sa(dp83
g78
I7
sg79
F1.695202112197876
sg80
F0.00016927719116210938
sg81
I2
sg82
I5
sa(dp84
g78
I3
sg79
F0.004700899124145508
sg80
F8.916854858398438e-05
sg81
I1
sg82
I4
sa(dp85
g78
I0
sg79
F0.0028030872344970703
sg80
F8.869171142578125e-05
sg81
I1
sg82
I3
sasS'total_cqs'
p86
I6
ssI9
(dp87
S'iters'
p88
I2
sS'meta'
p89
(lp90
(dp91
S'objective'
p92
I9
sS'query_time'
p93
F1.963042974472046
sS'comp_time'
p94
F6.890296936035156e-05
sS'exec_cq'
p95
I1
sS'total_cq'
p96
I6
sa(dp97
g92
I7
sg93
F20.710019826889038
sg94
F0.00013518333435058594
sg95
I2
sg96
I5
sasS'total_cqs'
p98
I6
ssI10
(dp99
S'iters'
p100
I0
sS'meta'
p101
(lp102
sS'total_cqs'
p103
I1
ssI11
(dp104
S'iters'
p105
I0
sS'meta'
p106
(lp107
sS'total_cqs'
p108
I1
ssI12
(dp109
S'iters'
p110
I0
sS'meta'
p111
(lp112
sS'total_cqs'
p113
I1
ssI13
(dp114
S'iters'
p115
I2
sS'meta'
p116
(lp117
(dp118
S'objective'
p119
I20
sS'query_time'
p120
F10.808041095733643
sS'comp_time'
p121
F9.107589721679688e-05
sS'exec_cq'
p122
I1
sS'total_cq'
p123
I8
sa(dp124
g119
I18
sg120
F0.10361385345458984
sg121
F8.296966552734375e-05
sg122
I3
sg123
I7
sasS'total_cqs'
p125
I8
ssI14
(dp126
S'iters'
p127
I2
sS'meta'
p128
(lp129
(dp130
S'objective'
p131
I5
sS'query_time'
p132
F0.23210811614990234
sS'comp_time'
p133
F7.605552673339844e-05
sS'exec_cq'
p134
I1
sS'total_cq'
p135
I5
sa(dp136
g131
I2
sg132
F1.0484471321105957
sg133
F6.771087646484375e-05
sg134
I1
sg135
I4
sasS'total_cqs'
p137
I5
ssI16
(dp138
S'iters'
p139
I2
sS'meta'
p140
(lp141
(dp142
S'objective'
p143
I3
sS'query_time'
p144
F8.391166925430298
sS'comp_time'
p145
F0.0001533031463623047
sS'exec_cq'
p146
I2
sS'total_cq'
p147
I5
sa(dp148
g143
I2
sg144
F96.4631290435791
sg145
F7.224082946777344e-05
sg146
I2
sg147
I2
sasS'total_cqs'
p149
I5
ssI17
(dp150
S'iters'
p151
I0
sS'meta'
p152
(lp153
sS'total_cqs'
p154
I1
ssI18
(dp155
S'iters'
p156
I3
sS'meta'
p157
(lp158
(dp159
S'objective'
p160
I5
sS'query_time'
p161
F4.900177001953125
sS'comp_time'
p162
F0.00011992454528808594
sS'exec_cq'
p163
I1
sS'total_cq'
p164
I5
sa(dp165
g160
I2
sg161
F0.2999711036682129
sg162
F0.00010085105895996094
sg163
I1
sg164
I4
sa(dp166
g160
I2
sg161
F0.35795021057128906
sg162
F0.00010704994201660156
sg163
I2
sg164
I2
sasS'total_cqs'
p167
I5
ssI19
(dp168
S'iters'
p169
I0
sS'meta'
p170
(lp171
sS'total_cqs'
p172
I1
ssI20
(dp173
S'iters'
p174
I5
sS'meta'
p175
(lp176
(dp177
S'objective'
p178
I48
sS'query_time'
p179
F0.02553701400756836
sS'comp_time'
p180
F9.703636169433594e-05
sS'exec_cq'
p181
I1
sS'total_cq'
p182
I12
sa(dp183
g178
I43
sg179
F5.6012749671936035
sg180
F0.0003020763397216797
sg181
I2
sg182
I10
sa(dp184
g178
I27
sg179
F5.696697950363159
sg180
F0.00011277198791503906
sg181
I2
sg182
I9
sa(dp185
g178
I24
sg179
F2.7832961082458496
sg180
F7.176399230957031e-05
sg181
I2
sg182
I7
sa(dp186
g178
I18
sg179
F0.10079598426818848
sg180
F7.295608520507812e-05
sg181
I2
sg182
I6
sasS'total_cqs'
p187
I12
ssI21
(dp188
S'iters'
p189
I4
sS'meta'
p190
(lp191
(dp192
S'objective'
p193
I73
sS'query_time'
p194
F15.756185054779053
sS'comp_time'
p195
F9.298324584960938e-05
sS'exec_cq'
p196
I1
sS'total_cq'
p197
I14
sa(dp198
g193
I55
sg194
F1.2246391773223877
sg195
F8.487701416015625e-05
sg196
I1
sg197
I12
sa(dp199
g193
I14
sg194
F0.0933377742767334
sg195
F7.009506225585938e-05
sg196
I1
sg197
I10
sa(dp200
g193
I27
sg194
F45.88504385948181
sg195
F0.00035262107849121094
sg196
I3
sg197
I6
sasS'total_cqs'
p201
I14
ssI22
(dp202
S'iters'
p203
I1
sS'meta'
p204
(lp205
(dp206
S'objective'
p207
I1
sS'query_time'
p208
F0.004788875579833984
sS'comp_time'
p209
F7.390975952148438e-05
sS'exec_cq'
p210
I1
sS'total_cq'
p211
I2
sasS'total_cqs'
p212
I2
ssI23
(dp213
S'iters'
p214
I0
sS'meta'
p215
(lp216
sS'total_cqs'
p217
I1
ssI24
(dp218
S'iters'
p219
I0
sS'meta'
p220
(lp221
sS'total_cqs'
p222
I1
ssI25
(dp223
S'iters'
p224
I2
sS'meta'
p225
(lp226
(dp227
S'objective'
p228
I8
sS'query_time'
p229
F7.869050025939941
sS'comp_time'
p230
F9.775161743164062e-05
sS'exec_cq'
p231
I1
sS'total_cq'
p232
I7
sa(dp233
g228
I8
sg229
F24.05299401283264
sg230
F0.00010085105895996094
sg231
I2
sg232
I5
sasS'total_cqs'
p234
I7
ssI26
(dp235
S'iters'
p236
I6
sS'meta'
p237
(lp238
(dp239
S'objective'
p240
I65
sS'query_time'
p241
F6.903724908828735
sS'comp_time'
p242
F0.00011014938354492188
sS'exec_cq'
p243
I1
sS'total_cq'
p244
I13
sa(dp245
g240
I52
sg241
F1.7747740745544434
sg242
F9.202957153320312e-05
sg243
I1
sg244
I12
sa(dp246
g240
I43
sg241
F0.03316998481750488
sg242
F6.794929504394531e-05
sg243
I1
sg244
I10
sa(dp247
g240
I34
sg241
F0.02409219741821289
sg242
F6.699562072753906e-05
sg243
I1
sg244
I9
sa(dp248
g240
I26
sg241
F18.914534091949463
sg242
F0.0002772808074951172
sg243
I1
sg244
I8
sa(dp249
g240
I19
sg241
F0.0062389373779296875
sg242
F7.176399230957031e-05
sg243
I1
sg244
I7
sasS'total_cqs'
p250
I13
ssI27
(dp251
S'iters'
p252
I1
sS'meta'
p253
(lp254
(dp255
S'objective'
p256
I1
sS'query_time'
p257
F0.38907790184020996
sS'comp_time'
p258
F0.00011801719665527344
sS'exec_cq'
p259
I1
sS'total_cq'
p260
I2
sasS'total_cqs'
p261
I2
ssI28
(dp262
S'iters'
p263
I3
sS'meta'
p264
(lp265
(dp266
S'objective'
p267
I7
sS'query_time'
p268
F1.8833751678466797
sS'comp_time'
p269
F0.0001010894775390625
sS'exec_cq'
p270
I1
sS'total_cq'
p271
I14
sa(dp272
g267
I4
sg268
F1.3530869483947754
sg269
F0.00010728836059570312
sg270
I1
sg271
I9
sa(dp273
g267
I14
sg268
F0.5351898670196533
sg269
F0.00010561943054199219
sg270
I1
sg271
I6
sasS'total_cqs'
p274
I14
ssI29
(dp275
S'iters'
p276
I1
sS'meta'
p277
(lp278
(dp279
S'objective'
p280
I1
sS'query_time'
p281
F0.004614830017089844
sS'comp_time'
p282
F6.604194641113281e-05
sS'exec_cq'
p283
I1
sS'total_cq'
p284
I2
sasS'total_cqs'
p285
I2
ssI30
(dp286
S'iters'
p287
I1
sS'meta'
p288
(lp289
(dp290
S'objective'
p291
I1
sS'query_time'
p292
F0.4065251350402832
sS'comp_time'
p293
F7.414817810058594e-05
sS'exec_cq'
p294
I1
sS'total_cq'
p295
I2
sasS'total_cqs'
p296
I2
ssI31
(dp297
S'iters'
p298
I3
sS'meta'
p299
(lp300
(dp301
S'objective'
p302
I21
sS'query_time'
p303
F1.6871740818023682
sS'comp_time'
p304
F9.322166442871094e-05
sS'exec_cq'
p305
I1
sS'total_cq'
p306
I9
sa(dp307
g302
I3
sg303
F3.8013319969177246
sg304
F8.106231689453125e-05
sg305
I1
sg306
I7
sa(dp308
g302
I6
sg303
F0.4147942066192627
sg304
F7.796287536621094e-05
sg305
I1
sg306
I5
sasS'total_cqs'
p309
I9
ssI32
(dp310
S'iters'
p311
I3
sS'meta'
p312
(lp313
(dp314
S'objective'
p315
I14
sS'query_time'
p316
F7.250488042831421
sS'comp_time'
p317
F0.00025200843811035156
sS'exec_cq'
p318
I1
sS'total_cq'
p319
I7
sa(dp320
g315
I9
sg316
F7.8193519115448
sg317
F7.796287536621094e-05
sg318
I1
sg319
I6
sa(dp321
g315
I5
sg316
F0.11089611053466797
sg317
F8.20159912109375e-05
sg318
I1
sg319
I5
sasS'total_cqs'
p322
I7
ssI33
(dp323
S'iters'
p324
I1
sS'meta'
p325
(lp326
(dp327
S'objective'
p328
I1
sS'query_time'
p329
F0.027067899703979492
sS'comp_time'
p330
F6.818771362304688e-05
sS'exec_cq'
p331
I1
sS'total_cq'
p332
I2
sasS'total_cqs'
p333
I2
ssI34
(dp334
S'iters'
p335
I0
sS'meta'
p336
(lp337
sS'total_cqs'
p338
I1
ssI35
(dp339
S'iters'
p340
I2
sS'meta'
p341
(lp342
(dp343
S'objective'
p344
I5
sS'query_time'
p345
F8.13396406173706
sS'comp_time'
p346
F9.083747863769531e-05
sS'exec_cq'
p347
I1
sS'total_cq'
p348
I5
sa(dp349
g344
I2
sg345
F0.057311058044433594
sg346
F5.888938903808594e-05
sg347
I1
sg348
I4
sasS'total_cqs'
p350
I5
ssI37
(dp351
S'iters'
p352
I4
sS'meta'
p353
(lp354
(dp355
S'objective'
p356
I37
sS'query_time'
p357
F0.0107269287109375
sS'comp_time'
p358
F8.082389831542969e-05
sS'exec_cq'
p359
I2
sS'total_cq'
p360
I10
sa(dp361
g356
I30
sg357
F0.8534419536590576
sg358
F0.00010991096496582031
sg359
I2
sg360
I9
sa(dp362
g356
I24
sg357
F0.7788739204406738
sg358
F7.891654968261719e-05
sg359
I2
sg360
I8
sa(dp363
g356
I19
sg357
F0.49879002571105957
sg358
F0.0007698535919189453
sg359
I2
sg360
I7
sasS'total_cqs'
p364
I10
ssI38
(dp365
S'iters'
p366
I0
sS'meta'
p367
(lp368
sS'total_cqs'
p369
I1
ssI39
(dp370
S'iters'
p371
I0
sS'meta'
p372
(lp373
sS'total_cqs'
p374
I1
ssI40
(dp375
S'iters'
p376
I1
sS'meta'
p377
(lp378
(dp379
S'objective'
p380
I1
sS'query_time'
p381
F18.643431901931763
sS'comp_time'
p382
F0.0002880096435546875
sS'exec_cq'
p383
I2
sS'total_cq'
p384
I2
sasS'total_cqs'
p385
I2
ssI41
(dp386
S'iters'
p387
I4
sS'meta'
p388
(lp389
(dp390
S'objective'
p391
I5
sS'query_time'
p392
F2.188807964324951
sS'comp_time'
p393
F0.0002040863037109375
sS'exec_cq'
p394
I1
sS'total_cq'
p395
I6
sa(dp396
g391
I3
sg392
F0.2418220043182373
sg393
F6.318092346191406e-05
sg394
I1
sg395
I4
sa(dp397
g391
I2
sg392
F0.6102008819580078
sg393
F7.700920104980469e-05
sg394
I1
sg395
I3
sa(dp398
g391
I3
sg392
F72.35285997390747
sg393
F8.106231689453125e-05
sg394
I2
sg395
I2
sasS'total_cqs'
p399
I6
ssI42
(dp400
S'iters'
p401
I1
sS'meta'
p402
(lp403
(dp404
S'objective'
p405
I1
sS'query_time'
p406
F0.01085805892944336
sS'comp_time'
p407
F7.200241088867188e-05
sS'exec_cq'
p408
I1
sS'total_cq'
p409
I2
sasS'total_cqs'
p410
I2
ssI43
(dp411
S'iters'
p412
I0
sS'meta'
p413
(lp414
sS'total_cqs'
p415
I1
ssI44
(dp416
S'iters'
p417
I2
sS'meta'
p418
(lp419
(dp420
S'objective'
p421
I3
sS'query_time'
p422
F3.0868539810180664
sS'comp_time'
p423
F8.0108642578125e-05
sS'exec_cq'
p424
I1
sS'total_cq'
p425
I5
sa(dp426
g421
I1
sg422
F0.003320932388305664
sg423
F4.38690185546875e-05
sg424
I1
sg425
I3
sasS'total_cqs'
p427
I5
ssI45
(dp428
S'iters'
p429
I2
sS'meta'
p430
(lp431
(dp432
S'objective'
p433
I3
sS'query_time'
p434
F0.046807050704956055
sS'comp_time'
p435
F9.202957153320312e-05
sS'exec_cq'
p436
I2
sS'total_cq'
p437
I5
sa(dp438
g433
I2
sg434
F0.7686879634857178
sg435
F8.416175842285156e-05
sg436
I2
sg437
I2
sasS'total_cqs'
p439
I5
ssI46
(dp440
S'iters'
p441
I0
sS'meta'
p442
(lp443
sS'total_cqs'
p444
I1
ssI47
(dp445
S'iters'
p446
I0
sS'meta'
p447
(lp448
sS'total_cqs'
p449
I1
ssI48
(dp450
S'iters'
p451
I1
sS'meta'
p452
(lp453
(dp454
S'objective'
p455
I1
sS'query_time'
p456
F0.19337201118469238
sS'comp_time'
p457
F0.00013518333435058594
sS'exec_cq'
p458
I1
sS'total_cq'
p459
I2
sasS'total_cqs'
p460
I2
ssI49
(dp461
S'iters'
p462
I2
sS'meta'
p463
(lp464
(dp465
S'objective'
p466
I5
sS'query_time'
p467
F0.1313309669494629
sS'comp_time'
p468
F6.604194641113281e-05
sS'exec_cq'
p469
I1
sS'total_cq'
p470
I5
sa(dp471
g466
I2
sg467
F0.15003705024719238
sg468
F7.891654968261719e-05
sg469
I1
sg470
I4
sasS'total_cqs'
p472
I5
ssI50
(dp473
S'iters'
p474
I2
sS'meta'
p475
(lp476
(dp477
S'objective'
p478
I5
sS'query_time'
p479
F0.023679018020629883
sS'comp_time'
p480
F7.295608520507812e-05
sS'exec_cq'
p481
I1
sS'total_cq'
p482
I5
sa(dp483
g478
I2
sg479
F0.8668720722198486
sg480
F8.797645568847656e-05
sg481
I1
sg482
I4
sasS'total_cqs'
p484
I5
ssI51
(dp485
S'iters'
p486
I0
sS'meta'
p487
(lp488
sS'total_cqs'
p489
I1
ssI52
(dp490
S'iters'
p491
I0
sS'meta'
p492
(lp493
sS'total_cqs'
p494
I1
ssI53
(dp495
S'iters'
p496
I0
sS'meta'
p497
(lp498
sS'total_cqs'
p499
I1
ssI55
(dp500
S'iters'
p501
I1
sS'meta'
p502
(lp503
(dp504
S'objective'
p505
I1
sS'query_time'
p506
F28.78388810157776
sS'comp_time'
p507
F0.00010704994201660156
sS'exec_cq'
p508
I1
sS'total_cq'
p509
I2
sasS'total_cqs'
p510
I2
ssI56
(dp511
S'iters'
p512
I0
sS'meta'
p513
(lp514
sS'total_cqs'
p515
I1
ssI57
(dp516
S'iters'
p517
I1
sS'meta'
p518
(lp519
(dp520
S'objective'
p521
I0
sS'query_time'
p522
F12.006802082061768
sS'comp_time'
p523
F9.202957153320312e-05
sS'exec_cq'
p524
I1
sS'total_cq'
p525
I3
sasS'total_cqs'
p526
I3
ssI108
(dp527
S'iters'
p528
I0
sS'meta'
p529
(lp530
sS'total_cqs'
p531
I1
ssI109
(dp532
S'iters'
p533
I0
sS'meta'
p534
(lp535
sS'total_cqs'
p536
I1
ssI116
(dp537
S'iters'
p538
I4
sS'meta'
p539
(lp540
(dp541
S'objective'
p542
I191
sS'query_time'
p543
F1.1683478355407715
sS'comp_time'
p544
F9.322166442871094e-05
sS'exec_cq'
p545
I2
sS'total_cq'
p546
I21
sa(dp547
g542
I183
sg543
F0.1448829174041748
sg544
F9.202957153320312e-05
sg545
I7
sg546
I20
sa(dp548
g542
I169
sg543
F2.410645008087158
sg544
F0.00011205673217773438
sg545
I8
sg546
I19
sa(dp549
g542
I10
sg543
F1.2697978019714355
sg544
F8.797645568847656e-05
sg545
I1
sg546
I2
sasS'total_cqs'
p550
I21
ssI117
(dp551
S'iters'
p552
I1
sS'meta'
p553
(lp554
(dp555
S'objective'
p556
I7
sS'query_time'
p557
F0.005960941314697266
sS'comp_time'
p558
F5.817413330078125e-05
sS'exec_cq'
p559
I2
sS'total_cq'
p560
I5
sasS'total_cqs'
p561
I5
ssI118
(dp562
S'iters'
p563
I0
sS'meta'
p564
(lp565
sS'total_cqs'
p566
I1
ssI122
(dp567
S'iters'
p568
I0
sS'meta'
p569
(lp570
sS'total_cqs'
p571
I1
ss.