(dp0
I1
(dp1
S'iters'
p2
I3
sS'meta'
p3
(lp4
(dp5
S'objective'
p6
I1
sS'query_time'
p7
F34.760475158691406
sS'comp_time'
p8
F2.357490062713623
sS'exec_cq'
p9
I2
sS'total_cq'
p10
I6
sa(dp11
g6
I0
sg7
F12.090717077255249
sg8
F0.707813024520874
sg9
I3
sg10
I4
sa(dp12
g6
I1
sg7
F0.16936993598937988
sg8
F0.6714842319488525
sg9
I2
sg10
I2
sasS'total_cqs'
p13
I6
ssI2
(dp14
S'iters'
p15
I1
sS'meta'
p16
(lp17
(dp18
S'objective'
p19
I15
sS'query_time'
p20
F0.9654300212860107
sS'comp_time'
p21
F0.22329926490783691
sS'exec_cq'
p22
I5
sS'total_cq'
p23
I6
sasS'total_cqs'
p24
I6
ssI3
(dp25
S'iters'
p26
I14
sS'meta'
p27
(lp28
(dp29
S'objective'
p30
I433
sS'query_time'
p31
F0.4113337993621826
sS'comp_time'
p32
F0.1421210765838623
sS'exec_cq'
p33
I13
sS'total_cq'
p34
I33
sa(dp35
g30
I399
sg31
F25.96745800971985
sg32
F0.09455609321594238
sg33
I15
sg34
I30
sa(dp36
g30
I330
sg31
F0.0055179595947265625
sg32
F0.12509822845458984
sg33
I10
sg34
I27
sa(dp37
g30
I293
sg31
F0.01061105728149414
sg32
F0.06576919555664062
sg33
I12
sg34
I24
sa(dp38
g30
I223
sg31
F0.0035431385040283203
sg32
F0.10356926918029785
sg33
I7
sg34
I21
sa(dp39
g30
I224
sg31
F0.009409904479980469
sg32
F0.05928945541381836
sg33
I9
sg34
I19
sa(dp40
g30
I187
sg31
F0.19286608695983887
sg32
F0.02013707160949707
sg33
I5
sg34
I16
sa(dp41
g30
I216
sg31
F0.00023102760314941406
sg32
F0.0035996437072753906
sg33
I6
sg34
I15
sa(dp42
g30
I130
sg31
F0.08837389945983887
sg32
F0.01668691635131836
sg33
I5
sg34
I14
sa(dp43
g30
I172
sg31
F2.6941299438476562e-05
sg32
F0.0027587413787841797
sg33
I5
sg34
I11
sa(dp44
g30
I69
sg31
F0.41846799850463867
sg32
F0.3760569095611572
sg33
I4
sg34
I10
sa(dp45
g30
I75
sg31
F0.007889032363891602
sg32
F0.02103400230407715
sg33
I4
sg34
I7
sa(dp46
g30
I58
sg31
F0.002671957015991211
sg32
F0.020231246948242188
sg33
I3
sg34
I6
sa(dp47
g30
I58
sg31
F0.0031609535217285156
sg32
F0.015452861785888672
sg33
I2
sg34
I5
sasS'total_cqs'
p48
I33
ssI4
(dp49
S'iters'
p50
I0
sS'meta'
p51
(lp52
sS'total_cqs'
p53
I1
ssI5
(dp54
S'iters'
p55
I0
sS'meta'
p56
(lp57
sS'total_cqs'
p58
I1
ssI6
(dp59
S'iters'
p60
I3
sS'meta'
p61
(lp62
(dp63
S'objective'
p64
I1
sS'query_time'
p65
F14.916762113571167
sS'comp_time'
p66
F0.0073239803314208984
sS'exec_cq'
p67
I4
sS'total_cq'
p68
I5
sa(dp69
g64
I0
sg65
F0.0005021095275878906
sg66
F0.003172636032104492
sg67
I2
sg68
I3
sa(dp70
g64
I2
sg65
F5.1975250244140625e-05
sg66
F0.00040984153747558594
sg67
I1
sg68
I2
sasS'total_cqs'
p71
I5
ssI7
(dp72
S'iters'
p73
I0
sS'meta'
p74
(lp75
sS'total_cqs'
p76
I1
ssI8
(dp77
S'iters'
p78
I4
sS'meta'
p79
(lp80
(dp81
S'objective'
p82
I19
sS'query_time'
p83
F23.30751895904541
sS'comp_time'
p84
F0.34862828254699707
sS'exec_cq'
p85
I5
sS'total_cq'
p86
I6
sa(dp87
g82
I0
sg83
F0.1931629180908203
sg84
F0.18041110038757324
sg85
I4
sg86
I5
sa(dp88
g82
I0
sg83
F1.6768221855163574
sg84
F1.6438171863555908
sg85
I2
sg86
I3
sa(dp89
g82
I1
sg83
F0.001821756362915039
sg84
F0.0015940666198730469
sg85
I1
sg86
I2
sasS'total_cqs'
p90
I6
ssI9
(dp91
S'iters'
p92
I3
sS'meta'
p93
(lp94
(dp95
S'objective'
p96
I3
sS'query_time'
p97
F12.28003191947937
sS'comp_time'
p98
F0.725419282913208
sS'exec_cq'
p99
I3
sS'total_cq'
p100
I6
sa(dp101
g96
I1
sg97
F0.06391596794128418
sg98
F0.6333653926849365
sg99
I3
sg100
I3
sa(dp102
g96
I1
sg97
F0.04509902000427246
sg98
F0.46364474296569824
sg99
I2
sg100
I2
sasS'total_cqs'
p103
I6
ssI10
(dp104
S'iters'
p105
I0
sS'meta'
p106
(lp107
sS'total_cqs'
p108
I1
ssI11
(dp109
S'iters'
p110
I0
sS'meta'
p111
(lp112
sS'total_cqs'
p113
I1
ssI12
(dp114
S'iters'
p115
I0
sS'meta'
p116
(lp117
sS'total_cqs'
p118
I1
ssI13
(dp119
S'iters'
p120
I2
sS'meta'
p121
(lp122
(dp123
S'objective'
p124
I26
sS'query_time'
p125
F0.020123004913330078
sS'comp_time'
p126
F0.010377883911132812
sS'exec_cq'
p127
I6
sS'total_cq'
p128
I8
sa(dp129
g124
I25
sg125
F3.4809112548828125e-05
sg126
F0.00013780593872070312
sg127
I5
sg128
I7
sasS'total_cqs'
p130
I8
ssI14
(dp131
S'iters'
p132
I2
sS'meta'
p133
(lp134
(dp135
S'objective'
p136
I7
sS'query_time'
p137
F1.0335719585418701
sS'comp_time'
p138
F0.00838017463684082
sS'exec_cq'
p139
I5
sS'total_cq'
p140
I5
sa(dp141
g136
I5
sg137
F0.0007760524749755859
sg138
F0.005026102066040039
sg139
I4
sg140
I4
sasS'total_cqs'
p142
I5
ssI16
(dp143
S'iters'
p144
I2
sS'meta'
p145
(lp146
(dp147
S'objective'
p148
I1
sS'query_time'
p149
F1.3757970333099365
sS'comp_time'
p150
F0.012054920196533203
sS'exec_cq'
p151
I4
sS'total_cq'
p152
I5
sa(dp153
g148
I2
sg149
F4.601478576660156e-05
sg150
F0.0003638267517089844
sg151
I2
sg152
I3
sasS'total_cqs'
p154
I5
ssI17
(dp155
S'iters'
p156
I0
sS'meta'
p157
(lp158
sS'total_cqs'
p159
I1
ssI18
(dp160
S'iters'
p161
I3
sS'meta'
p162
(lp163
(dp164
S'objective'
p165
I1
sS'query_time'
p166
F0.1644749641418457
sS'comp_time'
p167
F0.004545927047729492
sS'exec_cq'
p168
I4
sS'total_cq'
p169
I5
sa(dp170
g165
I0
sg166
F3.814697265625e-05
sg167
F0.0002529621124267578
sg168
I2
sg169
I3
sa(dp171
g165
I2
sg166
F0.044348955154418945
sg167
F0.00019478797912597656
sg168
I1
sg169
I2
sasS'total_cqs'
p172
I5
ssI19
(dp173
S'iters'
p174
I0
sS'meta'
p175
(lp176
sS'total_cqs'
p177
I1
ssI20
(dp178
S'iters'
p179
I6
sS'meta'
p180
(lp181
(dp182
S'objective'
p183
I50
sS'query_time'
p184
F9.29116177558899
sS'comp_time'
p185
F1.5724363327026367
sS'exec_cq'
p186
I6
sS'total_cq'
p187
I12
sa(dp188
g183
I40
sg184
F0.23447299003601074
sg185
F1.133333683013916
sg186
I4
sg187
I10
sa(dp189
g183
I16
sg184
F3.9475948810577393
sg185
F0.3170030117034912
sg186
I4
sg187
I9
sa(dp190
g183
I10
sg184
F0.009302139282226562
sg185
F0.05653047561645508
sg186
I3
sg187
I7
sa(dp191
g183
I12
sg184
F0.12291097640991211
sg185
F0.26303529739379883
sg186
I3
sg187
I5
sa(dp192
g183
I9
sg184
F0.10417413711547852
sg185
F0.004992008209228516
sg186
I2
sg187
I4
sasS'total_cqs'
p193
I12
ssI21
(dp194
S'iters'
p195
I5
sS'meta'
p196
(lp197
(dp198
S'objective'
p199
I53
sS'query_time'
p200
F30.456089973449707
sS'comp_time'
p201
F0.27605414390563965
sS'exec_cq'
p202
I8
sS'total_cq'
p203
I14
sa(dp204
g199
I5
sg200
F30.09965705871582
sg201
F1.7942149639129639
sg202
I4
sg203
I10
sa(dp205
g199
I12
sg200
F0.011035919189453125
sg201
F0.0660085678100586
sg202
I4
sg203
I6
sa(dp206
g199
I5
sg200
F0.0012290477752685547
sg201
F0.008463144302368164
sg202
I2
sg203
I4
sa(dp207
g199
I6
sg200
F0.013983011245727539
sg201
F0.00014519691467285156
sg202
I1
sg203
I2
sasS'total_cqs'
p208
I14
ssI22
(dp209
S'iters'
p210
I1
sS'meta'
p211
(lp212
(dp213
S'objective'
p214
I1
sS'query_time'
p215
F0.023495912551879883
sS'comp_time'
p216
F0.0016219615936279297
sS'exec_cq'
p217
I1
sS'total_cq'
p218
I2
sasS'total_cqs'
p219
I2
ssI23
(dp220
S'iters'
p221
I0
sS'meta'
p222
(lp223
sS'total_cqs'
p224
I1
ssI24
(dp225
S'iters'
p226
I0
sS'meta'
p227
(lp228
sS'total_cqs'
p229
I1
ssI25
(dp230
S'iters'
p231
I4
sS'meta'
p232
(lp233
(dp234
S'objective'
p235
I22
sS'query_time'
p236
F49.27931308746338
sS'comp_time'
p237
F5.321446418762207
sS'exec_cq'
p238
I4
sS'total_cq'
p239
I7
sa(dp240
g235
I1
sg236
F4.180356979370117
sg237
F0.31566476821899414
sg238
I2
sg239
I5
sa(dp241
g235
I1
sg236
F0.05992603302001953
sg237
F0.0981905460357666
sg238
I2
sg239
I3
sa(dp242
g235
I1
sg236
F0.007391929626464844
sg237
F0.045948028564453125
sg238
I1
sg239
I2
sasS'total_cqs'
p243
I7
ssI26
(dp244
S'iters'
p245
I8
sS'meta'
p246
(lp247
(dp248
S'objective'
p249
I65
sS'query_time'
p250
F0.25664186477661133
sS'comp_time'
p251
F0.027422189712524414
sS'exec_cq'
p252
I4
sS'total_cq'
p253
I13
sa(dp254
g249
I56
sg250
F23.16915202140808
sg251
F5.003093481063843
sg252
I3
sg253
I11
sa(dp255
g249
I25
sg250
F3.4458069801330566
sg251
F0.014528036117553711
sg252
I2
sg253
I10
sa(dp256
g249
I22
sg250
F0.0007920265197753906
sg251
F0.004918575286865234
sg252
I2
sg253
I8
sa(dp257
g249
I10
sg250
F0.013094902038574219
sg251
F0.00016021728515625
sg252
I2
sg253
I7
sa(dp258
g249
I8
sg250
F0.0006270408630371094
sg251
F0.004497051239013672
sg252
I2
sg253
I5
sa(dp259
g249
I3
sg250
F0.00020503997802734375
sg251
F0.0016748905181884766
sg252
I1
sg253
I4
sa(dp260
g249
I1
sg250
F0.0027039051055908203
sg251
F7.104873657226562e-05
sg252
I1
sg253
I3
sasS'total_cqs'
p261
I13
ssI27
(dp262
S'iters'
p263
I1
sS'meta'
p264
(lp265
(dp266
S'objective'
p267
I1
sS'query_time'
p268
F0.23702502250671387
sS'comp_time'
p269
F0.007200956344604492
sS'exec_cq'
p270
I1
sS'total_cq'
p271
I2
sasS'total_cqs'
p272
I2
ssI28
(dp273
S'iters'
p274
I8
sS'meta'
p275
(lp276
(dp277
S'objective'
p278
I49
sS'query_time'
p279
F1.4449670314788818
sS'comp_time'
p280
F0.201552152633667
sS'exec_cq'
p281
I6
sS'total_cq'
p282
I14
sa(dp283
g278
I31
sg279
F0.004770994186401367
sg280
F0.02663588523864746
sg281
I3
sg282
I11
sa(dp284
g278
I30
sg279
F0.002925872802734375
sg280
F0.024187564849853516
sg281
I1
sg282
I9
sa(dp285
g278
I26
sg279
F0.005321979522705078
sg280
F0.0001430511474609375
sg281
I2
sg282
I8
sa(dp286
g278
I14
sg279
F0.013541936874389648
sg280
F0.0008740425109863281
sg281
I1
sg282
I7
sa(dp287
g278
I10
sg279
F0.008800029754638672
sg280
F0.0005881786346435547
sg281
I1
sg282
I6
sa(dp288
g278
I5
sg279
F0.017502784729003906
sg280
F0.0011780261993408203
sg281
I1
sg282
I5
sa(dp289
g278
I1
sg279
F0.0025510787963867188
sg280
F0.00010919570922851562
sg281
I1
sg282
I4
sasS'total_cqs'
p290
I14
ssI29
(dp291
S'iters'
p292
I1
sS'meta'
p293
(lp294
(dp295
S'objective'
p296
I1
sS'query_time'
p297
F0.005376100540161133
sS'comp_time'
p298
F0.001535654067993164
sS'exec_cq'
p299
I2
sS'total_cq'
p300
I2
sasS'total_cqs'
p301
I2
ssI30
(dp302
S'iters'
p303
I1
sS'meta'
p304
(lp305
(dp306
S'objective'
p307
I1
sS'query_time'
p308
F0.3240020275115967
sS'comp_time'
p309
F0.005010128021240234
sS'exec_cq'
p310
I2
sS'total_cq'
p311
I2
sasS'total_cqs'
p312
I2
ssI31
(dp313
S'iters'
p314
I3
sS'meta'
p315
(lp316
(dp317
S'objective'
p318
I5
sS'query_time'
p319
F1.6064021587371826
sS'comp_time'
p320
F0.062279701232910156
sS'exec_cq'
p321
I5
sS'total_cq'
p322
I9
sa(dp323
g318
I2
sg319
F0.012572050094604492
sg320
F0.11734294891357422
sg321
I3
sg322
I3
sa(dp324
g318
I3
sg319
F0.01235198974609375
sg320
F0.0469510555267334
sg321
I2
sg322
I2
sasS'total_cqs'
p325
I9
ssI32
(dp326
S'iters'
p327
I4
sS'meta'
p328
(lp329
(dp330
S'objective'
p331
I2
sS'query_time'
p332
F20.55064606666565
sS'comp_time'
p333
F4.359055757522583
sS'exec_cq'
p334
I4
sS'total_cq'
p335
I7
sa(dp336
g331
I1
sg332
F1.1304328441619873
sg333
F0.02198314666748047
sg334
I2
sg335
I4
sa(dp337
g331
I0
sg332
F0.0017728805541992188
sg333
F0.01404428482055664
sg334
I1
sg335
I3
sa(dp338
g331
I2
sg332
F0.43166613578796387
sg333
F1.7898008823394775
sg334
I1
sg335
I2
sasS'total_cqs'
p339
I7
ssI33
(dp340
S'iters'
p341
I1
sS'meta'
p342
(lp343
(dp344
S'objective'
p345
I1
sS'query_time'
p346
F0.025120019912719727
sS'comp_time'
p347
F0.001936197280883789
sS'exec_cq'
p348
I2
sS'total_cq'
p349
I2
sasS'total_cqs'
p350
I2
ssI34
(dp351
S'iters'
p352
I0
sS'meta'
p353
(lp354
sS'total_cqs'
p355
I1
ssI35
(dp356
S'iters'
p357
I3
sS'meta'
p358
(lp359
(dp360
S'objective'
p361
I1
sS'query_time'
p362
F14.016488075256348
sS'comp_time'
p363
F0.3132622241973877
sS'exec_cq'
p364
I4
sS'total_cq'
p365
I5
sa(dp366
g361
I0
sg362
F0.0827789306640625
sg363
F0.06685304641723633
sg364
I2
sg365
I3
sa(dp367
g361
I2
sg362
F0.000518798828125
sg363
F0.0031037330627441406
sg364
I1
sg365
I2
sasS'total_cqs'
p368
I5
ssI37
(dp369
S'iters'
p370
I2
sS'meta'
p371
(lp372
(dp373
S'objective'
p374
I33
sS'query_time'
p375
F0.5132489204406738
sS'comp_time'
p376
F0.0802922248840332
sS'exec_cq'
p377
I4
sS'total_cq'
p378
I10
sa(dp379
g374
I3
sg375
F0.0040590763092041016
sg376
F0.018062114715576172
sg377
I2
sg378
I2
sasS'total_cqs'
p380
I10
ssI38
(dp381
S'iters'
p382
I0
sS'meta'
p383
(lp384
sS'total_cqs'
p385
I1
ssI39
(dp386
S'iters'
p387
I0
sS'meta'
p388
(lp389
sS'total_cqs'
p390
I1
ssI40
(dp391
S'iters'
p392
I1
sS'meta'
p393
(lp394
(dp395
S'objective'
p396
I1
sS'query_time'
p397
F0.003361940383911133
sS'comp_time'
p398
F0.0010039806365966797
sS'exec_cq'
p399
I1
sS'total_cq'
p400
I2
sasS'total_cqs'
p401
I2
ssI41
(dp402
S'iters'
p403
I2
sS'meta'
p404
(lp405
(dp406
S'objective'
p407
I5
sS'query_time'
p408
F1.0236690044403076
sS'comp_time'
p409
F0.010717153549194336
sS'exec_cq'
p410
I2
sS'total_cq'
p411
I6
sa(dp412
g407
I2
sg408
F0.0009620189666748047
sg409
F0.005206108093261719
sg410
I2
sg411
I2
sasS'total_cqs'
p413
I6
ssI42
(dp414
S'iters'
p415
I1
sS'meta'
p416
(lp417
(dp418
S'objective'
p419
I1
sS'query_time'
p420
F0.008108139038085938
sS'comp_time'
p421
F0.0005981922149658203
sS'exec_cq'
p422
I1
sS'total_cq'
p423
I2
sasS'total_cqs'
p424
I2
ssI43
(dp425
S'iters'
p426
I0
sS'meta'
p427
(lp428
sS'total_cqs'
p429
I1
ssI44
(dp430
S'iters'
p431
I3
sS'meta'
p432
(lp433
(dp434
S'objective'
p435
I7
sS'query_time'
p436
F1.3008379936218262
sS'comp_time'
p437
F0.1880340576171875
sS'exec_cq'
p438
I2
sS'total_cq'
p439
I5
sa(dp440
g435
I1
sg436
F0.24509787559509277
sg437
F0.0020377635955810547
sg438
I2
sg439
I4
sa(dp441
g435
I0
sg436
F0.003297090530395508
sg437
F8.58306884765625e-05
sg438
I1
sg439
I3
sasS'total_cqs'
p442
I5
ssI45
(dp443
S'iters'
p444
I2
sS'meta'
p445
(lp446
(dp447
S'objective'
p448
I1
sS'query_time'
p449
F0.03137516975402832
sS'comp_time'
p450
F0.0025482177734375
sS'exec_cq'
p451
I3
sS'total_cq'
p452
I5
sa(dp453
g448
I2
sg449
F0.0001690387725830078
sg450
F0.0007107257843017578
sg451
I2
sg452
I2
sasS'total_cqs'
p454
I5
ssI46
(dp455
S'iters'
p456
I0
sS'meta'
p457
(lp458
sS'total_cqs'
p459
I1
ssI47
(dp460
S'iters'
p461
I0
sS'meta'
p462
(lp463
sS'total_cqs'
p464
I1
ssI48
(dp465
S'iters'
p466
I1
sS'meta'
p467
(lp468
(dp469
S'objective'
p470
I1
sS'query_time'
p471
F0.19283390045166016
sS'comp_time'
p472
F0.004420757293701172
sS'exec_cq'
p473
I2
sS'total_cq'
p474
I2
sasS'total_cqs'
p475
I2
ssI49
(dp476
S'iters'
p477
I2
sS'meta'
p478
(lp479
(dp480
S'objective'
p481
I1
sS'query_time'
p482
F0.2433319091796875
sS'comp_time'
p483
F0.005970001220703125
sS'exec_cq'
p484
I4
sS'total_cq'
p485
I5
sa(dp486
g481
I2
sg482
F3.218650817871094e-05
sg483
F0.00020837783813476562
sg484
I2
sg485
I3
sasS'total_cqs'
p487
I5
ssI50
(dp488
S'iters'
p489
I3
sS'meta'
p490
(lp491
(dp492
S'objective'
p493
I5
sS'query_time'
p494
F0.6720809936523438
sS'comp_time'
p495
F0.008696556091308594
sS'exec_cq'
p496
I5
sS'total_cq'
p497
I5
sa(dp498
g493
I2
sg494
F0.00018787384033203125
sg495
F0.0009763240814208984
sg496
I4
sg497
I4
sa(dp499
g493
I0
sg494
F9.608268737792969e-05
sg495
F0.0007092952728271484
sg496
I3
sg497
I3
sasS'total_cqs'
p500
I5
ssI51
(dp501
S'iters'
p502
I0
sS'meta'
p503
(lp504
sS'total_cqs'
p505
I1
ssI52
(dp506
S'iters'
p507
I0
sS'meta'
p508
(lp509
sS'total_cqs'
p510
I1
ssI53
(dp511
S'iters'
p512
I0
sS'meta'
p513
(lp514
sS'total_cqs'
p515
I1
ssI55
(dp516
S'iters'
p517
I1
sS'meta'
p518
(lp519
(dp520
S'objective'
p521
I1
sS'query_time'
p522
F24.435533046722412
sS'comp_time'
p523
F2.9393601417541504
sS'exec_cq'
p524
I2
sS'total_cq'
p525
I2
sasS'total_cqs'
p526
I2
ssI56
(dp527
S'iters'
p528
I0
sS'meta'
p529
(lp530
sS'total_cqs'
p531
I1
ssI57
(dp532
S'iters'
p533
I1
sS'meta'
p534
(lp535
(dp536
S'objective'
p537
I2
sS'query_time'
p538
F12.472018003463745
sS'comp_time'
p539
F2.3641128540039062
sS'exec_cq'
p540
I2
sS'total_cq'
p541
I3
sasS'total_cqs'
p542
I3
ssI108
(dp543
S'iters'
p544
I0
sS'meta'
p545
(lp546
sS'total_cqs'
p547
I1
ssI109
(dp548
S'iters'
p549
I0
sS'meta'
p550
(lp551
sS'total_cqs'
p552
I1
ssI116
(dp553
S'iters'
p554
I3
sS'meta'
p555
(lp556
(dp557
S'objective'
p558
I165
sS'query_time'
p559
F3.5104317665100098
sS'comp_time'
p560
F0.46683692932128906
sS'exec_cq'
p561
I15
sS'total_cq'
p562
I21
sa(dp563
g558
I160
sg559
F0.5506808757781982
sg560
F0.004211902618408203
sg561
I14
sg562
I19
sa(dp564
g558
I5
sg559
F0.0010950565338134766
sg560
F0.0033659934997558594
sg561
I2
sg562
I2
sasS'total_cqs'
p565
I21
ssI117
(dp566
S'iters'
p567
I2
sS'meta'
p568
(lp569
(dp570
S'objective'
p571
I11
sS'query_time'
p572
F0.015210866928100586
sS'comp_time'
p573
F0.0018901824951171875
sS'exec_cq'
p574
I3
sS'total_cq'
p575
I5
sa(dp576
g571
I7
sg572
F0.005569934844970703
sg573
F0.00014066696166992188
sg574
I4
sg575
I4
sasS'total_cqs'
p577
I5
ssI118
(dp578
S'iters'
p579
I0
sS'meta'
p580
(lp581
sS'total_cqs'
p582
I1
ssI122
(dp583
S'iters'
p584
I0
sS'meta'
p585
(lp586
sS'total_cqs'
p587
I1
ss.