(dp0
I1
(dp1
S'iters'
p2
I4
sS'meta'
p3
(lp4
(dp5
S'objective'
p6
I5
sS'query_time'
p7
F15.772911071777344
sS'comp_time'
p8
F0.00016999244689941406
sS'exec_cq'
p9
I1
sS'total_cq'
p10
I6
sa(dp11
g6
I3
sg7
F0.004789829254150391
sg8
F4.100799560546875e-05
sg9
I1
sg10
I4
sa(dp12
g6
I0
sg7
F12.620939016342163
sg8
F0.00032210350036621094
sg9
I1
sg10
I3
sa(dp13
g6
I2
sg7
F26.716784954071045
sg8
F0.00017690658569335938
sg9
I1
sg10
I2
sasS'total_cqs'
p14
I6
ssI2
(dp15
S'iters'
p16
I1
sS'meta'
p17
(lp18
(dp19
S'objective'
p20
I19
sS'query_time'
p21
F0.90444016456604
sS'comp_time'
p22
F8.20159912109375e-05
sS'exec_cq'
p23
I6
sS'total_cq'
p24
I6
sasS'total_cqs'
p25
I6
ssI3
(dp26
S'iters'
p27
I20
sS'meta'
p28
(lp29
(dp30
S'objective'
p31
I479
sS'query_time'
p32
F0.04255795478820801
sS'comp_time'
p33
F5.793571472167969e-05
sS'exec_cq'
p34
I1
sS'total_cq'
p35
I33
sa(dp36
g31
I456
sg32
F0.022841215133666992
sg33
F6.29425048828125e-05
sg34
I1
sg35
I31
sa(dp37
g31
I342
sg32
F0.8376350402832031
sg33
F9.989738464355469e-05
sg34
I1
sg35
I30
sa(dp38
g31
I303
sg32
F0.052104949951171875
sg33
F0.00012111663818359375
sg34
I1
sg35
I27
sa(dp39
g31
I257
sg32
F0.03475594520568848
sg33
F5.793571472167969e-05
sg34
I1
sg35
I24
sa(dp40
g31
I252
sg32
F0.04757809638977051
sg33
F5.888938903808594e-05
sg34
I1
sg35
I21
sa(dp41
g31
I228
sg32
F0.0411839485168457
sg33
F5.507469177246094e-05
sg34
I2
sg35
I20
sa(dp42
g31
I206
sg32
F47.51955199241638
sg33
F8.893013000488281e-05
sg34
I2
sg35
I19
sa(dp43
g31
I150
sg32
F0.012697935104370117
sg33
F4.38690185546875e-05
sg34
I2
sg35
I18
sa(dp44
g31
I148
sg32
F0.11619114875793457
sg33
F7.200241088867188e-05
sg34
I2
sg35
I16
sa(dp45
g31
I111
sg32
F0.23809385299682617
sg33
F0.0001220703125
sg34
I2
sg35
I15
sa(dp46
g31
I102
sg32
F0.005004167556762695
sg33
F3.218650817871094e-05
sg34
I2
sg35
I13
sa(dp47
g31
I91
sg32
F0.005527019500732422
sg33
F3.0994415283203125e-05
sg34
I2
sg35
I12
sa(dp48
g31
I58
sg32
F0.005342006683349609
sg33
F4.291534423828125e-05
sg34
I2
sg35
I11
sa(dp49
g31
I52
sg32
F0.0038530826568603516
sg33
F4.1961669921875e-05
sg34
I2
sg35
I9
sa(dp50
g31
I43
sg32
F0.0028231143951416016
sg33
F4.100799560546875e-05
sg34
I2
sg35
I7
sa(dp51
g31
I33
sg32
F0.0017039775848388672
sg33
F4.1961669921875e-05
sg34
I2
sg35
I6
sa(dp52
g31
I30
sg32
F0.004858970642089844
sg33
F4.220008850097656e-05
sg34
I2
sg35
I5
sa(dp53
g31
I27
sg32
F0.14131593704223633
sg33
F5.1021575927734375e-05
sg34
I2
sg35
I4
sa(dp54
g31
I30
sg32
F0.15718793869018555
sg33
F5.888938903808594e-05
sg34
I3
sg35
I3
sasS'total_cqs'
p55
I33
ssI4
(dp56
S'iters'
p57
I0
sS'meta'
p58
(lp59
sS'total_cqs'
p60
I1
ssI5
(dp61
S'iters'
p62
I0
sS'meta'
p63
(lp64
sS'total_cqs'
p65
I1
ssI6
(dp66
S'iters'
p67
I3
sS'meta'
p68
(lp69
(dp70
S'objective'
p71
I9
sS'query_time'
p72
F7.542176961898804
sS'comp_time'
p73
F7.796287536621094e-05
sS'exec_cq'
p74
I1
sS'total_cq'
p75
I5
sa(dp76
g71
I6
sg72
F1.614879846572876
sg73
F3.600120544433594e-05
sg74
I1
sg75
I4
sa(dp77
g71
I1
sg72
F5.109123945236206
sg73
F6.29425048828125e-05
sg74
I1
sg75
I2
sasS'total_cqs'
p78
I5
ssI7
(dp79
S'iters'
p80
I0
sS'meta'
p81
(lp82
sS'total_cqs'
p83
I1
ssI8
(dp84
S'iters'
p85
I5
sS'meta'
p86
(lp87
(dp88
S'objective'
p89
I9
sS'query_time'
p90
F22.045578002929688
sS'comp_time'
p91
F0.00010514259338378906
sS'exec_cq'
p92
I1
sS'total_cq'
p93
I6
sa(dp94
g89
I5
sg90
F20.0155930519104
sg91
F7.510185241699219e-05
sg92
I1
sg93
I5
sa(dp95
g89
I2
sg90
F2.006793975830078
sg91
F0.00045013427734375
sg92
I1
sg93
I4
sa(dp96
g89
I0
sg90
F20.050837993621826
sg91
F0.00010800361633300781
sg92
I1
sg93
I3
sa(dp97
g89
I1
sg90
F22.24124312400818
sg91
F0.00010800361633300781
sg92
I1
sg93
I2
sasS'total_cqs'
p98
I6
ssI9
(dp99
S'iters'
p100
I5
sS'meta'
p101
(lp102
(dp103
S'objective'
p104
I9
sS'query_time'
p105
F20.014035940170288
sS'comp_time'
p106
F7.104873657226562e-05
sS'exec_cq'
p107
I1
sS'total_cq'
p108
I6
sa(dp109
g104
I5
sg105
F8.52433705329895
sg106
F0.0003521442413330078
sg107
I1
sg108
I5
sa(dp110
g104
I2
sg105
F1.0631380081176758
sg106
F6.389617919921875e-05
sg107
I1
sg108
I4
sa(dp111
g104
I0
sg105
F18.680126905441284
sg106
F0.000125885009765625
sg107
I1
sg108
I3
sa(dp112
g104
I1
sg105
F0.1106410026550293
sg106
F5.507469177246094e-05
sg107
I1
sg108
I2
sasS'total_cqs'
p113
I6
ssI10
(dp114
S'iters'
p115
I0
sS'meta'
p116
(lp117
sS'total_cqs'
p118
I1
ssI11
(dp119
S'iters'
p120
I0
sS'meta'
p121
(lp122
sS'total_cqs'
p123
I1
ssI12
(dp124
S'iters'
p125
I0
sS'meta'
p126
(lp127
sS'total_cqs'
p128
I1
ssI13
(dp129
S'iters'
p130
I2
sS'meta'
p131
(lp132
(dp133
S'objective'
p134
I26
sS'query_time'
p135
F9.090615034103394
sS'comp_time'
p136
F4.410743713378906e-05
sS'exec_cq'
p137
I4
sS'total_cq'
p138
I8
sa(dp139
g134
I29
sg135
F0.0035228729248046875
sg136
F4.00543212890625e-05
sg137
I7
sg138
I7
sasS'total_cqs'
p140
I8
ssI14
(dp141
S'iters'
p142
I3
sS'meta'
p143
(lp144
(dp145
S'objective'
p146
I7
sS'query_time'
p147
F0.253803014755249
sS'comp_time'
p148
F7.414817810058594e-05
sS'exec_cq'
p149
I2
sS'total_cq'
p150
I5
sa(dp151
g146
I5
sg147
F0.019955873489379883
sg148
F6.890296936035156e-05
sg149
I2
sg150
I4
sa(dp152
g146
I6
sg147
F1.0040671825408936
sg148
F8.20159912109375e-05
sg149
I3
sg150
I3
sasS'total_cqs'
p153
I5
ssI16
(dp154
S'iters'
p155
I4
sS'meta'
p156
(lp157
(dp158
S'objective'
p159
I5
sS'query_time'
p160
F1.5912530422210693
sS'comp_time'
p161
F8.797645568847656e-05
sS'exec_cq'
p162
I1
sS'total_cq'
p163
I5
sa(dp164
g159
I2
sg160
F0.2341618537902832
sg161
F8.416175842285156e-05
sg162
I1
sg163
I4
sa(dp165
g159
I2
sg160
F0.06669306755065918
sg161
F7.605552673339844e-05
sg162
I2
sg163
I3
sa(dp166
g159
I2
sg160
F0.05552482604980469
sg161
F6.699562072753906e-05
sg162
I2
sg163
I2
sasS'total_cqs'
p167
I5
ssI17
(dp168
S'iters'
p169
I0
sS'meta'
p170
(lp171
sS'total_cqs'
p172
I1
ssI18
(dp173
S'iters'
p174
I3
sS'meta'
p175
(lp176
(dp177
S'objective'
p178
I1
sS'query_time'
p179
F2.484934091567993
sS'comp_time'
p180
F5.888938903808594e-05
sS'exec_cq'
p181
I1
sS'total_cq'
p182
I5
sa(dp183
g178
I1
sg179
F0.07632803916931152
sg180
F8.511543273925781e-05
sg181
I1
sg182
I3
sa(dp184
g178
I1
sg179
F0.0733189582824707
sg180
F7.200241088867188e-05
sg181
I1
sg182
I2
sasS'total_cqs'
p185
I5
ssI19
(dp186
S'iters'
p187
I0
sS'meta'
p188
(lp189
sS'total_cqs'
p190
I1
ssI20
(dp191
S'iters'
p192
I8
sS'meta'
p193
(lp194
(dp195
S'objective'
p196
I54
sS'query_time'
p197
F1.1398630142211914
sS'comp_time'
p198
F8.082389831542969e-05
sS'exec_cq'
p199
I1
sS'total_cq'
p200
I12
sa(dp201
g196
I46
sg197
F1.3538689613342285
sg198
F9.202957153320312e-05
sg199
I2
sg200
I11
sa(dp202
g196
I38
sg197
F5.4460649490356445
sg198
F0.00011897087097167969
sg199
I2
sg200
I10
sa(dp203
g196
I23
sg197
F7.067657947540283
sg198
F0.00010609626770019531
sg199
I3
sg200
I9
sa(dp204
g196
I23
sg197
F0.3249940872192383
sg198
F8.106231689453125e-05
sg199
I3
sg200
I7
sa(dp205
g196
I21
sg197
F0.0038480758666992188
sg198
F7.200241088867188e-05
sg199
I3
sg200
I6
sa(dp206
g196
I19
sg197
F0.0023620128631591797
sg198
F4.7206878662109375e-05
sg199
I3
sg200
I5
sa(dp207
g196
I20
sg197
F0.09598493576049805
sg198
F8.392333984375e-05
sg199
I4
sg200
I4
sasS'total_cqs'
p208
I12
ssI21
(dp209
S'iters'
p210
I8
sS'meta'
p211
(lp212
(dp213
S'objective'
p214
I77
sS'query_time'
p215
F20.020287036895752
sS'comp_time'
p216
F5.698204040527344e-05
sS'exec_cq'
p217
I1
sS'total_cq'
p218
I14
sa(dp219
g214
I65
sg215
F0.5481619834899902
sg216
F7.605552673339844e-05
sg217
I1
sg218
I13
sa(dp220
g214
I50
sg215
F3.5390639305114746
sg216
F7.390975952148438e-05
sg217
I1
sg218
I12
sa(dp221
g214
I34
sg215
F0.08477997779846191
sg216
F6.985664367675781e-05
sg217
I1
sg218
I10
sa(dp222
g214
I11
sg215
F0.44022417068481445
sg216
F7.390975952148438e-05
sg217
I1
sg218
I8
sa(dp223
g214
I8
sg215
F0.07753610610961914
sg216
F5.91278076171875e-05
sg217
I1
sg218
I6
sa(dp224
g214
I5
sg215
F0.25622987747192383
sg216
F0.00020503997802734375
sg217
I1
sg218
I4
sa(dp225
g214
I10
sg215
F0.20875287055969238
sg216
F5.1975250244140625e-05
sg217
I1
sg218
I3
sasS'total_cqs'
p226
I14
ssI22
(dp227
S'iters'
p228
I1
sS'meta'
p229
(lp230
(dp231
S'objective'
p232
I1
sS'query_time'
p233
F0.007161140441894531
sS'comp_time'
p234
F7.700920104980469e-05
sS'exec_cq'
p235
I1
sS'total_cq'
p236
I2
sasS'total_cqs'
p237
I2
ssI23
(dp238
S'iters'
p239
I0
sS'meta'
p240
(lp241
sS'total_cqs'
p242
I1
ssI24
(dp243
S'iters'
p244
I0
sS'meta'
p245
(lp246
sS'total_cqs'
p247
I1
ssI25
(dp248
S'iters'
p249
I5
sS'meta'
p250
(lp251
(dp252
S'objective'
p253
I14
sS'query_time'
p254
F24.495989084243774
sS'comp_time'
p255
F0.0002028942108154297
sS'exec_cq'
p256
I1
sS'total_cq'
p257
I7
sa(dp258
g253
I5
sg254
F1.724147081375122
sg255
F0.0003368854522705078
sg256
I1
sg257
I6
sa(dp259
g253
I3
sg254
F31.48497200012207
sg255
F0.0001518726348876953
sg256
I1
sg257
I4
sa(dp260
g253
I0
sg254
F8.111658096313477
sg255
F9.322166442871094e-05
sg256
I1
sg257
I3
sa(dp261
g253
I2
sg254
F7.836251974105835
sg255
F9.417533874511719e-05
sg256
I1
sg257
I2
sasS'total_cqs'
p262
I7
ssI26
(dp263
S'iters'
p264
I11
sS'meta'
p265
(lp266
(dp267
S'objective'
p268
I65
sS'query_time'
p269
F0.048445940017700195
sS'comp_time'
p270
F0.00015020370483398438
sS'exec_cq'
p271
I1
sS'total_cq'
p272
I13
sa(dp273
g268
I54
sg269
F0.03563809394836426
sg270
F7.510185241699219e-05
sg271
I1
sg272
I12
sa(dp274
g268
I44
sg269
F21.45266103744507
sg270
F0.0002620220184326172
sg271
I1
sg272
I11
sa(dp275
g268
I35
sg269
F0.03585100173950195
sg270
F4.506111145019531e-05
sg271
I1
sg272
I10
sa(dp276
g268
I21
sg269
F1.3589317798614502
sg270
F4.38690185546875e-05
sg271
I1
sg272
I9
sa(dp277
g268
I17
sg269
F0.02861809730529785
sg270
F4.482269287109375e-05
sg271
I1
sg272
I7
sa(dp278
g268
I11
sg269
F4.289032936096191
sg270
F7.200241088867188e-05
sg271
I1
sg272
I6
sa(dp279
g268
I6
sg269
F0.03515195846557617
sg270
F4.1961669921875e-05
sg271
I1
sg272
I5
sa(dp280
g268
I2
sg269
F0.05296611785888672
sg270
F4.291534423828125e-05
sg271
I1
sg272
I4
sa(dp281
g268
I1
sg269
F0.02763199806213379
sg270
F3.600120544433594e-05
sg271
I1
sg272
I3
sa(dp282
g268
I1
sg269
F0.05224299430847168
sg270
F5.1975250244140625e-05
sg271
I1
sg272
I2
sasS'total_cqs'
p283
I13
ssI27
(dp284
S'iters'
p285
I1
sS'meta'
p286
(lp287
(dp288
S'objective'
p289
I1
sS'query_time'
p290
F0.15776801109313965
sS'comp_time'
p291
F7.700920104980469e-05
sS'exec_cq'
p292
I2
sS'total_cq'
p293
I2
sasS'total_cqs'
p294
I2
ssI28
(dp295
S'iters'
p296
I9
sS'meta'
p297
(lp298
(dp299
S'objective'
p300
I77
sS'query_time'
p301
F1.6311848163604736
sS'comp_time'
p302
F6.699562072753906e-05
sS'exec_cq'
p303
I1
sS'total_cq'
p304
I14
sa(dp305
g300
I43
sg301
F1.815187931060791
sg302
F8.797645568847656e-05
sg303
I1
sg304
I13
sa(dp306
g300
I43
sg301
F0.8564839363098145
sg302
F5.4836273193359375e-05
sg303
I1
sg304
I10
sa(dp307
g300
I13
sg301
F0.6032540798187256
sg302
F4.482269287109375e-05
sg303
I1
sg304
I9
sa(dp308
g300
I14
sg301
F0.37720704078674316
sg302
F6.29425048828125e-05
sg303
I1
sg304
I6
sa(dp309
g300
I6
sg301
F0.3156712055206299
sg302
F4.100799560546875e-05
sg303
I1
sg304
I5
sa(dp310
g300
I1
sg301
F0.35906195640563965
sg302
F5.91278076171875e-05
sg303
I1
sg304
I4
sa(dp311
g300
I0
sg301
F0.2308499813079834
sg302
F4.00543212890625e-05
sg303
I1
sg304
I3
sa(dp312
g300
I2
sg301
F0.12529611587524414
sg302
F6.103515625e-05
sg303
I1
sg304
I2
sasS'total_cqs'
p313
I14
ssI29
(dp314
S'iters'
p315
I1
sS'meta'
p316
(lp317
(dp318
S'objective'
p319
I1
sS'query_time'
p320
F0.008030891418457031
sS'comp_time'
p321
F6.413459777832031e-05
sS'exec_cq'
p322
I2
sS'total_cq'
p323
I2
sasS'total_cqs'
p324
I2
ssI30
(dp325
S'iters'
p326
I1
sS'meta'
p327
(lp328
(dp329
S'objective'
p330
I1
sS'query_time'
p331
F0.3827788829803467
sS'comp_time'
p332
F8.702278137207031e-05
sS'exec_cq'
p333
I2
sS'total_cq'
p334
I2
sasS'total_cqs'
p335
I2
ssI31
(dp336
S'iters'
p337
I5
sS'meta'
p338
(lp339
(dp340
S'objective'
p341
I21
sS'query_time'
p342
F4.335087060928345
sS'comp_time'
p343
F6.103515625e-05
sS'exec_cq'
p344
I1
sS'total_cq'
p345
I9
sa(dp346
g341
I17
sg342
F0.005731105804443359
sg343
F4.00543212890625e-05
sg344
I1
sg345
I7
sa(dp347
g341
I1
sg342
F0.5925989151000977
sg343
F8.511543273925781e-05
sg344
I1
sg345
I6
sa(dp348
g341
I1
sg342
F4.113146066665649
sg343
F9.489059448242188e-05
sg344
I1
sg345
I4
sa(dp349
g341
I5
sg342
F0.002641916275024414
sg343
F3.0040740966796875e-05
sg344
I1
sg345
I2
sasS'total_cqs'
p350
I9
ssI32
(dp351
S'iters'
p352
I5
sS'meta'
p353
(lp354
(dp355
S'objective'
p356
I14
sS'query_time'
p357
F7.468502998352051
sS'comp_time'
p358
F0.0002090930938720703
sS'exec_cq'
p359
I1
sS'total_cq'
p360
I7
sa(dp361
g356
I5
sg357
F1.8111801147460938
sg358
F6.413459777832031e-05
sg359
I1
sg360
I6
sa(dp362
g356
I3
sg357
F1.7465879917144775
sg358
F0.0001461505889892578
sg359
I1
sg360
I4
sa(dp363
g356
I0
sg357
F1.6950039863586426
sg358
F0.00010395050048828125
sg359
I1
sg360
I3
sa(dp364
g356
I2
sg357
F7.2087180614471436
sg358
F0.00023603439331054688
sg359
I1
sg360
I2
sasS'total_cqs'
p365
I7
ssI33
(dp366
S'iters'
p367
I1
sS'meta'
p368
(lp369
(dp370
S'objective'
p371
I1
sS'query_time'
p372
F0.0377500057220459
sS'comp_time'
p373
F6.580352783203125e-05
sS'exec_cq'
p374
I2
sS'total_cq'
p375
I2
sasS'total_cqs'
p376
I2
ssI34
(dp377
S'iters'
p378
I0
sS'meta'
p379
(lp380
sS'total_cqs'
p381
I1
ssI35
(dp382
S'iters'
p383
I4
sS'meta'
p384
(lp385
(dp386
S'objective'
p387
I5
sS'query_time'
p388
F10.51818299293518
sS'comp_time'
p389
F8.58306884765625e-05
sS'exec_cq'
p390
I1
sS'total_cq'
p391
I5
sa(dp392
g387
I2
sg388
F2.090826988220215
sg389
F0.0002200603485107422
sg390
I1
sg391
I4
sa(dp393
g387
I0
sg388
F0.9810559749603271
sg389
F6.914138793945312e-05
sg390
I1
sg391
I3
sa(dp394
g387
I1
sg388
F5.186609983444214
sg389
F6.985664367675781e-05
sg390
I1
sg391
I2
sasS'total_cqs'
p395
I5
ssI37
(dp396
S'iters'
p397
I9
sS'meta'
p398
(lp399
(dp400
S'objective'
p401
I35
sS'query_time'
p402
F0.021181106567382812
sS'comp_time'
p403
F5.1975250244140625e-05
sS'exec_cq'
p404
I1
sS'total_cq'
p405
I10
sa(dp406
g401
I27
sg402
F0.012033939361572266
sg403
F5.698204040527344e-05
sg404
I1
sg405
I9
sa(dp407
g401
I20
sg402
F0.38698482513427734
sg403
F7.295608520507812e-05
sg404
I1
sg405
I8
sa(dp408
g401
I14
sg402
F0.74819016456604
sg403
F7.104873657226562e-05
sg404
I1
sg405
I7
sa(dp409
g401
I9
sg402
F0.5755538940429688
sg403
F7.605552673339844e-05
sg404
I1
sg405
I6
sa(dp410
g401
I5
sg402
F0.004157066345214844
sg403
F4.100799560546875e-05
sg404
I1
sg405
I5
sa(dp411
g401
I4
sg402
F0.7400259971618652
sg403
F0.00047588348388671875
sg404
I2
sg405
I4
sa(dp412
g401
I3
sg402
F0.0022308826446533203
sg403
F3.409385681152344e-05
sg404
I2
sg405
I3
sa(dp413
g401
I3
sg402
F0.29476094245910645
sg403
F6.4849853515625e-05
sg404
I2
sg405
I2
sasS'total_cqs'
p414
I10
ssI38
(dp415
S'iters'
p416
I0
sS'meta'
p417
(lp418
sS'total_cqs'
p419
I1
ssI39
(dp420
S'iters'
p421
I0
sS'meta'
p422
(lp423
sS'total_cqs'
p424
I1
ssI40
(dp425
S'iters'
p426
I1
sS'meta'
p427
(lp428
(dp429
S'objective'
p430
I1
sS'query_time'
p431
F18.96005892753601
sS'comp_time'
p432
F0.0011150836944580078
sS'exec_cq'
p433
I1
sS'total_cq'
p434
I2
sasS'total_cqs'
p435
I2
ssI41
(dp436
S'iters'
p437
I5
sS'meta'
p438
(lp439
(dp440
S'objective'
p441
I9
sS'query_time'
p442
F0.3268749713897705
sS'comp_time'
p443
F8.702278137207031e-05
sS'exec_cq'
p444
I1
sS'total_cq'
p445
I6
sa(dp446
g441
I5
sg442
F10.056572914123535
sg443
F0.0003008842468261719
sg444
I1
sg445
I5
sa(dp447
g441
I2
sg442
F0.19143295288085938
sg443
F7.295608520507812e-05
sg444
I1
sg445
I4
sa(dp448
g441
I0
sg442
F0.7980928421020508
sg443
F7.390975952148438e-05
sg444
I1
sg445
I3
sa(dp449
g441
I1
sg442
F1.5243749618530273
sg443
F0.0001900196075439453
sg444
I1
sg445
I2
sasS'total_cqs'
p450
I6
ssI42
(dp451
S'iters'
p452
I1
sS'meta'
p453
(lp454
(dp455
S'objective'
p456
I1
sS'query_time'
p457
F19.12496304512024
sS'comp_time'
p458
F0.00029206275939941406
sS'exec_cq'
p459
I1
sS'total_cq'
p460
I2
sasS'total_cqs'
p461
I2
ssI43
(dp462
S'iters'
p463
I0
sS'meta'
p464
(lp465
sS'total_cqs'
p466
I1
ssI44
(dp467
S'iters'
p468
I4
sS'meta'
p469
(lp470
(dp471
S'objective'
p472
I5
sS'query_time'
p473
F1.4585940837860107
sS'comp_time'
p474
F8.487701416015625e-05
sS'exec_cq'
p475
I1
sS'total_cq'
p476
I5
sa(dp477
g472
I2
sg473
F1.6307439804077148
sg474
F7.700920104980469e-05
sg475
I1
sg476
I4
sa(dp478
g472
I0
sg473
F0.009178876876831055
sg474
F6.699562072753906e-05
sg475
I1
sg476
I3
sa(dp479
g472
I1
sg473
F0.01011800765991211
sg474
F4.410743713378906e-05
sg475
I1
sg476
I2
sasS'total_cqs'
p480
I5
ssI45
(dp481
S'iters'
p482
I2
sS'meta'
p483
(lp484
(dp485
S'objective'
p486
I11
sS'query_time'
p487
F5.260707139968872
sS'comp_time'
p488
F6.890296936035156e-05
sS'exec_cq'
p489
I4
sS'total_cq'
p490
I5
sa(dp491
g486
I11
sg487
F0.004707813262939453
sg488
F4.506111145019531e-05
sg489
I4
sg490
I4
sasS'total_cqs'
p492
I5
ssI46
(dp493
S'iters'
p494
I0
sS'meta'
p495
(lp496
sS'total_cqs'
p497
I1
ssI47
(dp498
S'iters'
p499
I0
sS'meta'
p500
(lp501
sS'total_cqs'
p502
I1
ssI48
(dp503
S'iters'
p504
I1
sS'meta'
p505
(lp506
(dp507
S'objective'
p508
I1
sS'query_time'
p509
F0.12782692909240723
sS'comp_time'
p510
F9.107589721679688e-05
sS'exec_cq'
p511
I2
sS'total_cq'
p512
I2
sasS'total_cqs'
p513
I2
ssI49
(dp514
S'iters'
p515
I4
sS'meta'
p516
(lp517
(dp518
S'objective'
p519
I5
sS'query_time'
p520
F0.1491100788116455
sS'comp_time'
p521
F9.107589721679688e-05
sS'exec_cq'
p522
I1
sS'total_cq'
p523
I5
sa(dp524
g519
I4
sg520
F0.04717898368835449
sg521
F7.200241088867188e-05
sg522
I2
sg523
I4
sa(dp525
g519
I3
sg520
F4.120300054550171
sg521
F7.915496826171875e-05
sg522
I2
sg523
I3
sa(dp526
g519
I3
sg520
F0.017601966857910156
sg521
F5.0067901611328125e-05
sg522
I2
sg523
I2
sasS'total_cqs'
p527
I5
ssI50
(dp528
S'iters'
p529
I4
sS'meta'
p530
(lp531
(dp532
S'objective'
p533
I5
sS'query_time'
p534
F0.022941112518310547
sS'comp_time'
p535
F7.700920104980469e-05
sS'exec_cq'
p536
I1
sS'total_cq'
p537
I5
sa(dp538
g533
I2
sg534
F0.19044113159179688
sg535
F9.799003601074219e-05
sg536
I1
sg537
I4
sa(dp539
g533
I0
sg534
F0.002830028533935547
sg535
F3.600120544433594e-05
sg536
I1
sg537
I3
sa(dp540
g533
I1
sg534
F0.009834051132202148
sg535
F4.792213439941406e-05
sg536
I1
sg537
I2
sasS'total_cqs'
p541
I5
ssI51
(dp542
S'iters'
p543
I0
sS'meta'
p544
(lp545
sS'total_cqs'
p546
I1
ssI52
(dp547
S'iters'
p548
I0
sS'meta'
p549
(lp550
sS'total_cqs'
p551
I1
ssI53
(dp552
S'iters'
p553
I0
sS'meta'
p554
(lp555
sS'total_cqs'
p556
I1
ssI55
(dp557
S'iters'
p558
I1
sS'meta'
p559
(lp560
(dp561
S'objective'
p562
I1
sS'query_time'
p563
F24.754837036132812
sS'comp_time'
p564
F7.486343383789062e-05
sS'exec_cq'
p565
I2
sS'total_cq'
p566
I2
sasS'total_cqs'
p567
I2
ssI56
(dp568
S'iters'
p569
I0
sS'meta'
p570
(lp571
sS'total_cqs'
p572
I1
ssI57
(dp573
S'iters'
p574
I2
sS'meta'
p575
(lp576
(dp577
S'objective'
p578
I2
sS'query_time'
p579
F2.3862171173095703
sS'comp_time'
p580
F0.0013489723205566406
sS'exec_cq'
p581
I2
sS'total_cq'
p582
I3
sa(dp583
g578
I2
sg579
F12.12488317489624
sg580
F0.0001049041748046875
sg581
I2
sg582
I2
sasS'total_cqs'
p584
I3
ssI108
(dp585
S'iters'
p586
I0
sS'meta'
p587
(lp588
sS'total_cqs'
p589
I1
ssI109
(dp590
S'iters'
p591
I0
sS'meta'
p592
(lp593
sS'total_cqs'
p594
I1
ssI116
(dp595
S'iters'
p596
I6
sS'meta'
p597
(lp598
(dp599
S'objective'
p600
I197
sS'query_time'
p601
F1.749885082244873
sS'comp_time'
p602
F8.916854858398438e-05
sS'exec_cq'
p603
I5
sS'total_cq'
p604
I21
sa(dp605
g600
I188
sg601
F4.2541258335113525
sg602
F0.0004949569702148438
sg603
I8
sg604
I20
sa(dp606
g600
I179
sg601
F0.8110251426696777
sg602
F9.918212890625e-05
sg603
I9
sg604
I19
sa(dp607
g600
I174
sg601
F0.20191097259521484
sg602
F6.4849853515625e-05
sg603
I11
sg604
I18
sa(dp608
g600
I176
sg601
F0.10133099555969238
sg602
F6.604194641113281e-05
sg603
I15
sg604
I17
sa(dp609
g600
I177
sg601
F0.06337904930114746
sg602
F8.392333984375e-05
sg603
I16
sg604
I16
sasS'total_cqs'
p610
I21
ssI117
(dp611
S'iters'
p612
I2
sS'meta'
p613
(lp614
(dp615
S'objective'
p616
I11
sS'query_time'
p617
F0.010452032089233398
sS'comp_time'
p618
F6.4849853515625e-05
sS'exec_cq'
p619
I4
sS'total_cq'
p620
I5
sa(dp621
g616
I11
sg617
F0.0014281272888183594
sg618
F3.981590270996094e-05
sg619
I4
sg620
I4
sasS'total_cqs'
p622
I5
ssI118
(dp623
S'iters'
p624
I0
sS'meta'
p625
(lp626
sS'total_cqs'
p627
I1
ssI122
(dp628
S'iters'
p629
I0
sS'meta'
p630
(lp631
sS'total_cqs'
p632
I1
ss.