(dp0
I1
(dp1
S'iters'
p2
I2
sS'meta'
p3
(lp4
(dp5
S'objective'
p6
I2
sS'query_time'
p7
F46.70198392868042
sS'comp_time'
p8
F1.267397165298462
sS'exec_cq'
p9
I5
sS'total_cq'
p10
I6
sa(dp11
g6
I2
sg7
F0.2382659912109375
sg8
F0.6082532405853271
sg9
I3
sg10
I4
sasS'total_cqs'
p12
I6
ssI2
(dp13
S'iters'
p14
I1
sS'meta'
p15
(lp16
(dp17
S'objective'
p18
I4
sS'query_time'
p19
F1.3613190650939941
sS'comp_time'
p20
F0.3575601577758789
sS'exec_cq'
p21
I6
sS'total_cq'
p22
I6
sasS'total_cqs'
p23
I6
ssI3
(dp24
S'iters'
p25
I15
sS'meta'
p26
(lp27
(dp28
S'objective'
p29
I27
sS'query_time'
p30
F25.940465927124023
sS'comp_time'
p31
F0.41704726219177246
sS'exec_cq'
p32
I33
sS'total_cq'
p33
I33
sa(dp34
g29
I24
sg30
F0.02649068832397461
sg31
F0.18221426010131836
sg32
I30
sg33
I30
sa(dp35
g29
I21
sg30
F0.14694809913635254
sg31
F0.06096506118774414
sg32
I27
sg33
I27
sa(dp36
g29
I18
sg30
F0.02078866958618164
sg31
F0.1626582145690918
sg32
I24
sg33
I24
sa(dp37
g29
I15
sg30
F0.019217252731323242
sg31
F0.17667531967163086
sg32
I21
sg33
I21
sa(dp38
g29
I12
sg30
F0.007854223251342773
sg31
F0.014619112014770508
sg32
I18
sg33
I18
sa(dp39
g29
I9
sg30
F0.007539987564086914
sg31
F0.013304710388183594
sg32
I15
sg33
I15
sa(dp40
g29
I8
sg30
F0.12207627296447754
sg31
F0.013803958892822266
sg32
I12
sg33
I12
sa(dp41
g29
I8
sg30
F0.005625009536743164
sg31
F0.012887001037597656
sg32
I10
sg33
I10
sa(dp42
g29
I7
sg30
F0.0051517486572265625
sg31
F0.012624740600585938
sg32
I9
sg33
I9
sa(dp43
g29
I6
sg30
F0.0054891109466552734
sg31
F0.13199734687805176
sg32
I8
sg33
I8
sa(dp44
g29
I5
sg30
F0.0034792423248291016
sg31
F0.005837440490722656
sg32
I7
sg33
I7
sa(dp45
g29
I4
sg30
F0.0027818679809570312
sg31
F0.006588935852050781
sg32
I6
sg33
I6
sa(dp46
g29
I3
sg30
F0.003026723861694336
sg31
F0.004842042922973633
sg32
I5
sg33
I5
sa(dp47
g29
I2
sg30
F0.0021331310272216797
sg31
F0.00499272346496582
sg32
I4
sg33
I4
sasS'total_cqs'
p48
I33
ssI6
(dp49
S'iters'
p50
I2
sS'meta'
p51
(lp52
(dp53
S'objective'
p54
I1
sS'query_time'
p55
F14.261758089065552
sS'comp_time'
p56
F0.003159046173095703
sS'exec_cq'
p57
I4
sS'total_cq'
p58
I5
sa(dp59
g54
I0
sg55
F0.00020384788513183594
sg56
F0.0003795623779296875
sg57
I2
sg58
I2
sasS'total_cqs'
p60
I5
ssI8
(dp61
S'iters'
p62
I3
sS'meta'
p63
(lp64
(dp65
S'objective'
p66
I4
sS'query_time'
p67
F42.91527986526489
sS'comp_time'
p68
F0.11475586891174316
sS'exec_cq'
p69
I6
sS'total_cq'
p70
I6
sa(dp71
g66
I3
sg67
F41.52783799171448
sg68
F0.0001690387725830078
sg69
I5
sg70
I5
sa(dp72
g66
I2
sg67
F0.07165741920471191
sg68
F0.0001742839813232422
sg69
I4
sg70
I4
sasS'total_cqs'
p73
I6
ssI9
(dp74
S'iters'
p75
I3
sS'meta'
p76
(lp77
(dp78
S'objective'
p79
I0
sS'query_time'
p80
F11.033779859542847
sS'comp_time'
p81
F0.04650688171386719
sS'exec_cq'
p82
I3
sS'total_cq'
p83
I6
sa(dp84
g79
I1
sg80
F0.04392600059509277
sg81
F0.15390682220458984
sg82
I3
sg83
I3
sa(dp85
g79
I0
sg80
F0.008717060089111328
sg81
F0.012935638427734375
sg82
I2
sg83
I2
sasS'total_cqs'
p86
I6
ssI13
(dp87
S'iters'
p88
I1
sS'meta'
p89
(lp90
(dp91
S'objective'
p92
I6
sS'query_time'
p93
F0.045925140380859375
sS'comp_time'
p94
F0.00808095932006836
sS'exec_cq'
p95
I7
sS'total_cq'
p96
I8
sasS'total_cqs'
p97
I8
ssI14
(dp98
S'iters'
p99
I1
sS'meta'
p100
(lp101
(dp102
S'objective'
p103
I3
sS'query_time'
p104
F1.0422749519348145
sS'comp_time'
p105
F0.0048427581787109375
sS'exec_cq'
p106
I5
sS'total_cq'
p107
I5
sasS'total_cqs'
p108
I5
ssI16
(dp109
S'iters'
p110
I3
sS'meta'
p111
(lp112
(dp113
S'objective'
p114
I1
sS'query_time'
p115
F1.3778090476989746
sS'comp_time'
p116
F0.005417585372924805
sS'exec_cq'
p117
I4
sS'total_cq'
p118
I5
sa(dp119
g114
I1
sg115
F0.04754996299743652
sg116
F0.00015687942504882812
sg117
I1
sg118
I3
sa(dp120
g114
I0
sg115
F6.198883056640625e-05
sg116
F0.00011920928955078125
sg117
I2
sg118
I2
sasS'total_cqs'
p121
I5
ssI18
(dp122
S'iters'
p123
I3
sS'meta'
p124
(lp125
(dp126
S'objective'
p127
I1
sS'query_time'
p128
F0.2090611457824707
sS'comp_time'
p129
F0.004233121871948242
sS'exec_cq'
p130
I4
sS'total_cq'
p131
I5
sa(dp132
g127
I1
sg128
F0.05052495002746582
sg129
F0.00015306472778320312
sg130
I1
sg131
I3
sa(dp133
g127
I0
sg128
F0.00034499168395996094
sg129
F0.00010442733764648438
sg130
I2
sg131
I2
sasS'total_cqs'
p134
I5
ssI20
(dp135
S'iters'
p136
I5
sS'meta'
p137
(lp138
(dp139
S'objective'
p140
I8
sS'query_time'
p141
F11.082746982574463
sS'comp_time'
p142
F0.8577322959899902
sS'exec_cq'
p143
I10
sS'total_cq'
p144
I12
sa(dp145
g140
I6
sg141
F0.29743003845214844
sg142
F0.6175355911254883
sg143
I8
sg144
I10
sa(dp146
g140
I4
sg141
F0.19264984130859375
sg142
F0.5054473876953125
sg143
I6
sg144
I8
sa(dp147
g140
I4
sg141
F0.18523192405700684
sg142
F0.5091953277587891
sg143
I5
sg144
I6
sa(dp148
g140
I3
sg141
F0.1607961654663086
sg142
F0.4585719108581543
sg143
I4
sg144
I5
sasS'total_cqs'
p149
I12
ssI21
(dp150
S'iters'
p151
I3
sS'meta'
p152
(lp153
(dp154
S'objective'
p155
I8
sS'query_time'
p156
F61.00345969200134
sS'comp_time'
p157
F0.9036045074462891
sS'exec_cq'
p158
I12
sS'total_cq'
p159
I14
sa(dp160
g155
I7
sg156
F0.022736072540283203
sg157
F0.055203914642333984
sg158
I8
sg159
I11
sa(dp161
g155
I7
sg156
F0.02595996856689453
sg157
F0.21080875396728516
sg158
I7
sg159
I9
sasS'total_cqs'
p162
I14
ssI22
(dp163
S'iters'
p164
I1
sS'meta'
p165
(lp166
(dp167
S'objective'
p168
I0
sS'query_time'
p169
F0.003717184066772461
sS'comp_time'
p170
F0.0012218952178955078
sS'exec_cq'
p171
I1
sS'total_cq'
p172
I2
sasS'total_cqs'
p173
I2
ssI25
(dp174
S'iters'
p175
I3
sS'meta'
p176
(lp177
(dp178
S'objective'
p179
I3
sS'query_time'
p180
F49.92968201637268
sS'comp_time'
p181
F1.8436799049377441
sS'exec_cq'
p182
I6
sS'total_cq'
p183
I7
sa(dp184
g179
I1
sg180
F0.6949779987335205
sg181
F2.276369571685791
sg182
I4
sg183
I5
sa(dp185
g179
I1
sg180
F0.32670044898986816
sg181
F0.0007188320159912109
sg182
I3
sg183
I3
sasS'total_cqs'
p186
I7
ssI26
(dp187
S'iters'
p188
I8
sS'meta'
p189
(lp190
(dp191
S'objective'
p192
I9
sS'query_time'
p193
F20.44923186302185
sS'comp_time'
p194
F1.9094750881195068
sS'exec_cq'
p195
I9
sS'total_cq'
p196
I13
sa(dp197
g192
I7
sg193
F4.387365818023682
sg194
F2.6259407997131348
sg195
I9
sg196
I11
sa(dp198
g192
I5
sg193
F0.687485933303833
sg194
F2.1396420001983643
sg195
I7
sg196
I9
sa(dp199
g192
I5
sg193
F0.7502748966217041
sg194
F2.574240207672119
sg195
I6
sg196
I7
sa(dp200
g192
I4
sg193
F0.8339581489562988
sg194
F3.187004804611206
sg195
I5
sg196
I6
sa(dp201
g192
I3
sg193
F1.0631539821624756
sg194
F3.2901008129119873
sg195
I4
sg196
I5
sa(dp202
g192
I2
sg193
F0.8967001438140869
sg194
F2.7689461708068848
sg195
I3
sg196
I4
sa(dp203
g192
I1
sg193
F0.987994909286499
sg194
F2.146286725997925
sg195
I3
sg196
I3
sasS'total_cqs'
p204
I13
ssI27
(dp205
S'iters'
p206
I1
sS'meta'
p207
(lp208
(dp209
S'objective'
p210
I0
sS'query_time'
p211
F0.2035839557647705
sS'comp_time'
p212
F0.001959085464477539
sS'exec_cq'
p213
I1
sS'total_cq'
p214
I2
sasS'total_cqs'
p215
I2
ssI28
(dp216
S'iters'
p217
I3
sS'meta'
p218
(lp219
(dp220
S'objective'
p221
I8
sS'query_time'
p222
F1.3182671070098877
sS'comp_time'
p223
F0.1271364688873291
sS'exec_cq'
p224
I6
sS'total_cq'
p225
I14
sa(dp226
g221
I7
sg222
F0.009120702743530273
sg223
F0.00604701042175293
sg224
I5
sg225
I11
sa(dp227
g221
I7
sg222
F0.002816915512084961
sg223
F0.00010848045349121094
sg224
I3
sg225
I9
sasS'total_cqs'
p228
I14
ssI29
(dp229
S'iters'
p230
I1
sS'meta'
p231
(lp232
(dp233
S'objective'
p234
I0
sS'query_time'
p235
F0.007589817047119141
sS'comp_time'
p236
F0.0015096664428710938
sS'exec_cq'
p237
I2
sS'total_cq'
p238
I2
sasS'total_cqs'
p239
I2
ssI30
(dp240
S'iters'
p241
I1
sS'meta'
p242
(lp243
(dp244
S'objective'
p245
I0
sS'query_time'
p246
F0.31794309616088867
sS'comp_time'
p247
F0.01144099235534668
sS'exec_cq'
p248
I2
sS'total_cq'
p249
I2
sasS'total_cqs'
p250
I2
ssI31
(dp251
S'iters'
p252
I3
sS'meta'
p253
(lp254
(dp255
S'objective'
p256
I3
sS'query_time'
p257
F5.400920152664185
sS'comp_time'
p258
F0.0679330825805664
sS'exec_cq'
p259
I9
sS'total_cq'
p260
I9
sa(dp261
g256
I1
sg257
F0.007094860076904297
sg258
F0.008840084075927734
sg259
I3
sg260
I3
sa(dp262
g256
I0
sg257
F0.006468057632446289
sg258
F0.009550094604492188
sg259
I2
sg260
I2
sasS'total_cqs'
p263
I9
ssI32
(dp264
S'iters'
p265
I3
sS'meta'
p266
(lp267
(dp268
S'objective'
p269
I1
sS'query_time'
p270
F17.689009189605713
sS'comp_time'
p271
F2.117457151412964
sS'exec_cq'
p272
I4
sS'total_cq'
p273
I7
sa(dp274
g269
I0
sg270
F1.0891609191894531
sg271
F0.002978801727294922
sg272
I2
sg273
I4
sa(dp275
g269
I0
sg270
F0.3309040069580078
sg271
F0.259296178817749
sg272
I1
sg273
I2
sasS'total_cqs'
p276
I7
ssI33
(dp277
S'iters'
p278
I1
sS'meta'
p279
(lp280
(dp281
S'objective'
p282
I0
sS'query_time'
p283
F0.02093791961669922
sS'comp_time'
p284
F0.0010662078857421875
sS'exec_cq'
p285
I2
sS'total_cq'
p286
I2
sasS'total_cqs'
p287
I2
ssI35
(dp288
S'iters'
p289
I2
sS'meta'
p290
(lp291
(dp292
S'objective'
p293
I1
sS'query_time'
p294
F15.077043056488037
sS'comp_time'
p295
F0.0771477222442627
sS'exec_cq'
p296
I4
sS'total_cq'
p297
I5
sa(dp298
g293
I0
sg294
F0.012577056884765625
sg295
F0.10039281845092773
sg296
I2
sg297
I2
sasS'total_cqs'
p299
I5
ssI37
(dp300
S'iters'
p301
I2
sS'meta'
p302
(lp303
(dp304
S'objective'
p305
I6
sS'query_time'
p306
F1.9500980377197266
sS'comp_time'
p307
F0.047669410705566406
sS'exec_cq'
p308
I8
sS'total_cq'
p309
I10
sa(dp310
g305
I0
sg306
F0.004309177398681641
sg307
F0.11871981620788574
sg308
I2
sg309
I2
sasS'total_cqs'
p311
I10
ssI40
(dp312
S'iters'
p313
I1
sS'meta'
p314
(lp315
(dp316
S'objective'
p317
I0
sS'query_time'
p318
F0.0037069320678710938
sS'comp_time'
p319
F0.0014300346374511719
sS'exec_cq'
p320
I1
sS'total_cq'
p321
I2
sasS'total_cqs'
p322
I2
ssI41
(dp323
S'iters'
p324
I2
sS'meta'
p325
(lp326
(dp327
S'objective'
p328
I2
sS'query_time'
p329
F11.634262084960938
sS'comp_time'
p330
F0.7634861469268799
sS'exec_cq'
p331
I5
sS'total_cq'
p332
I6
sa(dp333
g328
I0
sg329
F0.0008571147918701172
sg330
F0.0009801387786865234
sg331
I2
sg332
I2
sasS'total_cqs'
p334
I6
ssI42
(dp335
S'iters'
p336
I1
sS'meta'
p337
(lp338
(dp339
S'objective'
p340
I0
sS'query_time'
p341
F0.037264108657836914
sS'comp_time'
p342
F0.0019538402557373047
sS'exec_cq'
p343
I1
sS'total_cq'
p344
I2
sasS'total_cqs'
p345
I2
ssI44
(dp346
S'iters'
p347
I2
sS'meta'
p348
(lp349
(dp350
S'objective'
p351
I1
sS'query_time'
p352
F1.675955057144165
sS'comp_time'
p353
F0.034996986389160156
sS'exec_cq'
p354
I4
sS'total_cq'
p355
I5
sa(dp356
g351
I1
sg352
F0.10150980949401855
sg353
F0.026875972747802734
sg354
I3
sg355
I3
sasS'total_cqs'
p357
I5
ssI45
(dp358
S'iters'
p359
I2
sS'meta'
p360
(lp361
(dp362
S'objective'
p363
I1
sS'query_time'
p364
F0.05867815017700195
sS'comp_time'
p365
F0.0026831626892089844
sS'exec_cq'
p366
I3
sS'total_cq'
p367
I5
sa(dp368
g363
I0
sg364
F0.00016188621520996094
sg365
F0.00023412704467773438
sg366
I2
sg367
I2
sasS'total_cqs'
p369
I5
ssI48
(dp370
S'iters'
p371
I1
sS'meta'
p372
(lp373
(dp374
S'objective'
p375
I0
sS'query_time'
p376
F0.2409501075744629
sS'comp_time'
p377
F0.002318859100341797
sS'exec_cq'
p378
I2
sS'total_cq'
p379
I2
sasS'total_cqs'
p380
I2
ssI49
(dp381
S'iters'
p382
I3
sS'meta'
p383
(lp384
(dp385
S'objective'
p386
I1
sS'query_time'
p387
F0.25199198722839355
sS'comp_time'
p388
F0.0038421154022216797
sS'exec_cq'
p389
I4
sS'total_cq'
p390
I5
sa(dp391
g386
I1
sg387
F0.04308509826660156
sg388
F0.0003898143768310547
sg389
I3
sg390
I3
sa(dp392
g386
I0
sg387
F3.504753112792969e-05
sg388
F8.082389831542969e-05
sg389
I2
sg390
I2
sasS'total_cqs'
p393
I5
ssI50
(dp394
S'iters'
p395
I1
sS'meta'
p396
(lp397
(dp398
S'objective'
p399
I3
sS'query_time'
p400
F0.7108650207519531
sS'comp_time'
p401
F0.07621097564697266
sS'exec_cq'
p402
I5
sS'total_cq'
p403
I5
sasS'total_cqs'
p404
I5
ssI55
(dp405
S'iters'
p406
I1
sS'meta'
p407
(lp408
(dp409
S'objective'
p410
I0
sS'query_time'
p411
F24.705788135528564
sS'comp_time'
p412
F0.01803302764892578
sS'exec_cq'
p413
I2
sS'total_cq'
p414
I2
sasS'total_cqs'
p415
I2
ssI57
(dp416
S'iters'
p417
I2
sS'meta'
p418
(lp419
(dp420
S'objective'
p421
I1
sS'query_time'
p422
F12.79244613647461
sS'comp_time'
p423
F1.2559459209442139
sS'exec_cq'
p424
I3
sS'total_cq'
p425
I3
sa(dp426
g421
I0
sg422
F0.26520800590515137
sg423
F0.3910086154937744
sg424
I1
sg425
I2
sasS'total_cqs'
p427
I3
ssI116
(dp428
S'iters'
p429
I2
sS'meta'
p430
(lp431
(dp432
S'objective'
p433
I17
sS'query_time'
p434
F4.561000823974609
sS'comp_time'
p435
F0.2215433120727539
sS'exec_cq'
p436
I17
sS'total_cq'
p437
I21
sa(dp438
g433
I0
sg434
F0.0009109973907470703
sg435
F0.0009109973907470703
sg436
I2
sg437
I2
sasS'total_cqs'
p439
I21
ssI117
(dp440
S'iters'
p441
I1
sS'meta'
p442
(lp443
(dp444
S'objective'
p445
I3
sS'query_time'
p446
F0.012861967086791992
sS'comp_time'
p447
F0.0017573833465576172
sS'exec_cq'
p448
I5
sS'total_cq'
p449
I5
sasS'total_cqs'
p450
I5
ss.