(dp0
I1
(dp1
S'iters'
p2
I4
sS'meta'
p3
(lp4
(dp5
S'objective'
p6
I9
sS'query_time'
p7
F25.59358811378479
sS'comp_time'
p8
F0.0001609325408935547
sS'exec_cq'
p9
I1
sS'total_cq'
p10
I6
sa(dp11
g6
I3
sg7
F20.427676916122437
sg8
F9.608268737792969e-05
sg9
I1
sg10
I5
sa(dp12
g6
I2
sg7
F4.438170909881592
sg8
F0.00015592575073242188
sg9
I1
sg10
I3
sa(dp13
g6
I2
sg7
F301.7827010154724
sg8
F5.888938903808594e-05
sg9
I1
sg10
I2
sasS'total_cqs'
p14
I6
ssI2
(dp15
S'iters'
p16
I1
sS'meta'
p17
(lp18
(dp19
S'objective'
p20
I15
sS'query_time'
p21
F0.9162900447845459
sS'comp_time'
p22
F9.393692016601562e-05
sS'exec_cq'
p23
I4
sS'total_cq'
p24
I6
sasS'total_cqs'
p25
I6
ssI3
(dp26
S'iters'
p27
I15
sS'meta'
p28
(lp29
(dp30
S'objective'
p31
I451
sS'query_time'
p32
F0.02393198013305664
sS'comp_time'
p33
F5.602836608886719e-05
sS'exec_cq'
p34
I1
sS'total_cq'
p35
I33
sa(dp36
g31
I442
sg32
F0.18069005012512207
sg33
F8.702278137207031e-05
sg34
I1
sg35
I31
sa(dp37
g31
I378
sg32
F0.016206979751586914
sg33
F3.910064697265625e-05
sg34
I2
sg35
I30
sa(dp38
g31
I294
sg32
F0.0200960636138916
sg33
F6.103515625e-05
sg34
I2
sg35
I28
sa(dp39
g31
I210
sg32
F0.019443988800048828
sg33
F4.1961669921875e-05
sg34
I2
sg35
I25
sa(dp40
g31
I181
sg32
F0.12317299842834473
sg33
F9.489059448242188e-05
sg34
I2
sg35
I22
sa(dp41
g31
I191
sg32
F0.0028259754180908203
sg33
F4.410743713378906e-05
sg34
I2
sg35
I20
sa(dp42
g31
I172
sg32
F0.006131172180175781
sg33
F4.315376281738281e-05
sg34
I2
sg35
I19
sa(dp43
g31
I154
sg32
F52.1271607875824
sg33
F7.987022399902344e-05
sg34
I2
sg35
I18
sa(dp44
g31
I139
sg32
F0.04058694839477539
sg33
F6.890296936035156e-05
sg34
I2
sg35
I17
sa(dp45
g31
I100
sg32
F0.32291293144226074
sg33
F7.987022399902344e-05
sg34
I2
sg35
I16
sa(dp46
g31
I72
sg32
F0.017695903778076172
sg33
F3.886222839355469e-05
sg34
I3
sg35
I13
sa(dp47
g31
I74
sg32
F0.0024940967559814453
sg33
F5.1021575927734375e-05
sg34
I3
sg35
I10
sa(dp48
g31
I63
sg32
F0.0043201446533203125
sg33
F4.100799560546875e-05
sg34
I3
sg35
I9
sa(dp49
g31
I55
sg32
F0.15685415267944336
sg33
F6.413459777832031e-05
sg34
I3
sg35
I8
sasS'total_cqs'
p50
I33
ssI4
(dp51
S'iters'
p52
I0
sS'meta'
p53
(lp54
sS'total_cqs'
p55
I1
ssI5
(dp56
S'iters'
p57
I0
sS'meta'
p58
(lp59
sS'total_cqs'
p60
I1
ssI6
(dp61
S'iters'
p62
I3
sS'meta'
p63
(lp64
(dp65
S'objective'
p66
I3
sS'query_time'
p67
F2.6613810062408447
sS'comp_time'
p68
F7.295608520507812e-05
sS'exec_cq'
p69
I1
sS'total_cq'
p70
I5
sa(dp71
g66
I2
sg67
F1.9617550373077393
sg68
F4.601478576660156e-05
sg69
I1
sg70
I3
sa(dp72
g66
I2
sg67
F59.07111096382141
sg68
F5.91278076171875e-05
sg69
I1
sg70
I2
sasS'total_cqs'
p73
I5
ssI7
(dp74
S'iters'
p75
I0
sS'meta'
p76
(lp77
sS'total_cqs'
p78
I1
ssI8
(dp79
S'iters'
p80
I4
sS'meta'
p81
(lp82
(dp83
S'objective'
p84
I5
sS'query_time'
p85
F20.305100917816162
sS'comp_time'
p86
F6.318092346191406e-05
sS'exec_cq'
p87
I1
sS'total_cq'
p88
I6
sa(dp89
g84
I3
sg85
F41.97516989707947
sg86
F5.1975250244140625e-05
sg87
I1
sg88
I4
sa(dp90
g84
I0
sg85
F2.101625919342041
sg86
F0.0004038810729980469
sg87
I1
sg88
I3
sa(dp91
g84
I2
sg85
F20.558459043502808
sg86
F0.0002009868621826172
sg87
I1
sg88
I2
sasS'total_cqs'
p92
I6
ssI9
(dp93
S'iters'
p94
I5
sS'meta'
p95
(lp96
(dp97
S'objective'
p98
I9
sS'query_time'
p99
F0.012206077575683594
sS'comp_time'
p100
F4.506111145019531e-05
sS'exec_cq'
p101
I1
sS'total_cq'
p102
I6
sa(dp103
g98
I5
sg99
F20.013041019439697
sg100
F0.00010418891906738281
sg101
I1
sg102
I5
sa(dp104
g98
I2
sg99
F1.1161389350891113
sg100
F7.510185241699219e-05
sg101
I1
sg102
I4
sa(dp105
g98
I4
sg99
F2.097882032394409
sg100
F0.0003859996795654297
sg101
I1
sg102
I3
sa(dp106
g98
I1
sg99
F0.3552730083465576
sg100
F5.91278076171875e-05
sg101
I1
sg102
I2
sasS'total_cqs'
p107
I6
ssI10
(dp108
S'iters'
p109
I0
sS'meta'
p110
(lp111
sS'total_cqs'
p112
I1
ssI11
(dp113
S'iters'
p114
I0
sS'meta'
p115
(lp116
sS'total_cqs'
p117
I1
ssI12
(dp118
S'iters'
p119
I0
sS'meta'
p120
(lp121
sS'total_cqs'
p122
I1
ssI13
(dp123
S'iters'
p124
I2
sS'meta'
p125
(lp126
(dp127
S'objective'
p128
I24
sS'query_time'
p129
F10.041826963424683
sS'comp_time'
p130
F6.389617919921875e-05
sS'exec_cq'
p131
I3
sS'total_cq'
p132
I8
sa(dp133
g128
I24
sg129
F0.0039010047912597656
sg130
F3.910064697265625e-05
sg131
I5
sg132
I7
sasS'total_cqs'
p134
I8
ssI14
(dp135
S'iters'
p136
I2
sS'meta'
p137
(lp138
(dp139
S'objective'
p140
I5
sS'query_time'
p141
F0.20592904090881348
sS'comp_time'
p142
F7.987022399902344e-05
sS'exec_cq'
p143
I1
sS'total_cq'
p144
I5
sa(dp145
g140
I4
sg141
F1.1225428581237793
sg142
F8.606910705566406e-05
sg143
I2
sg144
I4
sasS'total_cqs'
p146
I5
ssI16
(dp147
S'iters'
p148
I2
sS'meta'
p149
(lp150
(dp151
S'objective'
p152
I3
sS'query_time'
p153
F2.405282974243164
sS'comp_time'
p154
F6.008148193359375e-05
sS'exec_cq'
p155
I1
sS'total_cq'
p156
I5
sa(dp157
g152
I0
sg153
F0.05168294906616211
sg154
F9.202957153320312e-05
sg155
I1
sg156
I3
sasS'total_cqs'
p158
I5
ssI17
(dp159
S'iters'
p160
I0
sS'meta'
p161
(lp162
sS'total_cqs'
p163
I1
ssI18
(dp164
S'iters'
p165
I3
sS'meta'
p166
(lp167
(dp168
S'objective'
p169
I3
sS'query_time'
p170
F5.227837085723877
sS'comp_time'
p171
F6.29425048828125e-05
sS'exec_cq'
p172
I1
sS'total_cq'
p173
I5
sa(dp174
g169
I1
sg170
F0.07462596893310547
sg171
F6.604194641113281e-05
sg172
I1
sg173
I3
sa(dp175
g169
I1
sg170
F0.29114294052124023
sg171
F0.0001049041748046875
sg172
I2
sg173
I2
sasS'total_cqs'
p176
I5
ssI19
(dp177
S'iters'
p178
I0
sS'meta'
p179
(lp180
sS'total_cqs'
p181
I1
ssI20
(dp182
S'iters'
p183
I5
sS'meta'
p184
(lp185
(dp186
S'objective'
p187
I40
sS'query_time'
p188
F8.292745113372803
sS'comp_time'
p189
F4.792213439941406e-05
sS'exec_cq'
p190
I1
sS'total_cq'
p191
I12
sa(dp192
g187
I39
sg188
F1.1453099250793457
sg189
F8.296966552734375e-05
sg190
I2
sg191
I10
sa(dp193
g187
I33
sg188
F0.00707697868347168
sg189
F3.695487976074219e-05
sg190
I3
sg191
I9
sa(dp194
g187
I31
sg188
F5.0942299365997314
sg189
F0.00011491775512695312
sg190
I4
sg191
I8
sa(dp195
g187
I28
sg188
F0.09874582290649414
sg189
F7.200241088867188e-05
sg190
I4
sg191
I7
sasS'total_cqs'
p196
I12
ssI21
(dp197
S'iters'
p198
I7
sS'meta'
p199
(lp200
(dp201
S'objective'
p202
I71
sS'query_time'
p203
F16.29681706428528
sS'comp_time'
p204
F0.006885051727294922
sS'exec_cq'
p205
I1
sS'total_cq'
p206
I14
sa(dp207
g202
I50
sg203
F1.8041329383850098
sg204
F5.984306335449219e-05
sg205
I1
sg206
I12
sa(dp208
g202
I27
sg203
F0.4640378952026367
sg204
F7.987022399902344e-05
sg205
I1
sg206
I10
sa(dp209
g202
I26
sg203
F20.01869297027588
sg204
F0.00010800361633300781
sg205
I1
sg206
I8
sa(dp210
g202
I3
sg203
F0.10502195358276367
sg204
F6.794929504394531e-05
sg205
I1
sg206
I7
sa(dp211
g202
I0
sg203
F0.07789397239685059
sg204
F4.100799560546875e-05
sg205
I1
sg206
I5
sa(dp212
g202
I0
sg203
F0.008651971817016602
sg204
F4.410743713378906e-05
sg205
I1
sg206
I3
sasS'total_cqs'
p213
I14
ssI22
(dp214
S'iters'
p215
I1
sS'meta'
p216
(lp217
(dp218
S'objective'
p219
I1
sS'query_time'
p220
F0.004288196563720703
sS'comp_time'
p221
F4.100799560546875e-05
sS'exec_cq'
p222
I1
sS'total_cq'
p223
I2
sasS'total_cqs'
p224
I2
ssI23
(dp225
S'iters'
p226
I0
sS'meta'
p227
(lp228
sS'total_cqs'
p229
I1
ssI24
(dp230
S'iters'
p231
I0
sS'meta'
p232
(lp233
sS'total_cqs'
p234
I1
ssI25
(dp235
S'iters'
p236
I4
sS'meta'
p237
(lp238
(dp239
S'objective'
p240
I4
sS'query_time'
p241
F8.69213080406189
sS'comp_time'
p242
F9.679794311523438e-05
sS'exec_cq'
p243
I1
sS'total_cq'
p244
I7
sa(dp245
g240
I2
sg241
F10.342582941055298
sg242
F0.00014209747314453125
sg243
I1
sg244
I5
sa(dp246
g240
I1
sg241
F8.445542097091675
sg242
F0.00013208389282226562
sg243
I1
sg244
I3
sa(dp247
g240
I1
sg241
F0.17419886589050293
sg242
F7.104873657226562e-05
sg243
I1
sg244
I2
sasS'total_cqs'
p248
I7
ssI26
(dp249
S'iters'
p250
I9
sS'meta'
p251
(lp252
(dp253
S'objective'
p254
I65
sS'query_time'
p255
F0.04561495780944824
sS'comp_time'
p256
F6.794929504394531e-05
sS'exec_cq'
p257
I1
sS'total_cq'
p258
I13
sa(dp259
g254
I54
sg255
F0.03793907165527344
sg256
F6.318092346191406e-05
sg257
I1
sg258
I12
sa(dp260
g254
I40
sg255
F0.03409409523010254
sg256
F6.794929504394531e-05
sg257
I1
sg258
I11
sa(dp261
g254
I33
sg255
F0.028808116912841797
sg256
F5.507469177246094e-05
sg257
I1
sg258
I9
sa(dp262
g254
I23
sg255
F2.0942609310150146
sg256
F6.198883056640625e-05
sg257
I1
sg258
I8
sa(dp263
g254
I9
sg255
F1.0175988674163818
sg256
F3.600120544433594e-05
sg257
I1
sg258
I6
sa(dp264
g254
I7
sg255
F0.03430914878845215
sg256
F6.508827209472656e-05
sg257
I1
sg258
I4
sa(dp265
g254
I2
sg255
F20.7952721118927
sg256
F0.00015592575073242188
sg257
I1
sg258
I3
sa(dp266
g254
I2
sg255
F0.0034627914428710938
sg256
F4.220008850097656e-05
sg257
I1
sg258
I2
sasS'total_cqs'
p267
I13
ssI27
(dp268
S'iters'
p269
I1
sS'meta'
p270
(lp271
(dp272
S'objective'
p273
I1
sS'query_time'
p274
F0.3699469566345215
sS'comp_time'
p275
F8.988380432128906e-05
sS'exec_cq'
p276
I1
sS'total_cq'
p277
I2
sasS'total_cqs'
p278
I2
ssI28
(dp279
S'iters'
p280
I9
sS'meta'
p281
(lp282
(dp283
S'objective'
p284
I71
sS'query_time'
p285
F1.5360891819000244
sS'comp_time'
p286
F7.700920104980469e-05
sS'exec_cq'
p287
I1
sS'total_cq'
p288
I14
sa(dp289
g284
I62
sg285
F1.1227610111236572
sg286
F6.008148193359375e-05
sg287
I1
sg288
I12
sa(dp290
g284
I51
sg285
F0.9518418312072754
sg286
F5.1975250244140625e-05
sg287
I1
sg288
I11
sa(dp291
g284
I41
sg285
F0.9554309844970703
sg286
F4.506111145019531e-05
sg287
I1
sg288
I10
sa(dp292
g284
I26
sg285
F1.0774948596954346
sg286
F4.00543212890625e-05
sg287
I1
sg288
I9
sa(dp293
g284
I21
sg285
F0.406451940536499
sg286
F3.3855438232421875e-05
sg287
I1
sg288
I6
sa(dp294
g284
I14
sg285
F0.2948639392852783
sg286
F4.410743713378906e-05
sg287
I1
sg288
I5
sa(dp295
g284
I8
sg285
F0.3033430576324463
sg286
F4.506111145019531e-05
sg287
I1
sg288
I4
sa(dp296
g284
I5
sg285
F0.14161396026611328
sg286
F7.891654968261719e-05
sg287
I1
sg288
I3
sasS'total_cqs'
p297
I14
ssI29
(dp298
S'iters'
p299
I1
sS'meta'
p300
(lp301
(dp302
S'objective'
p303
I1
sS'query_time'
p304
F0.0049741268157958984
sS'comp_time'
p305
F4.57763671875e-05
sS'exec_cq'
p306
I1
sS'total_cq'
p307
I2
sasS'total_cqs'
p308
I2
ssI30
(dp309
S'iters'
p310
I1
sS'meta'
p311
(lp312
(dp313
S'objective'
p314
I1
sS'query_time'
p315
F0.3896050453186035
sS'comp_time'
p316
F8.606910705566406e-05
sS'exec_cq'
p317
I1
sS'total_cq'
p318
I2
sasS'total_cqs'
p319
I2
ssI31
(dp320
S'iters'
p321
I6
sS'meta'
p322
(lp323
(dp324
S'objective'
p325
I27
sS'query_time'
p326
F0.17968297004699707
sS'comp_time'
p327
F3.695487976074219e-05
sS'exec_cq'
p328
I1
sS'total_cq'
p329
I9
sa(dp330
g325
I18
sg326
F5.164448022842407
sg327
F4.00543212890625e-05
sg328
I1
sg329
I8
sa(dp331
g325
I13
sg326
F11.27266788482666
sg327
F7.891654968261719e-05
sg328
I1
sg329
I6
sa(dp332
g325
I8
sg326
F0.28064393997192383
sg327
F7.486343383789062e-05
sg328
I1
sg329
I5
sa(dp333
g325
I4
sg326
F5.4426820278167725
sg327
F8.606910705566406e-05
sg328
I1
sg329
I4
sa(dp334
g325
I1
sg326
F0.2682459354400635
sg327
F0.00036406517028808594
sg328
I1
sg329
I3
sasS'total_cqs'
p335
I9
ssI32
(dp336
S'iters'
p337
I4
sS'meta'
p338
(lp339
(dp340
S'objective'
p341
I2
sS'query_time'
p342
F2.7060139179229736
sS'comp_time'
p343
F8.893013000488281e-05
sS'exec_cq'
p344
I1
sS'total_cq'
p345
I7
sa(dp346
g341
I5
sg342
F8.90371298789978
sg343
F0.000164031982421875
sg344
I1
sg345
I5
sa(dp347
g341
I2
sg342
F1.5563430786132812
sg343
F0.00010204315185546875
sg344
I1
sg345
I4
sa(dp348
g341
I0
sg342
F0.09903812408447266
sg343
F4.1961669921875e-05
sg344
I1
sg345
I3
sasS'total_cqs'
p349
I7
ssI33
(dp350
S'iters'
p351
I1
sS'meta'
p352
(lp353
(dp354
S'objective'
p355
I1
sS'query_time'
p356
F0.03202104568481445
sS'comp_time'
p357
F5.91278076171875e-05
sS'exec_cq'
p358
I1
sS'total_cq'
p359
I2
sasS'total_cqs'
p360
I2
ssI34
(dp361
S'iters'
p362
I0
sS'meta'
p363
(lp364
sS'total_cqs'
p365
I1
ssI35
(dp366
S'iters'
p367
I3
sS'meta'
p368
(lp369
(dp370
S'objective'
p371
I5
sS'query_time'
p372
F9.413249969482422
sS'comp_time'
p373
F8.106231689453125e-05
sS'exec_cq'
p374
I1
sS'total_cq'
p375
I5
sa(dp376
g371
I2
sg372
F6.9173829555511475
sg373
F0.0009648799896240234
sg374
I1
sg375
I4
sa(dp377
g371
I0
sg372
F0.05465412139892578
sg373
F8.893013000488281e-05
sg374
I1
sg375
I3
sasS'total_cqs'
p378
I5
ssI37
(dp379
S'iters'
p380
I6
sS'meta'
p381
(lp382
(dp383
S'objective'
p384
I37
sS'query_time'
p385
F0.018845081329345703
sS'comp_time'
p386
F7.081031799316406e-05
sS'exec_cq'
p387
I2
sS'total_cq'
p388
I10
sa(dp389
g384
I30
sg385
F0.00718998908996582
sg386
F7.414817810058594e-05
sg387
I2
sg388
I9
sa(dp390
g384
I24
sg385
F0.006023883819580078
sg386
F3.910064697265625e-05
sg387
I2
sg388
I8
sa(dp391
g384
I19
sg385
F0.893455982208252
sg386
F7.700920104980469e-05
sg387
I2
sg388
I7
sa(dp392
g384
I15
sg385
F0.6411290168762207
sg386
F7.677078247070312e-05
sg387
I2
sg388
I6
sa(dp393
g384
I12
sg385
F0.45545005798339844
sg386
F8.511543273925781e-05
sg387
I2
sg388
I5
sasS'total_cqs'
p394
I10
ssI38
(dp395
S'iters'
p396
I0
sS'meta'
p397
(lp398
sS'total_cqs'
p399
I1
ssI39
(dp400
S'iters'
p401
I0
sS'meta'
p402
(lp403
sS'total_cqs'
p404
I1
ssI40
(dp405
S'iters'
p406
I1
sS'meta'
p407
(lp408
(dp409
S'objective'
p410
I1
sS'query_time'
p411
F18.265396118164062
sS'comp_time'
p412
F0.0003218650817871094
sS'exec_cq'
p413
I2
sS'total_cq'
p414
I2
sasS'total_cqs'
p415
I2
ssI41
(dp416
S'iters'
p417
I4
sS'meta'
p418
(lp419
(dp420
S'objective'
p421
I9
sS'query_time'
p422
F0.2933928966522217
sS'comp_time'
p423
F7.510185241699219e-05
sS'exec_cq'
p424
I1
sS'total_cq'
p425
I6
sa(dp426
g421
I5
sg422
F0.35794711112976074
sg423
F8.320808410644531e-05
sg424
I1
sg425
I5
sa(dp427
g421
I2
sg422
F2.129115104675293
sg423
F0.0011718273162841797
sg424
I1
sg425
I4
sa(dp428
g421
I2
sg422
F72.66487216949463
sg423
F6.29425048828125e-05
sg424
I2
sg425
I2
sasS'total_cqs'
p429
I6
ssI42
(dp430
S'iters'
p431
I1
sS'meta'
p432
(lp433
(dp434
S'objective'
p435
I1
sS'query_time'
p436
F0.010228872299194336
sS'comp_time'
p437
F6.29425048828125e-05
sS'exec_cq'
p438
I1
sS'total_cq'
p439
I2
sasS'total_cqs'
p440
I2
ssI43
(dp441
S'iters'
p442
I0
sS'meta'
p443
(lp444
sS'total_cqs'
p445
I1
ssI44
(dp446
S'iters'
p447
I3
sS'meta'
p448
(lp449
(dp450
S'objective'
p451
I3
sS'query_time'
p452
F0.7880229949951172
sS'comp_time'
p453
F5.602836608886719e-05
sS'exec_cq'
p454
I1
sS'total_cq'
p455
I5
sa(dp456
g451
I1
sg452
F0.008852005004882812
sg453
F4.100799560546875e-05
sg454
I1
sg455
I3
sa(dp457
g451
I1
sg452
F0.0037801265716552734
sg453
F4.887580871582031e-05
sg454
I1
sg455
I2
sasS'total_cqs'
p458
I5
ssI45
(dp459
S'iters'
p460
I2
sS'meta'
p461
(lp462
(dp463
S'objective'
p464
I5
sS'query_time'
p465
F5.8860719203948975
sS'comp_time'
p466
F6.4849853515625e-05
sS'exec_cq'
p467
I1
sS'total_cq'
p468
I5
sa(dp469
g464
I4
sg465
F0.00658416748046875
sg466
F5.4836273193359375e-05
sg467
I2
sg468
I4
sasS'total_cqs'
p470
I5
ssI46
(dp471
S'iters'
p472
I0
sS'meta'
p473
(lp474
sS'total_cqs'
p475
I1
ssI47
(dp476
S'iters'
p477
I0
sS'meta'
p478
(lp479
sS'total_cqs'
p480
I1
ssI48
(dp481
S'iters'
p482
I1
sS'meta'
p483
(lp484
(dp485
S'objective'
p486
I1
sS'query_time'
p487
F0.10977506637573242
sS'comp_time'
p488
F8.106231689453125e-05
sS'exec_cq'
p489
I1
sS'total_cq'
p490
I2
sasS'total_cqs'
p491
I2
ssI49
(dp492
S'iters'
p493
I2
sS'meta'
p494
(lp495
(dp496
S'objective'
p497
I5
sS'query_time'
p498
F5.37210488319397
sS'comp_time'
p499
F7.104873657226562e-05
sS'exec_cq'
p500
I1
sS'total_cq'
p501
I5
sa(dp502
g497
I4
sg498
F0.011063098907470703
sg499
F6.890296936035156e-05
sg500
I2
sg501
I4
sasS'total_cqs'
p503
I5
ssI50
(dp504
S'iters'
p505
I3
sS'meta'
p506
(lp507
(dp508
S'objective'
p509
I5
sS'query_time'
p510
F0.16505002975463867
sS'comp_time'
p511
F8.106231689453125e-05
sS'exec_cq'
p512
I1
sS'total_cq'
p513
I5
sa(dp514
g509
I2
sg510
F0.0035219192504882812
sg511
F4.100799560546875e-05
sg512
I1
sg513
I4
sa(dp515
g509
I0
sg510
F0.9233119487762451
sg511
F8.702278137207031e-05
sg512
I1
sg513
I3
sasS'total_cqs'
p516
I5
ssI51
(dp517
S'iters'
p518
I0
sS'meta'
p519
(lp520
sS'total_cqs'
p521
I1
ssI52
(dp522
S'iters'
p523
I0
sS'meta'
p524
(lp525
sS'total_cqs'
p526
I1
ssI53
(dp527
S'iters'
p528
I0
sS'meta'
p529
(lp530
sS'total_cqs'
p531
I1
ssI55
(dp532
S'iters'
p533
I1
sS'meta'
p534
(lp535
(dp536
S'objective'
p537
I1
sS'query_time'
p538
F16.841771125793457
sS'comp_time'
p539
F3.409385681152344e-05
sS'exec_cq'
p540
I1
sS'total_cq'
p541
I2
sasS'total_cqs'
p542
I2
ssI56
(dp543
S'iters'
p544
I0
sS'meta'
p545
(lp546
sS'total_cqs'
p547
I1
ssI57
(dp548
S'iters'
p549
I1
sS'meta'
p550
(lp551
(dp552
S'objective'
p553
I2
sS'query_time'
p554
F12.391692876815796
sS'comp_time'
p555
F0.0001780986785888672
sS'exec_cq'
p556
I2
sS'total_cq'
p557
I3
sasS'total_cqs'
p558
I3
ssI108
(dp559
S'iters'
p560
I0
sS'meta'
p561
(lp562
sS'total_cqs'
p563
I1
ssI109
(dp564
S'iters'
p565
I0
sS'meta'
p566
(lp567
sS'total_cqs'
p568
I1
ssI116
(dp569
S'iters'
p570
I3
sS'meta'
p571
(lp572
(dp573
S'objective'
p574
I203
sS'query_time'
p575
F0.17323899269104004
sS'comp_time'
p576
F6.222724914550781e-05
sS'exec_cq'
p577
I8
sS'total_cq'
p578
I21
sa(dp579
g574
I201
sg575
F1.390995979309082
sg576
F7.605552673339844e-05
sg577
I13
sg578
I20
sa(dp580
g574
I195
sg575
F0.16954398155212402
sg576
F7.009506225585938e-05
sg577
I13
sg578
I19
sasS'total_cqs'
p581
I21
ssI117
(dp582
S'iters'
p583
I1
sS'meta'
p584
(lp585
(dp586
S'objective'
p587
I9
sS'query_time'
p588
F0.0065348148345947266
sS'comp_time'
p589
F4.100799560546875e-05
sS'exec_cq'
p590
I3
sS'total_cq'
p591
I5
sasS'total_cqs'
p592
I5
ssI118
(dp593
S'iters'
p594
I0
sS'meta'
p595
(lp596
sS'total_cqs'
p597
I1
ssI122
(dp598
S'iters'
p599
I0
sS'meta'
p600
(lp601
sS'total_cqs'
p602
I1
ss.