(dp0
I1
(dp1
S'iters'
p2
I2
sS'meta'
p3
(lp4
(dp5
S'objective'
p6
I3
sS'query_time'
p7
F8.126564979553223
sS'comp_time'
p8
F0.00012826919555664062
sS'exec_cq'
p9
I1
sS'total_cq'
p10
I6
sa(dp11
g6
I3
sg7
F300.1787462234497
sg8
F0.0001537799835205078
sg9
I1
sg10
I2
sasS'total_cqs'
p12
I6
ssI2
(dp13
S'iters'
p14
I1
sS'meta'
p15
(lp16
(dp17
S'objective'
p18
I9
sS'query_time'
p19
F0.7073781490325928
sS'comp_time'
p20
F6.604194641113281e-05
sS'exec_cq'
p21
I1
sS'total_cq'
p22
I6
sasS'total_cqs'
p23
I6
ssI3
(dp24
S'iters'
p25
I7
sS'meta'
p26
(lp27
(dp28
S'objective'
p29
I399
sS'query_time'
p30
F0.03453493118286133
sS'comp_time'
p31
F0.00011897087097167969
sS'exec_cq'
p32
I1
sS'total_cq'
p33
I33
sa(dp34
g29
I366
sg30
F0.766308069229126
sg31
F9.298324584960938e-05
sg32
I1
sg33
I30
sa(dp35
g29
I363
sg30
F0.04923892021179199
sg31
F9.918212890625e-05
sg32
I1
sg33
I27
sa(dp36
g29
I301
sg30
F0.10758090019226074
sg31
F0.00011205673217773438
sg32
I1
sg33
I26
sa(dp37
g29
I225
sg30
F0.018882036209106445
sg31
F0.0001399517059326172
sg32
I1
sg33
I24
sa(dp38
g29
I232
sg30
F0.0043299198150634766
sg31
F6.318092346191406e-05
sg32
I1
sg33
I21
sa(dp39
g29
I207
sg30
F0.1832740306854248
sg31
F7.486343383789062e-05
sg32
I1
sg33
I20
sasS'total_cqs'
p40
I33
ssI4
(dp41
S'iters'
p42
I0
sS'meta'
p43
(lp44
sS'total_cqs'
p45
I1
ssI5
(dp46
S'iters'
p47
I0
sS'meta'
p48
(lp49
sS'total_cqs'
p50
I1
ssI6
(dp51
S'iters'
p52
I3
sS'meta'
p53
(lp54
(dp55
S'objective'
p56
I9
sS'query_time'
p57
F1.0911810398101807
sS'comp_time'
p58
F0.0001068115234375
sS'exec_cq'
p59
I1
sS'total_cq'
p60
I5
sa(dp61
g56
I6
sg57
F1.6397128105163574
sg58
F0.00011897087097167969
sg59
I1
sg60
I3
sa(dp62
g56
I1
sg57
F29.799492120742798
sg58
F8.893013000488281e-05
sg59
I1
sg60
I2
sasS'total_cqs'
p63
I5
ssI7
(dp64
S'iters'
p65
I0
sS'meta'
p66
(lp67
sS'total_cqs'
p68
I1
ssI8
(dp69
S'iters'
p70
I2
sS'meta'
p71
(lp72
(dp73
S'objective'
p74
I3
sS'query_time'
p75
F42.90357494354248
sS'comp_time'
p76
F0.0003960132598876953
sS'exec_cq'
p77
I3
sS'total_cq'
p78
I6
sa(dp79
g74
I3
sg75
F0.021157026290893555
sg76
F5.4836273193359375e-05
sg77
I2
sg78
I2
sasS'total_cqs'
p80
I6
ssI9
(dp81
S'iters'
p82
I2
sS'meta'
p83
(lp84
(dp85
S'objective'
p86
I1
sS'query_time'
p87
F3.519627094268799
sS'comp_time'
p88
F7.796287536621094e-05
sS'exec_cq'
p89
I1
sS'total_cq'
p90
I6
sa(dp91
g86
I1
sg87
F6.520290851593018
sg88
F0.00013494491577148438
sg89
I1
sg90
I2
sasS'total_cqs'
p92
I6
ssI10
(dp93
S'iters'
p94
I0
sS'meta'
p95
(lp96
sS'total_cqs'
p97
I1
ssI11
(dp98
S'iters'
p99
I0
sS'meta'
p100
(lp101
sS'total_cqs'
p102
I1
ssI12
(dp103
S'iters'
p104
I0
sS'meta'
p105
(lp106
sS'total_cqs'
p107
I1
ssI13
(dp108
S'iters'
p109
I1
sS'meta'
p110
(lp111
(dp112
S'objective'
p113
I22
sS'query_time'
p114
F0.2880570888519287
sS'comp_time'
p115
F7.677078247070312e-05
sS'exec_cq'
p116
I2
sS'total_cq'
p117
I8
sasS'total_cqs'
p118
I8
ssI14
(dp119
S'iters'
p120
I1
sS'meta'
p121
(lp122
(dp123
S'objective'
p124
I5
sS'query_time'
p125
F0.9151551723480225
sS'comp_time'
p126
F9.965896606445312e-05
sS'exec_cq'
p127
I1
sS'total_cq'
p128
I5
sasS'total_cqs'
p129
I5
ssI16
(dp130
S'iters'
p131
I2
sS'meta'
p132
(lp133
(dp134
S'objective'
p135
I1
sS'query_time'
p136
F6.500771999359131
sS'comp_time'
p137
F8.20159912109375e-05
sS'exec_cq'
p138
I1
sS'total_cq'
p139
I5
sa(dp140
g135
I3
sg136
F103.8954451084137
sg137
F8.606910705566406e-05
sg138
I2
sg139
I2
sasS'total_cqs'
p141
I5
ssI17
(dp142
S'iters'
p143
I0
sS'meta'
p144
(lp145
sS'total_cqs'
p146
I1
ssI18
(dp147
S'iters'
p148
I2
sS'meta'
p149
(lp150
(dp151
S'objective'
p152
I1
sS'query_time'
p153
F0.40349698066711426
sS'comp_time'
p154
F9.393692016601562e-05
sS'exec_cq'
p155
I1
sS'total_cq'
p156
I5
sa(dp157
g152
I3
sg153
F0.3239607810974121
sg154
F0.00010395050048828125
sg155
I2
sg156
I2
sasS'total_cqs'
p158
I5
ssI19
(dp159
S'iters'
p160
I0
sS'meta'
p161
(lp162
sS'total_cqs'
p163
I1
ssI20
(dp164
S'iters'
p165
I2
sS'meta'
p166
(lp167
(dp168
S'objective'
p169
I38
sS'query_time'
p170
F0.028133153915405273
sS'comp_time'
p171
F9.799003601074219e-05
sS'exec_cq'
p172
I1
sS'total_cq'
p173
I12
sa(dp174
g169
I38
sg170
F0.1519629955291748
sg171
F8.702278137207031e-05
sg172
I2
sg173
I10
sasS'total_cqs'
p175
I12
ssI21
(dp176
S'iters'
p177
I1
sS'meta'
p178
(lp179
(dp180
S'objective'
p181
I81
sS'query_time'
p182
F43.99816107749939
sS'comp_time'
p183
F0.00010800361633300781
sS'exec_cq'
p184
I3
sS'total_cq'
p185
I14
sasS'total_cqs'
p186
I14
ssI22
(dp187
S'iters'
p188
I1
sS'meta'
p189
(lp190
(dp191
S'objective'
p192
I1
sS'query_time'
p193
F0.0045778751373291016
sS'comp_time'
p194
F7.510185241699219e-05
sS'exec_cq'
p195
I1
sS'total_cq'
p196
I2
sasS'total_cqs'
p197
I2
ssI23
(dp198
S'iters'
p199
I0
sS'meta'
p200
(lp201
sS'total_cqs'
p202
I1
ssI24
(dp203
S'iters'
p204
I0
sS'meta'
p205
(lp206
sS'total_cqs'
p207
I1
ssI25
(dp208
S'iters'
p209
I1
sS'meta'
p210
(lp211
(dp212
S'objective'
p213
I14
sS'query_time'
p214
F0.36048412322998047
sS'comp_time'
p215
F8.392333984375e-05
sS'exec_cq'
p216
I1
sS'total_cq'
p217
I7
sasS'total_cqs'
p218
I7
ssI26
(dp219
S'iters'
p220
I3
sS'meta'
p221
(lp222
(dp223
S'objective'
p224
I65
sS'query_time'
p225
F0.06608700752258301
sS'comp_time'
p226
F7.772445678710938e-05
sS'exec_cq'
p227
I1
sS'total_cq'
p228
I13
sa(dp229
g224
I54
sg225
F0.04196596145629883
sg226
F8.893013000488281e-05
sg227
I1
sg228
I12
sa(dp230
g224
I44
sg225
F0.00901484489440918
sg226
F6.890296936035156e-05
sg227
I1
sg228
I11
sasS'total_cqs'
p231
I13
ssI27
(dp232
S'iters'
p233
I1
sS'meta'
p234
(lp235
(dp236
S'objective'
p237
I1
sS'query_time'
p238
F0.3702840805053711
sS'comp_time'
p239
F0.0001049041748046875
sS'exec_cq'
p240
I1
sS'total_cq'
p241
I2
sasS'total_cqs'
p242
I2
ssI28
(dp243
S'iters'
p244
I3
sS'meta'
p245
(lp246
(dp247
S'objective'
p248
I29
sS'query_time'
p249
F1.597810983657837
sS'comp_time'
p250
F9.107589721679688e-05
sS'exec_cq'
p251
I1
sS'total_cq'
p252
I14
sa(dp253
g248
I13
sg249
F0.958683967590332
sg250
F0.00010395050048828125
sg251
I1
sg252
I9
sa(dp254
g248
I16
sg249
F0.40051817893981934
sg250
F0.0001220703125
sg251
I1
sg252
I6
sasS'total_cqs'
p255
I14
ssI29
(dp256
S'iters'
p257
I1
sS'meta'
p258
(lp259
(dp260
S'objective'
p261
I1
sS'query_time'
p262
F0.0045318603515625
sS'comp_time'
p263
F6.103515625e-05
sS'exec_cq'
p264
I1
sS'total_cq'
p265
I2
sasS'total_cqs'
p266
I2
ssI30
(dp267
S'iters'
p268
I1
sS'meta'
p269
(lp270
(dp271
S'objective'
p272
I1
sS'query_time'
p273
F0.34720897674560547
sS'comp_time'
p274
F7.987022399902344e-05
sS'exec_cq'
p275
I1
sS'total_cq'
p276
I2
sasS'total_cqs'
p277
I2
ssI31
(dp278
S'iters'
p279
I2
sS'meta'
p280
(lp281
(dp282
S'objective'
p283
I27
sS'query_time'
p284
F7.55473780632019
sS'comp_time'
p285
F9.417533874511719e-05
sS'exec_cq'
p286
I1
sS'total_cq'
p287
I9
sa(dp288
g283
I20
sg284
F0.37790608406066895
sg285
F8.702278137207031e-05
sg286
I1
sg287
I8
sasS'total_cqs'
p289
I9
ssI32
(dp290
S'iters'
p291
I1
sS'meta'
p292
(lp293
(dp294
S'objective'
p295
I14
sS'query_time'
p296
F0.19185304641723633
sS'comp_time'
p297
F9.584426879882812e-05
sS'exec_cq'
p298
I1
sS'total_cq'
p299
I7
sasS'total_cqs'
p300
I7
ssI33
(dp301
S'iters'
p302
I1
sS'meta'
p303
(lp304
(dp305
S'objective'
p306
I1
sS'query_time'
p307
F0.02476215362548828
sS'comp_time'
p308
F8.296966552734375e-05
sS'exec_cq'
p309
I1
sS'total_cq'
p310
I2
sasS'total_cqs'
p311
I2
ssI34
(dp312
S'iters'
p313
I0
sS'meta'
p314
(lp315
sS'total_cqs'
p316
I1
ssI35
(dp317
S'iters'
p318
I2
sS'meta'
p319
(lp320
(dp321
S'objective'
p322
I1
sS'query_time'
p323
F2.0715878009796143
sS'comp_time'
p324
F0.00010609626770019531
sS'exec_cq'
p325
I1
sS'total_cq'
p326
I5
sa(dp327
g322
I3
sg323
F4.282817125320435
sg324
F0.00016117095947265625
sg325
I1
sg326
I2
sasS'total_cqs'
p328
I5
ssI37
(dp329
S'iters'
p330
I1
sS'meta'
p331
(lp332
(dp333
S'objective'
p334
I37
sS'query_time'
p335
F17.524502992630005
sS'comp_time'
p336
F9.393692016601562e-05
sS'exec_cq'
p337
I2
sS'total_cq'
p338
I10
sasS'total_cqs'
p339
I10
ssI38
(dp340
S'iters'
p341
I0
sS'meta'
p342
(lp343
sS'total_cqs'
p344
I1
ssI39
(dp345
S'iters'
p346
I0
sS'meta'
p347
(lp348
sS'total_cqs'
p349
I1
ssI40
(dp350
S'iters'
p351
I1
sS'meta'
p352
(lp353
(dp354
S'objective'
p355
I1
sS'query_time'
p356
F16.258157968521118
sS'comp_time'
p357
F0.0004410743713378906
sS'exec_cq'
p358
I2
sS'total_cq'
p359
I2
sasS'total_cqs'
p360
I2
ssI41
(dp361
S'iters'
p362
I2
sS'meta'
p363
(lp364
(dp365
S'objective'
p366
I5
sS'query_time'
p367
F2.8441660404205322
sS'comp_time'
p368
F7.891654968261719e-05
sS'exec_cq'
p369
I1
sS'total_cq'
p370
I6
sa(dp371
g366
I4
sg367
F69.70116710662842
sg368
F8.296966552734375e-05
sg369
I2
sg370
I2
sasS'total_cqs'
p372
I6
ssI42
(dp373
S'iters'
p374
I1
sS'meta'
p375
(lp376
(dp377
S'objective'
p378
I1
sS'query_time'
p379
F0.011427879333496094
sS'comp_time'
p380
F6.914138793945312e-05
sS'exec_cq'
p381
I1
sS'total_cq'
p382
I2
sasS'total_cqs'
p383
I2
ssI43
(dp384
S'iters'
p385
I0
sS'meta'
p386
(lp387
sS'total_cqs'
p388
I1
ssI44
(dp389
S'iters'
p390
I1
sS'meta'
p391
(lp392
(dp393
S'objective'
p394
I5
sS'query_time'
p395
F0.00933980941772461
sS'comp_time'
p396
F6.508827209472656e-05
sS'exec_cq'
p397
I1
sS'total_cq'
p398
I5
sasS'total_cqs'
p399
I5
ssI45
(dp400
S'iters'
p401
I2
sS'meta'
p402
(lp403
(dp404
S'objective'
p405
I1
sS'query_time'
p406
F0.03688311576843262
sS'comp_time'
p407
F9.393692016601562e-05
sS'exec_cq'
p408
I1
sS'total_cq'
p409
I5
sa(dp410
g405
I3
sg406
F0.5968420505523682
sg407
F8.20159912109375e-05
sg408
I2
sg409
I2
sasS'total_cqs'
p411
I5
ssI46
(dp412
S'iters'
p413
I0
sS'meta'
p414
(lp415
sS'total_cqs'
p416
I1
ssI47
(dp417
S'iters'
p418
I0
sS'meta'
p419
(lp420
sS'total_cqs'
p421
I1
ssI48
(dp422
S'iters'
p423
I1
sS'meta'
p424
(lp425
(dp426
S'objective'
p427
I1
sS'query_time'
p428
F0.12210893630981445
sS'comp_time'
p429
F9.179115295410156e-05
sS'exec_cq'
p430
I1
sS'total_cq'
p431
I2
sasS'total_cqs'
p432
I2
ssI49
(dp433
S'iters'
p434
I2
sS'meta'
p435
(lp436
(dp437
S'objective'
p438
I3
sS'query_time'
p439
F0.30702996253967285
sS'comp_time'
p440
F0.00010991096496582031
sS'exec_cq'
p441
I1
sS'total_cq'
p442
I5
sa(dp443
g438
I1
sg439
F0.07952690124511719
sg440
F9.012222290039062e-05
sg441
I1
sg442
I2
sasS'total_cqs'
p444
I5
ssI50
(dp445
S'iters'
p446
I1
sS'meta'
p447
(lp448
(dp449
S'objective'
p450
I5
sS'query_time'
p451
F0.8001580238342285
sS'comp_time'
p452
F8.392333984375e-05
sS'exec_cq'
p453
I1
sS'total_cq'
p454
I5
sasS'total_cqs'
p455
I5
ssI51
(dp456
S'iters'
p457
I0
sS'meta'
p458
(lp459
sS'total_cqs'
p460
I1
ssI52
(dp461
S'iters'
p462
I0
sS'meta'
p463
(lp464
sS'total_cqs'
p465
I1
ssI53
(dp466
S'iters'
p467
I0
sS'meta'
p468
(lp469
sS'total_cqs'
p470
I1
ssI55
(dp471
S'iters'
p472
I1
sS'meta'
p473
(lp474
(dp475
S'objective'
p476
I1
sS'query_time'
p477
F10.997119903564453
sS'comp_time'
p478
F0.00010395050048828125
sS'exec_cq'
p479
I1
sS'total_cq'
p480
I2
sasS'total_cqs'
p481
I2
ssI56
(dp482
S'iters'
p483
I0
sS'meta'
p484
(lp485
sS'total_cqs'
p486
I1
ssI57
(dp487
S'iters'
p488
I2
sS'meta'
p489
(lp490
(dp491
S'objective'
p492
I0
sS'query_time'
p493
F2.0838918685913086
sS'comp_time'
p494
F0.0005991458892822266
sS'exec_cq'
p495
I1
sS'total_cq'
p496
I3
sa(dp497
g492
I1
sg493
F10.804229974746704
sg494
F7.700920104980469e-05
sg495
I1
sg496
I2
sasS'total_cqs'
p498
I3
ssI108
(dp499
S'iters'
p500
I0
sS'meta'
p501
(lp502
sS'total_cqs'
p503
I1
ssI109
(dp504
S'iters'
p505
I0
sS'meta'
p506
(lp507
sS'total_cqs'
p508
I1
ssI116
(dp509
S'iters'
p510
I2
sS'meta'
p511
(lp512
(dp513
S'objective'
p514
I195
sS'query_time'
p515
F3.5875229835510254
sS'comp_time'
p516
F0.0002658367156982422
sS'exec_cq'
p517
I4
sS'total_cq'
p518
I21
sa(dp519
g514
I179
sg515
F0.167633056640625
sg516
F0.00013303756713867188
sg517
I4
sg518
I20
sasS'total_cqs'
p520
I21
ssI117
(dp521
S'iters'
p522
I1
sS'meta'
p523
(lp524
(dp525
S'objective'
p526
I5
sS'query_time'
p527
F0.005261898040771484
sS'comp_time'
p528
F6.222724914550781e-05
sS'exec_cq'
p529
I1
sS'total_cq'
p530
I5
sasS'total_cqs'
p531
I5
ssI118
(dp532
S'iters'
p533
I0
sS'meta'
p534
(lp535
sS'total_cqs'
p536
I1
ssI122
(dp537
S'iters'
p538
I0
sS'meta'
p539
(lp540
sS'total_cqs'
p541
I1
ss.