(dp0
I1
(dp1
S'iters'
p2
I2
sS'meta'
p3
(lp4
(dp5
S'objective'
p6
I2
sS'query_time'
p7
F47.05968403816223
sS'comp_time'
p8
F1.5191256999969482
sS'exec_cq'
p9
I5
sS'total_cq'
p10
I6
sa(dp11
g6
I2
sg7
F0.25881099700927734
sg8
F0.7033181190490723
sg9
I3
sg10
I4
sasS'total_cqs'
p12
I6
ssI2
(dp13
S'iters'
p14
I1
sS'meta'
p15
(lp16
(dp17
S'objective'
p18
I4
sS'query_time'
p19
F1.1266758441925049
sS'comp_time'
p20
F0.15618133544921875
sS'exec_cq'
p21
I6
sS'total_cq'
p22
I6
sasS'total_cqs'
p23
I6
ssI3
(dp24
S'iters'
p25
I15
sS'meta'
p26
(lp27
(dp28
S'objective'
p29
I27
sS'query_time'
p30
F25.8650381565094
sS'comp_time'
p31
F0.29627108573913574
sS'exec_cq'
p32
I33
sS'total_cq'
p33
I33
sa(dp34
g29
I24
sg30
F0.02250504493713379
sg31
F0.11193609237670898
sg32
I30
sg33
I30
sa(dp35
g29
I21
sg30
F0.08170890808105469
sg31
F0.052548885345458984
sg32
I27
sg33
I27
sa(dp36
g29
I18
sg30
F0.018182039260864258
sg31
F0.09591889381408691
sg32
I24
sg33
I24
sa(dp37
g29
I15
sg30
F0.016596078872680664
sg31
F0.10787653923034668
sg32
I21
sg33
I21
sa(dp38
g29
I12
sg30
F0.00696563720703125
sg31
F0.014598846435546875
sg32
I18
sg33
I18
sa(dp39
g29
I9
sg30
F0.007158756256103516
sg31
F0.01343226432800293
sg32
I15
sg33
I15
sa(dp40
g29
I8
sg30
F0.06114387512207031
sg31
F0.013231515884399414
sg32
I12
sg33
I12
sa(dp41
g29
I8
sg30
F0.005034923553466797
sg31
F0.012863397598266602
sg32
I10
sg33
I10
sa(dp42
g29
I7
sg30
F0.004820585250854492
sg31
F0.012540817260742188
sg32
I9
sg33
I9
sa(dp43
g29
I6
sg30
F0.004991054534912109
sg31
F0.06952834129333496
sg32
I8
sg33
I8
sa(dp44
g29
I5
sg30
F0.003240823745727539
sg31
F0.005799055099487305
sg32
I7
sg33
I7
sa(dp45
g29
I4
sg30
F0.0025739669799804688
sg31
F0.0069577693939208984
sg32
I6
sg33
I6
sa(dp46
g29
I3
sg30
F0.0027523040771484375
sg31
F0.005007266998291016
sg32
I5
sg33
I5
sa(dp47
g29
I2
sg30
F0.00208282470703125
sg31
F0.005120754241943359
sg32
I4
sg33
I4
sasS'total_cqs'
p48
I33
ssI6
(dp49
S'iters'
p50
I2
sS'meta'
p51
(lp52
(dp53
S'objective'
p54
I1
sS'query_time'
p55
F14.010759115219116
sS'comp_time'
p56
F0.0038442611694335938
sS'exec_cq'
p57
I4
sS'total_cq'
p58
I5
sa(dp59
g54
I0
sg55
F0.0002701282501220703
sg56
F0.0004699230194091797
sg57
I2
sg58
I2
sasS'total_cqs'
p60
I5
ssI8
(dp61
S'iters'
p62
I3
sS'meta'
p63
(lp64
(dp65
S'objective'
p66
I4
sS'query_time'
p67
F43.1026132106781
sS'comp_time'
p68
F0.14140820503234863
sS'exec_cq'
p69
I6
sS'total_cq'
p70
I6
sa(dp71
g66
I3
sg67
F41.61157584190369
sg68
F0.00020194053649902344
sg69
I5
sg70
I5
sa(dp72
g66
I2
sg67
F0.08142304420471191
sg68
F0.0001575946807861328
sg69
I4
sg70
I4
sasS'total_cqs'
p73
I6
ssI9
(dp74
S'iters'
p75
I3
sS'meta'
p76
(lp77
(dp78
S'objective'
p79
I0
sS'query_time'
p80
F10.714581966400146
sS'comp_time'
p81
F0.0496678352355957
sS'exec_cq'
p82
I3
sS'total_cq'
p83
I6
sa(dp84
g79
I1
sg80
F0.0427091121673584
sg81
F0.15697002410888672
sg82
I3
sg83
I3
sa(dp85
g79
I0
sg80
F0.016696929931640625
sg81
F0.013623476028442383
sg82
I2
sg83
I2
sasS'total_cqs'
p86
I6
ssI13
(dp87
S'iters'
p88
I1
sS'meta'
p89
(lp90
(dp91
S'objective'
p92
I6
sS'query_time'
p93
F0.03297686576843262
sS'comp_time'
p94
F0.00886225700378418
sS'exec_cq'
p95
I7
sS'total_cq'
p96
I8
sasS'total_cqs'
p97
I8
ssI14
(dp98
S'iters'
p99
I1
sS'meta'
p100
(lp101
(dp102
S'objective'
p103
I3
sS'query_time'
p104
F1.1057100296020508
sS'comp_time'
p105
F0.005570888519287109
sS'exec_cq'
p106
I5
sS'total_cq'
p107
I5
sasS'total_cqs'
p108
I5
ssI16
(dp109
S'iters'
p110
I3
sS'meta'
p111
(lp112
(dp113
S'objective'
p114
I1
sS'query_time'
p115
F1.6103971004486084
sS'comp_time'
p116
F0.0051708221435546875
sS'exec_cq'
p117
I4
sS'total_cq'
p118
I5
sa(dp119
g114
I1
sg115
F0.049179792404174805
sg116
F0.00016689300537109375
sg117
I1
sg118
I3
sa(dp120
g114
I0
sg115
F6.985664367675781e-05
sg116
F0.00011301040649414062
sg117
I2
sg118
I2
sasS'total_cqs'
p121
I5
ssI18
(dp122
S'iters'
p123
I3
sS'meta'
p124
(lp125
(dp126
S'objective'
p127
I1
sS'query_time'
p128
F0.19842219352722168
sS'comp_time'
p129
F0.0037631988525390625
sS'exec_cq'
p130
I4
sS'total_cq'
p131
I5
sa(dp132
g127
I1
sg128
F0.051360130310058594
sg129
F0.00012493133544921875
sg130
I1
sg131
I3
sa(dp133
g127
I0
sg128
F5.1021575927734375e-05
sg129
F9.584426879882812e-05
sg130
I2
sg131
I2
sasS'total_cqs'
p134
I5
ssI20
(dp135
S'iters'
p136
I5
sS'meta'
p137
(lp138
(dp139
S'objective'
p140
I8
sS'query_time'
p141
F11.246297121047974
sS'comp_time'
p142
F1.0105879306793213
sS'exec_cq'
p143
I10
sS'total_cq'
p144
I12
sa(dp145
g140
I6
sg141
F0.3039519786834717
sg142
F0.7621407508850098
sg143
I8
sg144
I10
sa(dp146
g140
I4
sg141
F0.2773909568786621
sg142
F0.4142184257507324
sg143
I6
sg144
I8
sa(dp147
g140
I4
sg141
F0.19785499572753906
sg142
F0.42934489250183105
sg143
I5
sg144
I6
sa(dp148
g140
I3
sg141
F0.24297785758972168
sg142
F0.4211146831512451
sg143
I4
sg144
I5
sasS'total_cqs'
p149
I12
ssI21
(dp150
S'iters'
p151
I3
sS'meta'
p152
(lp153
(dp154
S'objective'
p155
I8
sS'query_time'
p156
F59.38224196434021
sS'comp_time'
p157
F0.90205979347229
sS'exec_cq'
p158
I12
sS'total_cq'
p159
I14
sa(dp160
g155
I7
sg156
F0.11239194869995117
sg157
F0.0645442008972168
sg158
I8
sg159
I11
sa(dp161
g155
I7
sg156
F0.026705026626586914
sg157
F0.023991823196411133
sg158
I7
sg159
I9
sasS'total_cqs'
p162
I14
ssI22
(dp163
S'iters'
p164
I1
sS'meta'
p165
(lp166
(dp167
S'objective'
p168
I0
sS'query_time'
p169
F0.004263877868652344
sS'comp_time'
p170
F0.001447916030883789
sS'exec_cq'
p171
I1
sS'total_cq'
p172
I2
sasS'total_cqs'
p173
I2
ssI25
(dp174
S'iters'
p175
I3
sS'meta'
p176
(lp177
(dp178
S'objective'
p179
I3
sS'query_time'
p180
F50.47708702087402
sS'comp_time'
p181
F2.220954179763794
sS'exec_cq'
p182
I6
sS'total_cq'
p183
I7
sa(dp184
g179
I1
sg180
F0.7251310348510742
sg181
F2.3617241382598877
sg182
I4
sg183
I5
sa(dp185
g179
I1
sg180
F0.32239198684692383
sg181
F0.0007090568542480469
sg182
I3
sg183
I3
sasS'total_cqs'
p186
I7
ssI26
(dp187
S'iters'
p188
I8
sS'meta'
p189
(lp190
(dp191
S'objective'
p192
I9
sS'query_time'
p193
F20.51058292388916
sS'comp_time'
p194
F1.907742977142334
sS'exec_cq'
p195
I9
sS'total_cq'
p196
I13
sa(dp197
g192
I7
sg193
F4.2661919593811035
sg194
F2.0263307094573975
sg195
I9
sg196
I11
sa(dp198
g192
I5
sg193
F0.6482341289520264
sg194
F2.0707812309265137
sg195
I7
sg196
I9
sa(dp199
g192
I5
sg193
F0.7314703464508057
sg194
F2.5431768894195557
sg195
I6
sg196
I7
sa(dp200
g192
I4
sg193
F0.8214242458343506
sg194
F2.387809991836548
sg195
I5
sg196
I6
sa(dp201
g192
I3
sg193
F0.7305538654327393
sg194
F3.746129274368286
sg195
I4
sg196
I5
sa(dp202
g192
I2
sg193
F0.6915750503540039
sg194
F2.008704900741577
sg195
I3
sg196
I4
sa(dp203
g192
I1
sg193
F1.074814796447754
sg194
F2.434556007385254
sg195
I3
sg196
I3
sasS'total_cqs'
p204
I13
ssI27
(dp205
S'iters'
p206
I1
sS'meta'
p207
(lp208
(dp209
S'objective'
p210
I0
sS'query_time'
p211
F0.21261811256408691
sS'comp_time'
p212
F0.0024650096893310547
sS'exec_cq'
p213
I1
sS'total_cq'
p214
I2
sasS'total_cqs'
p215
I2
ssI28
(dp216
S'iters'
p217
I3
sS'meta'
p218
(lp219
(dp220
S'objective'
p221
I8
sS'query_time'
p222
F1.4701249599456787
sS'comp_time'
p223
F0.09447693824768066
sS'exec_cq'
p224
I6
sS'total_cq'
p225
I14
sa(dp226
g221
I7
sg222
F0.007709980010986328
sg223
F0.0060765743255615234
sg224
I5
sg225
I11
sa(dp227
g221
I7
sg222
F0.0021300315856933594
sg223
F0.00010156631469726562
sg224
I3
sg225
I9
sasS'total_cqs'
p228
I14
ssI29
(dp229
S'iters'
p230
I1
sS'meta'
p231
(lp232
(dp233
S'objective'
p234
I0
sS'query_time'
p235
F0.010190010070800781
sS'comp_time'
p236
F0.002065896987915039
sS'exec_cq'
p237
I2
sS'total_cq'
p238
I2
sasS'total_cqs'
p239
I2
ssI30
(dp240
S'iters'
p241
I1
sS'meta'
p242
(lp243
(dp244
S'objective'
p245
I0
sS'query_time'
p246
F0.4231679439544678
sS'comp_time'
p247
F0.0023849010467529297
sS'exec_cq'
p248
I2
sS'total_cq'
p249
I2
sasS'total_cqs'
p250
I2
ssI31
(dp251
S'iters'
p252
I3
sS'meta'
p253
(lp254
(dp255
S'objective'
p256
I3
sS'query_time'
p257
F5.249464750289917
sS'comp_time'
p258
F0.06739997863769531
sS'exec_cq'
p259
I9
sS'total_cq'
p260
I9
sa(dp261
g256
I1
sg257
F0.006991863250732422
sg258
F0.008867025375366211
sg259
I3
sg260
I3
sa(dp262
g256
I0
sg257
F0.006536960601806641
sg258
F0.009485483169555664
sg259
I2
sg260
I2
sasS'total_cqs'
p263
I9
ssI32
(dp264
S'iters'
p265
I3
sS'meta'
p266
(lp267
(dp268
S'objective'
p269
I1
sS'query_time'
p270
F18.502043962478638
sS'comp_time'
p271
F2.0857651233673096
sS'exec_cq'
p272
I4
sS'total_cq'
p273
I7
sa(dp274
g269
I0
sg270
F1.1719269752502441
sg271
F0.0028841495513916016
sg272
I2
sg273
I4
sa(dp275
g269
I0
sg270
F0.25055599212646484
sg271
F0.2455441951751709
sg272
I1
sg273
I2
sasS'total_cqs'
p276
I7
ssI33
(dp277
S'iters'
p278
I1
sS'meta'
p279
(lp280
(dp281
S'objective'
p282
I0
sS'query_time'
p283
F0.028009891510009766
sS'comp_time'
p284
F0.0014798641204833984
sS'exec_cq'
p285
I2
sS'total_cq'
p286
I2
sasS'total_cqs'
p287
I2
ssI35
(dp288
S'iters'
p289
I2
sS'meta'
p290
(lp291
(dp292
S'objective'
p293
I1
sS'query_time'
p294
F15.461159944534302
sS'comp_time'
p295
F0.07519292831420898
sS'exec_cq'
p296
I4
sS'total_cq'
p297
I5
sa(dp298
g293
I0
sg294
F0.011840105056762695
sg295
F0.08119416236877441
sg296
I2
sg297
I2
sasS'total_cqs'
p299
I5
ssI37
(dp300
S'iters'
p301
I2
sS'meta'
p302
(lp303
(dp304
S'objective'
p305
I6
sS'query_time'
p306
F1.721193790435791
sS'comp_time'
p307
F0.038124799728393555
sS'exec_cq'
p308
I8
sS'total_cq'
p309
I10
sa(dp310
g305
I0
sg306
F0.002942800521850586
sg307
F0.07892870903015137
sg308
I2
sg309
I2
sasS'total_cqs'
p311
I10
ssI40
(dp312
S'iters'
p313
I1
sS'meta'
p314
(lp315
(dp316
S'objective'
p317
I0
sS'query_time'
p318
F0.004719972610473633
sS'comp_time'
p319
F0.001544952392578125
sS'exec_cq'
p320
I1
sS'total_cq'
p321
I2
sasS'total_cqs'
p322
I2
ssI41
(dp323
S'iters'
p324
I2
sS'meta'
p325
(lp326
(dp327
S'objective'
p328
I2
sS'query_time'
p329
F11.759785890579224
sS'comp_time'
p330
F0.7210516929626465
sS'exec_cq'
p331
I5
sS'total_cq'
p332
I6
sa(dp333
g328
I0
sg329
F0.0008261203765869141
sg330
F0.001004934310913086
sg331
I2
sg332
I2
sasS'total_cqs'
p334
I6
ssI42
(dp335
S'iters'
p336
I1
sS'meta'
p337
(lp338
(dp339
S'objective'
p340
I0
sS'query_time'
p341
F0.00902700424194336
sS'comp_time'
p342
F0.0012390613555908203
sS'exec_cq'
p343
I1
sS'total_cq'
p344
I2
sasS'total_cqs'
p345
I2
ssI44
(dp346
S'iters'
p347
I2
sS'meta'
p348
(lp349
(dp350
S'objective'
p351
I1
sS'query_time'
p352
F1.575141191482544
sS'comp_time'
p353
F0.0344080924987793
sS'exec_cq'
p354
I4
sS'total_cq'
p355
I5
sa(dp356
g351
I1
sg352
F0.11597108840942383
sg353
F0.028947114944458008
sg354
I3
sg355
I3
sasS'total_cqs'
p357
I5
ssI45
(dp358
S'iters'
p359
I2
sS'meta'
p360
(lp361
(dp362
S'objective'
p363
I1
sS'query_time'
p364
F0.04905509948730469
sS'comp_time'
p365
F0.0035369396209716797
sS'exec_cq'
p366
I3
sS'total_cq'
p367
I5
sa(dp368
g363
I0
sg364
F0.00015997886657714844
sg365
F0.00020575523376464844
sg366
I2
sg367
I2
sasS'total_cqs'
p369
I5
ssI48
(dp370
S'iters'
p371
I1
sS'meta'
p372
(lp373
(dp374
S'objective'
p375
I0
sS'query_time'
p376
F0.30779004096984863
sS'comp_time'
p377
F0.0037467479705810547
sS'exec_cq'
p378
I2
sS'total_cq'
p379
I2
sasS'total_cqs'
p380
I2
ssI49
(dp381
S'iters'
p382
I3
sS'meta'
p383
(lp384
(dp385
S'objective'
p386
I1
sS'query_time'
p387
F0.3273780345916748
sS'comp_time'
p388
F0.0041408538818359375
sS'exec_cq'
p389
I4
sS'total_cq'
p390
I5
sa(dp391
g386
I1
sg387
F0.05785703659057617
sg388
F0.0004591941833496094
sg389
I3
sg390
I3
sa(dp392
g386
I0
sg387
F4.57763671875e-05
sg388
F0.00010943412780761719
sg389
I2
sg390
I2
sasS'total_cqs'
p393
I5
ssI50
(dp394
S'iters'
p395
I1
sS'meta'
p396
(lp397
(dp398
S'objective'
p399
I3
sS'query_time'
p400
F0.7549679279327393
sS'comp_time'
p401
F0.0025360584259033203
sS'exec_cq'
p402
I5
sS'total_cq'
p403
I5
sasS'total_cqs'
p404
I5
ssI55
(dp405
S'iters'
p406
I1
sS'meta'
p407
(lp408
(dp409
S'objective'
p410
I0
sS'query_time'
p411
F24.946090936660767
sS'comp_time'
p412
F0.020275354385375977
sS'exec_cq'
p413
I2
sS'total_cq'
p414
I2
sasS'total_cqs'
p415
I2
ssI57
(dp416
S'iters'
p417
I2
sS'meta'
p418
(lp419
(dp420
S'objective'
p421
I1
sS'query_time'
p422
F12.501498222351074
sS'comp_time'
p423
F1.161297082901001
sS'exec_cq'
p424
I3
sS'total_cq'
p425
I3
sa(dp426
g421
I0
sg422
F0.25173401832580566
sg423
F0.3737480640411377
sg424
I1
sg425
I2
sasS'total_cqs'
p427
I3
ssI116
(dp428
S'iters'
p429
I2
sS'meta'
p430
(lp431
(dp432
S'objective'
p433
I17
sS'query_time'
p434
F4.570841312408447
sS'comp_time'
p435
F0.2200908660888672
sS'exec_cq'
p436
I17
sS'total_cq'
p437
I21
sa(dp438
g433
I0
sg434
F0.0008721351623535156
sg435
F0.0009658336639404297
sg436
I2
sg437
I2
sasS'total_cqs'
p439
I21
ssI117
(dp440
S'iters'
p441
I1
sS'meta'
p442
(lp443
(dp444
S'objective'
p445
I3
sS'query_time'
p446
F0.011148929595947266
sS'comp_time'
p447
F0.0014982223510742188
sS'exec_cq'
p448
I5
sS'total_cq'
p449
I5
sasS'total_cqs'
p450
I5
ss.