(dp0
I1
(dp1
S'iters'
p2
I4
sS'meta'
p3
(lp4
(dp5
S'objective'
p6
I9
sS'query_time'
p7
F49.39555287361145
sS'comp_time'
p8
F1.2022967338562012
sS'exec_cq'
p9
I5
sS'total_cq'
p10
I6
sa(dp11
g6
I3
sg7
F0.2027890682220459
sg8
F0.49447131156921387
sg9
I2
sg10
I4
sa(dp12
g6
I1
sg7
F24.81547999382019
sg8
F5.459785461425781e-05
sg9
I1
sg10
I3
sa(dp13
g6
I2
sg7
F0.0015211105346679688
sg8
F5.221366882324219e-05
sg9
I1
sg10
I2
sasS'total_cqs'
p14
I6
ssI2
(dp15
S'iters'
p16
I1
sS'meta'
p17
(lp18
(dp19
S'objective'
p20
I15
sS'query_time'
p21
F1.2591147422790527
sS'comp_time'
p22
F0.03348994255065918
sS'exec_cq'
p23
I6
sS'total_cq'
p24
I6
sasS'total_cqs'
p25
I6
ssI3
(dp26
S'iters'
p27
I13
sS'meta'
p28
(lp29
(dp30
S'objective'
p31
I427
sS'query_time'
p32
F25.917378902435303
sS'comp_time'
p33
F0.20926809310913086
sS'exec_cq'
p34
I28
sS'total_cq'
p35
I33
sa(dp36
g31
I366
sg32
F0.008654117584228516
sg33
F0.01235055923461914
sg34
I25
sg35
I30
sa(dp37
g31
I306
sg32
F0.0070209503173828125
sg33
F0.010716676712036133
sg34
I22
sg35
I27
sa(dp38
g31
I264
sg32
F0.00487208366394043
sg33
F0.06890988349914551
sg34
I19
sg35
I24
sa(dp39
g31
I212
sg32
F0.004878997802734375
sg33
F0.009699106216430664
sg34
I16
sg35
I21
sa(dp40
g31
I170
sg32
F0.004648923873901367
sg33
F0.010538578033447266
sg34
I13
sg35
I18
sa(dp41
g31
I125
sg32
F0.0026750564575195312
sg33
F0.0040090084075927734
sg34
I10
sg35
I15
sa(dp42
g31
I135
sg32
F0.19844484329223633
sg33
F0.021674156188964844
sg34
I13
sg35
I13
sa(dp43
g31
I119
sg32
F0.004093170166015625
sg33
F0.005776643753051758
sg34
I12
sg35
I12
sa(dp44
g31
I104
sg32
F0.06083822250366211
sg33
F0.005931854248046875
sg34
I11
sg35
I11
sa(dp45
g31
I60
sg32
F30.57546901702881
sg33
F0.010153055191040039
sg34
I6
sg35
I10
sa(dp46
g31
I40
sg32
F0.005094766616821289
sg33
F0.003701925277709961
sg34
I5
sg35
I9
sa(dp47
g31
I45
sg32
F0.0033292770385742188
sg33
F0.008545160293579102
sg34
I7
sg35
I7
sasS'total_cqs'
p48
I33
ssI4
(dp49
S'iters'
p50
I0
sS'meta'
p51
(lp52
sS'total_cqs'
p53
I1
ssI5
(dp54
S'iters'
p55
I0
sS'meta'
p56
(lp57
sS'total_cqs'
p58
I1
ssI6
(dp59
S'iters'
p60
I3
sS'meta'
p61
(lp62
(dp63
S'objective'
p64
I1
sS'query_time'
p65
F14.893271923065186
sS'comp_time'
p66
F0.0039272308349609375
sS'exec_cq'
p67
I4
sS'total_cq'
p68
I5
sa(dp69
g64
I0
sg65
F0.0002751350402832031
sg66
F0.0004210472106933594
sg67
I2
sg68
I3
sa(dp70
g64
I2
sg65
F0.00024199485778808594
sg66
F0.0005011558532714844
sg67
I2
sg68
I2
sasS'total_cqs'
p71
I5
ssI7
(dp72
S'iters'
p73
I0
sS'meta'
p74
(lp75
sS'total_cqs'
p76
I1
ssI8
(dp77
S'iters'
p78
I4
sS'meta'
p79
(lp80
(dp81
S'objective'
p82
I19
sS'query_time'
p83
F43.44956994056702
sS'comp_time'
p84
F0.11486387252807617
sS'exec_cq'
p85
I6
sS'total_cq'
p86
I6
sa(dp87
g82
I10
sg83
F41.56525683403015
sg84
F0.002232074737548828
sg85
I5
sg86
I5
sa(dp88
g82
I7
sg83
F0.9964728355407715
sg84
F0.00013327598571777344
sg85
I4
sg86
I4
sa(dp89
g82
I5
sg83
F0.04237818717956543
sg84
F0.00014710426330566406
sg85
I3
sg86
I3
sasS'total_cqs'
p90
I6
ssI9
(dp91
S'iters'
p92
I3
sS'meta'
p93
(lp94
(dp95
S'objective'
p96
I3
sS'query_time'
p97
F12.664597034454346
sS'comp_time'
p98
F0.0624542236328125
sS'exec_cq'
p99
I3
sS'total_cq'
p100
I6
sa(dp101
g96
I1
sg97
F0.05937004089355469
sg98
F0.1898951530456543
sg99
I3
sg100
I3
sa(dp102
g96
I2
sg97
F0.011574983596801758
sg98
F0.019290924072265625
sg99
I2
sg100
I2
sasS'total_cqs'
p103
I6
ssI10
(dp104
S'iters'
p105
I0
sS'meta'
p106
(lp107
sS'total_cqs'
p108
I1
ssI11
(dp109
S'iters'
p110
I0
sS'meta'
p111
(lp112
sS'total_cqs'
p113
I1
ssI12
(dp114
S'iters'
p115
I0
sS'meta'
p116
(lp117
sS'total_cqs'
p118
I1
ssI13
(dp119
S'iters'
p120
I2
sS'meta'
p121
(lp122
(dp123
S'objective'
p124
I20
sS'query_time'
p125
F0.027586936950683594
sS'comp_time'
p126
F0.009845972061157227
sS'exec_cq'
p127
I6
sS'total_cq'
p128
I8
sa(dp129
g124
I22
sg125
F0.002695798873901367
sg126
F0.00011134147644042969
sg127
I6
sg128
I7
sasS'total_cqs'
p130
I8
ssI14
(dp131
S'iters'
p132
I2
sS'meta'
p133
(lp134
(dp135
S'objective'
p136
I7
sS'query_time'
p137
F1.0598289966583252
sS'comp_time'
p138
F0.0035903453826904297
sS'exec_cq'
p139
I5
sS'total_cq'
p140
I5
sa(dp141
g136
I5
sg137
F0.0006380081176757812
sg138
F0.001184225082397461
sg139
I4
sg140
I4
sasS'total_cqs'
p142
I5
ssI16
(dp143
S'iters'
p144
I2
sS'meta'
p145
(lp146
(dp147
S'objective'
p148
I1
sS'query_time'
p149
F1.2262771129608154
sS'comp_time'
p150
F0.006229877471923828
sS'exec_cq'
p151
I4
sS'total_cq'
p152
I5
sa(dp153
g148
I1
sg149
F0.0011539459228515625
sg150
F0.0018603801727294922
sg151
I2
sg152
I2
sasS'total_cqs'
p154
I5
ssI17
(dp155
S'iters'
p156
I0
sS'meta'
p157
(lp158
sS'total_cqs'
p159
I1
ssI18
(dp160
S'iters'
p161
I2
sS'meta'
p162
(lp163
(dp164
S'objective'
p165
I1
sS'query_time'
p166
F0.20681405067443848
sS'comp_time'
p167
F0.0040094852447509766
sS'exec_cq'
p168
I4
sS'total_cq'
p169
I5
sa(dp170
g165
I2
sg166
F0.053955078125
sg167
F0.00015091896057128906
sg168
I1
sg169
I2
sasS'total_cqs'
p171
I5
ssI19
(dp172
S'iters'
p173
I0
sS'meta'
p174
(lp175
sS'total_cqs'
p176
I1
ssI20
(dp177
S'iters'
p178
I6
sS'meta'
p179
(lp180
(dp181
S'objective'
p182
I50
sS'query_time'
p183
F14.372039079666138
sS'comp_time'
p184
F0.8188064098358154
sS'exec_cq'
p185
I10
sS'total_cq'
p186
I12
sa(dp187
g182
I42
sg183
F0.4310898780822754
sg184
F0.5576491355895996
sg185
I8
sg186
I10
sa(dp188
g182
I33
sg183
F0.23511195182800293
sg184
F0.5895297527313232
sg185
I6
sg186
I8
sa(dp189
g182
I25
sg183
F0.049069881439208984
sg184
F0.17072415351867676
sg185
I5
sg186
I7
sa(dp190
g182
I20
sg183
F0.094818115234375
sg184
F0.0615687370300293
sg185
I2
sg186
I5
sa(dp191
g182
I19
sg183
F0.0984799861907959
sg184
F0.0003724098205566406
sg185
I4
sg186
I4
sasS'total_cqs'
p192
I12
ssI21
(dp193
S'iters'
p194
I5
sS'meta'
p195
(lp196
(dp197
S'objective'
p198
I67
sS'query_time'
p199
F61.52454113960266
sS'comp_time'
p200
F1.050201654434204
sS'exec_cq'
p201
I12
sS'total_cq'
p202
I14
sa(dp203
g198
I62
sg199
F0.0941629409790039
sg200
F0.06282949447631836
sg201
I9
sg202
I11
sa(dp204
g198
I56
sg199
F0.010506153106689453
sg200
F0.026422739028930664
sg201
I8
sg202
I10
sa(dp205
g198
I49
sg199
F0.25781702995300293
sg200
F0.005410909652709961
sg201
I7
sg202
I8
sa(dp206
g198
I47
sg199
F0.017345905303955078
sg200
F0.0020477771759033203
sg201
I7
sg202
I7
sasS'total_cqs'
p207
I14
ssI22
(dp208
S'iters'
p209
I1
sS'meta'
p210
(lp211
(dp212
S'objective'
p213
I1
sS'query_time'
p214
F0.007810115814208984
sS'comp_time'
p215
F0.0009882450103759766
sS'exec_cq'
p216
I1
sS'total_cq'
p217
I2
sasS'total_cqs'
p218
I2
ssI23
(dp219
S'iters'
p220
I0
sS'meta'
p221
(lp222
sS'total_cqs'
p223
I1
ssI24
(dp224
S'iters'
p225
I0
sS'meta'
p226
(lp227
sS'total_cqs'
p228
I1
ssI25
(dp229
S'iters'
p230
I4
sS'meta'
p231
(lp232
(dp233
S'objective'
p234
I8
sS'query_time'
p235
F47.901931047439575
sS'comp_time'
p236
F2.0553956031799316
sS'exec_cq'
p237
I4
sS'total_cq'
p238
I7
sa(dp239
g234
I4
sg235
F5.340787887573242
sg236
F0.015322208404541016
sg237
I4
sg238
I5
sa(dp240
g234
I3
sg235
F2.288818359375e-05
sg236
F7.605552673339844e-05
sg237
I2
sg238
I3
sa(dp241
g234
I2
sg235
F0.011774063110351562
sg236
F2.09808349609375e-05
sg237
I1
sg238
I2
sasS'total_cqs'
p242
I7
ssI26
(dp243
S'iters'
p244
I7
sS'meta'
p245
(lp246
(dp247
S'objective'
p248
I57
sS'query_time'
p249
F27.04382562637329
sS'comp_time'
p250
F2.944019317626953
sS'exec_cq'
p251
I9
sS'total_cq'
p252
I13
sa(dp253
g248
I44
sg249
F0.9204182624816895
sg250
F2.641094207763672
sg251
I9
sg252
I11
sa(dp254
g248
I33
sg249
F0.7643051147460938
sg250
F2.6127941608428955
sg251
I7
sg252
I9
sa(dp255
g248
I20
sg249
F0.002393960952758789
sg250
F0.004148721694946289
sg251
I6
sg252
I8
sa(dp256
g248
I9
sg249
F0.0003380775451660156
sg250
F0.0006401538848876953
sg251
I2
sg252
I6
sa(dp257
g248
I1
sg249
F0.00016188621520996094
sg250
F0.0001239776611328125
sg251
I1
sg252
I5
sa(dp258
g248
I1
sg249
F0.0049381256103515625
sg250
F0.0012030601501464844
sg251
I3
sg252
I4
sasS'total_cqs'
p259
I13
ssI27
(dp260
S'iters'
p261
I1
sS'meta'
p262
(lp263
(dp264
S'objective'
p265
I1
sS'query_time'
p266
F0.21466302871704102
sS'comp_time'
p267
F0.0023088455200195312
sS'exec_cq'
p268
I1
sS'total_cq'
p269
I2
sasS'total_cqs'
p270
I2
ssI28
(dp271
S'iters'
p272
I8
sS'meta'
p273
(lp274
(dp275
S'objective'
p276
I59
sS'query_time'
p277
F1.4140350818634033
sS'comp_time'
p278
F0.09786152839660645
sS'exec_cq'
p279
I8
sS'total_cq'
p280
I14
sa(dp281
g276
I42
sg277
F0.006700992584228516
sg278
F0.008560419082641602
sg279
I6
sg280
I12
sa(dp282
g276
I36
sg277
F2.5033950805664062e-05
sg278
F0.0001347064971923828
sg279
I2
sg280
I9
sa(dp283
g276
I25
sg277
F0.0027151107788085938
sg278
F4.172325134277344e-05
sg279
I1
sg280
I8
sa(dp284
g276
I15
sg277
F1.1920928955078125e-05
sg278
F4.38690185546875e-05
sg279
I1
sg280
I7
sa(dp285
g276
I12
sg277
F0.01954507827758789
sg278
F0.00010800361633300781
sg279
I1
sg280
I6
sa(dp286
g276
I7
sg277
F0.022210121154785156
sg278
F0.0001418590545654297
sg279
I1
sg280
I5
sa(dp287
g276
I3
sg277
F0.002488851547241211
sg278
F3.695487976074219e-05
sg279
I1
sg280
I4
sasS'total_cqs'
p288
I14
ssI29
(dp289
S'iters'
p290
I1
sS'meta'
p291
(lp292
(dp293
S'objective'
p294
I1
sS'query_time'
p295
F0.008547067642211914
sS'comp_time'
p296
F0.0015230178833007812
sS'exec_cq'
p297
I2
sS'total_cq'
p298
I2
sasS'total_cqs'
p299
I2
ssI30
(dp300
S'iters'
p301
I1
sS'meta'
p302
(lp303
(dp304
S'objective'
p305
I1
sS'query_time'
p306
F0.34917497634887695
sS'comp_time'
p307
F0.0023441314697265625
sS'exec_cq'
p308
I2
sS'total_cq'
p309
I2
sasS'total_cqs'
p310
I2
ssI31
(dp311
S'iters'
p312
I3
sS'meta'
p313
(lp314
(dp315
S'objective'
p316
I13
sS'query_time'
p317
F6.019419193267822
sS'comp_time'
p318
F0.07938671112060547
sS'exec_cq'
p319
I9
sS'total_cq'
p320
I9
sa(dp321
g316
I2
sg317
F0.009540081024169922
sg318
F0.01381993293762207
sg319
I3
sg320
I3
sa(dp322
g316
I1
sg317
F0.003556966781616211
sg318
F0.006117105484008789
sg319
I2
sg320
I2
sasS'total_cqs'
p323
I9
ssI32
(dp324
S'iters'
p325
I4
sS'meta'
p326
(lp327
(dp328
S'objective'
p329
I4
sS'query_time'
p330
F21.284864902496338
sS'comp_time'
p331
F1.8680121898651123
sS'exec_cq'
p332
I4
sS'total_cq'
p333
I7
sa(dp334
g329
I2
sg330
F1.082712173461914
sg331
F0.002675294876098633
sg332
I2
sg333
I5
sa(dp335
g329
I1
sg330
F0.27861881256103516
sg331
F0.807321310043335
sg332
I2
sg333
I3
sa(dp336
g329
I1
sg330
F0.030092954635620117
sg331
F0.11832809448242188
sg332
I1
sg333
I2
sasS'total_cqs'
p337
I7
ssI33
(dp338
S'iters'
p339
I1
sS'meta'
p340
(lp341
(dp342
S'objective'
p343
I1
sS'query_time'
p344
F0.08674478530883789
sS'comp_time'
p345
F0.01782822608947754
sS'exec_cq'
p346
I2
sS'total_cq'
p347
I2
sasS'total_cqs'
p348
I2
ssI34
(dp349
S'iters'
p350
I0
sS'meta'
p351
(lp352
sS'total_cqs'
p353
I1
ssI35
(dp354
S'iters'
p355
I2
sS'meta'
p356
(lp357
(dp358
S'objective'
p359
I1
sS'query_time'
p360
F14.245409965515137
sS'comp_time'
p361
F0.11156487464904785
sS'exec_cq'
p362
I4
sS'total_cq'
p363
I5
sa(dp364
g359
I2
sg360
F0.0007688999176025391
sg361
F0.0003101825714111328
sg362
I1
sg363
I2
sasS'total_cqs'
p365
I5
ssI37
(dp366
S'iters'
p367
I2
sS'meta'
p368
(lp369
(dp370
S'objective'
p371
I29
sS'query_time'
p372
F2.0546700954437256
sS'comp_time'
p373
F0.1309046745300293
sS'exec_cq'
p374
I8
sS'total_cq'
p375
I10
sa(dp376
g371
I5
sg372
F0.004702091217041016
sg373
F0.0712289810180664
sg374
I2
sg375
I2
sasS'total_cqs'
p377
I10
ssI38
(dp378
S'iters'
p379
I0
sS'meta'
p380
(lp381
sS'total_cqs'
p382
I1
ssI39
(dp383
S'iters'
p384
I0
sS'meta'
p385
(lp386
sS'total_cqs'
p387
I1
ssI40
(dp388
S'iters'
p389
I1
sS'meta'
p390
(lp391
(dp392
S'objective'
p393
I1
sS'query_time'
p394
F0.004050016403198242
sS'comp_time'
p395
F0.0011048316955566406
sS'exec_cq'
p396
I1
sS'total_cq'
p397
I2
sasS'total_cqs'
p398
I2
ssI41
(dp399
S'iters'
p400
I4
sS'meta'
p401
(lp402
(dp403
S'objective'
p404
I1
sS'query_time'
p405
F10.71637487411499
sS'comp_time'
p406
F1.4092612266540527
sS'exec_cq'
p407
I3
sS'total_cq'
p408
I6
sa(dp409
g404
I1
sg405
F0.1835331916809082
sg406
F0.00045299530029296875
sg407
I1
sg408
I4
sa(dp410
g404
I2
sg405
F0.818640947341919
sg406
F0.0008358955383300781
sg407
I2
sg408
I3
sa(dp411
g404
I2
sg405
F0.0006492137908935547
sg406
F0.0009975433349609375
sg407
I2
sg408
I2
sasS'total_cqs'
p412
I6
ssI42
(dp413
S'iters'
p414
I1
sS'meta'
p415
(lp416
(dp417
S'objective'
p418
I1
sS'query_time'
p419
F0.009678840637207031
sS'comp_time'
p420
F0.00045990943908691406
sS'exec_cq'
p421
I1
sS'total_cq'
p422
I2
sasS'total_cqs'
p423
I2
ssI43
(dp424
S'iters'
p425
I0
sS'meta'
p426
(lp427
sS'total_cqs'
p428
I1
ssI44
(dp429
S'iters'
p430
I3
sS'meta'
p431
(lp432
(dp433
S'objective'
p434
I3
sS'query_time'
p435
F1.5068998336791992
sS'comp_time'
p436
F0.12716245651245117
sS'exec_cq'
p437
I4
sS'total_cq'
p438
I5
sa(dp439
g434
I1
sg435
F0.01902294158935547
sg436
F0.027536869049072266
sg437
I2
sg438
I3
sa(dp440
g434
I1
sg435
F0.01342010498046875
sg436
F0.011487960815429688
sg437
I1
sg438
I2
sasS'total_cqs'
p441
I5
ssI45
(dp442
S'iters'
p443
I2
sS'meta'
p444
(lp445
(dp446
S'objective'
p447
I7
sS'query_time'
p448
F0.03376007080078125
sS'comp_time'
p449
F0.0030100345611572266
sS'exec_cq'
p450
I4
sS'total_cq'
p451
I5
sa(dp452
g447
I2
sg448
F0.00016498565673828125
sg449
F0.0002117156982421875
sg450
I2
sg451
I2
sasS'total_cqs'
p453
I5
ssI46
(dp454
S'iters'
p455
I0
sS'meta'
p456
(lp457
sS'total_cqs'
p458
I1
ssI47
(dp459
S'iters'
p460
I0
sS'meta'
p461
(lp462
sS'total_cqs'
p463
I1
ssI48
(dp464
S'iters'
p465
I1
sS'meta'
p466
(lp467
(dp468
S'objective'
p469
I1
sS'query_time'
p470
F0.22705411911010742
sS'comp_time'
p471
F0.002023935317993164
sS'exec_cq'
p472
I2
sS'total_cq'
p473
I2
sasS'total_cqs'
p474
I2
ssI49
(dp475
S'iters'
p476
I2
sS'meta'
p477
(lp478
(dp479
S'objective'
p480
I1
sS'query_time'
p481
F0.1497180461883545
sS'comp_time'
p482
F0.0035953521728515625
sS'exec_cq'
p483
I4
sS'total_cq'
p484
I5
sa(dp485
g480
I1
sg481
F0.0004570484161376953
sg482
F0.0007441043853759766
sg483
I2
sg484
I2
sasS'total_cqs'
p486
I5
ssI50
(dp487
S'iters'
p488
I3
sS'meta'
p489
(lp490
(dp491
S'objective'
p492
I5
sS'query_time'
p493
F0.5599958896636963
sS'comp_time'
p494
F0.0018770694732666016
sS'exec_cq'
p495
I5
sS'total_cq'
p496
I5
sa(dp497
g492
I2
sg493
F0.00014090538024902344
sg494
F0.0003230571746826172
sg495
I4
sg496
I4
sa(dp498
g492
I0
sg493
F0.00012493133544921875
sg494
F0.00034999847412109375
sg495
I3
sg496
I3
sasS'total_cqs'
p499
I5
ssI51
(dp500
S'iters'
p501
I0
sS'meta'
p502
(lp503
sS'total_cqs'
p504
I1
ssI52
(dp505
S'iters'
p506
I0
sS'meta'
p507
(lp508
sS'total_cqs'
p509
I1
ssI53
(dp510
S'iters'
p511
I0
sS'meta'
p512
(lp513
sS'total_cqs'
p514
I1
ssI55
(dp515
S'iters'
p516
I1
sS'meta'
p517
(lp518
(dp519
S'objective'
p520
I1
sS'query_time'
p521
F24.049226999282837
sS'comp_time'
p522
F0.016642093658447266
sS'exec_cq'
p523
I2
sS'total_cq'
p524
I2
sasS'total_cqs'
p525
I2
ssI56
(dp526
S'iters'
p527
I0
sS'meta'
p528
(lp529
sS'total_cqs'
p530
I1
ssI57
(dp531
S'iters'
p532
I2
sS'meta'
p533
(lp534
(dp535
S'objective'
p536
I0
sS'query_time'
p537
F12.348209142684937
sS'comp_time'
p538
F0.8042371273040771
sS'exec_cq'
p539
I2
sS'total_cq'
p540
I3
sa(dp541
g536
I1
sg537
F0.24590802192687988
sg538
F0.36922121047973633
sg539
I1
sg540
I2
sasS'total_cqs'
p542
I3
ssI108
(dp543
S'iters'
p544
I0
sS'meta'
p545
(lp546
sS'total_cqs'
p547
I1
ssI109
(dp548
S'iters'
p549
I0
sS'meta'
p550
(lp551
sS'total_cqs'
p552
I1
ssI116
(dp553
S'iters'
p554
I2
sS'meta'
p555
(lp556
(dp557
S'objective'
p558
I189
sS'query_time'
p559
F0.6520979404449463
sS'comp_time'
p560
F0.014877080917358398
sS'exec_cq'
p561
I14
sS'total_cq'
p562
I21
sa(dp563
g558
I7
sg559
F0.0013070106506347656
sg560
F0.0014529228210449219
sg561
I2
sg562
I2
sasS'total_cqs'
p564
I21
ssI117
(dp565
S'iters'
p566
I2
sS'meta'
p567
(lp568
(dp569
S'objective'
p570
I5
sS'query_time'
p571
F0.008502960205078125
sS'comp_time'
p572
F0.0031371116638183594
sS'exec_cq'
p573
I3
sS'total_cq'
p574
I5
sa(dp575
g570
I4
sg571
F0.002118825912475586
sg572
F3.719329833984375e-05
sg573
I3
sg574
I4
sasS'total_cqs'
p576
I5
ssI118
(dp577
S'iters'
p578
I0
sS'meta'
p579
(lp580
sS'total_cqs'
p581
I1
ssI122
(dp582
S'iters'
p583
I0
sS'meta'
p584
(lp585
sS'total_cqs'
p586
I1
ss.