(dp0
I1
(dp1
S'iters'
p2
I4
sS'meta'
p3
(lp4
(dp5
S'objective'
p6
I9
sS'query_time'
p7
F17.419979095458984
sS'comp_time'
p8
F0.0004680156707763672
sS'exec_cq'
p9
I1
sS'total_cq'
p10
I6
sa(dp11
g6
I3
sg7
F20.425745010375977
sg8
F0.00010609626770019531
sg9
I1
sg10
I5
sa(dp12
g6
I1
sg7
F26.2413330078125
sg8
F0.00023794174194335938
sg9
I1
sg10
I3
sa(dp13
g6
I1
sg7
F0.5130760669708252
sg8
F0.00011301040649414062
sg9
I1
sg10
I2
sasS'total_cqs'
p14
I6
ssI2
(dp15
S'iters'
p16
I1
sS'meta'
p17
(lp18
(dp19
S'objective'
p20
I15
sS'query_time'
p21
F1.0451509952545166
sS'comp_time'
p22
F6.914138793945312e-05
sS'exec_cq'
p23
I4
sS'total_cq'
p24
I6
sasS'total_cqs'
p25
I6
ssI3
(dp26
S'iters'
p27
I15
sS'meta'
p28
(lp29
(dp30
S'objective'
p31
I425
sS'query_time'
p32
F0.0928640365600586
sS'comp_time'
p33
F8.58306884765625e-05
sS'exec_cq'
p34
I1
sS'total_cq'
p35
I33
sa(dp36
g31
I413
sg32
F0.030636072158813477
sg33
F9.393692016601562e-05
sg34
I1
sg35
I30
sa(dp37
g31
I295
sg32
F1.1987788677215576
sg33
F8.392333984375e-05
sg34
I1
sg35
I28
sa(dp38
g31
I316
sg32
F0.5531811714172363
sg33
F7.700920104980469e-05
sg34
I1
sg35
I25
sa(dp39
g31
I289
sg32
F54.40078520774841
sg33
F0.00013399124145507812
sg34
I1
sg35
I24
sa(dp40
g31
I263
sg32
F0.004598140716552734
sg33
F5.888938903808594e-05
sg34
I1
sg35
I23
sa(dp41
g31
I238
sg32
F0.038522958755493164
sg33
F5.602836608886719e-05
sg34
I1
sg35
I22
sa(dp42
g31
I214
sg32
F0.0066988468170166016
sg33
F4.8160552978515625e-05
sg34
I1
sg35
I21
sa(dp43
g31
I131
sg32
F0.014940023422241211
sg33
F6.508827209472656e-05
sg34
I2
sg35
I20
sa(dp44
g31
I137
sg32
F0.017403125762939453
sg33
F5.221366882324219e-05
sg34
I2
sg35
I17
sa(dp45
g31
I121
sg32
F0.003371000289916992
sg33
F3.814697265625e-05
sg34
I3
sg35
I15
sa(dp46
g31
I93
sg32
F0.007239103317260742
sg33
F3.695487976074219e-05
sg34
I3
sg35
I14
sa(dp47
g31
I91
sg32
F0.03420114517211914
sg33
F3.910064697265625e-05
sg34
I3
sg35
I11
sa(dp48
g31
I58
sg32
F0.13304901123046875
sg33
F0.0001068115234375
sg34
I3
sg35
I10
sa(dp49
g31
I61
sg32
F0.16858196258544922
sg33
F8.296966552734375e-05
sg34
I3
sg35
I8
sasS'total_cqs'
p50
I33
ssI4
(dp51
S'iters'
p52
I0
sS'meta'
p53
(lp54
sS'total_cqs'
p55
I1
ssI5
(dp56
S'iters'
p57
I0
sS'meta'
p58
(lp59
sS'total_cqs'
p60
I1
ssI6
(dp61
S'iters'
p62
I3
sS'meta'
p63
(lp64
(dp65
S'objective'
p66
I5
sS'query_time'
p67
F9.805996179580688
sS'comp_time'
p68
F7.510185241699219e-05
sS'exec_cq'
p69
I1
sS'total_cq'
p70
I5
sa(dp71
g66
I0
sg67
F0.0018339157104492188
sg68
F2.9087066650390625e-05
sg69
I1
sg70
I3
sa(dp72
g66
I1
sg67
F78.86684393882751
sg68
F5.888938903808594e-05
sg69
I1
sg70
I2
sasS'total_cqs'
p73
I5
ssI7
(dp74
S'iters'
p75
I0
sS'meta'
p76
(lp77
sS'total_cqs'
p78
I1
ssI8
(dp79
S'iters'
p80
I3
sS'meta'
p81
(lp82
(dp83
S'objective'
p84
I9
sS'query_time'
p85
F3.541900873184204
sS'comp_time'
p86
F0.0005340576171875
sS'exec_cq'
p87
I1
sS'total_cq'
p88
I6
sa(dp89
g84
I3
sg85
F20.350153923034668
sg86
F0.00011301040649414062
sg87
I1
sg88
I5
sa(dp90
g84
I0
sg85
F20.399829864501953
sg86
F0.0001010894775390625
sg87
I1
sg88
I3
sasS'total_cqs'
p91
I6
ssI9
(dp92
S'iters'
p93
I3
sS'meta'
p94
(lp95
(dp96
S'objective'
p97
I9
sS'query_time'
p98
F23.401697874069214
sS'comp_time'
p99
F0.024060964584350586
sS'exec_cq'
p100
I1
sS'total_cq'
p101
I6
sa(dp102
g97
I1
sg98
F10.399568796157837
sg99
F8.392333984375e-05
sg100
I1
sg101
I5
sa(dp103
g97
I2
sg98
F0.08037614822387695
sg99
F0.0006349086761474609
sg100
I1
sg101
I2
sasS'total_cqs'
p104
I6
ssI10
(dp105
S'iters'
p106
I0
sS'meta'
p107
(lp108
sS'total_cqs'
p109
I1
ssI11
(dp110
S'iters'
p111
I0
sS'meta'
p112
(lp113
sS'total_cqs'
p114
I1
ssI12
(dp115
S'iters'
p116
I0
sS'meta'
p117
(lp118
sS'total_cqs'
p119
I1
ssI13
(dp120
S'iters'
p121
I2
sS'meta'
p122
(lp123
(dp124
S'objective'
p125
I26
sS'query_time'
p126
F9.179273128509521
sS'comp_time'
p127
F6.890296936035156e-05
sS'exec_cq'
p128
I4
sS'total_cq'
p129
I8
sa(dp130
g125
I25
sg126
F0.05792093276977539
sg127
F4.291534423828125e-05
sg128
I5
sg129
I7
sasS'total_cqs'
p131
I8
ssI14
(dp132
S'iters'
p133
I2
sS'meta'
p134
(lp135
(dp136
S'objective'
p137
I5
sS'query_time'
p138
F0.03204703330993652
sS'comp_time'
p139
F6.604194641113281e-05
sS'exec_cq'
p140
I1
sS'total_cq'
p141
I5
sa(dp142
g137
I4
sg138
F0.9919230937957764
sg139
F6.914138793945312e-05
sg140
I2
sg141
I4
sasS'total_cqs'
p143
I5
ssI16
(dp144
S'iters'
p145
I3
sS'meta'
p146
(lp147
(dp148
S'objective'
p149
I7
sS'query_time'
p150
F9.358587980270386
sS'comp_time'
p151
F7.295608520507812e-05
sS'exec_cq'
p152
I2
sS'total_cq'
p153
I5
sa(dp154
g149
I1
sg150
F2.8806421756744385
sg151
F7.486343383789062e-05
sg152
I2
sg153
I4
sa(dp155
g149
I1
sg150
F92.30589604377747
sg151
F5.888938903808594e-05
sg152
I2
sg153
I2
sasS'total_cqs'
p156
I5
ssI17
(dp157
S'iters'
p158
I0
sS'meta'
p159
(lp160
sS'total_cqs'
p161
I1
ssI18
(dp162
S'iters'
p163
I3
sS'meta'
p164
(lp165
(dp166
S'objective'
p167
I5
sS'query_time'
p168
F0.09509897232055664
sS'comp_time'
p169
F6.413459777832031e-05
sS'exec_cq'
p170
I1
sS'total_cq'
p171
I5
sa(dp172
g167
I2
sg168
F0.10680794715881348
sg169
F7.700920104980469e-05
sg170
I1
sg171
I4
sa(dp173
g167
I0
sg168
F0.03012681007385254
sg169
F7.796287536621094e-05
sg170
I1
sg171
I3
sasS'total_cqs'
p174
I5
ssI19
(dp175
S'iters'
p176
I0
sS'meta'
p177
(lp178
sS'total_cqs'
p179
I1
ssI20
(dp180
S'iters'
p181
I5
sS'meta'
p182
(lp183
(dp184
S'objective'
p185
I54
sS'query_time'
p186
F1.0946519374847412
sS'comp_time'
p187
F9.298324584960938e-05
sS'exec_cq'
p188
I1
sS'total_cq'
p189
I12
sa(dp190
g185
I34
sg186
F6.968315124511719
sg187
F5.316734313964844e-05
sg188
I1
sg189
I11
sa(dp191
g185
I28
sg186
F0.009849071502685547
sg187
F4.315376281738281e-05
sg188
I2
sg189
I9
sa(dp192
g185
I25
sg186
F0.005067110061645508
sg187
F4.1961669921875e-05
sg188
I3
sg189
I7
sa(dp193
g185
I24
sg186
F0.12616419792175293
sg187
F8.702278137207031e-05
sg188
I4
sg189
I6
sasS'total_cqs'
p194
I12
ssI21
(dp195
S'iters'
p196
I8
sS'meta'
p197
(lp198
(dp199
S'objective'
p200
I65
sS'query_time'
p201
F0.13863515853881836
sS'comp_time'
p202
F8.606910705566406e-05
sS'exec_cq'
p203
I1
sS'total_cq'
p204
I14
sa(dp205
g200
I59
sg201
F20.018222093582153
sg202
F8.797645568847656e-05
sg203
I1
sg204
I12
sa(dp206
g200
I48
sg201
F0.48160290718078613
sg202
F8.702278137207031e-05
sg203
I1
sg204
I11
sa(dp207
g200
I38
sg201
F25.26403307914734
sg202
F0.00023412704467773438
sg203
I1
sg204
I10
sa(dp208
g200
I29
sg201
F0.10329198837280273
sg202
F6.914138793945312e-05
sg203
I1
sg204
I9
sa(dp209
g200
I3
sg201
F1.082839012145996
sg202
F4.100799560546875e-05
sg203
I1
sg204
I8
sa(dp210
g200
I9
sg201
F0.5236191749572754
sg202
F0.00017499923706054688
sg203
I1
sg204
I4
sa(dp211
g200
I4
sg201
F0.013978004455566406
sg202
F7.104873657226562e-05
sg203
I1
sg204
I2
sasS'total_cqs'
p212
I14
ssI22
(dp213
S'iters'
p214
I1
sS'meta'
p215
(lp216
(dp217
S'objective'
p218
I1
sS'query_time'
p219
F0.004459857940673828
sS'comp_time'
p220
F4.696846008300781e-05
sS'exec_cq'
p221
I1
sS'total_cq'
p222
I2
sasS'total_cqs'
p223
I2
ssI23
(dp224
S'iters'
p225
I0
sS'meta'
p226
(lp227
sS'total_cqs'
p228
I1
ssI24
(dp229
S'iters'
p230
I0
sS'meta'
p231
(lp232
sS'total_cqs'
p233
I1
ssI25
(dp234
S'iters'
p235
I4
sS'meta'
p236
(lp237
(dp238
S'objective'
p239
I14
sS'query_time'
p240
F10.790174007415771
sS'comp_time'
p241
F0.00039005279541015625
sS'exec_cq'
p242
I1
sS'total_cq'
p243
I7
sa(dp244
g239
I9
sg240
F24.228574991226196
sg241
F0.00022101402282714844
sg242
I1
sg243
I6
sa(dp245
g239
I1
sg240
F9.12262487411499
sg241
F0.0001938343048095703
sg242
I1
sg243
I5
sa(dp246
g239
I2
sg240
F2.0162758827209473
sg241
F6.103515625e-05
sg242
I1
sg243
I3
sasS'total_cqs'
p247
I7
ssI26
(dp248
S'iters'
p249
I9
sS'meta'
p250
(lp251
(dp252
S'objective'
p253
I65
sS'query_time'
p254
F0.09562087059020996
sS'comp_time'
p255
F8.797645568847656e-05
sS'exec_cq'
p256
I1
sS'total_cq'
p257
I13
sa(dp258
g253
I54
sg254
F0.040400028228759766
sg255
F7.796287536621094e-05
sg256
I1
sg257
I12
sa(dp259
g253
I44
sg254
F20.940598011016846
sg255
F0.0001819133758544922
sg256
I1
sg257
I11
sa(dp260
g253
I35
sg254
F4.304301977157593
sg255
F7.605552673339844e-05
sg256
I1
sg257
I10
sa(dp261
g253
I27
sg254
F0.033200979232788086
sg255
F4.291534423828125e-05
sg256
I1
sg257
I9
sa(dp262
g253
I20
sg254
F0.03052496910095215
sg255
F4.601478576660156e-05
sg256
I1
sg257
I8
sa(dp263
g253
I14
sg254
F0.06098794937133789
sg255
F7.200241088867188e-05
sg256
I1
sg257
I7
sa(dp264
g253
I9
sg254
F0.029502153396606445
sg255
F4.792213439941406e-05
sg256
I1
sg257
I6
sa(dp265
g253
I5
sg254
F0.0034940242767333984
sg255
F2.8848648071289062e-05
sg256
I1
sg257
I5
sasS'total_cqs'
p266
I13
ssI27
(dp267
S'iters'
p268
I1
sS'meta'
p269
(lp270
(dp271
S'objective'
p272
I1
sS'query_time'
p273
F0.33446502685546875
sS'comp_time'
p274
F5.602836608886719e-05
sS'exec_cq'
p275
I1
sS'total_cq'
p276
I2
sasS'total_cqs'
p277
I2
ssI28
(dp278
S'iters'
p279
I9
sS'meta'
p280
(lp281
(dp282
S'objective'
p283
I77
sS'query_time'
p284
F1.4816689491271973
sS'comp_time'
p285
F4.482269287109375e-05
sS'exec_cq'
p286
I1
sS'total_cq'
p287
I14
sa(dp288
g283
I59
sg284
F1.3662290573120117
sg285
F5.507469177246094e-05
sg286
I1
sg287
I13
sa(dp289
g283
I43
sg284
F2.467355966567993
sg285
F7.200241088867188e-05
sg286
I1
sg287
I11
sa(dp290
g283
I37
sg284
F0.5840129852294922
sg285
F6.699562072753906e-05
sg286
I1
sg287
I9
sa(dp291
g283
I28
sg284
F0.4636709690093994
sg285
F3.695487976074219e-05
sg286
I1
sg287
I8
sa(dp292
g283
I4
sg284
F0.3371758460998535
sg285
F4.00543212890625e-05
sg286
I1
sg287
I7
sa(dp293
g283
I5
sg284
F0.22538185119628906
sg285
F6.29425048828125e-05
sg286
I1
sg287
I4
sa(dp294
g283
I1
sg284
F0.23241591453552246
sg285
F4.1961669921875e-05
sg286
I1
sg287
I3
sa(dp295
g283
I4
sg284
F0.0967099666595459
sg285
F3.790855407714844e-05
sg286
I1
sg287
I2
sasS'total_cqs'
p296
I14
ssI29
(dp297
S'iters'
p298
I1
sS'meta'
p299
(lp300
(dp301
S'objective'
p302
I1
sS'query_time'
p303
F0.005614042282104492
sS'comp_time'
p304
F5.2928924560546875e-05
sS'exec_cq'
p305
I1
sS'total_cq'
p306
I2
sasS'total_cqs'
p307
I2
ssI30
(dp308
S'iters'
p309
I1
sS'meta'
p310
(lp311
(dp312
S'objective'
p313
I1
sS'query_time'
p314
F0.367387056350708
sS'comp_time'
p315
F6.508827209472656e-05
sS'exec_cq'
p316
I1
sS'total_cq'
p317
I2
sasS'total_cqs'
p318
I2
ssI31
(dp319
S'iters'
p320
I4
sS'meta'
p321
(lp322
(dp323
S'objective'
p324
I11
sS'query_time'
p325
F0.8892018795013428
sS'comp_time'
p326
F7.200241088867188e-05
sS'exec_cq'
p327
I1
sS'total_cq'
p328
I9
sa(dp329
g324
I14
sg325
F0.006999969482421875
sg326
F4.696846008300781e-05
sg327
I1
sg328
I7
sa(dp330
g324
I1
sg325
F2.0082809925079346
sg326
F9.584426879882812e-05
sg327
I1
sg328
I6
sa(dp331
g324
I2
sg325
F5.570528030395508
sg326
F2.9087066650390625e-05
sg327
I1
sg328
I2
sasS'total_cqs'
p332
I9
ssI32
(dp333
S'iters'
p334
I5
sS'meta'
p335
(lp336
(dp337
S'objective'
p338
I14
sS'query_time'
p339
F7.479259967803955
sS'comp_time'
p340
F0.0004508495330810547
sS'exec_cq'
p341
I1
sS'total_cq'
p342
I7
sa(dp343
g338
I5
sg339
F1.404444932937622
sg340
F5.888938903808594e-05
sg341
I1
sg342
I6
sa(dp344
g338
I3
sg339
F1.7390251159667969
sg340
F6.794929504394531e-05
sg341
I1
sg342
I4
sa(dp345
g338
I0
sg339
F7.38956093788147
sg340
F0.00011181831359863281
sg341
I1
sg342
I3
sa(dp346
g338
I2
sg339
F0.08593583106994629
sg340
F4.792213439941406e-05
sg341
I1
sg342
I2
sasS'total_cqs'
p347
I7
ssI33
(dp348
S'iters'
p349
I1
sS'meta'
p350
(lp351
(dp352
S'objective'
p353
I1
sS'query_time'
p354
F0.03753805160522461
sS'comp_time'
p355
F6.794929504394531e-05
sS'exec_cq'
p356
I1
sS'total_cq'
p357
I2
sasS'total_cqs'
p358
I2
ssI34
(dp359
S'iters'
p360
I0
sS'meta'
p361
(lp362
sS'total_cqs'
p363
I1
ssI35
(dp364
S'iters'
p365
I3
sS'meta'
p366
(lp367
(dp368
S'objective'
p369
I5
sS'query_time'
p370
F8.558650016784668
sS'comp_time'
p371
F9.298324584960938e-05
sS'exec_cq'
p372
I1
sS'total_cq'
p373
I5
sa(dp374
g369
I2
sg370
F3.656252145767212
sg371
F0.00037789344787597656
sg372
I1
sg373
I4
sa(dp375
g369
I2
sg370
F0.06262707710266113
sg371
F8.702278137207031e-05
sg372
I1
sg373
I2
sasS'total_cqs'
p376
I5
ssI37
(dp377
S'iters'
p378
I7
sS'meta'
p379
(lp380
(dp381
S'objective'
p382
I35
sS'query_time'
p383
F0.35888195037841797
sS'comp_time'
p384
F9.083747863769531e-05
sS'exec_cq'
p385
I1
sS'total_cq'
p386
I10
sa(dp387
g382
I27
sg383
F0.007239103317260742
sg384
F6.699562072753906e-05
sg385
I1
sg386
I9
sa(dp388
g382
I20
sg383
F0.006537914276123047
sg384
F8.702278137207031e-05
sg385
I1
sg386
I8
sa(dp389
g382
I14
sg383
F0.004739046096801758
sg384
F4.291534423828125e-05
sg385
I1
sg386
I7
sa(dp390
g382
I9
sg383
F0.00465083122253418
sg384
F4.291534423828125e-05
sg385
I1
sg386
I6
sa(dp391
g382
I5
sg383
F0.6949119567871094
sg384
F7.295608520507812e-05
sg385
I1
sg386
I5
sa(dp392
g382
I2
sg383
F0.2802109718322754
sg384
F7.796287536621094e-05
sg385
I1
sg386
I4
sasS'total_cqs'
p393
I10
ssI38
(dp394
S'iters'
p395
I0
sS'meta'
p396
(lp397
sS'total_cqs'
p398
I1
ssI39
(dp399
S'iters'
p400
I0
sS'meta'
p401
(lp402
sS'total_cqs'
p403
I1
ssI40
(dp404
S'iters'
p405
I1
sS'meta'
p406
(lp407
(dp408
S'objective'
p409
I1
sS'query_time'
p410
F18.030267000198364
sS'comp_time'
p411
F0.0003039836883544922
sS'exec_cq'
p412
I2
sS'total_cq'
p413
I2
sasS'total_cqs'
p414
I2
ssI41
(dp415
S'iters'
p416
I4
sS'meta'
p417
(lp418
(dp419
S'objective'
p420
I9
sS'query_time'
p421
F2.1897261142730713
sS'comp_time'
p422
F0.0014100074768066406
sS'exec_cq'
p423
I1
sS'total_cq'
p424
I6
sa(dp425
g420
I5
sg421
F0.2422339916229248
sg422
F7.009506225585938e-05
sg423
I1
sg424
I5
sa(dp426
g420
I2
sg421
F1.599381923675537
sg422
F9.202957153320312e-05
sg423
I1
sg424
I4
sa(dp427
g420
I0
sg421
F0.08864116668701172
sg422
F9.107589721679688e-05
sg423
I1
sg424
I3
sasS'total_cqs'
p428
I6
ssI42
(dp429
S'iters'
p430
I1
sS'meta'
p431
(lp432
(dp433
S'objective'
p434
I1
sS'query_time'
p435
F0.011961221694946289
sS'comp_time'
p436
F5.602836608886719e-05
sS'exec_cq'
p437
I1
sS'total_cq'
p438
I2
sasS'total_cqs'
p439
I2
ssI43
(dp440
S'iters'
p441
I0
sS'meta'
p442
(lp443
sS'total_cqs'
p444
I1
ssI44
(dp445
S'iters'
p446
I3
sS'meta'
p447
(lp448
(dp449
S'objective'
p450
I5
sS'query_time'
p451
F1.2095370292663574
sS'comp_time'
p452
F8.797645568847656e-05
sS'exec_cq'
p453
I1
sS'total_cq'
p454
I5
sa(dp455
g450
I2
sg451
F0.02495408058166504
sg452
F4.696846008300781e-05
sg453
I1
sg454
I4
sa(dp456
g450
I0
sg451
F0.004436969757080078
sg452
F4.291534423828125e-05
sg453
I1
sg454
I3
sasS'total_cqs'
p457
I5
ssI45
(dp458
S'iters'
p459
I2
sS'meta'
p460
(lp461
(dp462
S'objective'
p463
I5
sS'query_time'
p464
F5.578226089477539
sS'comp_time'
p465
F6.604194641113281e-05
sS'exec_cq'
p466
I1
sS'total_cq'
p467
I5
sa(dp468
g463
I4
sg464
F0.006929874420166016
sg465
F5.1021575927734375e-05
sg466
I2
sg467
I4
sasS'total_cqs'
p469
I5
ssI46
(dp470
S'iters'
p471
I0
sS'meta'
p472
(lp473
sS'total_cqs'
p474
I1
ssI47
(dp475
S'iters'
p476
I0
sS'meta'
p477
(lp478
sS'total_cqs'
p479
I1
ssI48
(dp480
S'iters'
p481
I1
sS'meta'
p482
(lp483
(dp484
S'objective'
p485
I1
sS'query_time'
p486
F0.19528603553771973
sS'comp_time'
p487
F8.797645568847656e-05
sS'exec_cq'
p488
I1
sS'total_cq'
p489
I2
sasS'total_cqs'
p490
I2
ssI49
(dp491
S'iters'
p492
I2
sS'meta'
p493
(lp494
(dp495
S'objective'
p496
I7
sS'query_time'
p497
F4.957154989242554
sS'comp_time'
p498
F8.296966552734375e-05
sS'exec_cq'
p499
I2
sS'total_cq'
p500
I5
sa(dp501
g496
I5
sg497
F0.01067805290222168
sg498
F5.602836608886719e-05
sg499
I2
sg500
I4
sasS'total_cqs'
p502
I5
ssI50
(dp503
S'iters'
p504
I3
sS'meta'
p505
(lp506
(dp507
S'objective'
p508
I5
sS'query_time'
p509
F0.009111166000366211
sS'comp_time'
p510
F0.00011110305786132812
sS'exec_cq'
p511
I1
sS'total_cq'
p512
I5
sa(dp513
g508
I2
sg509
F0.020557880401611328
sg510
F4.696846008300781e-05
sg511
I1
sg512
I4
sa(dp514
g508
I0
sg509
F0.8665869235992432
sg510
F6.914138793945312e-05
sg511
I1
sg512
I3
sasS'total_cqs'
p515
I5
ssI51
(dp516
S'iters'
p517
I0
sS'meta'
p518
(lp519
sS'total_cqs'
p520
I1
ssI52
(dp521
S'iters'
p522
I0
sS'meta'
p523
(lp524
sS'total_cqs'
p525
I1
ssI53
(dp526
S'iters'
p527
I0
sS'meta'
p528
(lp529
sS'total_cqs'
p530
I1
ssI55
(dp531
S'iters'
p532
I1
sS'meta'
p533
(lp534
(dp535
S'objective'
p536
I1
sS'query_time'
p537
F44.74057102203369
sS'comp_time'
p538
F5.91278076171875e-05
sS'exec_cq'
p539
I1
sS'total_cq'
p540
I2
sasS'total_cqs'
p541
I2
ssI56
(dp542
S'iters'
p543
I0
sS'meta'
p544
(lp545
sS'total_cqs'
p546
I1
ssI57
(dp547
S'iters'
p548
I1
sS'meta'
p549
(lp550
(dp551
S'objective'
p552
I2
sS'query_time'
p553
F12.21845293045044
sS'comp_time'
p554
F0.00017213821411132812
sS'exec_cq'
p555
I2
sS'total_cq'
p556
I3
sasS'total_cqs'
p557
I3
ssI108
(dp558
S'iters'
p559
I0
sS'meta'
p560
(lp561
sS'total_cqs'
p562
I1
ssI109
(dp563
S'iters'
p564
I0
sS'meta'
p565
(lp566
sS'total_cqs'
p567
I1
ssI116
(dp568
S'iters'
p569
I4
sS'meta'
p570
(lp571
(dp572
S'objective'
p573
I193
sS'query_time'
p574
F0.15142393112182617
sS'comp_time'
p575
F7.891654968261719e-05
sS'exec_cq'
p576
I3
sS'total_cq'
p577
I21
sa(dp578
g573
I180
sg574
F0.1887979507446289
sg575
F7.915496826171875e-05
sg576
I5
sg577
I20
sa(dp579
g573
I158
sg574
F1.4772751331329346
sg575
F9.608268737792969e-05
sg576
I8
sg577
I19
sa(dp580
g573
I5
sg574
F0.181473970413208
sg575
F3.910064697265625e-05
sg576
I1
sg577
I2
sasS'total_cqs'
p581
I21
ssI117
(dp582
S'iters'
p583
I2
sS'meta'
p584
(lp585
(dp586
S'objective'
p587
I7
sS'query_time'
p588
F0.006237030029296875
sS'comp_time'
p589
F4.601478576660156e-05
sS'exec_cq'
p590
I2
sS'total_cq'
p591
I5
sa(dp592
g587
I5
sg588
F0.0025970935821533203
sg589
F4.291534423828125e-05
sg590
I2
sg591
I4
sasS'total_cqs'
p593
I5
ssI118
(dp594
S'iters'
p595
I0
sS'meta'
p596
(lp597
sS'total_cqs'
p598
I1
ssI122
(dp599
S'iters'
p600
I0
sS'meta'
p601
(lp602
sS'total_cqs'
p603
I1
ss.