(dp0
I1
(dp1
S'iters'
p2
I3
sS'meta'
p3
(lp4
(dp5
S'objective'
p6
I5
sS'query_time'
p7
F17.396241903305054
sS'comp_time'
p8
F0.00016188621520996094
sS'exec_cq'
p9
I1
sS'total_cq'
p10
I6
sa(dp11
g6
I3
sg7
F3.2653229236602783
sg8
F7.796287536621094e-05
sg9
I1
sg10
I4
sa(dp12
g6
I3
sg7
F24.556386947631836
sg8
F0.0002739429473876953
sg9
I2
sg10
I2
sasS'total_cqs'
p13
I6
ssI2
(dp14
S'iters'
p15
I1
sS'meta'
p16
(lp17
(dp18
S'objective'
p19
I19
sS'query_time'
p20
F0.9166669845581055
sS'comp_time'
p21
F9.179115295410156e-05
sS'exec_cq'
p22
I6
sS'total_cq'
p23
I6
sasS'total_cqs'
p24
I6
ssI3
(dp25
S'iters'
p26
I19
sS'meta'
p27
(lp28
(dp29
S'objective'
p30
I395
sS'query_time'
p31
F1.314399003982544
sS'comp_time'
p32
F0.00011730194091796875
sS'exec_cq'
p33
I1
sS'total_cq'
p34
I33
sa(dp35
g30
I414
sg31
F0.03856801986694336
sg32
F0.00011992454528808594
sg33
I1
sg34
I30
sa(dp36
g30
I336
sg31
F0.018555879592895508
sg32
F0.00010275840759277344
sg33
I1
sg34
I29
sa(dp37
g30
I225
sg31
F0.025335073471069336
sg32
F9.322166442871094e-05
sg33
I1
sg34
I26
sa(dp38
g30
I252
sg31
F0.4812908172607422
sg32
F8.702278137207031e-05
sg33
I1
sg34
I23
sa(dp39
g30
I230
sg31
F0.009711980819702148
sg32
F5.4836273193359375e-05
sg33
I1
sg34
I22
sa(dp40
g30
I173
sg31
F0.010216951370239258
sg32
F5.412101745605469e-05
sg33
I2
sg34
I21
sa(dp41
g30
I170
sg31
F9.064708948135376
sg32
F0.00011110305786132812
sg33
I2
sg34
I19
sa(dp42
g30
I126
sg31
F0.03455710411071777
sg32
F9.584426879882812e-05
sg33
I2
sg34
I18
sa(dp43
g30
I121
sg31
F0.09561395645141602
sg32
F9.679794311523438e-05
sg33
I2
sg34
I15
sa(dp44
g30
I108
sg31
F0.004489898681640625
sg32
F6.198883056640625e-05
sg33
I2
sg34
I13
sa(dp45
g30
I80
sg31
F0.015745162963867188
sg32
F7.605552673339844e-05
sg33
I3
sg34
I12
sa(dp46
g30
I58
sg31
F0.0029480457305908203
sg32
F5.698204040527344e-05
sg33
I3
sg34
I10
sa(dp47
g30
I56
sg31
F0.0027420520782470703
sg32
F5.4836273193359375e-05
sg33
I3
sg34
I8
sa(dp48
g30
I46
sg31
F0.0017600059509277344
sg32
F5.817413330078125e-05
sg33
I3
sg34
I7
sa(dp49
g30
I37
sg31
F0.04070901870727539
sg32
F6.175041198730469e-05
sg33
I3
sg34
I6
sa(dp50
g30
I39
sg31
F0.1936960220336914
sg32
F8.702278137207031e-05
sg33
I3
sg34
I5
sa(dp51
g30
I37
sg31
F0.0047991275787353516
sg32
F4.9114227294921875e-05
sg33
I3
sg34
I4
sa(dp52
g30
I38
sg31
F0.18988895416259766
sg32
F0.0007178783416748047
sg33
I3
sg34
I3
sasS'total_cqs'
p53
I33
ssI4
(dp54
S'iters'
p55
I0
sS'meta'
p56
(lp57
sS'total_cqs'
p58
I1
ssI5
(dp59
S'iters'
p60
I0
sS'meta'
p61
(lp62
sS'total_cqs'
p63
I1
ssI6
(dp64
S'iters'
p65
I3
sS'meta'
p66
(lp67
(dp68
S'objective'
p69
I1
sS'query_time'
p70
F4.118588209152222
sS'comp_time'
p71
F0.00011110305786132812
sS'exec_cq'
p72
I1
sS'total_cq'
p73
I5
sa(dp74
g69
I1
sg70
F0.12891292572021484
sg71
F8.0108642578125e-05
sg72
I1
sg73
I3
sa(dp75
g69
I1
sg70
F7.211957931518555
sg71
F7.891654968261719e-05
sg72
I1
sg73
I2
sasS'total_cqs'
p76
I5
ssI7
(dp77
S'iters'
p78
I0
sS'meta'
p79
(lp80
sS'total_cqs'
p81
I1
ssI8
(dp82
S'iters'
p83
I5
sS'meta'
p84
(lp85
(dp86
S'objective'
p87
I11
sS'query_time'
p88
F22.149018049240112
sS'comp_time'
p89
F0.0002307891845703125
sS'exec_cq'
p90
I2
sS'total_cq'
p91
I6
sa(dp92
g87
I4
sg88
F81.47921681404114
sg89
F9.298324584960938e-05
sg90
I3
sg91
I5
sa(dp93
g87
I2
sg88
F0.9723608493804932
sg89
F0.00015878677368164062
sg90
I3
sg91
I4
sa(dp94
g87
I0
sg88
F0.929649829864502
sg89
F0.00015592575073242188
sg90
I2
sg91
I3
sa(dp95
g87
I1
sg88
F0.003281116485595703
sg89
F0.00010585784912109375
sg90
I1
sg91
I2
sasS'total_cqs'
p96
I6
ssI9
(dp97
S'iters'
p98
I4
sS'meta'
p99
(lp100
(dp101
S'objective'
p102
I9
sS'query_time'
p103
F1.7735331058502197
sS'comp_time'
p104
F9.179115295410156e-05
sS'exec_cq'
p105
I1
sS'total_cq'
p106
I6
sa(dp107
g102
I3
sg103
F23.978930950164795
sg104
F0.00016021728515625
sg105
I1
sg106
I5
sa(dp108
g102
I0
sg103
F7.7650299072265625
sg104
F0.00014781951904296875
sg105
I1
sg106
I3
sa(dp109
g102
I1
sg103
F0.07256913185119629
sg104
F0.00013709068298339844
sg105
I1
sg106
I2
sasS'total_cqs'
p110
I6
ssI10
(dp111
S'iters'
p112
I0
sS'meta'
p113
(lp114
sS'total_cqs'
p115
I1
ssI11
(dp116
S'iters'
p117
I0
sS'meta'
p118
(lp119
sS'total_cqs'
p120
I1
ssI12
(dp121
S'iters'
p122
I0
sS'meta'
p123
(lp124
sS'total_cqs'
p125
I1
ssI13
(dp126
S'iters'
p127
I2
sS'meta'
p128
(lp129
(dp130
S'objective'
p131
I26
sS'query_time'
p132
F11.343286037445068
sS'comp_time'
p133
F0.00011587142944335938
sS'exec_cq'
p134
I4
sS'total_cq'
p135
I8
sa(dp136
g131
I29
sg132
F0.005719900131225586
sg133
F6.985664367675781e-05
sg134
I7
sg135
I7
sasS'total_cqs'
p137
I8
ssI14
(dp138
S'iters'
p139
I3
sS'meta'
p140
(lp141
(dp142
S'objective'
p143
I5
sS'query_time'
p144
F0.0423429012298584
sS'comp_time'
p145
F8.106231689453125e-05
sS'exec_cq'
p146
I1
sS'total_cq'
p147
I5
sa(dp148
g143
I2
sg144
F0.26093101501464844
sg145
F8.893013000488281e-05
sg146
I1
sg147
I4
sa(dp149
g143
I4
sg144
F1.2316229343414307
sg145
F9.608268737792969e-05
sg146
I3
sg147
I3
sasS'total_cqs'
p150
I5
ssI16
(dp151
S'iters'
p152
I3
sS'meta'
p153
(lp154
(dp155
S'objective'
p156
I3
sS'query_time'
p157
F8.801395177841187
sS'comp_time'
p158
F8.487701416015625e-05
sS'exec_cq'
p159
I1
sS'total_cq'
p160
I5
sa(dp161
g156
I0
sg157
F0.09732604026794434
sg158
F9.274482727050781e-05
sg159
I2
sg160
I3
sa(dp162
g156
I1
sg157
F0.001961946487426758
sg158
F0.00011515617370605469
sg159
I1
sg160
I2
sasS'total_cqs'
p163
I5
ssI17
(dp164
S'iters'
p165
I0
sS'meta'
p166
(lp167
sS'total_cqs'
p168
I1
ssI18
(dp169
S'iters'
p170
I3
sS'meta'
p171
(lp172
(dp173
S'objective'
p174
I5
sS'query_time'
p175
F0.12819290161132812
sS'comp_time'
p176
F8.702278137207031e-05
sS'exec_cq'
p177
I1
sS'total_cq'
p178
I5
sa(dp179
g174
I2
sg175
F7.086667060852051
sg176
F8.678436279296875e-05
sg177
I1
sg178
I4
sa(dp180
g174
I2
sg175
F0.0674741268157959
sg176
F9.584426879882812e-05
sg177
I1
sg178
I2
sasS'total_cqs'
p181
I5
ssI19
(dp182
S'iters'
p183
I0
sS'meta'
p184
(lp185
sS'total_cqs'
p186
I1
ssI20
(dp187
S'iters'
p188
I6
sS'meta'
p189
(lp190
(dp191
S'objective'
p192
I50
sS'query_time'
p193
F0.03289198875427246
sS'comp_time'
p194
F9.775161743164062e-05
sS'exec_cq'
p195
I1
sS'total_cq'
p196
I12
sa(dp197
g192
I32
sg193
F0.011965036392211914
sg194
F8.893013000488281e-05
sg195
I1
sg196
I10
sa(dp198
g192
I28
sg193
F9.436357975006104
sg194
F0.00038504600524902344
sg195
I1
sg196
I8
sa(dp199
g192
I4
sg193
F4.414518117904663
sg194
F0.00013494491577148438
sg195
I1
sg196
I7
sa(dp200
g192
I13
sg193
F4.63335394859314
sg194
F8.320808410644531e-05
sg195
I3
sg196
I5
sa(dp201
g192
I15
sg193
F0.0968780517578125
sg194
F8.296966552734375e-05
sg195
I4
sg196
I4
sasS'total_cqs'
p202
I12
ssI21
(dp203
S'iters'
p204
I8
sS'meta'
p205
(lp206
(dp207
S'objective'
p208
I51
sS'query_time'
p209
F20.512157201766968
sS'comp_time'
p210
F7.319450378417969e-05
sS'exec_cq'
p211
I2
sS'total_cq'
p212
I14
sa(dp213
g208
I32
sg209
F29.618184089660645
sg210
F0.0006341934204101562
sg211
I2
sg212
I12
sa(dp214
g208
I23
sg209
F26.314677000045776
sg210
F7.700920104980469e-05
sg211
I2
sg212
I10
sa(dp215
g208
I11
sg209
F0.09070396423339844
sg210
F6.699562072753906e-05
sg211
I2
sg212
I8
sa(dp216
g208
I15
sg209
F0.2154848575592041
sg210
F0.0001232624053955078
sg211
I2
sg212
I6
sa(dp217
g208
I8
sg209
F0.085205078125
sg210
F6.008148193359375e-05
sg211
I2
sg212
I5
sa(dp218
g208
I0
sg209
F0.2610459327697754
sg210
F6.580352783203125e-05
sg211
I1
sg212
I3
sa(dp219
g208
I1
sg209
F0.04183697700500488
sg210
F6.103515625e-05
sg211
I1
sg212
I2
sasS'total_cqs'
p220
I14
ssI22
(dp221
S'iters'
p222
I1
sS'meta'
p223
(lp224
(dp225
S'objective'
p226
I1
sS'query_time'
p227
F0.004620075225830078
sS'comp_time'
p228
F7.176399230957031e-05
sS'exec_cq'
p229
I1
sS'total_cq'
p230
I2
sasS'total_cqs'
p231
I2
ssI23
(dp232
S'iters'
p233
I0
sS'meta'
p234
(lp235
sS'total_cqs'
p236
I1
ssI24
(dp237
S'iters'
p238
I0
sS'meta'
p239
(lp240
sS'total_cqs'
p241
I1
ssI25
(dp242
S'iters'
p243
I4
sS'meta'
p244
(lp245
(dp246
S'objective'
p247
I18
sS'query_time'
p248
F32.5744788646698
sS'comp_time'
p249
F0.0002541542053222656
sS'exec_cq'
p250
I2
sS'total_cq'
p251
I7
sa(dp252
g247
I9
sg248
F2.471276044845581
sg249
F0.00014591217041015625
sg250
I2
sg251
I6
sa(dp253
g247
I12
sg248
F8.094877004623413
sg249
F0.0003070831298828125
sg250
I2
sg251
I4
sa(dp254
g247
I12
sg248
F0.1707310676574707
sg249
F6.818771362304688e-05
sg250
I2
sg251
I3
sasS'total_cqs'
p255
I7
ssI26
(dp256
S'iters'
p257
I11
sS'meta'
p258
(lp259
(dp260
S'objective'
p261
I45
sS'query_time'
p262
F3.119201183319092
sS'comp_time'
p263
F9.298324584960938e-05
sS'exec_cq'
p264
I1
sS'total_cq'
p265
I13
sa(dp266
g261
I44
sg262
F0.07923603057861328
sg263
F8.893013000488281e-05
sg264
I1
sg265
I11
sa(dp267
g261
I34
sg262
F7.38312292098999
sg263
F0.00010204315185546875
sg264
I1
sg265
I10
sa(dp268
g261
I27
sg262
F0.038236141204833984
sg263
F8.797645568847656e-05
sg264
I1
sg265
I9
sa(dp269
g261
I20
sg262
F0.027679920196533203
sg263
F6.914138793945312e-05
sg264
I1
sg265
I8
sa(dp270
g261
I14
sg262
F0.02654409408569336
sg263
F6.914138793945312e-05
sg264
I1
sg265
I7
sa(dp271
g261
I9
sg262
F18.061658143997192
sg263
F0.00016689300537109375
sg264
I1
sg265
I6
sa(dp272
g261
I5
sg262
F0.03361201286315918
sg263
F6.318092346191406e-05
sg264
I1
sg265
I5
sa(dp273
g261
I2
sg262
F0.0305328369140625
sg263
F4.291534423828125e-05
sg264
I1
sg265
I4
sa(dp274
g261
I0
sg262
F0.025743961334228516
sg263
F4.696846008300781e-05
sg264
I1
sg265
I3
sa(dp275
g261
I1
sg262
F0.04922795295715332
sg263
F4.792213439941406e-05
sg264
I1
sg265
I2
sasS'total_cqs'
p276
I13
ssI27
(dp277
S'iters'
p278
I1
sS'meta'
p279
(lp280
(dp281
S'objective'
p282
I1
sS'query_time'
p283
F0.15981197357177734
sS'comp_time'
p284
F9.584426879882812e-05
sS'exec_cq'
p285
I2
sS'total_cq'
p286
I2
sasS'total_cqs'
p287
I2
ssI28
(dp288
S'iters'
p289
I9
sS'meta'
p290
(lp291
(dp292
S'objective'
p293
I77
sS'query_time'
p294
F1.9494140148162842
sS'comp_time'
p295
F8.487701416015625e-05
sS'exec_cq'
p296
I1
sS'total_cq'
p297
I14
sa(dp298
g293
I65
sg294
F1.5806629657745361
sg295
F0.00011897087097167969
sg296
I1
sg297
I13
sa(dp299
g293
I22
sg294
F1.8728580474853516
sg295
F0.00010800361633300781
sg296
I1
sg297
I12
sa(dp300
g293
I10
sg294
F0.9838590621948242
sg295
F0.00010919570922851562
sg296
I1
sg297
I9
sa(dp301
g293
I10
sg294
F0.6294858455657959
sg295
F9.083747863769531e-05
sg296
I1
sg297
I6
sa(dp302
g293
I4
sg294
F0.4280250072479248
sg295
F9.489059448242188e-05
sg296
I1
sg297
I5
sa(dp303
g293
I0
sg294
F0.3842160701751709
sg295
F0.00011396408081054688
sg296
I1
sg297
I4
sa(dp304
g293
I0
sg294
F0.2688789367675781
sg295
F0.00011491775512695312
sg296
I1
sg297
I3
sa(dp305
g293
I1
sg294
F0.14777493476867676
sg295
F0.00011181831359863281
sg296
I1
sg297
I2
sasS'total_cqs'
p306
I14
ssI29
(dp307
S'iters'
p308
I1
sS'meta'
p309
(lp310
(dp311
S'objective'
p312
I1
sS'query_time'
p313
F0.00465703010559082
sS'comp_time'
p314
F6.103515625e-05
sS'exec_cq'
p315
I2
sS'total_cq'
p316
I2
sasS'total_cqs'
p317
I2
ssI30
(dp318
S'iters'
p319
I1
sS'meta'
p320
(lp321
(dp322
S'objective'
p323
I1
sS'query_time'
p324
F0.43816590309143066
sS'comp_time'
p325
F0.0001049041748046875
sS'exec_cq'
p326
I2
sS'total_cq'
p327
I2
sasS'total_cqs'
p328
I2
ssI31
(dp329
S'iters'
p330
I4
sS'meta'
p331
(lp332
(dp333
S'objective'
p334
I27
sS'query_time'
p335
F8.458756923675537
sS'comp_time'
p336
F9.608268737792969e-05
sS'exec_cq'
p337
I1
sS'total_cq'
p338
I9
sa(dp339
g334
I20
sg335
F0.11716794967651367
sg336
F8.893013000488281e-05
sg337
I1
sg338
I8
sa(dp340
g334
I12
sg335
F2.807931900024414
sg336
F8.487701416015625e-05
sg337
I1
sg338
I7
sa(dp341
g334
I6
sg335
F1.6793169975280762
sg336
F0.00010204315185546875
sg337
I1
sg338
I2
sasS'total_cqs'
p342
I9
ssI32
(dp343
S'iters'
p344
I5
sS'meta'
p345
(lp346
(dp347
S'objective'
p348
I14
sS'query_time'
p349
F2.5529119968414307
sS'comp_time'
p350
F0.000225067138671875
sS'exec_cq'
p351
I1
sS'total_cq'
p352
I7
sa(dp353
g348
I9
sg349
F9.567235946655273
sg350
F7.796287536621094e-05
sg351
I1
sg352
I6
sa(dp354
g348
I5
sg349
F6.192744016647339
sg350
F0.0003979206085205078
sg351
I1
sg352
I5
sa(dp355
g348
I4
sg349
F1.2922089099884033
sg350
F0.00012183189392089844
sg351
I1
sg352
I4
sa(dp356
g348
I1
sg349
F1.4396121501922607
sg350
F0.00015282630920410156
sg351
I1
sg352
I2
sasS'total_cqs'
p357
I7
ssI33
(dp358
S'iters'
p359
I1
sS'meta'
p360
(lp361
(dp362
S'objective'
p363
I1
sS'query_time'
p364
F0.03924298286437988
sS'comp_time'
p365
F8.106231689453125e-05
sS'exec_cq'
p366
I2
sS'total_cq'
p367
I2
sasS'total_cqs'
p368
I2
ssI34
(dp369
S'iters'
p370
I0
sS'meta'
p371
(lp372
sS'total_cqs'
p373
I1
ssI35
(dp374
S'iters'
p375
I4
sS'meta'
p376
(lp377
(dp378
S'objective'
p379
I5
sS'query_time'
p380
F10.861004829406738
sS'comp_time'
p381
F0.00010514259338378906
sS'exec_cq'
p382
I1
sS'total_cq'
p383
I5
sa(dp384
g379
I2
sg380
F1.0510220527648926
sg381
F0.00029587745666503906
sg382
I1
sg383
I4
sa(dp385
g379
I0
sg380
F3.562809944152832
sg381
F9.226799011230469e-05
sg382
I1
sg383
I3
sa(dp386
g379
I1
sg380
F5.16620397567749
sg381
F7.462501525878906e-05
sg382
I1
sg383
I2
sasS'total_cqs'
p387
I5
ssI37
(dp388
S'iters'
p389
I9
sS'meta'
p390
(lp391
(dp392
S'objective'
p393
I35
sS'query_time'
p394
F0.40047597885131836
sS'comp_time'
p395
F6.4849853515625e-05
sS'exec_cq'
p396
I1
sS'total_cq'
p397
I10
sa(dp398
g393
I27
sg394
F0.7125940322875977
sg395
F7.295608520507812e-05
sg396
I1
sg397
I9
sa(dp399
g393
I20
sg394
F0.0053119659423828125
sg395
F5.793571472167969e-05
sg396
I1
sg397
I8
sa(dp400
g393
I14
sg394
F0.004664897918701172
sg395
F6.604194641113281e-05
sg396
I1
sg397
I7
sa(dp401
g393
I11
sg394
F0.004096031188964844
sg395
F6.604194641113281e-05
sg396
I2
sg397
I6
sa(dp402
g393
I8
sg394
F0.0028579235076904297
sg395
F6.29425048828125e-05
sg396
I2
sg397
I5
sa(dp403
g393
I6
sg394
F0.7694308757781982
sg395
F6.890296936035156e-05
sg396
I2
sg397
I4
sa(dp404
g393
I5
sg394
F0.627838134765625
sg395
F0.0012080669403076172
sg396
I2
sg397
I3
sa(dp405
g393
I5
sg394
F0.31433892250061035
sg395
F7.009506225585938e-05
sg396
I2
sg397
I2
sasS'total_cqs'
p406
I10
ssI38
(dp407
S'iters'
p408
I0
sS'meta'
p409
(lp410
sS'total_cqs'
p411
I1
ssI39
(dp412
S'iters'
p413
I0
sS'meta'
p414
(lp415
sS'total_cqs'
p416
I1
ssI40
(dp417
S'iters'
p418
I1
sS'meta'
p419
(lp420
(dp421
S'objective'
p422
I1
sS'query_time'
p423
F18.975504875183105
sS'comp_time'
p424
F9.393692016601562e-05
sS'exec_cq'
p425
I1
sS'total_cq'
p426
I2
sasS'total_cqs'
p427
I2
ssI41
(dp428
S'iters'
p429
I5
sS'meta'
p430
(lp431
(dp432
S'objective'
p433
I9
sS'query_time'
p434
F10.396331071853638
sS'comp_time'
p435
F6.890296936035156e-05
sS'exec_cq'
p436
I1
sS'total_cq'
p437
I6
sa(dp438
g433
I5
sg434
F0.24281096458435059
sg435
F6.079673767089844e-05
sg436
I1
sg437
I5
sa(dp439
g433
I2
sg434
F0.1967170238494873
sg435
F7.295608520507812e-05
sg436
I1
sg437
I4
sa(dp440
g433
I0
sg434
F0.8735620975494385
sg435
F6.389617919921875e-05
sg436
I1
sg437
I3
sa(dp441
g433
I1
sg434
F1.4984610080718994
sg435
F6.389617919921875e-05
sg436
I1
sg437
I2
sasS'total_cqs'
p442
I6
ssI42
(dp443
S'iters'
p444
I1
sS'meta'
p445
(lp446
(dp447
S'objective'
p448
I1
sS'query_time'
p449
F19.74014711380005
sS'comp_time'
p450
F0.00011301040649414062
sS'exec_cq'
p451
I1
sS'total_cq'
p452
I2
sasS'total_cqs'
p453
I2
ssI43
(dp454
S'iters'
p455
I0
sS'meta'
p456
(lp457
sS'total_cqs'
p458
I1
ssI44
(dp459
S'iters'
p460
I3
sS'meta'
p461
(lp462
(dp463
S'objective'
p464
I5
sS'query_time'
p465
F1.4448809623718262
sS'comp_time'
p466
F7.796287536621094e-05
sS'exec_cq'
p467
I1
sS'total_cq'
p468
I5
sa(dp469
g464
I4
sg465
F4.078369855880737
sg466
F0.00011587142944335938
sg467
I1
sg468
I4
sa(dp470
g464
I1
sg465
F0.010851860046386719
sg466
F7.009506225585938e-05
sg467
I1
sg468
I2
sasS'total_cqs'
p471
I5
ssI45
(dp472
S'iters'
p473
I2
sS'meta'
p474
(lp475
(dp476
S'objective'
p477
I9
sS'query_time'
p478
F6.3229100704193115
sS'comp_time'
p479
F0.00013303756713867188
sS'exec_cq'
p480
I3
sS'total_cq'
p481
I5
sa(dp482
g477
I10
sg478
F0.006814002990722656
sg479
F5.698204040527344e-05
sg480
I4
sg481
I4
sasS'total_cqs'
p483
I5
ssI46
(dp484
S'iters'
p485
I0
sS'meta'
p486
(lp487
sS'total_cqs'
p488
I1
ssI47
(dp489
S'iters'
p490
I0
sS'meta'
p491
(lp492
sS'total_cqs'
p493
I1
ssI48
(dp494
S'iters'
p495
I1
sS'meta'
p496
(lp497
(dp498
S'objective'
p499
I1
sS'query_time'
p500
F0.13489413261413574
sS'comp_time'
p501
F0.0001087188720703125
sS'exec_cq'
p502
I2
sS'total_cq'
p503
I2
sasS'total_cqs'
p504
I2
ssI49
(dp505
S'iters'
p506
I4
sS'meta'
p507
(lp508
(dp509
S'objective'
p510
I7
sS'query_time'
p511
F5.730740070343018
sS'comp_time'
p512
F0.000141143798828125
sS'exec_cq'
p513
I2
sS'total_cq'
p514
I5
sa(dp515
g510
I5
sg511
F0.129500150680542
sg512
F9.608268737792969e-05
sg513
I2
sg514
I4
sa(dp516
g510
I4
sg511
F0.04832196235656738
sg512
F8.106231689453125e-05
sg513
I2
sg514
I3
sa(dp517
g510
I4
sg511
F0.008386850357055664
sg512
F4.9114227294921875e-05
sg513
I2
sg514
I2
sasS'total_cqs'
p518
I5
ssI50
(dp519
S'iters'
p520
I4
sS'meta'
p521
(lp522
(dp523
S'objective'
p524
I5
sS'query_time'
p525
F0.2536280155181885
sS'comp_time'
p526
F9.489059448242188e-05
sS'exec_cq'
p527
I1
sS'total_cq'
p528
I5
sa(dp529
g524
I2
sg525
F0.006035804748535156
sg526
F5.793571472167969e-05
sg527
I1
sg528
I4
sa(dp530
g524
I0
sg525
F0.02043914794921875
sg526
F6.794929504394531e-05
sg527
I1
sg528
I3
sa(dp531
g524
I1
sg525
F0.0021789073944091797
sg526
F5.1975250244140625e-05
sg527
I1
sg528
I2
sasS'total_cqs'
p532
I5
ssI51
(dp533
S'iters'
p534
I0
sS'meta'
p535
(lp536
sS'total_cqs'
p537
I1
ssI52
(dp538
S'iters'
p539
I0
sS'meta'
p540
(lp541
sS'total_cqs'
p542
I1
ssI53
(dp543
S'iters'
p544
I0
sS'meta'
p545
(lp546
sS'total_cqs'
p547
I1
ssI55
(dp548
S'iters'
p549
I1
sS'meta'
p550
(lp551
(dp552
S'objective'
p553
I1
sS'query_time'
p554
F28.417826890945435
sS'comp_time'
p555
F0.0001571178436279297
sS'exec_cq'
p556
I2
sS'total_cq'
p557
I2
sasS'total_cqs'
p558
I2
ssI56
(dp559
S'iters'
p560
I0
sS'meta'
p561
(lp562
sS'total_cqs'
p563
I1
ssI57
(dp564
S'iters'
p565
I2
sS'meta'
p566
(lp567
(dp568
S'objective'
p569
I0
sS'query_time'
p570
F2.634070873260498
sS'comp_time'
p571
F0.00021219253540039062
sS'exec_cq'
p572
I1
sS'total_cq'
p573
I3
sa(dp574
g569
I1
sg570
F13.496304035186768
sg571
F0.0001418590545654297
sg572
I2
sg573
I2
sasS'total_cqs'
p575
I3
ssI108
(dp576
S'iters'
p577
I0
sS'meta'
p578
(lp579
sS'total_cqs'
p580
I1
ssI109
(dp581
S'iters'
p582
I0
sS'meta'
p583
(lp584
sS'total_cqs'
p585
I1
ssI116
(dp586
S'iters'
p587
I2
sS'meta'
p588
(lp589
(dp590
S'objective'
p591
I197
sS'query_time'
p592
F1.5519218444824219
sS'comp_time'
p593
F0.0001227855682373047
sS'exec_cq'
p594
I6
sS'total_cq'
p595
I21
sa(dp596
g591
I15
sg592
F0.16103696823120117
sg593
F0.00011610984802246094
sg594
I1
sg595
I2
sasS'total_cqs'
p597
I21
ssI117
(dp598
S'iters'
p599
I2
sS'meta'
p600
(lp601
(dp602
S'objective'
p603
I7
sS'query_time'
p604
F0.009330987930297852
sS'comp_time'
p605
F8.606910705566406e-05
sS'exec_cq'
p606
I2
sS'total_cq'
p607
I5
sa(dp608
g603
I9
sg604
F0.0043299198150634766
sg605
F6.771087646484375e-05
sg606
I4
sg607
I4
sasS'total_cqs'
p609
I5
ssI118
(dp610
S'iters'
p611
I0
sS'meta'
p612
(lp613
sS'total_cqs'
p614
I1
ssI122
(dp615
S'iters'
p616
I0
sS'meta'
p617
(lp618
sS'total_cqs'
p619
I1
ss.