(dp0
I1
(dp1
S'iters'
p2
I4
sS'meta'
p3
(lp4
(dp5
S'objective'
p6
I9
sS'query_time'
p7
F0.01013493537902832
sS'comp_time'
p8
F4.601478576660156e-05
sS'exec_cq'
p9
I1
sS'total_cq'
p10
I6
sa(dp11
g6
I5
sg7
F24.414135932922363
sg8
F0.00015091896057128906
sg9
I1
sg10
I5
sa(dp12
g6
I0
sg7
F4.1531901359558105
sg8
F0.00010800361633300781
sg9
I1
sg10
I4
sa(dp13
g6
I3
sg7
F281.03016805648804
sg8
F0.00015592575073242188
sg9
I1
sg10
I2
sasS'total_cqs'
p14
I6
ssI2
(dp15
S'iters'
p16
I1
sS'meta'
p17
(lp18
(dp19
S'objective'
p20
I13
sS'query_time'
p21
F0.9221949577331543
sS'comp_time'
p22
F8.296966552734375e-05
sS'exec_cq'
p23
I3
sS'total_cq'
p24
I6
sasS'total_cqs'
p25
I6
ssI3
(dp26
S'iters'
p27
I13
sS'meta'
p28
(lp29
(dp30
S'objective'
p31
I421
sS'query_time'
p32
F0.027397871017456055
sS'comp_time'
p33
F5.888938903808594e-05
sS'exec_cq'
p34
I1
sS'total_cq'
p35
I33
sa(dp36
g31
I427
sg32
F6.54285192489624
sg33
F0.00010704994201660156
sg34
I1
sg35
I30
sa(dp37
g31
I371
sg32
F0.09495186805725098
sg33
F9.012222290039062e-05
sg34
I2
sg35
I29
sa(dp38
g31
I341
sg32
F0.012059926986694336
sg33
F3.719329833984375e-05
sg34
I2
sg35
I27
sa(dp39
g31
I322
sg32
F0.012269020080566406
sg33
F4.696846008300781e-05
sg34
I2
sg35
I25
sa(dp40
g31
I300
sg32
F0.008123159408569336
sg33
F5.1021575927734375e-05
sg34
I3
sg35
I24
sa(dp41
g31
I255
sg32
F0.7165350914001465
sg33
F0.00010609626770019531
sg34
I3
sg35
I23
sa(dp42
g31
I244
sg32
F0.041342973709106445
sg33
F7.510185241699219e-05
sg34
I3
sg35
I20
sa(dp43
g31
I193
sg32
F0.08119392395019531
sg33
F8.511543273925781e-05
sg34
I3
sg35
I19
sa(dp44
g31
I166
sg32
F0.02554488182067871
sg33
F4.982948303222656e-05
sg34
I3
sg35
I17
sa(dp45
g31
I158
sg32
F0.027482986450195312
sg33
F6.818771362304688e-05
sg34
I3
sg35
I14
sa(dp46
g31
I140
sg32
F0.15204906463623047
sg33
F8.106231689453125e-05
sg34
I3
sg35
I13
sa(dp47
g31
I123
sg32
F0.17137598991394043
sg33
F0.00045680999755859375
sg34
I3
sg35
I12
sasS'total_cqs'
p48
I33
ssI4
(dp49
S'iters'
p50
I0
sS'meta'
p51
(lp52
sS'total_cqs'
p53
I1
ssI5
(dp54
S'iters'
p55
I0
sS'meta'
p56
(lp57
sS'total_cqs'
p58
I1
ssI6
(dp59
S'iters'
p60
I3
sS'meta'
p61
(lp62
(dp63
S'objective'
p64
I5
sS'query_time'
p65
F8.893965005874634
sS'comp_time'
p66
F6.198883056640625e-05
sS'exec_cq'
p67
I1
sS'total_cq'
p68
I5
sa(dp69
g64
I0
sg65
F2.0870988368988037
sg66
F3.814697265625e-05
sg67
I1
sg68
I4
sa(dp70
g64
I3
sg65
F82.16507196426392
sg66
F5.793571472167969e-05
sg67
I1
sg68
I2
sasS'total_cqs'
p71
I5
ssI7
(dp72
S'iters'
p73
I0
sS'meta'
p74
(lp75
sS'total_cqs'
p76
I1
ssI8
(dp77
S'iters'
p78
I3
sS'meta'
p79
(lp80
(dp81
S'objective'
p82
I9
sS'query_time'
p83
F82.0723340511322
sS'comp_time'
p84
F0.00010013580322265625
sS'exec_cq'
p85
I1
sS'total_cq'
p86
I6
sa(dp87
g82
I5
sg83
F2.0564329624176025
sg84
F0.00035881996154785156
sg85
I1
sg86
I5
sa(dp88
g82
I2
sg83
F20.786391019821167
sg84
F0.000225067138671875
sg85
I1
sg86
I4
sasS'total_cqs'
p89
I6
ssI9
(dp90
S'iters'
p91
I4
sS'meta'
p92
(lp93
(dp94
S'objective'
p95
I9
sS'query_time'
p96
F22.07760500907898
sS'comp_time'
p97
F0.02416706085205078
sS'exec_cq'
p98
I1
sS'total_cq'
p99
I6
sa(dp100
g95
I5
sg96
F20.0209698677063
sg97
F0.00010395050048828125
sg98
I1
sg99
I5
sa(dp101
g95
I4
sg96
F6.3870649337768555
sg97
F7.987022399902344e-05
sg98
I1
sg99
I4
sa(dp102
g95
I1
sg96
F4.4182751178741455
sg97
F5.888938903808594e-05
sg98
I1
sg99
I2
sasS'total_cqs'
p103
I6
ssI10
(dp104
S'iters'
p105
I0
sS'meta'
p106
(lp107
sS'total_cqs'
p108
I1
ssI11
(dp109
S'iters'
p110
I0
sS'meta'
p111
(lp112
sS'total_cqs'
p113
I1
ssI12
(dp114
S'iters'
p115
I0
sS'meta'
p116
(lp117
sS'total_cqs'
p118
I1
ssI13
(dp119
S'iters'
p120
I1
sS'meta'
p121
(lp122
(dp123
S'objective'
p124
I26
sS'query_time'
p125
F0.24252700805664062
sS'comp_time'
p126
F5.1975250244140625e-05
sS'exec_cq'
p127
I4
sS'total_cq'
p128
I8
sasS'total_cqs'
p129
I8
ssI14
(dp130
S'iters'
p131
I2
sS'meta'
p132
(lp133
(dp134
S'objective'
p135
I5
sS'query_time'
p136
F0.028224945068359375
sS'comp_time'
p137
F5.698204040527344e-05
sS'exec_cq'
p138
I1
sS'total_cq'
p139
I5
sa(dp140
g135
I2
sg136
F1.0074591636657715
sg137
F7.414817810058594e-05
sg138
I1
sg139
I4
sasS'total_cqs'
p141
I5
ssI16
(dp142
S'iters'
p143
I2
sS'meta'
p144
(lp145
(dp146
S'objective'
p147
I3
sS'query_time'
p148
F5.014540910720825
sS'comp_time'
p149
F9.799003601074219e-05
sS'exec_cq'
p150
I1
sS'total_cq'
p151
I5
sa(dp152
g147
I1
sg148
F0.044508934020996094
sg149
F9.202957153320312e-05
sg150
I1
sg151
I3
sasS'total_cqs'
p153
I5
ssI17
(dp154
S'iters'
p155
I0
sS'meta'
p156
(lp157
sS'total_cqs'
p158
I1
ssI18
(dp159
S'iters'
p160
I3
sS'meta'
p161
(lp162
(dp163
S'objective'
p164
I1
sS'query_time'
p165
F0.8666751384735107
sS'comp_time'
p166
F7.295608520507812e-05
sS'exec_cq'
p167
I1
sS'total_cq'
p168
I5
sa(dp169
g164
I5
sg165
F0.2773311138153076
sg166
F8.916854858398438e-05
sg167
I1
sg168
I3
sa(dp170
g164
I2
sg165
F0.27944111824035645
sg166
F6.198883056640625e-05
sg167
I2
sg168
I2
sasS'total_cqs'
p171
I5
ssI19
(dp172
S'iters'
p173
I0
sS'meta'
p174
(lp175
sS'total_cqs'
p176
I1
ssI20
(dp177
S'iters'
p178
I4
sS'meta'
p179
(lp180
(dp181
S'objective'
p182
I54
sS'query_time'
p183
F1.3867039680480957
sS'comp_time'
p184
F8.296966552734375e-05
sS'exec_cq'
p185
I1
sS'total_cq'
p186
I12
sa(dp187
g182
I46
sg183
F0.013237953186035156
sg184
F4.100799560546875e-05
sg185
I2
sg186
I11
sa(dp188
g182
I22
sg183
F11.409064054489136
sg184
F0.00012302398681640625
sg185
I2
sg186
I10
sa(dp189
g182
I25
sg183
F0.10157608985900879
sg184
F7.295608520507812e-05
sg185
I2
sg186
I8
sasS'total_cqs'
p190
I12
ssI21
(dp191
S'iters'
p192
I6
sS'meta'
p193
(lp194
(dp195
S'objective'
p196
I65
sS'query_time'
p197
F14.195160865783691
sS'comp_time'
p198
F0.007803916931152344
sS'exec_cq'
p199
I1
sS'total_cq'
p200
I14
sa(dp201
g196
I39
sg197
F0.44759106636047363
sg198
F7.700920104980469e-05
sg199
I1
sg200
I12
sa(dp202
g196
I38
sg197
F25.124813079833984
sg198
F0.00017499923706054688
sg199
I1
sg200
I10
sa(dp203
g196
I26
sg197
F0.40242719650268555
sg198
F7.414817810058594e-05
sg199
I1
sg200
I9
sa(dp204
g196
I20
sg197
F0.2698030471801758
sg198
F7.200241088867188e-05
sg199
I1
sg200
I7
sa(dp205
g196
I13
sg197
F0.017054080963134766
sg198
F8.893013000488281e-05
sg199
I1
sg200
I6
sasS'total_cqs'
p206
I14
ssI22
(dp207
S'iters'
p208
I1
sS'meta'
p209
(lp210
(dp211
S'objective'
p212
I1
sS'query_time'
p213
F0.0048160552978515625
sS'comp_time'
p214
F4.38690185546875e-05
sS'exec_cq'
p215
I1
sS'total_cq'
p216
I2
sasS'total_cqs'
p217
I2
ssI23
(dp218
S'iters'
p219
I0
sS'meta'
p220
(lp221
sS'total_cqs'
p222
I1
ssI24
(dp223
S'iters'
p224
I0
sS'meta'
p225
(lp226
sS'total_cqs'
p227
I1
ssI25
(dp228
S'iters'
p229
I3
sS'meta'
p230
(lp231
(dp232
S'objective'
p233
I14
sS'query_time'
p234
F10.484153032302856
sS'comp_time'
p235
F0.0001418590545654297
sS'exec_cq'
p236
I1
sS'total_cq'
p237
I7
sa(dp238
g233
I9
sg234
F24.274717092514038
sg235
F0.00017309188842773438
sg236
I1
sg237
I6
sa(dp239
g233
I5
sg234
F0.1831951141357422
sg235
F7.581710815429688e-05
sg236
I1
sg237
I5
sasS'total_cqs'
p240
I7
ssI26
(dp241
S'iters'
p242
I6
sS'meta'
p243
(lp244
(dp245
S'objective'
p246
I65
sS'query_time'
p247
F0.06531000137329102
sS'comp_time'
p248
F6.198883056640625e-05
sS'exec_cq'
p249
I1
sS'total_cq'
p250
I13
sa(dp251
g246
I54
sg247
F0.04171490669250488
sg248
F8.893013000488281e-05
sg249
I1
sg250
I12
sa(dp252
g246
I44
sg247
F0.09321117401123047
sg248
F9.989738464355469e-05
sg249
I1
sg250
I11
sa(dp253
g246
I35
sg247
F1.004762887954712
sg248
F5.4836273193359375e-05
sg249
I1
sg250
I10
sa(dp254
g246
I27
sg247
F19.254630088806152
sg248
F0.00022292137145996094
sg249
I1
sg250
I9
sa(dp255
g246
I20
sg247
F0.00710296630859375
sg248
F4.601478576660156e-05
sg249
I1
sg250
I8
sasS'total_cqs'
p256
I13
ssI27
(dp257
S'iters'
p258
I1
sS'meta'
p259
(lp260
(dp261
S'objective'
p262
I1
sS'query_time'
p263
F0.16086697578430176
sS'comp_time'
p264
F7.605552673339844e-05
sS'exec_cq'
p265
I1
sS'total_cq'
p266
I2
sasS'total_cqs'
p267
I2
ssI28
(dp268
S'iters'
p269
I7
sS'meta'
p270
(lp271
(dp272
S'objective'
p273
I77
sS'query_time'
p274
F2.3241281509399414
sS'comp_time'
p275
F8.20159912109375e-05
sS'exec_cq'
p276
I1
sS'total_cq'
p277
I14
sa(dp278
g273
I51
sg274
F1.1773488521575928
sg275
F4.291534423828125e-05
sg276
I1
sg277
I13
sa(dp279
g273
I47
sg274
F0.7758288383483887
sg275
F5.0067901611328125e-05
sg276
I1
sg277
I11
sa(dp280
g273
I37
sg274
F0.6616520881652832
sg275
F5.698204040527344e-05
sg276
I1
sg277
I10
sa(dp281
g273
I28
sg274
F0.6013398170471191
sg275
F5.3882598876953125e-05
sg276
I1
sg277
I9
sa(dp282
g273
I20
sg274
F0.35944294929504395
sg275
F3.886222839355469e-05
sg276
I1
sg277
I8
sa(dp283
g273
I13
sg274
F0.24751806259155273
sg275
F3.790855407714844e-05
sg276
I1
sg277
I7
sasS'total_cqs'
p284
I14
ssI29
(dp285
S'iters'
p286
I1
sS'meta'
p287
(lp288
(dp289
S'objective'
p290
I1
sS'query_time'
p291
F0.007794857025146484
sS'comp_time'
p292
F5.602836608886719e-05
sS'exec_cq'
p293
I1
sS'total_cq'
p294
I2
sasS'total_cqs'
p295
I2
ssI30
(dp296
S'iters'
p297
I1
sS'meta'
p298
(lp299
(dp300
S'objective'
p301
I1
sS'query_time'
p302
F0.3906099796295166
sS'comp_time'
p303
F7.486343383789062e-05
sS'exec_cq'
p304
I1
sS'total_cq'
p305
I2
sasS'total_cqs'
p306
I2
ssI31
(dp307
S'iters'
p308
I4
sS'meta'
p309
(lp310
(dp311
S'objective'
p312
I21
sS'query_time'
p313
F0.5513057708740234
sS'comp_time'
p314
F3.695487976074219e-05
sS'exec_cq'
p315
I1
sS'total_cq'
p316
I9
sa(dp317
g312
I17
sg313
F0.16569089889526367
sg314
F6.890296936035156e-05
sg315
I1
sg316
I7
sa(dp318
g312
I1
sg313
F0.6447420120239258
sg314
F7.891654968261719e-05
sg315
I1
sg316
I6
sa(dp319
g312
I1
sg313
F0.4471549987792969
sg314
F8.797645568847656e-05
sg315
I1
sg316
I4
sasS'total_cqs'
p320
I9
ssI32
(dp321
S'iters'
p322
I3
sS'meta'
p323
(lp324
(dp325
S'objective'
p326
I10
sS'query_time'
p327
F2.1027040481567383
sS'comp_time'
p328
F6.914138793945312e-05
sS'exec_cq'
p329
I1
sS'total_cq'
p330
I7
sa(dp331
g326
I7
sg327
F6.7213380336761475
sg328
F0.0007331371307373047
sg329
I1
sg330
I5
sa(dp332
g326
I3
sg327
F0.10365915298461914
sg328
F6.29425048828125e-05
sg329
I1
sg330
I4
sasS'total_cqs'
p333
I7
ssI33
(dp334
S'iters'
p335
I1
sS'meta'
p336
(lp337
(dp338
S'objective'
p339
I1
sS'query_time'
p340
F0.04060196876525879
sS'comp_time'
p341
F7.605552673339844e-05
sS'exec_cq'
p342
I1
sS'total_cq'
p343
I2
sasS'total_cqs'
p344
I2
ssI34
(dp345
S'iters'
p346
I0
sS'meta'
p347
(lp348
sS'total_cqs'
p349
I1
ssI35
(dp350
S'iters'
p351
I2
sS'meta'
p352
(lp353
(dp354
S'objective'
p355
I5
sS'query_time'
p356
F9.094945907592773
sS'comp_time'
p357
F7.200241088867188e-05
sS'exec_cq'
p358
I1
sS'total_cq'
p359
I5
sa(dp360
g355
I2
sg356
F0.13005304336547852
sg357
F5.4836273193359375e-05
sg358
I1
sg359
I4
sasS'total_cqs'
p361
I5
ssI37
(dp362
S'iters'
p363
I5
sS'meta'
p364
(lp365
(dp366
S'objective'
p367
I35
sS'query_time'
p368
F0.010740041732788086
sS'comp_time'
p369
F5.698204040527344e-05
sS'exec_cq'
p370
I1
sS'total_cq'
p371
I10
sa(dp372
g367
I27
sg368
F0.43277812004089355
sg369
F9.608268737792969e-05
sg370
I1
sg371
I9
sa(dp373
g367
I20
sg368
F0.740706205368042
sg369
F8.106231689453125e-05
sg370
I1
sg371
I8
sa(dp374
g367
I14
sg368
F0.7239692211151123
sg369
F7.700920104980469e-05
sg370
I1
sg371
I7
sa(dp375
g367
I9
sg368
F0.3346428871154785
sg369
F0.0016908645629882812
sg370
I1
sg371
I6
sasS'total_cqs'
p376
I10
ssI38
(dp377
S'iters'
p378
I0
sS'meta'
p379
(lp380
sS'total_cqs'
p381
I1
ssI39
(dp382
S'iters'
p383
I0
sS'meta'
p384
(lp385
sS'total_cqs'
p386
I1
ssI40
(dp387
S'iters'
p388
I1
sS'meta'
p389
(lp390
(dp391
S'objective'
p392
I1
sS'query_time'
p393
F17.18568515777588
sS'comp_time'
p394
F0.00021886825561523438
sS'exec_cq'
p395
I2
sS'total_cq'
p396
I2
sasS'total_cqs'
p397
I2
ssI41
(dp398
S'iters'
p399
I4
sS'meta'
p400
(lp401
(dp402
S'objective'
p403
I9
sS'query_time'
p404
F2.0370290279388428
sS'comp_time'
p405
F9.298324584960938e-05
sS'exec_cq'
p406
I1
sS'total_cq'
p407
I6
sa(dp408
g403
I5
sg404
F8.559235095977783
sg405
F0.0001327991485595703
sg406
I1
sg407
I5
sa(dp409
g403
I2
sg404
F4.4773149490356445
sg405
F6.103515625e-05
sg406
I1
sg407
I4
sa(dp410
g403
I2
sg404
F73.11930704116821
sg405
F7.414817810058594e-05
sg406
I2
sg407
I2
sasS'total_cqs'
p411
I6
ssI42
(dp412
S'iters'
p413
I1
sS'meta'
p414
(lp415
(dp416
S'objective'
p417
I1
sS'query_time'
p418
F0.009913921356201172
sS'comp_time'
p419
F5.507469177246094e-05
sS'exec_cq'
p420
I1
sS'total_cq'
p421
I2
sasS'total_cqs'
p422
I2
ssI43
(dp423
S'iters'
p424
I0
sS'meta'
p425
(lp426
sS'total_cqs'
p427
I1
ssI44
(dp428
S'iters'
p429
I2
sS'meta'
p430
(lp431
(dp432
S'objective'
p433
I5
sS'query_time'
p434
F1.3067131042480469
sS'comp_time'
p435
F8.296966552734375e-05
sS'exec_cq'
p436
I1
sS'total_cq'
p437
I5
sa(dp438
g433
I2
sg434
F0.004190921783447266
sg435
F3.600120544433594e-05
sg436
I1
sg437
I4
sasS'total_cqs'
p439
I5
ssI45
(dp440
S'iters'
p441
I2
sS'meta'
p442
(lp443
(dp444
S'objective'
p445
I5
sS'query_time'
p446
F0.043066978454589844
sS'comp_time'
p447
F5.412101745605469e-05
sS'exec_cq'
p448
I2
sS'total_cq'
p449
I5
sa(dp450
g445
I3
sg446
F0.8132269382476807
sg447
F5.1021575927734375e-05
sg448
I2
sg449
I2
sasS'total_cqs'
p451
I5
ssI46
(dp452
S'iters'
p453
I0
sS'meta'
p454
(lp455
sS'total_cqs'
p456
I1
ssI47
(dp457
S'iters'
p458
I0
sS'meta'
p459
(lp460
sS'total_cqs'
p461
I1
ssI48
(dp462
S'iters'
p463
I1
sS'meta'
p464
(lp465
(dp466
S'objective'
p467
I1
sS'query_time'
p468
F0.15588879585266113
sS'comp_time'
p469
F8.20159912109375e-05
sS'exec_cq'
p470
I1
sS'total_cq'
p471
I2
sasS'total_cqs'
p472
I2
ssI49
(dp473
S'iters'
p474
I1
sS'meta'
p475
(lp476
(dp477
S'objective'
p478
I7
sS'query_time'
p479
F0.23764514923095703
sS'comp_time'
p480
F7.104873657226562e-05
sS'exec_cq'
p481
I2
sS'total_cq'
p482
I5
sasS'total_cqs'
p483
I5
ssI50
(dp484
S'iters'
p485
I2
sS'meta'
p486
(lp487
(dp488
S'objective'
p489
I5
sS'query_time'
p490
F0.026671886444091797
sS'comp_time'
p491
F8.58306884765625e-05
sS'exec_cq'
p492
I1
sS'total_cq'
p493
I5
sa(dp494
g489
I2
sg490
F0.9197580814361572
sg491
F8.916854858398438e-05
sg492
I1
sg493
I4
sasS'total_cqs'
p495
I5
ssI51
(dp496
S'iters'
p497
I0
sS'meta'
p498
(lp499
sS'total_cqs'
p500
I1
ssI52
(dp501
S'iters'
p502
I0
sS'meta'
p503
(lp504
sS'total_cqs'
p505
I1
ssI53
(dp506
S'iters'
p507
I0
sS'meta'
p508
(lp509
sS'total_cqs'
p510
I1
ssI55
(dp511
S'iters'
p512
I1
sS'meta'
p513
(lp514
(dp515
S'objective'
p516
I1
sS'query_time'
p517
F11.176768064498901
sS'comp_time'
p518
F5.91278076171875e-05
sS'exec_cq'
p519
I1
sS'total_cq'
p520
I2
sasS'total_cqs'
p521
I2
ssI56
(dp522
S'iters'
p523
I0
sS'meta'
p524
(lp525
sS'total_cqs'
p526
I1
ssI57
(dp527
S'iters'
p528
I1
sS'meta'
p529
(lp530
(dp531
S'objective'
p532
I0
sS'query_time'
p533
F11.634488105773926
sS'comp_time'
p534
F0.00019812583923339844
sS'exec_cq'
p535
I1
sS'total_cq'
p536
I3
sasS'total_cqs'
p537
I3
ssI108
(dp538
S'iters'
p539
I0
sS'meta'
p540
(lp541
sS'total_cqs'
p542
I1
ssI109
(dp543
S'iters'
p544
I0
sS'meta'
p545
(lp546
sS'total_cqs'
p547
I1
ssI116
(dp548
S'iters'
p549
I2
sS'meta'
p550
(lp551
(dp552
S'objective'
p553
I199
sS'query_time'
p554
F0.16043806076049805
sS'comp_time'
p555
F7.891654968261719e-05
sS'exec_cq'
p556
I6
sS'total_cq'
p557
I21
sa(dp558
g553
I191
sg554
F0.2473459243774414
sg555
F8.106231689453125e-05
sg556
I9
sg557
I20
sasS'total_cqs'
p559
I21
ssI117
(dp560
S'iters'
p561
I1
sS'meta'
p562
(lp563
(dp564
S'objective'
p565
I7
sS'query_time'
p566
F0.010500907897949219
sS'comp_time'
p567
F4.792213439941406e-05
sS'exec_cq'
p568
I2
sS'total_cq'
p569
I5
sasS'total_cqs'
p570
I5
ssI118
(dp571
S'iters'
p572
I0
sS'meta'
p573
(lp574
sS'total_cqs'
p575
I1
ssI122
(dp576
S'iters'
p577
I0
sS'meta'
p578
(lp579
sS'total_cqs'
p580
I1
ss.