(dp0
I1
(dp1
S'iters'
p2
I2
sS'meta'
p3
(lp4
(dp5
S'objective'
p6
I5
sS'query_time'
p7
F6.6064369678497314
sS'comp_time'
p8
F0.0001010894775390625
sS'exec_cq'
p9
I1
sS'total_cq'
p10
I6
sa(dp11
g6
I4
sg7
F444.90311908721924
sg8
F5.984306335449219e-05
sg9
I1
sg10
I2
sasS'total_cqs'
p12
I6
ssI2
(dp13
S'iters'
p14
I1
sS'meta'
p15
(lp16
(dp17
S'objective'
p18
I9
sS'query_time'
p19
F0.7235431671142578
sS'comp_time'
p20
F7.009506225585938e-05
sS'exec_cq'
p21
I1
sS'total_cq'
p22
I6
sasS'total_cqs'
p23
I6
ssI3
(dp24
S'iters'
p25
I6
sS'meta'
p26
(lp27
(dp28
S'objective'
p29
I485
sS'query_time'
p30
F0.15146708488464355
sS'comp_time'
p31
F9.608268737792969e-05
sS'exec_cq'
p32
I1
sS'total_cq'
p33
I33
sa(dp34
g29
I459
sg30
F0.06659698486328125
sg31
F7.796287536621094e-05
sg32
I1
sg33
I31
sa(dp35
g29
I399
sg30
F0.021492958068847656
sg31
F0.00011515617370605469
sg32
I1
sg33
I30
sa(dp36
g29
I273
sg30
F0.5475239753723145
sg31
F0.00011587142944335938
sg32
I1
sg33
I27
sa(dp37
g29
I303
sg30
F0.03419899940490723
sg31
F6.604194641113281e-05
sg32
I1
sg33
I24
sa(dp38
g29
I279
sg30
F0.20781207084655762
sg31
F0.00010204315185546875
sg32
I1
sg33
I23
sasS'total_cqs'
p39
I33
ssI4
(dp40
S'iters'
p41
I0
sS'meta'
p42
(lp43
sS'total_cqs'
p44
I1
ssI5
(dp45
S'iters'
p46
I0
sS'meta'
p47
(lp48
sS'total_cqs'
p49
I1
ssI6
(dp50
S'iters'
p51
I3
sS'meta'
p52
(lp53
(dp54
S'objective'
p55
I5
sS'query_time'
p56
F1.4438321590423584
sS'comp_time'
p57
F6.389617919921875e-05
sS'exec_cq'
p58
I1
sS'total_cq'
p59
I5
sa(dp60
g55
I6
sg56
F3.429046154022217
sg57
F3.4809112548828125e-05
sg58
I1
sg59
I3
sa(dp61
g55
I2
sg56
F64.6033878326416
sg57
F5.793571472167969e-05
sg58
I1
sg59
I2
sasS'total_cqs'
p62
I5
ssI7
(dp63
S'iters'
p64
I0
sS'meta'
p65
(lp66
sS'total_cqs'
p67
I1
ssI8
(dp68
S'iters'
p69
I1
sS'meta'
p70
(lp71
(dp72
S'objective'
p73
I9
sS'query_time'
p74
F33.35541605949402
sS'comp_time'
p75
F0.00030684471130371094
sS'exec_cq'
p76
I1
sS'total_cq'
p77
I6
sasS'total_cqs'
p78
I6
ssI9
(dp79
S'iters'
p80
I2
sS'meta'
p81
(lp82
(dp83
S'objective'
p84
I1
sS'query_time'
p85
F1.0714800357818604
sS'comp_time'
p86
F8.893013000488281e-05
sS'exec_cq'
p87
I1
sS'total_cq'
p88
I6
sa(dp89
g84
I1
sg85
F22.489677906036377
sg86
F5.984306335449219e-05
sg87
I1
sg88
I2
sasS'total_cqs'
p90
I6
ssI10
(dp91
S'iters'
p92
I0
sS'meta'
p93
(lp94
sS'total_cqs'
p95
I1
ssI11
(dp96
S'iters'
p97
I0
sS'meta'
p98
(lp99
sS'total_cqs'
p100
I1
ssI12
(dp101
S'iters'
p102
I0
sS'meta'
p103
(lp104
sS'total_cqs'
p105
I1
ssI13
(dp106
S'iters'
p107
I1
sS'meta'
p108
(lp109
(dp110
S'objective'
p111
I22
sS'query_time'
p112
F0.2725949287414551
sS'comp_time'
p113
F5.698204040527344e-05
sS'exec_cq'
p114
I2
sS'total_cq'
p115
I8
sasS'total_cqs'
p116
I8
ssI14
(dp117
S'iters'
p118
I1
sS'meta'
p119
(lp120
(dp121
S'objective'
p122
I5
sS'query_time'
p123
F0.8683109283447266
sS'comp_time'
p124
F6.890296936035156e-05
sS'exec_cq'
p125
I1
sS'total_cq'
p126
I5
sasS'total_cqs'
p127
I5
ssI16
(dp128
S'iters'
p129
I2
sS'meta'
p130
(lp131
(dp132
S'objective'
p133
I1
sS'query_time'
p134
F2.8689939975738525
sS'comp_time'
p135
F6.604194641113281e-05
sS'exec_cq'
p136
I1
sS'total_cq'
p137
I5
sa(dp138
g133
I2
sg134
F116.73768711090088
sg135
F6.604194641113281e-05
sg136
I2
sg137
I2
sasS'total_cqs'
p139
I5
ssI17
(dp140
S'iters'
p141
I0
sS'meta'
p142
(lp143
sS'total_cqs'
p144
I1
ssI18
(dp145
S'iters'
p146
I2
sS'meta'
p147
(lp148
(dp149
S'objective'
p150
I1
sS'query_time'
p151
F0.3726840019226074
sS'comp_time'
p152
F5.412101745605469e-05
sS'exec_cq'
p153
I1
sS'total_cq'
p154
I5
sa(dp155
g150
I3
sg151
F0.2610049247741699
sg152
F9.894371032714844e-05
sg153
I2
sg154
I2
sasS'total_cqs'
p156
I5
ssI19
(dp157
S'iters'
p158
I0
sS'meta'
p159
(lp160
sS'total_cqs'
p161
I1
ssI20
(dp162
S'iters'
p163
I2
sS'meta'
p164
(lp165
(dp166
S'objective'
p167
I50
sS'query_time'
p168
F0.04215192794799805
sS'comp_time'
p169
F4.601478576660156e-05
sS'exec_cq'
p170
I2
sS'total_cq'
p171
I12
sa(dp172
g167
I44
sg168
F0.1429581642150879
sg169
F8.797645568847656e-05
sg170
I2
sg171
I10
sasS'total_cqs'
p173
I12
ssI21
(dp174
S'iters'
p175
I3
sS'meta'
p176
(lp177
(dp178
S'objective'
p179
I63
sS'query_time'
p180
F0.8040809631347656
sS'comp_time'
p181
F8.392333984375e-05
sS'exec_cq'
p182
I1
sS'total_cq'
p183
I14
sa(dp184
g179
I56
sg180
F0.4792211055755615
sg181
F8.392333984375e-05
sg182
I1
sg183
I12
sa(dp185
g179
I46
sg180
F0.01926708221435547
sg181
F4.887580871582031e-05
sg182
I1
sg183
I10
sasS'total_cqs'
p186
I14
ssI22
(dp187
S'iters'
p188
I1
sS'meta'
p189
(lp190
(dp191
S'objective'
p192
I1
sS'query_time'
p193
F0.008194208145141602
sS'comp_time'
p194
F5.1021575927734375e-05
sS'exec_cq'
p195
I1
sS'total_cq'
p196
I2
sasS'total_cqs'
p197
I2
ssI23
(dp198
S'iters'
p199
I0
sS'meta'
p200
(lp201
sS'total_cqs'
p202
I1
ssI24
(dp203
S'iters'
p204
I0
sS'meta'
p205
(lp206
sS'total_cqs'
p207
I1
ssI25
(dp208
S'iters'
p209
I1
sS'meta'
p210
(lp211
(dp212
S'objective'
p213
I14
sS'query_time'
p214
F0.36719703674316406
sS'comp_time'
p215
F7.104873657226562e-05
sS'exec_cq'
p216
I1
sS'total_cq'
p217
I7
sasS'total_cqs'
p218
I7
ssI26
(dp219
S'iters'
p220
I3
sS'meta'
p221
(lp222
(dp223
S'objective'
p224
I65
sS'query_time'
p225
F0.07612490653991699
sS'comp_time'
p226
F8.511543273925781e-05
sS'exec_cq'
p227
I1
sS'total_cq'
p228
I13
sa(dp229
g224
I54
sg225
F0.08974218368530273
sg226
F8.082389831542969e-05
sg227
I1
sg228
I12
sa(dp230
g224
I44
sg225
F0.007987022399902344
sg226
F4.00543212890625e-05
sg227
I1
sg228
I11
sasS'total_cqs'
p231
I13
ssI27
(dp232
S'iters'
p233
I1
sS'meta'
p234
(lp235
(dp236
S'objective'
p237
I1
sS'query_time'
p238
F0.35408496856689453
sS'comp_time'
p239
F6.008148193359375e-05
sS'exec_cq'
p240
I1
sS'total_cq'
p241
I2
sasS'total_cqs'
p242
I2
ssI28
(dp243
S'iters'
p244
I3
sS'meta'
p245
(lp246
(dp247
S'objective'
p248
I77
sS'query_time'
p249
F1.1191627979278564
sS'comp_time'
p250
F7.510185241699219e-05
sS'exec_cq'
p251
I1
sS'total_cq'
p252
I14
sa(dp253
g248
I65
sg249
F0.7639598846435547
sg250
F3.910064697265625e-05
sg251
I1
sg252
I13
sa(dp254
g248
I54
sg249
F0.6853921413421631
sg250
F7.390975952148438e-05
sg251
I1
sg252
I12
sasS'total_cqs'
p255
I14
ssI29
(dp256
S'iters'
p257
I1
sS'meta'
p258
(lp259
(dp260
S'objective'
p261
I1
sS'query_time'
p262
F0.0074808597564697266
sS'comp_time'
p263
F4.1961669921875e-05
sS'exec_cq'
p264
I1
sS'total_cq'
p265
I2
sasS'total_cqs'
p266
I2
ssI30
(dp267
S'iters'
p268
I1
sS'meta'
p269
(lp270
(dp271
S'objective'
p272
I1
sS'query_time'
p273
F0.35482096672058105
sS'comp_time'
p274
F7.104873657226562e-05
sS'exec_cq'
p275
I1
sS'total_cq'
p276
I2
sasS'total_cqs'
p277
I2
ssI31
(dp278
S'iters'
p279
I2
sS'meta'
p280
(lp281
(dp282
S'objective'
p283
I27
sS'query_time'
p284
F0.46345090866088867
sS'comp_time'
p285
F9.202957153320312e-05
sS'exec_cq'
p286
I1
sS'total_cq'
p287
I9
sa(dp288
g283
I20
sg284
F0.3288748264312744
sg285
F7.104873657226562e-05
sg286
I1
sg287
I8
sasS'total_cqs'
p289
I9
ssI32
(dp290
S'iters'
p291
I1
sS'meta'
p292
(lp293
(dp294
S'objective'
p295
I14
sS'query_time'
p296
F0.20403099060058594
sS'comp_time'
p297
F7.104873657226562e-05
sS'exec_cq'
p298
I1
sS'total_cq'
p299
I7
sasS'total_cqs'
p300
I7
ssI33
(dp301
S'iters'
p302
I1
sS'meta'
p303
(lp304
(dp305
S'objective'
p306
I1
sS'query_time'
p307
F0.05124998092651367
sS'comp_time'
p308
F5.817413330078125e-05
sS'exec_cq'
p309
I1
sS'total_cq'
p310
I2
sasS'total_cqs'
p311
I2
ssI34
(dp312
S'iters'
p313
I0
sS'meta'
p314
(lp315
sS'total_cqs'
p316
I1
ssI35
(dp317
S'iters'
p318
I1
sS'meta'
p319
(lp320
(dp321
S'objective'
p322
I5
sS'query_time'
p323
F0.291395902633667
sS'comp_time'
p324
F8.20159912109375e-05
sS'exec_cq'
p325
I1
sS'total_cq'
p326
I5
sasS'total_cqs'
p327
I5
ssI37
(dp328
S'iters'
p329
I2
sS'meta'
p330
(lp331
(dp332
S'objective'
p333
I35
sS'query_time'
p334
F0.34290099143981934
sS'comp_time'
p335
F7.295608520507812e-05
sS'exec_cq'
p336
I1
sS'total_cq'
p337
I10
sa(dp338
g333
I27
sg334
F0.24985599517822266
sg335
F7.605552673339844e-05
sg336
I1
sg337
I9
sasS'total_cqs'
p339
I10
ssI38
(dp340
S'iters'
p341
I0
sS'meta'
p342
(lp343
sS'total_cqs'
p344
I1
ssI39
(dp345
S'iters'
p346
I0
sS'meta'
p347
(lp348
sS'total_cqs'
p349
I1
ssI40
(dp350
S'iters'
p351
I1
sS'meta'
p352
(lp353
(dp354
S'objective'
p355
I1
sS'query_time'
p356
F15.620797872543335
sS'comp_time'
p357
F0.0001761913299560547
sS'exec_cq'
p358
I2
sS'total_cq'
p359
I2
sasS'total_cqs'
p360
I2
ssI41
(dp361
S'iters'
p362
I2
sS'meta'
p363
(lp364
(dp365
S'objective'
p366
I1
sS'query_time'
p367
F6.1995110511779785
sS'comp_time'
p368
F7.510185241699219e-05
sS'exec_cq'
p369
I1
sS'total_cq'
p370
I6
sa(dp371
g366
I1
sg367
F78.9362120628357
sg368
F6.699562072753906e-05
sg369
I2
sg370
I2
sasS'total_cqs'
p372
I6
ssI42
(dp373
S'iters'
p374
I1
sS'meta'
p375
(lp376
(dp377
S'objective'
p378
I1
sS'query_time'
p379
F0.010814905166625977
sS'comp_time'
p380
F5.507469177246094e-05
sS'exec_cq'
p381
I1
sS'total_cq'
p382
I2
sasS'total_cqs'
p383
I2
ssI43
(dp384
S'iters'
p385
I0
sS'meta'
p386
(lp387
sS'total_cqs'
p388
I1
ssI44
(dp389
S'iters'
p390
I1
sS'meta'
p391
(lp392
(dp393
S'objective'
p394
I5
sS'query_time'
p395
F0.012866020202636719
sS'comp_time'
p396
F5.888938903808594e-05
sS'exec_cq'
p397
I1
sS'total_cq'
p398
I5
sasS'total_cqs'
p399
I5
ssI45
(dp400
S'iters'
p401
I2
sS'meta'
p402
(lp403
(dp404
S'objective'
p405
I1
sS'query_time'
p406
F0.04973101615905762
sS'comp_time'
p407
F5.3882598876953125e-05
sS'exec_cq'
p408
I1
sS'total_cq'
p409
I5
sa(dp410
g405
I3
sg406
F0.623790979385376
sg407
F6.914138793945312e-05
sg408
I2
sg409
I2
sasS'total_cqs'
p411
I5
ssI46
(dp412
S'iters'
p413
I0
sS'meta'
p414
(lp415
sS'total_cqs'
p416
I1
ssI47
(dp417
S'iters'
p418
I0
sS'meta'
p419
(lp420
sS'total_cqs'
p421
I1
ssI48
(dp422
S'iters'
p423
I1
sS'meta'
p424
(lp425
(dp426
S'objective'
p427
I1
sS'query_time'
p428
F0.13286113739013672
sS'comp_time'
p429
F6.508827209472656e-05
sS'exec_cq'
p430
I1
sS'total_cq'
p431
I2
sasS'total_cqs'
p432
I2
ssI49
(dp433
S'iters'
p434
I1
sS'meta'
p435
(lp436
(dp437
S'objective'
p438
I5
sS'query_time'
p439
F0.3435020446777344
sS'comp_time'
p440
F4.9114227294921875e-05
sS'exec_cq'
p441
I1
sS'total_cq'
p442
I5
sasS'total_cqs'
p443
I5
ssI50
(dp444
S'iters'
p445
I1
sS'meta'
p446
(lp447
(dp448
S'objective'
p449
I5
sS'query_time'
p450
F0.7189269065856934
sS'comp_time'
p451
F0.00033283233642578125
sS'exec_cq'
p452
I1
sS'total_cq'
p453
I5
sasS'total_cqs'
p454
I5
ssI51
(dp455
S'iters'
p456
I0
sS'meta'
p457
(lp458
sS'total_cqs'
p459
I1
ssI52
(dp460
S'iters'
p461
I0
sS'meta'
p462
(lp463
sS'total_cqs'
p464
I1
ssI53
(dp465
S'iters'
p466
I0
sS'meta'
p467
(lp468
sS'total_cqs'
p469
I1
ssI55
(dp470
S'iters'
p471
I1
sS'meta'
p472
(lp473
(dp474
S'objective'
p475
I1
sS'query_time'
p476
F80.3542799949646
sS'comp_time'
p477
F5.793571472167969e-05
sS'exec_cq'
p478
I1
sS'total_cq'
p479
I2
sasS'total_cqs'
p480
I2
ssI56
(dp481
S'iters'
p482
I0
sS'meta'
p483
(lp484
sS'total_cqs'
p485
I1
ssI57
(dp486
S'iters'
p487
I2
sS'meta'
p488
(lp489
(dp490
S'objective'
p491
I0
sS'query_time'
p492
F2.0873091220855713
sS'comp_time'
p493
F0.0013301372528076172
sS'exec_cq'
p494
I1
sS'total_cq'
p495
I3
sa(dp496
g491
I1
sg492
F10.362174034118652
sg493
F9.107589721679688e-05
sg494
I1
sg495
I2
sasS'total_cqs'
p497
I3
ssI108
(dp498
S'iters'
p499
I0
sS'meta'
p500
(lp501
sS'total_cqs'
p502
I1
ssI109
(dp503
S'iters'
p504
I0
sS'meta'
p505
(lp506
sS'total_cqs'
p507
I1
ssI116
(dp508
S'iters'
p509
I4
sS'meta'
p510
(lp511
(dp512
S'objective'
p513
I191
sS'query_time'
p514
F0.17537689208984375
sS'comp_time'
p515
F8.702278137207031e-05
sS'exec_cq'
p516
I2
sS'total_cq'
p517
I21
sa(dp518
g513
I175
sg514
F3.2225000858306885
sg515
F0.0005731582641601562
sg516
I3
sg517
I20
sa(dp519
g513
I135
sg514
F3.6072981357574463
sg515
F7.510185241699219e-05
sg516
I3
sg517
I19
sa(dp520
g513
I5
sg514
F0.0012650489807128906
sg515
F2.7894973754882812e-05
sg516
I1
sg517
I2
sasS'total_cqs'
p521
I21
ssI117
(dp522
S'iters'
p523
I1
sS'meta'
p524
(lp525
(dp526
S'objective'
p527
I5
sS'query_time'
p528
F0.004621982574462891
sS'comp_time'
p529
F5.2928924560546875e-05
sS'exec_cq'
p530
I1
sS'total_cq'
p531
I5
sasS'total_cqs'
p532
I5
ssI118
(dp533
S'iters'
p534
I0
sS'meta'
p535
(lp536
sS'total_cqs'
p537
I1
ssI122
(dp538
S'iters'
p539
I0
sS'meta'
p540
(lp541
sS'total_cqs'
p542
I1
ss.