(dp0
I1
(dp1
S'iters'
p2
I3
sS'meta'
p3
(lp4
(dp5
S'objective'
p6
I1
sS'query_time'
p7
F31.083242177963257
sS'comp_time'
p8
F2.2672340869903564
sS'exec_cq'
p9
I2
sS'total_cq'
p10
I6
sa(dp11
g6
I2
sg7
F11.31215786933899
sg8
F1.1731438636779785
sg9
I3
sg10
I4
sa(dp12
g6
I2
sg7
F0.18195796012878418
sg8
F0.981348991394043
sg9
I2
sg10
I2
sasS'total_cqs'
p13
I6
ssI2
(dp14
S'iters'
p15
I1
sS'meta'
p16
(lp17
(dp18
S'objective'
p19
I15
sS'query_time'
p20
F0.9077188968658447
sS'comp_time'
p21
F0.2596263885498047
sS'exec_cq'
p22
I5
sS'total_cq'
p23
I6
sasS'total_cqs'
p24
I6
ssI3
(dp25
S'iters'
p26
I13
sS'meta'
p27
(lp28
(dp29
S'objective'
p30
I415
sS'query_time'
p31
F25.86345911026001
sS'comp_time'
p32
F0.3838479518890381
sS'exec_cq'
p33
I15
sS'total_cq'
p34
I33
sa(dp35
g30
I366
sg31
F0.0033180713653564453
sg32
F0.13813114166259766
sg33
I12
sg34
I30
sa(dp36
g30
I297
sg31
F0.29325318336486816
sg32
F0.03547406196594238
sg33
I13
sg34
I27
sa(dp37
g30
I248
sg31
F0.0013089179992675781
sg32
F0.39742588996887207
sg33
I9
sg34
I24
sa(dp38
g30
I203
sg31
F0.0029959678649902344
sg32
F0.0269010066986084
sg33
I10
sg34
I21
sa(dp39
g30
I182
sg31
F0.0009431838989257812
sg32
F0.009131908416748047
sg33
I6
sg34
I18
sa(dp40
g30
I134
sg31
F0.0024580955505371094
sg32
F0.11316919326782227
sg33
I7
sg34
I15
sa(dp41
g30
I124
sg31
F0.18315792083740234
sg32
F0.03254389762878418
sg33
I5
sg34
I13
sa(dp42
g30
I100
sg31
F0.0002238750457763672
sg32
F0.0020160675048828125
sg33
I3
sg34
I12
sa(dp43
g30
I79
sg31
F0.00279998779296875
sg32
F0.026693105697631836
sg33
I5
sg34
I11
sa(dp44
g30
I74
sg31
F0.0037369728088378906
sg32
F0.027367830276489258
sg33
I4
sg34
I8
sa(dp45
g30
I82
sg31
F1.9073486328125e-05
sg32
F8.296966552734375e-05
sg33
I2
sg34
I7
sa(dp46
g30
I65
sg31
F0.005750179290771484
sg32
F0.15116310119628906
sg33
I3
sg34
I6
sasS'total_cqs'
p47
I33
ssI4
(dp48
S'iters'
p49
I0
sS'meta'
p50
(lp51
sS'total_cqs'
p52
I1
ssI5
(dp53
S'iters'
p54
I0
sS'meta'
p55
(lp56
sS'total_cqs'
p57
I1
ssI6
(dp58
S'iters'
p59
I3
sS'meta'
p60
(lp61
(dp62
S'objective'
p63
I1
sS'query_time'
p64
F14.689938068389893
sS'comp_time'
p65
F0.00687098503112793
sS'exec_cq'
p66
I4
sS'total_cq'
p67
I5
sa(dp68
g63
I0
sg64
F0.00044918060302734375
sg65
F0.003866910934448242
sg66
I2
sg67
I3
sa(dp69
g63
I2
sg64
F5.698204040527344e-05
sg65
F0.0005700588226318359
sg66
I1
sg67
I2
sasS'total_cqs'
p70
I5
ssI7
(dp71
S'iters'
p72
I0
sS'meta'
p73
(lp74
sS'total_cqs'
p75
I1
ssI8
(dp76
S'iters'
p77
I4
sS'meta'
p78
(lp79
(dp80
S'objective'
p81
I9
sS'query_time'
p82
F83.90052509307861
sS'comp_time'
p83
F0.6641411781311035
sS'exec_cq'
p84
I5
sS'total_cq'
p85
I6
sa(dp86
g81
I5
sg82
F2.6941299438476562e-05
sg83
F41.41694498062134
sg84
I4
sg85
I5
sa(dp87
g81
I2
sg82
F3.695487976074219e-05
sg83
F1.1694178581237793
sg84
I3
sg85
I4
sa(dp88
g81
I0
sg82
F3.0040740966796875e-05
sg83
F0.045868873596191406
sg84
I2
sg85
I3
sasS'total_cqs'
p89
I6
ssI9
(dp90
S'iters'
p91
I3
sS'meta'
p92
(lp93
(dp94
S'objective'
p95
I1
sS'query_time'
p96
F11.703823804855347
sS'comp_time'
p97
F0.7460207939147949
sS'exec_cq'
p98
I3
sS'total_cq'
p99
I6
sa(dp100
g95
I0
sg96
F0.06300687789916992
sg97
F0.6461341381072998
sg98
I3
sg99
I3
sa(dp101
g95
I1
sg96
F0.007580995559692383
sg97
F0.15986013412475586
sg98
I2
sg99
I2
sasS'total_cqs'
p102
I6
ssI10
(dp103
S'iters'
p104
I0
sS'meta'
p105
(lp106
sS'total_cqs'
p107
I1
ssI11
(dp108
S'iters'
p109
I0
sS'meta'
p110
(lp111
sS'total_cqs'
p112
I1
ssI12
(dp113
S'iters'
p114
I0
sS'meta'
p115
(lp116
sS'total_cqs'
p117
I1
ssI13
(dp118
S'iters'
p119
I2
sS'meta'
p120
(lp121
(dp122
S'objective'
p123
I24
sS'query_time'
p124
F0.011960983276367188
sS'comp_time'
p125
F0.00047898292541503906
sS'exec_cq'
p126
I6
sS'total_cq'
p127
I8
sa(dp128
g123
I24
sg124
F4.792213439941406e-05
sg125
F0.0001010894775390625
sg126
I5
sg127
I7
sasS'total_cqs'
p129
I8
ssI14
(dp130
S'iters'
p131
I2
sS'meta'
p132
(lp133
(dp134
S'objective'
p135
I5
sS'query_time'
p136
F0.8989148139953613
sS'comp_time'
p137
F0.00863790512084961
sS'exec_cq'
p138
I5
sS'total_cq'
p139
I5
sa(dp140
g135
I4
sg136
F0.0005400180816650391
sg137
F0.006487131118774414
sg138
I4
sg139
I4
sasS'total_cqs'
p141
I5
ssI16
(dp142
S'iters'
p143
I2
sS'meta'
p144
(lp145
(dp146
S'objective'
p147
I3
sS'query_time'
p148
F1.2445240020751953
sS'comp_time'
p149
F0.011955022811889648
sS'exec_cq'
p150
I4
sS'total_cq'
p151
I5
sa(dp152
g147
I0
sg148
F0.0014150142669677734
sg149
F0.009646892547607422
sg150
I3
sg151
I3
sasS'total_cqs'
p153
I5
ssI17
(dp154
S'iters'
p155
I0
sS'meta'
p156
(lp157
sS'total_cqs'
p158
I1
ssI18
(dp159
S'iters'
p160
I3
sS'meta'
p161
(lp162
(dp163
S'objective'
p164
I1
sS'query_time'
p165
F0.21206402778625488
sS'comp_time'
p166
F0.0007607936859130859
sS'exec_cq'
p167
I4
sS'total_cq'
p168
I5
sa(dp169
g164
I0
sg165
F7.915496826171875e-05
sg166
F0.0004169940948486328
sg167
I3
sg168
I3
sa(dp170
g164
I2
sg165
F2.7894973754882812e-05
sg166
F0.00026226043701171875
sg167
I2
sg168
I2
sasS'total_cqs'
p171
I5
ssI19
(dp172
S'iters'
p173
I0
sS'meta'
p174
(lp175
sS'total_cqs'
p176
I1
ssI20
(dp177
S'iters'
p178
I6
sS'meta'
p179
(lp180
(dp181
S'objective'
p182
I50
sS'query_time'
p183
F9.514336109161377
sS'comp_time'
p184
F3.0386738777160645
sS'exec_cq'
p185
I6
sS'total_cq'
p186
I12
sa(dp187
g182
I22
sg183
F3.8809568881988525
sg184
F0.6025080680847168
sg185
I4
sg186
I10
sa(dp188
g182
I17
sg183
F0.2066969871520996
sg184
F1.6677110195159912
sg185
I4
sg186
I8
sa(dp189
g182
I28
sg183
F2.09808349609375e-05
sg184
F0.00013494491577148438
sg185
I2
sg186
I6
sa(dp190
g182
I13
sg183
F0.24015212059020996
sg184
F1.476841688156128
sg185
I3
sg186
I5
sa(dp191
g182
I13
sg183
F0.0930788516998291
sg184
F0.006672859191894531
sg185
I2
sg186
I4
sasS'total_cqs'
p192
I12
ssI21
(dp193
S'iters'
p194
I7
sS'meta'
p195
(lp196
(dp197
S'objective'
p198
I55
sS'query_time'
p199
F93.88850378990173
sS'comp_time'
p200
F0.4112529754638672
sS'exec_cq'
p201
I8
sS'total_cq'
p202
I14
sa(dp203
g198
I54
sg199
F0.10109615325927734
sg200
F0.2936849594116211
sg201
I6
sg202
I12
sa(dp204
g198
I7
sg199
F29.68766689300537
sg200
F2.487366199493408
sg201
I4
sg202
I11
sa(dp205
g198
I3
sg199
F0.018952131271362305
sg200
F0.6128652095794678
sg201
I5
sg202
I7
sa(dp206
g198
I1
sg199
F0.25874781608581543
sg200
F0.12371397018432617
sg201
I1
sg202
I4
sa(dp207
g198
I4
sg199
F0.008101940155029297
sg200
F0.09181094169616699
sg201
I2
sg202
I3
sa(dp208
g198
I4
sg199
F0.009896039962768555
sg200
F0.10025715827941895
sg201
I1
sg202
I2
sasS'total_cqs'
p209
I14
ssI22
(dp210
S'iters'
p211
I1
sS'meta'
p212
(lp213
(dp214
S'objective'
p215
I1
sS'query_time'
p216
F0.0024950504302978516
sS'comp_time'
p217
F0.0002942085266113281
sS'exec_cq'
p218
I1
sS'total_cq'
p219
I2
sasS'total_cqs'
p220
I2
ssI23
(dp221
S'iters'
p222
I0
sS'meta'
p223
(lp224
sS'total_cqs'
p225
I1
ssI24
(dp226
S'iters'
p227
I0
sS'meta'
p228
(lp229
sS'total_cqs'
p230
I1
ssI25
(dp231
S'iters'
p232
I4
sS'meta'
p233
(lp234
(dp235
S'objective'
p236
I16
sS'query_time'
p237
F66.25482201576233
sS'comp_time'
p238
F6.6527769565582275
sS'exec_cq'
p239
I4
sS'total_cq'
p240
I7
sa(dp241
g236
I10
sg237
F1.9073486328125e-05
sg238
F0.04332470893859863
sg239
I2
sg240
I5
sa(dp242
g236
I0
sg237
F4.69714093208313
sg238
F0.15008187294006348
sg239
I2
sg240
I4
sa(dp243
g236
I2
sg237
F1.0967254638671875e-05
sg238
F0.04287600517272949
sg239
I1
sg240
I2
sasS'total_cqs'
p244
I7
ssI26
(dp245
S'iters'
p246
I9
sS'meta'
p247
(lp248
(dp249
S'objective'
p250
I61
sS'query_time'
p251
F0.27147603034973145
sS'comp_time'
p252
F0.024148941040039062
sS'exec_cq'
p253
I4
sS'total_cq'
p254
I13
sa(dp255
g250
I36
sg251
F4.904894113540649
sg252
F0.03168535232543945
sg253
I2
sg254
I11
sa(dp256
g250
I32
sg251
F0.0013091564178466797
sg252
F0.011281013488769531
sg253
I2
sg254
I9
sa(dp257
g250
I28
sg251
F20.75210404396057
sg252
F6.937211751937866
sg253
I3
sg254
I8
sa(dp258
g250
I16
sg251
F0.032235145568847656
sg252
F0.0024068355560302734
sg253
I1
sg254
I7
sa(dp259
g250
I12
sg251
F0.011306047439575195
sg252
F0.0002231597900390625
sg253
I2
sg254
I6
sa(dp260
g250
I5
sg251
F0.0004191398620605469
sg252
F0.0032820701599121094
sg253
I1
sg254
I4
sa(dp261
g250
I0
sg251
F1.5076968669891357
sg252
F8.776915073394775
sg253
I2
sg254
I3
sa(dp262
g250
I4
sg251
F0.00033092498779296875
sg252
F0.002289295196533203
sg253
I1
sg254
I2
sasS'total_cqs'
p263
I13
ssI27
(dp264
S'iters'
p265
I1
sS'meta'
p266
(lp267
(dp268
S'objective'
p269
I1
sS'query_time'
p270
F0.17853498458862305
sS'comp_time'
p271
F0.009865999221801758
sS'exec_cq'
p272
I1
sS'total_cq'
p273
I2
sasS'total_cqs'
p274
I2
ssI28
(dp275
S'iters'
p276
I8
sS'meta'
p277
(lp278
(dp279
S'objective'
p280
I39
sS'query_time'
p281
F1.415992021560669
sS'comp_time'
p282
F0.056519269943237305
sS'exec_cq'
p283
I6
sS'total_cq'
p284
I14
sa(dp285
g280
I46
sg281
F0.0020699501037597656
sg282
F0.00012373924255371094
sg283
I1
sg284
I11
sa(dp286
g280
I35
sg281
F0.021366119384765625
sg282
F0.0023467540740966797
sg283
I1
sg284
I10
sa(dp287
g280
I29
sg281
F0.004719972610473633
sg282
F0.039093017578125
sg283
I3
sg284
I9
sa(dp288
g280
I18
sg281
F0.018074989318847656
sg282
F0.0016057491302490234
sg283
I1
sg284
I7
sa(dp289
g280
I10
sg281
F0.01707005500793457
sg282
F0.0014221668243408203
sg283
I1
sg284
I6
sa(dp290
g280
I5
sg281
F0.009099006652832031
sg282
F0.0008959770202636719
sg283
I1
sg284
I5
sa(dp291
g280
I2
sg281
F0.0019102096557617188
sg282
F0.00012087821960449219
sg283
I1
sg284
I4
sasS'total_cqs'
p292
I14
ssI29
(dp293
S'iters'
p294
I1
sS'meta'
p295
(lp296
(dp297
S'objective'
p298
I1
sS'query_time'
p299
F0.005068778991699219
sS'comp_time'
p300
F0.0012440681457519531
sS'exec_cq'
p301
I2
sS'total_cq'
p302
I2
sasS'total_cqs'
p303
I2
ssI30
(dp304
S'iters'
p305
I1
sS'meta'
p306
(lp307
(dp308
S'objective'
p309
I1
sS'query_time'
p310
F0.3818938732147217
sS'comp_time'
p311
F0.005036830902099609
sS'exec_cq'
p312
I2
sS'total_cq'
p313
I2
sasS'total_cqs'
p314
I2
ssI31
(dp315
S'iters'
p316
I4
sS'meta'
p317
(lp318
(dp319
S'objective'
p320
I19
sS'query_time'
p321
F4.882950067520142
sS'comp_time'
p322
F0.28557705879211426
sS'exec_cq'
p323
I4
sS'total_cq'
p324
I9
sa(dp325
g320
I4
sg321
F1.3655529022216797
sg322
F0.06939387321472168
sg323
I5
sg324
I7
sa(dp326
g320
I0
sg321
F0.006459951400756836
sg322
F0.1318349838256836
sg323
I3
sg324
I3
sa(dp327
g320
I1
sg321
F0.007358074188232422
sg322
F0.057035207748413086
sg323
I2
sg324
I2
sasS'total_cqs'
p328
I9
ssI32
(dp329
S'iters'
p330
I3
sS'meta'
p331
(lp332
(dp333
S'objective'
p334
I2
sS'query_time'
p335
F21.4625301361084
sS'comp_time'
p336
F6.183611631393433
sS'exec_cq'
p337
I4
sS'total_cq'
p338
I7
sa(dp339
g334
I3
sg335
F1.0445899963378906
sg336
F0.035362958908081055
sg337
I2
sg338
I4
sa(dp340
g334
I3
sg335
F0.029460906982421875
sg336
F0.6811070442199707
sg337
I1
sg338
I2
sasS'total_cqs'
p341
I7
ssI33
(dp342
S'iters'
p343
I1
sS'meta'
p344
(lp345
(dp346
S'objective'
p347
I1
sS'query_time'
p348
F0.021200180053710938
sS'comp_time'
p349
F0.0003540515899658203
sS'exec_cq'
p350
I2
sS'total_cq'
p351
I2
sasS'total_cqs'
p352
I2
ssI34
(dp353
S'iters'
p354
I0
sS'meta'
p355
(lp356
sS'total_cqs'
p357
I1
ssI35
(dp358
S'iters'
p359
I3
sS'meta'
p360
(lp361
(dp362
S'objective'
p363
I1
sS'query_time'
p364
F14.926894903182983
sS'comp_time'
p365
F0.6615958213806152
sS'exec_cq'
p366
I4
sS'total_cq'
p367
I5
sa(dp368
g363
I0
sg364
F0.018625974655151367
sg365
F0.3444972038269043
sg366
I2
sg367
I3
sa(dp369
g363
I2
sg364
F0.0006909370422363281
sg365
F0.0053212642669677734
sg366
I1
sg367
I2
sasS'total_cqs'
p370
I5
ssI37
(dp371
S'iters'
p372
I2
sS'meta'
p373
(lp374
(dp375
S'objective'
p376
I27
sS'query_time'
p377
F0.5684340000152588
sS'comp_time'
p378
F0.04188799858093262
sS'exec_cq'
p379
I4
sS'total_cq'
p380
I10
sa(dp381
g376
I6
sg377
F0.0049250125885009766
sg378
F0.03728222846984863
sg379
I2
sg380
I2
sasS'total_cqs'
p382
I10
ssI38
(dp383
S'iters'
p384
I0
sS'meta'
p385
(lp386
sS'total_cqs'
p387
I1
ssI39
(dp388
S'iters'
p389
I0
sS'meta'
p390
(lp391
sS'total_cqs'
p392
I1
ssI40
(dp393
S'iters'
p394
I1
sS'meta'
p395
(lp396
(dp397
S'objective'
p398
I1
sS'query_time'
p399
F0.014081954956054688
sS'comp_time'
p400
F0.0001709461212158203
sS'exec_cq'
p401
I1
sS'total_cq'
p402
I2
sasS'total_cqs'
p403
I2
ssI41
(dp404
S'iters'
p405
I4
sS'meta'
p406
(lp407
(dp408
S'objective'
p409
I1
sS'query_time'
p410
F9.97729206085205
sS'comp_time'
p411
F2.6972780227661133
sS'exec_cq'
p412
I3
sS'total_cq'
p413
I6
sa(dp414
g409
I1
sg410
F0.000904083251953125
sg411
F0.008276939392089844
sg412
I1
sg413
I4
sa(dp415
g409
I2
sg410
F0.705996036529541
sg411
F0.00621795654296875
sg412
I2
sg413
I3
sa(dp416
g409
I2
sg410
F0.0006690025329589844
sg411
F0.0059092044830322266
sg412
I2
sg413
I2
sasS'total_cqs'
p417
I6
ssI42
(dp418
S'iters'
p419
I1
sS'meta'
p420
(lp421
(dp422
S'objective'
p423
I1
sS'query_time'
p424
F0.007236003875732422
sS'comp_time'
p425
F0.00029087066650390625
sS'exec_cq'
p426
I1
sS'total_cq'
p427
I2
sasS'total_cqs'
p428
I2
ssI43
(dp429
S'iters'
p430
I0
sS'meta'
p431
(lp432
sS'total_cqs'
p433
I1
ssI44
(dp434
S'iters'
p435
I3
sS'meta'
p436
(lp437
(dp438
S'objective'
p439
I5
sS'query_time'
p440
F1.2145280838012695
sS'comp_time'
p441
F0.21499300003051758
sS'exec_cq'
p442
I2
sS'total_cq'
p443
I5
sa(dp444
g439
I2
sg440
F6.890296936035156e-05
sg441
F0.0005910396575927734
sg442
I1
sg443
I4
sa(dp445
g439
I0
sg440
F0.002618074417114258
sg441
F0.00010895729064941406
sg442
I1
sg443
I3
sasS'total_cqs'
p446
I5
ssI45
(dp447
S'iters'
p448
I2
sS'meta'
p449
(lp450
(dp451
S'objective'
p452
I1
sS'query_time'
p453
F0.03203296661376953
sS'comp_time'
p454
F0.01853799819946289
sS'exec_cq'
p455
I3
sS'total_cq'
p456
I5
sa(dp457
g452
I1
sg453
F0.00017690658569335938
sg454
F0.003410816192626953
sg455
I2
sg456
I2
sasS'total_cqs'
p458
I5
ssI46
(dp459
S'iters'
p460
I0
sS'meta'
p461
(lp462
sS'total_cqs'
p463
I1
ssI47
(dp464
S'iters'
p465
I0
sS'meta'
p466
(lp467
sS'total_cqs'
p468
I1
ssI48
(dp469
S'iters'
p470
I1
sS'meta'
p471
(lp472
(dp473
S'objective'
p474
I1
sS'query_time'
p475
F0.11002993583679199
sS'comp_time'
p476
F0.022520780563354492
sS'exec_cq'
p477
I2
sS'total_cq'
p478
I2
sasS'total_cqs'
p479
I2
ssI49
(dp480
S'iters'
p481
I3
sS'meta'
p482
(lp483
(dp484
S'objective'
p485
I1
sS'query_time'
p486
F0.21853995323181152
sS'comp_time'
p487
F0.007049083709716797
sS'exec_cq'
p488
I4
sS'total_cq'
p489
I5
sa(dp490
g485
I0
sg486
F0.0016810894012451172
sg487
F0.005295991897583008
sg488
I3
sg489
I3
sa(dp491
g485
I2
sg486
F0.0003631114959716797
sg487
F0.003069162368774414
sg488
I2
sg489
I2
sasS'total_cqs'
p492
I5
ssI50
(dp493
S'iters'
p494
I3
sS'meta'
p495
(lp496
(dp497
S'objective'
p498
I5
sS'query_time'
p499
F0.6654918193817139
sS'comp_time'
p500
F0.001802206039428711
sS'exec_cq'
p501
I5
sS'total_cq'
p502
I5
sa(dp503
g498
I2
sg499
F0.0001399517059326172
sg500
F0.0017731189727783203
sg501
I4
sg502
I4
sa(dp504
g498
I0
sg499
F0.000102996826171875
sg500
F0.0011970996856689453
sg501
I3
sg502
I3
sasS'total_cqs'
p505
I5
ssI51
(dp506
S'iters'
p507
I0
sS'meta'
p508
(lp509
sS'total_cqs'
p510
I1
ssI52
(dp511
S'iters'
p512
I0
sS'meta'
p513
(lp514
sS'total_cqs'
p515
I1
ssI53
(dp516
S'iters'
p517
I0
sS'meta'
p518
(lp519
sS'total_cqs'
p520
I1
ssI55
(dp521
S'iters'
p522
I1
sS'meta'
p523
(lp524
(dp525
S'objective'
p526
I1
sS'query_time'
p527
F24.306740045547485
sS'comp_time'
p528
F0.0996100902557373
sS'exec_cq'
p529
I2
sS'total_cq'
p530
I2
sasS'total_cqs'
p531
I2
ssI56
(dp532
S'iters'
p533
I0
sS'meta'
p534
(lp535
sS'total_cqs'
p536
I1
ssI57
(dp537
S'iters'
p538
I1
sS'meta'
p539
(lp540
(dp541
S'objective'
p542
I2
sS'query_time'
p543
F12.22066593170166
sS'comp_time'
p544
F5.100028991699219
sS'exec_cq'
p545
I2
sS'total_cq'
p546
I3
sasS'total_cqs'
p547
I3
ssI108
(dp548
S'iters'
p549
I0
sS'meta'
p550
(lp551
sS'total_cqs'
p552
I1
ssI109
(dp553
S'iters'
p554
I0
sS'meta'
p555
(lp556
sS'total_cqs'
p557
I1
ssI116
(dp558
S'iters'
p559
I4
sS'meta'
p560
(lp561
(dp562
S'objective'
p563
I189
sS'query_time'
p564
F3.735630989074707
sS'comp_time'
p565
F0.7519605159759521
sS'exec_cq'
p566
I15
sS'total_cq'
p567
I21
sa(dp568
g563
I172
sg564
F0.07862186431884766
sg565
F0.0035409927368164062
sg566
I13
sg567
I19
sa(dp569
g563
I175
sg564
F0.572807788848877
sg565
F0.005707979202270508
sg566
I16
sg567
I18
sa(dp570
g563
I6
sg564
F0.0007472038269042969
sg565
F0.005079030990600586
sg566
I2
sg567
I2
sasS'total_cqs'
p571
I21
ssI117
(dp572
S'iters'
p573
I2
sS'meta'
p574
(lp575
(dp576
S'objective'
p577
I11
sS'query_time'
p578
F0.007915973663330078
sS'comp_time'
p579
F0.00014400482177734375
sS'exec_cq'
p580
I3
sS'total_cq'
p581
I5
sa(dp582
g577
I7
sg578
F0.0024061203002929688
sg579
F8.869171142578125e-05
sg580
I4
sg581
I4
sasS'total_cqs'
p583
I5
ssI118
(dp584
S'iters'
p585
I0
sS'meta'
p586
(lp587
sS'total_cqs'
p588
I1
ssI122
(dp589
S'iters'
p590
I0
sS'meta'
p591
(lp592
sS'total_cqs'
p593
I1
ss.