(dp0
I1
(dp1
S'iters'
p2
I2
sS'meta'
p3
(lp4
(dp5
S'objective'
p6
I2
sS'query_time'
p7
F21.515163898468018
sS'comp_time'
p8
F1.7311408519744873
sS'exec_cq'
p9
I6
sS'total_cq'
p10
I6
sa(dp11
g6
I0
sg7
F0.010920047760009766
sg8
F269.7962930202484
sg9
I2
sg10
I2
sasS'total_cqs'
p12
I6
ssI2
(dp13
S'iters'
p14
I1
sS'meta'
p15
(lp16
(dp17
S'objective'
p18
I4
sS'query_time'
p19
F2.6834850311279297
sS'comp_time'
p20
F0.08438897132873535
sS'exec_cq'
p21
I6
sS'total_cq'
p22
I6
sasS'total_cqs'
p23
I6
ssI3
(dp24
S'iters'
p25
I9
sS'meta'
p26
(lp27
(dp28
S'objective'
p29
I27
sS'query_time'
p30
F33.319374084472656
sS'comp_time'
p31
F0.16295313835144043
sS'exec_cq'
p32
I33
sS'total_cq'
p33
I33
sa(dp34
g29
I24
sg30
F0.02370285987854004
sg31
F0.1542208194732666
sg32
I30
sg33
I30
sa(dp35
g29
I21
sg30
F0.042143821716308594
sg31
F0.15539193153381348
sg32
I27
sg33
I27
sa(dp36
g29
I18
sg30
F0.02275705337524414
sg31
F0.1446690559387207
sg32
I24
sg33
I24
sa(dp37
g29
I15
sg30
F0.01743602752685547
sg31
F0.11932516098022461
sg32
I21
sg33
I21
sa(dp38
g29
I12
sg30
F0.015491008758544922
sg31
F0.11120486259460449
sg32
I18
sg33
I18
sa(dp39
g29
I11
sg30
F0.007118940353393555
sg31
F0.05660390853881836
sg32
I15
sg33
I15
sa(dp40
g29
I11
sg30
F0.005839109420776367
sg31
F0.03259396553039551
sg32
I13
sg33
I13
sa(dp41
g29
I10
sg30
F0.0037469863891601562
sg31
F0.03938794136047363
sg32
I12
sg33
I12
sasS'total_cqs'
p42
I33
ssI6
(dp43
S'iters'
p44
I2
sS'meta'
p45
(lp46
(dp47
S'objective'
p48
I1
sS'query_time'
p49
F27.492598056793213
sS'comp_time'
p50
F0.0028738975524902344
sS'exec_cq'
p51
I5
sS'total_cq'
p52
I5
sa(dp53
g48
I0
sg49
F0.00026917457580566406
sg50
F0.0015561580657958984
sg51
I2
sg52
I2
sasS'total_cqs'
p54
I5
ssI8
(dp55
S'iters'
p56
I4
sS'meta'
p57
(lp58
(dp59
S'objective'
p60
I4
sS'query_time'
p61
F32.27333688735962
sS'comp_time'
p62
F0.21438312530517578
sS'exec_cq'
p63
I6
sS'total_cq'
p64
I6
sa(dp65
g60
I1
sg61
F2.304271936416626
sg62
F2.10028076171875
sg63
I5
sg64
I5
sa(dp66
g60
I1
sg61
F22.097530841827393
sg62
F21.738646984100342
sg63
I3
sg64
I3
sa(dp67
g60
I0
sg61
F0.0514979362487793
sg62
F0.0432126522064209
sg63
I2
sg64
I2
sasS'total_cqs'
p68
I6
ssI9
(dp69
S'iters'
p70
I3
sS'meta'
p71
(lp72
(dp73
S'objective'
p74
I0
sS'query_time'
p75
F60.62791085243225
sS'comp_time'
p76
F4.412054061889648
sS'exec_cq'
p77
I6
sS'total_cq'
p78
I6
sa(dp79
g74
I1
sg75
F0.062454938888549805
sg76
F0.5407760143280029
sg77
I3
sg78
I3
sa(dp80
g74
I0
sg75
F0.038336992263793945
sg76
F0.31513190269470215
sg77
I2
sg78
I2
sasS'total_cqs'
p81
I6
ssI13
(dp82
S'iters'
p83
I2
sS'meta'
p84
(lp85
(dp86
S'objective'
p87
I6
sS'query_time'
p88
F0.31784892082214355
sS'comp_time'
p89
F0.00017786026000976562
sS'exec_cq'
p90
I8
sS'total_cq'
p91
I8
sa(dp92
g87
I5
sg88
F4.410743713378906e-05
sg89
F6.890296936035156e-05
sg90
I7
sg91
I7
sasS'total_cqs'
p93
I8
ssI14
(dp94
S'iters'
p95
I1
sS'meta'
p96
(lp97
(dp98
S'objective'
p99
I3
sS'query_time'
p100
F12.909624814987183
sS'comp_time'
p101
F0.005856990814208984
sS'exec_cq'
p102
I5
sS'total_cq'
p103
I5
sasS'total_cqs'
p104
I5
ssI16
(dp105
S'iters'
p106
I3
sS'meta'
p107
(lp108
(dp109
S'objective'
p110
I1
sS'query_time'
p111
F13.052901983261108
sS'comp_time'
p112
F0.006783008575439453
sS'exec_cq'
p113
I5
sS'total_cq'
p114
I5
sa(dp115
g110
I1
sg111
F9.202957153320312e-05
sg112
F0.0004048347473144531
sg113
I3
sg114
I3
sa(dp116
g110
I0
sg111
F4.100799560546875e-05
sg112
F0.00017881393432617188
sg113
I2
sg114
I2
sasS'total_cqs'
p117
I5
ssI18
(dp118
S'iters'
p119
I2
sS'meta'
p120
(lp121
(dp122
S'objective'
p123
I1
sS'query_time'
p124
F2.5238001346588135
sS'comp_time'
p125
F0.0003960132598876953
sS'exec_cq'
p126
I5
sS'total_cq'
p127
I5
sa(dp128
g123
I0
sg124
F4.291534423828125e-05
sg125
F0.00018906593322753906
sg126
I2
sg127
I2
sasS'total_cqs'
p129
I5
ssI20
(dp130
S'iters'
p131
I5
sS'meta'
p132
(lp133
(dp134
S'objective'
p135
I8
sS'query_time'
p136
F19.784595012664795
sS'comp_time'
p137
F1.3938469886779785
sS'exec_cq'
p138
I12
sS'total_cq'
p139
I12
sa(dp140
g135
I6
sg136
F0.1967451572418213
sg137
F0.8076910972595215
sg138
I10
sg139
I10
sa(dp141
g135
I4
sg136
F0.1774449348449707
sg137
F0.7362198829650879
sg138
I8
sg139
I8
sa(dp142
g135
I4
sg136
F0.14995217323303223
sg137
F0.49260592460632324
sg138
I6
sg139
I6
sa(dp143
g135
I3
sg136
F0.0008189678192138672
sg137
F0.0032868385314941406
sg138
I5
sg139
I5
sasS'total_cqs'
p144
I12
ssI21
(dp145
S'iters'
p146
I4
sS'meta'
p147
(lp148
(dp149
S'objective'
p150
I6
sS'query_time'
p151
F35.11813402175903
sS'comp_time'
p152
F0.22508597373962402
sS'exec_cq'
p153
I14
sS'total_cq'
p154
I14
sa(dp155
g150
I2
sg151
F0.0199429988861084
sg152
F0.29046106338500977
sg153
I10
sg154
I10
sa(dp156
g150
I2
sg151
F0.016542911529541016
sg152
F0.11834287643432617
sg153
I6
sg154
I6
sa(dp157
g150
I0
sg151
F0.004203081130981445
sg152
F0.020292997360229492
sg153
I2
sg154
I2
sasS'total_cqs'
p158
I14
ssI22
(dp159
S'iters'
p160
I1
sS'meta'
p161
(lp162
(dp163
S'objective'
p164
I0
sS'query_time'
p165
F0.008965015411376953
sS'comp_time'
p166
F0.0001239776611328125
sS'exec_cq'
p167
I2
sS'total_cq'
p168
I2
sasS'total_cqs'
p169
I2
ssI25
(dp170
S'iters'
p171
I3
sS'meta'
p172
(lp173
(dp174
S'objective'
p175
I3
sS'query_time'
p176
F59.22351098060608
sS'comp_time'
p177
F3.213870048522949
sS'exec_cq'
p178
I7
sS'total_cq'
p179
I7
sa(dp180
g175
I1
sg176
F0.011018037796020508
sg177
F0.4371330738067627
sg178
I5
sg179
I5
sa(dp181
g175
I1
sg176
F0.0010700225830078125
sg177
F0.0066928863525390625
sg178
I3
sg179
I3
sasS'total_cqs'
p182
I7
ssI26
(dp183
S'iters'
p184
I9
sS'meta'
p185
(lp186
(dp187
S'objective'
p188
I9
sS'query_time'
p189
F24.130352020263672
sS'comp_time'
p190
F0.017712116241455078
sS'exec_cq'
p191
I13
sS'total_cq'
p192
I13
sa(dp193
g188
I7
sg189
F0.025012969970703125
sg190
F0.011744022369384766
sg191
I11
sg192
I11
sa(dp194
g188
I5
sg189
F0.0016169548034667969
sg190
F0.7927477359771729
sg191
I9
sg192
I9
sa(dp195
g188
I5
sg189
F0.0013530254364013672
sg190
F0.00850677490234375
sg191
I7
sg192
I7
sa(dp196
g188
I4
sg189
F0.0019960403442382812
sg190
F0.007322788238525391
sg191
I6
sg192
I6
sa(dp197
g188
I3
sg189
F0.0009579658508300781
sg190
F0.006027936935424805
sg191
I5
sg192
I5
sa(dp198
g188
I2
sg189
F0.00036787986755371094
sg190
F0.0035059452056884766
sg191
I4
sg192
I4
sa(dp199
g188
I1
sg189
F0.0002110004425048828
sg190
F0.002225160598754883
sg191
I3
sg192
I3
sa(dp200
g188
I0
sg189
F1.621246337890625e-05
sg190
F0.001062154769897461
sg191
I2
sg192
I2
sasS'total_cqs'
p201
I13
ssI27
(dp202
S'iters'
p203
I1
sS'meta'
p204
(lp205
(dp206
S'objective'
p207
I0
sS'query_time'
p208
F1.8386530876159668
sS'comp_time'
p209
F0.0042209625244140625
sS'exec_cq'
p210
I2
sS'total_cq'
p211
I2
sasS'total_cqs'
p212
I2
ssI28
(dp213
S'iters'
p214
I6
sS'meta'
p215
(lp216
(dp217
S'objective'
p218
I6
sS'query_time'
p219
F14.129134893417358
sS'comp_time'
p220
F0.019958972930908203
sS'exec_cq'
p221
I14
sS'total_cq'
p222
I14
sa(dp223
g218
I4
sg219
F0.0026128292083740234
sg220
F0.014147043228149414
sg221
I10
sg222
I10
sa(dp224
g218
I3
sg219
F0.002385854721069336
sg220
F0.03092503547668457
sg221
I7
sg222
I7
sa(dp225
g218
I3
sg219
F0.002641916275024414
sg220
F0.012036800384521484
sg221
I5
sg222
I5
sa(dp226
g218
I2
sg219
F0.0019299983978271484
sg220
F0.011298179626464844
sg221
I4
sg222
I4
sa(dp227
g218
I1
sg219
F2.384185791015625e-05
sg220
F7.200241088867188e-05
sg221
I3
sg222
I3
sasS'total_cqs'
p228
I14
ssI29
(dp229
S'iters'
p230
I1
sS'meta'
p231
(lp232
(dp233
S'objective'
p234
I0
sS'query_time'
p235
F0.011076211929321289
sS'comp_time'
p236
F0.0001468658447265625
sS'exec_cq'
p237
I2
sS'total_cq'
p238
I2
sasS'total_cqs'
p239
I2
ssI30
(dp240
S'iters'
p241
I1
sS'meta'
p242
(lp243
(dp244
S'objective'
p245
I0
sS'query_time'
p246
F5.704055070877075
sS'comp_time'
p247
F0.005130767822265625
sS'exec_cq'
p248
I2
sS'total_cq'
p249
I2
sasS'total_cqs'
p250
I2
ssI31
(dp251
S'iters'
p252
I3
sS'meta'
p253
(lp254
(dp255
S'objective'
p256
I3
sS'query_time'
p257
F14.763613939285278
sS'comp_time'
p258
F0.21355605125427246
sS'exec_cq'
p259
I9
sS'total_cq'
p260
I9
sa(dp261
g256
I1
sg257
F0.00981593132019043
sg258
F0.035883188247680664
sg259
I3
sg260
I3
sa(dp262
g256
I0
sg257
F0.0034530162811279297
sg258
F0.017449140548706055
sg259
I2
sg260
I2
sasS'total_cqs'
p263
I9
ssI32
(dp264
S'iters'
p265
I3
sS'meta'
p266
(lp267
(dp268
S'objective'
p269
I1
sS'query_time'
p270
F28.020430088043213
sS'comp_time'
p271
F2.9341580867767334
sS'exec_cq'
p272
I7
sS'total_cq'
p273
I7
sa(dp274
g269
I0
sg270
F0.04157209396362305
sg271
F0.4044651985168457
sg272
I4
sg273
I4
sa(dp275
g269
I0
sg270
F0.08791899681091309
sg271
F0.19739508628845215
sg272
I2
sg273
I2
sasS'total_cqs'
p276
I7
ssI33
(dp277
S'iters'
p278
I1
sS'meta'
p279
(lp280
(dp281
S'objective'
p282
I0
sS'query_time'
p283
F1.1007781028747559
sS'comp_time'
p284
F0.00020813941955566406
sS'exec_cq'
p285
I2
sS'total_cq'
p286
I2
sasS'total_cqs'
p287
I2
ssI35
(dp288
S'iters'
p289
I3
sS'meta'
p290
(lp291
(dp292
S'objective'
p293
I1
sS'query_time'
p294
F27.987772941589355
sS'comp_time'
p295
F0.22968578338623047
sS'exec_cq'
p296
I5
sS'total_cq'
p297
I5
sa(dp298
g293
I1
sg294
F0.0325620174407959
sg295
F0.15433382987976074
sg296
I3
sg297
I3
sa(dp299
g293
I0
sg294
F0.011571884155273438
sg295
F0.06046104431152344
sg296
I2
sg297
I2
sasS'total_cqs'
p300
I5
ssI37
(dp301
S'iters'
p302
I3
sS'meta'
p303
(lp304
(dp305
S'objective'
p306
I4
sS'query_time'
p307
F10.629510879516602
sS'comp_time'
p308
F0.13196301460266113
sS'exec_cq'
p309
I10
sS'total_cq'
p310
I10
sa(dp311
g306
I1
sg307
F0.02886795997619629
sg308
F0.03495502471923828
sg309
I3
sg310
I3
sa(dp312
g306
I0
sg307
F0.002791166305541992
sg308
F0.011536836624145508
sg309
I2
sg310
I2
sasS'total_cqs'
p313
I10
ssI40
(dp314
S'iters'
p315
I1
sS'meta'
p316
(lp317
(dp318
S'objective'
p319
I0
sS'query_time'
p320
F21.972193002700806
sS'comp_time'
p321
F0.026925086975097656
sS'exec_cq'
p322
I2
sS'total_cq'
p323
I2
sasS'total_cqs'
p324
I2
ssI41
(dp325
S'iters'
p326
I3
sS'meta'
p327
(lp328
(dp329
S'objective'
p330
I0
sS'query_time'
p331
F21.679748058319092
sS'comp_time'
p332
F1.0936980247497559
sS'exec_cq'
p333
I6
sS'total_cq'
p334
I6
sa(dp335
g330
I1
sg331
F0.0019028186798095703
sg332
F0.0067441463470458984
sg333
I3
sg334
I3
sa(dp336
g330
I0
sg331
F0.0007138252258300781
sg332
F0.003376007080078125
sg333
I2
sg334
I2
sasS'total_cqs'
p337
I6
ssI42
(dp338
S'iters'
p339
I1
sS'meta'
p340
(lp341
(dp342
S'objective'
p343
I0
sS'query_time'
p344
F22.446510076522827
sS'comp_time'
p345
F0.0030298233032226562
sS'exec_cq'
p346
I2
sS'total_cq'
p347
I2
sasS'total_cqs'
p348
I2
ssI44
(dp349
S'iters'
p350
I3
sS'meta'
p351
(lp352
(dp353
S'objective'
p354
I1
sS'query_time'
p355
F2.153425931930542
sS'comp_time'
p356
F0.09218502044677734
sS'exec_cq'
p357
I5
sS'total_cq'
p358
I5
sa(dp359
g354
I1
sg355
F0.015220880508422852
sg356
F0.0904850959777832
sg357
I3
sg358
I3
sa(dp360
g354
I0
sg355
F0.0008761882781982422
sg356
F0.0014269351959228516
sg357
I2
sg358
I2
sasS'total_cqs'
p361
I5
ssI45
(dp362
S'iters'
p363
I2
sS'meta'
p364
(lp365
(dp366
S'objective'
p367
I1
sS'query_time'
p368
F0.4513399600982666
sS'comp_time'
p369
F0.0006310939788818359
sS'exec_cq'
p370
I5
sS'total_cq'
p371
I5
sa(dp372
g367
I0
sg368
F0.0001468658447265625
sg369
F0.0006339550018310547
sg370
I2
sg371
I2
sasS'total_cqs'
p373
I5
ssI48
(dp374
S'iters'
p375
I1
sS'meta'
p376
(lp377
(dp378
S'objective'
p379
I0
sS'query_time'
p380
F2.1299471855163574
sS'comp_time'
p381
F0.0057451725006103516
sS'exec_cq'
p382
I2
sS'total_cq'
p383
I2
sasS'total_cqs'
p384
I2
ssI49
(dp385
S'iters'
p386
I3
sS'meta'
p387
(lp388
(dp389
S'objective'
p390
I1
sS'query_time'
p391
F1.337975025177002
sS'comp_time'
p392
F0.006406068801879883
sS'exec_cq'
p393
I5
sS'total_cq'
p394
I5
sa(dp395
g390
I1
sg391
F0.0003509521484375
sg392
F0.0014269351959228516
sg393
I3
sg394
I3
sa(dp396
g390
I0
sg391
F2.5033950805664062e-05
sg392
F0.00010609626770019531
sg393
I2
sg394
I2
sasS'total_cqs'
p397
I5
ssI50
(dp398
S'iters'
p399
I2
sS'meta'
p400
(lp401
(dp402
S'objective'
p403
I3
sS'query_time'
p404
F12.861391067504883
sS'comp_time'
p405
F0.0010440349578857422
sS'exec_cq'
p406
I5
sS'total_cq'
p407
I5
sa(dp408
g403
I2
sg404
F0.0001308917999267578
sg405
F0.0008521080017089844
sg406
I4
sg407
I4
sasS'total_cqs'
p409
I5
ssI55
(dp410
S'iters'
p411
I1
sS'meta'
p412
(lp413
(dp414
S'objective'
p415
I0
sS'query_time'
p416
F37.99431300163269
sS'comp_time'
p417
F3.536130905151367
sS'exec_cq'
p418
I2
sS'total_cq'
p419
I2
sasS'total_cqs'
p420
I2
ssI57
(dp421
S'iters'
p422
I1
sS'meta'
p423
(lp424
(dp425
S'objective'
p426
I1
sS'query_time'
p427
F24.74966287612915
sS'comp_time'
p428
F1.7376909255981445
sS'exec_cq'
p429
I3
sS'total_cq'
p430
I3
sasS'total_cqs'
p431
I3
ssI116
(dp432
S'iters'
p433
I3
sS'meta'
p434
(lp435
(dp436
S'objective'
p437
I15
sS'query_time'
p438
F13.921810150146484
sS'comp_time'
p439
F0.288618803024292
sS'exec_cq'
p440
I21
sS'total_cq'
p441
I21
sa(dp442
g437
I1
sg438
F0.0013821125030517578
sg439
F0.004146099090576172
sg440
I3
sg441
I3
sa(dp443
g437
I0
sg438
F0.0006799697875976562
sg439
F0.0026748180389404297
sg440
I2
sg441
I2
sasS'total_cqs'
p444
I21
ssI117
(dp445
S'iters'
p446
I1
sS'meta'
p447
(lp448
(dp449
S'objective'
p450
I3
sS'query_time'
p451
F0.05325007438659668
sS'comp_time'
p452
F0.00011110305786132812
sS'exec_cq'
p453
I5
sS'total_cq'
p454
I5
sasS'total_cqs'
p455
I5
ss.