(dp0
I1
(dp1
S'iters'
p2
I2
sS'meta'
p3
(lp4
(dp5
S'objective'
p6
I1
sS'query_time'
p7
F17.07753086090088
sS'comp_time'
p8
F0.726611852645874
sS'exec_cq'
p9
I3
sS'total_cq'
p10
I6
sa(dp11
g6
I2
sg7
F0.16672515869140625
sg8
F0.6696648597717285
sg9
I2
sg10
I2
sasS'total_cqs'
p12
I6
ssI2
(dp13
S'iters'
p14
I1
sS'meta'
p15
(lp16
(dp17
S'objective'
p18
I9
sS'query_time'
p19
F0.8626160621643066
sS'comp_time'
p20
F0.2052750587463379
sS'exec_cq'
p21
I5
sS'total_cq'
p22
I6
sasS'total_cqs'
p23
I6
ssI3
(dp24
S'iters'
p25
I12
sS'meta'
p26
(lp27
(dp28
S'objective'
p29
I439
sS'query_time'
p30
F26.46366310119629
sS'comp_time'
p31
F0.4685657024383545
sS'exec_cq'
p32
I15
sS'total_cq'
p33
I33
sa(dp34
g29
I380
sg30
F0.38282203674316406
sg31
F0.020920515060424805
sg32
I13
sg33
I30
sa(dp35
g29
I324
sg30
F0.02657318115234375
sg31
F0.25196170806884766
sg32
I12
sg33
I27
sa(dp36
g29
I264
sg30
F0.004456996917724609
sg31
F0.019516944885253906
sg32
I10
sg33
I24
sa(dp37
g29
I235
sg30
F0.02379012107849121
sg31
F0.24498772621154785
sg32
I9
sg33
I21
sa(dp38
g29
I163
sg30
F0.004168987274169922
sg31
F0.01954817771911621
sg32
I7
sg33
I18
sa(dp39
g29
I151
sg30
F0.012423038482666016
sg31
F0.1610870361328125
sg32
I6
sg33
I15
sa(dp40
g29
I120
sg30
F0.0006392002105712891
sg31
F0.0012664794921875
sg32
I3
sg33
I12
sa(dp41
g29
I91
sg30
F0.0028841495513916016
sg31
F0.016091108322143555
sg32
I4
sg33
I11
sa(dp42
g29
I68
sg30
F0.19108295440673828
sg31
F0.020032167434692383
sg32
I5
sg33
I9
sa(dp43
g29
I63
sg30
F0.0020160675048828125
sg31
F0.08935666084289551
sg32
I4
sg33
I8
sa(dp44
g29
I27
sg30
F0.002437114715576172
sg31
F0.015636205673217773
sg32
I2
sg33
I7
sasS'total_cqs'
p45
I33
ssI4
(dp46
S'iters'
p47
I0
sS'meta'
p48
(lp49
sS'total_cqs'
p50
I1
ssI5
(dp51
S'iters'
p52
I0
sS'meta'
p53
(lp54
sS'total_cqs'
p55
I1
ssI6
(dp56
S'iters'
p57
I2
sS'meta'
p58
(lp59
(dp60
S'objective'
p61
I1
sS'query_time'
p62
F15.48871111869812
sS'comp_time'
p63
F0.0077152252197265625
sS'exec_cq'
p64
I4
sS'total_cq'
p65
I5
sa(dp66
g61
I2
sg62
F5.817413330078125e-05
sg63
F0.0005078315734863281
sg64
I1
sg65
I2
sasS'total_cqs'
p67
I5
ssI7
(dp68
S'iters'
p69
I0
sS'meta'
p70
(lp71
sS'total_cqs'
p72
I1
ssI8
(dp73
S'iters'
p74
I2
sS'meta'
p75
(lp76
(dp77
S'objective'
p78
I19
sS'query_time'
p79
F23.435987949371338
sS'comp_time'
p80
F0.2825629711151123
sS'exec_cq'
p81
I5
sS'total_cq'
p82
I6
sa(dp83
g78
I8
sg79
F0.08590197563171387
sg80
F0.08483290672302246
sg81
I4
sg82
I5
sasS'total_cqs'
p84
I6
ssI9
(dp85
S'iters'
p86
I2
sS'meta'
p87
(lp88
(dp89
S'objective'
p90
I1
sS'query_time'
p91
F11.886759042739868
sS'comp_time'
p92
F0.5522089004516602
sS'exec_cq'
p93
I3
sS'total_cq'
p94
I6
sa(dp95
g90
I2
sg91
F0.04449105262756348
sg92
F0.4382338523864746
sg93
I3
sg94
I3
sasS'total_cqs'
p96
I6
ssI10
(dp97
S'iters'
p98
I0
sS'meta'
p99
(lp100
sS'total_cqs'
p101
I1
ssI11
(dp102
S'iters'
p103
I0
sS'meta'
p104
(lp105
sS'total_cqs'
p106
I1
ssI12
(dp107
S'iters'
p108
I0
sS'meta'
p109
(lp110
sS'total_cqs'
p111
I1
ssI13
(dp112
S'iters'
p113
I2
sS'meta'
p114
(lp115
(dp116
S'objective'
p117
I20
sS'query_time'
p118
F0.02562999725341797
sS'comp_time'
p119
F0.010007858276367188
sS'exec_cq'
p120
I6
sS'total_cq'
p121
I8
sa(dp122
g117
I14
sg118
F4.00543212890625e-05
sg119
F0.0001609325408935547
sg120
I5
sg121
I7
sasS'total_cqs'
p123
I8
ssI14
(dp124
S'iters'
p125
I1
sS'meta'
p126
(lp127
(dp128
S'objective'
p129
I5
sS'query_time'
p130
F1.0440728664398193
sS'comp_time'
p131
F0.013947725296020508
sS'exec_cq'
p132
I5
sS'total_cq'
p133
I5
sasS'total_cqs'
p134
I5
ssI16
(dp135
S'iters'
p136
I2
sS'meta'
p137
(lp138
(dp139
S'objective'
p140
I3
sS'query_time'
p141
F1.355431079864502
sS'comp_time'
p142
F0.01342010498046875
sS'exec_cq'
p143
I4
sS'total_cq'
p144
I5
sa(dp145
g140
I1
sg141
F5.412101745605469e-05
sg142
F0.00037360191345214844
sg143
I2
sg144
I3
sasS'total_cqs'
p146
I5
ssI17
(dp147
S'iters'
p148
I0
sS'meta'
p149
(lp150
sS'total_cqs'
p151
I1
ssI18
(dp152
S'iters'
p153
I3
sS'meta'
p154
(lp155
(dp156
S'objective'
p157
I1
sS'query_time'
p158
F0.23679614067077637
sS'comp_time'
p159
F0.003920316696166992
sS'exec_cq'
p160
I4
sS'total_cq'
p161
I5
sa(dp162
g157
I4
sg158
F3.600120544433594e-05
sg159
F0.00025653839111328125
sg160
I2
sg161
I3
sa(dp163
g157
I4
sg158
F0.053262948989868164
sg159
F0.0001850128173828125
sg160
I1
sg161
I2
sasS'total_cqs'
p164
I5
ssI19
(dp165
S'iters'
p166
I0
sS'meta'
p167
(lp168
sS'total_cqs'
p169
I1
ssI20
(dp170
S'iters'
p171
I5
sS'meta'
p172
(lp173
(dp174
S'objective'
p175
I42
sS'query_time'
p176
F9.792675018310547
sS'comp_time'
p177
F1.3371801376342773
sS'exec_cq'
p178
I6
sS'total_cq'
p179
I12
sa(dp180
g175
I30
sg176
F0.22379803657531738
sg177
F1.0707590579986572
sg178
I4
sg179
I10
sa(dp181
g175
I17
sg176
F3.917476177215576
sg177
F0.3305830955505371
sg178
I4
sg179
I8
sa(dp182
g175
I13
sg176
F0.06404900550842285
sg177
F0.7557501792907715
sg178
I2
sg179
I6
sa(dp183
g175
I2
sg176
F0.11465692520141602
sg177
F0.0062580108642578125
sg178
I1
sg179
I5
sasS'total_cqs'
p184
I12
ssI21
(dp185
S'iters'
p186
I5
sS'meta'
p187
(lp188
(dp189
S'objective'
p190
I63
sS'query_time'
p191
F30.84825086593628
sS'comp_time'
p192
F0.2421131134033203
sS'exec_cq'
p193
I8
sS'total_cq'
p194
I14
sa(dp195
g190
I38
sg191
F0.010900020599365234
sg192
F0.07086730003356934
sg193
I6
sg194
I12
sa(dp196
g190
I11
sg191
F29.847658157348633
sg192
F2.6821177005767822
sg193
I4
sg194
I8
sa(dp197
g190
I0
sg191
F0.0015091896057128906
sg192
F0.008475542068481445
sg193
I2
sg194
I4
sa(dp198
g190
I6
sg191
F0.012707948684692383
sg192
F0.00017261505126953125
sg193
I1
sg194
I2
sasS'total_cqs'
p199
I14
ssI22
(dp200
S'iters'
p201
I1
sS'meta'
p202
(lp203
(dp204
S'objective'
p205
I1
sS'query_time'
p206
F0.004352092742919922
sS'comp_time'
p207
F0.001962423324584961
sS'exec_cq'
p208
I1
sS'total_cq'
p209
I2
sasS'total_cqs'
p210
I2
ssI23
(dp211
S'iters'
p212
I0
sS'meta'
p213
(lp214
sS'total_cqs'
p215
I1
ssI24
(dp216
S'iters'
p217
I0
sS'meta'
p218
(lp219
sS'total_cqs'
p220
I1
ssI25
(dp221
S'iters'
p222
I4
sS'meta'
p223
(lp224
(dp225
S'objective'
p226
I14
sS'query_time'
p227
F47.357598066329956
sS'comp_time'
p228
F5.820908784866333
sS'exec_cq'
p229
I4
sS'total_cq'
p230
I7
sa(dp231
g226
I7
sg227
F4.8951098918914795
sg228
F0.3813941478729248
sg229
I2
sg230
I5
sa(dp232
g226
I6
sg227
F0.08464813232421875
sg228
F0.13839411735534668
sg229
I2
sg230
I3
sa(dp233
g226
I4
sg227
F0.0075740814208984375
sg228
F0.05805158615112305
sg229
I1
sg230
I2
sasS'total_cqs'
p234
I7
ssI26
(dp235
S'iters'
p236
I4
sS'meta'
p237
(lp238
(dp239
S'objective'
p240
I51
sS'query_time'
p241
F0.2614719867706299
sS'comp_time'
p242
F0.031258344650268555
sS'exec_cq'
p243
I4
sS'total_cq'
p244
I13
sa(dp245
g240
I51
sg241
F22.232660055160522
sg242
F4.902974843978882
sg243
I3
sg244
I11
sa(dp246
g240
I37
sg241
F0.0008971691131591797
sg242
F0.0048902034759521484
sg243
I2
sg244
I10
sa(dp247
g240
I27
sg241
F0.0031371116638183594
sg242
F7.796287536621094e-05
sg243
I1
sg244
I9
sasS'total_cqs'
p248
I13
ssI27
(dp249
S'iters'
p250
I1
sS'meta'
p251
(lp252
(dp253
S'objective'
p254
I1
sS'query_time'
p255
F0.19072604179382324
sS'comp_time'
p256
F0.008323907852172852
sS'exec_cq'
p257
I1
sS'total_cq'
p258
I2
sasS'total_cqs'
p259
I2
ssI28
(dp260
S'iters'
p261
I5
sS'meta'
p262
(lp263
(dp264
S'objective'
p265
I61
sS'query_time'
p266
F1.535240888595581
sS'comp_time'
p267
F0.13498711585998535
sS'exec_cq'
p268
I6
sS'total_cq'
p269
I14
sa(dp270
g265
I57
sg266
F0.003728151321411133
sg267
F0.027562856674194336
sg268
I3
sg269
I11
sa(dp271
g265
I42
sg266
F0.01051783561706543
sg267
F0.0006518363952636719
sg268
I1
sg269
I9
sa(dp272
g265
I30
sg266
F0.015503168106079102
sg267
F0.0008537769317626953
sg268
I1
sg269
I8
sa(dp273
g265
I19
sg266
F0.002894163131713867
sg267
F0.0001361370086669922
sg268
I1
sg269
I7
sasS'total_cqs'
p274
I14
ssI29
(dp275
S'iters'
p276
I1
sS'meta'
p277
(lp278
(dp279
S'objective'
p280
I1
sS'query_time'
p281
F0.042012929916381836
sS'comp_time'
p282
F0.001967906951904297
sS'exec_cq'
p283
I2
sS'total_cq'
p284
I2
sasS'total_cqs'
p285
I2
ssI30
(dp286
S'iters'
p287
I1
sS'meta'
p288
(lp289
(dp290
S'objective'
p291
I1
sS'query_time'
p292
F0.3351571559906006
sS'comp_time'
p293
F0.004508256912231445
sS'exec_cq'
p294
I2
sS'total_cq'
p295
I2
sasS'total_cqs'
p296
I2
ssI31
(dp297
S'iters'
p298
I2
sS'meta'
p299
(lp300
(dp301
S'objective'
p302
I19
sS'query_time'
p303
F1.8631868362426758
sS'comp_time'
p304
F0.04820394515991211
sS'exec_cq'
p305
I5
sS'total_cq'
p306
I9
sa(dp307
g302
I3
sg303
F0.008116960525512695
sg304
F0.10800051689147949
sg305
I3
sg306
I3
sasS'total_cqs'
p308
I9
ssI32
(dp309
S'iters'
p310
I3
sS'meta'
p311
(lp312
(dp313
S'objective'
p314
I2
sS'query_time'
p315
F21.56629204750061
sS'comp_time'
p316
F4.350722312927246
sS'exec_cq'
p317
I4
sS'total_cq'
p318
I7
sa(dp319
g314
I1
sg315
F1.0729401111602783
sg316
F0.02291584014892578
sg317
I2
sg318
I4
sa(dp320
g314
I6
sg315
F0.20804190635681152
sg316
F0.27210426330566406
sg317
I1
sg318
I2
sasS'total_cqs'
p321
I7
ssI33
(dp322
S'iters'
p323
I1
sS'meta'
p324
(lp325
(dp326
S'objective'
p327
I1
sS'query_time'
p328
F0.03254294395446777
sS'comp_time'
p329
F0.001886129379272461
sS'exec_cq'
p330
I2
sS'total_cq'
p331
I2
sasS'total_cqs'
p332
I2
ssI34
(dp333
S'iters'
p334
I0
sS'meta'
p335
(lp336
sS'total_cqs'
p337
I1
ssI35
(dp338
S'iters'
p339
I2
sS'meta'
p340
(lp341
(dp342
S'objective'
p343
I1
sS'query_time'
p344
F13.33892297744751
sS'comp_time'
p345
F0.3530731201171875
sS'exec_cq'
p346
I4
sS'total_cq'
p347
I5
sa(dp348
g343
I3
sg344
F0.1087942123413086
sg345
F0.0645592212677002
sg346
I2
sg347
I2
sasS'total_cqs'
p349
I5
ssI37
(dp350
S'iters'
p351
I2
sS'meta'
p352
(lp353
(dp354
S'objective'
p355
I17
sS'query_time'
p356
F0.5796771049499512
sS'comp_time'
p357
F0.09908699989318848
sS'exec_cq'
p358
I4
sS'total_cq'
p359
I10
sa(dp360
g355
I1
sg356
F0.006841897964477539
sg357
F0.026912212371826172
sg358
I2
sg359
I2
sasS'total_cqs'
p361
I10
ssI38
(dp362
S'iters'
p363
I0
sS'meta'
p364
(lp365
sS'total_cqs'
p366
I1
ssI39
(dp367
S'iters'
p368
I0
sS'meta'
p369
(lp370
sS'total_cqs'
p371
I1
ssI40
(dp372
S'iters'
p373
I1
sS'meta'
p374
(lp375
(dp376
S'objective'
p377
I1
sS'query_time'
p378
F0.0057010650634765625
sS'comp_time'
p379
F0.0005459785461425781
sS'exec_cq'
p380
I1
sS'total_cq'
p381
I2
sasS'total_cqs'
p382
I2
ssI41
(dp383
S'iters'
p384
I2
sS'meta'
p385
(lp386
(dp387
S'objective'
p388
I1
sS'query_time'
p389
F0.9270529747009277
sS'comp_time'
p390
F0.008926153182983398
sS'exec_cq'
p391
I2
sS'total_cq'
p392
I6
sa(dp393
g388
I1
sg389
F0.0012569427490234375
sg390
F0.0058441162109375
sg391
I2
sg392
I2
sasS'total_cqs'
p394
I6
ssI42
(dp395
S'iters'
p396
I1
sS'meta'
p397
(lp398
(dp399
S'objective'
p400
I1
sS'query_time'
p401
F0.006979942321777344
sS'comp_time'
p402
F0.0012383460998535156
sS'exec_cq'
p403
I1
sS'total_cq'
p404
I2
sasS'total_cqs'
p405
I2
ssI43
(dp406
S'iters'
p407
I0
sS'meta'
p408
(lp409
sS'total_cqs'
p410
I1
ssI44
(dp411
S'iters'
p412
I2
sS'meta'
p413
(lp414
(dp415
S'objective'
p416
I7
sS'query_time'
p417
F1.3251779079437256
sS'comp_time'
p418
F0.19537687301635742
sS'exec_cq'
p419
I2
sS'total_cq'
p420
I5
sa(dp421
g416
I1
sg417
F0.0033731460571289062
sg418
F0.00012111663818359375
sg419
I1
sg420
I4
sasS'total_cqs'
p422
I5
ssI45
(dp423
S'iters'
p424
I2
sS'meta'
p425
(lp426
(dp427
S'objective'
p428
I1
sS'query_time'
p429
F0.04481196403503418
sS'comp_time'
p430
F0.0027277469635009766
sS'exec_cq'
p431
I3
sS'total_cq'
p432
I5
sa(dp433
g428
I3
sg429
F0.00017309188842773438
sg430
F0.0007259845733642578
sg431
I2
sg432
I2
sasS'total_cqs'
p434
I5
ssI46
(dp435
S'iters'
p436
I0
sS'meta'
p437
(lp438
sS'total_cqs'
p439
I1
ssI47
(dp440
S'iters'
p441
I0
sS'meta'
p442
(lp443
sS'total_cqs'
p444
I1
ssI48
(dp445
S'iters'
p446
I1
sS'meta'
p447
(lp448
(dp449
S'objective'
p450
I1
sS'query_time'
p451
F0.0790560245513916
sS'comp_time'
p452
F0.0032241344451904297
sS'exec_cq'
p453
I2
sS'total_cq'
p454
I2
sasS'total_cqs'
p455
I2
ssI49
(dp456
S'iters'
p457
I2
sS'meta'
p458
(lp459
(dp460
S'objective'
p461
I1
sS'query_time'
p462
F0.17900800704956055
sS'comp_time'
p463
F0.005526065826416016
sS'exec_cq'
p464
I4
sS'total_cq'
p465
I5
sa(dp466
g461
I3
sg462
F0.0003581047058105469
sg463
F0.0020411014556884766
sg464
I2
sg465
I2
sasS'total_cqs'
p467
I5
ssI50
(dp468
S'iters'
p469
I1
sS'meta'
p470
(lp471
(dp472
S'objective'
p473
I5
sS'query_time'
p474
F0.6261639595031738
sS'comp_time'
p475
F0.0034029483795166016
sS'exec_cq'
p476
I5
sS'total_cq'
p477
I5
sasS'total_cqs'
p478
I5
ssI51
(dp479
S'iters'
p480
I0
sS'meta'
p481
(lp482
sS'total_cqs'
p483
I1
ssI52
(dp484
S'iters'
p485
I0
sS'meta'
p486
(lp487
sS'total_cqs'
p488
I1
ssI53
(dp489
S'iters'
p490
I0
sS'meta'
p491
(lp492
sS'total_cqs'
p493
I1
ssI55
(dp494
S'iters'
p495
I1
sS'meta'
p496
(lp497
(dp498
S'objective'
p499
I1
sS'query_time'
p500
F23.987541913986206
sS'comp_time'
p501
F2.6802618503570557
sS'exec_cq'
p502
I2
sS'total_cq'
p503
I2
sasS'total_cqs'
p504
I2
ssI56
(dp505
S'iters'
p506
I0
sS'meta'
p507
(lp508
sS'total_cqs'
p509
I1
ssI57
(dp510
S'iters'
p511
I2
sS'meta'
p512
(lp513
(dp514
S'objective'
p515
I0
sS'query_time'
p516
F12.100604772567749
sS'comp_time'
p517
F2.364802837371826
sS'exec_cq'
p518
I2
sS'total_cq'
p519
I3
sa(dp520
g515
I1
sg516
F0.43195581436157227
sg517
F1.926177978515625
sg518
I1
sg519
I2
sasS'total_cqs'
p521
I3
ssI108
(dp522
S'iters'
p523
I0
sS'meta'
p524
(lp525
sS'total_cqs'
p526
I1
ssI109
(dp527
S'iters'
p528
I0
sS'meta'
p529
(lp530
sS'total_cqs'
p531
I1
ssI116
(dp532
S'iters'
p533
I3
sS'meta'
p534
(lp535
(dp536
S'objective'
p537
I151
sS'query_time'
p538
F3.6212799549102783
sS'comp_time'
p539
F0.5090491771697998
sS'exec_cq'
p540
I9
sS'total_cq'
p541
I21
sa(dp542
g537
I117
sg538
F0.4822847843170166
sg539
F0.004002094268798828
sg540
I14
sg541
I19
sa(dp543
g537
I3
sg538
F0.0006539821624755859
sg539
F0.0031871795654296875
sg540
I2
sg541
I2
sasS'total_cqs'
p544
I21
ssI117
(dp545
S'iters'
p546
I2
sS'meta'
p547
(lp548
(dp549
S'objective'
p550
I7
sS'query_time'
p551
F0.0107879638671875
sS'comp_time'
p552
F0.0016536712646484375
sS'exec_cq'
p553
I3
sS'total_cq'
p554
I5
sa(dp555
g550
I1
sg551
F0.0026111602783203125
sg552
F8.893013000488281e-05
sg553
I1
sg554
I4
sasS'total_cqs'
p556
I5
ssI118
(dp557
S'iters'
p558
I0
sS'meta'
p559
(lp560
sS'total_cqs'
p561
I1
ssI122
(dp562
S'iters'
p563
I0
sS'meta'
p564
(lp565
sS'total_cqs'
p566
I1
ss.