(dp0
I1
(dp1
S'iters'
p2
I4
sS'meta'
p3
(lp4
(dp5
S'objective'
p6
I9
sS'query_time'
p7
F24.931051015853882
sS'comp_time'
p8
F0.00010514259338378906
sS'exec_cq'
p9
I1
sS'total_cq'
p10
I6
sa(dp11
g6
I3
sg7
F20.37759804725647
sg8
F0.000102996826171875
sg9
I1
sg10
I5
sa(dp12
g6
I5
sg7
F3.07184100151062
sg8
F5.602836608886719e-05
sg9
I1
sg10
I3
sa(dp13
g6
I1
sg7
F20.555870056152344
sg8
F6.079673767089844e-05
sg9
I1
sg10
I2
sasS'total_cqs'
p14
I6
ssI2
(dp15
S'iters'
p16
I1
sS'meta'
p17
(lp18
(dp19
S'objective'
p20
I13
sS'query_time'
p21
F0.7620270252227783
sS'comp_time'
p22
F7.390975952148438e-05
sS'exec_cq'
p23
I3
sS'total_cq'
p24
I6
sasS'total_cqs'
p25
I6
ssI3
(dp26
S'iters'
p27
I15
sS'meta'
p28
(lp29
(dp30
S'objective'
p31
I441
sS'query_time'
p32
F0.029530048370361328
sS'comp_time'
p33
F0.00011014938354492188
sS'exec_cq'
p34
I1
sS'total_cq'
p35
I33
sa(dp36
g31
I415
sg32
F0.01938009262084961
sg33
F5.507469177246094e-05
sg34
I1
sg35
I30
sa(dp37
g31
I396
sg32
F0.17374205589294434
sg33
F8.988380432128906e-05
sg34
I1
sg35
I28
sa(dp38
g31
I367
sg32
F0.0169980525970459
sg33
F6.222724914550781e-05
sg34
I1
sg35
I27
sa(dp39
g31
I307
sg32
F0.016232013702392578
sg33
F5.1021575927734375e-05
sg34
I1
sg35
I26
sa(dp40
g31
I296
sg32
F0.004468202590942383
sg33
F4.9114227294921875e-05
sg34
I1
sg35
I24
sa(dp41
g31
I270
sg32
F0.004132986068725586
sg33
F5.888938903808594e-05
sg34
I1
sg35
I23
sa(dp42
g31
I245
sg32
F48.99837899208069
sg33
F0.0001270771026611328
sg34
I1
sg35
I22
sa(dp43
g31
I195
sg32
F0.05330491065979004
sg33
F7.295608520507812e-05
sg34
I1
sg35
I21
sa(dp44
g31
I147
sg32
F0.3119220733642578
sg33
F8.082389831542969e-05
sg34
I1
sg35
I19
sa(dp45
g31
I114
sg32
F0.00985097885131836
sg33
F8.106231689453125e-05
sg34
I1
sg35
I16
sa(dp46
g31
I78
sg32
F0.018056154251098633
sg33
F4.482269287109375e-05
sg34
I1
sg35
I14
sa(dp47
g31
I75
sg32
F0.006880044937133789
sg33
F5.1021575927734375e-05
sg34
I1
sg35
I11
sa(dp48
g31
I57
sg32
F0.025588035583496094
sg33
F7.200241088867188e-05
sg34
I1
sg35
I10
sa(dp49
g31
I40
sg32
F0.16652894020080566
sg33
F7.605552673339844e-05
sg34
I1
sg35
I9
sasS'total_cqs'
p50
I33
ssI4
(dp51
S'iters'
p52
I0
sS'meta'
p53
(lp54
sS'total_cqs'
p55
I1
ssI5
(dp56
S'iters'
p57
I0
sS'meta'
p58
(lp59
sS'total_cqs'
p60
I1
ssI6
(dp61
S'iters'
p62
I2
sS'meta'
p63
(lp64
(dp65
S'objective'
p66
I3
sS'query_time'
p67
F8.455811023712158
sS'comp_time'
p68
F7.605552673339844e-05
sS'exec_cq'
p69
I1
sS'total_cq'
p70
I5
sa(dp71
g66
I1
sg67
F0.011778116226196289
sg68
F7.200241088867188e-05
sg69
I1
sg70
I3
sasS'total_cqs'
p72
I5
ssI7
(dp73
S'iters'
p74
I0
sS'meta'
p75
(lp76
sS'total_cqs'
p77
I1
ssI8
(dp78
S'iters'
p79
I3
sS'meta'
p80
(lp81
(dp82
S'objective'
p83
I9
sS'query_time'
p84
F21.928022146224976
sS'comp_time'
p85
F9.679794311523438e-05
sS'exec_cq'
p86
I1
sS'total_cq'
p87
I6
sa(dp88
g83
I5
sg84
F61.736812114715576
sg85
F9.989738464355469e-05
sg86
I1
sg87
I5
sa(dp89
g83
I2
sg84
F27.587902069091797
sg85
F0.0002560615539550781
sg86
I1
sg87
I4
sasS'total_cqs'
p90
I6
ssI9
(dp91
S'iters'
p92
I3
sS'meta'
p93
(lp94
(dp95
S'objective'
p96
I9
sS'query_time'
p97
F1.6336760520935059
sS'comp_time'
p98
F9.489059448242188e-05
sS'exec_cq'
p99
I1
sS'total_cq'
p100
I6
sa(dp101
g96
I5
sg97
F21.864811182022095
sg98
F0.0001709461212158203
sg99
I1
sg100
I5
sa(dp102
g96
I2
sg97
F3.2810537815093994
sg98
F0.0005650520324707031
sg99
I1
sg100
I4
sasS'total_cqs'
p103
I6
ssI10
(dp104
S'iters'
p105
I0
sS'meta'
p106
(lp107
sS'total_cqs'
p108
I1
ssI11
(dp109
S'iters'
p110
I0
sS'meta'
p111
(lp112
sS'total_cqs'
p113
I1
ssI12
(dp114
S'iters'
p115
I0
sS'meta'
p116
(lp117
sS'total_cqs'
p118
I1
ssI13
(dp119
S'iters'
p120
I1
sS'meta'
p121
(lp122
(dp123
S'objective'
p124
I26
sS'query_time'
p125
F0.20156002044677734
sS'comp_time'
p126
F6.4849853515625e-05
sS'exec_cq'
p127
I4
sS'total_cq'
p128
I8
sasS'total_cqs'
p129
I8
ssI14
(dp130
S'iters'
p131
I1
sS'meta'
p132
(lp133
(dp134
S'objective'
p135
I7
sS'query_time'
p136
F0.9836008548736572
sS'comp_time'
p137
F8.702278137207031e-05
sS'exec_cq'
p138
I2
sS'total_cq'
p139
I5
sasS'total_cqs'
p140
I5
ssI16
(dp141
S'iters'
p142
I2
sS'meta'
p143
(lp144
(dp145
S'objective'
p146
I1
sS'query_time'
p147
F4.306417942047119
sS'comp_time'
p148
F8.416175842285156e-05
sS'exec_cq'
p149
I1
sS'total_cq'
p150
I5
sa(dp151
g146
I1
sg147
F0.0525050163269043
sg148
F7.891654968261719e-05
sg149
I1
sg150
I3
sasS'total_cqs'
p152
I5
ssI17
(dp153
S'iters'
p154
I0
sS'meta'
p155
(lp156
sS'total_cqs'
p157
I1
ssI18
(dp158
S'iters'
p159
I3
sS'meta'
p160
(lp161
(dp162
S'objective'
p163
I3
sS'query_time'
p164
F5.50957989692688
sS'comp_time'
p165
F7.581710815429688e-05
sS'exec_cq'
p166
I1
sS'total_cq'
p167
I5
sa(dp168
g163
I5
sg164
F0.17918801307678223
sg165
F5.602836608886719e-05
sg166
I1
sg167
I3
sa(dp169
g163
I1
sg164
F0.20964479446411133
sg165
F8.296966552734375e-05
sg166
I2
sg167
I2
sasS'total_cqs'
p170
I5
ssI19
(dp171
S'iters'
p172
I0
sS'meta'
p173
(lp174
sS'total_cqs'
p175
I1
ssI20
(dp176
S'iters'
p177
I4
sS'meta'
p178
(lp179
(dp180
S'objective'
p181
I52
sS'query_time'
p182
F7.3851728439331055
sS'comp_time'
p183
F5.412101745605469e-05
sS'exec_cq'
p184
I1
sS'total_cq'
p185
I12
sa(dp186
g181
I25
sg182
F0.009391069412231445
sg183
F3.600120544433594e-05
sg184
I1
sg185
I10
sa(dp187
g181
I25
sg182
F0.876492977142334
sg183
F7.510185241699219e-05
sg184
I1
sg185
I8
sa(dp188
g181
I21
sg182
F0.10287308692932129
sg183
F6.794929504394531e-05
sg184
I2
sg185
I7
sasS'total_cqs'
p189
I12
ssI21
(dp190
S'iters'
p191
I6
sS'meta'
p192
(lp193
(dp194
S'objective'
p195
I65
sS'query_time'
p196
F0.6808879375457764
sS'comp_time'
p197
F9.489059448242188e-05
sS'exec_cq'
p198
I1
sS'total_cq'
p199
I14
sa(dp200
g195
I35
sg196
F20.441750049591064
sg197
F0.00011610984802246094
sg198
I1
sg199
I12
sa(dp201
g195
I32
sg196
F0.5730898380279541
sg197
F7.796287536621094e-05
sg198
I1
sg199
I10
sa(dp202
g195
I26
sg196
F0.27065110206604004
sg197
F7.486343383789062e-05
sg198
I1
sg199
I8
sa(dp203
g195
I14
sg196
F0.5292620658874512
sg197
F0.0003609657287597656
sg198
I1
sg199
I7
sa(dp204
g195
I9
sg196
F0.014453887939453125
sg197
F6.985664367675781e-05
sg198
I1
sg199
I5
sasS'total_cqs'
p205
I14
ssI22
(dp206
S'iters'
p207
I1
sS'meta'
p208
(lp209
(dp210
S'objective'
p211
I1
sS'query_time'
p212
F0.0049839019775390625
sS'comp_time'
p213
F5.602836608886719e-05
sS'exec_cq'
p214
I1
sS'total_cq'
p215
I2
sasS'total_cqs'
p216
I2
ssI23
(dp217
S'iters'
p218
I0
sS'meta'
p219
(lp220
sS'total_cqs'
p221
I1
ssI24
(dp222
S'iters'
p223
I0
sS'meta'
p224
(lp225
sS'total_cqs'
p226
I1
ssI25
(dp227
S'iters'
p228
I2
sS'meta'
p229
(lp230
(dp231
S'objective'
p232
I2
sS'query_time'
p233
F6.737530946731567
sS'comp_time'
p234
F7.200241088867188e-05
sS'exec_cq'
p235
I1
sS'total_cq'
p236
I7
sa(dp237
g232
I5
sg233
F0.20594286918640137
sg234
F7.605552673339844e-05
sg235
I1
sg236
I5
sasS'total_cqs'
p238
I7
ssI26
(dp239
S'iters'
p240
I6
sS'meta'
p241
(lp242
(dp243
S'objective'
p244
I65
sS'query_time'
p245
F0.04088711738586426
sS'comp_time'
p246
F6.079673767089844e-05
sS'exec_cq'
p247
I1
sS'total_cq'
p248
I13
sa(dp249
g244
I54
sg245
F0.033393144607543945
sg246
F6.604194641113281e-05
sg247
I1
sg248
I12
sa(dp250
g244
I44
sg245
F0.03486800193786621
sg246
F7.510185241699219e-05
sg247
I1
sg248
I11
sa(dp251
g244
I35
sg245
F19.981205940246582
sg246
F0.0002529621124267578
sg247
I1
sg248
I10
sa(dp252
g244
I21
sg245
F1.0275318622589111
sg246
F9.703636169433594e-05
sg247
I1
sg248
I9
sa(dp253
g244
I17
sg245
F0.007834196090698242
sg246
F7.009506225585938e-05
sg247
I1
sg248
I7
sasS'total_cqs'
p254
I13
ssI27
(dp255
S'iters'
p256
I1
sS'meta'
p257
(lp258
(dp259
S'objective'
p260
I1
sS'query_time'
p261
F0.41500306129455566
sS'comp_time'
p262
F8.511543273925781e-05
sS'exec_cq'
p263
I1
sS'total_cq'
p264
I2
sasS'total_cqs'
p265
I2
ssI28
(dp266
S'iters'
p267
I5
sS'meta'
p268
(lp269
(dp270
S'objective'
p271
I69
sS'query_time'
p272
F1.937870979309082
sS'comp_time'
p273
F8.678436279296875e-05
sS'exec_cq'
p274
I1
sS'total_cq'
p275
I14
sa(dp276
g271
I11
sg272
F1.624809980392456
sg273
F4.792213439941406e-05
sg274
I1
sg275
I12
sa(dp277
g271
I25
sg272
F0.9338569641113281
sg273
F5.602836608886719e-05
sg274
I1
sg275
I7
sa(dp278
g271
I15
sg272
F0.6987981796264648
sg273
F4.601478576660156e-05
sg274
I1
sg275
I6
sa(dp279
g271
I10
sg272
F0.35678982734680176
sg273
F3.790855407714844e-05
sg274
I1
sg275
I5
sasS'total_cqs'
p280
I14
ssI29
(dp281
S'iters'
p282
I1
sS'meta'
p283
(lp284
(dp285
S'objective'
p286
I1
sS'query_time'
p287
F0.005187034606933594
sS'comp_time'
p288
F5.3882598876953125e-05
sS'exec_cq'
p289
I1
sS'total_cq'
p290
I2
sasS'total_cqs'
p291
I2
ssI30
(dp292
S'iters'
p293
I1
sS'meta'
p294
(lp295
(dp296
S'objective'
p297
I1
sS'query_time'
p298
F0.45862913131713867
sS'comp_time'
p299
F8.20159912109375e-05
sS'exec_cq'
p300
I1
sS'total_cq'
p301
I2
sasS'total_cqs'
p302
I2
ssI31
(dp303
S'iters'
p304
I4
sS'meta'
p305
(lp306
(dp307
S'objective'
p308
I27
sS'query_time'
p309
F0.011565923690795898
sS'comp_time'
p310
F4.696846008300781e-05
sS'exec_cq'
p311
I1
sS'total_cq'
p312
I9
sa(dp313
g308
I12
sg309
F0.851747989654541
sg310
F7.891654968261719e-05
sg311
I1
sg312
I8
sa(dp314
g308
I0
sg309
F3.827677011489868
sg310
F4.100799560546875e-05
sg311
I1
sg312
I6
sa(dp315
g308
I0
sg309
F0.46213793754577637
sg310
F7.200241088867188e-05
sg311
I1
sg312
I4
sasS'total_cqs'
p316
I9
ssI32
(dp317
S'iters'
p318
I3
sS'meta'
p319
(lp320
(dp321
S'objective'
p322
I14
sS'query_time'
p323
F2.311466932296753
sS'comp_time'
p324
F0.0011620521545410156
sS'exec_cq'
p325
I1
sS'total_cq'
p326
I7
sa(dp327
g322
I1
sg323
F2.844115972518921
sg324
F0.0001590251922607422
sg325
I1
sg326
I6
sa(dp328
g322
I1
sg323
F0.11648797988891602
sg324
F6.890296936035156e-05
sg325
I1
sg326
I4
sasS'total_cqs'
p329
I7
ssI33
(dp330
S'iters'
p331
I1
sS'meta'
p332
(lp333
(dp334
S'objective'
p335
I1
sS'query_time'
p336
F0.030050992965698242
sS'comp_time'
p337
F6.198883056640625e-05
sS'exec_cq'
p338
I1
sS'total_cq'
p339
I2
sasS'total_cqs'
p340
I2
ssI34
(dp341
S'iters'
p342
I0
sS'meta'
p343
(lp344
sS'total_cqs'
p345
I1
ssI35
(dp346
S'iters'
p347
I3
sS'meta'
p348
(lp349
(dp350
S'objective'
p351
I3
sS'query_time'
p352
F6.386626958847046
sS'comp_time'
p353
F9.298324584960938e-05
sS'exec_cq'
p354
I1
sS'total_cq'
p355
I5
sa(dp356
g351
I5
sg352
F1.6458520889282227
sg353
F7.104873657226562e-05
sg354
I1
sg355
I3
sa(dp357
g351
I1
sg352
F0.09028100967407227
sg353
F2.8848648071289062e-05
sg354
I1
sg355
I2
sasS'total_cqs'
p358
I5
ssI37
(dp359
S'iters'
p360
I4
sS'meta'
p361
(lp362
(dp363
S'objective'
p364
I35
sS'query_time'
p365
F0.010467052459716797
sS'comp_time'
p366
F4.506111145019531e-05
sS'exec_cq'
p367
I1
sS'total_cq'
p368
I10
sa(dp369
g364
I27
sg365
F0.6253819465637207
sg366
F8.416175842285156e-05
sg367
I1
sg368
I9
sa(dp370
g364
I8
sg365
F8.78062105178833
sg366
F6.699562072753906e-05
sg367
I1
sg368
I8
sa(dp371
g364
I2
sg365
F0.0014939308166503906
sg366
F2.8848648071289062e-05
sg367
I1
sg368
I2
sasS'total_cqs'
p372
I10
ssI38
(dp373
S'iters'
p374
I0
sS'meta'
p375
(lp376
sS'total_cqs'
p377
I1
ssI39
(dp378
S'iters'
p379
I0
sS'meta'
p380
(lp381
sS'total_cqs'
p382
I1
ssI40
(dp383
S'iters'
p384
I1
sS'meta'
p385
(lp386
(dp387
S'objective'
p388
I1
sS'query_time'
p389
F17.544216871261597
sS'comp_time'
p390
F0.0004649162292480469
sS'exec_cq'
p391
I2
sS'total_cq'
p392
I2
sasS'total_cqs'
p393
I2
ssI41
(dp394
S'iters'
p395
I4
sS'meta'
p396
(lp397
(dp398
S'objective'
p399
I9
sS'query_time'
p400
F0.3295419216156006
sS'comp_time'
p401
F8.893013000488281e-05
sS'exec_cq'
p402
I1
sS'total_cq'
p403
I6
sa(dp404
g399
I5
sg400
F9.720117807388306
sg401
F0.0002028942108154297
sg402
I1
sg403
I5
sa(dp405
g399
I4
sg400
F0.32279014587402344
sg401
F5.3882598876953125e-05
sg402
I1
sg403
I4
sa(dp406
g399
I1
sg400
F65.74634194374084
sg401
F7.200241088867188e-05
sg402
I2
sg403
I2
sasS'total_cqs'
p407
I6
ssI42
(dp408
S'iters'
p409
I1
sS'meta'
p410
(lp411
(dp412
S'objective'
p413
I1
sS'query_time'
p414
F0.010304927825927734
sS'comp_time'
p415
F6.29425048828125e-05
sS'exec_cq'
p416
I1
sS'total_cq'
p417
I2
sasS'total_cqs'
p418
I2
ssI43
(dp419
S'iters'
p420
I0
sS'meta'
p421
(lp422
sS'total_cqs'
p423
I1
ssI44
(dp424
S'iters'
p425
I2
sS'meta'
p426
(lp427
(dp428
S'objective'
p429
I5
sS'query_time'
p430
F0.8798398971557617
sS'comp_time'
p431
F6.818771362304688e-05
sS'exec_cq'
p432
I1
sS'total_cq'
p433
I5
sa(dp434
g429
I2
sg430
F0.004564046859741211
sg431
F3.695487976074219e-05
sg432
I1
sg433
I4
sasS'total_cqs'
p435
I5
ssI45
(dp436
S'iters'
p437
I2
sS'meta'
p438
(lp439
(dp440
S'objective'
p441
I5
sS'query_time'
p442
F5.308874845504761
sS'comp_time'
p443
F5.3882598876953125e-05
sS'exec_cq'
p444
I1
sS'total_cq'
p445
I5
sa(dp446
g441
I2
sg442
F0.007796049118041992
sg443
F7.796287536621094e-05
sg444
I1
sg445
I4
sasS'total_cqs'
p447
I5
ssI46
(dp448
S'iters'
p449
I0
sS'meta'
p450
(lp451
sS'total_cqs'
p452
I1
ssI47
(dp453
S'iters'
p454
I0
sS'meta'
p455
(lp456
sS'total_cqs'
p457
I1
ssI48
(dp458
S'iters'
p459
I1
sS'meta'
p460
(lp461
(dp462
S'objective'
p463
I1
sS'query_time'
p464
F0.14354896545410156
sS'comp_time'
p465
F5.316734313964844e-05
sS'exec_cq'
p466
I1
sS'total_cq'
p467
I2
sasS'total_cqs'
p468
I2
ssI49
(dp469
S'iters'
p470
I1
sS'meta'
p471
(lp472
(dp473
S'objective'
p474
I7
sS'query_time'
p475
F0.08719801902770996
sS'comp_time'
p476
F6.413459777832031e-05
sS'exec_cq'
p477
I2
sS'total_cq'
p478
I5
sasS'total_cqs'
p479
I5
ssI50
(dp480
S'iters'
p481
I2
sS'meta'
p482
(lp483
(dp484
S'objective'
p485
I5
sS'query_time'
p486
F0.007684946060180664
sS'comp_time'
p487
F4.410743713378906e-05
sS'exec_cq'
p488
I1
sS'total_cq'
p489
I5
sa(dp490
g485
I2
sg486
F0.8241078853607178
sg487
F8.797645568847656e-05
sg488
I1
sg489
I4
sasS'total_cqs'
p491
I5
ssI51
(dp492
S'iters'
p493
I0
sS'meta'
p494
(lp495
sS'total_cqs'
p496
I1
ssI52
(dp497
S'iters'
p498
I0
sS'meta'
p499
(lp500
sS'total_cqs'
p501
I1
ssI53
(dp502
S'iters'
p503
I0
sS'meta'
p504
(lp505
sS'total_cqs'
p506
I1
ssI55
(dp507
S'iters'
p508
I1
sS'meta'
p509
(lp510
(dp511
S'objective'
p512
I1
sS'query_time'
p513
F13.40554404258728
sS'comp_time'
p514
F6.008148193359375e-05
sS'exec_cq'
p515
I1
sS'total_cq'
p516
I2
sasS'total_cqs'
p517
I2
ssI56
(dp518
S'iters'
p519
I0
sS'meta'
p520
(lp521
sS'total_cqs'
p522
I1
ssI57
(dp523
S'iters'
p524
I1
sS'meta'
p525
(lp526
(dp527
S'objective'
p528
I0
sS'query_time'
p529
F11.791981220245361
sS'comp_time'
p530
F0.00037789344787597656
sS'exec_cq'
p531
I1
sS'total_cq'
p532
I3
sasS'total_cqs'
p533
I3
ssI108
(dp534
S'iters'
p535
I0
sS'meta'
p536
(lp537
sS'total_cqs'
p538
I1
ssI109
(dp539
S'iters'
p540
I0
sS'meta'
p541
(lp542
sS'total_cqs'
p543
I1
ssI116
(dp544
S'iters'
p545
I4
sS'meta'
p546
(lp547
(dp548
S'objective'
p549
I193
sS'query_time'
p550
F1.0916080474853516
sS'comp_time'
p551
F7.605552673339844e-05
sS'exec_cq'
p552
I7
sS'total_cq'
p553
I21
sa(dp554
g549
I184
sg550
F0.10349702835083008
sg551
F6.818771362304688e-05
sg552
I7
sg553
I19
sa(dp555
g549
I160
sg550
F1.7308621406555176
sg551
F7.200241088867188e-05
sg552
I8
sg553
I18
sa(dp556
g549
I5
sg550
F0.0011010169982910156
sg551
F2.9087066650390625e-05
sg552
I1
sg553
I2
sasS'total_cqs'
p557
I21
ssI117
(dp558
S'iters'
p559
I1
sS'meta'
p560
(lp561
(dp562
S'objective'
p563
I7
sS'query_time'
p564
F0.007033824920654297
sS'comp_time'
p565
F4.506111145019531e-05
sS'exec_cq'
p566
I2
sS'total_cq'
p567
I5
sasS'total_cqs'
p568
I5
ssI118
(dp569
S'iters'
p570
I0
sS'meta'
p571
(lp572
sS'total_cqs'
p573
I1
ssI122
(dp574
S'iters'
p575
I0
sS'meta'
p576
(lp577
sS'total_cqs'
p578
I1
ss.