(dp0
I1
(dp1
S'iters'
p2
I3
sS'meta'
p3
(lp4
(dp5
S'objective'
p6
I13
sS'query_time'
p7
F26.90165090560913
sS'comp_time'
p8
F0.08518409729003906
sS'exec_cq'
p9
I6
sS'total_cq'
p10
I6
sa(dp11
g6
I3
sg7
F0.00967097282409668
sg8
F1.2700350284576416
sg9
I5
sg10
I5
sa(dp12
g6
I5
sg7
F0.009994983673095703
sg8
F233.2573709487915
sg9
I2
sg10
I2
sasS'total_cqs'
p13
I6
ssI2
(dp14
S'iters'
p15
I1
sS'meta'
p16
(lp17
(dp18
S'objective'
p19
I19
sS'query_time'
p20
F0.9164199829101562
sS'comp_time'
p21
F0.0809330940246582
sS'exec_cq'
p22
I6
sS'total_cq'
p23
I6
sasS'total_cqs'
p24
I6
ssI3
(dp25
S'iters'
p26
I16
sS'meta'
p27
(lp28
(dp29
S'objective'
p30
I431
sS'query_time'
p31
F26.214627981185913
sS'comp_time'
p32
F0.22629523277282715
sS'exec_cq'
p33
I33
sS'total_cq'
p34
I33
sa(dp35
g30
I368
sg31
F0.07977700233459473
sg32
F0.23035717010498047
sg33
I30
sg34
I30
sa(dp36
g30
I330
sg31
F0.023685932159423828
sg32
F0.16984796524047852
sg33
I27
sg34
I27
sa(dp37
g30
I281
sg31
F0.010184049606323242
sg32
F0.08445215225219727
sg33
I24
sg34
I24
sa(dp38
g30
I241
sg31
F0.008732080459594727
sg32
F0.04618406295776367
sg33
I21
sg34
I21
sa(dp39
g30
I204
sg31
F0.009064197540283203
sg32
F0.045301198959350586
sg33
I19
sg34
I19
sa(dp40
g30
I171
sg31
F0.02865910530090332
sg32
F0.041311025619506836
sg33
I16
sg34
I16
sa(dp41
g30
I144
sg31
F0.006577014923095703
sg32
F0.05194401741027832
sg33
I13
sg34
I13
sa(dp42
g30
I124
sg31
F0.006492137908935547
sg32
F0.028994083404541016
sg33
I12
sg34
I12
sa(dp43
g30
I102
sg31
F0.005283832550048828
sg32
F0.051494598388671875
sg33
I11
sg34
I11
sa(dp44
g30
I86
sg31
F0.005581855773925781
sg32
F0.029300928115844727
sg33
I10
sg34
I10
sa(dp45
g30
I72
sg31
F0.0028388500213623047
sg32
F0.03670501708984375
sg33
I9
sg34
I9
sa(dp46
g30
I61
sg31
F0.0027000904083251953
sg32
F0.01563096046447754
sg33
I8
sg34
I8
sa(dp47
g30
I47
sg31
F0.002696990966796875
sg32
F0.013773918151855469
sg33
I7
sg34
I7
sa(dp48
g30
I35
sg31
F0.002341032028198242
sg32
F0.014821767807006836
sg33
I4
sg34
I4
sa(dp49
g30
I46
sg31
F0.0019941329956054688
sg32
F0.010822057723999023
sg33
I3
sg34
I3
sasS'total_cqs'
p50
I33
ssI6
(dp51
S'iters'
p52
I3
sS'meta'
p53
(lp54
(dp55
S'objective'
p56
I1
sS'query_time'
p57
F14.239039897918701
sS'comp_time'
p58
F0.003690958023071289
sS'exec_cq'
p59
I5
sS'total_cq'
p60
I5
sa(dp61
g56
I0
sg57
F0.0005578994750976562
sg58
F0.002145051956176758
sg59
I3
sg60
I3
sa(dp62
g56
I2
sg57
F0.00019288063049316406
sg58
F0.0008738040924072266
sg59
I2
sg60
I2
sasS'total_cqs'
p63
I5
ssI8
(dp64
S'iters'
p65
I4
sS'meta'
p66
(lp67
(dp68
S'objective'
p69
I13
sS'query_time'
p70
F22.807846069335938
sS'comp_time'
p71
F0.26773500442504883
sS'exec_cq'
p72
I6
sS'total_cq'
p73
I6
sa(dp74
g69
I1
sg70
F1.893075942993164
sg71
F1.8025949001312256
sg72
I5
sg73
I5
sa(dp75
g69
I1
sg70
F0.0034332275390625
sg71
F0.0025238990783691406
sg72
I3
sg73
I3
sa(dp76
g69
I2
sg70
F1.8615968227386475
sg71
F1.912142038345337
sg72
I2
sg73
I2
sasS'total_cqs'
p77
I6
ssI9
(dp78
S'iters'
p79
I3
sS'meta'
p80
(lp81
(dp82
S'objective'
p83
I1
sS'query_time'
p84
F52.38608908653259
sS'comp_time'
p85
F4.100493907928467
sS'exec_cq'
p86
I6
sS'total_cq'
p87
I6
sa(dp88
g83
I0
sg84
F0.06371712684631348
sg85
F0.5527679920196533
sg86
I3
sg87
I3
sa(dp89
g83
I3
sg84
F0.03932905197143555
sg85
F0.3162839412689209
sg86
I2
sg87
I2
sasS'total_cqs'
p90
I6
ssI13
(dp91
S'iters'
p92
I2
sS'meta'
p93
(lp94
(dp95
S'objective'
p96
I30
sS'query_time'
p97
F0.02341485023498535
sS'comp_time'
p98
F0.00014495849609375
sS'exec_cq'
p99
I8
sS'total_cq'
p100
I8
sa(dp101
g96
I31
sg97
F3.2901763916015625e-05
sg98
F5.1021575927734375e-05
sg99
I7
sg100
I7
sasS'total_cqs'
p102
I8
ssI14
(dp103
S'iters'
p104
I3
sS'meta'
p105
(lp106
(dp107
S'objective'
p108
I5
sS'query_time'
p109
F1.1049201488494873
sS'comp_time'
p110
F0.006634950637817383
sS'exec_cq'
p111
I5
sS'total_cq'
p112
I5
sa(dp113
g108
I6
sg109
F0.0006549358367919922
sg110
F0.0029010772705078125
sg111
I4
sg112
I4
sa(dp114
g108
I6
sg109
F0.00044608116149902344
sg110
F0.0022640228271484375
sg111
I3
sg112
I3
sasS'total_cqs'
p115
I5
ssI16
(dp116
S'iters'
p117
I3
sS'meta'
p118
(lp119
(dp120
S'objective'
p121
I1
sS'query_time'
p122
F1.5485310554504395
sS'comp_time'
p123
F0.007016181945800781
sS'exec_cq'
p124
I5
sS'total_cq'
p125
I5
sa(dp126
g121
I1
sg122
F0.0015718936920166016
sg123
F0.005962848663330078
sg124
I3
sg125
I3
sa(dp127
g121
I1
sg122
F0.0011789798736572266
sg123
F0.0058248043060302734
sg124
I2
sg125
I2
sasS'total_cqs'
p128
I5
ssI18
(dp129
S'iters'
p130
I3
sS'meta'
p131
(lp132
(dp133
S'objective'
p134
I1
sS'query_time'
p135
F0.31328296661376953
sS'comp_time'
p136
F0.0003209114074707031
sS'exec_cq'
p137
I5
sS'total_cq'
p138
I5
sa(dp139
g134
I1
sg135
F5.91278076171875e-05
sg136
F0.0001881122589111328
sg137
I3
sg138
I3
sa(dp140
g134
I1
sg135
F3.0040740966796875e-05
sg136
F0.0001323223114013672
sg137
I2
sg138
I2
sasS'total_cqs'
p141
I5
ssI20
(dp142
S'iters'
p143
I6
sS'meta'
p144
(lp145
(dp146
S'objective'
p147
I36
sS'query_time'
p148
F11.539280891418457
sS'comp_time'
p149
F1.172616958618164
sS'exec_cq'
p150
I12
sS'total_cq'
p151
I12
sa(dp152
g147
I31
sg148
F0.25720906257629395
sg149
F1.0224969387054443
sg150
I10
sg151
I10
sa(dp153
g147
I20
sg148
F0.1633930206298828
sg149
F0.6038088798522949
sg150
I8
sg151
I8
sa(dp154
g147
I10
sg148
F0.14438509941101074
sg149
F0.4859170913696289
sg150
I6
sg151
I6
sa(dp155
g147
I7
sg148
F0.0029799938201904297
sg149
F0.0034956932067871094
sg150
I5
sg151
I5
sa(dp156
g147
I12
sg148
F0.0006339550018310547
sg149
F0.0031740665435791016
sg150
I4
sg151
I4
sasS'total_cqs'
p157
I12
ssI21
(dp158
S'iters'
p159
I4
sS'meta'
p160
(lp161
(dp162
S'objective'
p163
I37
sS'query_time'
p164
F29.40337586402893
sS'comp_time'
p165
F0.22405195236206055
sS'exec_cq'
p166
I14
sS'total_cq'
p167
I14
sa(dp168
g163
I1
sg164
F0.024991989135742188
sg165
F0.26170992851257324
sg166
I10
sg167
I10
sa(dp169
g163
I8
sg164
F0.015964984893798828
sg165
F0.12219691276550293
sg166
I6
sg167
I6
sa(dp170
g163
I12
sg164
F0.008157968521118164
sg165
F0.019662857055664062
sg166
I2
sg167
I2
sasS'total_cqs'
p171
I14
ssI22
(dp172
S'iters'
p173
I1
sS'meta'
p174
(lp175
(dp176
S'objective'
p177
I1
sS'query_time'
p178
F0.0059909820556640625
sS'comp_time'
p179
F0.00013113021850585938
sS'exec_cq'
p180
I2
sS'total_cq'
p181
I2
sasS'total_cqs'
p182
I2
ssI25
(dp183
S'iters'
p184
I3
sS'meta'
p185
(lp186
(dp187
S'objective'
p188
I4
sS'query_time'
p189
F86.68319201469421
sS'comp_time'
p190
F9.964983940124512
sS'exec_cq'
p191
I7
sS'total_cq'
p192
I7
sa(dp193
g188
I2
sg189
F0.23117303848266602
sg190
F2.398460865020752
sg191
I4
sg192
I4
sa(dp194
g188
I3
sg189
F0.4869499206542969
sg190
F1.6782710552215576
sg191
I2
sg192
I2
sasS'total_cqs'
p195
I7
ssI26
(dp196
S'iters'
p197
I9
sS'meta'
p198
(lp199
(dp200
S'objective'
p201
I49
sS'query_time'
p202
F24.062825918197632
sS'comp_time'
p203
F3.0273730754852295
sS'exec_cq'
p204
I13
sS'total_cq'
p205
I13
sa(dp206
g201
I32
sg202
F0.7508158683776855
sg203
F3.1780779361724854
sg204
I11
sg205
I11
sa(dp207
g201
I25
sg202
F0.7441709041595459
sg203
F3.123321056365967
sg204
I9
sg205
I9
sa(dp208
g201
I18
sg202
F0.7550389766693115
sg203
F2.9356367588043213
sg204
I8
sg205
I8
sa(dp209
g201
I12
sg202
F0.8287839889526367
sg203
F2.9911441802978516
sg204
I7
sg205
I7
sa(dp210
g201
I6
sg202
F0.7710978984832764
sg203
F2.9371159076690674
sg204
I5
sg205
I5
sa(dp211
g201
I1
sg202
F0.721574068069458
sg203
F3.109422206878662
sg204
I4
sg205
I4
sa(dp212
g201
I1
sg202
F0.7650401592254639
sg203
F2.886838912963867
sg204
I3
sg205
I3
sa(dp213
g201
I1
sg202
F0.8527648448944092
sg203
F3.1620099544525146
sg204
I2
sg205
I2
sasS'total_cqs'
p214
I13
ssI27
(dp215
S'iters'
p216
I1
sS'meta'
p217
(lp218
(dp219
S'objective'
p220
I1
sS'query_time'
p221
F0.16421198844909668
sS'comp_time'
p222
F0.004637956619262695
sS'exec_cq'
p223
I2
sS'total_cq'
p224
I2
sasS'total_cqs'
p225
I2
ssI28
(dp226
S'iters'
p227
I7
sS'meta'
p228
(lp229
(dp230
S'objective'
p231
I43
sS'query_time'
p232
F1.7553927898406982
sS'comp_time'
p233
F0.02741408348083496
sS'exec_cq'
p234
I14
sS'total_cq'
p235
I14
sa(dp236
g231
I16
sg232
F0.003690004348754883
sg233
F0.020572900772094727
sg234
I10
sg235
I10
sa(dp237
g231
I5
sg232
F0.003103017807006836
sg233
F0.036746978759765625
sg234
I7
sg235
I7
sa(dp238
g231
I2
sg232
F0.003345012664794922
sg233
F0.016490936279296875
sg234
I5
sg235
I5
sa(dp239
g231
I1
sg232
F0.0026121139526367188
sg233
F0.015170097351074219
sg234
I4
sg235
I4
sa(dp240
g231
I0
sg232
F0.0030961036682128906
sg233
F0.015504121780395508
sg234
I3
sg235
I3
sa(dp241
g231
I1
sg232
F0.002560138702392578
sg233
F0.015175819396972656
sg234
I2
sg235
I2
sasS'total_cqs'
p242
I14
ssI29
(dp243
S'iters'
p244
I1
sS'meta'
p245
(lp246
(dp247
S'objective'
p248
I1
sS'query_time'
p249
F0.006940126419067383
sS'comp_time'
p250
F0.00011396408081054688
sS'exec_cq'
p251
I2
sS'total_cq'
p252
I2
sasS'total_cqs'
p253
I2
ssI30
(dp254
S'iters'
p255
I1
sS'meta'
p256
(lp257
(dp258
S'objective'
p259
I1
sS'query_time'
p260
F0.41925501823425293
sS'comp_time'
p261
F0.006055593490600586
sS'exec_cq'
p262
I2
sS'total_cq'
p263
I2
sasS'total_cqs'
p264
I2
ssI31
(dp265
S'iters'
p266
I6
sS'meta'
p267
(lp268
(dp269
S'objective'
p270
I19
sS'query_time'
p271
F6.409252882003784
sS'comp_time'
p272
F0.14745092391967773
sS'exec_cq'
p273
I9
sS'total_cq'
p274
I9
sa(dp275
g270
I8
sg271
F0.041693925857543945
sg272
F0.15025925636291504
sg273
I7
sg274
I7
sa(dp276
g270
I2
sg271
F0.006669044494628906
sg272
F0.02527785301208496
sg273
I5
sg274
I5
sa(dp277
g270
I1
sg271
F0.006078958511352539
sg272
F0.025494098663330078
sg273
I4
sg274
I4
sa(dp278
g270
I0
sg271
F0.005811929702758789
sg272
F0.05106091499328613
sg273
I3
sg274
I3
sa(dp279
g270
I1
sg271
F0.0026900768280029297
sg272
F0.013236045837402344
sg273
I2
sg274
I2
sasS'total_cqs'
p280
I9
ssI32
(dp281
S'iters'
p282
I4
sS'meta'
p283
(lp284
(dp285
S'objective'
p286
I2
sS'query_time'
p287
F19.194488048553467
sS'comp_time'
p288
F2.8233489990234375
sS'exec_cq'
p289
I7
sS'total_cq'
p290
I7
sa(dp291
g286
I1
sg287
F0.29557013511657715
sg288
F1.021000862121582
sg289
I4
sg290
I4
sa(dp292
g286
I0
sg287
F0.006414175033569336
sg288
F0.10557794570922852
sg289
I3
sg290
I3
sa(dp293
g286
I1
sg287
F0.0031630992889404297
sg288
F0.0173947811126709
sg289
I2
sg290
I2
sasS'total_cqs'
p294
I7
ssI33
(dp295
S'iters'
p296
I1
sS'meta'
p297
(lp298
(dp299
S'objective'
p300
I1
sS'query_time'
p301
F0.044838905334472656
sS'comp_time'
p302
F0.00013017654418945312
sS'exec_cq'
p303
I2
sS'total_cq'
p304
I2
sasS'total_cqs'
p305
I2
ssI35
(dp306
S'iters'
p307
I3
sS'meta'
p308
(lp309
(dp310
S'objective'
p311
I1
sS'query_time'
p312
F16.32561182975769
sS'comp_time'
p313
F0.2381000518798828
sS'exec_cq'
p314
I5
sS'total_cq'
p315
I5
sa(dp316
g311
I1
sg312
F0.038539886474609375
sg313
F0.1452198028564453
sg314
I3
sg315
I3
sa(dp317
g311
I1
sg312
F0.051722049713134766
sg313
F0.07535409927368164
sg314
I2
sg315
I2
sasS'total_cqs'
p318
I5
ssI37
(dp319
S'iters'
p320
I3
sS'meta'
p321
(lp322
(dp323
S'objective'
p324
I25
sS'query_time'
p325
F2.5014941692352295
sS'comp_time'
p326
F0.11741399765014648
sS'exec_cq'
p327
I10
sS'total_cq'
p328
I10
sa(dp329
g324
I1
sg325
F0.028383970260620117
sg326
F0.03606224060058594
sg327
I3
sg328
I3
sa(dp330
g324
I5
sg325
F0.0027930736541748047
sg326
F0.011467933654785156
sg327
I2
sg328
I2
sasS'total_cqs'
p331
I10
ssI40
(dp332
S'iters'
p333
I1
sS'meta'
p334
(lp335
(dp336
S'objective'
p337
I1
sS'query_time'
p338
F17.55803418159485
sS'comp_time'
p339
F2.7165169715881348
sS'exec_cq'
p340
I2
sS'total_cq'
p341
I2
sasS'total_cqs'
p342
I2
ssI41
(dp343
S'iters'
p344
I3
sS'meta'
p345
(lp346
(dp347
S'objective'
p348
I3
sS'query_time'
p349
F12.254330158233643
sS'comp_time'
p350
F1.3542728424072266
sS'exec_cq'
p351
I6
sS'total_cq'
p352
I6
sa(dp353
g348
I1
sg349
F0.002165079116821289
sg350
F0.006876945495605469
sg351
I3
sg352
I3
sa(dp354
g348
I2
sg349
F0.0007231235504150391
sg350
F0.003490924835205078
sg351
I2
sg352
I2
sasS'total_cqs'
p355
I6
ssI42
(dp356
S'iters'
p357
I1
sS'meta'
p358
(lp359
(dp360
S'objective'
p361
I1
sS'query_time'
p362
F17.387216091156006
sS'comp_time'
p363
F2.5010719299316406
sS'exec_cq'
p364
I2
sS'total_cq'
p365
I2
sasS'total_cqs'
p366
I2
ssI44
(dp367
S'iters'
p368
I3
sS'meta'
p369
(lp370
(dp371
S'objective'
p372
I5
sS'query_time'
p373
F1.5322279930114746
sS'comp_time'
p374
F0.09604811668395996
sS'exec_cq'
p375
I5
sS'total_cq'
p376
I5
sa(dp377
g372
I0
sg373
F0.02135610580444336
sg374
F0.1413581371307373
sg375
I3
sg376
I3
sa(dp378
g372
I3
sg373
F0.012295007705688477
sg374
F0.08118987083435059
sg375
I2
sg376
I2
sasS'total_cqs'
p379
I5
ssI45
(dp380
S'iters'
p381
I2
sS'meta'
p382
(lp383
(dp384
S'objective'
p385
I9
sS'query_time'
p386
F0.05542898178100586
sS'comp_time'
p387
F0.0006422996520996094
sS'exec_cq'
p388
I5
sS'total_cq'
p389
I5
sa(dp390
g385
I1
sg386
F0.000141143798828125
sg387
F0.0006337165832519531
sg388
I2
sg389
I2
sasS'total_cqs'
p391
I5
ssI48
(dp392
S'iters'
p393
I1
sS'meta'
p394
(lp395
(dp396
S'objective'
p397
I1
sS'query_time'
p398
F0.1290590763092041
sS'comp_time'
p399
F0.0059053897857666016
sS'exec_cq'
p400
I2
sS'total_cq'
p401
I2
sasS'total_cqs'
p402
I2
ssI49
(dp403
S'iters'
p404
I3
sS'meta'
p405
(lp406
(dp407
S'objective'
p408
I1
sS'query_time'
p409
F0.24476099014282227
sS'comp_time'
p410
F0.006165027618408203
sS'exec_cq'
p411
I5
sS'total_cq'
p412
I5
sa(dp413
g408
I2
sg409
F0.0003139972686767578
sg410
F0.0017580986022949219
sg411
I3
sg412
I3
sa(dp414
g408
I1
sg409
F2.47955322265625e-05
sg410
F0.00010585784912109375
sg411
I2
sg412
I2
sasS'total_cqs'
p415
I5
ssI50
(dp416
S'iters'
p417
I4
sS'meta'
p418
(lp419
(dp420
S'objective'
p421
I5
sS'query_time'
p422
F0.9895889759063721
sS'comp_time'
p423
F0.0013098716735839844
sS'exec_cq'
p424
I5
sS'total_cq'
p425
I5
sa(dp426
g421
I2
sg422
F0.0002090930938720703
sg423
F0.0012259483337402344
sg424
I4
sg425
I4
sa(dp427
g421
I0
sg422
F0.0002028942108154297
sg423
F0.0009279251098632812
sg424
I3
sg425
I3
sa(dp428
g421
I1
sg422
F0.00010895729064941406
sg423
F0.0005953311920166016
sg424
I2
sg425
I2
sasS'total_cqs'
p429
I5
ssI55
(dp430
S'iters'
p431
I1
sS'meta'
p432
(lp433
(dp434
S'objective'
p435
I1
sS'query_time'
p436
F26.356261014938354
sS'comp_time'
p437
F3.680906057357788
sS'exec_cq'
p438
I2
sS'total_cq'
p439
I2
sasS'total_cqs'
p440
I2
ssI57
(dp441
S'iters'
p442
I2
sS'meta'
p443
(lp444
(dp445
S'objective'
p446
I2
sS'query_time'
p447
F14.284430980682373
sS'comp_time'
p448
F1.7289271354675293
sS'exec_cq'
p449
I3
sS'total_cq'
p450
I3
sa(dp451
g446
I2
sg447
F0.29768800735473633
sg448
F1.3501617908477783
sg449
I2
sg450
I2
sasS'total_cqs'
p452
I3
ssI116
(dp453
S'iters'
p454
I3
sS'meta'
p455
(lp456
(dp457
S'objective'
p458
I177
sS'query_time'
p459
F5.4343180656433105
sS'comp_time'
p460
F0.2875080108642578
sS'exec_cq'
p461
I21
sS'total_cq'
p462
I21
sa(dp463
g458
I9
sg459
F0.0012848377227783203
sg460
F0.004168987274169922
sg461
I3
sg462
I3
sa(dp464
g458
I7
sg459
F0.0007078647613525391
sg460
F0.002743959426879883
sg461
I2
sg462
I2
sasS'total_cqs'
p465
I21
ssI117
(dp466
S'iters'
p467
I2
sS'meta'
p468
(lp469
(dp470
S'objective'
p471
I7
sS'query_time'
p472
F0.023714065551757812
sS'comp_time'
p473
F0.00011181831359863281
sS'exec_cq'
p474
I5
sS'total_cq'
p475
I5
sa(dp476
g471
I9
sg472
F2.4080276489257812e-05
sg473
F4.1961669921875e-05
sg474
I4
sg475
I4
sasS'total_cqs'
p477
I5
ss.