(dp0
I1
(dp1
S'iters'
p2
I2
sS'meta'
p3
(lp4
(dp5
S'objective'
p6
I3
sS'query_time'
p7
F16.6698899269104
sS'comp_time'
p8
F0.23913002014160156
sS'exec_cq'
p9
I3
sS'total_cq'
p10
I6
sa(dp11
g6
I3
sg7
F0.07475614547729492
sg8
F0.2065134048461914
sg9
I2
sg10
I2
sasS'total_cqs'
p12
I6
ssI2
(dp13
S'iters'
p14
I1
sS'meta'
p15
(lp16
(dp17
S'objective'
p18
I9
sS'query_time'
p19
F0.8901989459991455
sS'comp_time'
p20
F0.03480124473571777
sS'exec_cq'
p21
I5
sS'total_cq'
p22
I6
sasS'total_cqs'
p23
I6
ssI3
(dp24
S'iters'
p25
I6
sS'meta'
p26
(lp27
(dp28
S'objective'
p29
I433
sS'query_time'
p30
F26.06204891204834
sS'comp_time'
p31
F0.2268381118774414
sS'exec_cq'
p32
I33
sS'total_cq'
p33
I33
sa(dp34
g29
I403
sg30
F0.0238037109375
sg31
F0.11838746070861816
sg32
I30
sg33
I30
sa(dp35
g29
I362
sg30
F0.017442941665649414
sg31
F0.11870026588439941
sg32
I27
sg33
I27
sa(dp36
g29
I324
sg30
F0.008440017700195312
sg31
F0.01558542251586914
sg32
I24
sg33
I24
sa(dp37
g29
I283
sg30
F0.06322479248046875
sg31
F0.012661457061767578
sg32
I21
sg33
I21
sa(dp38
g29
I258
sg30
F0.007470130920410156
sg31
F0.01348567008972168
sg32
I19
sg33
I19
sasS'total_cqs'
p39
I33
ssI4
(dp40
S'iters'
p41
I0
sS'meta'
p42
(lp43
sS'total_cqs'
p44
I1
ssI5
(dp45
S'iters'
p46
I0
sS'meta'
p47
(lp48
sS'total_cqs'
p49
I1
ssI6
(dp50
S'iters'
p51
I2
sS'meta'
p52
(lp53
(dp54
S'objective'
p55
I1
sS'query_time'
p56
F15.766567945480347
sS'comp_time'
p57
F0.005529165267944336
sS'exec_cq'
p58
I4
sS'total_cq'
p59
I5
sa(dp60
g55
I2
sg56
F0.00010514259338378906
sg57
F0.00024890899658203125
sg58
I1
sg59
I2
sasS'total_cqs'
p61
I5
ssI7
(dp62
S'iters'
p63
I0
sS'meta'
p64
(lp65
sS'total_cqs'
p66
I1
ssI8
(dp67
S'iters'
p68
I2
sS'meta'
p69
(lp70
(dp71
S'objective'
p72
I13
sS'query_time'
p73
F23.39969801902771
sS'comp_time'
p74
F0.09881711006164551
sS'exec_cq'
p75
I5
sS'total_cq'
p76
I6
sa(dp77
g72
I5
sg73
F0.0876779556274414
sg74
F0.00011110305786132812
sg75
I4
sg76
I5
sasS'total_cqs'
p78
I6
ssI9
(dp79
S'iters'
p80
I2
sS'meta'
p81
(lp82
(dp83
S'objective'
p84
I1
sS'query_time'
p85
F11.474288940429688
sS'comp_time'
p86
F0.05895280838012695
sS'exec_cq'
p87
I3
sS'total_cq'
p88
I6
sa(dp89
g84
I1
sg85
F0.0606839656829834
sg86
F0.3998250961303711
sg87
I3
sg88
I3
sasS'total_cqs'
p90
I6
ssI10
(dp91
S'iters'
p92
I0
sS'meta'
p93
(lp94
sS'total_cqs'
p95
I1
ssI11
(dp96
S'iters'
p97
I0
sS'meta'
p98
(lp99
sS'total_cqs'
p100
I1
ssI12
(dp101
S'iters'
p102
I0
sS'meta'
p103
(lp104
sS'total_cqs'
p105
I1
ssI13
(dp106
S'iters'
p107
I1
sS'meta'
p108
(lp109
(dp110
S'objective'
p111
I20
sS'query_time'
p112
F0.023869037628173828
sS'comp_time'
p113
F0.008909940719604492
sS'exec_cq'
p114
I6
sS'total_cq'
p115
I8
sasS'total_cqs'
p116
I8
ssI14
(dp117
S'iters'
p118
I1
sS'meta'
p119
(lp120
(dp121
S'objective'
p122
I5
sS'query_time'
p123
F0.9915339946746826
sS'comp_time'
p124
F0.005030632019042969
sS'exec_cq'
p125
I5
sS'total_cq'
p126
I5
sasS'total_cqs'
p127
I5
ssI16
(dp128
S'iters'
p129
I2
sS'meta'
p130
(lp131
(dp132
S'objective'
p133
I1
sS'query_time'
p134
F1.2303030490875244
sS'comp_time'
p135
F0.006546497344970703
sS'exec_cq'
p136
I4
sS'total_cq'
p137
I5
sa(dp138
g133
I3
sg134
F0.0011858940124511719
sg135
F0.0018270015716552734
sg136
I2
sg137
I2
sasS'total_cqs'
p139
I5
ssI17
(dp140
S'iters'
p141
I0
sS'meta'
p142
(lp143
sS'total_cqs'
p144
I1
ssI18
(dp145
S'iters'
p146
I3
sS'meta'
p147
(lp148
(dp149
S'objective'
p150
I1
sS'query_time'
p151
F0.18337106704711914
sS'comp_time'
p152
F0.004301309585571289
sS'exec_cq'
p153
I4
sS'total_cq'
p154
I5
sa(dp155
g150
I4
sg151
F3.886222839355469e-05
sg152
F0.00017189979553222656
sg153
I2
sg154
I3
sa(dp156
g150
I4
sg151
F0.06061601638793945
sg152
F3.4809112548828125e-05
sg153
I1
sg154
I2
sasS'total_cqs'
p157
I5
ssI19
(dp158
S'iters'
p159
I0
sS'meta'
p160
(lp161
sS'total_cqs'
p162
I1
ssI20
(dp163
S'iters'
p164
I2
sS'meta'
p165
(lp166
(dp167
S'objective'
p168
I52
sS'query_time'
p169
F14.209259271621704
sS'comp_time'
p170
F0.7372417449951172
sS'exec_cq'
p171
I10
sS'total_cq'
p172
I12
sa(dp173
g168
I41
sg169
F0.41509485244750977
sg170
F0.5062410831451416
sg171
I9
sg172
I10
sasS'total_cqs'
p174
I12
ssI21
(dp175
S'iters'
p176
I3
sS'meta'
p177
(lp178
(dp179
S'objective'
p180
I67
sS'query_time'
p181
F29.490140914916992
sS'comp_time'
p182
F0.13950657844543457
sS'exec_cq'
p183
I8
sS'total_cq'
p184
I14
sa(dp185
g180
I52
sg181
F30.00886106491089
sg182
F0.9274852275848389
sg183
I10
sg184
I12
sa(dp186
g180
I41
sg181
F0.026728153228759766
sg182
F0.01958775520324707
sg183
I7
sg184
I9
sasS'total_cqs'
p187
I14
ssI22
(dp188
S'iters'
p189
I1
sS'meta'
p190
(lp191
(dp192
S'objective'
p193
I1
sS'query_time'
p194
F0.01029515266418457
sS'comp_time'
p195
F0.0010497570037841797
sS'exec_cq'
p196
I1
sS'total_cq'
p197
I2
sasS'total_cqs'
p198
I2
ssI23
(dp199
S'iters'
p200
I0
sS'meta'
p201
(lp202
sS'total_cqs'
p203
I1
ssI24
(dp204
S'iters'
p205
I0
sS'meta'
p206
(lp207
sS'total_cqs'
p208
I1
ssI25
(dp209
S'iters'
p210
I2
sS'meta'
p211
(lp212
(dp213
S'objective'
p214
I10
sS'query_time'
p215
F53.470277070999146
sS'comp_time'
p216
F1.608607292175293
sS'exec_cq'
p217
I6
sS'total_cq'
p218
I7
sa(dp219
g214
I5
sg215
F1.1206049919128418
sg216
F1.838388204574585
sg217
I5
sg218
I5
sasS'total_cqs'
p220
I7
ssI26
(dp221
S'iters'
p222
I2
sS'meta'
p223
(lp224
(dp225
S'objective'
p226
I59
sS'query_time'
p227
F23.80642795562744
sS'comp_time'
p228
F1.9567921161651611
sS'exec_cq'
p229
I7
sS'total_cq'
p230
I13
sa(dp231
g226
I49
sg227
F0.8114917278289795
sg228
F3.3083465099334717
sg229
I6
sg230
I11
sasS'total_cqs'
p232
I13
ssI27
(dp233
S'iters'
p234
I1
sS'meta'
p235
(lp236
(dp237
S'objective'
p238
I1
sS'query_time'
p239
F0.1907339096069336
sS'comp_time'
p240
F0.002125263214111328
sS'exec_cq'
p241
I1
sS'total_cq'
p242
I2
sasS'total_cqs'
p243
I2
ssI28
(dp244
S'iters'
p245
I3
sS'meta'
p246
(lp247
(dp248
S'objective'
p249
I55
sS'query_time'
p250
F1.3921821117401123
sS'comp_time'
p251
F0.07903504371643066
sS'exec_cq'
p252
I6
sS'total_cq'
p253
I14
sa(dp254
g249
I50
sg250
F0.0028438568115234375
sg251
F0.006146907806396484
sg252
I4
sg253
I12
sa(dp255
g249
I37
sg250
F0.003289937973022461
sg251
F6.604194641113281e-05
sg252
I1
sg253
I9
sasS'total_cqs'
p256
I14
ssI29
(dp257
S'iters'
p258
I1
sS'meta'
p259
(lp260
(dp261
S'objective'
p262
I1
sS'query_time'
p263
F0.010938167572021484
sS'comp_time'
p264
F0.0024938583374023438
sS'exec_cq'
p265
I2
sS'total_cq'
p266
I2
sasS'total_cqs'
p267
I2
ssI30
(dp268
S'iters'
p269
I1
sS'meta'
p270
(lp271
(dp272
S'objective'
p273
I1
sS'query_time'
p274
F0.3668828010559082
sS'comp_time'
p275
F0.002210855484008789
sS'exec_cq'
p276
I2
sS'total_cq'
p277
I2
sasS'total_cqs'
p278
I2
ssI31
(dp279
S'iters'
p280
I2
sS'meta'
p281
(lp282
(dp283
S'objective'
p284
I5
sS'query_time'
p285
F1.6181848049163818
sS'comp_time'
p286
F0.03079390525817871
sS'exec_cq'
p287
I5
sS'total_cq'
p288
I9
sa(dp289
g284
I2
sg285
F0.011111021041870117
sg286
F0.04028892517089844
sg287
I3
sg288
I3
sasS'total_cqs'
p290
I9
ssI32
(dp291
S'iters'
p292
I2
sS'meta'
p293
(lp294
(dp295
S'objective'
p296
I2
sS'query_time'
p297
F20.865402936935425
sS'comp_time'
p298
F1.8959593772888184
sS'exec_cq'
p299
I4
sS'total_cq'
p300
I7
sa(dp301
g296
I1
sg297
F0.08966898918151855
sg298
F0.00022792816162109375
sg299
I1
sg300
I4
sasS'total_cqs'
p302
I7
ssI33
(dp303
S'iters'
p304
I1
sS'meta'
p305
(lp306
(dp307
S'objective'
p308
I1
sS'query_time'
p309
F0.025892972946166992
sS'comp_time'
p310
F0.0017688274383544922
sS'exec_cq'
p311
I2
sS'total_cq'
p312
I2
sasS'total_cqs'
p313
I2
ssI34
(dp314
S'iters'
p315
I0
sS'meta'
p316
(lp317
sS'total_cqs'
p318
I1
ssI35
(dp319
S'iters'
p320
I2
sS'meta'
p321
(lp322
(dp323
S'objective'
p324
I1
sS'query_time'
p325
F14.000488042831421
sS'comp_time'
p326
F0.12520623207092285
sS'exec_cq'
p327
I4
sS'total_cq'
p328
I5
sa(dp329
g324
I2
sg325
F0.0009930133819580078
sg326
F0.00034332275390625
sg327
I1
sg328
I2
sasS'total_cqs'
p330
I5
ssI37
(dp331
S'iters'
p332
I2
sS'meta'
p333
(lp334
(dp335
S'objective'
p336
I31
sS'query_time'
p337
F1.8165528774261475
sS'comp_time'
p338
F0.20905613899230957
sS'exec_cq'
p339
I8
sS'total_cq'
p340
I10
sa(dp341
g336
I8
sg337
F0.004590034484863281
sg338
F0.005773305892944336
sg339
I2
sg340
I2
sasS'total_cqs'
p342
I10
ssI38
(dp343
S'iters'
p344
I0
sS'meta'
p345
(lp346
sS'total_cqs'
p347
I1
ssI39
(dp348
S'iters'
p349
I0
sS'meta'
p350
(lp351
sS'total_cqs'
p352
I1
ssI40
(dp353
S'iters'
p354
I1
sS'meta'
p355
(lp356
(dp357
S'objective'
p358
I1
sS'query_time'
p359
F0.002995014190673828
sS'comp_time'
p360
F0.0010309219360351562
sS'exec_cq'
p361
I1
sS'total_cq'
p362
I2
sasS'total_cqs'
p363
I2
ssI41
(dp364
S'iters'
p365
I3
sS'meta'
p366
(lp367
(dp368
S'objective'
p369
I3
sS'query_time'
p370
F10.38090205192566
sS'comp_time'
p371
F0.7744832038879395
sS'exec_cq'
p372
I3
sS'total_cq'
p373
I6
sa(dp374
g369
I2
sg370
F0.7230868339538574
sg371
F0.0007190704345703125
sg372
I2
sg373
I4
sa(dp375
g369
I5
sg370
F0.0006899833679199219
sg371
F0.0009436607360839844
sg372
I2
sg373
I2
sasS'total_cqs'
p376
I6
ssI42
(dp377
S'iters'
p378
I1
sS'meta'
p379
(lp380
(dp381
S'objective'
p382
I1
sS'query_time'
p383
F0.03687310218811035
sS'comp_time'
p384
F0.0016815662384033203
sS'exec_cq'
p385
I1
sS'total_cq'
p386
I2
sasS'total_cqs'
p387
I2
ssI43
(dp388
S'iters'
p389
I0
sS'meta'
p390
(lp391
sS'total_cqs'
p392
I1
ssI44
(dp393
S'iters'
p394
I2
sS'meta'
p395
(lp396
(dp397
S'objective'
p398
I1
sS'query_time'
p399
F0.36343908309936523
sS'comp_time'
p400
F0.0025272369384765625
sS'exec_cq'
p401
I2
sS'total_cq'
p402
I5
sa(dp403
g398
I2
sg399
F0.9895529747009277
sg400
F0.043453216552734375
sg401
I3
sg402
I3
sasS'total_cqs'
p404
I5
ssI45
(dp405
S'iters'
p406
I2
sS'meta'
p407
(lp408
(dp409
S'objective'
p410
I3
sS'query_time'
p411
F0.031158924102783203
sS'comp_time'
p412
F0.002092123031616211
sS'exec_cq'
p413
I3
sS'total_cq'
p414
I5
sa(dp415
g410
I1
sg411
F0.00016808509826660156
sg412
F0.00023055076599121094
sg413
I2
sg414
I2
sasS'total_cqs'
p416
I5
ssI46
(dp417
S'iters'
p418
I0
sS'meta'
p419
(lp420
sS'total_cqs'
p421
I1
ssI47
(dp422
S'iters'
p423
I0
sS'meta'
p424
(lp425
sS'total_cqs'
p426
I1
ssI48
(dp427
S'iters'
p428
I1
sS'meta'
p429
(lp430
(dp431
S'objective'
p432
I1
sS'query_time'
p433
F0.09273600578308105
sS'comp_time'
p434
F0.0017101764678955078
sS'exec_cq'
p435
I2
sS'total_cq'
p436
I2
sasS'total_cqs'
p437
I2
ssI49
(dp438
S'iters'
p439
I2
sS'meta'
p440
(lp441
(dp442
S'objective'
p443
I1
sS'query_time'
p444
F0.26376914978027344
sS'comp_time'
p445
F0.003662109375
sS'exec_cq'
p446
I4
sS'total_cq'
p447
I5
sa(dp448
g443
I3
sg444
F0.000286102294921875
sg445
F0.0004906654357910156
sg446
I2
sg447
I2
sasS'total_cqs'
p449
I5
ssI50
(dp450
S'iters'
p451
I1
sS'meta'
p452
(lp453
(dp454
S'objective'
p455
I5
sS'query_time'
p456
F0.6150400638580322
sS'comp_time'
p457
F0.0019330978393554688
sS'exec_cq'
p458
I5
sS'total_cq'
p459
I5
sasS'total_cqs'
p460
I5
ssI51
(dp461
S'iters'
p462
I0
sS'meta'
p463
(lp464
sS'total_cqs'
p465
I1
ssI52
(dp466
S'iters'
p467
I0
sS'meta'
p468
(lp469
sS'total_cqs'
p470
I1
ssI53
(dp471
S'iters'
p472
I0
sS'meta'
p473
(lp474
sS'total_cqs'
p475
I1
ssI55
(dp476
S'iters'
p477
I1
sS'meta'
p478
(lp479
(dp480
S'objective'
p481
I1
sS'query_time'
p482
F24.427287101745605
sS'comp_time'
p483
F0.017750024795532227
sS'exec_cq'
p484
I2
sS'total_cq'
p485
I2
sasS'total_cqs'
p486
I2
ssI56
(dp487
S'iters'
p488
I0
sS'meta'
p489
(lp490
sS'total_cqs'
p491
I1
ssI57
(dp492
S'iters'
p493
I1
sS'meta'
p494
(lp495
(dp496
S'objective'
p497
I0
sS'query_time'
p498
F12.934863805770874
sS'comp_time'
p499
F0.8586432933807373
sS'exec_cq'
p500
I2
sS'total_cq'
p501
I3
sasS'total_cqs'
p502
I3
ssI108
(dp503
S'iters'
p504
I0
sS'meta'
p505
(lp506
sS'total_cqs'
p507
I1
ssI109
(dp508
S'iters'
p509
I0
sS'meta'
p510
(lp511
sS'total_cqs'
p512
I1
ssI116
(dp513
S'iters'
p514
I2
sS'meta'
p515
(lp516
(dp517
S'objective'
p518
I155
sS'query_time'
p519
F0.5310742855072021
sS'comp_time'
p520
F0.15223407745361328
sS'exec_cq'
p521
I14
sS'total_cq'
p522
I21
sa(dp523
g518
I4
sg519
F0.0006608963012695312
sg520
F0.0008902549743652344
sg521
I2
sg522
I2
sasS'total_cqs'
p524
I21
ssI117
(dp525
S'iters'
p526
I1
sS'meta'
p527
(lp528
(dp529
S'objective'
p530
I5
sS'query_time'
p531
F0.015670061111450195
sS'comp_time'
p532
F0.0019211769104003906
sS'exec_cq'
p533
I4
sS'total_cq'
p534
I5
sasS'total_cqs'
p535
I5
ssI118
(dp536
S'iters'
p537
I0
sS'meta'
p538
(lp539
sS'total_cqs'
p540
I1
ssI122
(dp541
S'iters'
p542
I0
sS'meta'
p543
(lp544
sS'total_cqs'
p545
I1
ss.