(dp0
I1
(dp1
S'iters'
p2
I3
sS'meta'
p3
(lp4
(dp5
S'objective'
p6
I9
sS'query_time'
p7
F0.009768009185791016
sS'comp_time'
p8
F7.295608520507812e-05
sS'exec_cq'
p9
I1
sS'total_cq'
p10
I6
sa(dp11
g6
I5
sg7
F16.35693907737732
sg8
F0.0006611347198486328
sg9
I1
sg10
I5
sa(dp12
g6
I2
sg7
F0.5367851257324219
sg8
F7.200241088867188e-05
sg9
I1
sg10
I4
sasS'total_cqs'
p13
I6
ssI2
(dp14
S'iters'
p15
I1
sS'meta'
p16
(lp17
(dp18
S'objective'
p19
I13
sS'query_time'
p20
F0.7792999744415283
sS'comp_time'
p21
F6.794929504394531e-05
sS'exec_cq'
p22
I3
sS'total_cq'
p23
I6
sasS'total_cqs'
p24
I6
ssI3
(dp25
S'iters'
p26
I14
sS'meta'
p27
(lp28
(dp29
S'objective'
p30
I433
sS'query_time'
p31
F1.3266291618347168
sS'comp_time'
p32
F0.0001270771026611328
sS'exec_cq'
p33
I1
sS'total_cq'
p34
I33
sa(dp35
g30
I433
sg31
F0.04356122016906738
sg32
F0.00010013580322265625
sg33
I1
sg34
I30
sa(dp36
g30
I343
sg31
F0.01541590690612793
sg32
F8.296966552734375e-05
sg33
I1
sg34
I29
sa(dp37
g30
I310
sg31
F0.7410778999328613
sg32
F0.00011706352233886719
sg33
I1
sg34
I27
sa(dp38
g30
I275
sg31
F0.01207590103149414
sg32
F7.009506225585938e-05
sg33
I1
sg34
I24
sa(dp39
g30
I202
sg31
F0.05503416061401367
sg32
F8.0108642578125e-05
sg33
I1
sg34
I22
sa(dp40
g30
I207
sg31
F0.05592799186706543
sg32
F8.487701416015625e-05
sg33
I1
sg34
I19
sa(dp41
g30
I183
sg31
F0.48705315589904785
sg32
F0.0001270771026611328
sg33
I1
sg34
I18
sa(dp42
g30
I160
sg31
F0.18082404136657715
sg32
F8.702278137207031e-05
sg33
I1
sg34
I17
sa(dp43
g30
I98
sg31
F0.014199018478393555
sg32
F7.271766662597656e-05
sg33
I1
sg34
I16
sa(dp44
g30
I97
sg31
F0.007205009460449219
sg32
F6.008148193359375e-05
sg33
I1
sg34
I13
sa(dp45
g30
I79
sg31
F0.006128072738647461
sg32
F5.6743621826171875e-05
sg33
I1
sg34
I12
sa(dp46
g30
I61
sg31
F0.00630497932434082
sg32
F6.198883056640625e-05
sg33
I1
sg34
I11
sa(dp47
g30
I44
sg31
F0.20148205757141113
sg32
F7.200241088867188e-05
sg33
I1
sg34
I10
sasS'total_cqs'
p48
I33
ssI6
(dp49
S'iters'
p50
I3
sS'meta'
p51
(lp52
(dp53
S'objective'
p54
I3
sS'query_time'
p55
F8.856529951095581
sS'comp_time'
p56
F0.00010800361633300781
sS'exec_cq'
p57
I1
sS'total_cq'
p58
I5
sa(dp59
g54
I3
sg55
F4.111438989639282
sg56
F0.0001461505889892578
sg57
I1
sg58
I3
sa(dp60
g54
I2
sg55
F29.52654504776001
sg56
F0.00013518333435058594
sg57
I1
sg58
I2
sasS'total_cqs'
p61
I5
ssI8
(dp62
S'iters'
p63
I3
sS'meta'
p64
(lp65
(dp66
S'objective'
p67
I11
sS'query_time'
p68
F22.132811069488525
sS'comp_time'
p69
F0.0004220008850097656
sS'exec_cq'
p70
I2
sS'total_cq'
p71
I6
sa(dp72
g67
I2
sg68
F41.72694206237793
sg69
F0.009638071060180664
sg70
I3
sg71
I5
sa(dp73
g67
I1
sg68
F0.04554009437561035
sg69
F0.00010013580322265625
sg70
I2
sg71
I3
sasS'total_cqs'
p74
I6
ssI9
(dp75
S'iters'
p76
I2
sS'meta'
p77
(lp78
(dp79
S'objective'
p80
I1
sS'query_time'
p81
F12.942288160324097
sS'comp_time'
p82
F0.000125885009765625
sS'exec_cq'
p83
I1
sS'total_cq'
p84
I6
sa(dp85
g80
I2
sg81
F0.08574199676513672
sg82
F9.989738464355469e-05
sg83
I1
sg84
I2
sasS'total_cqs'
p86
I6
ssI13
(dp87
S'iters'
p88
I2
sS'meta'
p89
(lp90
(dp91
S'objective'
p92
I24
sS'query_time'
p93
F8.841856956481934
sS'comp_time'
p94
F0.00016808509826660156
sS'exec_cq'
p95
I3
sS'total_cq'
p96
I8
sa(dp97
g92
I20
sg93
F0.06885004043579102
sg94
F0.00013113021850585938
sg95
I3
sg96
I7
sasS'total_cqs'
p98
I8
ssI14
(dp99
S'iters'
p100
I2
sS'meta'
p101
(lp102
(dp103
S'objective'
p104
I5
sS'query_time'
p105
F0.0242769718170166
sS'comp_time'
p106
F6.985664367675781e-05
sS'exec_cq'
p107
I1
sS'total_cq'
p108
I5
sa(dp109
g104
I2
sg105
F1.2561440467834473
sg106
F9.083747863769531e-05
sg107
I1
sg108
I4
sasS'total_cqs'
p110
I5
ssI16
(dp111
S'iters'
p112
I2
sS'meta'
p113
(lp114
(dp115
S'objective'
p116
I5
sS'query_time'
p117
F1.7927110195159912
sS'comp_time'
p118
F7.700920104980469e-05
sS'exec_cq'
p119
I1
sS'total_cq'
p120
I5
sa(dp121
g116
I2
sg117
F0.05450797080993652
sg118
F8.726119995117188e-05
sg119
I1
sg120
I4
sasS'total_cqs'
p122
I5
ssI18
(dp123
S'iters'
p124
I3
sS'meta'
p125
(lp126
(dp127
S'objective'
p128
I5
sS'query_time'
p129
F0.0999760627746582
sS'comp_time'
p130
F7.295608520507812e-05
sS'exec_cq'
p131
I1
sS'total_cq'
p132
I5
sa(dp133
g128
I2
sg129
F0.32573485374450684
sg130
F9.894371032714844e-05
sg131
I1
sg132
I4
sa(dp134
g128
I2
sg129
F0.3809959888458252
sg130
F0.000102996826171875
sg131
I2
sg132
I2
sasS'total_cqs'
p135
I5
ssI20
(dp136
S'iters'
p137
I3
sS'meta'
p138
(lp139
(dp140
S'objective'
p141
I52
sS'query_time'
p142
F0.028738021850585938
sS'comp_time'
p143
F8.296966552734375e-05
sS'exec_cq'
p144
I1
sS'total_cq'
p145
I12
sa(dp146
g141
I41
sg142
F9.910265922546387
sg143
F0.0003380775451660156
sg144
I3
sg145
I10
sa(dp147
g141
I39
sg142
F0.1018829345703125
sg143
F7.104873657226562e-05
sg144
I4
sg145
I8
sasS'total_cqs'
p148
I12
ssI21
(dp149
S'iters'
p150
I5
sS'meta'
p151
(lp152
(dp153
S'objective'
p154
I53
sS'query_time'
p155
F24.220762968063354
sS'comp_time'
p156
F0.00022935867309570312
sS'exec_cq'
p157
I2
sS'total_cq'
p158
I14
sa(dp159
g154
I53
sg155
F10.39120602607727
sg156
F0.00026798248291015625
sg157
I2
sg158
I12
sa(dp160
g154
I44
sg155
F0.507814884185791
sg156
F9.322166442871094e-05
sg157
I2
sg158
I10
sa(dp161
g154
I37
sg155
F0.26903581619262695
sg156
F8.296966552734375e-05
sg157
I2
sg158
I8
sa(dp162
g154
I30
sg155
F0.018611907958984375
sg156
F8.678436279296875e-05
sg157
I2
sg158
I7
sasS'total_cqs'
p163
I14
ssI22
(dp164
S'iters'
p165
I1
sS'meta'
p166
(lp167
(dp168
S'objective'
p169
I1
sS'query_time'
p170
F0.00453495979309082
sS'comp_time'
p171
F6.794929504394531e-05
sS'exec_cq'
p172
I1
sS'total_cq'
p173
I2
sasS'total_cqs'
p174
I2
ssI25
(dp175
S'iters'
p176
I1
sS'meta'
p177
(lp178
(dp179
S'objective'
p180
I18
sS'query_time'
p181
F24.98865580558777
sS'comp_time'
p182
F0.00011873245239257812
sS'exec_cq'
p183
I2
sS'total_cq'
p184
I7
sasS'total_cqs'
p185
I7
ssI26
(dp186
S'iters'
p187
I6
sS'meta'
p188
(lp189
(dp190
S'objective'
p191
I53
sS'query_time'
p192
F2.479809045791626
sS'comp_time'
p193
F0.0001010894775390625
sS'exec_cq'
p194
I1
sS'total_cq'
p195
I13
sa(dp196
g191
I48
sg192
F0.0258181095123291
sg193
F8.821487426757812e-05
sg194
I1
sg195
I11
sa(dp197
g191
I34
sg192
F1.4366989135742188
sg193
F8.487701416015625e-05
sg194
I1
sg195
I10
sa(dp198
g191
I27
sg192
F0.03373003005981445
sg193
F8.416175842285156e-05
sg194
I1
sg195
I8
sa(dp199
g191
I19
sg192
F0.038485050201416016
sg193
F5.8650970458984375e-05
sg194
I1
sg195
I7
sa(dp200
g191
I12
sg192
F0.003879070281982422
sg193
F4.00543212890625e-05
sg194
I1
sg195
I6
sasS'total_cqs'
p201
I13
ssI27
(dp202
S'iters'
p203
I1
sS'meta'
p204
(lp205
(dp206
S'objective'
p207
I1
sS'query_time'
p208
F0.39737987518310547
sS'comp_time'
p209
F0.00011801719665527344
sS'exec_cq'
p210
I1
sS'total_cq'
p211
I2
sasS'total_cqs'
p212
I2
ssI28
(dp213
S'iters'
p214
I6
sS'meta'
p215
(lp216
(dp217
S'objective'
p218
I77
sS'query_time'
p219
F1.6484558582305908
sS'comp_time'
p220
F0.00010585784912109375
sS'exec_cq'
p221
I1
sS'total_cq'
p222
I14
sa(dp223
g218
I63
sg219
F1.1599478721618652
sg220
F0.00015497207641601562
sg221
I1
sg222
I13
sa(dp224
g218
I53
sg219
F0.9547548294067383
sg220
F9.298324584960938e-05
sg221
I1
sg222
I11
sa(dp225
g218
I13
sg219
F1.0862610340118408
sg220
F0.00010418891906738281
sg221
I1
sg222
I10
sa(dp226
g218
I11
sg219
F0.4431180953979492
sg220
F7.700920104980469e-05
sg221
I1
sg222
I7
sa(dp227
g218
I9
sg219
F0.18622684478759766
sg220
F7.700920104980469e-05
sg221
I1
sg222
I4
sasS'total_cqs'
p228
I14
ssI29
(dp229
S'iters'
p230
I1
sS'meta'
p231
(lp232
(dp233
S'objective'
p234
I1
sS'query_time'
p235
F0.004497051239013672
sS'comp_time'
p236
F6.794929504394531e-05
sS'exec_cq'
p237
I1
sS'total_cq'
p238
I2
sasS'total_cqs'
p239
I2
ssI30
(dp240
S'iters'
p241
I1
sS'meta'
p242
(lp243
(dp244
S'objective'
p245
I1
sS'query_time'
p246
F0.4084000587463379
sS'comp_time'
p247
F8.0108642578125e-05
sS'exec_cq'
p248
I1
sS'total_cq'
p249
I2
sasS'total_cqs'
p250
I2
ssI31
(dp251
S'iters'
p252
I4
sS'meta'
p253
(lp254
(dp255
S'objective'
p256
I27
sS'query_time'
p257
F0.19183802604675293
sS'comp_time'
p258
F8.893013000488281e-05
sS'exec_cq'
p259
I1
sS'total_cq'
p260
I9
sa(dp261
g256
I20
sg257
F0.006283998489379883
sg258
F7.510185241699219e-05
sg259
I1
sg260
I8
sa(dp262
g256
I8
sg257
F4.442193984985352
sg258
F8.630752563476562e-05
sg259
I1
sg260
I7
sa(dp263
g256
I6
sg257
F0.43328285217285156
sg258
F9.512901306152344e-05
sg259
I1
sg260
I5
sasS'total_cqs'
p264
I9
ssI32
(dp265
S'iters'
p266
I3
sS'meta'
p267
(lp268
(dp269
S'objective'
p270
I14
sS'query_time'
p271
F7.357339143753052
sS'comp_time'
p272
F0.0001049041748046875
sS'exec_cq'
p273
I1
sS'total_cq'
p274
I7
sa(dp275
g270
I5
sg271
F0.7128570079803467
sg272
F9.608268737792969e-05
sg273
I1
sg274
I6
sa(dp276
g270
I3
sg271
F0.09953713417053223
sg272
F7.390975952148438e-05
sg273
I1
sg274
I4
sasS'total_cqs'
p277
I7
ssI33
(dp278
S'iters'
p279
I1
sS'meta'
p280
(lp281
(dp282
S'objective'
p283
I1
sS'query_time'
p284
F0.031291961669921875
sS'comp_time'
p285
F7.200241088867188e-05
sS'exec_cq'
p286
I1
sS'total_cq'
p287
I2
sasS'total_cqs'
p288
I2
ssI35
(dp289
S'iters'
p290
I2
sS'meta'
p291
(lp292
(dp293
S'objective'
p294
I1
sS'query_time'
p295
F6.012425899505615
sS'comp_time'
p296
F0.00011801719665527344
sS'exec_cq'
p297
I1
sS'total_cq'
p298
I5
sa(dp299
g294
I1
sg295
F0.06148195266723633
sg296
F7.510185241699219e-05
sg297
I1
sg298
I3
sasS'total_cqs'
p300
I5
ssI37
(dp301
S'iters'
p302
I5
sS'meta'
p303
(lp304
(dp305
S'objective'
p306
I35
sS'query_time'
p307
F0.703902006149292
sS'comp_time'
p308
F8.106231689453125e-05
sS'exec_cq'
p309
I1
sS'total_cq'
p310
I10
sa(dp311
g306
I27
sg307
F0.005738973617553711
sg308
F5.316734313964844e-05
sg309
I1
sg310
I9
sa(dp312
g306
I20
sg307
F0.005015134811401367
sg308
F5.125999450683594e-05
sg309
I1
sg310
I8
sa(dp313
g306
I14
sg307
F0.004850149154663086
sg308
F5.125999450683594e-05
sg309
I1
sg310
I7
sa(dp314
g306
I9
sg307
F0.4323899745941162
sg308
F9.298324584960938e-05
sg309
I1
sg310
I6
sasS'total_cqs'
p315
I10
ssI40
(dp316
S'iters'
p317
I1
sS'meta'
p318
(lp319
(dp320
S'objective'
p321
I1
sS'query_time'
p322
F17.151417016983032
sS'comp_time'
p323
F0.00017309188842773438
sS'exec_cq'
p324
I2
sS'total_cq'
p325
I2
sasS'total_cqs'
p326
I2
ssI41
(dp327
S'iters'
p328
I4
sS'meta'
p329
(lp330
(dp331
S'objective'
p332
I9
sS'query_time'
p333
F0.38347601890563965
sS'comp_time'
p334
F8.082389831542969e-05
sS'exec_cq'
p335
I1
sS'total_cq'
p336
I6
sa(dp337
g332
I5
sg333
F2.0807321071624756
sg334
F0.0011751651763916016
sg335
I1
sg336
I5
sa(dp338
g332
I4
sg333
F0.565133810043335
sg334
F8.392333984375e-05
sg335
I1
sg336
I4
sa(dp339
g332
I1
sg333
F56.93130111694336
sg334
F8.535385131835938e-05
sg335
I2
sg336
I2
sasS'total_cqs'
p340
I6
ssI42
(dp341
S'iters'
p342
I1
sS'meta'
p343
(lp344
(dp345
S'objective'
p346
I1
sS'query_time'
p347
F0.011742830276489258
sS'comp_time'
p348
F7.510185241699219e-05
sS'exec_cq'
p349
I1
sS'total_cq'
p350
I2
sasS'total_cqs'
p351
I2
ssI44
(dp352
S'iters'
p353
I2
sS'meta'
p354
(lp355
(dp356
S'objective'
p357
I1
sS'query_time'
p358
F0.9417510032653809
sS'comp_time'
p359
F9.393692016601562e-05
sS'exec_cq'
p360
I1
sS'total_cq'
p361
I5
sa(dp362
g357
I1
sg358
F0.0036840438842773438
sg359
F4.315376281738281e-05
sg360
I1
sg361
I3
sasS'total_cqs'
p363
I5
ssI45
(dp364
S'iters'
p365
I2
sS'meta'
p366
(lp367
(dp368
S'objective'
p369
I5
sS'query_time'
p370
F5.417402029037476
sS'comp_time'
p371
F0.00018787384033203125
sS'exec_cq'
p372
I1
sS'total_cq'
p373
I5
sa(dp374
g369
I2
sg370
F0.00761103630065918
sg371
F5.173683166503906e-05
sg372
I1
sg373
I4
sasS'total_cqs'
p375
I5
ssI48
(dp376
S'iters'
p377
I1
sS'meta'
p378
(lp379
(dp380
S'objective'
p381
I1
sS'query_time'
p382
F0.11760377883911133
sS'comp_time'
p383
F6.985664367675781e-05
sS'exec_cq'
p384
I1
sS'total_cq'
p385
I2
sasS'total_cqs'
p386
I2
ssI49
(dp387
S'iters'
p388
I2
sS'meta'
p389
(lp390
(dp391
S'objective'
p392
I5
sS'query_time'
p393
F4.993361949920654
sS'comp_time'
p394
F0.00010204315185546875
sS'exec_cq'
p395
I1
sS'total_cq'
p396
I5
sa(dp397
g392
I2
sg393
F0.25186991691589355
sg394
F0.000125885009765625
sg395
I1
sg396
I4
sasS'total_cqs'
p398
I5
ssI50
(dp399
S'iters'
p400
I2
sS'meta'
p401
(lp402
(dp403
S'objective'
p404
I5
sS'query_time'
p405
F0.008327960968017578
sS'comp_time'
p406
F6.794929504394531e-05
sS'exec_cq'
p407
I1
sS'total_cq'
p408
I5
sa(dp409
g404
I2
sg405
F0.9270520210266113
sg406
F9.894371032714844e-05
sg407
I1
sg408
I4
sasS'total_cqs'
p410
I5
ssI55
(dp411
S'iters'
p412
I1
sS'meta'
p413
(lp414
(dp415
S'objective'
p416
I1
sS'query_time'
p417
F17.540443181991577
sS'comp_time'
p418
F0.0001049041748046875
sS'exec_cq'
p419
I1
sS'total_cq'
p420
I2
sasS'total_cqs'
p421
I2
ssI57
(dp422
S'iters'
p423
I1
sS'meta'
p424
(lp425
(dp426
S'objective'
p427
I0
sS'query_time'
p428
F11.946429967880249
sS'comp_time'
p429
F8.606910705566406e-05
sS'exec_cq'
p430
I1
sS'total_cq'
p431
I3
sasS'total_cqs'
p432
I3
ssI116
(dp433
S'iters'
p434
I3
sS'meta'
p435
(lp436
(dp437
S'objective'
p438
I195
sS'query_time'
p439
F0.1712629795074463
sS'comp_time'
p440
F9.608268737792969e-05
sS'exec_cq'
p441
I4
sS'total_cq'
p442
I21
sa(dp443
g438
I173
sg439
F3.081787109375
sg440
F0.00010585784912109375
sg441
I9
sg442
I20
sa(dp444
g438
I4
sg439
F0.0012819766998291016
sg440
F4.9114227294921875e-05
sg441
I1
sg442
I2
sasS'total_cqs'
p445
I21
ssI117
(dp446
S'iters'
p447
I1
sS'meta'
p448
(lp449
(dp450
S'objective'
p451
I7
sS'query_time'
p452
F0.00587916374206543
sS'comp_time'
p453
F6.103515625e-05
sS'exec_cq'
p454
I2
sS'total_cq'
p455
I5
sasS'total_cqs'
p456
I5
ss.