(dp0
I1
(dp1
S'iters'
p2
I2
sS'meta'
p3
(lp4
(dp5
S'objective'
p6
I2
sS'query_time'
p7
F11.54277777671814
sS'total_cq'
p8
I6
sS'comp_time'
p9
F1.0072598457336426
sa(dp10
g6
I0
sg7
F0.20882296562194824
sg8
I2
sg9
F0.9224300384521484
sasS'total_cqs'
p11
I6
ssI2
(dp12
g2
I1
sg3
(lp13
(dp14
g6
I4
sg7
F0.5746166706085205
sg8
I6
sg9
F0.2604691982269287
sasg11
I6
ssI3
(dp15
g2
I14
sg3
(lp16
(dp17
g6
I27
sg7
F16.586384057998657
sg8
I33
sg9
F0.4800732135772705
sa(dp18
g6
I24
sg7
F0.31529903411865234
sg8
I30
sg9
F0.03614211082458496
sa(dp19
g6
I21
sg7
F0.03258514404296875
sg8
I27
sg9
F0.4308798313140869
sa(dp20
g6
I18
sg7
F0.0037229061126708984
sg8
I24
sg9
F0.02637004852294922
sa(dp21
g6
I15
sg7
F0.02805805206298828
sg8
I21
sg9
F0.18427324295043945
sa(dp22
g6
I12
sg7
F0.0037980079650878906
sg8
I18
sg9
F0.026293277740478516
sa(dp23
g6
I9
sg7
F0.016252994537353516
sg8
I15
sg9
F0.14797115325927734
sa(dp24
g6
I10
sg7
F0.21497821807861328
sg8
I12
sg9
F0.03235507011413574
sa(dp25
g6
I9
sg7
F0.0913689136505127
sg8
I11
sg9
F0.005822658538818359
sa(dp26
g6
I6
sg7
F0.009168863296508789
sg8
I10
sg9
F0.027553081512451172
sa(dp27
g6
I6
sg7
F0.0015881061553955078
sg8
I8
sg9
F0.0007421970367431641
sa(dp28
g6
I5
sg7
F0.0014910697937011719
sg8
I7
sg9
F0.002706766128540039
sa(dp29
g6
I4
sg7
F0.0011258125305175781
sg8
I6
sg9
F0.0003018379211425781
sa(dp30
g6
I3
sg7
F0.008441925048828125
sg8
I5
sg9
F0.029015779495239258
sasg11
I33
ssI4
(dp31
g2
I0
sg3
(lp32
sg11
I1
ssI5
(dp33
g2
I0
sg3
(lp34
sg11
I1
ssI6
(dp35
g2
I2
sg3
(lp36
(dp37
g6
I1
sg7
F9.142849922180176
sg8
I5
sg9
F0.005056858062744141
sa(dp38
g6
I0
sg7
F0.0013689994812011719
sg8
I2
sg9
F0.0005829334259033203
sasg11
I5
ssI7
(dp39
g2
I0
sg3
(lp40
sg11
I1
ssI8
(dp41
g2
I4
sg3
(lp42
(dp43
g6
I4
sg7
F83.27763509750366
sg8
I6
sg9
F0.6129310131072998
sa(dp44
g6
I3
sg7
F0.0013279914855957031
sg8
I5
sg9
F0.9919378757476807
sa(dp45
g6
I2
sg7
F0.001249074935913086
sg8
I4
sg9
F0.0037240982055664062
sa(dp46
g6
I1
sg7
F0.0013079643249511719
sg8
I3
sg9
F0.002665996551513672
sasg11
I6
ssI9
(dp47
g2
I3
sg3
(lp48
(dp49
g6
I0
sg7
F6.9971349239349365
sg8
I6
sg9
F0.5166141986846924
sa(dp50
g6
I1
sg7
F0.06533598899841309
sg8
I3
sg9
F0.5963878631591797
sa(dp51
g6
I0
sg7
F0.01698899269104004
sg8
I2
sg9
F0.1601262092590332
sasg11
I6
ssI10
(dp52
g2
I0
sg3
(lp53
sg11
I1
ssI11
(dp54
g2
I0
sg3
(lp55
sg11
I1
ssI12
(dp56
g2
I0
sg3
(lp57
sg11
I1
ssI13
(dp58
g2
I2
sg3
(lp59
(dp60
g6
I6
sg7
F0.015836000442504883
sg8
I8
sg9
F0.0001811981201171875
sa(dp61
g6
I5
sg7
F0.0012998580932617188
sg8
I7
sg9
F0.00022792816162109375
sasg11
I8
ssI14
(dp62
g2
I1
sg3
(lp63
(dp64
g6
I3
sg7
F0.46548891067504883
sg8
I5
sg9
F0.006311893463134766
sasg11
I5
ssI16
(dp65
g2
I3
sg3
(lp66
(dp67
g6
I1
sg7
F0.6166501045227051
sg8
I5
sg9
F0.009568214416503906
sa(dp68
g6
I1
sg7
F0.032074928283691406
sg8
I3
sg9
F0.0005910396575927734
sa(dp69
g6
I0
sg7
F0.0014040470123291016
sg8
I2
sg9
F0.0003809928894042969
sasg11
I5
ssI17
(dp70
g2
I0
sg3
(lp71
sg11
I1
ssI18
(dp72
g2
I3
sg3
(lp73
(dp74
g6
I1
sg7
F0.11477279663085938
sg8
I5
sg9
F0.0007467269897460938
sa(dp75
g6
I1
sg7
F0.03204512596130371
sg8
I3
sg9
F0.00026106834411621094
sa(dp76
g6
I0
sg7
F0.0013208389282226562
sg8
I2
sg9
F0.0007679462432861328
sasg11
I5
ssI19
(dp77
g2
I0
sg3
(lp78
sg11
I1
ssI20
(dp79
g2
I6
sg3
(lp80
(dp81
g6
I8
sg7
F6.2614850997924805
sg8
I12
sg9
F1.5342121124267578
sa(dp82
g6
I6
sg7
F3.481657028198242
sg8
I10
sg9
F0.522594690322876
sa(dp83
g6
I4
sg7
F0.2120988368988037
sg8
I8
sg9
F1.3578729629516602
sa(dp84
g6
I4
sg7
F0.0014841556549072266
sg8
I6
sg9
F0.00016188621520996094
sa(dp85
g6
I3
sg7
F0.20374608039855957
sg8
I5
sg9
F1.0821027755737305
sa(dp86
g6
I2
sg7
F0.1207129955291748
sg8
I4
sg9
F0.006430149078369141
sasg11
I12
ssI21
(dp87
g2
I5
sg3
(lp88
(dp89
g6
I6
sg7
F103.33675789833069
sg8
I14
sg9
F27.453005075454712
sa(dp90
g6
I2
sg7
F29.44426202774048
sg8
I10
sg9
F2.786998987197876
sa(dp91
g6
I2
sg7
F2.547755002975464
sg8
I6
sg9
F15.674208879470825
sa(dp92
g6
I0
sg7
F0.015835046768188477
sg8
I4
sg9
F0.09623098373413086
sa(dp93
g6
I0
sg7
F0.03197193145751953
sg8
I2
sg9
F0.00030303001403808594
sasg11
I14
ssI22
(dp94
g2
I1
sg3
(lp95
(dp96
g6
I0
sg7
F0.003755807876586914
sg8
I2
sg9
F0.00016188621520996094
sasg11
I2
ssI23
(dp97
g2
I0
sg3
(lp98
sg11
I1
ssI24
(dp99
g2
I0
sg3
(lp100
sg11
I1
ssI25
(dp101
g2
I4
sg3
(lp102
(dp103
g6
I3
sg7
F80.82828617095947
sg8
I7
sg9
F21.38111424446106
sa(dp104
g6
I1
sg7
F4.189291954040527
sg8
I5
sg9
F0.1530308723449707
sa(dp105
g6
I1
sg7
F1.7233681678771973
sg8
I3
sg9
F14.11180305480957
sa(dp106
g6
I0
sg7
F0.0015311241149902344
sg8
I2
sg9
F0.03545212745666504
sasg11
I7
ssI26
(dp107
g2
I9
sg3
(lp108
(dp109
g6
I9
sg7
F0.165086030960083
sg8
I13
sg9
F0.02937173843383789
sa(dp110
g6
I9
sg7
F17.500174045562744
sg8
I11
sg9
F7.557107210159302
sa(dp111
g6
I6
sg7
F0.0321199893951416
sg8
I10
sg9
F0.00035381317138671875
sa(dp112
g6
I6
sg7
F0.0037298202514648438
sg8
I8
sg9
F0.01312112808227539
sa(dp113
g6
I5
sg7
F0.0012149810791015625
sg8
I7
sg9
F0.00479888916015625
sa(dp114
g6
I2
sg7
F2.92415189743042
sg8
I6
sg9
F0.02295827865600586
sa(dp115
g6
I2
sg7
F0.001979827880859375
sg8
I4
sg9
F0.006145000457763672
sa(dp116
g6
I1
sg7
F0.0012459754943847656
sg8
I3
sg9
F0.0027930736541748047
sa(dp117
g6
I0
sg7
F0.03212618827819824
sg8
I2
sg9
F0.002532958984375
sasg11
I13
ssI27
(dp118
g2
I1
sg3
(lp119
(dp120
g6
I0
sg7
F0.11460304260253906
sg8
I2
sg9
F0.008786916732788086
sasg11
I2
ssI28
(dp121
g2
I4
sg3
(lp122
(dp123
g6
I8
sg7
F0.8179759979248047
sg8
I14
sg9
F0.040486812591552734
sa(dp124
g6
I7
sg7
F0.003509998321533203
sg8
I11
sg9
F0.029901981353759766
sa(dp125
g6
I7
sg7
F0.0038709640502929688
sg8
I9
sg9
F0.00017404556274414062
sa(dp126
g6
I6
sg7
F0.0034999847412109375
sg8
I8
sg9
F0.00017714500427246094
sasg11
I14
ssI29
(dp127
g2
I1
sg3
(lp128
(dp129
g6
I0
sg7
F0.0034978389739990234
sg8
I2
sg9
F0.000102996826171875
sasg11
I2
ssI30
(dp130
g2
I1
sg3
(lp131
(dp132
g6
I0
sg7
F0.1647489070892334
sg8
I2
sg9
F0.003941774368286133
sasg11
I2
ssI31
(dp133
g2
I4
sg3
(lp134
(dp135
g6
I5
sg7
F2.374033212661743
sg8
I9
sg9
F0.7364380359649658
sa(dp136
g6
I1
sg7
F0.943183183670044
sg8
I7
sg9
F0.06696796417236328
sa(dp137
g6
I1
sg7
F0.007824182510375977
sg8
I3
sg9
F0.04812216758728027
sa(dp138
g6
I0
sg7
F0.0036420822143554688
sg8
I2
sg9
F0.026165008544921875
sasg11
I9
ssI32
(dp139
g2
I3
sg3
(lp140
(dp141
g6
I1
sg7
F15.63844919204712
sg8
I7
sg9
F6.3354480266571045
sa(dp142
g6
I0
sg7
F0.9184219837188721
sg8
I4
sg9
F0.03346586227416992
sa(dp143
g6
I0
sg7
F0.03385496139526367
sg8
I2
sg9
F0.6003279685974121
sasg11
I7
ssI33
(dp144
g2
I1
sg3
(lp145
(dp146
g6
I0
sg7
F0.0320889949798584
sg8
I2
sg9
F0.00019407272338867188
sasg11
I2
ssI34
(dp147
g2
I0
sg3
(lp148
sg11
I1
ssI35
(dp149
g2
I3
sg3
(lp150
(dp151
g6
I1
sg7
F10.865476131439209
sg8
I5
sg9
F0.47347497940063477
sa(dp152
g6
I1
sg7
F0.01637887954711914
sg8
I3
sg9
F0.18694114685058594
sa(dp153
g6
I0
sg7
F0.0011589527130126953
sg8
I2
sg9
F0.005568027496337891
sasg11
I5
ssI37
(dp154
g2
I2
sg3
(lp155
(dp156
g6
I6
sg7
F0.3655819892883301
sg8
I10
sg9
F0.03017401695251465
sa(dp157
g6
I0
sg7
F0.003940105438232422
sg8
I2
sg9
F0.022526264190673828
sasg11
I10
ssI38
(dp158
g2
I0
sg3
(lp159
sg11
I1
ssI39
(dp160
g2
I0
sg3
(lp161
sg11
I1
ssI40
(dp162
g2
I1
sg3
(lp163
(dp164
g6
I0
sg7
F0.0034279823303222656
sg8
I2
sg9
F0.00012111663818359375
sasg11
I2
ssI41
(dp165
g2
I3
sg3
(lp166
(dp167
g6
I2
sg7
F8.357834815979004
sg8
I6
sg9
F2.540271043777466
sa(dp168
g6
I0
sg7
F0.46574997901916504
sg8
I4
sg9
F0.011216878890991211
sa(dp169
g6
I0
sg7
F0.004172801971435547
sg8
I2
sg9
F0.009691715240478516
sasg11
I6
ssI42
(dp170
g2
I1
sg3
(lp171
(dp172
g6
I0
sg7
F0.007845163345336914
sg8
I2
sg9
F0.000308990478515625
sasg11
I2
ssI43
(dp173
g2
I0
sg3
(lp174
sg11
I1
ssI44
(dp175
g2
I3
sg3
(lp176
(dp177
g6
I3
sg7
F0.9199411869049072
sg8
I5
sg9
F0.4089691638946533
sa(dp178
g6
I0
sg7
F0.16452288627624512
sg8
I4
sg9
F0.0037021636962890625
sa(dp179
g6
I0
sg7
F0.001756906509399414
sg8
I2
sg9
F0.000990152359008789
sasg11
I5
ssI45
(dp180
g2
I2
sg3
(lp181
(dp182
g6
I1
sg7
F0.06458210945129395
sg8
I5
sg9
F0.0026350021362304688
sa(dp183
g6
I0
sg7
F0.0018849372863769531
sg8
I2
sg9
F0.001672983169555664
sasg11
I5
ssI46
(dp184
g2
I0
sg3
(lp185
sg11
I1
ssI47
(dp186
g2
I0
sg3
(lp187
sg11
I1
ssI48
(dp188
g2
I1
sg3
(lp189
(dp190
g6
I0
sg7
F0.11449313163757324
sg8
I2
sg9
F0.009069681167602539
sasg11
I2
ssI49
(dp191
g2
I2
sg3
(lp192
(dp193
g6
I1
sg7
F0.16502904891967773
sg8
I5
sg9
F0.004194021224975586
sa(dp194
g6
I1
sg7
F0.0012488365173339844
sg8
I3
sg9
F0.00022125244140625
sasg11
I5
ssI50
(dp195
g2
I2
sg3
(lp196
(dp197
g6
I3
sg7
F0.4153859615325928
sg8
I5
sg9
F0.004196643829345703
sa(dp198
g6
I2
sg7
F0.0011799335479736328
sg8
I4
sg9
F0.0025217533111572266
sasg11
I5
ssI51
(dp199
g2
I0
sg3
(lp200
sg11
I1
ssI52
(dp201
g2
I0
sg3
(lp202
sg11
I1
ssI53
(dp203
g2
I0
sg3
(lp204
sg11
I1
ssI55
(dp205
g2
I1
sg3
(lp206
(dp207
g6
I0
sg7
F22.773380041122437
sg8
I2
sg9
F0.08563899993896484
sasg11
I2
ssI56
(dp208
g2
I0
sg3
(lp209
sg11
I1
ssI57
(dp210
g2
I1
sg3
(lp211
(dp212
g6
I1
sg7
F11.627181053161621
sg8
I3
sg9
F3.495159149169922
sasg11
I3
ssI108
(dp213
g2
I0
sg3
(lp214
sg11
I1
ssI109
(dp215
g2
I0
sg3
(lp216
sg11
I1
ssI116
(dp217
g2
I3
sg3
(lp218
(dp219
g6
I17
sg7
F3.5047218799591064
sg8
I21
sg9
F0.7700839042663574
sa(dp220
g6
I15
sg7
F0.41842103004455566
sg8
I19
sg9
F0.006251096725463867
sa(dp221
g6
I0
sg7
F0.0014541149139404297
sg8
I2
sg9
F0.005383968353271484
sasg11
I21
ssI117
(dp222
g2
I2
sg3
(lp223
(dp224
g6
I3
sg7
F0.007842779159545898
sg8
I5
sg9
F0.00021004676818847656
sa(dp225
g6
I2
sg7
F0.0053331851959228516
sg8
I4
sg9
F0.00016260147094726562
sasg11
I5
ssI118
(dp226
g2
I0
sg3
(lp227
sg11
I1
ssI122
(dp228
g2
I0
sg3
(lp229
sg11
I1
ss.