(dp0
I1
(dp1
S'iters'
p2
I2
sS'meta'
p3
(lp4
(dp5
S'objective'
p6
I7
sS'query_time'
p7
F25.006448984146118
sS'comp_time'
p8
F1.4074718952178955
sS'exec_cq'
p9
I6
sS'total_cq'
p10
I6
sa(dp11
g6
I1
sg7
F0.010197877883911133
sg8
F242.2923719882965
sg9
I2
sg10
I2
sasS'total_cqs'
p12
I6
ssI2
(dp13
S'iters'
p14
I1
sS'meta'
p15
(lp16
(dp17
S'objective'
p18
I13
sS'query_time'
p19
F0.7943048477172852
sS'comp_time'
p20
F0.08879208564758301
sS'exec_cq'
p21
I6
sS'total_cq'
p22
I6
sasS'total_cqs'
p23
I6
ssI3
(dp24
S'iters'
p25
I13
sS'meta'
p26
(lp27
(dp28
S'objective'
p29
I435
sS'query_time'
p30
F25.89756488800049
sS'comp_time'
p31
F0.24339008331298828
sS'exec_cq'
p32
I33
sS'total_cq'
p33
I33
sa(dp34
g29
I382
sg30
F0.025127887725830078
sg31
F0.156693696975708
sg32
I30
sg33
I30
sa(dp35
g29
I330
sg30
F0.022990942001342773
sg31
F0.1530468463897705
sg32
I27
sg33
I27
sa(dp36
g29
I285
sg30
F0.022565841674804688
sg31
F0.16180706024169922
sg32
I25
sg33
I25
sa(dp37
g29
I237
sg30
F0.021029949188232422
sg31
F0.15289974212646484
sg32
I22
sg33
I22
sa(dp38
g29
I192
sg30
F0.010762929916381836
sg31
F0.04735994338989258
sg32
I19
sg33
I19
sa(dp39
g29
I147
sg30
F0.008414030075073242
sg31
F0.04305720329284668
sg32
I16
sg33
I16
sa(dp40
g29
I129
sg30
F0.03202986717224121
sg31
F0.04291796684265137
sg32
I13
sg33
I13
sa(dp41
g29
I107
sg30
F0.006124019622802734
sg31
F0.05440783500671387
sg32
I10
sg33
I10
sa(dp42
g29
I84
sg30
F0.006621122360229492
sg31
F0.02985382080078125
sg32
I9
sg33
I9
sa(dp43
g29
I61
sg30
F0.005329132080078125
sg31
F0.05535697937011719
sg32
I8
sg33
I8
sa(dp44
g29
I43
sg30
F0.005671977996826172
sg31
F0.026797056198120117
sg32
I7
sg33
I7
sa(dp45
g29
I28
sg30
F0.0022339820861816406
sg31
F0.01187586784362793
sg32
I6
sg33
I6
sasS'total_cqs'
p46
I33
ssI4
(dp47
S'iters'
p48
I0
sS'meta'
p49
(lp50
sS'total_cqs'
p51
I1
ssI5
(dp52
S'iters'
p53
I0
sS'meta'
p54
(lp55
sS'total_cqs'
p56
I1
ssI6
(dp57
S'iters'
p58
I2
sS'meta'
p59
(lp60
(dp61
S'objective'
p62
I1
sS'query_time'
p63
F14.39665699005127
sS'comp_time'
p64
F0.0029931068420410156
sS'exec_cq'
p65
I5
sS'total_cq'
p66
I5
sa(dp67
g62
I1
sg63
F0.0004930496215820312
sg64
F0.002043008804321289
sg65
I3
sg66
I3
sasS'total_cqs'
p68
I5
ssI7
(dp69
S'iters'
p70
I0
sS'meta'
p71
(lp72
sS'total_cqs'
p73
I1
ssI8
(dp74
S'iters'
p75
I3
sS'meta'
p76
(lp77
(dp78
S'objective'
p79
I11
sS'query_time'
p80
F22.92154598236084
sS'comp_time'
p81
F0.2574009895324707
sS'exec_cq'
p82
I6
sS'total_cq'
p83
I6
sa(dp84
g79
I0
sg80
F1.8154170513153076
sg81
F2.0092239379882812
sg82
I5
sg83
I5
sa(dp85
g79
I0
sg80
F0.0493471622467041
sg81
F0.04894208908081055
sg82
I3
sg83
I3
sasS'total_cqs'
p86
I6
ssI9
(dp87
S'iters'
p88
I3
sS'meta'
p89
(lp90
(dp91
S'objective'
p92
I1
sS'query_time'
p93
F52.53871989250183
sS'comp_time'
p94
F4.150362014770508
sS'exec_cq'
p95
I6
sS'total_cq'
p96
I6
sa(dp97
g92
I0
sg93
F0.06233811378479004
sg94
F0.5543367862701416
sg95
I3
sg96
I3
sa(dp98
g92
I3
sg93
F0.030290842056274414
sg94
F0.2817411422729492
sg95
I2
sg96
I2
sasS'total_cqs'
p99
I6
ssI10
(dp100
S'iters'
p101
I0
sS'meta'
p102
(lp103
sS'total_cqs'
p104
I1
ssI11
(dp105
S'iters'
p106
I0
sS'meta'
p107
(lp108
sS'total_cqs'
p109
I1
ssI12
(dp110
S'iters'
p111
I0
sS'meta'
p112
(lp113
sS'total_cqs'
p114
I1
ssI13
(dp115
S'iters'
p116
I2
sS'meta'
p117
(lp118
(dp119
S'objective'
p120
I24
sS'query_time'
p121
F0.020441055297851562
sS'comp_time'
p122
F0.0001499652862548828
sS'exec_cq'
p123
I8
sS'total_cq'
p124
I8
sa(dp125
g120
I20
sg121
F3.0040740966796875e-05
sg122
F5.173683166503906e-05
sg123
I7
sg124
I7
sasS'total_cqs'
p126
I8
ssI14
(dp127
S'iters'
p128
I2
sS'meta'
p129
(lp130
(dp131
S'objective'
p132
I5
sS'query_time'
p133
F1.06449294090271
sS'comp_time'
p134
F0.008095264434814453
sS'exec_cq'
p135
I5
sS'total_cq'
p136
I5
sa(dp137
g132
I2
sg133
F0.0005230903625488281
sg134
F0.003401041030883789
sg135
I4
sg136
I4
sasS'total_cqs'
p138
I5
ssI16
(dp139
S'iters'
p140
I2
sS'meta'
p141
(lp142
(dp143
S'objective'
p144
I1
sS'query_time'
p145
F1.6952009201049805
sS'comp_time'
p146
F0.007256984710693359
sS'exec_cq'
p147
I5
sS'total_cq'
p148
I5
sa(dp149
g144
I1
sg145
F0.0001220703125
sg146
F0.0004911422729492188
sg147
I3
sg148
I3
sasS'total_cqs'
p150
I5
ssI17
(dp151
S'iters'
p152
I0
sS'meta'
p153
(lp154
sS'total_cqs'
p155
I1
ssI18
(dp156
S'iters'
p157
I2
sS'meta'
p158
(lp159
(dp160
S'objective'
p161
I1
sS'query_time'
p162
F0.33272290229797363
sS'comp_time'
p163
F0.00034499168395996094
sS'exec_cq'
p164
I5
sS'total_cq'
p165
I5
sa(dp166
g161
I1
sg162
F4.887580871582031e-05
sg163
F0.0001220703125
sg164
I3
sg165
I3
sasS'total_cqs'
p167
I5
ssI19
(dp168
S'iters'
p169
I0
sS'meta'
p170
(lp171
sS'total_cqs'
p172
I1
ssI20
(dp173
S'iters'
p174
I5
sS'meta'
p175
(lp176
(dp177
S'objective'
p178
I38
sS'query_time'
p179
F11.429312944412231
sS'comp_time'
p180
F1.150589942932129
sS'exec_cq'
p181
I12
sS'total_cq'
p182
I12
sa(dp183
g178
I34
sg179
F0.18496108055114746
sg180
F0.719135046005249
sg181
I10
sg182
I10
sa(dp184
g178
I24
sg179
F0.027339935302734375
sg180
F0.19694900512695312
sg181
I9
sg182
I9
sa(dp185
g178
I13
sg179
F0.010686874389648438
sg180
F0.04731321334838867
sg181
I7
sg182
I7
sa(dp186
g178
I10
sg179
F0.0008080005645751953
sg180
F0.003261089324951172
sg181
I5
sg182
I5
sasS'total_cqs'
p187
I12
ssI21
(dp188
S'iters'
p189
I2
sS'meta'
p190
(lp191
(dp192
S'objective'
p193
I71
sS'query_time'
p194
F29.220691919326782
sS'comp_time'
p195
F0.25893688201904297
sS'exec_cq'
p196
I14
sS'total_cq'
p197
I14
sa(dp198
g193
I1
sg194
F0.004942893981933594
sg195
F0.020102977752685547
sg196
I2
sg197
I2
sasS'total_cqs'
p199
I14
ssI22
(dp200
S'iters'
p201
I1
sS'meta'
p202
(lp203
(dp204
S'objective'
p205
I1
sS'query_time'
p206
F0.009332895278930664
sS'comp_time'
p207
F0.00012493133544921875
sS'exec_cq'
p208
I2
sS'total_cq'
p209
I2
sasS'total_cqs'
p210
I2
ssI23
(dp211
S'iters'
p212
I0
sS'meta'
p213
(lp214
sS'total_cqs'
p215
I1
ssI24
(dp216
S'iters'
p217
I0
sS'meta'
p218
(lp219
sS'total_cqs'
p220
I1
ssI25
(dp221
S'iters'
p222
I2
sS'meta'
p223
(lp224
(dp225
S'objective'
p226
I6
sS'query_time'
p227
F86.7651309967041
sS'comp_time'
p228
F11.235996961593628
sS'exec_cq'
p229
I7
sS'total_cq'
p230
I7
sa(dp231
g226
I7
sg227
F2.2658469676971436
sg228
F6.3064470291137695
sg229
I5
sg230
I5
sasS'total_cqs'
p232
I7
ssI26
(dp233
S'iters'
p234
I7
sS'meta'
p235
(lp236
(dp237
S'objective'
p238
I65
sS'query_time'
p239
F24.820804834365845
sS'comp_time'
p240
F3.142821788787842
sS'exec_cq'
p241
I13
sS'total_cq'
p242
I13
sa(dp243
g238
I52
sg239
F0.7510828971862793
sg240
F3.165332078933716
sg241
I12
sg242
I12
sa(dp244
g238
I41
sg239
F0.744157075881958
sg240
F3.2345778942108154
sg241
I10
sg242
I10
sa(dp245
g238
I31
sg239
F0.8132169246673584
sg240
F3.2173547744750977
sg241
I9
sg242
I9
sa(dp246
g238
I20
sg239
F0.8087220191955566
sg240
F3.2550301551818848
sg241
I8
sg242
I8
sa(dp247
g238
I9
sg239
F0.6800849437713623
sg240
F3.1676838397979736
sg241
I6
sg242
I6
sa(dp248
g238
I4
sg239
F0.6606671810150146
sg240
F3.136662721633911
sg241
I4
sg242
I4
sasS'total_cqs'
p249
I13
ssI27
(dp250
S'iters'
p251
I1
sS'meta'
p252
(lp253
(dp254
S'objective'
p255
I1
sS'query_time'
p256
F0.15895891189575195
sS'comp_time'
p257
F0.004481077194213867
sS'exec_cq'
p258
I2
sS'total_cq'
p259
I2
sasS'total_cqs'
p260
I2
ssI28
(dp261
S'iters'
p262
I5
sS'meta'
p263
(lp264
(dp265
S'objective'
p266
I39
sS'query_time'
p267
F1.7856559753417969
sS'comp_time'
p268
F0.030842065811157227
sS'exec_cq'
p269
I14
sS'total_cq'
p270
I14
sa(dp271
g266
I28
sg267
F0.0064890384674072266
sg268
F0.025577068328857422
sg269
I11
sg270
I11
sa(dp272
g266
I8
sg267
F0.022921085357666016
sg268
F0.019234180450439453
sg269
I7
sg270
I7
sa(dp273
g266
I3
sg267
F0.00344085693359375
sg268
F0.01631903648376465
sg269
I5
sg270
I5
sa(dp274
g266
I0
sg267
F0.0034270286560058594
sg268
F0.017115116119384766
sg269
I4
sg270
I4
sasS'total_cqs'
p275
I14
ssI29
(dp276
S'iters'
p277
I1
sS'meta'
p278
(lp279
(dp280
S'objective'
p281
I1
sS'query_time'
p282
F0.010916948318481445
sS'comp_time'
p283
F0.00014472007751464844
sS'exec_cq'
p284
I2
sS'total_cq'
p285
I2
sasS'total_cqs'
p286
I2
ssI30
(dp287
S'iters'
p288
I1
sS'meta'
p289
(lp290
(dp291
S'objective'
p292
I1
sS'query_time'
p293
F0.36293601989746094
sS'comp_time'
p294
F0.004725933074951172
sS'exec_cq'
p295
I2
sS'total_cq'
p296
I2
sasS'total_cqs'
p297
I2
ssI31
(dp298
S'iters'
p299
I4
sS'meta'
p300
(lp301
(dp302
S'objective'
p303
I11
sS'query_time'
p304
F6.131217002868652
sS'comp_time'
p305
F0.14548516273498535
sS'exec_cq'
p306
I9
sS'total_cq'
p307
I9
sa(dp308
g303
I4
sg304
F0.00662994384765625
sg305
F0.027860164642333984
sg306
I7
sg307
I7
sa(dp309
g303
I2
sg304
F0.006021022796630859
sg305
F0.051937103271484375
sg306
I5
sg307
I5
sa(dp310
g303
I5
sg304
F0.007727146148681641
sg305
F0.027524948120117188
sg306
I2
sg307
I2
sasS'total_cqs'
p311
I9
ssI32
(dp312
S'iters'
p313
I3
sS'meta'
p314
(lp315
(dp316
S'objective'
p317
I2
sS'query_time'
p318
F19.306615114212036
sS'comp_time'
p319
F2.982842206954956
sS'exec_cq'
p320
I7
sS'total_cq'
p321
I7
sa(dp322
g317
I1
sg318
F0.7025830745697021
sg319
F2.980966091156006
sg320
I5
sg321
I5
sa(dp323
g317
I2
sg318
F0.44250917434692383
sg319
F2.2606098651885986
sg320
I3
sg321
I3
sasS'total_cqs'
p324
I7
ssI33
(dp325
S'iters'
p326
I1
sS'meta'
p327
(lp328
(dp329
S'objective'
p330
I1
sS'query_time'
p331
F0.04250001907348633
sS'comp_time'
p332
F0.00011396408081054688
sS'exec_cq'
p333
I2
sS'total_cq'
p334
I2
sasS'total_cqs'
p335
I2
ssI34
(dp336
S'iters'
p337
I0
sS'meta'
p338
(lp339
sS'total_cqs'
p340
I1
ssI35
(dp341
S'iters'
p342
I2
sS'meta'
p343
(lp344
(dp345
S'objective'
p346
I1
sS'query_time'
p347
F16.374276876449585
sS'comp_time'
p348
F0.223891019821167
sS'exec_cq'
p349
I5
sS'total_cq'
p350
I5
sa(dp351
g346
I0
sg347
F0.037744998931884766
sg348
F0.13719415664672852
sg349
I3
sg350
I3
sasS'total_cqs'
p352
I5
ssI37
(dp353
S'iters'
p354
I3
sS'meta'
p355
(lp356
(dp357
S'objective'
p358
I27
sS'query_time'
p359
F2.5263800621032715
sS'comp_time'
p360
F0.13074970245361328
sS'exec_cq'
p361
I10
sS'total_cq'
p362
I10
sa(dp363
g358
I0
sg359
F0.02935194969177246
sg360
F0.036453962326049805
sg361
I3
sg362
I3
sa(dp364
g358
I5
sg359
F0.002832174301147461
sg360
F0.011600255966186523
sg361
I2
sg362
I2
sasS'total_cqs'
p365
I10
ssI38
(dp366
S'iters'
p367
I0
sS'meta'
p368
(lp369
sS'total_cqs'
p370
I1
ssI39
(dp371
S'iters'
p372
I0
sS'meta'
p373
(lp374
sS'total_cqs'
p375
I1
ssI40
(dp376
S'iters'
p377
I1
sS'meta'
p378
(lp379
(dp380
S'objective'
p381
I1
sS'query_time'
p382
F17.31460690498352
sS'comp_time'
p383
F2.485772132873535
sS'exec_cq'
p384
I2
sS'total_cq'
p385
I2
sasS'total_cqs'
p386
I2
ssI41
(dp387
S'iters'
p388
I3
sS'meta'
p389
(lp390
(dp391
S'objective'
p392
I1
sS'query_time'
p393
F12.653287887573242
sS'comp_time'
p394
F1.4711081981658936
sS'exec_cq'
p395
I6
sS'total_cq'
p396
I6
sa(dp397
g392
I2
sg393
F0.00421905517578125
sg394
F0.012893915176391602
sg395
I4
sg396
I4
sa(dp398
g392
I2
sg393
F0.0007050037384033203
sg394
F0.0036661624908447266
sg395
I2
sg396
I2
sasS'total_cqs'
p399
I6
ssI42
(dp400
S'iters'
p401
I1
sS'meta'
p402
(lp403
(dp404
S'objective'
p405
I1
sS'query_time'
p406
F17.50468397140503
sS'comp_time'
p407
F2.7397451400756836
sS'exec_cq'
p408
I2
sS'total_cq'
p409
I2
sasS'total_cqs'
p410
I2
ssI43
(dp411
S'iters'
p412
I0
sS'meta'
p413
(lp414
sS'total_cqs'
p415
I1
ssI44
(dp416
S'iters'
p417
I2
sS'meta'
p418
(lp419
(dp420
S'objective'
p421
I3
sS'query_time'
p422
F1.744028091430664
sS'comp_time'
p423
F0.2411942481994629
sS'exec_cq'
p424
I5
sS'total_cq'
p425
I5
sa(dp426
g421
I1
sg422
F0.019259929656982422
sg423
F0.11179709434509277
sg424
I3
sg425
I3
sasS'total_cqs'
p427
I5
ssI45
(dp428
S'iters'
p429
I2
sS'meta'
p430
(lp431
(dp432
S'objective'
p433
I5
sS'query_time'
p434
F0.03792405128479004
sS'comp_time'
p435
F0.0008449554443359375
sS'exec_cq'
p436
I5
sS'total_cq'
p437
I5
sa(dp438
g433
I3
sg434
F0.00014495849609375
sg435
F0.000469207763671875
sg436
I2
sg437
I2
sasS'total_cqs'
p439
I5
ssI46
(dp440
S'iters'
p441
I0
sS'meta'
p442
(lp443
sS'total_cqs'
p444
I1
ssI47
(dp445
S'iters'
p446
I0
sS'meta'
p447
(lp448
sS'total_cqs'
p449
I1
ssI48
(dp450
S'iters'
p451
I1
sS'meta'
p452
(lp453
(dp454
S'objective'
p455
I1
sS'query_time'
p456
F0.11417794227600098
sS'comp_time'
p457
F0.005110025405883789
sS'exec_cq'
p458
I2
sS'total_cq'
p459
I2
sasS'total_cqs'
p460
I2
ssI49
(dp461
S'iters'
p462
I2
sS'meta'
p463
(lp464
(dp465
S'objective'
p466
I1
sS'query_time'
p467
F0.24821996688842773
sS'comp_time'
p468
F0.002785921096801758
sS'exec_cq'
p469
I5
sS'total_cq'
p470
I5
sa(dp471
g466
I0
sg467
F0.00032711029052734375
sg468
F0.0013942718505859375
sg469
I3
sg470
I3
sasS'total_cqs'
p472
I5
ssI50
(dp473
S'iters'
p474
I2
sS'meta'
p475
(lp476
(dp477
S'objective'
p478
I5
sS'query_time'
p479
F0.9598910808563232
sS'comp_time'
p480
F0.0011110305786132812
sS'exec_cq'
p481
I5
sS'total_cq'
p482
I5
sa(dp483
g478
I2
sg479
F0.00013399124145507812
sg480
F0.0008001327514648438
sg481
I4
sg482
I4
sasS'total_cqs'
p484
I5
ssI51
(dp485
S'iters'
p486
I0
sS'meta'
p487
(lp488
sS'total_cqs'
p489
I1
ssI52
(dp490
S'iters'
p491
I0
sS'meta'
p492
(lp493
sS'total_cqs'
p494
I1
ssI53
(dp495
S'iters'
p496
I0
sS'meta'
p497
(lp498
sS'total_cqs'
p499
I1
ssI55
(dp500
S'iters'
p501
I1
sS'meta'
p502
(lp503
(dp504
S'objective'
p505
I1
sS'query_time'
p506
F26.579741954803467
sS'comp_time'
p507
F3.5462453365325928
sS'exec_cq'
p508
I2
sS'total_cq'
p509
I2
sasS'total_cqs'
p510
I2
ssI56
(dp511
S'iters'
p512
I0
sS'meta'
p513
(lp514
sS'total_cqs'
p515
I1
ssI57
(dp516
S'iters'
p517
I1
sS'meta'
p518
(lp519
(dp520
S'objective'
p521
I0
sS'query_time'
p522
F13.757649898529053
sS'comp_time'
p523
F1.6679751873016357
sS'exec_cq'
p524
I3
sS'total_cq'
p525
I3
sasS'total_cqs'
p526
I3
ssI108
(dp527
S'iters'
p528
I0
sS'meta'
p529
(lp530
sS'total_cqs'
p531
I1
ssI109
(dp532
S'iters'
p533
I0
sS'meta'
p534
(lp535
sS'total_cqs'
p536
I1
ssI116
(dp537
S'iters'
p538
I3
sS'meta'
p539
(lp540
(dp541
S'objective'
p542
I147
sS'query_time'
p543
F5.402766942977905
sS'comp_time'
p544
F0.28921031951904297
sS'exec_cq'
p545
I21
sS'total_cq'
p546
I21
sa(dp547
g542
I2
sg543
F0.0013768672943115234
sg544
F0.004222869873046875
sg545
I3
sg546
I3
sa(dp548
g542
I2
sg543
F0.0003991127014160156
sg544
F0.0023109912872314453
sg545
I2
sg546
I2
sasS'total_cqs'
p549
I21
ssI117
(dp550
S'iters'
p551
I2
sS'meta'
p552
(lp553
(dp554
S'objective'
p555
I5
sS'query_time'
p556
F0.01473093032836914
sS'comp_time'
p557
F9.584426879882812e-05
sS'exec_cq'
p558
I5
sS'total_cq'
p559
I5
sa(dp560
g555
I2
sg556
F1.9073486328125e-05
sg557
F4.100799560546875e-05
sg558
I4
sg559
I4
sasS'total_cqs'
p561
I5
ssI118
(dp562
S'iters'
p563
I0
sS'meta'
p564
(lp565
sS'total_cqs'
p566
I1
ssI122
(dp567
S'iters'
p568
I0
sS'meta'
p569
(lp570
sS'total_cqs'
p571
I1
ss.