(dp0
I1
(dp1
S'iters'
p2
I2
sS'meta'
p3
(lp4
(dp5
S'objective'
p6
I2
sS'query_time'
p7
F3.161381959915161
sS'comp_time'
p8
F8.511543273925781e-05
sS'exec_cq'
p9
I1
sS'total_cq'
p10
I6
sa(dp11
g6
I2
sg7
F0.5453400611877441
sg8
F7.414817810058594e-05
sg9
I1
sg10
I4
sasS'total_cqs'
p12
I6
ssI2
(dp13
S'iters'
p14
I1
sS'meta'
p15
(lp16
(dp17
S'objective'
p18
I4
sS'query_time'
p19
F0.8394370079040527
sS'comp_time'
p20
F7.128715515136719e-05
sS'exec_cq'
p21
I5
sS'total_cq'
p22
I6
sasS'total_cqs'
p23
I6
ssI3
(dp24
S'iters'
p25
I5
sS'meta'
p26
(lp27
(dp28
S'objective'
p29
I27
sS'query_time'
p30
F0.03014683723449707
sS'comp_time'
p31
F0.00012683868408203125
sS'exec_cq'
p32
I1
sS'total_cq'
p33
I33
sa(dp34
g29
I26
sg30
F0.1405029296875
sg31
F0.000125885009765625
sg32
I1
sg33
I30
sa(dp35
g29
I22
sg30
F20.315490007400513
sg31
F9.512901306152344e-05
sg32
I3
sg33
I28
sa(dp36
g29
I19
sg30
F0.014609813690185547
sg31
F7.009506225585938e-05
sg32
I1
sg33
I25
sa(dp37
g29
I20
sg30
F0.18109989166259766
sg31
F9.083747863769531e-05
sg32
I2
sg33
I22
sasS'total_cqs'
p38
I33
ssI6
(dp39
S'iters'
p40
I3
sS'meta'
p41
(lp42
(dp43
S'objective'
p44
I1
sS'query_time'
p45
F7.029259920120239
sS'comp_time'
p46
F0.00011587142944335938
sS'exec_cq'
p47
I1
sS'total_cq'
p48
I5
sa(dp49
g44
I1
sg45
F5.339131116867065
sg46
F9.179115295410156e-05
sg47
I1
sg48
I3
sa(dp50
g44
I0
sg45
F0.013679981231689453
sg46
F0.0001220703125
sg47
I1
sg48
I2
sasS'total_cqs'
p51
I5
ssI8
(dp52
S'iters'
p53
I4
sS'meta'
p54
(lp55
(dp56
S'objective'
p57
I4
sS'query_time'
p58
F42.12106418609619
sS'comp_time'
p59
F0.0002689361572265625
sS'exec_cq'
p60
I3
sS'total_cq'
p61
I6
sa(dp62
g57
I1
sg58
F42.26529598236084
sg59
F0.00022101402282714844
sg60
I2
sg61
I5
sa(dp63
g57
I1
sg58
F21.62870693206787
sg59
F9.202957153320312e-05
sg60
I3
sg61
I3
sa(dp64
g57
I0
sg58
F0.04379105567932129
sg59
F0.00014090538024902344
sg60
I1
sg61
I2
sasS'total_cqs'
p65
I6
ssI9
(dp66
S'iters'
p67
I2
sS'meta'
p68
(lp69
(dp70
S'objective'
p71
I2
sS'query_time'
p72
F5.364948034286499
sS'comp_time'
p73
F0.000102996826171875
sS'exec_cq'
p74
I1
sS'total_cq'
p75
I6
sa(dp76
g71
I2
sg72
F0.9825100898742676
sg73
F0.0001361370086669922
sg74
I1
sg75
I4
sasS'total_cqs'
p77
I6
ssI13
(dp78
S'iters'
p79
I1
sS'meta'
p80
(lp81
(dp82
S'objective'
p83
I6
sS'query_time'
p84
F0.4098219871520996
sS'comp_time'
p85
F8.296966552734375e-05
sS'exec_cq'
p86
I1
sS'total_cq'
p87
I8
sasS'total_cqs'
p88
I8
ssI14
(dp89
S'iters'
p90
I3
sS'meta'
p91
(lp92
(dp93
S'objective'
p94
I3
sS'query_time'
p95
F0.03795289993286133
sS'comp_time'
p96
F5.793571472167969e-05
sS'exec_cq'
p97
I1
sS'total_cq'
p98
I5
sa(dp99
g94
I2
sg95
F0.2681710720062256
sg96
F8.702278137207031e-05
sg97
I3
sg98
I4
sa(dp100
g94
I1
sg95
F1.0156528949737549
sg96
F9.894371032714844e-05
sg97
I3
sg98
I3
sasS'total_cqs'
p101
I5
ssI16
(dp102
S'iters'
p103
I2
sS'meta'
p104
(lp105
(dp106
S'objective'
p107
I1
sS'query_time'
p108
F7.6892991065979
sS'comp_time'
p109
F8.511543273925781e-05
sS'exec_cq'
p110
I1
sS'total_cq'
p111
I5
sa(dp112
g107
I0
sg108
F89.89158797264099
sg109
F8.0108642578125e-05
sg110
I2
sg111
I2
sasS'total_cqs'
p113
I5
ssI18
(dp114
S'iters'
p115
I2
sS'meta'
p116
(lp117
(dp118
S'objective'
p119
I1
sS'query_time'
p120
F6.573745965957642
sS'comp_time'
p121
F0.000102996826171875
sS'exec_cq'
p122
I1
sS'total_cq'
p123
I5
sa(dp124
g119
I1
sg120
F0.46159791946411133
sg121
F9.703636169433594e-05
sg122
I1
sg123
I3
sasS'total_cqs'
p125
I5
ssI20
(dp126
S'iters'
p127
I4
sS'meta'
p128
(lp129
(dp130
S'objective'
p131
I8
sS'query_time'
p132
F0.025709152221679688
sS'comp_time'
p133
F7.700920104980469e-05
sS'exec_cq'
p134
I2
sS'total_cq'
p135
I12
sa(dp136
g131
I6
sg132
F0.023914098739624023
sg133
F9.202957153320312e-05
sg134
I1
sg135
I10
sa(dp137
g131
I6
sg132
F5.189985990524292
sg133
F0.00021386146545410156
sg134
I2
sg135
I8
sa(dp138
g131
I5
sg132
F0.12446093559265137
sg133
F8.320808410644531e-05
sg134
I1
sg135
I7
sasS'total_cqs'
p139
I12
ssI21
(dp140
S'iters'
p141
I3
sS'meta'
p142
(lp143
(dp144
S'objective'
p145
I6
sS'query_time'
p146
F25.581909894943237
sS'comp_time'
p147
F0.0003731250762939453
sS'exec_cq'
p148
I2
sS'total_cq'
p149
I14
sa(dp150
g145
I6
sg146
F0.0973520278930664
sg147
F7.581710815429688e-05
sg148
I1
sg149
I10
sa(dp151
g145
I6
sg146
F0.01687002182006836
sg147
F0.00010800361633300781
sg148
I1
sg149
I8
sasS'total_cqs'
p152
I14
ssI22
(dp153
S'iters'
p154
I1
sS'meta'
p155
(lp156
(dp157
S'objective'
p158
I0
sS'query_time'
p159
F0.004652976989746094
sS'comp_time'
p160
F7.009506225585938e-05
sS'exec_cq'
p161
I1
sS'total_cq'
p162
I2
sasS'total_cqs'
p163
I2
ssI25
(dp164
S'iters'
p165
I1
sS'meta'
p166
(lp167
(dp168
S'objective'
p169
I5
sS'query_time'
p170
F0.4839448928833008
sS'comp_time'
p171
F8.082389831542969e-05
sS'exec_cq'
p172
I1
sS'total_cq'
p173
I7
sasS'total_cqs'
p174
I7
ssI26
(dp175
S'iters'
p176
I1
sS'meta'
p177
(lp178
(dp179
S'objective'
p180
I11
sS'query_time'
p181
F0.013868093490600586
sS'comp_time'
p182
F7.772445678710938e-05
sS'exec_cq'
p183
I1
sS'total_cq'
p184
I13
sasS'total_cqs'
p185
I13
ssI27
(dp186
S'iters'
p187
I1
sS'meta'
p188
(lp189
(dp190
S'objective'
p191
I0
sS'query_time'
p192
F0.15843915939331055
sS'comp_time'
p193
F7.319450378417969e-05
sS'exec_cq'
p194
I1
sS'total_cq'
p195
I2
sasS'total_cqs'
p196
I2
ssI28
(dp197
S'iters'
p198
I8
sS'meta'
p199
(lp200
(dp201
S'objective'
p202
I12
sS'query_time'
p203
F3.0299081802368164
sS'comp_time'
p204
F8.702278137207031e-05
sS'exec_cq'
p205
I1
sS'total_cq'
p206
I14
sa(dp207
g202
I5
sg203
F1.3550779819488525
sg204
F9.417533874511719e-05
sg205
I1
sg206
I13
sa(dp208
g202
I7
sg203
F1.030268907546997
sg204
F8.320808410644531e-05
sg205
I1
sg206
I9
sa(dp209
g202
I6
sg203
F0.9856770038604736
sg204
F9.202957153320312e-05
sg205
I1
sg206
I8
sa(dp210
g202
I5
sg203
F0.8133068084716797
sg204
F8.416175842285156e-05
sg205
I1
sg206
I7
sa(dp211
g202
I4
sg203
F0.5206189155578613
sg204
F8.106231689453125e-05
sg205
I1
sg206
I6
sa(dp212
g202
I3
sg203
F0.39562201499938965
sg204
F8.082389831542969e-05
sg205
I1
sg206
I5
sa(dp213
g202
I2
sg203
F0.2551450729370117
sg204
F8.20159912109375e-05
sg205
I1
sg206
I4
sasS'total_cqs'
p214
I14
ssI29
(dp215
S'iters'
p216
I1
sS'meta'
p217
(lp218
(dp219
S'objective'
p220
I0
sS'query_time'
p221
F0.00599217414855957
sS'comp_time'
p222
F6.890296936035156e-05
sS'exec_cq'
p223
I1
sS'total_cq'
p224
I2
sasS'total_cqs'
p225
I2
ssI30
(dp226
S'iters'
p227
I1
sS'meta'
p228
(lp229
(dp230
S'objective'
p231
I0
sS'query_time'
p232
F0.4207329750061035
sS'comp_time'
p233
F9.202957153320312e-05
sS'exec_cq'
p234
I2
sS'total_cq'
p235
I2
sasS'total_cqs'
p236
I2
ssI31
(dp237
S'iters'
p238
I4
sS'meta'
p239
(lp240
(dp241
S'objective'
p242
I7
sS'query_time'
p243
F0.5305211544036865
sS'comp_time'
p244
F7.581710815429688e-05
sS'exec_cq'
p245
I1
sS'total_cq'
p246
I9
sa(dp247
g242
I6
sg243
F0.005831003189086914
sg244
F5.125999450683594e-05
sg245
I1
sg246
I8
sa(dp248
g242
I5
sg243
F7.522832870483398
sg244
F0.00013375282287597656
sg245
I1
sg246
I7
sa(dp249
g242
I4
sg243
F0.318619966506958
sg244
F0.00051116943359375
sg245
I1
sg246
I6
sasS'total_cqs'
p250
I9
ssI32
(dp251
S'iters'
p252
I1
sS'meta'
p253
(lp254
(dp255
S'objective'
p256
I5
sS'query_time'
p257
F0.20952391624450684
sS'comp_time'
p258
F8.20159912109375e-05
sS'exec_cq'
p259
I1
sS'total_cq'
p260
I7
sasS'total_cqs'
p261
I7
ssI33
(dp262
S'iters'
p263
I1
sS'meta'
p264
(lp265
(dp266
S'objective'
p267
I0
sS'query_time'
p268
F0.04031205177307129
sS'comp_time'
p269
F6.890296936035156e-05
sS'exec_cq'
p270
I2
sS'total_cq'
p271
I2
sasS'total_cqs'
p272
I2
ssI35
(dp273
S'iters'
p274
I3
sS'meta'
p275
(lp276
(dp277
S'objective'
p278
I3
sS'query_time'
p279
F9.22691798210144
sS'comp_time'
p280
F0.00011205673217773438
sS'exec_cq'
p281
I1
sS'total_cq'
p282
I5
sa(dp283
g278
I2
sg279
F1.0990028381347656
sg280
F0.0005156993865966797
sg281
I1
sg282
I4
sa(dp284
g278
I1
sg279
F0.19616389274597168
sg280
F0.0001418590545654297
sg281
I1
sg282
I3
sasS'total_cqs'
p285
I5
ssI37
(dp286
S'iters'
p287
I5
sS'meta'
p288
(lp289
(dp290
S'objective'
p291
I8
sS'query_time'
p292
F0.3905599117279053
sS'comp_time'
p293
F8.0108642578125e-05
sS'exec_cq'
p294
I1
sS'total_cq'
p295
I10
sa(dp296
g291
I7
sg292
F0.6201019287109375
sg293
F7.104873657226562e-05
sg294
I2
sg295
I9
sa(dp297
g291
I6
sg292
F0.0038521289825439453
sg293
F4.7206878662109375e-05
sg294
I2
sg295
I8
sa(dp298
g291
I5
sg292
F0.004218101501464844
sg293
F6.794929504394531e-05
sg294
I1
sg295
I7
sa(dp299
g291
I4
sg292
F0.25707411766052246
sg293
F7.510185241699219e-05
sg294
I2
sg295
I6
sasS'total_cqs'
p300
I10
ssI40
(dp301
S'iters'
p302
I1
sS'meta'
p303
(lp304
(dp305
S'objective'
p306
I0
sS'query_time'
p307
F17.18598198890686
sS'comp_time'
p308
F0.0001251697540283203
sS'exec_cq'
p309
I1
sS'total_cq'
p310
I2
sasS'total_cqs'
p311
I2
ssI41
(dp312
S'iters'
p313
I4
sS'meta'
p314
(lp315
(dp316
S'objective'
p317
I4
sS'query_time'
p318
F2.113158941268921
sS'comp_time'
p319
F0.0006129741668701172
sS'exec_cq'
p320
I1
sS'total_cq'
p321
I6
sa(dp322
g317
I3
sg318
F1.47794508934021
sg319
F0.00013017654418945312
sg320
I1
sg321
I5
sa(dp323
g317
I2
sg318
F0.26053905487060547
sg319
F7.390975952148438e-05
sg320
I1
sg321
I4
sa(dp324
g317
I1
sg318
F0.08653116226196289
sg319
F0.00012302398681640625
sg320
I1
sg321
I3
sasS'total_cqs'
p325
I6
ssI42
(dp326
S'iters'
p327
I1
sS'meta'
p328
(lp329
(dp330
S'objective'
p331
I0
sS'query_time'
p332
F17.003511905670166
sS'comp_time'
p333
F0.00014901161193847656
sS'exec_cq'
p334
I1
sS'total_cq'
p335
I2
sasS'total_cqs'
p336
I2
ssI44
(dp337
S'iters'
p338
I3
sS'meta'
p339
(lp340
(dp341
S'objective'
p342
I3
sS'query_time'
p343
F0.02161097526550293
sS'comp_time'
p344
F8.296966552734375e-05
sS'exec_cq'
p345
I1
sS'total_cq'
p346
I5
sa(dp347
g342
I2
sg343
F1.2151660919189453
sg344
F7.796287536621094e-05
sg345
I1
sg346
I4
sa(dp348
g342
I1
sg343
F3.2454259395599365
sg344
F8.606910705566406e-05
sg345
I1
sg346
I3
sasS'total_cqs'
p349
I5
ssI45
(dp350
S'iters'
p351
I2
sS'meta'
p352
(lp353
(dp354
S'objective'
p355
I1
sS'query_time'
p356
F0.04360198974609375
sS'comp_time'
p357
F9.202957153320312e-05
sS'exec_cq'
p358
I4
sS'total_cq'
p359
I5
sa(dp360
g355
I0
sg356
F0.6409049034118652
sg357
F8.702278137207031e-05
sg358
I2
sg359
I2
sasS'total_cqs'
p361
I5
ssI48
(dp362
S'iters'
p363
I1
sS'meta'
p364
(lp365
(dp366
S'objective'
p367
I0
sS'query_time'
p368
F0.1168220043182373
sS'comp_time'
p369
F6.508827209472656e-05
sS'exec_cq'
p370
I1
sS'total_cq'
p371
I2
sasS'total_cqs'
p372
I2
ssI49
(dp373
S'iters'
p374
I3
sS'meta'
p375
(lp376
(dp377
S'objective'
p378
I3
sS'query_time'
p379
F3.846470832824707
sS'comp_time'
p380
F0.00013303756713867188
sS'exec_cq'
p381
I1
sS'total_cq'
p382
I5
sa(dp383
g378
I2
sg379
F0.05284404754638672
sg380
F8.893013000488281e-05
sg381
I1
sg382
I4
sa(dp384
g378
I1
sg379
F0.02190399169921875
sg380
F6.818771362304688e-05
sg381
I1
sg382
I3
sasS'total_cqs'
p385
I5
ssI50
(dp386
S'iters'
p387
I1
sS'meta'
p388
(lp389
(dp390
S'objective'
p391
I3
sS'query_time'
p392
F0.9862840175628662
sS'comp_time'
p393
F9.226799011230469e-05
sS'exec_cq'
p394
I1
sS'total_cq'
p395
I5
sasS'total_cqs'
p396
I5
ssI55
(dp397
S'iters'
p398
I1
sS'meta'
p399
(lp400
(dp401
S'objective'
p402
I0
sS'query_time'
p403
F25.944252967834473
sS'comp_time'
p404
F9.298324584960938e-05
sS'exec_cq'
p405
I2
sS'total_cq'
p406
I2
sasS'total_cqs'
p407
I2
ssI57
(dp408
S'iters'
p409
I2
sS'meta'
p410
(lp411
(dp412
S'objective'
p413
I1
sS'query_time'
p414
F2.246893882751465
sS'comp_time'
p415
F0.00021219253540039062
sS'exec_cq'
p416
I1
sS'total_cq'
p417
I3
sa(dp418
g413
I0
sg414
F11.407117128372192
sg415
F9.489059448242188e-05
sg416
I1
sg417
I2
sasS'total_cqs'
p419
I3
ssI116
(dp420
S'iters'
p421
I6
sS'meta'
p422
(lp423
(dp424
S'objective'
p425
I19
sS'query_time'
p426
F1.4705259799957275
sS'comp_time'
p427
F9.703636169433594e-05
sS'exec_cq'
p428
I4
sS'total_cq'
p429
I21
sa(dp430
g425
I18
sg426
F0.1501178741455078
sg427
F8.58306884765625e-05
sg428
I1
sg429
I20
sa(dp431
g425
I17
sg426
F3.8024978637695312
sg427
F0.0003590583801269531
sg428
I1
sg429
I19
sa(dp432
g425
I16
sg426
F0.8737368583679199
sg427
F9.107589721679688e-05
sg428
I6
sg429
I18
sa(dp433
g425
I15
sg426
F0.1062459945678711
sg427
F7.796287536621094e-05
sg428
I7
sg429
I17
sa(dp434
g425
I14
sg426
F0.09880304336547852
sg427
F8.797645568847656e-05
sg428
I13
sg429
I16
sasS'total_cqs'
p435
I21
ssI117
(dp436
S'iters'
p437
I1
sS'meta'
p438
(lp439
(dp440
S'objective'
p441
I3
sS'query_time'
p442
F0.007158041000366211
sS'comp_time'
p443
F6.008148193359375e-05
sS'exec_cq'
p444
I1
sS'total_cq'
p445
I5
sasS'total_cqs'
p446
I5
ss.