(dp0
I1
(dp1
S'iters'
p2
I2
sS'meta'
p3
(lp4
(dp5
S'objective'
p6
I5
sS'query_time'
p7
F48.34472680091858
sS'comp_time'
p8
F1.1725518703460693
sS'exec_cq'
p9
I5
sS'total_cq'
p10
I6
sa(dp11
g6
I4
sg7
F0.16313600540161133
sg8
F0.23011064529418945
sg9
I2
sg10
I2
sasS'total_cqs'
p12
I6
ssI2
(dp13
S'iters'
p14
I1
sS'meta'
p15
(lp16
(dp17
S'objective'
p18
I9
sS'query_time'
p19
F1.0326080322265625
sS'comp_time'
p20
F0.03582501411437988
sS'exec_cq'
p21
I5
sS'total_cq'
p22
I6
sasS'total_cqs'
p23
I6
ssI3
(dp24
S'iters'
p25
I7
sS'meta'
p26
(lp27
(dp28
S'objective'
p29
I421
sS'query_time'
p30
F25.844754219055176
sS'comp_time'
p31
F0.2294914722442627
sS'exec_cq'
p32
I28
sS'total_cq'
p33
I33
sa(dp34
g29
I369
sg30
F0.19266176223754883
sg31
F0.023272275924682617
sg32
I30
sg33
I30
sa(dp35
g29
I312
sg30
F0.07198596000671387
sg31
F0.023418664932250977
sg32
I27
sg33
I27
sa(dp36
g29
I261
sg30
F0.010235071182250977
sg31
F0.020447254180908203
sg32
I24
sg33
I24
sa(dp37
g29
I218
sg30
F0.007899999618530273
sg31
F0.0800023078918457
sg32
I21
sg33
I21
sa(dp38
g29
I197
sg30
F0.0084228515625
sg31
F0.01862478256225586
sg32
I18
sg33
I18
sa(dp39
g29
I166
sg30
F0.009599924087524414
sg31
F0.017657041549682617
sg32
I16
sg33
I16
sasS'total_cqs'
p40
I33
ssI4
(dp41
S'iters'
p42
I0
sS'meta'
p43
(lp44
sS'total_cqs'
p45
I1
ssI5
(dp46
S'iters'
p47
I0
sS'meta'
p48
(lp49
sS'total_cqs'
p50
I1
ssI6
(dp51
S'iters'
p52
I2
sS'meta'
p53
(lp54
(dp55
S'objective'
p56
I1
sS'query_time'
p57
F15.115979194641113
sS'comp_time'
p58
F0.007055521011352539
sS'exec_cq'
p59
I4
sS'total_cq'
p60
I5
sa(dp61
g56
I3
sg57
F0.00037407875061035156
sg58
F0.0005779266357421875
sg59
I2
sg60
I2
sasS'total_cqs'
p62
I5
ssI7
(dp63
S'iters'
p64
I0
sS'meta'
p65
(lp66
sS'total_cqs'
p67
I1
ssI8
(dp68
S'iters'
p69
I2
sS'meta'
p70
(lp71
(dp72
S'objective'
p73
I13
sS'query_time'
p74
F23.256880044937134
sS'comp_time'
p75
F0.12274599075317383
sS'exec_cq'
p76
I5
sS'total_cq'
p77
I6
sa(dp78
g73
I5
sg74
F0.10899591445922852
sg75
F0.00017881393432617188
sg76
I4
sg77
I5
sasS'total_cqs'
p79
I6
ssI9
(dp80
S'iters'
p81
I2
sS'meta'
p82
(lp83
(dp84
S'objective'
p85
I1
sS'query_time'
p86
F12.403496026992798
sS'comp_time'
p87
F0.05865311622619629
sS'exec_cq'
p88
I3
sS'total_cq'
p89
I6
sa(dp90
g85
I1
sg86
F0.05665278434753418
sg87
F0.35006213188171387
sg88
I3
sg89
I3
sasS'total_cqs'
p91
I6
ssI10
(dp92
S'iters'
p93
I0
sS'meta'
p94
(lp95
sS'total_cqs'
p96
I1
ssI11
(dp97
S'iters'
p98
I0
sS'meta'
p99
(lp100
sS'total_cqs'
p101
I1
ssI12
(dp102
S'iters'
p103
I0
sS'meta'
p104
(lp105
sS'total_cqs'
p106
I1
ssI13
(dp107
S'iters'
p108
I1
sS'meta'
p109
(lp110
(dp111
S'objective'
p112
I20
sS'query_time'
p113
F0.028814077377319336
sS'comp_time'
p114
F0.009257078170776367
sS'exec_cq'
p115
I6
sS'total_cq'
p116
I8
sasS'total_cqs'
p117
I8
ssI14
(dp118
S'iters'
p119
I1
sS'meta'
p120
(lp121
(dp122
S'objective'
p123
I5
sS'query_time'
p124
F1.0204408168792725
sS'comp_time'
p125
F0.005234241485595703
sS'exec_cq'
p126
I5
sS'total_cq'
p127
I5
sasS'total_cqs'
p128
I5
ssI16
(dp129
S'iters'
p130
I2
sS'meta'
p131
(lp132
(dp133
S'objective'
p134
I3
sS'query_time'
p135
F1.3500750064849854
sS'comp_time'
p136
F0.005742073059082031
sS'exec_cq'
p137
I4
sS'total_cq'
p138
I5
sa(dp139
g134
I4
sg135
F0.0011749267578125
sg136
F0.0018131732940673828
sg137
I2
sg138
I2
sasS'total_cqs'
p140
I5
ssI17
(dp141
S'iters'
p142
I0
sS'meta'
p143
(lp144
sS'total_cqs'
p145
I1
ssI18
(dp146
S'iters'
p147
I2
sS'meta'
p148
(lp149
(dp150
S'objective'
p151
I3
sS'query_time'
p152
F0.18598389625549316
sS'comp_time'
p153
F0.004033327102661133
sS'exec_cq'
p154
I4
sS'total_cq'
p155
I5
sa(dp156
g151
I1
sg152
F0.02207207679748535
sg153
F0.00032591819763183594
sg154
I3
sg155
I3
sasS'total_cqs'
p157
I5
ssI19
(dp158
S'iters'
p159
I0
sS'meta'
p160
(lp161
sS'total_cqs'
p162
I1
ssI20
(dp163
S'iters'
p164
I3
sS'meta'
p165
(lp166
(dp167
S'objective'
p168
I36
sS'query_time'
p169
F9.647363901138306
sS'comp_time'
p170
F0.3293890953063965
sS'exec_cq'
p171
I6
sS'total_cq'
p172
I12
sa(dp173
g168
I31
sg169
F4.686500072479248
sg170
F0.6186456680297852
sg171
I8
sg172
I10
sa(dp174
g168
I20
sg169
F0.15949487686157227
sg170
F0.1461341381072998
sg171
I5
sg172
I8
sasS'total_cqs'
p175
I12
ssI21
(dp176
S'iters'
p177
I2
sS'meta'
p178
(lp179
(dp180
S'objective'
p181
I65
sS'query_time'
p182
F61.601579904556274
sS'comp_time'
p183
F0.9251551628112793
sS'exec_cq'
p184
I12
sS'total_cq'
p185
I14
sa(dp186
g181
I57
sg182
F0.12043881416320801
sg183
F0.05868387222290039
sg184
I9
sg185
I11
sasS'total_cqs'
p187
I14
ssI22
(dp188
S'iters'
p189
I1
sS'meta'
p190
(lp191
(dp192
S'objective'
p193
I1
sS'query_time'
p194
F0.00728607177734375
sS'comp_time'
p195
F0.0027718544006347656
sS'exec_cq'
p196
I1
sS'total_cq'
p197
I2
sasS'total_cqs'
p198
I2
ssI23
(dp199
S'iters'
p200
I0
sS'meta'
p201
(lp202
sS'total_cqs'
p203
I1
ssI24
(dp204
S'iters'
p205
I0
sS'meta'
p206
(lp207
sS'total_cqs'
p208
I1
ssI25
(dp209
S'iters'
p210
I2
sS'meta'
p211
(lp212
(dp213
S'objective'
p214
I6
sS'query_time'
p215
F47.18600916862488
sS'comp_time'
p216
F2.088301181793213
sS'exec_cq'
p217
I4
sS'total_cq'
p218
I7
sa(dp219
g214
I3
sg215
F0.2179269790649414
sg216
F0.0004899501800537109
sg217
I1
sg218
I5
sasS'total_cqs'
p220
I7
ssI26
(dp221
S'iters'
p222
I3
sS'meta'
p223
(lp224
(dp225
S'objective'
p226
I59
sS'query_time'
p227
F0.26837706565856934
sS'comp_time'
p228
F0.014967203140258789
sS'exec_cq'
p229
I4
sS'total_cq'
p230
I13
sa(dp231
g226
I47
sg227
F0.03827095031738281
sg228
F0.0019202232360839844
sg229
I4
sg230
I11
sa(dp232
g226
I35
sg227
F0.01673412322998047
sg228
F0.0017421245574951172
sg229
I3
sg230
I9
sasS'total_cqs'
p233
I13
ssI27
(dp234
S'iters'
p235
I1
sS'meta'
p236
(lp237
(dp238
S'objective'
p239
I1
sS'query_time'
p240
F0.22128796577453613
sS'comp_time'
p241
F0.0019927024841308594
sS'exec_cq'
p242
I1
sS'total_cq'
p243
I2
sasS'total_cqs'
p244
I2
ssI28
(dp245
S'iters'
p246
I2
sS'meta'
p247
(lp248
(dp249
S'objective'
p250
I55
sS'query_time'
p251
F1.5453519821166992
sS'comp_time'
p252
F0.07857584953308105
sS'exec_cq'
p253
I6
sS'total_cq'
p254
I14
sa(dp255
g250
I52
sg251
F0.00839996337890625
sg252
F0.00018215179443359375
sg253
I3
sg254
I11
sasS'total_cqs'
p256
I14
ssI29
(dp257
S'iters'
p258
I1
sS'meta'
p259
(lp260
(dp261
S'objective'
p262
I1
sS'query_time'
p263
F0.006994009017944336
sS'comp_time'
p264
F0.0013279914855957031
sS'exec_cq'
p265
I2
sS'total_cq'
p266
I2
sasS'total_cqs'
p267
I2
ssI30
(dp268
S'iters'
p269
I1
sS'meta'
p270
(lp271
(dp272
S'objective'
p273
I1
sS'query_time'
p274
F0.3318932056427002
sS'comp_time'
p275
F0.0021021366119384766
sS'exec_cq'
p276
I2
sS'total_cq'
p277
I2
sasS'total_cqs'
p278
I2
ssI31
(dp279
S'iters'
p280
I2
sS'meta'
p281
(lp282
(dp283
S'objective'
p284
I7
sS'query_time'
p285
F5.718800067901611
sS'comp_time'
p286
F0.15530753135681152
sS'exec_cq'
p287
I9
sS'total_cq'
p288
I9
sa(dp289
g284
I1
sg285
F0.009544134140014648
sg286
F0.014748096466064453
sg287
I3
sg288
I3
sasS'total_cqs'
p290
I9
ssI32
(dp291
S'iters'
p292
I3
sS'meta'
p293
(lp294
(dp295
S'objective'
p296
I6
sS'query_time'
p297
F21.08823800086975
sS'comp_time'
p298
F1.859508991241455
sS'exec_cq'
p299
I4
sS'total_cq'
p300
I7
sa(dp301
g296
I1
sg297
F1.132354974746704
sg298
F0.003238201141357422
sg299
I2
sg300
I4
sa(dp302
g296
I5
sg297
F0.24216198921203613
sg298
F0.23201990127563477
sg299
I1
sg300
I2
sasS'total_cqs'
p303
I7
ssI33
(dp304
S'iters'
p305
I1
sS'meta'
p306
(lp307
(dp308
S'objective'
p309
I1
sS'query_time'
p310
F0.026302099227905273
sS'comp_time'
p311
F0.0015308856964111328
sS'exec_cq'
p312
I2
sS'total_cq'
p313
I2
sasS'total_cqs'
p314
I2
ssI34
(dp315
S'iters'
p316
I0
sS'meta'
p317
(lp318
sS'total_cqs'
p319
I1
ssI35
(dp320
S'iters'
p321
I2
sS'meta'
p322
(lp323
(dp324
S'objective'
p325
I1
sS'query_time'
p326
F13.489267110824585
sS'comp_time'
p327
F0.1021418571472168
sS'exec_cq'
p328
I4
sS'total_cq'
p329
I5
sa(dp330
g325
I2
sg326
F0.012676000595092773
sg327
F0.10562586784362793
sg328
I2
sg329
I3
sasS'total_cqs'
p331
I5
ssI37
(dp332
S'iters'
p333
I2
sS'meta'
p334
(lp335
(dp336
S'objective'
p337
I25
sS'query_time'
p338
F1.794389247894287
sS'comp_time'
p339
F0.10441207885742188
sS'exec_cq'
p340
I8
sS'total_cq'
p341
I10
sa(dp342
g337
I5
sg338
F0.003841876983642578
sg339
F0.07201862335205078
sg340
I2
sg341
I2
sasS'total_cqs'
p343
I10
ssI38
(dp344
S'iters'
p345
I0
sS'meta'
p346
(lp347
sS'total_cqs'
p348
I1
ssI39
(dp349
S'iters'
p350
I0
sS'meta'
p351
(lp352
sS'total_cqs'
p353
I1
ssI40
(dp354
S'iters'
p355
I1
sS'meta'
p356
(lp357
(dp358
S'objective'
p359
I1
sS'query_time'
p360
F0.019253969192504883
sS'comp_time'
p361
F0.0021047592163085938
sS'exec_cq'
p362
I1
sS'total_cq'
p363
I2
sasS'total_cqs'
p364
I2
ssI41
(dp365
S'iters'
p366
I2
sS'meta'
p367
(lp368
(dp369
S'objective'
p370
I1
sS'query_time'
p371
F1.0082859992980957
sS'comp_time'
p372
F0.0036649703979492188
sS'exec_cq'
p373
I2
sS'total_cq'
p374
I6
sa(dp375
g370
I1
sg371
F0.0015420913696289062
sg372
F0.0013267993927001953
sg373
I2
sg374
I2
sasS'total_cqs'
p376
I6
ssI42
(dp377
S'iters'
p378
I1
sS'meta'
p379
(lp380
(dp381
S'objective'
p382
I1
sS'query_time'
p383
F0.009283065795898438
sS'comp_time'
p384
F0.0010690689086914062
sS'exec_cq'
p385
I1
sS'total_cq'
p386
I2
sasS'total_cqs'
p387
I2
ssI43
(dp388
S'iters'
p389
I0
sS'meta'
p390
(lp391
sS'total_cqs'
p392
I1
ssI44
(dp393
S'iters'
p394
I1
sS'meta'
p395
(lp396
(dp397
S'objective'
p398
I5
sS'query_time'
p399
F1.3143589496612549
sS'comp_time'
p400
F0.027093887329101562
sS'exec_cq'
p401
I3
sS'total_cq'
p402
I5
sasS'total_cqs'
p403
I5
ssI45
(dp404
S'iters'
p405
I2
sS'meta'
p406
(lp407
(dp408
S'objective'
p409
I3
sS'query_time'
p410
F0.03257107734680176
sS'comp_time'
p411
F0.002654552459716797
sS'exec_cq'
p412
I3
sS'total_cq'
p413
I5
sa(dp414
g409
I1
sg410
F0.00019502639770507812
sg411
F0.0002200603485107422
sg412
I2
sg413
I2
sasS'total_cqs'
p415
I5
ssI46
(dp416
S'iters'
p417
I0
sS'meta'
p418
(lp419
sS'total_cqs'
p420
I1
ssI47
(dp421
S'iters'
p422
I0
sS'meta'
p423
(lp424
sS'total_cqs'
p425
I1
ssI48
(dp426
S'iters'
p427
I1
sS'meta'
p428
(lp429
(dp430
S'objective'
p431
I1
sS'query_time'
p432
F0.09511685371398926
sS'comp_time'
p433
F0.004907846450805664
sS'exec_cq'
p434
I2
sS'total_cq'
p435
I2
sasS'total_cqs'
p436
I2
ssI49
(dp437
S'iters'
p438
I2
sS'meta'
p439
(lp440
(dp441
S'objective'
p442
I1
sS'query_time'
p443
F0.19049811363220215
sS'comp_time'
p444
F0.002663135528564453
sS'exec_cq'
p445
I4
sS'total_cq'
p446
I5
sa(dp447
g442
I2
sg443
F2.5987625122070312e-05
sg444
F8.130073547363281e-05
sg445
I2
sg446
I3
sasS'total_cqs'
p448
I5
ssI50
(dp449
S'iters'
p450
I1
sS'meta'
p451
(lp452
(dp453
S'objective'
p454
I5
sS'query_time'
p455
F0.69858717918396
sS'comp_time'
p456
F0.0037970542907714844
sS'exec_cq'
p457
I5
sS'total_cq'
p458
I5
sasS'total_cqs'
p459
I5
ssI51
(dp460
S'iters'
p461
I0
sS'meta'
p462
(lp463
sS'total_cqs'
p464
I1
ssI52
(dp465
S'iters'
p466
I0
sS'meta'
p467
(lp468
sS'total_cqs'
p469
I1
ssI53
(dp470
S'iters'
p471
I0
sS'meta'
p472
(lp473
sS'total_cqs'
p474
I1
ssI55
(dp475
S'iters'
p476
I1
sS'meta'
p477
(lp478
(dp479
S'objective'
p480
I1
sS'query_time'
p481
F24.359081983566284
sS'comp_time'
p482
F0.017157554626464844
sS'exec_cq'
p483
I2
sS'total_cq'
p484
I2
sasS'total_cqs'
p485
I2
ssI56
(dp486
S'iters'
p487
I0
sS'meta'
p488
(lp489
sS'total_cqs'
p490
I1
ssI57
(dp491
S'iters'
p492
I1
sS'meta'
p493
(lp494
(dp495
S'objective'
p496
I0
sS'query_time'
p497
F11.860381126403809
sS'comp_time'
p498
F1.0087220668792725
sS'exec_cq'
p499
I2
sS'total_cq'
p500
I3
sasS'total_cqs'
p501
I3
ssI108
(dp502
S'iters'
p503
I0
sS'meta'
p504
(lp505
sS'total_cqs'
p506
I1
ssI109
(dp507
S'iters'
p508
I0
sS'meta'
p509
(lp510
sS'total_cqs'
p511
I1
ssI116
(dp512
S'iters'
p513
I2
sS'meta'
p514
(lp515
(dp516
S'objective'
p517
I157
sS'query_time'
p518
F0.5957841873168945
sS'comp_time'
p519
F0.013871908187866211
sS'exec_cq'
p520
I14
sS'total_cq'
p521
I21
sa(dp522
g517
I5
sg518
F0.10122799873352051
sg519
F0.0012450218200683594
sg520
I2
sg521
I2
sasS'total_cqs'
p523
I21
ssI117
(dp524
S'iters'
p525
I1
sS'meta'
p526
(lp527
(dp528
S'objective'
p529
I5
sS'query_time'
p530
F0.009350061416625977
sS'comp_time'
p531
F0.0014946460723876953
sS'exec_cq'
p532
I4
sS'total_cq'
p533
I5
sasS'total_cqs'
p534
I5
ssI118
(dp535
S'iters'
p536
I0
sS'meta'
p537
(lp538
sS'total_cqs'
p539
I1
ssI122
(dp540
S'iters'
p541
I0
sS'meta'
p542
(lp543
sS'total_cqs'
p544
I1
ss.