(dp0
I1
(dp1
S'iters'
p2
I4
sS'meta'
p3
(lp4
(dp5
S'objective'
p6
I9
sS'query_time'
p7
F0.019320964813232422
sS'comp_time'
p8
F9.822845458984375e-05
sS'exec_cq'
p9
I1
sS'total_cq'
p10
I6
sa(dp11
g6
I1
sg7
F13.57982611656189
sg8
F0.00020623207092285156
sg9
I1
sg10
I5
sa(dp12
g6
I2
sg7
F3.2958710193634033
sg8
F0.00011992454528808594
sg9
I1
sg10
I3
sa(dp13
g6
I3
sg7
F811.3916611671448
sg8
F0.00015282630920410156
sg9
I1
sg10
I2
sasS'total_cqs'
p14
I6
ssI2
(dp15
S'iters'
p16
I1
sS'meta'
p17
(lp18
(dp19
S'objective'
p20
I13
sS'query_time'
p21
F0.8651399612426758
sS'comp_time'
p22
F7.987022399902344e-05
sS'exec_cq'
p23
I3
sS'total_cq'
p24
I6
sasS'total_cqs'
p25
I6
ssI3
(dp26
S'iters'
p27
I12
sS'meta'
p28
(lp29
(dp30
S'objective'
p31
I415
sS'query_time'
p32
F1.2898499965667725
sS'comp_time'
p33
F0.00014400482177734375
sS'exec_cq'
p34
I1
sS'total_cq'
p35
I33
sa(dp36
g31
I362
sg32
F0.020116090774536133
sg33
F0.00010991096496582031
sg34
I1
sg35
I30
sa(dp37
g31
I359
sg32
F0.022342920303344727
sg33
F0.00011587142944335938
sg34
I1
sg35
I28
sa(dp38
g31
I338
sg32
F0.018157005310058594
sg33
F9.489059448242188e-05
sg34
I2
sg35
I26
sa(dp39
g31
I313
sg32
F0.013042211532592773
sg33
F8.177757263183594e-05
sg34
I2
sg35
I25
sa(dp40
g31
I241
sg32
F0.04333305358886719
sg33
F0.00010704994201660156
sg34
I2
sg35
I24
sa(dp41
g31
I180
sg32
F0.010275125503540039
sg33
F6.794929504394531e-05
sg34
I2
sg35
I21
sa(dp42
g31
I189
sg32
F0.009220123291015625
sg33
F6.604194641113281e-05
sg34
I2
sg35
I18
sa(dp43
g31
I170
sg32
F0.04744601249694824
sg33
F9.107589721679688e-05
sg34
I2
sg35
I17
sa(dp44
g31
I151
sg32
F0.010001897811889648
sg33
F7.081031799316406e-05
sg34
I2
sg35
I16
sa(dp45
g31
I123
sg32
F0.013818979263305664
sg33
F6.914138793945312e-05
sg34
I2
sg35
I15
sa(dp46
g31
I111
sg32
F0.2510390281677246
sg33
F0.00010228157043457031
sg34
I2
sg35
I13
sasS'total_cqs'
p47
I33
ssI4
(dp48
S'iters'
p49
I0
sS'meta'
p50
(lp51
sS'total_cqs'
p52
I1
ssI5
(dp53
S'iters'
p54
I0
sS'meta'
p55
(lp56
sS'total_cqs'
p57
I1
ssI6
(dp58
S'iters'
p59
I3
sS'meta'
p60
(lp61
(dp62
S'objective'
p63
I1
sS'query_time'
p64
F5.2206761837005615
sS'comp_time'
p65
F0.00011014938354492188
sS'exec_cq'
p66
I1
sS'total_cq'
p67
I5
sa(dp68
g63
I3
sg64
F0.25895190238952637
sg65
F0.00010776519775390625
sg66
I1
sg67
I3
sa(dp69
g63
I3
sg64
F20.526397943496704
sg65
F0.00010800361633300781
sg66
I1
sg67
I2
sasS'total_cqs'
p70
I5
ssI7
(dp71
S'iters'
p72
I0
sS'meta'
p73
(lp74
sS'total_cqs'
p75
I1
ssI8
(dp76
S'iters'
p77
I2
sS'meta'
p78
(lp79
(dp80
S'objective'
p81
I1
sS'query_time'
p82
F3.637080192565918
sS'comp_time'
p83
F0.0002810955047607422
sS'exec_cq'
p84
I1
sS'total_cq'
p85
I6
sa(dp86
g81
I2
sg82
F0.018252134323120117
sg83
F7.486343383789062e-05
sg84
I1
sg85
I2
sasS'total_cqs'
p87
I6
ssI9
(dp88
S'iters'
p89
I4
sS'meta'
p90
(lp91
(dp92
S'objective'
p93
I5
sS'query_time'
p94
F21.156960010528564
sS'comp_time'
p95
F0.0001850128173828125
sS'exec_cq'
p96
I1
sS'total_cq'
p97
I6
sa(dp98
g93
I3
sg94
F1.1229920387268066
sg95
F0.00013589859008789062
sg96
I1
sg97
I4
sa(dp99
g93
I2
sg94
F3.535964012145996
sg95
F0.0007212162017822266
sg96
I1
sg97
I3
sa(dp100
g93
I3
sg94
F6.707288980484009
sg95
F0.00012612342834472656
sg96
I1
sg97
I2
sasS'total_cqs'
p101
I6
ssI10
(dp102
S'iters'
p103
I0
sS'meta'
p104
(lp105
sS'total_cqs'
p106
I1
ssI11
(dp107
S'iters'
p108
I0
sS'meta'
p109
(lp110
sS'total_cqs'
p111
I1
ssI12
(dp112
S'iters'
p113
I0
sS'meta'
p114
(lp115
sS'total_cqs'
p116
I1
ssI13
(dp117
S'iters'
p118
I1
sS'meta'
p119
(lp120
(dp121
S'objective'
p122
I26
sS'query_time'
p123
F0.1505570411682129
sS'comp_time'
p124
F8.726119995117188e-05
sS'exec_cq'
p125
I4
sS'total_cq'
p126
I8
sasS'total_cqs'
p127
I8
ssI14
(dp128
S'iters'
p129
I2
sS'meta'
p130
(lp131
(dp132
S'objective'
p133
I5
sS'query_time'
p134
F0.022958040237426758
sS'comp_time'
p135
F7.414817810058594e-05
sS'exec_cq'
p136
I1
sS'total_cq'
p137
I5
sa(dp138
g133
I2
sg134
F1.0502009391784668
sg135
F0.00010228157043457031
sg136
I1
sg137
I4
sasS'total_cqs'
p139
I5
ssI16
(dp140
S'iters'
p141
I2
sS'meta'
p142
(lp143
(dp144
S'objective'
p145
I3
sS'query_time'
p146
F7.373440980911255
sS'comp_time'
p147
F0.00011992454528808594
sS'exec_cq'
p148
I2
sS'total_cq'
p149
I5
sa(dp150
g145
I2
sg146
F101.16958999633789
sg147
F7.295608520507812e-05
sg148
I2
sg149
I2
sasS'total_cqs'
p151
I5
ssI17
(dp152
S'iters'
p153
I0
sS'meta'
p154
(lp155
sS'total_cqs'
p156
I1
ssI18
(dp157
S'iters'
p158
I3
sS'meta'
p159
(lp160
(dp161
S'objective'
p162
I5
sS'query_time'
p163
F0.10018491744995117
sS'comp_time'
p164
F7.390975952148438e-05
sS'exec_cq'
p165
I1
sS'total_cq'
p166
I5
sa(dp167
g162
I0
sg163
F0.31741809844970703
sg164
F8.7738037109375e-05
sg165
I1
sg166
I4
sa(dp168
g162
I3
sg163
F0.35915207862854004
sg164
F0.00012683868408203125
sg165
I2
sg166
I2
sasS'total_cqs'
p169
I5
ssI19
(dp170
S'iters'
p171
I0
sS'meta'
p172
(lp173
sS'total_cqs'
p174
I1
ssI20
(dp175
S'iters'
p176
I3
sS'meta'
p177
(lp178
(dp179
S'objective'
p180
I48
sS'query_time'
p181
F5.3574628829956055
sS'comp_time'
p182
F9.298324584960938e-05
sS'exec_cq'
p183
I1
sS'total_cq'
p184
I12
sa(dp185
g180
I47
sg181
F0.9253029823303223
sg182
F0.00036787986755371094
sg183
I4
sg184
I10
sa(dp186
g180
I41
sg181
F0.11963295936584473
sg182
F0.00010180473327636719
sg183
I4
sg184
I9
sasS'total_cqs'
p187
I12
ssI21
(dp188
S'iters'
p189
I4
sS'meta'
p190
(lp191
(dp192
S'objective'
p193
I73
sS'query_time'
p194
F0.7546589374542236
sS'comp_time'
p195
F9.107589721679688e-05
sS'exec_cq'
p196
I1
sS'total_cq'
p197
I14
sa(dp198
g193
I43
sg194
F26.468015909194946
sg195
F0.00016999244689941406
sg196
I2
sg197
I12
sa(dp199
g193
I44
sg194
F0.09314513206481934
sg195
F8.726119995117188e-05
sg196
I2
sg197
I10
sa(dp200
g193
I39
sg194
F0.019311904907226562
sg195
F6.508827209472656e-05
sg196
I2
sg197
I8
sasS'total_cqs'
p201
I14
ssI22
(dp202
S'iters'
p203
I1
sS'meta'
p204
(lp205
(dp206
S'objective'
p207
I1
sS'query_time'
p208
F0.004825115203857422
sS'comp_time'
p209
F6.413459777832031e-05
sS'exec_cq'
p210
I1
sS'total_cq'
p211
I2
sasS'total_cqs'
p212
I2
ssI23
(dp213
S'iters'
p214
I0
sS'meta'
p215
(lp216
sS'total_cqs'
p217
I1
ssI24
(dp218
S'iters'
p219
I0
sS'meta'
p220
(lp221
sS'total_cqs'
p222
I1
ssI25
(dp223
S'iters'
p224
I2
sS'meta'
p225
(lp226
(dp227
S'objective'
p228
I6
sS'query_time'
p229
F6.613828182220459
sS'comp_time'
p230
F8.487701416015625e-05
sS'exec_cq'
p231
I1
sS'total_cq'
p232
I7
sa(dp233
g228
I7
sg229
F24.505959033966064
sg230
F9.489059448242188e-05
sg231
I2
sg232
I5
sasS'total_cqs'
p234
I7
ssI26
(dp235
S'iters'
p236
I5
sS'meta'
p237
(lp238
(dp239
S'objective'
p240
I65
sS'query_time'
p241
F0.04799008369445801
sS'comp_time'
p242
F8.106231689453125e-05
sS'exec_cq'
p243
I1
sS'total_cq'
p244
I13
sa(dp245
g240
I32
sg241
F1.1825261116027832
sg242
F8.392333984375e-05
sg243
I1
sg244
I12
sa(dp246
g240
I23
sg241
F1.0033628940582275
sg242
F0.00010514259338378906
sg243
I1
sg244
I10
sa(dp247
g240
I21
sg241
F0.03600287437438965
sg242
F9.417533874511719e-05
sg243
I1
sg244
I8
sa(dp248
g240
I14
sg241
F0.005699872970581055
sg242
F5.7220458984375e-05
sg243
I1
sg244
I7
sasS'total_cqs'
p249
I13
ssI27
(dp250
S'iters'
p251
I1
sS'meta'
p252
(lp253
(dp254
S'objective'
p255
I1
sS'query_time'
p256
F0.3671591281890869
sS'comp_time'
p257
F9.822845458984375e-05
sS'exec_cq'
p258
I1
sS'total_cq'
p259
I2
sasS'total_cqs'
p260
I2
ssI28
(dp261
S'iters'
p262
I6
sS'meta'
p263
(lp264
(dp265
S'objective'
p266
I77
sS'query_time'
p267
F1.4080829620361328
sS'comp_time'
p268
F8.893013000488281e-05
sS'exec_cq'
p269
I1
sS'total_cq'
p270
I14
sa(dp271
g266
I65
sg267
F2.038053035736084
sg268
F0.0001518726348876953
sg269
I1
sg270
I13
sa(dp272
g266
I20
sg267
F0.8340790271759033
sg268
F0.0001461505889892578
sg269
I1
sg270
I12
sa(dp273
g266
I19
sg267
F0.5922369956970215
sg268
F9.512901306152344e-05
sg269
I1
sg270
I8
sa(dp274
g266
I16
sg267
F0.28104710578918457
sg268
F0.00010609626770019531
sg269
I1
sg270
I6
sa(dp275
g266
I9
sg267
F0.1714191436767578
sg268
F0.00011801719665527344
sg269
I1
sg270
I5
sasS'total_cqs'
p276
I14
ssI29
(dp277
S'iters'
p278
I1
sS'meta'
p279
(lp280
(dp281
S'objective'
p282
I1
sS'query_time'
p283
F0.006009101867675781
sS'comp_time'
p284
F7.104873657226562e-05
sS'exec_cq'
p285
I1
sS'total_cq'
p286
I2
sasS'total_cqs'
p287
I2
ssI30
(dp288
S'iters'
p289
I1
sS'meta'
p290
(lp291
(dp292
S'objective'
p293
I1
sS'query_time'
p294
F0.3843190670013428
sS'comp_time'
p295
F8.988380432128906e-05
sS'exec_cq'
p296
I1
sS'total_cq'
p297
I2
sasS'total_cqs'
p298
I2
ssI31
(dp299
S'iters'
p300
I4
sS'meta'
p301
(lp302
(dp303
S'objective'
p304
I19
sS'query_time'
p305
F1.2146961688995361
sS'comp_time'
p306
F9.012222290039062e-05
sS'exec_cq'
p307
I1
sS'total_cq'
p308
I9
sa(dp309
g304
I16
sg305
F0.42397499084472656
sg306
F7.486343383789062e-05
sg307
I1
sg308
I7
sa(dp310
g304
I6
sg305
F3.293409824371338
sg306
F9.489059448242188e-05
sg307
I1
sg308
I6
sa(dp311
g304
I3
sg305
F0.2895841598510742
sg306
F7.009506225585938e-05
sg307
I1
sg308
I4
sasS'total_cqs'
p312
I9
ssI32
(dp313
S'iters'
p314
I3
sS'meta'
p315
(lp316
(dp317
S'objective'
p318
I14
sS'query_time'
p319
F1.9577529430389404
sS'comp_time'
p320
F0.0005609989166259766
sS'exec_cq'
p321
I1
sS'total_cq'
p322
I7
sa(dp323
g318
I1
sg319
F1.0903480052947998
sg320
F8.0108642578125e-05
sg321
I1
sg322
I6
sa(dp324
g318
I1
sg319
F0.1371290683746338
sg320
F7.796287536621094e-05
sg321
I1
sg322
I4
sasS'total_cqs'
p325
I7
ssI33
(dp326
S'iters'
p327
I1
sS'meta'
p328
(lp329
(dp330
S'objective'
p331
I1
sS'query_time'
p332
F0.028950929641723633
sS'comp_time'
p333
F7.200241088867188e-05
sS'exec_cq'
p334
I1
sS'total_cq'
p335
I2
sasS'total_cqs'
p336
I2
ssI34
(dp337
S'iters'
p338
I0
sS'meta'
p339
(lp340
sS'total_cqs'
p341
I1
ssI35
(dp342
S'iters'
p343
I3
sS'meta'
p344
(lp345
(dp346
S'objective'
p347
I1
sS'query_time'
p348
F5.140499830245972
sS'comp_time'
p349
F0.00011205673217773438
sS'exec_cq'
p350
I1
sS'total_cq'
p351
I5
sa(dp352
g347
I5
sg348
F1.4370481967926025
sg349
F0.0003521442413330078
sg350
I1
sg351
I3
sa(dp353
g347
I2
sg348
F0.10340380668640137
sg349
F0.00014281272888183594
sg350
I1
sg351
I2
sasS'total_cqs'
p354
I5
ssI37
(dp355
S'iters'
p356
I5
sS'meta'
p357
(lp358
(dp359
S'objective'
p360
I35
sS'query_time'
p361
F0.3900489807128906
sS'comp_time'
p362
F0.00012803077697753906
sS'exec_cq'
p363
I1
sS'total_cq'
p364
I10
sa(dp365
g360
I27
sg361
F0.7327730655670166
sg362
F8.702278137207031e-05
sg363
I1
sg364
I9
sa(dp366
g360
I20
sg361
F0.0058422088623046875
sg362
F5.698204040527344e-05
sg363
I1
sg364
I8
sa(dp367
g360
I14
sg361
F0.5626511573791504
sg362
F7.796287536621094e-05
sg363
I1
sg364
I7
sa(dp368
g360
I9
sg361
F0.2754969596862793
sg362
F7.700920104980469e-05
sg363
I1
sg364
I6
sasS'total_cqs'
p369
I10
ssI38
(dp370
S'iters'
p371
I0
sS'meta'
p372
(lp373
sS'total_cqs'
p374
I1
ssI39
(dp375
S'iters'
p376
I0
sS'meta'
p377
(lp378
sS'total_cqs'
p379
I1
ssI40
(dp380
S'iters'
p381
I1
sS'meta'
p382
(lp383
(dp384
S'objective'
p385
I1
sS'query_time'
p386
F16.39173197746277
sS'comp_time'
p387
F0.00019478797912597656
sS'exec_cq'
p388
I2
sS'total_cq'
p389
I2
sasS'total_cqs'
p390
I2
ssI41
(dp391
S'iters'
p392
I4
sS'meta'
p393
(lp394
(dp395
S'objective'
p396
I9
sS'query_time'
p397
F0.3738999366760254
sS'comp_time'
p398
F8.082389831542969e-05
sS'exec_cq'
p399
I1
sS'total_cq'
p400
I6
sa(dp401
g396
I5
sg397
F8.709962129592896
sg398
F0.00011610984802246094
sg399
I1
sg400
I5
sa(dp402
g396
I0
sg397
F4.458524942398071
sg398
F8.0108642578125e-05
sg399
I1
sg400
I4
sa(dp403
g396
I3
sg397
F62.60880994796753
sg398
F0.00017213821411132812
sg399
I2
sg400
I2
sasS'total_cqs'
p404
I6
ssI42
(dp405
S'iters'
p406
I1
sS'meta'
p407
(lp408
(dp409
S'objective'
p410
I1
sS'query_time'
p411
F0.011094093322753906
sS'comp_time'
p412
F7.200241088867188e-05
sS'exec_cq'
p413
I1
sS'total_cq'
p414
I2
sasS'total_cqs'
p415
I2
ssI43
(dp416
S'iters'
p417
I0
sS'meta'
p418
(lp419
sS'total_cqs'
p420
I1
ssI44
(dp421
S'iters'
p422
I2
sS'meta'
p423
(lp424
(dp425
S'objective'
p426
I1
sS'query_time'
p427
F3.2340002059936523
sS'comp_time'
p428
F0.00011920928955078125
sS'exec_cq'
p429
I1
sS'total_cq'
p430
I5
sa(dp431
g426
I1
sg427
F0.0034761428833007812
sg428
F4.5299530029296875e-05
sg429
I1
sg430
I3
sasS'total_cqs'
p432
I5
ssI45
(dp433
S'iters'
p434
I2
sS'meta'
p435
(lp436
(dp437
S'objective'
p438
I5
sS'query_time'
p439
F0.04404187202453613
sS'comp_time'
p440
F8.678436279296875e-05
sS'exec_cq'
p441
I2
sS'total_cq'
p442
I5
sa(dp443
g438
I3
sg439
F0.6586639881134033
sg440
F7.295608520507812e-05
sg441
I2
sg442
I2
sasS'total_cqs'
p444
I5
ssI46
(dp445
S'iters'
p446
I0
sS'meta'
p447
(lp448
sS'total_cqs'
p449
I1
ssI47
(dp450
S'iters'
p451
I0
sS'meta'
p452
(lp453
sS'total_cqs'
p454
I1
ssI48
(dp455
S'iters'
p456
I1
sS'meta'
p457
(lp458
(dp459
S'objective'
p460
I1
sS'query_time'
p461
F0.15342283248901367
sS'comp_time'
p462
F0.00010800361633300781
sS'exec_cq'
p463
I1
sS'total_cq'
p464
I2
sasS'total_cqs'
p465
I2
ssI49
(dp466
S'iters'
p467
I2
sS'meta'
p468
(lp469
(dp470
S'objective'
p471
I5
sS'query_time'
p472
F0.04105091094970703
sS'comp_time'
p473
F9.894371032714844e-05
sS'exec_cq'
p474
I2
sS'total_cq'
p475
I5
sa(dp476
g471
I3
sg472
F0.10044503211975098
sg473
F8.392333984375e-05
sg474
I1
sg475
I2
sasS'total_cqs'
p477
I5
ssI50
(dp478
S'iters'
p479
I2
sS'meta'
p480
(lp481
(dp482
S'objective'
p483
I5
sS'query_time'
p484
F0.17704987525939941
sS'comp_time'
p485
F7.200241088867188e-05
sS'exec_cq'
p486
I1
sS'total_cq'
p487
I5
sa(dp488
g483
I2
sg484
F0.7489640712738037
sg485
F8.296966552734375e-05
sg486
I1
sg487
I4
sasS'total_cqs'
p489
I5
ssI51
(dp490
S'iters'
p491
I0
sS'meta'
p492
(lp493
sS'total_cqs'
p494
I1
ssI52
(dp495
S'iters'
p496
I0
sS'meta'
p497
(lp498
sS'total_cqs'
p499
I1
ssI53
(dp500
S'iters'
p501
I0
sS'meta'
p502
(lp503
sS'total_cqs'
p504
I1
ssI55
(dp505
S'iters'
p506
I1
sS'meta'
p507
(lp508
(dp509
S'objective'
p510
I1
sS'query_time'
p511
F9.653723001480103
sS'comp_time'
p512
F9.274482727050781e-05
sS'exec_cq'
p513
I1
sS'total_cq'
p514
I2
sasS'total_cqs'
p515
I2
ssI56
(dp516
S'iters'
p517
I0
sS'meta'
p518
(lp519
sS'total_cqs'
p520
I1
ssI57
(dp521
S'iters'
p522
I1
sS'meta'
p523
(lp524
(dp525
S'objective'
p526
I0
sS'query_time'
p527
F12.250056982040405
sS'comp_time'
p528
F0.0001201629638671875
sS'exec_cq'
p529
I1
sS'total_cq'
p530
I3
sasS'total_cqs'
p531
I3
ssI108
(dp532
S'iters'
p533
I0
sS'meta'
p534
(lp535
sS'total_cqs'
p536
I1
ssI109
(dp537
S'iters'
p538
I0
sS'meta'
p539
(lp540
sS'total_cqs'
p541
I1
ssI116
(dp542
S'iters'
p543
I4
sS'meta'
p544
(lp545
(dp546
S'objective'
p547
I191
sS'query_time'
p548
F0.14580798149108887
sS'comp_time'
p549
F8.606910705566406e-05
sS'exec_cq'
p550
I2
sS'total_cq'
p551
I21
sa(dp552
g547
I173
sg548
F1.0982639789581299
sg549
F9.679794311523438e-05
sg550
I2
sg551
I20
sa(dp553
g547
I158
sg548
F1.2238149642944336
sg549
F0.000102996826171875
sg550
I3
sg551
I19
sa(dp554
g547
I151
sg548
F0.30893802642822266
sg549
F0.00010323524475097656
sg550
I7
sg551
I18
sasS'total_cqs'
p555
I21
ssI117
(dp556
S'iters'
p557
I1
sS'meta'
p558
(lp559
(dp560
S'objective'
p561
I7
sS'query_time'
p562
F0.00539708137512207
sS'comp_time'
p563
F5.602836608886719e-05
sS'exec_cq'
p564
I2
sS'total_cq'
p565
I5
sasS'total_cqs'
p566
I5
ssI118
(dp567
S'iters'
p568
I0
sS'meta'
p569
(lp570
sS'total_cqs'
p571
I1
ssI122
(dp572
S'iters'
p573
I0
sS'meta'
p574
(lp575
sS'total_cqs'
p576
I1
ss.