(dp0
I1
(dp1
S'iters'
p2
I2
sS'meta'
p3
(lp4
(dp5
S'objective'
p6
I1
sS'query_time'
p7
F5.0830979347229
sS'comp_time'
p8
F7.390975952148438e-05
sS'exec_cq'
p9
I1
sS'total_cq'
p10
I6
sa(dp11
g6
I1
sg7
F122.60265016555786
sg8
F5.5789947509765625e-05
sg9
I1
sg10
I2
sasS'total_cqs'
p12
I6
ssI2
(dp13
S'iters'
p14
I1
sS'meta'
p15
(lp16
(dp17
S'objective'
p18
I9
sS'query_time'
p19
F0.9049649238586426
sS'comp_time'
p20
F7.700920104980469e-05
sS'exec_cq'
p21
I1
sS'total_cq'
p22
I6
sasS'total_cqs'
p23
I6
ssI3
(dp24
S'iters'
p25
I1
sS'meta'
p26
(lp27
(dp28
S'objective'
p29
I495
sS'query_time'
p30
F0.24819707870483398
sS'comp_time'
p31
F8.106231689453125e-05
sS'exec_cq'
p32
I1
sS'total_cq'
p33
I33
sasS'total_cqs'
p34
I33
ssI4
(dp35
S'iters'
p36
I0
sS'meta'
p37
(lp38
sS'total_cqs'
p39
I1
ssI5
(dp40
S'iters'
p41
I0
sS'meta'
p42
(lp43
sS'total_cqs'
p44
I1
ssI6
(dp45
S'iters'
p46
I2
sS'meta'
p47
(lp48
(dp49
S'objective'
p50
I1
sS'query_time'
p51
F33.38517785072327
sS'comp_time'
p52
F6.699562072753906e-05
sS'exec_cq'
p53
I1
sS'total_cq'
p54
I5
sa(dp55
g50
I2
sg51
F3.557889223098755
sg52
F5.817413330078125e-05
sg53
I1
sg54
I2
sasS'total_cqs'
p56
I5
ssI7
(dp57
S'iters'
p58
I0
sS'meta'
p59
(lp60
sS'total_cqs'
p61
I1
ssI8
(dp62
S'iters'
p63
I1
sS'meta'
p64
(lp65
(dp66
S'objective'
p67
I9
sS'query_time'
p68
F31.789610147476196
sS'comp_time'
p69
F0.00023293495178222656
sS'exec_cq'
p70
I1
sS'total_cq'
p71
I6
sasS'total_cqs'
p72
I6
ssI9
(dp73
S'iters'
p74
I2
sS'meta'
p75
(lp76
(dp77
S'objective'
p78
I1
sS'query_time'
p79
F3.7452380657196045
sS'comp_time'
p80
F8.0108642578125e-05
sS'exec_cq'
p81
I1
sS'total_cq'
p82
I6
sa(dp83
g78
I1
sg79
F8.725486040115356
sg80
F5.698204040527344e-05
sg81
I1
sg82
I2
sasS'total_cqs'
p84
I6
ssI10
(dp85
S'iters'
p86
I0
sS'meta'
p87
(lp88
sS'total_cqs'
p89
I1
ssI11
(dp90
S'iters'
p91
I0
sS'meta'
p92
(lp93
sS'total_cqs'
p94
I1
ssI12
(dp95
S'iters'
p96
I0
sS'meta'
p97
(lp98
sS'total_cqs'
p99
I1
ssI13
(dp100
S'iters'
p101
I1
sS'meta'
p102
(lp103
(dp104
S'objective'
p105
I20
sS'query_time'
p106
F0.255903959274292
sS'comp_time'
p107
F3.3855438232421875e-05
sS'exec_cq'
p108
I1
sS'total_cq'
p109
I8
sasS'total_cqs'
p110
I8
ssI14
(dp111
S'iters'
p112
I1
sS'meta'
p113
(lp114
(dp115
S'objective'
p116
I5
sS'query_time'
p117
F0.7323591709136963
sS'comp_time'
p118
F6.699562072753906e-05
sS'exec_cq'
p119
I1
sS'total_cq'
p120
I5
sasS'total_cqs'
p121
I5
ssI16
(dp122
S'iters'
p123
I2
sS'meta'
p124
(lp125
(dp126
S'objective'
p127
I1
sS'query_time'
p128
F0.6319270133972168
sS'comp_time'
p129
F7.700920104980469e-05
sS'exec_cq'
p130
I1
sS'total_cq'
p131
I5
sa(dp132
g127
I3
sg128
F108.7225239276886
sg129
F6.29425048828125e-05
sg130
I2
sg131
I2
sasS'total_cqs'
p133
I5
ssI17
(dp134
S'iters'
p135
I0
sS'meta'
p136
(lp137
sS'total_cqs'
p138
I1
ssI18
(dp139
S'iters'
p140
I2
sS'meta'
p141
(lp142
(dp143
S'objective'
p144
I1
sS'query_time'
p145
F0.3321268558502197
sS'comp_time'
p146
F6.008148193359375e-05
sS'exec_cq'
p147
I1
sS'total_cq'
p148
I5
sa(dp149
g144
I3
sg145
F0.22508502006530762
sg146
F7.891654968261719e-05
sg147
I2
sg148
I2
sasS'total_cqs'
p150
I5
ssI19
(dp151
S'iters'
p152
I0
sS'meta'
p153
(lp154
sS'total_cqs'
p155
I1
ssI20
(dp156
S'iters'
p157
I1
sS'meta'
p158
(lp159
(dp160
S'objective'
p161
I54
sS'query_time'
p162
F0.1534109115600586
sS'comp_time'
p163
F8.797645568847656e-05
sS'exec_cq'
p164
I1
sS'total_cq'
p165
I12
sasS'total_cqs'
p166
I12
ssI21
(dp167
S'iters'
p168
I1
sS'meta'
p169
(lp170
(dp171
S'objective'
p172
I77
sS'query_time'
p173
F0.04518485069274902
sS'comp_time'
p174
F7.700920104980469e-05
sS'exec_cq'
p175
I1
sS'total_cq'
p176
I14
sasS'total_cqs'
p177
I14
ssI22
(dp178
S'iters'
p179
I1
sS'meta'
p180
(lp181
(dp182
S'objective'
p183
I1
sS'query_time'
p184
F0.003924131393432617
sS'comp_time'
p185
F3.600120544433594e-05
sS'exec_cq'
p186
I1
sS'total_cq'
p187
I2
sasS'total_cqs'
p188
I2
ssI23
(dp189
S'iters'
p190
I0
sS'meta'
p191
(lp192
sS'total_cqs'
p193
I1
ssI24
(dp194
S'iters'
p195
I0
sS'meta'
p196
(lp197
sS'total_cqs'
p198
I1
ssI25
(dp199
S'iters'
p200
I1
sS'meta'
p201
(lp202
(dp203
S'objective'
p204
I14
sS'query_time'
p205
F0.3466930389404297
sS'comp_time'
p206
F5.602836608886719e-05
sS'exec_cq'
p207
I1
sS'total_cq'
p208
I7
sasS'total_cqs'
p209
I7
ssI26
(dp210
S'iters'
p211
I1
sS'meta'
p212
(lp213
(dp214
S'objective'
p215
I65
sS'query_time'
p216
F0.03012394905090332
sS'comp_time'
p217
F5.2928924560546875e-05
sS'exec_cq'
p218
I1
sS'total_cq'
p219
I13
sasS'total_cqs'
p220
I13
ssI27
(dp221
S'iters'
p222
I1
sS'meta'
p223
(lp224
(dp225
S'objective'
p226
I1
sS'query_time'
p227
F0.30935096740722656
sS'comp_time'
p228
F7.009506225585938e-05
sS'exec_cq'
p229
I1
sS'total_cq'
p230
I2
sasS'total_cqs'
p231
I2
ssI28
(dp232
S'iters'
p233
I1
sS'meta'
p234
(lp235
(dp236
S'objective'
p237
I77
sS'query_time'
p238
F1.0329508781433105
sS'comp_time'
p239
F7.414817810058594e-05
sS'exec_cq'
p240
I1
sS'total_cq'
p241
I14
sasS'total_cqs'
p242
I14
ssI29
(dp243
S'iters'
p244
I1
sS'meta'
p245
(lp246
(dp247
S'objective'
p248
I1
sS'query_time'
p249
F0.0056569576263427734
sS'comp_time'
p250
F4.1961669921875e-05
sS'exec_cq'
p251
I1
sS'total_cq'
p252
I2
sasS'total_cqs'
p253
I2
ssI30
(dp254
S'iters'
p255
I1
sS'meta'
p256
(lp257
(dp258
S'objective'
p259
I1
sS'query_time'
p260
F0.33704686164855957
sS'comp_time'
p261
F6.699562072753906e-05
sS'exec_cq'
p262
I1
sS'total_cq'
p263
I2
sasS'total_cqs'
p264
I2
ssI31
(dp265
S'iters'
p266
I1
sS'meta'
p267
(lp268
(dp269
S'objective'
p270
I27
sS'query_time'
p271
F0.5340349674224854
sS'comp_time'
p272
F7.486343383789062e-05
sS'exec_cq'
p273
I1
sS'total_cq'
p274
I9
sasS'total_cqs'
p275
I9
ssI32
(dp276
S'iters'
p277
I1
sS'meta'
p278
(lp279
(dp280
S'objective'
p281
I14
sS'query_time'
p282
F0.16298294067382812
sS'comp_time'
p283
F6.008148193359375e-05
sS'exec_cq'
p284
I1
sS'total_cq'
p285
I7
sasS'total_cqs'
p286
I7
ssI33
(dp287
S'iters'
p288
I1
sS'meta'
p289
(lp290
(dp291
S'objective'
p292
I1
sS'query_time'
p293
F0.05406904220581055
sS'comp_time'
p294
F6.508827209472656e-05
sS'exec_cq'
p295
I1
sS'total_cq'
p296
I2
sasS'total_cqs'
p297
I2
ssI34
(dp298
S'iters'
p299
I0
sS'meta'
p300
(lp301
sS'total_cqs'
p302
I1
ssI35
(dp303
S'iters'
p304
I1
sS'meta'
p305
(lp306
(dp307
S'objective'
p308
I5
sS'query_time'
p309
F0.2691001892089844
sS'comp_time'
p310
F8.988380432128906e-05
sS'exec_cq'
p311
I1
sS'total_cq'
p312
I5
sasS'total_cqs'
p313
I5
ssI37
(dp314
S'iters'
p315
I1
sS'meta'
p316
(lp317
(dp318
S'objective'
p319
I35
sS'query_time'
p320
F0.4223349094390869
sS'comp_time'
p321
F9.703636169433594e-05
sS'exec_cq'
p322
I1
sS'total_cq'
p323
I10
sasS'total_cqs'
p324
I10
ssI38
(dp325
S'iters'
p326
I0
sS'meta'
p327
(lp328
sS'total_cqs'
p329
I1
ssI39
(dp330
S'iters'
p331
I0
sS'meta'
p332
(lp333
sS'total_cqs'
p334
I1
ssI40
(dp335
S'iters'
p336
I1
sS'meta'
p337
(lp338
(dp339
S'objective'
p340
I1
sS'query_time'
p341
F15.090616941452026
sS'comp_time'
p342
F0.00015687942504882812
sS'exec_cq'
p343
I2
sS'total_cq'
p344
I2
sasS'total_cqs'
p345
I2
ssI41
(dp346
S'iters'
p347
I2
sS'meta'
p348
(lp349
(dp350
S'objective'
p351
I1
sS'query_time'
p352
F4.049491882324219
sS'comp_time'
p353
F8.0108642578125e-05
sS'exec_cq'
p354
I1
sS'total_cq'
p355
I6
sa(dp356
g351
I1
sg352
F68.64450693130493
sg353
F6.29425048828125e-05
sg354
I2
sg355
I2
sasS'total_cqs'
p357
I6
ssI42
(dp358
S'iters'
p359
I1
sS'meta'
p360
(lp361
(dp362
S'objective'
p363
I1
sS'query_time'
p364
F0.012916088104248047
sS'comp_time'
p365
F5.1975250244140625e-05
sS'exec_cq'
p366
I1
sS'total_cq'
p367
I2
sasS'total_cqs'
p368
I2
ssI43
(dp369
S'iters'
p370
I0
sS'meta'
p371
(lp372
sS'total_cqs'
p373
I1
ssI44
(dp374
S'iters'
p375
I1
sS'meta'
p376
(lp377
(dp378
S'objective'
p379
I5
sS'query_time'
p380
F0.009202957153320312
sS'comp_time'
p381
F5.698204040527344e-05
sS'exec_cq'
p382
I1
sS'total_cq'
p383
I5
sasS'total_cqs'
p384
I5
ssI45
(dp385
S'iters'
p386
I2
sS'meta'
p387
(lp388
(dp389
S'objective'
p390
I1
sS'query_time'
p391
F0.05041384696960449
sS'comp_time'
p392
F4.887580871582031e-05
sS'exec_cq'
p393
I1
sS'total_cq'
p394
I5
sa(dp395
g390
I2
sg391
F0.5337059497833252
sg392
F3.719329833984375e-05
sg393
I2
sg394
I2
sasS'total_cqs'
p396
I5
ssI46
(dp397
S'iters'
p398
I0
sS'meta'
p399
(lp400
sS'total_cqs'
p401
I1
ssI47
(dp402
S'iters'
p403
I0
sS'meta'
p404
(lp405
sS'total_cqs'
p406
I1
ssI48
(dp407
S'iters'
p408
I1
sS'meta'
p409
(lp410
(dp411
S'objective'
p412
I1
sS'query_time'
p413
F0.12420511245727539
sS'comp_time'
p414
F6.914138793945312e-05
sS'exec_cq'
p415
I1
sS'total_cq'
p416
I2
sasS'total_cqs'
p417
I2
ssI49
(dp418
S'iters'
p419
I2
sS'meta'
p420
(lp421
(dp422
S'objective'
p423
I3
sS'query_time'
p424
F0.09783196449279785
sS'comp_time'
p425
F5.698204040527344e-05
sS'exec_cq'
p426
I1
sS'total_cq'
p427
I5
sa(dp428
g423
I4
sg424
F0.08881878852844238
sg425
F3.600120544433594e-05
sg426
I1
sg427
I2
sasS'total_cqs'
p429
I5
ssI50
(dp430
S'iters'
p431
I1
sS'meta'
p432
(lp433
(dp434
S'objective'
p435
I5
sS'query_time'
p436
F0.6148631572723389
sS'comp_time'
p437
F6.103515625e-05
sS'exec_cq'
p438
I1
sS'total_cq'
p439
I5
sasS'total_cqs'
p440
I5
ssI51
(dp441
S'iters'
p442
I0
sS'meta'
p443
(lp444
sS'total_cqs'
p445
I1
ssI52
(dp446
S'iters'
p447
I0
sS'meta'
p448
(lp449
sS'total_cqs'
p450
I1
ssI53
(dp451
S'iters'
p452
I0
sS'meta'
p453
(lp454
sS'total_cqs'
p455
I1
ssI55
(dp456
S'iters'
p457
I1
sS'meta'
p458
(lp459
(dp460
S'objective'
p461
I1
sS'query_time'
p462
F10.17208194732666
sS'comp_time'
p463
F3.409385681152344e-05
sS'exec_cq'
p464
I1
sS'total_cq'
p465
I2
sasS'total_cqs'
p466
I2
ssI56
(dp467
S'iters'
p468
I0
sS'meta'
p469
(lp470
sS'total_cqs'
p471
I1
ssI57
(dp472
S'iters'
p473
I1
sS'meta'
p474
(lp475
(dp476
S'objective'
p477
I0
sS'query_time'
p478
F10.359436988830566
sS'comp_time'
p479
F0.0004608631134033203
sS'exec_cq'
p480
I1
sS'total_cq'
p481
I3
sasS'total_cqs'
p482
I3
ssI108
(dp483
S'iters'
p484
I0
sS'meta'
p485
(lp486
sS'total_cqs'
p487
I1
ssI109
(dp488
S'iters'
p489
I0
sS'meta'
p490
(lp491
sS'total_cqs'
p492
I1
ssI116
(dp493
S'iters'
p494
I1
sS'meta'
p495
(lp496
(dp497
S'objective'
p498
I189
sS'query_time'
p499
F0.23755788803100586
sS'comp_time'
p500
F8.392333984375e-05
sS'exec_cq'
p501
I1
sS'total_cq'
p502
I21
sasS'total_cqs'
p503
I21
ssI117
(dp504
S'iters'
p505
I1
sS'meta'
p506
(lp507
(dp508
S'objective'
p509
I5
sS'query_time'
p510
F0.004719972610473633
sS'comp_time'
p511
F4.696846008300781e-05
sS'exec_cq'
p512
I1
sS'total_cq'
p513
I5
sasS'total_cqs'
p514
I5
ssI118
(dp515
S'iters'
p516
I0
sS'meta'
p517
(lp518
sS'total_cqs'
p519
I1
ssI122
(dp520
S'iters'
p521
I0
sS'meta'
p522
(lp523
sS'total_cqs'
p524
I1
ss.