(dp0
I1
(dp1
S'iters'
p2
I3
sS'meta'
p3
(lp4
(dp5
S'objective'
p6
I9
sS'query_time'
p7
F25.331512928009033
sS'comp_time'
p8
F0.08648800849914551
sS'exec_cq'
p9
I6
sS'total_cq'
p10
I6
sa(dp11
g6
I7
sg7
F0.009923934936523438
sg8
F1.4483039379119873
sg9
I5
sg10
I5
sa(dp12
g6
I2
sg7
F0.010832071304321289
sg8
F242.00388312339783
sg9
I2
sg10
I2
sasS'total_cqs'
p13
I6
ssI2
(dp14
S'iters'
p15
I1
sS'meta'
p16
(lp17
(dp18
S'objective'
p19
I15
sS'query_time'
p20
F0.8670620918273926
sS'comp_time'
p21
F0.08516216278076172
sS'exec_cq'
p22
I6
sS'total_cq'
p23
I6
sasS'total_cqs'
p24
I6
ssI3
(dp25
S'iters'
p26
I15
sS'meta'
p27
(lp28
(dp29
S'objective'
p30
I435
sS'query_time'
p31
F26.678844928741455
sS'comp_time'
p32
F0.23153305053710938
sS'exec_cq'
p33
I33
sS'total_cq'
p34
I33
sa(dp35
g30
I374
sg31
F0.09003210067749023
sg32
F0.2472531795501709
sg33
I30
sg34
I30
sa(dp36
g30
I348
sg31
F0.03302717208862305
sg32
F0.27246618270874023
sg33
I27
sg34
I27
sa(dp37
g30
I304
sg31
F0.052514076232910156
sg32
F0.14853787422180176
sg33
I24
sg34
I24
sa(dp38
g30
I262
sg31
F0.008471012115478516
sg32
F0.0626680850982666
sg33
I21
sg34
I21
sa(dp39
g30
I219
sg31
F0.0075130462646484375
sg32
F0.036036014556884766
sg33
I18
sg34
I18
sa(dp40
g30
I184
sg31
F0.0247039794921875
sg32
F0.03270983695983887
sg33
I15
sg34
I15
sa(dp41
g30
I147
sg31
F0.00640106201171875
sg32
F0.029755115509033203
sg33
I12
sg34
I12
sa(dp42
g30
I125
sg31
F0.005164146423339844
sg32
F0.03083205223083496
sg33
I10
sg34
I10
sa(dp43
g30
I97
sg31
F0.005023956298828125
sg32
F0.027044057846069336
sg33
I9
sg34
I9
sa(dp44
g30
I72
sg31
F0.005215883255004883
sg32
F0.027104854583740234
sg33
I8
sg34
I8
sa(dp45
g30
I51
sg31
F0.0047070980072021484
sg32
F0.02813887596130371
sg33
I7
sg34
I7
sa(dp46
g30
I37
sg31
F0.019966840744018555
sg32
F0.012847900390625
sg33
I6
sg34
I6
sa(dp47
g30
I20
sg31
F0.002262115478515625
sg32
F0.013428926467895508
sg33
I5
sg34
I5
sa(dp48
g30
I18
sg31
F0.0026438236236572266
sg32
F0.013721942901611328
sg33
I4
sg34
I4
sasS'total_cqs'
p49
I33
ssI4
(dp50
S'iters'
p51
I0
sS'meta'
p52
(lp53
sS'total_cqs'
p54
I1
ssI5
(dp55
S'iters'
p56
I0
sS'meta'
p57
(lp58
sS'total_cqs'
p59
I1
ssI6
(dp60
S'iters'
p61
I2
sS'meta'
p62
(lp63
(dp64
S'objective'
p65
I1
sS'query_time'
p66
F15.316151142120361
sS'comp_time'
p67
F0.0037469863891601562
sS'exec_cq'
p68
I5
sS'total_cq'
p69
I5
sa(dp70
g65
I2
sg66
F0.0002319812774658203
sg67
F0.000946044921875
sg68
I2
sg69
I2
sasS'total_cqs'
p71
I5
ssI7
(dp72
S'iters'
p73
I0
sS'meta'
p74
(lp75
sS'total_cqs'
p76
I1
ssI8
(dp77
S'iters'
p78
I5
sS'meta'
p79
(lp80
(dp81
S'objective'
p82
I17
sS'query_time'
p83
F22.841578006744385
sS'comp_time'
p84
F0.2782859802246094
sS'exec_cq'
p85
I6
sS'total_cq'
p86
I6
sa(dp87
g82
I7
sg83
F1.4981811046600342
sg84
F1.5425410270690918
sg85
I5
sg86
I5
sa(dp88
g82
I3
sg83
F1.6848580837249756
sg84
F1.6639158725738525
sg85
I4
sg86
I4
sa(dp89
g82
I0
sg83
F21.770801067352295
sg84
F21.844241857528687
sg85
I3
sg86
I3
sa(dp90
g82
I2
sg83
F0.06524085998535156
sg84
F0.042463064193725586
sg85
I2
sg86
I2
sasS'total_cqs'
p91
I6
ssI9
(dp92
S'iters'
p93
I3
sS'meta'
p94
(lp95
(dp96
S'objective'
p97
I1
sS'query_time'
p98
F53.53381609916687
sS'comp_time'
p99
F4.15910792350769
sS'exec_cq'
p100
I6
sS'total_cq'
p101
I6
sa(dp102
g97
I1
sg98
F0.8429570198059082
sg99
F3.3316240310668945
sg100
I3
sg101
I3
sa(dp103
g97
I1
sg98
F0.0075130462646484375
sg99
F0.2250962257385254
sg100
I2
sg101
I2
sasS'total_cqs'
p104
I6
ssI10
(dp105
S'iters'
p106
I0
sS'meta'
p107
(lp108
sS'total_cqs'
p109
I1
ssI11
(dp110
S'iters'
p111
I0
sS'meta'
p112
(lp113
sS'total_cqs'
p114
I1
ssI12
(dp115
S'iters'
p116
I0
sS'meta'
p117
(lp118
sS'total_cqs'
p119
I1
ssI13
(dp120
S'iters'
p121
I2
sS'meta'
p122
(lp123
(dp124
S'objective'
p125
I24
sS'query_time'
p126
F0.018458127975463867
sS'comp_time'
p127
F0.00015282630920410156
sS'exec_cq'
p128
I8
sS'total_cq'
p129
I8
sa(dp130
g125
I24
sg126
F3.504753112792969e-05
sg127
F5.507469177246094e-05
sg128
I7
sg129
I7
sasS'total_cqs'
p131
I8
ssI14
(dp132
S'iters'
p133
I2
sS'meta'
p134
(lp135
(dp136
S'objective'
p137
I5
sS'query_time'
p138
F1.0277831554412842
sS'comp_time'
p139
F0.008168935775756836
sS'exec_cq'
p140
I5
sS'total_cq'
p141
I5
sa(dp142
g137
I4
sg138
F0.0005278587341308594
sg139
F0.0029141902923583984
sg140
I4
sg141
I4
sasS'total_cqs'
p143
I5
ssI16
(dp144
S'iters'
p145
I2
sS'meta'
p146
(lp147
(dp148
S'objective'
p149
I1
sS'query_time'
p150
F1.5579500198364258
sS'comp_time'
p151
F0.006632328033447266
sS'exec_cq'
p152
I5
sS'total_cq'
p153
I5
sa(dp154
g149
I1
sg150
F4.9114227294921875e-05
sg151
F0.00019621849060058594
sg152
I2
sg153
I2
sasS'total_cqs'
p155
I5
ssI17
(dp156
S'iters'
p157
I0
sS'meta'
p158
(lp159
sS'total_cqs'
p160
I1
ssI18
(dp161
S'iters'
p162
I2
sS'meta'
p163
(lp164
(dp165
S'objective'
p166
I1
sS'query_time'
p167
F0.28406786918640137
sS'comp_time'
p168
F0.0003311634063720703
sS'exec_cq'
p169
I5
sS'total_cq'
p170
I5
sa(dp171
g166
I2
sg167
F3.1948089599609375e-05
sg168
F9.107589721679688e-05
sg169
I2
sg170
I2
sasS'total_cqs'
p172
I5
ssI19
(dp173
S'iters'
p174
I0
sS'meta'
p175
(lp176
sS'total_cqs'
p177
I1
ssI20
(dp178
S'iters'
p179
I5
sS'meta'
p180
(lp181
(dp182
S'objective'
p183
I42
sS'query_time'
p184
F11.504374980926514
sS'comp_time'
p185
F1.1638891696929932
sS'exec_cq'
p186
I12
sS'total_cq'
p187
I12
sa(dp188
g183
I32
sg184
F0.18573498725891113
sg185
F0.6755292415618896
sg186
I10
sg187
I10
sa(dp189
g183
I28
sg184
F0.1501920223236084
sg185
F0.7527298927307129
sg186
I8
sg187
I8
sa(dp190
g183
I27
sg184
F0.17703795433044434
sg185
F0.6328961849212646
sg186
I7
sg187
I7
sa(dp191
g183
I24
sg184
F0.13565301895141602
sg185
F0.44521522521972656
sg186
I5
sg187
I5
sasS'total_cqs'
p192
I12
ssI21
(dp193
S'iters'
p194
I5
sS'meta'
p195
(lp196
(dp197
S'objective'
p198
I27
sS'query_time'
p199
F30.023880004882812
sS'comp_time'
p200
F0.5542659759521484
sS'exec_cq'
p201
I14
sS'total_cq'
p202
I14
sa(dp203
g198
I12
sg199
F0.07663583755493164
sg200
F0.18958210945129395
sg201
I10
sg202
I10
sa(dp204
g198
I17
sg199
F0.014636993408203125
sg200
F0.11041712760925293
sg201
I6
sg202
I6
sa(dp205
g198
I12
sg199
F0.01320195198059082
sg200
F0.06510281562805176
sg201
I4
sg202
I4
sa(dp206
g198
I2
sg199
F0.00424504280090332
sg200
F0.02124810218811035
sg201
I2
sg202
I2
sasS'total_cqs'
p207
I14
ssI22
(dp208
S'iters'
p209
I1
sS'meta'
p210
(lp211
(dp212
S'objective'
p213
I1
sS'query_time'
p214
F0.007825851440429688
sS'comp_time'
p215
F0.00011777877807617188
sS'exec_cq'
p216
I2
sS'total_cq'
p217
I2
sasS'total_cqs'
p218
I2
ssI23
(dp219
S'iters'
p220
I0
sS'meta'
p221
(lp222
sS'total_cqs'
p223
I1
ssI24
(dp224
S'iters'
p225
I0
sS'meta'
p226
(lp227
sS'total_cqs'
p228
I1
ssI25
(dp229
S'iters'
p230
I3
sS'meta'
p231
(lp232
(dp233
S'objective'
p234
I6
sS'query_time'
p235
F86.31325101852417
sS'comp_time'
p236
F9.918000936508179
sS'exec_cq'
p237
I7
sS'total_cq'
p238
I7
sa(dp239
g234
I5
sg235
F3.574030876159668
sg236
F11.573455810546875
sg237
I5
sg238
I5
sa(dp240
g234
I5
sg235
F1.8022451400756836
sg236
F6.3538830280303955
sg237
I3
sg238
I3
sasS'total_cqs'
p241
I7
ssI26
(dp242
S'iters'
p243
I7
sS'meta'
p244
(lp245
(dp246
S'objective'
p247
I51
sS'query_time'
p248
F24.539273977279663
sS'comp_time'
p249
F3.9393181800842285
sS'exec_cq'
p250
I13
sS'total_cq'
p251
I13
sa(dp252
g247
I37
sg248
F0.9742169380187988
sg249
F3.840096950531006
sg250
I11
sg251
I11
sa(dp253
g247
I28
sg248
F0.7943680286407471
sg249
F3.1923439502716064
sg250
I9
sg251
I9
sa(dp254
g247
I17
sg248
F0.7463889122009277
sg249
F3.140878200531006
sg250
I7
sg251
I7
sa(dp255
g247
I9
sg248
F0.7538750171661377
sg249
F4.4615559577941895
sg250
I6
sg251
I6
sa(dp256
g247
I7
sg248
F0.0010249614715576172
sg249
F0.004246950149536133
sg250
I5
sg251
I5
sa(dp257
g247
I3
sg248
F0.0006449222564697266
sg249
F0.0030961036682128906
sg250
I4
sg251
I4
sasS'total_cqs'
p258
I13
ssI27
(dp259
S'iters'
p260
I1
sS'meta'
p261
(lp262
(dp263
S'objective'
p264
I1
sS'query_time'
p265
F0.13504815101623535
sS'comp_time'
p266
F0.0041658878326416016
sS'exec_cq'
p267
I2
sS'total_cq'
p268
I2
sasS'total_cqs'
p269
I2
ssI28
(dp270
S'iters'
p271
I7
sS'meta'
p272
(lp273
(dp274
S'objective'
p275
I35
sS'query_time'
p276
F1.6056749820709229
sS'comp_time'
p277
F0.02499222755432129
sS'exec_cq'
p278
I14
sS'total_cq'
p279
I14
sa(dp280
g275
I26
sg276
F0.003275156021118164
sg277
F0.01832270622253418
sg278
I10
sg279
I10
sa(dp281
g275
I20
sg276
F0.003968000411987305
sg277
F0.03626704216003418
sg278
I7
sg279
I7
sa(dp282
g275
I14
sg276
F0.002579927444458008
sg277
F0.014976978302001953
sg278
I5
sg279
I5
sa(dp283
g275
I8
sg276
F0.0025811195373535156
sg277
F0.014982938766479492
sg278
I4
sg279
I4
sa(dp284
g275
I2
sg276
F0.00010895729064941406
sg277
F0.0005319118499755859
sg278
I3
sg279
I3
sa(dp285
g275
I1
sg276
F8.416175842285156e-05
sg277
F0.00047707557678222656
sg278
I2
sg279
I2
sasS'total_cqs'
p286
I14
ssI29
(dp287
S'iters'
p288
I1
sS'meta'
p289
(lp290
(dp291
S'objective'
p292
I1
sS'query_time'
p293
F0.007386922836303711
sS'comp_time'
p294
F0.00011420249938964844
sS'exec_cq'
p295
I2
sS'total_cq'
p296
I2
sasS'total_cqs'
p297
I2
ssI30
(dp298
S'iters'
p299
I1
sS'meta'
p300
(lp301
(dp302
S'objective'
p303
I1
sS'query_time'
p304
F0.3219871520996094
sS'comp_time'
p305
F0.006520986557006836
sS'exec_cq'
p306
I2
sS'total_cq'
p307
I2
sasS'total_cqs'
p308
I2
ssI31
(dp309
S'iters'
p310
I5
sS'meta'
p311
(lp312
(dp313
S'objective'
p314
I19
sS'query_time'
p315
F5.959686994552612
sS'comp_time'
p316
F0.1483769416809082
sS'exec_cq'
p317
I9
sS'total_cq'
p318
I9
sa(dp319
g314
I12
sg315
F0.030601024627685547
sg316
F0.16355609893798828
sg317
I7
sg318
I7
sa(dp320
g314
I4
sg315
F0.008096933364868164
sg316
F0.02725815773010254
sg317
I5
sg318
I5
sa(dp321
g314
I1
sg315
F0.006479978561401367
sg316
F0.026751041412353516
sg317
I4
sg318
I4
sa(dp322
g314
I2
sg315
F0.006349086761474609
sg316
F0.06334280967712402
sg317
I2
sg318
I2
sasS'total_cqs'
p323
I9
ssI32
(dp324
S'iters'
p325
I3
sS'meta'
p326
(lp327
(dp328
S'objective'
p329
I0
sS'query_time'
p330
F19.46256399154663
sS'comp_time'
p331
F2.986154079437256
sS'exec_cq'
p332
I7
sS'total_cq'
p333
I7
sa(dp334
g329
I0
sg330
F0.3199591636657715
sg331
F1.1941521167755127
sg332
I4
sg333
I4
sa(dp335
g329
I1
sg330
F0.34271788597106934
sg331
F1.1522250175476074
sg332
I2
sg333
I2
sasS'total_cqs'
p336
I7
ssI33
(dp337
S'iters'
p338
I1
sS'meta'
p339
(lp340
(dp341
S'objective'
p342
I1
sS'query_time'
p343
F0.02159905433654785
sS'comp_time'
p344
F0.00012803077697753906
sS'exec_cq'
p345
I2
sS'total_cq'
p346
I2
sasS'total_cqs'
p347
I2
ssI34
(dp348
S'iters'
p349
I0
sS'meta'
p350
(lp351
sS'total_cqs'
p352
I1
ssI35
(dp353
S'iters'
p354
I3
sS'meta'
p355
(lp356
(dp357
S'objective'
p358
I1
sS'query_time'
p359
F16.647523164749146
sS'comp_time'
p360
F0.22857308387756348
sS'exec_cq'
p361
I5
sS'total_cq'
p362
I5
sa(dp363
g358
I0
sg359
F0.04142403602600098
sg360
F0.1890568733215332
sg361
I3
sg362
I3
sa(dp364
g358
I2
sg359
F0.014171838760375977
sg360
F0.06438899040222168
sg361
I2
sg362
I2
sasS'total_cqs'
p365
I5
ssI37
(dp366
S'iters'
p367
I3
sS'meta'
p368
(lp369
(dp370
S'objective'
p371
I15
sS'query_time'
p372
F2.5918080806732178
sS'comp_time'
p373
F0.1240692138671875
sS'exec_cq'
p374
I10
sS'total_cq'
p375
I10
sa(dp376
g371
I2
sg372
F0.031967878341674805
sg373
F0.03868985176086426
sg374
I3
sg375
I3
sa(dp377
g371
I3
sg372
F0.003320932388305664
sg373
F0.012323856353759766
sg374
I2
sg375
I2
sasS'total_cqs'
p378
I10
ssI38
(dp379
S'iters'
p380
I0
sS'meta'
p381
(lp382
sS'total_cqs'
p383
I1
ssI39
(dp384
S'iters'
p385
I0
sS'meta'
p386
(lp387
sS'total_cqs'
p388
I1
ssI40
(dp389
S'iters'
p390
I1
sS'meta'
p391
(lp392
(dp393
S'objective'
p394
I1
sS'query_time'
p395
F17.77067995071411
sS'comp_time'
p396
F2.602632999420166
sS'exec_cq'
p397
I2
sS'total_cq'
p398
I2
sasS'total_cqs'
p399
I2
ssI41
(dp400
S'iters'
p401
I3
sS'meta'
p402
(lp403
(dp404
S'objective'
p405
I1
sS'query_time'
p406
F12.113625049591064
sS'comp_time'
p407
F1.1274969577789307
sS'exec_cq'
p408
I6
sS'total_cq'
p409
I6
sa(dp410
g405
I2
sg406
F0.0029900074005126953
sg407
F0.011223077774047852
sg408
I4
sg409
I4
sa(dp411
g405
I0
sg406
F0.0014297962188720703
sg407
F0.007418155670166016
sg408
I3
sg409
I3
sasS'total_cqs'
p412
I6
ssI42
(dp413
S'iters'
p414
I1
sS'meta'
p415
(lp416
(dp417
S'objective'
p418
I1
sS'query_time'
p419
F17.434688091278076
sS'comp_time'
p420
F2.4677531719207764
sS'exec_cq'
p421
I2
sS'total_cq'
p422
I2
sasS'total_cqs'
p423
I2
ssI43
(dp424
S'iters'
p425
I0
sS'meta'
p426
(lp427
sS'total_cqs'
p428
I1
ssI44
(dp429
S'iters'
p430
I3
sS'meta'
p431
(lp432
(dp433
S'objective'
p434
I3
sS'query_time'
p435
F1.695807933807373
sS'comp_time'
p436
F0.11018872261047363
sS'exec_cq'
p437
I5
sS'total_cq'
p438
I5
sa(dp439
g434
I1
sg435
F0.020050048828125
sg436
F0.17481398582458496
sg437
I3
sg438
I3
sa(dp440
g434
I1
sg435
F9.202957153320312e-05
sg436
F0.00038504600524902344
sg437
I2
sg438
I2
sasS'total_cqs'
p441
I5
ssI45
(dp442
S'iters'
p443
I2
sS'meta'
p444
(lp445
(dp446
S'objective'
p447
I7
sS'query_time'
p448
F0.03893089294433594
sS'comp_time'
p449
F0.0008769035339355469
sS'exec_cq'
p450
I5
sS'total_cq'
p451
I5
sa(dp452
g447
I2
sg448
F0.00015211105346679688
sg449
F0.0005469322204589844
sg450
I2
sg451
I2
sasS'total_cqs'
p453
I5
ssI46
(dp454
S'iters'
p455
I0
sS'meta'
p456
(lp457
sS'total_cqs'
p458
I1
ssI47
(dp459
S'iters'
p460
I0
sS'meta'
p461
(lp462
sS'total_cqs'
p463
I1
ssI48
(dp464
S'iters'
p465
I1
sS'meta'
p466
(lp467
(dp468
S'objective'
p469
I1
sS'query_time'
p470
F0.10711979866027832
sS'comp_time'
p471
F0.006205081939697266
sS'exec_cq'
p472
I2
sS'total_cq'
p473
I2
sasS'total_cqs'
p474
I2
ssI49
(dp475
S'iters'
p476
I3
sS'meta'
p477
(lp478
(dp479
S'objective'
p480
I1
sS'query_time'
p481
F0.24023699760437012
sS'comp_time'
p482
F0.0026869773864746094
sS'exec_cq'
p483
I5
sS'total_cq'
p484
I5
sa(dp485
g480
I0
sg481
F0.000286102294921875
sg482
F0.0016260147094726562
sg483
I3
sg484
I3
sa(dp486
g480
I2
sg481
F2.5033950805664062e-05
sg482
F0.00010395050048828125
sg483
I2
sg484
I2
sasS'total_cqs'
p487
I5
ssI50
(dp488
S'iters'
p489
I3
sS'meta'
p490
(lp491
(dp492
S'objective'
p493
I5
sS'query_time'
p494
F0.8552498817443848
sS'comp_time'
p495
F0.0010180473327636719
sS'exec_cq'
p496
I5
sS'total_cq'
p497
I5
sa(dp498
g493
I2
sg494
F0.0001380443572998047
sg495
F0.0007870197296142578
sg496
I4
sg497
I4
sa(dp499
g493
I0
sg494
F0.00011396408081054688
sg495
F0.000682830810546875
sg496
I3
sg497
I3
sasS'total_cqs'
p500
I5
ssI51
(dp501
S'iters'
p502
I0
sS'meta'
p503
(lp504
sS'total_cqs'
p505
I1
ssI52
(dp506
S'iters'
p507
I0
sS'meta'
p508
(lp509
sS'total_cqs'
p510
I1
ssI53
(dp511
S'iters'
p512
I0
sS'meta'
p513
(lp514
sS'total_cqs'
p515
I1
ssI55
(dp516
S'iters'
p517
I1
sS'meta'
p518
(lp519
(dp520
S'objective'
p521
I1
sS'query_time'
p522
F26.337767124176025
sS'comp_time'
p523
F3.8236701488494873
sS'exec_cq'
p524
I2
sS'total_cq'
p525
I2
sasS'total_cqs'
p526
I2
ssI56
(dp527
S'iters'
p528
I0
sS'meta'
p529
(lp530
sS'total_cqs'
p531
I1
ssI57
(dp532
S'iters'
p533
I1
sS'meta'
p534
(lp535
(dp536
S'objective'
p537
I2
sS'query_time'
p538
F13.88042688369751
sS'comp_time'
p539
F1.850456953048706
sS'exec_cq'
p540
I3
sS'total_cq'
p541
I3
sasS'total_cqs'
p542
I3
ssI108
(dp543
S'iters'
p544
I0
sS'meta'
p545
(lp546
sS'total_cqs'
p547
I1
ssI109
(dp548
S'iters'
p549
I0
sS'meta'
p550
(lp551
sS'total_cqs'
p552
I1
ssI116
(dp553
S'iters'
p554
I3
sS'meta'
p555
(lp556
(dp557
S'objective'
p558
I141
sS'query_time'
p559
F5.751061916351318
sS'comp_time'
p560
F0.29282498359680176
sS'exec_cq'
p561
I21
sS'total_cq'
p562
I21
sa(dp563
g558
I3
sg559
F0.001338958740234375
sg560
F0.0042231082916259766
sg561
I3
sg562
I3
sa(dp564
g558
I10
sg559
F0.0004189014434814453
sg560
F0.002354860305786133
sg561
I2
sg562
I2
sasS'total_cqs'
p565
I21
ssI117
(dp566
S'iters'
p567
I2
sS'meta'
p568
(lp569
(dp570
S'objective'
p571
I5
sS'query_time'
p572
F0.014586210250854492
sS'comp_time'
p573
F8.392333984375e-05
sS'exec_cq'
p574
I5
sS'total_cq'
p575
I5
sa(dp576
g571
I4
sg572
F1.8835067749023438e-05
sg573
F4.00543212890625e-05
sg574
I4
sg575
I4
sasS'total_cqs'
p577
I5
ssI118
(dp578
S'iters'
p579
I0
sS'meta'
p580
(lp581
sS'total_cqs'
p582
I1
ssI122
(dp583
S'iters'
p584
I0
sS'meta'
p585
(lp586
sS'total_cqs'
p587
I1
ss.