(dp0
I1
(dp1
S'iters'
p2
I2
sS'meta'
p3
(lp4
(dp5
S'objective'
p6
I2
sS'query_time'
p7
F16.115126132965088
sS'comp_time'
p8
F0.6638281345367432
sS'exec_cq'
p9
I3
sS'total_cq'
p10
I6
sa(dp11
g6
I0
sg7
F0.1540517807006836
sg8
F0.6316928863525391
sg9
I2
sg10
I2
sasS'total_cqs'
p12
I6
ssI2
(dp13
S'iters'
p14
I1
sS'meta'
p15
(lp16
(dp17
S'objective'
p18
I4
sS'query_time'
p19
F0.9339640140533447
sS'comp_time'
p20
F0.1678614616394043
sS'exec_cq'
p21
I5
sS'total_cq'
p22
I6
sasS'total_cqs'
p23
I6
ssI3
(dp24
S'iters'
p25
I14
sS'meta'
p26
(lp27
(dp28
S'objective'
p29
I27
sS'query_time'
p30
F25.148741960525513
sS'comp_time'
p31
F0.5863747596740723
sS'exec_cq'
p32
I15
sS'total_cq'
p33
I33
sa(dp34
g29
I24
sg30
F0.40178608894348145
sg31
F0.020087242126464844
sg32
I13
sg33
I30
sa(dp35
g29
I21
sg30
F0.027632951736450195
sg31
F0.3307178020477295
sg32
I12
sg33
I27
sa(dp36
g29
I18
sg30
F0.0038530826568603516
sg31
F0.020199060440063477
sg32
I10
sg33
I24
sa(dp37
g29
I15
sg30
F0.01139378547668457
sg31
F0.14220333099365234
sg32
I9
sg33
I21
sa(dp38
g29
I12
sg30
F0.0026979446411132812
sg31
F0.0157473087310791
sg32
I7
sg33
I18
sa(dp39
g29
I9
sg30
F0.00883793830871582
sg31
F0.11595582962036133
sg32
I6
sg33
I15
sa(dp40
g29
I10
sg30
F0.19493603706359863
sg31
F0.018372058868408203
sg32
I5
sg33
I12
sa(dp41
g29
I9
sg30
F0.0005218982696533203
sg31
F0.003097057342529297
sg32
I4
sg33
I11
sa(dp42
g29
I6
sg30
F0.0024709701538085938
sg31
F0.015979766845703125
sg32
I4
sg33
I10
sa(dp43
g29
I6
sg30
F5.888938903808594e-05
sg31
F0.0004742145538330078
sg32
I3
sg33
I8
sa(dp44
g29
I5
sg30
F0.00018978118896484375
sg31
F0.0011010169982910156
sg32
I3
sg33
I7
sa(dp45
g29
I4
sg30
F1.5020370483398438e-05
sg31
F0.00010800361633300781
sg32
I2
sg33
I6
sa(dp46
g29
I3
sg30
F0.002507925033569336
sg31
F0.014918327331542969
sg32
I2
sg33
I5
sasS'total_cqs'
p47
I33
ssI6
(dp48
S'iters'
p49
I2
sS'meta'
p50
(lp51
(dp52
S'objective'
p53
I1
sS'query_time'
p54
F13.861650943756104
sS'comp_time'
p55
F0.005086183547973633
sS'exec_cq'
p56
I4
sS'total_cq'
p57
I5
sa(dp58
g53
I0
sg54
F4.792213439941406e-05
sg55
F0.0003407001495361328
sg56
I1
sg57
I2
sasS'total_cqs'
p59
I5
ssI8
(dp60
S'iters'
p61
I3
sS'meta'
p62
(lp63
(dp64
S'objective'
p65
I4
sS'query_time'
p66
F22.99336814880371
sS'comp_time'
p67
F0.4559977054595947
sS'exec_cq'
p68
I5
sS'total_cq'
p69
I6
sa(dp70
g65
I3
sg66
F41.78782296180725
sg67
F41.73192811012268
sg68
I4
sg69
I5
sa(dp71
g65
I2
sg66
F0.10078692436218262
sg67
F0.08080434799194336
sg68
I3
sg69
I4
sasS'total_cqs'
p72
I6
ssI9
(dp73
S'iters'
p74
I3
sS'meta'
p75
(lp76
(dp77
S'objective'
p78
I0
sS'query_time'
p79
F11.10981297492981
sS'comp_time'
p80
F0.43770790100097656
sS'exec_cq'
p81
I3
sS'total_cq'
p82
I6
sa(dp83
g78
I1
sg79
F0.04281497001647949
sg80
F0.3925747871398926
sg81
I3
sg82
I3
sa(dp84
g78
I0
sg79
F0.008685827255249023
sg80
F0.0428924560546875
sg81
I2
sg82
I2
sasS'total_cqs'
p85
I6
ssI13
(dp86
S'iters'
p87
I2
sS'meta'
p88
(lp89
(dp90
S'objective'
p91
I6
sS'query_time'
p92
F0.06138896942138672
sS'comp_time'
p93
F0.007634878158569336
sS'exec_cq'
p94
I6
sS'total_cq'
p95
I8
sa(dp96
g91
I5
sg92
F3.600120544433594e-05
sg93
F0.00013685226440429688
sg94
I5
sg95
I7
sasS'total_cqs'
p97
I8
ssI14
(dp98
S'iters'
p99
I1
sS'meta'
p100
(lp101
(dp102
S'objective'
p103
I3
sS'query_time'
p104
F0.9388539791107178
sS'comp_time'
p105
F0.00757288932800293
sS'exec_cq'
p106
I5
sS'total_cq'
p107
I5
sasS'total_cqs'
p108
I5
ssI16
(dp109
S'iters'
p110
I3
sS'meta'
p111
(lp112
(dp113
S'objective'
p114
I1
sS'query_time'
p115
F2.0034148693084717
sS'comp_time'
p116
F0.009114265441894531
sS'exec_cq'
p117
I4
sS'total_cq'
p118
I5
sa(dp119
g114
I1
sg115
F0.040979862213134766
sg116
F0.0004608631134033203
sg117
I1
sg118
I3
sa(dp120
g114
I0
sg115
F5.412101745605469e-05
sg116
F0.00024056434631347656
sg117
I2
sg118
I2
sasS'total_cqs'
p121
I5
ssI18
(dp122
S'iters'
p123
I3
sS'meta'
p124
(lp125
(dp126
S'objective'
p127
I1
sS'query_time'
p128
F0.26967501640319824
sS'comp_time'
p129
F0.00452423095703125
sS'exec_cq'
p130
I4
sS'total_cq'
p131
I5
sa(dp132
g127
I1
sg128
F0.05681300163269043
sg129
F0.0002570152282714844
sg130
I1
sg131
I3
sa(dp133
g127
I0
sg128
F4.291534423828125e-05
sg129
F0.00021505355834960938
sg130
I2
sg131
I2
sasS'total_cqs'
p134
I5
ssI20
(dp135
S'iters'
p136
I6
sS'meta'
p137
(lp138
(dp139
S'objective'
p140
I8
sS'query_time'
p141
F7.1085309982299805
sS'comp_time'
p142
F1.3470392227172852
sS'exec_cq'
p143
I6
sS'total_cq'
p144
I12
sa(dp145
g140
I6
sg141
F3.677873134613037
sg142
F0.5462241172790527
sg143
I4
sg144
I10
sa(dp146
g140
I4
sg141
F0.23996901512145996
sg142
F1.4373626708984375
sg143
I4
sg144
I8
sa(dp147
g140
I4
sg141
F2.5987625122070312e-05
sg142
F0.0001518726348876953
sg143
I2
sg144
I6
sa(dp148
g140
I3
sg141
F0.1910231113433838
sg142
F0.849207878112793
sg143
I2
sg144
I5
sa(dp149
g140
I2
sg141
F0.09819316864013672
sg142
F0.007673025131225586
sg143
I4
sg144
I4
sasS'total_cqs'
p150
I12
ssI21
(dp151
S'iters'
p152
I5
sS'meta'
p153
(lp154
(dp155
S'objective'
p156
I6
sS'query_time'
p157
F30.52434492111206
sS'comp_time'
p158
F0.3349018096923828
sS'exec_cq'
p159
I8
sS'total_cq'
p160
I14
sa(dp161
g156
I2
sg157
F30.178786993026733
sg158
F2.2426888942718506
sg159
I4
sg160
I10
sa(dp162
g156
I2
sg157
F0.010159969329833984
sg158
F0.06261563301086426
sg159
I4
sg160
I6
sa(dp163
g156
I0
sg157
F0.0011889934539794922
sg158
F0.008408069610595703
sg159
I2
sg160
I4
sa(dp164
g156
I0
sg157
F0.012634992599487305
sg158
F0.00012302398681640625
sg159
I1
sg160
I2
sasS'total_cqs'
p165
I14
ssI22
(dp166
S'iters'
p167
I1
sS'meta'
p168
(lp169
(dp170
S'objective'
p171
I0
sS'query_time'
p172
F0.0031719207763671875
sS'comp_time'
p173
F0.0010128021240234375
sS'exec_cq'
p174
I1
sS'total_cq'
p175
I2
sasS'total_cqs'
p176
I2
ssI25
(dp177
S'iters'
p178
I4
sS'meta'
p179
(lp180
(dp181
S'objective'
p182
I3
sS'query_time'
p183
F44.55706715583801
sS'comp_time'
p184
F4.9462668895721436
sS'exec_cq'
p185
I4
sS'total_cq'
p186
I7
sa(dp187
g182
I1
sg183
F5.45307993888855
sg184
F0.41686272621154785
sg185
I2
sg186
I5
sa(dp188
g182
I1
sg183
F0.13718605041503906
sg184
F0.1717822551727295
sg185
I2
sg186
I3
sa(dp189
g182
I0
sg183
F0.016431331634521484
sg184
F0.07912349700927734
sg185
I1
sg186
I2
sasS'total_cqs'
p190
I7
ssI26
(dp191
S'iters'
p192
I9
sS'meta'
p193
(lp194
(dp195
S'objective'
p196
I9
sS'query_time'
p197
F0.22751498222351074
sS'comp_time'
p198
F0.024400949478149414
sS'exec_cq'
p199
I4
sS'total_cq'
p200
I13
sa(dp201
g196
I9
sg197
F19.91835308074951
sg198
F5.5400309562683105
sg199
I3
sg200
I11
sa(dp202
g196
I6
sg197
F0.017328977584838867
sg198
F0.00029206275939941406
sg199
I2
sg200
I10
sa(dp203
g196
I6
sg197
F0.0017528533935546875
sg198
F0.005841732025146484
sg199
I2
sg200
I8
sa(dp204
g196
I5
sg197
F0.00046706199645996094
sg198
F0.0029926300048828125
sg199
I2
sg200
I7
sa(dp205
g196
I2
sg197
F3.3067569732666016
sg198
F0.013826847076416016
sg199
I2
sg200
I6
sa(dp206
g196
I2
sg197
F0.00021409988403320312
sg198
F0.0013382434844970703
sg199
I1
sg200
I4
sa(dp207
g196
I1
sg197
F0.0002238750457763672
sg198
F0.00147247314453125
sg199
I1
sg200
I3
sa(dp208
g196
I0
sg197
F0.03188490867614746
sg198
F0.001455545425415039
sg199
I1
sg200
I2
sasS'total_cqs'
p209
I13
ssI27
(dp210
S'iters'
p211
I1
sS'meta'
p212
(lp213
(dp214
S'objective'
p215
I0
sS'query_time'
p216
F0.27142906188964844
sS'comp_time'
p217
F0.006434202194213867
sS'exec_cq'
p218
I1
sS'total_cq'
p219
I2
sasS'total_cqs'
p220
I2
ssI28
(dp221
S'iters'
p222
I4
sS'meta'
p223
(lp224
(dp225
S'objective'
p226
I8
sS'query_time'
p227
F1.4241862297058105
sS'comp_time'
p228
F0.09777712821960449
sS'exec_cq'
p229
I6
sS'total_cq'
p230
I14
sa(dp231
g226
I7
sg227
F0.002379894256591797
sg228
F0.018824100494384766
sg229
I3
sg230
I11
sa(dp232
g226
I7
sg227
F0.00475311279296875
sg228
F0.00011849403381347656
sg229
I2
sg230
I9
sa(dp233
g226
I6
sg227
F0.0020949840545654297
sg228
F9.918212890625e-05
sg229
I1
sg230
I8
sasS'total_cqs'
p234
I14
ssI29
(dp235
S'iters'
p236
I1
sS'meta'
p237
(lp238
(dp239
S'objective'
p240
I0
sS'query_time'
p241
F0.008219003677368164
sS'comp_time'
p242
F0.001977682113647461
sS'exec_cq'
p243
I2
sS'total_cq'
p244
I2
sasS'total_cqs'
p245
I2
ssI30
(dp246
S'iters'
p247
I1
sS'meta'
p248
(lp249
(dp250
S'objective'
p251
I0
sS'query_time'
p252
F0.3835439682006836
sS'comp_time'
p253
F0.004510164260864258
sS'exec_cq'
p254
I2
sS'total_cq'
p255
I2
sasS'total_cqs'
p256
I2
ssI31
(dp257
S'iters'
p258
I4
sS'meta'
p259
(lp260
(dp261
S'objective'
p262
I5
sS'query_time'
p263
F3.882737159729004
sS'comp_time'
p264
F0.17944884300231934
sS'exec_cq'
p265
I4
sS'total_cq'
p266
I9
sa(dp267
g262
I1
sg263
F1.3689451217651367
sg264
F0.12801074981689453
sg265
I5
sg266
I7
sa(dp268
g262
I1
sg263
F0.006474018096923828
sg264
F0.032201290130615234
sg265
I3
sg266
I3
sa(dp269
g262
I0
sg263
F0.0028018951416015625
sg264
F0.015750885009765625
sg265
I2
sg266
I2
sasS'total_cqs'
p270
I9
ssI32
(dp271
S'iters'
p272
I3
sS'meta'
p273
(lp274
(dp275
S'objective'
p276
I1
sS'query_time'
p277
F18.543396949768066
sS'comp_time'
p278
F5.158767938613892
sS'exec_cq'
p279
I4
sS'total_cq'
p280
I7
sa(dp281
g276
I0
sg277
F1.1042430400848389
sg278
F0.020360231399536133
sg279
I2
sg280
I4
sa(dp282
g276
I0
sg277
F0.23897290229797363
sg278
F0.30954599380493164
sg279
I1
sg280
I2
sasS'total_cqs'
p283
I7
ssI33
(dp284
S'iters'
p285
I1
sS'meta'
p286
(lp287
(dp288
S'objective'
p289
I0
sS'query_time'
p290
F0.024437904357910156
sS'comp_time'
p291
F0.0018107891082763672
sS'exec_cq'
p292
I2
sS'total_cq'
p293
I2
sasS'total_cqs'
p294
I2
ssI35
(dp295
S'iters'
p296
I3
sS'meta'
p297
(lp298
(dp299
S'objective'
p300
I1
sS'query_time'
p301
F15.455788850784302
sS'comp_time'
p302
F0.2823190689086914
sS'exec_cq'
p303
I4
sS'total_cq'
p304
I5
sa(dp305
g300
I1
sg301
F0.07775211334228516
sg302
F0.06537508964538574
sg303
I2
sg304
I3
sa(dp306
g300
I0
sg301
F0.0005600452423095703
sg302
F0.0033729076385498047
sg303
I1
sg304
I2
sasS'total_cqs'
p307
I5
ssI37
(dp308
S'iters'
p309
I2
sS'meta'
p310
(lp311
(dp312
S'objective'
p313
I6
sS'query_time'
p314
F0.68196702003479
sS'comp_time'
p315
F0.029846906661987305
sS'exec_cq'
p316
I4
sS'total_cq'
p317
I10
sa(dp318
g313
I0
sg314
F0.004148006439208984
sg315
F0.01724696159362793
sg316
I2
sg317
I2
sasS'total_cqs'
p319
I10
ssI40
(dp320
S'iters'
p321
I1
sS'meta'
p322
(lp323
(dp324
S'objective'
p325
I0
sS'query_time'
p326
F0.005084991455078125
sS'comp_time'
p327
F0.0032117366790771484
sS'exec_cq'
p328
I1
sS'total_cq'
p329
I2
sasS'total_cqs'
p330
I2
ssI41
(dp331
S'iters'
p332
I3
sS'meta'
p333
(lp334
(dp335
S'objective'
p336
I2
sS'query_time'
p337
F10.05999207496643
sS'comp_time'
p338
F1.9755537509918213
sS'exec_cq'
p339
I3
sS'total_cq'
p340
I6
sa(dp341
g336
I0
sg337
F0.8512728214263916
sg338
F0.004271984100341797
sg339
I2
sg340
I4
sa(dp342
g336
I0
sg337
F0.0010030269622802734
sg338
F0.012759208679199219
sg339
I2
sg340
I2
sasS'total_cqs'
p343
I6
ssI42
(dp344
S'iters'
p345
I1
sS'meta'
p346
(lp347
(dp348
S'objective'
p349
I0
sS'query_time'
p350
F0.010775089263916016
sS'comp_time'
p351
F0.0011608600616455078
sS'exec_cq'
p352
I1
sS'total_cq'
p353
I2
sasS'total_cqs'
p354
I2
ssI44
(dp355
S'iters'
p356
I3
sS'meta'
p357
(lp358
(dp359
S'objective'
p360
I3
sS'query_time'
p361
F1.055145025253296
sS'comp_time'
p362
F0.15691375732421875
sS'exec_cq'
p363
I2
sS'total_cq'
p364
I5
sa(dp365
g360
I0
sg361
F0.22913908958435059
sg362
F0.001466989517211914
sg363
I2
sg364
I4
sa(dp366
g360
I0
sg361
F6.103515625e-05
sg362
F0.0003514289855957031
sg363
I1
sg364
I2
sasS'total_cqs'
p367
I5
ssI45
(dp368
S'iters'
p369
I2
sS'meta'
p370
(lp371
(dp372
S'objective'
p373
I1
sS'query_time'
p374
F0.05983996391296387
sS'comp_time'
p375
F0.0035130977630615234
sS'exec_cq'
p376
I3
sS'total_cq'
p377
I5
sa(dp378
g373
I0
sg374
F0.00015497207641601562
sg375
F0.0005948543548583984
sg376
I2
sg377
I2
sasS'total_cqs'
p379
I5
ssI48
(dp380
S'iters'
p381
I1
sS'meta'
p382
(lp383
(dp384
S'objective'
p385
I0
sS'query_time'
p386
F0.17699408531188965
sS'comp_time'
p387
F0.005105495452880859
sS'exec_cq'
p388
I2
sS'total_cq'
p389
I2
sasS'total_cqs'
p390
I2
ssI49
(dp391
S'iters'
p392
I2
sS'meta'
p393
(lp394
(dp395
S'objective'
p396
I1
sS'query_time'
p397
F0.322131872177124
sS'comp_time'
p398
F0.006860017776489258
sS'exec_cq'
p399
I4
sS'total_cq'
p400
I5
sa(dp401
g396
I1
sg397
F4.482269287109375e-05
sg398
F0.00024390220642089844
sg399
I2
sg400
I3
sasS'total_cqs'
p402
I5
ssI50
(dp403
S'iters'
p404
I2
sS'meta'
p405
(lp406
(dp407
S'objective'
p408
I3
sS'query_time'
p409
F0.8822870254516602
sS'comp_time'
p410
F0.07193589210510254
sS'exec_cq'
p411
I5
sS'total_cq'
p412
I5
sa(dp413
g408
I2
sg409
F0.00014090538024902344
sg410
F0.0008912086486816406
sg411
I4
sg412
I4
sasS'total_cqs'
p414
I5
ssI55
(dp415
S'iters'
p416
I1
sS'meta'
p417
(lp418
(dp419
S'objective'
p420
I0
sS'query_time'
p421
F24.622123956680298
sS'comp_time'
p422
F3.4616711139678955
sS'exec_cq'
p423
I2
sS'total_cq'
p424
I2
sasS'total_cqs'
p425
I2
ssI57
(dp426
S'iters'
p427
I1
sS'meta'
p428
(lp429
(dp430
S'objective'
p431
I1
sS'query_time'
p432
F12.332356929779053
sS'comp_time'
p433
F2.3852908611297607
sS'exec_cq'
p434
I2
sS'total_cq'
p435
I3
sasS'total_cqs'
p436
I3
ssI116
(dp437
S'iters'
p438
I3
sS'meta'
p439
(lp440
(dp441
S'objective'
p442
I17
sS'query_time'
p443
F4.103534936904907
sS'comp_time'
p444
F0.4935269355773926
sS'exec_cq'
p445
I15
sS'total_cq'
p446
I21
sa(dp447
g442
I15
sg443
F0.6585690975189209
sg444
F0.004246950149536133
sg445
I14
sg446
I19
sa(dp448
g442
I0
sg443
F0.0012929439544677734
sg444
F0.0035288333892822266
sg445
I2
sg446
I2
sasS'total_cqs'
p449
I21
ssI117
(dp450
S'iters'
p451
I2
sS'meta'
p452
(lp453
(dp454
S'objective'
p455
I3
sS'query_time'
p456
F0.007831811904907227
sS'comp_time'
p457
F0.001566171646118164
sS'exec_cq'
p458
I3
sS'total_cq'
p459
I5
sa(dp460
g455
I2
sg456
F0.0021800994873046875
sg457
F8.20159912109375e-05
sg458
I3
sg459
I4
sasS'total_cqs'
p461
I5
ss.