(dp0
I1
(dp1
S'iters'
p2
I2
sS'meta'
p3
(lp4
(dp5
S'objective'
p6
I1
sS'query_time'
p7
F6.6760289669036865
sS'comp_time'
p8
F7.200241088867188e-05
sS'exec_cq'
p9
I1
sS'total_cq'
p10
I6
sa(dp11
g6
I1
sg7
F165.22012090682983
sg8
F9.703636169433594e-05
sg9
I1
sg10
I2
sasS'total_cqs'
p12
I6
ssI2
(dp13
S'iters'
p14
I1
sS'meta'
p15
(lp16
(dp17
S'objective'
p18
I9
sS'query_time'
p19
F0.7507510185241699
sS'comp_time'
p20
F7.104873657226562e-05
sS'exec_cq'
p21
I1
sS'total_cq'
p22
I6
sasS'total_cqs'
p23
I6
ssI3
(dp24
S'iters'
p25
I1
sS'meta'
p26
(lp27
(dp28
S'objective'
p29
I495
sS'query_time'
p30
F0.23868083953857422
sS'comp_time'
p31
F0.00011372566223144531
sS'exec_cq'
p32
I1
sS'total_cq'
p33
I33
sasS'total_cqs'
p34
I33
ssI4
(dp35
S'iters'
p36
I0
sS'meta'
p37
(lp38
sS'total_cqs'
p39
I1
ssI5
(dp40
S'iters'
p41
I0
sS'meta'
p42
(lp43
sS'total_cqs'
p44
I1
ssI6
(dp45
S'iters'
p46
I3
sS'meta'
p47
(lp48
(dp49
S'objective'
p50
I5
sS'query_time'
p51
F2.4041240215301514
sS'comp_time'
p52
F0.00015807151794433594
sS'exec_cq'
p53
I1
sS'total_cq'
p54
I5
sa(dp55
g50
I2
sg51
F5.12141489982605
sg52
F0.00011086463928222656
sg53
I1
sg54
I3
sa(dp56
g50
I4
sg51
F4.686192035675049
sg52
F7.867813110351562e-05
sg53
I2
sg54
I2
sasS'total_cqs'
p57
I5
ssI7
(dp58
S'iters'
p59
I0
sS'meta'
p60
(lp61
sS'total_cqs'
p62
I1
ssI8
(dp63
S'iters'
p64
I2
sS'meta'
p65
(lp66
(dp67
S'objective'
p68
I19
sS'query_time'
p69
F42.443483114242554
sS'comp_time'
p70
F6.604194641113281e-05
sS'exec_cq'
p71
I3
sS'total_cq'
p72
I6
sa(dp73
g68
I8
sg69
F0.10072493553161621
sg70
F0.00013566017150878906
sg71
I2
sg72
I5
sasS'total_cqs'
p74
I6
ssI9
(dp75
S'iters'
p76
I2
sS'meta'
p77
(lp78
(dp79
S'objective'
p80
I7
sS'query_time'
p81
F2.7250828742980957
sS'comp_time'
p82
F7.724761962890625e-05
sS'exec_cq'
p83
I1
sS'total_cq'
p84
I6
sa(dp85
g80
I5
sg81
F14.260919094085693
sg82
F0.00013709068298339844
sg83
I1
sg84
I2
sasS'total_cqs'
p86
I6
ssI10
(dp87
S'iters'
p88
I0
sS'meta'
p89
(lp90
sS'total_cqs'
p91
I1
ssI11
(dp92
S'iters'
p93
I0
sS'meta'
p94
(lp95
sS'total_cqs'
p96
I1
ssI12
(dp97
S'iters'
p98
I0
sS'meta'
p99
(lp100
sS'total_cqs'
p101
I1
ssI13
(dp102
S'iters'
p103
I1
sS'meta'
p104
(lp105
(dp106
S'objective'
p107
I20
sS'query_time'
p108
F0.23688006401062012
sS'comp_time'
p109
F8.0108642578125e-05
sS'exec_cq'
p110
I1
sS'total_cq'
p111
I8
sasS'total_cqs'
p112
I8
ssI14
(dp113
S'iters'
p114
I1
sS'meta'
p115
(lp116
(dp117
S'objective'
p118
I5
sS'query_time'
p119
F0.8327791690826416
sS'comp_time'
p120
F6.794929504394531e-05
sS'exec_cq'
p121
I1
sS'total_cq'
p122
I5
sasS'total_cqs'
p123
I5
ssI16
(dp124
S'iters'
p125
I2
sS'meta'
p126
(lp127
(dp128
S'objective'
p129
I1
sS'query_time'
p130
F6.669222831726074
sS'comp_time'
p131
F0.0001361370086669922
sS'exec_cq'
p132
I1
sS'total_cq'
p133
I5
sa(dp134
g129
I2
sg130
F100.93632888793945
sg131
F8.0108642578125e-05
sg132
I2
sg133
I2
sasS'total_cqs'
p135
I5
ssI17
(dp136
S'iters'
p137
I0
sS'meta'
p138
(lp139
sS'total_cqs'
p140
I1
ssI18
(dp141
S'iters'
p142
I2
sS'meta'
p143
(lp144
(dp145
S'objective'
p146
I1
sS'query_time'
p147
F0.32920193672180176
sS'comp_time'
p148
F9.107589721679688e-05
sS'exec_cq'
p149
I1
sS'total_cq'
p150
I5
sa(dp151
g146
I3
sg147
F0.25229907035827637
sg148
F9.083747863769531e-05
sg149
I2
sg150
I2
sasS'total_cqs'
p152
I5
ssI19
(dp153
S'iters'
p154
I0
sS'meta'
p155
(lp156
sS'total_cqs'
p157
I1
ssI20
(dp158
S'iters'
p159
I1
sS'meta'
p160
(lp161
(dp162
S'objective'
p163
I54
sS'query_time'
p164
F0.14961695671081543
sS'comp_time'
p165
F9.489059448242188e-05
sS'exec_cq'
p166
I1
sS'total_cq'
p167
I12
sasS'total_cqs'
p168
I12
ssI21
(dp169
S'iters'
p170
I1
sS'meta'
p171
(lp172
(dp173
S'objective'
p174
I77
sS'query_time'
p175
F0.03242897987365723
sS'comp_time'
p176
F6.985664367675781e-05
sS'exec_cq'
p177
I1
sS'total_cq'
p178
I14
sasS'total_cqs'
p179
I14
ssI22
(dp180
S'iters'
p181
I1
sS'meta'
p182
(lp183
(dp184
S'objective'
p185
I1
sS'query_time'
p186
F0.0038728713989257812
sS'comp_time'
p187
F6.008148193359375e-05
sS'exec_cq'
p188
I1
sS'total_cq'
p189
I2
sasS'total_cqs'
p190
I2
ssI23
(dp191
S'iters'
p192
I0
sS'meta'
p193
(lp194
sS'total_cqs'
p195
I1
ssI24
(dp196
S'iters'
p197
I0
sS'meta'
p198
(lp199
sS'total_cqs'
p200
I1
ssI25
(dp201
S'iters'
p202
I1
sS'meta'
p203
(lp204
(dp205
S'objective'
p206
I14
sS'query_time'
p207
F0.3077809810638428
sS'comp_time'
p208
F5.984306335449219e-05
sS'exec_cq'
p209
I1
sS'total_cq'
p210
I7
sasS'total_cqs'
p211
I7
ssI26
(dp212
S'iters'
p213
I1
sS'meta'
p214
(lp215
(dp216
S'objective'
p217
I65
sS'query_time'
p218
F0.01371002197265625
sS'comp_time'
p219
F8.7738037109375e-05
sS'exec_cq'
p220
I1
sS'total_cq'
p221
I13
sasS'total_cqs'
p222
I13
ssI27
(dp223
S'iters'
p224
I1
sS'meta'
p225
(lp226
(dp227
S'objective'
p228
I1
sS'query_time'
p229
F0.14434480667114258
sS'comp_time'
p230
F8.20159912109375e-05
sS'exec_cq'
p231
I1
sS'total_cq'
p232
I2
sasS'total_cqs'
p233
I2
ssI28
(dp234
S'iters'
p235
I1
sS'meta'
p236
(lp237
(dp238
S'objective'
p239
I77
sS'query_time'
p240
F1.053898811340332
sS'comp_time'
p241
F0.00010395050048828125
sS'exec_cq'
p242
I1
sS'total_cq'
p243
I14
sasS'total_cqs'
p244
I14
ssI29
(dp245
S'iters'
p246
I1
sS'meta'
p247
(lp248
(dp249
S'objective'
p250
I1
sS'query_time'
p251
F0.005074024200439453
sS'comp_time'
p252
F6.914138793945312e-05
sS'exec_cq'
p253
I1
sS'total_cq'
p254
I2
sasS'total_cqs'
p255
I2
ssI30
(dp256
S'iters'
p257
I1
sS'meta'
p258
(lp259
(dp260
S'objective'
p261
I1
sS'query_time'
p262
F0.3360331058502197
sS'comp_time'
p263
F6.771087646484375e-05
sS'exec_cq'
p264
I1
sS'total_cq'
p265
I2
sasS'total_cqs'
p266
I2
ssI31
(dp267
S'iters'
p268
I1
sS'meta'
p269
(lp270
(dp271
S'objective'
p272
I27
sS'query_time'
p273
F0.5068719387054443
sS'comp_time'
p274
F7.915496826171875e-05
sS'exec_cq'
p275
I1
sS'total_cq'
p276
I9
sasS'total_cqs'
p277
I9
ssI32
(dp278
S'iters'
p279
I1
sS'meta'
p280
(lp281
(dp282
S'objective'
p283
I14
sS'query_time'
p284
F0.17627286911010742
sS'comp_time'
p285
F7.700920104980469e-05
sS'exec_cq'
p286
I1
sS'total_cq'
p287
I7
sasS'total_cqs'
p288
I7
ssI33
(dp289
S'iters'
p290
I1
sS'meta'
p291
(lp292
(dp293
S'objective'
p294
I1
sS'query_time'
p295
F0.02679300308227539
sS'comp_time'
p296
F7.891654968261719e-05
sS'exec_cq'
p297
I1
sS'total_cq'
p298
I2
sasS'total_cqs'
p299
I2
ssI34
(dp300
S'iters'
p301
I0
sS'meta'
p302
(lp303
sS'total_cqs'
p304
I1
ssI35
(dp305
S'iters'
p306
I1
sS'meta'
p307
(lp308
(dp309
S'objective'
p310
I5
sS'query_time'
p311
F0.2522308826446533
sS'comp_time'
p312
F9.107589721679688e-05
sS'exec_cq'
p313
I1
sS'total_cq'
p314
I5
sasS'total_cqs'
p315
I5
ssI37
(dp316
S'iters'
p317
I1
sS'meta'
p318
(lp319
(dp320
S'objective'
p321
I35
sS'query_time'
p322
F0.3783688545227051
sS'comp_time'
p323
F7.677078247070312e-05
sS'exec_cq'
p324
I1
sS'total_cq'
p325
I10
sasS'total_cqs'
p326
I10
ssI38
(dp327
S'iters'
p328
I0
sS'meta'
p329
(lp330
sS'total_cqs'
p331
I1
ssI39
(dp332
S'iters'
p333
I0
sS'meta'
p334
(lp335
sS'total_cqs'
p336
I1
ssI40
(dp337
S'iters'
p338
I1
sS'meta'
p339
(lp340
(dp341
S'objective'
p342
I1
sS'query_time'
p343
F15.280148983001709
sS'comp_time'
p344
F0.018581151962280273
sS'exec_cq'
p345
I2
sS'total_cq'
p346
I2
sasS'total_cqs'
p347
I2
ssI41
(dp348
S'iters'
p349
I2
sS'meta'
p350
(lp351
(dp352
S'objective'
p353
I1
sS'query_time'
p354
F6.4468488693237305
sS'comp_time'
p355
F9.083747863769531e-05
sS'exec_cq'
p356
I1
sS'total_cq'
p357
I6
sa(dp358
g353
I1
sg354
F66.93807291984558
sg355
F7.009506225585938e-05
sg356
I2
sg357
I2
sasS'total_cqs'
p359
I6
ssI42
(dp360
S'iters'
p361
I1
sS'meta'
p362
(lp363
(dp364
S'objective'
p365
I1
sS'query_time'
p366
F0.010187864303588867
sS'comp_time'
p367
F7.390975952148438e-05
sS'exec_cq'
p368
I1
sS'total_cq'
p369
I2
sasS'total_cqs'
p370
I2
ssI43
(dp371
S'iters'
p372
I0
sS'meta'
p373
(lp374
sS'total_cqs'
p375
I1
ssI44
(dp376
S'iters'
p377
I1
sS'meta'
p378
(lp379
(dp380
S'objective'
p381
I5
sS'query_time'
p382
F0.008787870407104492
sS'comp_time'
p383
F7.700920104980469e-05
sS'exec_cq'
p384
I1
sS'total_cq'
p385
I5
sasS'total_cqs'
p386
I5
ssI45
(dp387
S'iters'
p388
I2
sS'meta'
p389
(lp390
(dp391
S'objective'
p392
I1
sS'query_time'
p393
F0.04167890548706055
sS'comp_time'
p394
F0.00010991096496582031
sS'exec_cq'
p395
I1
sS'total_cq'
p396
I5
sa(dp397
g392
I3
sg393
F0.47855210304260254
sg394
F7.915496826171875e-05
sg395
I2
sg396
I2
sasS'total_cqs'
p398
I5
ssI46
(dp399
S'iters'
p400
I0
sS'meta'
p401
(lp402
sS'total_cqs'
p403
I1
ssI47
(dp404
S'iters'
p405
I0
sS'meta'
p406
(lp407
sS'total_cqs'
p408
I1
ssI48
(dp409
S'iters'
p410
I1
sS'meta'
p411
(lp412
(dp413
S'objective'
p414
I1
sS'query_time'
p415
F0.12267899513244629
sS'comp_time'
p416
F9.298324584960938e-05
sS'exec_cq'
p417
I1
sS'total_cq'
p418
I2
sasS'total_cqs'
p419
I2
ssI49
(dp420
S'iters'
p421
I1
sS'meta'
p422
(lp423
(dp424
S'objective'
p425
I5
sS'query_time'
p426
F0.14734792709350586
sS'comp_time'
p427
F8.702278137207031e-05
sS'exec_cq'
p428
I1
sS'total_cq'
p429
I5
sasS'total_cqs'
p430
I5
ssI50
(dp431
S'iters'
p432
I1
sS'meta'
p433
(lp434
(dp435
S'objective'
p436
I5
sS'query_time'
p437
F0.7298839092254639
sS'comp_time'
p438
F7.009506225585938e-05
sS'exec_cq'
p439
I1
sS'total_cq'
p440
I5
sasS'total_cqs'
p441
I5
ssI51
(dp442
S'iters'
p443
I0
sS'meta'
p444
(lp445
sS'total_cqs'
p446
I1
ssI52
(dp447
S'iters'
p448
I0
sS'meta'
p449
(lp450
sS'total_cqs'
p451
I1
ssI53
(dp452
S'iters'
p453
I0
sS'meta'
p454
(lp455
sS'total_cqs'
p456
I1
ssI55
(dp457
S'iters'
p458
I1
sS'meta'
p459
(lp460
(dp461
S'objective'
p462
I1
sS'query_time'
p463
F8.988302946090698
sS'comp_time'
p464
F0.00016617774963378906
sS'exec_cq'
p465
I1
sS'total_cq'
p466
I2
sasS'total_cqs'
p467
I2
ssI56
(dp468
S'iters'
p469
I0
sS'meta'
p470
(lp471
sS'total_cqs'
p472
I1
ssI57
(dp473
S'iters'
p474
I1
sS'meta'
p475
(lp476
(dp477
S'objective'
p478
I0
sS'query_time'
p479
F10.341840982437134
sS'comp_time'
p480
F6.985664367675781e-05
sS'exec_cq'
p481
I1
sS'total_cq'
p482
I3
sasS'total_cqs'
p483
I3
ssI108
(dp484
S'iters'
p485
I0
sS'meta'
p486
(lp487
sS'total_cqs'
p488
I1
ssI109
(dp489
S'iters'
p490
I0
sS'meta'
p491
(lp492
sS'total_cqs'
p493
I1
ssI116
(dp494
S'iters'
p495
I1
sS'meta'
p496
(lp497
(dp498
S'objective'
p499
I189
sS'query_time'
p500
F0.22692012786865234
sS'comp_time'
p501
F9.369850158691406e-05
sS'exec_cq'
p502
I1
sS'total_cq'
p503
I21
sasS'total_cqs'
p504
I21
ssI117
(dp505
S'iters'
p506
I1
sS'meta'
p507
(lp508
(dp509
S'objective'
p510
I5
sS'query_time'
p511
F0.0050220489501953125
sS'comp_time'
p512
F6.198883056640625e-05
sS'exec_cq'
p513
I1
sS'total_cq'
p514
I5
sasS'total_cqs'
p515
I5
ssI118
(dp516
S'iters'
p517
I0
sS'meta'
p518
(lp519
sS'total_cqs'
p520
I1
ssI122
(dp521
S'iters'
p522
I0
sS'meta'
p523
(lp524
sS'total_cqs'
p525
I1
ss.