(dp0
I1
(dp1
S'iters'
p2
I2
sS'meta'
p3
(lp4
(dp5
S'objective'
p6
I2
sS'query_time'
p7
F64.70423889160156
sS'total_cq'
p8
I6
sS'comp_time'
p9
F2.349587917327881
sa(dp10
g6
I0
sg7
F0.06817913055419922
sg8
I2
sg9
F2.7027969360351562
sasS'total_cqs'
p11
I6
ssI2
(dp12
g2
I2
sg3
(lp13
(dp14
g6
I2
sg7
F0.6167290210723877
sg8
I6
sg9
F2.718385934829712
sa(dp15
g6
I0
sg7
F0.010385990142822266
sg8
I2
sg9
F2.6892518997192383
sasg11
I6
ssI3
(dp16
g2
I12
sg3
(lp17
(dp18
g6
I27
sg7
F16.53591799736023
sg8
I33
sg9
F3.5792901515960693
sa(dp19
g6
I24
sg7
F0.03708910942077637
sg8
I30
sg9
F3.202265977859497
sa(dp20
g6
I21
sg7
F0.032939910888671875
sg8
I27
sg9
F3.3477087020874023
sa(dp21
g6
I18
sg7
F0.034193992614746094
sg8
I24
sg9
F3.404895782470703
sa(dp22
g6
I15
sg7
F0.038934946060180664
sg8
I21
sg9
F3.15710186958313
sa(dp23
g6
I12
sg7
F0.021831989288330078
sg8
I18
sg9
F3.4055330753326416
sa(dp24
g6
I9
sg7
F0.007632017135620117
sg8
I15
sg9
F3.2950339317321777
sa(dp25
g6
I8
sg7
F0.008619070053100586
sg8
I12
sg9
F3.1576807498931885
sa(dp26
g6
I8
sg7
F0.008707046508789062
sg8
I10
sg9
F3.590830087661743
sa(dp27
g6
I7
sg7
F0.008625030517578125
sg8
I9
sg9
F3.59100604057312
sa(dp28
g6
I6
sg7
F0.0033600330352783203
sg8
I8
sg9
F3.536620855331421
sa(dp29
g6
I5
sg7
F0.003543853759765625
sg8
I7
sg9
F3.261441946029663
sasg11
I33
ssI4
(dp30
g2
I0
sg3
(lp31
sg11
I1
ssI5
(dp32
g2
I0
sg3
(lp33
sg11
I1
ssI6
(dp34
g2
I2
sg3
(lp35
(dp36
g6
I1
sg7
F9.142432928085327
sg8
I5
sg9
F3.3871071338653564
sa(dp37
g6
I0
sg7
F0.0011589527130126953
sg8
I2
sg9
F3.722287893295288
sasg11
I5
ssI7
(dp38
g2
I0
sg3
(lp39
sg11
I1
ssI8
(dp40
g2
I3
sg3
(lp41
(dp42
g6
I0
sg7
F103.278480052948
sg8
I6
sg9
F4.110471725463867
sa(dp43
g6
I1
sg7
F0.03274798393249512
sg8
I3
sg9
F3.948089122772217
sa(dp44
g6
I0
sg7
F0.02957606315612793
sg8
I2
sg9
F4.179219961166382
sasg11
I6
ssI9
(dp45
g2
I3
sg3
(lp46
(dp47
g6
I0
sg7
F45.58830404281616
sg8
I6
sg9
F10.123877048492432
sa(dp48
g6
I1
sg7
F0.0472722053527832
sg8
I3
sg9
F10.158224821090698
sa(dp49
g6
I0
sg7
F0.008516788482666016
sg8
I2
sg9
F10.245712041854858
sasg11
I6
ssI10
(dp50
g2
I0
sg3
(lp51
sg11
I1
ssI11
(dp52
g2
I0
sg3
(lp53
sg11
I1
ssI12
(dp54
g2
I0
sg3
(lp55
sg11
I1
ssI13
(dp56
g2
I4
sg3
(lp57
(dp58
g6
I0
sg7
F0.015967845916748047
sg8
I8
sg9
F9.315290927886963
sa(dp59
g6
I2
sg7
F0.0014421939849853516
sg8
I4
sg9
F9.949039936065674
sa(dp60
g6
I1
sg7
F0.0014829635620117188
sg8
I3
sg9
F9.649683952331543
sa(dp61
g6
I0
sg7
F0.0011789798736572266
sg8
I2
sg9
F9.815375804901123
sasg11
I8
ssI14
(dp62
g2
I3
sg3
(lp63
(dp64
g6
I1
sg7
F0.465595006942749
sg8
I5
sg9
F9.900739192962646
sa(dp65
g6
I1
sg7
F0.0014758110046386719
sg8
I3
sg9
F9.693166255950928
sa(dp66
g6
I0
sg7
F0.0015261173248291016
sg8
I2
sg9
F9.578562021255493
sasg11
I5
ssI16
(dp67
g2
I2
sg3
(lp68
(dp69
g6
I1
sg7
F0.6664037704467773
sg8
I5
sg9
F10.433412075042725
sa(dp70
g6
I1
sg7
F0.0016469955444335938
sg8
I3
sg9
F9.553753852844238
sasg11
I5
ssI17
(dp71
g2
I0
sg3
(lp72
sg11
I1
ssI18
(dp73
g2
I2
sg3
(lp74
(dp75
g6
I1
sg7
F0.11447310447692871
sg8
I5
sg9
F10.335910081863403
sa(dp76
g6
I0
sg7
F0.0016751289367675781
sg8
I2
sg9
F10.227679014205933
sasg11
I5
ssI19
(dp77
g2
I0
sg3
(lp78
sg11
I1
ssI20
(dp79
g2
I6
sg3
(lp80
(dp81
g6
I4
sg7
F9.159664154052734
sg8
I12
sg9
F12.49630880355835
sa(dp82
g6
I4
sg7
F0.11220097541809082
sg8
I8
sg9
F12.707964897155762
sa(dp83
g6
I2
sg7
F0.07089519500732422
sg8
I6
sg9
F12.234464883804321
sa(dp84
g6
I2
sg7
F0.0717771053314209
sg8
I4
sg9
F12.130701780319214
sa(dp85
g6
I1
sg7
F0.08362412452697754
sg8
I3
sg9
F13.169775009155273
sa(dp86
g6
I0
sg7
F0.0433039665222168
sg8
I2
sg9
F11.893949031829834
sasg11
I12
ssI21
(dp87
g2
I5
sg3
(lp88
(dp89
g6
I6
sg7
F131.65003395080566
sg8
I14
sg9
F29.38054323196411
sa(dp90
g6
I2
sg7
F1.0180699825286865
sg8
I10
sg9
F27.376375913619995
sa(dp91
g6
I0
sg7
F0.4282190799713135
sg8
I6
sg9
F29.296501874923706
sa(dp92
g6
I1
sg7
F0.020776033401489258
sg8
I3
sg9
F30.834993839263916
sa(dp93
g6
I0
sg7
F0.008227825164794922
sg8
I2
sg9
F28.024603843688965
sasg11
I14
ssI22
(dp94
g2
I1
sg3
(lp95
(dp96
g6
I0
sg7
F0.0036330223083496094
sg8
I2
sg9
F28.935808897018433
sasg11
I2
ssI23
(dp97
g2
I0
sg3
(lp98
sg11
I1
ssI24
(dp99
g2
I0
sg3
(lp100
sg11
I1
ssI25
(dp101
g2
I3
sg3
(lp102
(dp103
g6
I1
sg7
F81.00838899612427
sg8
I7
sg9
F44.961775064468384
sa(dp104
g6
I1
sg7
F0.03907203674316406
sg8
I3
sg9
F44.7780487537384
sa(dp105
g6
I0
sg7
F0.022747039794921875
sg8
I2
sg9
F44.99635696411133
sasg11
I7
ssI26
(dp106
g2
I5
sg3
(lp107
(dp108
g6
I5
sg7
F20.66832399368286
sg8
I13
sg9
F52.53155708312988
sa(dp109
g6
I3
sg7
F0.003831148147583008
sg8
I9
sg9
F54.34163689613342
sa(dp110
g6
I0
sg7
F0.0017299652099609375
sg8
I6
sg9
F52.42232012748718
sa(dp111
g6
I1
sg7
F0.002259969711303711
sg8
I3
sg9
F51.30706214904785
sa(dp112
g6
I0
sg7
F0.0013751983642578125
sg8
I2
sg9
F50.977256298065186
sasg11
I13
ssI27
(dp113
g2
I1
sg3
(lp114
(dp115
g6
I0
sg7
F0.11442899703979492
sg8
I2
sg9
F54.39027118682861
sasg11
I2
ssI28
(dp116
g2
I5
sg3
(lp117
(dp118
g6
I6
sg7
F0.8675158023834229
sg8
I14
sg9
F49.24622893333435
sa(dp119
g6
I2
sg7
F0.009638071060180664
sg8
I10
sg9
F54.14187216758728
sa(dp120
g6
I0
sg7
F0.003690004348754883
sg8
I6
sg9
F52.09872126579285
sa(dp121
g6
I1
sg7
F0.001377105712890625
sg8
I3
sg9
F54.76957297325134
sa(dp122
g6
I0
sg7
F0.0013098716735839844
sg8
I2
sg9
F52.64150810241699
sasg11
I14
ssI29
(dp123
g2
I1
sg3
(lp124
(dp125
g6
I0
sg7
F0.0077669620513916016
sg8
I2
sg9
F53.88026404380798
sasg11
I2
ssI30
(dp126
g2
I1
sg3
(lp127
(dp128
g6
I0
sg7
F0.16454005241394043
sg8
I2
sg9
F49.27301812171936
sasg11
I2
ssI31
(dp129
g2
I3
sg3
(lp130
(dp131
g6
I1
sg7
F3.1765429973602295
sg8
I9
sg9
F54.45083498954773
sa(dp132
g6
I0
sg7
F0.007057905197143555
sg8
I4
sg9
F52.393550872802734
sa(dp133
g6
I0
sg7
F0.010818004608154297
sg8
I2
sg9
F52.15764403343201
sasg11
I9
ssI32
(dp134
g2
I3
sg3
(lp135
(dp136
g6
I1
sg7
F15.452322959899902
sg8
I7
sg9
F53.92933917045593
sa(dp137
g6
I1
sg7
F0.009456872940063477
sg8
I3
sg9
F56.971213817596436
sa(dp138
g6
I0
sg7
F0.006723880767822266
sg8
I2
sg9
F54.14960598945618
sasg11
I7
ssI33
(dp139
g2
I1
sg3
(lp140
(dp141
g6
I0
sg7
F0.01598501205444336
sg8
I2
sg9
F55.99593114852905
sasg11
I2
ssI34
(dp142
g2
I0
sg3
(lp143
sg11
I1
ssI35
(dp144
g2
I2
sg3
(lp145
(dp146
g6
I1
sg7
F11.237770080566406
sg8
I5
sg9
F58.38441205024719
sa(dp147
g6
I1
sg7
F0.031139135360717773
sg8
I3
sg9
F55.30066800117493
sasg11
I5
ssI37
(dp148
g2
I4
sg3
(lp149
(dp150
g6
I2
sg7
F1.6721701622009277
sg8
I10
sg9
F55.80686092376709
sa(dp151
g6
I0
sg7
F0.010107994079589844
sg8
I6
sg9
F56.00262999534607
sa(dp152
g6
I1
sg7
F0.0027360916137695312
sg8
I3
sg9
F56.33542084693909
sa(dp153
g6
I0
sg7
F0.0026340484619140625
sg8
I2
sg9
F56.60833406448364
sasg11
I10
ssI38
(dp154
g2
I0
sg3
(lp155
sg11
I1
ssI39
(dp156
g2
I0
sg3
(lp157
sg11
I1
ssI40
(dp158
g2
I1
sg3
(lp159
(dp160
g6
I0
sg7
F14.267882108688354
sg8
I2
sg9
F61.91639995574951
sasg11
I2
ssI41
(dp161
g2
I2
sg3
(lp162
(dp163
g6
I0
sg7
F8.570402145385742
sg8
I6
sg9
F61.388108015060425
sa(dp164
g6
I1
sg7
F0.0293271541595459
sg8
I3
sg9
F62.54143571853638
sasg11
I6
ssI42
(dp165
g2
I1
sg3
(lp166
(dp167
g6
I0
sg7
F14.130414009094238
sg8
I2
sg9
F64.56873416900635
sasg11
I2
ssI43
(dp168
g2
I0
sg3
(lp169
sg11
I1
ssI44
(dp170
g2
I3
sg3
(lp171
(dp172
g6
I1
sg7
F1.0688600540161133
sg8
I5
sg9
F67.2124330997467
sa(dp173
g6
I1
sg7
F0.013895988464355469
sg8
I3
sg9
F60.64892506599426
sa(dp174
g6
I0
sg7
F0.0015058517456054688
sg8
I2
sg9
F67.50867795944214
sasg11
I5
ssI45
(dp175
g2
I3
sg3
(lp176
(dp177
g6
I1
sg7
F0.03224802017211914
sg8
I5
sg9
F60.0164909362793
sa(dp178
g6
I1
sg7
F0.0015730857849121094
sg8
I3
sg9
F63.05750775337219
sa(dp179
g6
I0
sg7
F0.0014519691467285156
sg8
I2
sg9
F74.777907371521
sasg11
I5
ssI46
(dp180
g2
I0
sg3
(lp181
sg11
I1
ssI47
(dp182
g2
I0
sg3
(lp183
sg11
I1
ssI48
(dp184
g2
I1
sg3
(lp185
(dp186
g6
I0
sg7
F0.0641169548034668
sg8
I2
sg9
F59.85220503807068
sasg11
I2
ssI49
(dp187
g2
I3
sg3
(lp188
(dp189
g6
I1
sg7
F0.1651167869567871
sg8
I5
sg9
F64.76261019706726
sa(dp190
g6
I1
sg7
F0.0012431144714355469
sg8
I3
sg9
F65.88103675842285
sa(dp191
g6
I0
sg7
F0.0012428760528564453
sg8
I2
sg9
F65.24825668334961
sasg11
I5
ssI50
(dp192
g2
I3
sg3
(lp193
(dp194
g6
I1
sg7
F0.36517906188964844
sg8
I5
sg9
F61.81121110916138
sa(dp195
g6
I1
sg7
F0.0011479854583740234
sg8
I3
sg9
F63.044337034225464
sa(dp196
g6
I0
sg7
F0.0011451244354248047
sg8
I2
sg9
F68.1746461391449
sasg11
I5
ssI51
(dp197
g2
I0
sg3
(lp198
sg11
I1
ssI52
(dp199
g2
I0
sg3
(lp200
sg11
I1
ssI53
(dp201
g2
I0
sg3
(lp202
sg11
I1
ssI55
(dp203
g2
I1
sg3
(lp204
(dp205
g6
I0
sg7
F22.723209142684937
sg8
I2
sg9
F66.05515503883362
sasg11
I2
ssI56
(dp206
g2
I0
sg3
(lp207
sg11
I1
ssI57
(dp208
g2
I2
sg3
(lp209
(dp210
g6
I1
sg7
F10.922231912612915
sg8
I3
sg9
F69.47347784042358
sa(dp211
g6
I0
sg7
F0.12866783142089844
sg8
I2
sg9
F69.85708498954773
sasg11
I3
ssI108
(dp212
g2
I0
sg3
(lp213
sg11
I1
ssI109
(dp214
g2
I0
sg3
(lp215
sg11
I1
ssI116
(dp216
g2
I4
sg3
(lp217
(dp218
g6
I13
sg7
F3.4794890880584717
sg8
I21
sg9
F64.46694993972778
sa(dp219
g6
I9
sg7
F0.052790164947509766
sg8
I17
sg9
F74.09138512611389
sa(dp220
g6
I7
sg7
F0.0041811466217041016
sg8
I13
sg9
F69.39485621452332
sa(dp221
g6
I1
sg7
F0.001277923583984375
sg8
I3
sg9
F65.00515079498291
sasg11
I21
ssI117
(dp222
g2
I3
sg3
(lp223
(dp224
g6
I1
sg7
F0.015900850296020508
sg8
I5
sg9
F68.5474317073822
sa(dp225
g6
I1
sg7
F0.0015330314636230469
sg8
I3
sg9
F67.2699089050293
sa(dp226
g6
I0
sg7
F0.001447916030883789
sg8
I2
sg9
F67.56015706062317
sasg11
I5
ssI118
(dp227
g2
I0
sg3
(lp228
sg11
I1
ssI122
(dp229
g2
I0
sg3
(lp230
sg11
I1
ss.