(dp0
I1
(dp1
S'iters'
p2
I2
sS'meta'
p3
(lp4
(dp5
S'objective'
p6
I1
sS'query_time'
p7
F17.188615083694458
sS'comp_time'
p8
F0.7399418354034424
sS'exec_cq'
p9
I3
sS'total_cq'
p10
I6
sa(dp11
g6
I2
sg7
F0.18333888053894043
sg8
F0.7830507755279541
sg9
I2
sg10
I2
sasS'total_cqs'
p12
I6
ssI2
(dp13
S'iters'
p14
I1
sS'meta'
p15
(lp16
(dp17
S'objective'
p18
I13
sS'query_time'
p19
F0.8560130596160889
sS'comp_time'
p20
F0.20809149742126465
sS'exec_cq'
p21
I5
sS'total_cq'
p22
I6
sasS'total_cqs'
p23
I6
ssI3
(dp24
S'iters'
p25
I14
sS'meta'
p26
(lp27
(dp28
S'objective'
p29
I433
sS'query_time'
p30
F25.551038026809692
sS'comp_time'
p31
F0.3480408191680908
sS'exec_cq'
p32
I15
sS'total_cq'
p33
I33
sa(dp34
g29
I337
sg30
F0.3253600597381592
sg31
F0.021978139877319336
sg32
I13
sg33
I30
sa(dp35
g29
I303
sg30
F0.012263059616088867
sg31
F0.1956770420074463
sg32
I12
sg33
I27
sa(dp36
g29
I258
sg30
F0.006256818771362305
sg31
F0.02319502830505371
sg32
I10
sg33
I24
sa(dp37
g29
I249
sg30
F0.0012540817260742188
sg31
F0.008486509323120117
sg32
I9
sg33
I21
sa(dp38
g29
I215
sg30
F0.192094087600708
sg31
F0.18582391738891602
sg32
I5
sg33
I20
sa(dp39
g29
I181
sg30
F0.0034110546112060547
sg31
F0.01581716537475586
sg32
I7
sg33
I19
sa(dp40
g29
I164
sg30
F0.0007739067077636719
sg31
F0.005997180938720703
sg32
I8
sg33
I16
sa(dp41
g29
I135
sg30
F0.004322052001953125
sg31
F0.021589279174804688
sg32
I4
sg33
I15
sa(dp42
g29
I114
sg30
F0.0009000301361083984
sg31
F0.005887031555175781
sg32
I7
sg33
I14
sa(dp43
g29
I82
sg30
F0.002899169921875
sg31
F0.015897035598754883
sg32
I4
sg33
I11
sa(dp44
g29
I48
sg30
F0.4437730312347412
sg31
F0.39025163650512695
sg32
I4
sg33
I9
sa(dp45
g29
I41
sg30
F0.008016109466552734
sg31
F0.021071672439575195
sg32
I3
sg33
I6
sa(dp46
g29
I24
sg30
F0.0029599666595458984
sg31
F0.09857296943664551
sg32
I2
sg33
I5
sasS'total_cqs'
p47
I33
ssI4
(dp48
S'iters'
p49
I0
sS'meta'
p50
(lp51
sS'total_cqs'
p52
I1
ssI5
(dp53
S'iters'
p54
I0
sS'meta'
p55
(lp56
sS'total_cqs'
p57
I1
ssI6
(dp58
S'iters'
p59
I3
sS'meta'
p60
(lp61
(dp62
S'objective'
p63
I1
sS'query_time'
p64
F14.940140008926392
sS'comp_time'
p65
F0.014962196350097656
sS'exec_cq'
p66
I4
sS'total_cq'
p67
I5
sa(dp68
g63
I3
sg64
F0.00029087066650390625
sg65
F0.0018458366394042969
sg66
I2
sg67
I3
sa(dp69
g63
I3
sg64
F0.0002300739288330078
sg65
F0.0014781951904296875
sg66
I2
sg67
I2
sasS'total_cqs'
p70
I5
ssI7
(dp71
S'iters'
p72
I0
sS'meta'
p73
(lp74
sS'total_cqs'
p75
I1
ssI8
(dp76
S'iters'
p77
I3
sS'meta'
p78
(lp79
(dp80
S'objective'
p81
I19
sS'query_time'
p82
F23.341567993164062
sS'comp_time'
p83
F0.4051508903503418
sS'exec_cq'
p84
I5
sS'total_cq'
p85
I6
sa(dp86
g81
I10
sg82
F1.5170321464538574
sg83
F1.3970999717712402
sg84
I4
sg85
I5
sa(dp87
g81
I7
sg82
F0.052559852600097656
sg83
F0.04512286186218262
sg84
I3
sg85
I4
sasS'total_cqs'
p88
I6
ssI9
(dp89
S'iters'
p90
I3
sS'meta'
p91
(lp92
(dp93
S'objective'
p94
I3
sS'query_time'
p95
F12.438333988189697
sS'comp_time'
p96
F0.5700700283050537
sS'exec_cq'
p97
I3
sS'total_cq'
p98
I6
sa(dp99
g94
I2
sg95
F1.5381112098693848
sg96
F0.355715274810791
sg97
I1
sg98
I4
sa(dp100
g94
I1
sg95
F0.011142969131469727
sg96
F0.06339812278747559
sg97
I1
sg98
I3
sasS'total_cqs'
p101
I6
ssI10
(dp102
S'iters'
p103
I0
sS'meta'
p104
(lp105
sS'total_cqs'
p106
I1
ssI11
(dp107
S'iters'
p108
I0
sS'meta'
p109
(lp110
sS'total_cqs'
p111
I1
ssI12
(dp112
S'iters'
p113
I0
sS'meta'
p114
(lp115
sS'total_cqs'
p116
I1
ssI13
(dp117
S'iters'
p118
I1
sS'meta'
p119
(lp120
(dp121
S'objective'
p122
I26
sS'query_time'
p123
F0.021575927734375
sS'comp_time'
p124
F0.007470846176147461
sS'exec_cq'
p125
I6
sS'total_cq'
p126
I8
sasS'total_cqs'
p127
I8
ssI14
(dp128
S'iters'
p129
I1
sS'meta'
p130
(lp131
(dp132
S'objective'
p133
I7
sS'query_time'
p134
F1.0043389797210693
sS'comp_time'
p135
F0.008224725723266602
sS'exec_cq'
p136
I5
sS'total_cq'
p137
I5
sasS'total_cqs'
p138
I5
ssI16
(dp139
S'iters'
p140
I2
sS'meta'
p141
(lp142
(dp143
S'objective'
p144
I3
sS'query_time'
p145
F1.3409881591796875
sS'comp_time'
p146
F0.011519193649291992
sS'exec_cq'
p147
I4
sS'total_cq'
p148
I5
sa(dp149
g144
I2
sg145
F0.0012290477752685547
sg146
F0.007239103317260742
sg147
I2
sg148
I2
sasS'total_cqs'
p150
I5
ssI17
(dp151
S'iters'
p152
I0
sS'meta'
p153
(lp154
sS'total_cqs'
p155
I1
ssI18
(dp156
S'iters'
p157
I2
sS'meta'
p158
(lp159
(dp160
S'objective'
p161
I1
sS'query_time'
p162
F0.2007749080657959
sS'comp_time'
p163
F0.003802061080932617
sS'exec_cq'
p164
I4
sS'total_cq'
p165
I5
sa(dp166
g161
I1
sg162
F0.02153182029724121
sg163
F0.0004150867462158203
sg164
I3
sg165
I3
sasS'total_cqs'
p167
I5
ssI19
(dp168
S'iters'
p169
I0
sS'meta'
p170
(lp171
sS'total_cqs'
p172
I1
ssI20
(dp173
S'iters'
p174
I6
sS'meta'
p175
(lp176
(dp177
S'objective'
p178
I34
sS'query_time'
p179
F9.036521911621094
sS'comp_time'
p180
F1.3840010166168213
sS'exec_cq'
p181
I6
sS'total_cq'
p182
I12
sa(dp183
g178
I30
sg179
F0.22300195693969727
sg180
F1.1742608547210693
sg181
I4
sg182
I10
sa(dp184
g178
I33
sg179
F4.153279066085815
sg180
F0.32292866706848145
sg181
I4
sg182
I8
sa(dp185
g178
I34
sg179
F2.4080276489257812e-05
sg180
F0.00016880035400390625
sg181
I2
sg182
I6
sa(dp186
g178
I24
sg179
F0.06890487670898438
sg180
F0.730443000793457
sg181
I4
sg182
I5
sa(dp187
g178
I16
sg179
F0.11164712905883789
sg180
F0.005641460418701172
sg181
I3
sg182
I4
sasS'total_cqs'
p188
I12
ssI21
(dp189
S'iters'
p190
I5
sS'meta'
p191
(lp192
(dp193
S'objective'
p194
I69
sS'query_time'
p195
F29.05506682395935
sS'comp_time'
p196
F0.4309258460998535
sS'exec_cq'
p197
I8
sS'total_cq'
p198
I14
sa(dp199
g194
I39
sg195
F0.014005184173583984
sg196
F0.07200908660888672
sg197
I6
sg198
I12
sa(dp200
g194
I3
sg195
F29.779289960861206
sg196
F1.7656769752502441
sg197
I4
sg198
I8
sa(dp201
g194
I5
sg195
F0.0012249946594238281
sg196
F0.00869297981262207
sg197
I2
sg198
I4
sa(dp202
g194
I3
sg195
F0.012677907943725586
sg196
F0.00015115737915039062
sg197
I1
sg198
I2
sasS'total_cqs'
p203
I14
ssI22
(dp204
S'iters'
p205
I1
sS'meta'
p206
(lp207
(dp208
S'objective'
p209
I1
sS'query_time'
p210
F0.030755996704101562
sS'comp_time'
p211
F0.0014598369598388672
sS'exec_cq'
p212
I1
sS'total_cq'
p213
I2
sasS'total_cqs'
p214
I2
ssI23
(dp215
S'iters'
p216
I0
sS'meta'
p217
(lp218
sS'total_cqs'
p219
I1
ssI24
(dp220
S'iters'
p221
I0
sS'meta'
p222
(lp223
sS'total_cqs'
p224
I1
ssI25
(dp225
S'iters'
p226
I4
sS'meta'
p227
(lp228
(dp229
S'objective'
p230
I18
sS'query_time'
p231
F47.719603061676025
sS'comp_time'
p232
F4.924806118011475
sS'exec_cq'
p233
I4
sS'total_cq'
p234
I7
sa(dp235
g230
I5
sg231
F4.563382863998413
sg232
F0.3231651782989502
sg233
I2
sg234
I5
sa(dp236
g230
I0
sg231
F0.06695914268493652
sg232
F0.13229084014892578
sg233
I2
sg234
I3
sa(dp237
g230
I3
sg231
F0.00848698616027832
sg232
F0.049764156341552734
sg233
I1
sg234
I2
sasS'total_cqs'
p238
I7
ssI26
(dp239
S'iters'
p240
I7
sS'meta'
p241
(lp242
(dp243
S'objective'
p244
I73
sS'query_time'
p245
F23.073413133621216
sS'comp_time'
p246
F0.02122974395751953
sS'exec_cq'
p247
I3
sS'total_cq'
p248
I13
sa(dp249
g244
I32
sg245
F0.010640859603881836
sg246
F0.0003197193145751953
sg247
I2
sg248
I12
sa(dp250
g244
I43
sg245
F0.0007500648498535156
sg246
F0.006775856018066406
sg247
I2
sg248
I10
sa(dp251
g244
I32
sg245
F0.17010903358459473
sg246
F0.015541791915893555
sg247
I4
sg248
I9
sa(dp252
g244
I19
sg245
F0.0023610591888427734
sg246
F0.00157928466796875
sg247
I1
sg248
I7
sa(dp253
g244
I10
sg245
F0.027462005615234375
sg246
F0.002015829086303711
sg247
I1
sg248
I6
sa(dp254
g244
I4
sg245
F0.0018770694732666016
sg246
F7.295608520507812e-05
sg247
I1
sg248
I5
sasS'total_cqs'
p255
I13
ssI27
(dp256
S'iters'
p257
I1
sS'meta'
p258
(lp259
(dp260
S'objective'
p261
I1
sS'query_time'
p262
F0.188370943069458
sS'comp_time'
p263
F0.007292747497558594
sS'exec_cq'
p264
I1
sS'total_cq'
p265
I2
sasS'total_cqs'
p266
I2
ssI28
(dp267
S'iters'
p268
I7
sS'meta'
p269
(lp270
(dp271
S'objective'
p272
I65
sS'query_time'
p273
F1.5168960094451904
sS'comp_time'
p274
F0.12424921989440918
sS'exec_cq'
p275
I6
sS'total_cq'
p276
I14
sa(dp277
g272
I57
sg273
F0.0058820247650146484
sg274
F0.0002884864807128906
sg275
I2
sg276
I12
sa(dp278
g272
I55
sg273
F0.00023484230041503906
sg274
F0.0013606548309326172
sg275
I4
sg276
I11
sa(dp279
g272
I37
sg273
F0.015110969543457031
sg274
F0.0008130073547363281
sg275
I1
sg276
I9
sa(dp280
g272
I26
sg273
F0.023504972457885742
sg274
F0.0013849735260009766
sg275
I1
sg276
I8
sa(dp281
g272
I18
sg273
F0.020004987716674805
sg274
F0.0010402202606201172
sg275
I1
sg276
I7
sa(dp282
g272
I12
sg273
F0.002663135528564453
sg274
F0.0001289844512939453
sg275
I1
sg276
I6
sasS'total_cqs'
p283
I14
ssI29
(dp284
S'iters'
p285
I1
sS'meta'
p286
(lp287
(dp288
S'objective'
p289
I1
sS'query_time'
p290
F0.007925987243652344
sS'comp_time'
p291
F0.0017344951629638672
sS'exec_cq'
p292
I2
sS'total_cq'
p293
I2
sasS'total_cqs'
p294
I2
ssI30
(dp295
S'iters'
p296
I1
sS'meta'
p297
(lp298
(dp299
S'objective'
p300
I1
sS'query_time'
p301
F0.31031107902526855
sS'comp_time'
p302
F0.0042574405670166016
sS'exec_cq'
p303
I2
sS'total_cq'
p304
I2
sasS'total_cqs'
p305
I2
ssI31
(dp306
S'iters'
p307
I3
sS'meta'
p308
(lp309
(dp310
S'objective'
p311
I5
sS'query_time'
p312
F1.6109559535980225
sS'comp_time'
p313
F0.06116628646850586
sS'exec_cq'
p314
I5
sS'total_cq'
p315
I9
sa(dp316
g311
I2
sg312
F0.01042795181274414
sg313
F0.11494183540344238
sg314
I3
sg315
I3
sa(dp317
g311
I1
sg312
F0.003946065902709961
sg313
F0.021523237228393555
sg314
I2
sg315
I2
sasS'total_cqs'
p318
I9
ssI32
(dp319
S'iters'
p320
I3
sS'meta'
p321
(lp322
(dp323
S'objective'
p324
I6
sS'query_time'
p325
F21.25214719772339
sS'comp_time'
p326
F4.4449005126953125
sS'exec_cq'
p327
I4
sS'total_cq'
p328
I7
sa(dp329
g324
I3
sg325
F1.1025049686431885
sg326
F0.020366191864013672
sg327
I2
sg328
I4
sa(dp330
g324
I3
sg325
F0.6071269512176514
sg326
F2.082282066345215
sg327
I1
sg328
I2
sasS'total_cqs'
p331
I7
ssI33
(dp332
S'iters'
p333
I1
sS'meta'
p334
(lp335
(dp336
S'objective'
p337
I1
sS'query_time'
p338
F0.03220415115356445
sS'comp_time'
p339
F0.0019347667694091797
sS'exec_cq'
p340
I2
sS'total_cq'
p341
I2
sasS'total_cqs'
p342
I2
ssI34
(dp343
S'iters'
p344
I0
sS'meta'
p345
(lp346
sS'total_cqs'
p347
I1
ssI35
(dp348
S'iters'
p349
I2
sS'meta'
p350
(lp351
(dp352
S'objective'
p353
I1
sS'query_time'
p354
F13.10405421257019
sS'comp_time'
p355
F0.3080418109893799
sS'exec_cq'
p356
I4
sS'total_cq'
p357
I5
sa(dp358
g353
I1
sg354
F0.08864688873291016
sg355
F0.0715169906616211
sg356
I2
sg357
I3
sasS'total_cqs'
p359
I5
ssI37
(dp360
S'iters'
p361
I3
sS'meta'
p362
(lp363
(dp364
S'objective'
p365
I35
sS'query_time'
p366
F1.3707830905914307
sS'comp_time'
p367
F0.26755595207214355
sS'exec_cq'
p368
I4
sS'total_cq'
p369
I10
sa(dp370
g365
I17
sg366
F0.4672079086303711
sg367
F0.015556812286376953
sg368
I4
sg369
I9
sa(dp371
g365
I2
sg366
F0.002532958984375
sg367
F0.015777111053466797
sg368
I2
sg369
I2
sasS'total_cqs'
p372
I10
ssI38
(dp373
S'iters'
p374
I0
sS'meta'
p375
(lp376
sS'total_cqs'
p377
I1
ssI39
(dp378
S'iters'
p379
I0
sS'meta'
p380
(lp381
sS'total_cqs'
p382
I1
ssI40
(dp383
S'iters'
p384
I1
sS'meta'
p385
(lp386
(dp387
S'objective'
p388
I1
sS'query_time'
p389
F0.03202009201049805
sS'comp_time'
p390
F0.004927635192871094
sS'exec_cq'
p391
I1
sS'total_cq'
p392
I2
sasS'total_cqs'
p393
I2
ssI41
(dp394
S'iters'
p395
I3
sS'meta'
p396
(lp397
(dp398
S'objective'
p399
I9
sS'query_time'
p400
F10.777845859527588
sS'comp_time'
p401
F1.8359911441802979
sS'exec_cq'
p402
I3
sS'total_cq'
p403
I6
sa(dp404
g399
I1
sg400
F0.7228829860687256
sg401
F0.0039348602294921875
sg402
I2
sg403
I5
sa(dp405
g399
I1
sg400
F0.0005950927734375
sg401
F0.0033440589904785156
sg402
I2
sg403
I2
sasS'total_cqs'
p406
I6
ssI42
(dp407
S'iters'
p408
I1
sS'meta'
p409
(lp410
(dp411
S'objective'
p412
I1
sS'query_time'
p413
F0.03711104393005371
sS'comp_time'
p414
F0.004496097564697266
sS'exec_cq'
p415
I1
sS'total_cq'
p416
I2
sasS'total_cqs'
p417
I2
ssI43
(dp418
S'iters'
p419
I0
sS'meta'
p420
(lp421
sS'total_cqs'
p422
I1
ssI44
(dp423
S'iters'
p424
I2
sS'meta'
p425
(lp426
(dp427
S'objective'
p428
I5
sS'query_time'
p429
F1.4732098579406738
sS'comp_time'
p430
F0.19992589950561523
sS'exec_cq'
p431
I2
sS'total_cq'
p432
I5
sa(dp433
g428
I2
sg429
F0.003381013870239258
sg430
F0.00012493133544921875
sg431
I1
sg432
I4
sasS'total_cqs'
p434
I5
ssI45
(dp435
S'iters'
p436
I2
sS'meta'
p437
(lp438
(dp439
S'objective'
p440
I3
sS'query_time'
p441
F0.03125905990600586
sS'comp_time'
p442
F0.002938985824584961
sS'exec_cq'
p443
I3
sS'total_cq'
p444
I5
sa(dp445
g440
I1
sg441
F0.00017690658569335938
sg442
F0.06049633026123047
sg443
I2
sg444
I2
sasS'total_cqs'
p446
I5
ssI46
(dp447
S'iters'
p448
I0
sS'meta'
p449
(lp450
sS'total_cqs'
p451
I1
ssI47
(dp452
S'iters'
p453
I0
sS'meta'
p454
(lp455
sS'total_cqs'
p456
I1
ssI48
(dp457
S'iters'
p458
I1
sS'meta'
p459
(lp460
(dp461
S'objective'
p462
I1
sS'query_time'
p463
F0.09279203414916992
sS'comp_time'
p464
F0.004951000213623047
sS'exec_cq'
p465
I2
sS'total_cq'
p466
I2
sasS'total_cqs'
p467
I2
ssI49
(dp468
S'iters'
p469
I2
sS'meta'
p470
(lp471
(dp472
S'objective'
p473
I3
sS'query_time'
p474
F0.15795683860778809
sS'comp_time'
p475
F0.005428314208984375
sS'exec_cq'
p476
I4
sS'total_cq'
p477
I5
sa(dp478
g473
I1
sg474
F3.0040740966796875e-05
sg475
F0.00020599365234375
sg476
I2
sg477
I3
sasS'total_cqs'
p479
I5
ssI50
(dp480
S'iters'
p481
I2
sS'meta'
p482
(lp483
(dp484
S'objective'
p485
I5
sS'query_time'
p486
F0.5495829582214355
sS'comp_time'
p487
F0.0083160400390625
sS'exec_cq'
p488
I5
sS'total_cq'
p489
I5
sa(dp490
g485
I2
sg486
F0.0001499652862548828
sg487
F0.0010199546813964844
sg488
I4
sg489
I4
sasS'total_cqs'
p491
I5
ssI51
(dp492
S'iters'
p493
I0
sS'meta'
p494
(lp495
sS'total_cqs'
p496
I1
ssI52
(dp497
S'iters'
p498
I0
sS'meta'
p499
(lp500
sS'total_cqs'
p501
I1
ssI53
(dp502
S'iters'
p503
I0
sS'meta'
p504
(lp505
sS'total_cqs'
p506
I1
ssI55
(dp507
S'iters'
p508
I1
sS'meta'
p509
(lp510
(dp511
S'objective'
p512
I1
sS'query_time'
p513
F24.331503868103027
sS'comp_time'
p514
F2.9422459602355957
sS'exec_cq'
p515
I2
sS'total_cq'
p516
I2
sasS'total_cqs'
p517
I2
ssI56
(dp518
S'iters'
p519
I0
sS'meta'
p520
(lp521
sS'total_cqs'
p522
I1
ssI57
(dp523
S'iters'
p524
I1
sS'meta'
p525
(lp526
(dp527
S'objective'
p528
I0
sS'query_time'
p529
F12.58596396446228
sS'comp_time'
p530
F2.355382204055786
sS'exec_cq'
p531
I2
sS'total_cq'
p532
I3
sasS'total_cqs'
p533
I3
ssI108
(dp534
S'iters'
p535
I0
sS'meta'
p536
(lp537
sS'total_cqs'
p538
I1
ssI109
(dp539
S'iters'
p540
I0
sS'meta'
p541
(lp542
sS'total_cqs'
p543
I1
ssI116
(dp544
S'iters'
p545
I3
sS'meta'
p546
(lp547
(dp548
S'objective'
p549
I179
sS'query_time'
p550
F3.470184087753296
sS'comp_time'
p551
F0.4818542003631592
sS'exec_cq'
p552
I15
sS'total_cq'
p553
I21
sa(dp554
g549
I167
sg550
F0.552229642868042
sg551
F0.004342317581176758
sg552
I16
sg553
I19
sa(dp555
g549
I5
sg550
F0.0007741451263427734
sg551
F0.0035576820373535156
sg552
I2
sg553
I2
sasS'total_cqs'
p556
I21
ssI117
(dp557
S'iters'
p558
I2
sS'meta'
p559
(lp560
(dp561
S'objective'
p562
I9
sS'query_time'
p563
F0.010853767395019531
sS'comp_time'
p564
F0.0016100406646728516
sS'exec_cq'
p565
I3
sS'total_cq'
p566
I5
sa(dp567
g562
I4
sg563
F0.0058400630950927734
sg564
F0.00015044212341308594
sg565
I2
sg566
I4
sasS'total_cqs'
p568
I5
ssI118
(dp569
S'iters'
p570
I0
sS'meta'
p571
(lp572
sS'total_cqs'
p573
I1
ssI122
(dp574
S'iters'
p575
I0
sS'meta'
p576
(lp577
sS'total_cqs'
p578
I1
ss.