(dp0
I1
(dp1
S'iters'
p2
I3
sS'meta'
p3
(lp4
(dp5
S'objective'
p6
I9
sS'query_time'
p7
F26.636943101882935
sS'comp_time'
p8
F0.08719801902770996
sS'exec_cq'
p9
I6
sS'total_cq'
p10
I6
sa(dp11
g6
I7
sg7
F0.010854005813598633
sg8
F1.2023630142211914
sg9
I5
sg10
I5
sa(dp12
g6
I2
sg7
F0.010490179061889648
sg8
F236.83539414405823
sg9
I2
sg10
I2
sasS'total_cqs'
p13
I6
ssI2
(dp14
S'iters'
p15
I1
sS'meta'
p16
(lp17
(dp18
S'objective'
p19
I15
sS'query_time'
p20
F0.8195269107818604
sS'comp_time'
p21
F0.10150003433227539
sS'exec_cq'
p22
I6
sS'total_cq'
p23
I6
sasS'total_cqs'
p24
I6
ssI3
(dp25
S'iters'
p26
I16
sS'meta'
p27
(lp28
(dp29
S'objective'
p30
I401
sS'query_time'
p31
F25.78395986557007
sS'comp_time'
p32
F0.2606172561645508
sS'exec_cq'
p33
I33
sS'total_cq'
p34
I33
sa(dp35
g30
I331
sg31
F0.09306812286376953
sg32
F0.2420969009399414
sg33
I30
sg34
I30
sa(dp36
g30
I286
sg31
F0.03578591346740723
sg32
F0.31033897399902344
sg33
I27
sg34
I27
sa(dp37
g30
I226
sg31
F0.07133698463439941
sg32
F0.19954895973205566
sg33
I24
sg34
I24
sa(dp38
g30
I208
sg31
F0.016407012939453125
sg32
F0.119049072265625
sg33
I21
sg34
I21
sa(dp39
g30
I189
sg31
F0.014209985733032227
sg32
F0.10695528984069824
sg33
I18
sg34
I18
sa(dp40
g30
I160
sg31
F0.014961004257202148
sg32
F0.10800480842590332
sg33
I17
sg34
I17
sa(dp41
g30
I139
sg31
F0.014719009399414062
sg32
F0.10146331787109375
sg33
I15
sg34
I15
sa(dp42
g30
I118
sg31
F0.011609077453613281
sg32
F0.08167600631713867
sg33
I14
sg34
I14
sa(dp43
g30
I99
sg31
F0.031889915466308594
sg32
F0.0572810173034668
sg33
I13
sg34
I13
sa(dp44
g30
I80
sg31
F0.029117107391357422
sg32
F0.05596780776977539
sg33
I12
sg34
I12
sa(dp45
g30
I62
sg31
F0.010637998580932617
sg32
F0.05321502685546875
sg33
I9
sg34
I9
sa(dp46
g30
I47
sg31
F0.010416984558105469
sg32
F0.05288529396057129
sg33
I8
sg34
I8
sa(dp47
g30
I34
sg31
F0.0024220943450927734
sg32
F0.012362003326416016
sg33
I5
sg34
I5
sa(dp48
g30
I23
sg31
F0.0018589496612548828
sg32
F0.011132955551147461
sg33
I4
sg34
I4
sa(dp49
g30
I16
sg31
F0.002321958541870117
sg32
F0.011730194091796875
sg33
I3
sg34
I3
sasS'total_cqs'
p50
I33
ssI6
(dp51
S'iters'
p52
I2
sS'meta'
p53
(lp54
(dp55
S'objective'
p56
I1
sS'query_time'
p57
F14.878407001495361
sS'comp_time'
p58
F0.002969980239868164
sS'exec_cq'
p59
I5
sS'total_cq'
p60
I5
sa(dp61
g56
I2
sg57
F0.00019288063049316406
sg58
F0.0008759498596191406
sg59
I2
sg60
I2
sasS'total_cqs'
p62
I5
ssI8
(dp63
S'iters'
p64
I4
sS'meta'
p65
(lp66
(dp67
S'objective'
p68
I9
sS'query_time'
p69
F22.976094007492065
sS'comp_time'
p70
F0.2633838653564453
sS'exec_cq'
p71
I6
sS'total_cq'
p72
I6
sa(dp73
g68
I5
sg69
F1.4958312511444092
sg70
F1.5183062553405762
sg71
I5
sg72
I5
sa(dp74
g68
I2
sg69
F0.01417088508605957
sg70
F0.0032701492309570312
sg71
I4
sg72
I4
sa(dp75
g68
I0
sg69
F0.0026769638061523438
sg70
F0.0020771026611328125
sg71
I3
sg72
I3
sasS'total_cqs'
p76
I6
ssI9
(dp77
S'iters'
p78
I3
sS'meta'
p79
(lp80
(dp81
S'objective'
p82
I1
sS'query_time'
p83
F52.72254395484924
sS'comp_time'
p84
F4.406216859817505
sS'exec_cq'
p85
I6
sS'total_cq'
p86
I6
sa(dp87
g82
I2
sg83
F0.841346025466919
sg84
F3.334667921066284
sg85
I4
sg86
I4
sa(dp88
g82
I0
sg83
F0.9010210037231445
sg84
F3.2004342079162598
sg85
I3
sg86
I3
sasS'total_cqs'
p89
I6
ssI13
(dp90
S'iters'
p91
I1
sS'meta'
p92
(lp93
(dp94
S'objective'
p95
I30
sS'query_time'
p96
F0.02219104766845703
sS'comp_time'
p97
F0.00014019012451171875
sS'exec_cq'
p98
I8
sS'total_cq'
p99
I8
sasS'total_cqs'
p100
I8
ssI14
(dp101
S'iters'
p102
I2
sS'meta'
p103
(lp104
(dp105
S'objective'
p106
I5
sS'query_time'
p107
F1.1662828922271729
sS'comp_time'
p108
F0.006651163101196289
sS'exec_cq'
p109
I5
sS'total_cq'
p110
I5
sa(dp111
g106
I4
sg107
F0.0006849765777587891
sg108
F0.0036859512329101562
sg109
I4
sg110
I4
sasS'total_cqs'
p112
I5
ssI16
(dp113
S'iters'
p114
I3
sS'meta'
p115
(lp116
(dp117
S'objective'
p118
I1
sS'query_time'
p119
F1.416896104812622
sS'comp_time'
p120
F0.005140066146850586
sS'exec_cq'
p121
I5
sS'total_cq'
p122
I5
sa(dp123
g118
I0
sg119
F0.0009388923645019531
sg120
F0.004723072052001953
sg121
I3
sg122
I3
sa(dp124
g118
I2
sg119
F0.000843048095703125
sg120
F0.004128694534301758
sg121
I2
sg122
I2
sasS'total_cqs'
p125
I5
ssI18
(dp126
S'iters'
p127
I2
sS'meta'
p128
(lp129
(dp130
S'objective'
p131
I1
sS'query_time'
p132
F0.2844400405883789
sS'comp_time'
p133
F0.0003287792205810547
sS'exec_cq'
p134
I5
sS'total_cq'
p135
I5
sa(dp136
g131
I2
sg132
F3.695487976074219e-05
sg133
F0.00015306472778320312
sg134
I2
sg135
I2
sasS'total_cqs'
p137
I5
ssI20
(dp138
S'iters'
p139
I6
sS'meta'
p140
(lp141
(dp142
S'objective'
p143
I52
sS'query_time'
p144
F11.537199974060059
sS'comp_time'
p145
F1.193315029144287
sS'exec_cq'
p146
I12
sS'total_cq'
p147
I12
sa(dp148
g143
I41
sg144
F0.2414870262145996
sg145
F0.9739298820495605
sg146
I10
sg147
I10
sa(dp149
g143
I37
sg144
F0.20431208610534668
sg145
F0.9075069427490234
sg146
I8
sg147
I8
sa(dp150
g143
I33
sg144
F0.15990495681762695
sg145
F0.6103007793426514
sg146
I7
sg147
I7
sa(dp151
g143
I27
sg144
F0.010196208953857422
sg145
F0.11804604530334473
sg146
I6
sg147
I6
sa(dp152
g143
I25
sg144
F0.0007219314575195312
sg145
F0.0034263134002685547
sg146
I4
sg147
I4
sasS'total_cqs'
p153
I12
ssI21
(dp154
S'iters'
p155
I5
sS'meta'
p156
(lp157
(dp158
S'objective'
p159
I11
sS'query_time'
p160
F29.65804696083069
sS'comp_time'
p161
F0.573267936706543
sS'exec_cq'
p162
I14
sS'total_cq'
p163
I14
sa(dp164
g159
I4
sg160
F0.07810807228088379
sg161
F0.1981067657470703
sg162
I10
sg163
I10
sa(dp165
g159
I3
sg160
F0.015211105346679688
sg161
F0.11472678184509277
sg162
I6
sg163
I6
sa(dp166
g159
I1
sg160
F0.013402938842773438
sg161
F0.06688809394836426
sg162
I4
sg163
I4
sa(dp167
g159
I1
sg160
F0.008124113082885742
sg161
F0.021079063415527344
sg162
I2
sg163
I2
sasS'total_cqs'
p168
I14
ssI22
(dp169
S'iters'
p170
I1
sS'meta'
p171
(lp172
(dp173
S'objective'
p174
I1
sS'query_time'
p175
F0.006479978561401367
sS'comp_time'
p176
F0.00012421607971191406
sS'exec_cq'
p177
I2
sS'total_cq'
p178
I2
sasS'total_cqs'
p179
I2
ssI25
(dp180
S'iters'
p181
I3
sS'meta'
p182
(lp183
(dp184
S'objective'
p185
I0
sS'query_time'
p186
F87.09806489944458
sS'comp_time'
p187
F10.672366857528687
sS'exec_cq'
p188
I7
sS'total_cq'
p189
I7
sa(dp190
g185
I2
sg186
F0.22921299934387207
sg187
F2.4810330867767334
sg188
I4
sg189
I4
sa(dp191
g185
I2
sg186
F0.49734020233154297
sg187
F1.686107873916626
sg188
I2
sg189
I2
sasS'total_cqs'
p192
I7
ssI26
(dp193
S'iters'
p194
I8
sS'meta'
p195
(lp196
(dp197
S'objective'
p198
I49
sS'query_time'
p199
F24.75672483444214
sS'comp_time'
p200
F4.064512014389038
sS'exec_cq'
p201
I13
sS'total_cq'
p202
I13
sa(dp203
g198
I32
sg199
F0.8984529972076416
sg200
F3.384312868118286
sg201
I11
sg202
I11
sa(dp204
g198
I27
sg199
F0.7531430721282959
sg200
F3.158066987991333
sg201
I9
sg202
I9
sa(dp205
g198
I21
sg199
F0.004050016403198242
sg200
F0.01856517791748047
sg201
I8
sg202
I8
sa(dp206
g198
I14
sg199
F0.002794027328491211
sg200
F0.01741790771484375
sg201
I7
sg202
I7
sa(dp207
g198
I8
sg199
F0.0026900768280029297
sg200
F0.013131856918334961
sg201
I6
sg202
I6
sa(dp208
g198
I5
sg199
F0.0023832321166992188
sg200
F0.01229095458984375
sg201
I5
sg202
I5
sa(dp209
g198
I0
sg199
F0.0003600120544433594
sg200
F0.00257110595703125
sg201
I3
sg202
I3
sasS'total_cqs'
p210
I13
ssI27
(dp211
S'iters'
p212
I1
sS'meta'
p213
(lp214
(dp215
S'objective'
p216
I1
sS'query_time'
p217
F0.12945008277893066
sS'comp_time'
p218
F0.004208087921142578
sS'exec_cq'
p219
I2
sS'total_cq'
p220
I2
sasS'total_cqs'
p221
I2
ssI28
(dp222
S'iters'
p223
I7
sS'meta'
p224
(lp225
(dp226
S'objective'
p227
I55
sS'query_time'
p228
F1.6373021602630615
sS'comp_time'
p229
F0.020238161087036133
sS'exec_cq'
p230
I14
sS'total_cq'
p231
I14
sa(dp232
g227
I34
sg228
F0.00478816032409668
sg229
F0.02001786231994629
sg230
I11
sg231
I11
sa(dp233
g227
I17
sg228
F0.019093036651611328
sg229
F0.01406717300415039
sg230
I7
sg231
I7
sa(dp234
g227
I13
sg228
F0.0026710033416748047
sg229
F0.012516975402832031
sg230
I5
sg231
I5
sa(dp235
g227
I5
sg228
F0.0021021366119384766
sg229
F0.012766122817993164
sg230
I4
sg231
I4
sa(dp236
g227
I3
sg228
F8.988380432128906e-05
sg229
F0.0004150867462158203
sg230
I3
sg231
I3
sa(dp237
g227
I4
sg228
F1.5020370483398438e-05
sg229
F5.2928924560546875e-05
sg230
I2
sg231
I2
sasS'total_cqs'
p238
I14
ssI29
(dp239
S'iters'
p240
I1
sS'meta'
p241
(lp242
(dp243
S'objective'
p244
I1
sS'query_time'
p245
F0.007186174392700195
sS'comp_time'
p246
F0.00012183189392089844
sS'exec_cq'
p247
I2
sS'total_cq'
p248
I2
sasS'total_cqs'
p249
I2
ssI30
(dp250
S'iters'
p251
I1
sS'meta'
p252
(lp253
(dp254
S'objective'
p255
I1
sS'query_time'
p256
F0.3518671989440918
sS'comp_time'
p257
F0.005590200424194336
sS'exec_cq'
p258
I2
sS'total_cq'
p259
I2
sasS'total_cqs'
p260
I2
ssI31
(dp261
S'iters'
p262
I3
sS'meta'
p263
(lp264
(dp265
S'objective'
p266
I11
sS'query_time'
p267
F6.23874306678772
sS'comp_time'
p268
F0.14980387687683105
sS'exec_cq'
p269
I9
sS'total_cq'
p270
I9
sa(dp271
g266
I3
sg267
F0.007131814956665039
sg268
F0.028006792068481445
sg269
I3
sg270
I3
sa(dp272
g266
I2
sg267
F0.0024750232696533203
sg268
F0.012798070907592773
sg269
I2
sg270
I2
sasS'total_cqs'
p273
I9
ssI32
(dp274
S'iters'
p275
I4
sS'meta'
p276
(lp277
(dp278
S'objective'
p279
I4
sS'query_time'
p280
F19.240445137023926
sS'comp_time'
p281
F2.8055031299591064
sS'exec_cq'
p282
I7
sS'total_cq'
p283
I7
sa(dp284
g279
I2
sg280
F0.29423093795776367
sg281
F1.0204579830169678
sg282
I4
sg283
I4
sa(dp285
g279
I1
sg280
F0.37802791595458984
sg281
F1.3272182941436768
sg282
I3
sg283
I3
sa(dp286
g279
I1
sg280
F0.23889589309692383
sg281
F0.9820740222930908
sg282
I2
sg283
I2
sasS'total_cqs'
p287
I7
ssI33
(dp288
S'iters'
p289
I1
sS'meta'
p290
(lp291
(dp292
S'objective'
p293
I1
sS'query_time'
p294
F0.0245819091796875
sS'comp_time'
p295
F0.00013303756713867188
sS'exec_cq'
p296
I2
sS'total_cq'
p297
I2
sasS'total_cqs'
p298
I2
ssI35
(dp299
S'iters'
p300
I3
sS'meta'
p301
(lp302
(dp303
S'objective'
p304
I1
sS'query_time'
p305
F16.1285240650177
sS'comp_time'
p306
F0.2340238094329834
sS'exec_cq'
p307
I5
sS'total_cq'
p308
I5
sa(dp309
g304
I0
sg305
F0.03281998634338379
sg306
F0.19354701042175293
sg307
I3
sg308
I3
sa(dp310
g304
I2
sg305
F0.011946916580200195
sg306
F0.09206318855285645
sg307
I2
sg308
I2
sasS'total_cqs'
p311
I5
ssI37
(dp312
S'iters'
p313
I3
sS'meta'
p314
(lp315
(dp316
S'objective'
p317
I27
sS'query_time'
p318
F2.5152859687805176
sS'comp_time'
p319
F0.12498593330383301
sS'exec_cq'
p320
I10
sS'total_cq'
p321
I10
sa(dp322
g317
I4
sg318
F0.027345895767211914
sg319
F0.036295175552368164
sg320
I3
sg321
I3
sa(dp323
g317
I3
sg318
F0.006406068801879883
sg319
F0.029191970825195312
sg320
I2
sg321
I2
sasS'total_cqs'
p324
I10
ssI40
(dp325
S'iters'
p326
I1
sS'meta'
p327
(lp328
(dp329
S'objective'
p330
I1
sS'query_time'
p331
F17.249851942062378
sS'comp_time'
p332
F2.4841179847717285
sS'exec_cq'
p333
I2
sS'total_cq'
p334
I2
sasS'total_cqs'
p335
I2
ssI41
(dp336
S'iters'
p337
I3
sS'meta'
p338
(lp339
(dp340
S'objective'
p341
I1
sS'query_time'
p342
F12.495784044265747
sS'comp_time'
p343
F1.2683911323547363
sS'exec_cq'
p344
I6
sS'total_cq'
p345
I6
sa(dp346
g341
I0
sg342
F0.00191497802734375
sg343
F0.006819009780883789
sg344
I3
sg345
I3
sa(dp347
g341
I1
sg342
F0.0007288455963134766
sg343
F0.0034830570220947266
sg344
I2
sg345
I2
sasS'total_cqs'
p348
I6
ssI42
(dp349
S'iters'
p350
I1
sS'meta'
p351
(lp352
(dp353
S'objective'
p354
I1
sS'query_time'
p355
F17.268442153930664
sS'comp_time'
p356
F3.0659091472625732
sS'exec_cq'
p357
I2
sS'total_cq'
p358
I2
sasS'total_cqs'
p359
I2
ssI44
(dp360
S'iters'
p361
I3
sS'meta'
p362
(lp363
(dp364
S'objective'
p365
I3
sS'query_time'
p366
F1.638841152191162
sS'comp_time'
p367
F0.18368220329284668
sS'exec_cq'
p368
I5
sS'total_cq'
p369
I5
sa(dp370
g365
I1
sg366
F0.01987600326538086
sg367
F0.11505675315856934
sg368
I3
sg369
I3
sa(dp371
g365
I2
sg366
F0.00010514259338378906
sg367
F0.0003647804260253906
sg368
I2
sg369
I2
sasS'total_cqs'
p372
I5
ssI45
(dp373
S'iters'
p374
I2
sS'meta'
p375
(lp376
(dp377
S'objective'
p378
I1
sS'query_time'
p379
F0.04715895652770996
sS'comp_time'
p380
F0.0006349086761474609
sS'exec_cq'
p381
I5
sS'total_cq'
p382
I5
sa(dp383
g378
I2
sg379
F0.00014591217041015625
sg380
F0.0006499290466308594
sg381
I2
sg382
I2
sasS'total_cqs'
p384
I5
ssI48
(dp385
S'iters'
p386
I1
sS'meta'
p387
(lp388
(dp389
S'objective'
p390
I1
sS'query_time'
p391
F0.09788799285888672
sS'comp_time'
p392
F0.005689144134521484
sS'exec_cq'
p393
I2
sS'total_cq'
p394
I2
sasS'total_cqs'
p395
I2
ssI49
(dp396
S'iters'
p397
I3
sS'meta'
p398
(lp399
(dp400
S'objective'
p401
I1
sS'query_time'
p402
F0.2379601001739502
sS'comp_time'
p403
F0.006740093231201172
sS'exec_cq'
p404
I5
sS'total_cq'
p405
I5
sa(dp406
g401
I0
sg402
F0.0011720657348632812
sg403
F0.0026750564575195312
sg404
I3
sg405
I3
sa(dp407
g401
I2
sg402
F0.00032711029052734375
sg403
F0.0015950202941894531
sg404
I2
sg405
I2
sasS'total_cqs'
p408
I5
ssI50
(dp409
S'iters'
p410
I3
sS'meta'
p411
(lp412
(dp413
S'objective'
p414
I5
sS'query_time'
p415
F0.8546459674835205
sS'comp_time'
p416
F0.001318216323852539
sS'exec_cq'
p417
I5
sS'total_cq'
p418
I5
sa(dp419
g414
I2
sg415
F0.00015807151794433594
sg416
F0.0010120868682861328
sg417
I4
sg418
I4
sa(dp420
g414
I0
sg415
F0.0001480579376220703
sg416
F0.0007879734039306641
sg417
I3
sg418
I3
sasS'total_cqs'
p421
I5
ssI55
(dp422
S'iters'
p423
I1
sS'meta'
p424
(lp425
(dp426
S'objective'
p427
I1
sS'query_time'
p428
F26.597403049468994
sS'comp_time'
p429
F3.3314502239227295
sS'exec_cq'
p430
I2
sS'total_cq'
p431
I2
sasS'total_cqs'
p432
I2
ssI57
(dp433
S'iters'
p434
I2
sS'meta'
p435
(lp436
(dp437
S'objective'
p438
I0
sS'query_time'
p439
F14.071336030960083
sS'comp_time'
p440
F2.1337220668792725
sS'exec_cq'
p441
I3
sS'total_cq'
p442
I3
sa(dp443
g438
I1
sg439
F0.4060239791870117
sg440
F1.4009721279144287
sg441
I2
sg442
I2
sasS'total_cqs'
p444
I3
ssI116
(dp445
S'iters'
p446
I3
sS'meta'
p447
(lp448
(dp449
S'objective'
p450
I171
sS'query_time'
p451
F5.749853849411011
sS'comp_time'
p452
F0.3109619617462158
sS'exec_cq'
p453
I21
sS'total_cq'
p454
I21
sa(dp455
g450
I4
sg451
F0.001856088638305664
sg452
F0.006272077560424805
sg453
I3
sg454
I3
sa(dp456
g450
I3
sg451
F0.0009331703186035156
sg452
F0.003854036331176758
sg453
I2
sg454
I2
sasS'total_cqs'
p457
I21
ssI117
(dp458
S'iters'
p459
I2
sS'meta'
p460
(lp461
(dp462
S'objective'
p463
I5
sS'query_time'
p464
F0.014177083969116211
sS'comp_time'
p465
F8.702278137207031e-05
sS'exec_cq'
p466
I5
sS'total_cq'
p467
I5
sa(dp468
g463
I4
sg464
F2.5987625122070312e-05
sg465
F4.8160552978515625e-05
sg466
I4
sg467
I4
sasS'total_cqs'
p469
I5
ss.