(dp0
I1
(dp1
S'iters'
p2
I3
sS'meta'
p3
(lp4
(dp5
S'objective'
p6
I2
sS'query_time'
p7
F40.935433864593506
sS'total_cq'
p8
I6
sS'comp_time'
p9
F0.6270878314971924
sa(dp10
g6
I0
sg7
F0.20290207862854004
sg8
I4
sg9
F0.24090933799743652
sa(dp11
g6
I0
sg7
F0.01644611358642578
sg8
I2
sg9
F0.007980108261108398
sasS'total_cqs'
p12
I6
ssI2
(dp13
g2
I1
sg3
(lp14
(dp15
g6
I4
sg7
F0.7129578590393066
sg8
I6
sg9
F0.03072834014892578
sasg12
I6
ssI3
(dp16
g2
I15
sg3
(lp17
(dp18
g6
I27
sg7
F16.90257477760315
sg8
I33
sg9
F0.21691083908081055
sa(dp19
g6
I24
sg7
F0.08968567848205566
sg8
I30
sg9
F0.05735516548156738
sa(dp20
g6
I21
sg7
F0.10180783271789551
sg8
I27
sg9
F0.06323480606079102
sa(dp21
g6
I18
sg7
F0.09061217308044434
sg8
I24
sg9
F0.041081905364990234
sa(dp22
g6
I15
sg7
F0.03289175033569336
sg8
I21
sg9
F0.11330986022949219
sa(dp23
g6
I12
sg7
F0.015539169311523438
sg8
I18
sg9
F0.01864027976989746
sa(dp24
g6
I9
sg7
F0.07556009292602539
sg8
I15
sg9
F0.01713275909423828
sa(dp25
g6
I8
sg7
F0.015311956405639648
sg8
I12
sg9
F0.01569509506225586
sa(dp26
g6
I8
sg7
F0.01689314842224121
sg8
I10
sg9
F0.018674135208129883
sa(dp27
g6
I7
sg7
F0.01591181755065918
sg8
I9
sg9
F0.07150626182556152
sa(dp28
g6
I6
sg7
F0.01312398910522461
sg8
I8
sg9
F0.016532182693481445
sa(dp29
g6
I5
sg7
F0.009489059448242188
sg8
I7
sg9
F0.008510828018188477
sa(dp30
g6
I4
sg7
F0.0065991878509521484
sg8
I6
sg9
F0.008135318756103516
sa(dp31
g6
I3
sg7
F0.006353139877319336
sg8
I5
sg9
F0.006876468658447266
sa(dp32
g6
I2
sg7
F0.004892110824584961
sg8
I4
sg9
F0.006102561950683594
sasg12
I33
ssI4
(dp33
g2
I0
sg3
(lp34
sg12
I1
ssI5
(dp35
g2
I0
sg3
(lp36
sg12
I1
ssI6
(dp37
g2
I2
sg3
(lp38
(dp39
g6
I1
sg7
F8.891772985458374
sg8
I5
sg9
F0.002353668212890625
sa(dp40
g6
I0
sg7
F0.0016829967498779297
sg8
I2
sg9
F0.00036716461181640625
sasg12
I5
ssI7
(dp41
g2
I0
sg3
(lp42
sg12
I1
ssI8
(dp43
g2
I3
sg3
(lp44
(dp45
g6
I4
sg7
F103.24588584899902
sg8
I6
sg9
F0.18975067138671875
sa(dp46
g6
I3
sg7
F0.0481259822845459
sg8
I5
sg9
F0.1293649673461914
sa(dp47
g6
I2
sg7
F0.06705784797668457
sg8
I4
sg9
F0.12648582458496094
sasg12
I6
ssI9
(dp48
g2
I3
sg3
(lp49
(dp50
g6
I0
sg7
F6.684165000915527
sg8
I6
sg9
F0.043201446533203125
sa(dp51
g6
I1
sg7
F0.061749935150146484
sg8
I3
sg9
F0.15095305442810059
sa(dp52
g6
I0
sg7
F0.016072988510131836
sg8
I2
sg9
F0.01729416847229004
sasg12
I6
ssI10
(dp53
g2
I0
sg3
(lp54
sg12
I1
ssI11
(dp55
g2
I0
sg3
(lp56
sg12
I1
ssI12
(dp57
g2
I0
sg3
(lp58
sg12
I1
ssI13
(dp59
g2
I1
sg3
(lp60
(dp61
g6
I6
sg7
F0.01960611343383789
sg8
I8
sg9
F0.003362894058227539
sasg12
I8
ssI14
(dp62
g2
I1
sg3
(lp63
(dp64
g6
I3
sg7
F0.4658229351043701
sg8
I5
sg9
F0.003984212875366211
sasg12
I5
ssI16
(dp65
g2
I3
sg3
(lp66
(dp67
g6
I1
sg7
F0.616569995880127
sg8
I5
sg9
F0.003629922866821289
sa(dp68
g6
I1
sg7
F0.03223109245300293
sg8
I3
sg9
F0.00010204315185546875
sa(dp69
g6
I0
sg7
F0.0013129711151123047
sg8
I2
sg9
F0.0001461505889892578
sasg12
I5
ssI17
(dp70
g2
I0
sg3
(lp71
sg12
I1
ssI18
(dp72
g2
I3
sg3
(lp73
(dp74
g6
I1
sg7
F0.11478996276855469
sg8
I5
sg9
F0.0029296875
sa(dp75
g6
I1
sg7
F0.03199410438537598
sg8
I3
sg9
F9.989738464355469e-05
sa(dp76
g6
I0
sg7
F0.0013439655303955078
sg8
I2
sg9
F0.0001678466796875
sasg12
I5
ssI19
(dp77
g2
I0
sg3
(lp78
sg12
I1
ssI20
(dp79
g2
I5
sg3
(lp80
(dp81
g6
I8
sg7
F9.154753684997559
sg8
I12
sg9
F0.860759973526001
sa(dp82
g6
I6
sg7
F0.26566004753112793
sg8
I10
sg9
F0.475170373916626
sa(dp83
g6
I4
sg7
F0.1882162094116211
sg8
I8
sg9
F0.40013909339904785
sa(dp84
g6
I4
sg7
F0.1898360252380371
sg8
I6
sg9
F0.33855700492858887
sa(dp85
g6
I3
sg7
F0.3079800605773926
sg8
I5
sg9
F0.34784507751464844
sasg12
I12
ssI21
(dp86
g2
I4
sg3
(lp87
(dp88
g6
I8
sg7
F132.97324299812317
sg8
I14
sg9
F11.099059820175171
sa(dp89
g6
I5
sg7
F2.5103979110717773
sg8
I11
sg9
F6.295898199081421
sa(dp90
g6
I4
sg7
F2.4358811378479004
sg8
I8
sg9
F4.463089227676392
sa(dp91
g6
I4
sg7
F0.032176971435546875
sg8
I6
sg9
F0.019086599349975586
sasg12
I14
ssI22
(dp92
g2
I1
sg3
(lp93
(dp94
g6
I0
sg7
F0.0034890174865722656
sg8
I2
sg9
F0.0003731250762939453
sasg12
I2
ssI23
(dp95
g2
I0
sg3
(lp96
sg12
I1
ssI24
(dp97
g2
I0
sg3
(lp98
sg12
I1
ssI25
(dp99
g2
I3
sg3
(lp100
(dp101
g6
I3
sg7
F85.5576560497284
sg8
I7
sg9
F5.0734169483184814
sa(dp102
g6
I1
sg7
F3.3395440578460693
sg8
I5
sg9
F5.511977910995483
sa(dp103
g6
I1
sg7
F2.320284128189087
sg8
I3
sg9
F3.6465718746185303
sasg12
I7
ssI26
(dp104
g2
I8
sg3
(lp105
(dp106
g6
I9
sg7
F18.662050247192383
sg8
I13
sg9
F1.9257588386535645
sa(dp107
g6
I7
sg7
F3.9195339679718018
sg8
I11
sg9
F1.8531510829925537
sa(dp108
g6
I5
sg7
F0.8973619937896729
sg8
I9
sg9
F1.907872200012207
sa(dp109
g6
I5
sg7
F0.980259895324707
sg8
I7
sg9
F2.478226661682129
sa(dp110
g6
I4
sg7
F0.9201180934906006
sg8
I6
sg9
F2.6825339794158936
sa(dp111
g6
I3
sg7
F0.9212417602539062
sg8
I5
sg9
F1.8565607070922852
sa(dp112
g6
I2
sg7
F0.9805879592895508
sg8
I4
sg9
F1.8581290245056152
sa(dp113
g6
I1
sg7
F0.9347329139709473
sg8
I3
sg9
F1.9324760437011719
sasg12
I13
ssI27
(dp114
g2
I1
sg3
(lp115
(dp116
g6
I0
sg7
F0.11449193954467773
sg8
I2
sg9
F0.0009589195251464844
sasg12
I2
ssI28
(dp117
g2
I3
sg3
(lp118
(dp119
g6
I8
sg7
F0.8676960468292236
sg8
I14
sg9
F0.013720273971557617
sa(dp120
g6
I7
sg7
F0.007051944732666016
sg8
I11
sg9
F0.005581378936767578
sa(dp121
g6
I7
sg7
F0.004717826843261719
sg8
I9
sg9
F0.00012683868408203125
sasg12
I14
ssI29
(dp122
g2
I1
sg3
(lp123
(dp124
g6
I0
sg7
F0.007791042327880859
sg8
I2
sg9
F0.0006830692291259766
sasg12
I2
ssI30
(dp125
g2
I1
sg3
(lp126
(dp127
g6
I0
sg7
F0.1644730567932129
sg8
I2
sg9
F0.0014171600341796875
sasg12
I2
ssI31
(dp128
g2
I3
sg3
(lp129
(dp130
g6
I3
sg7
F3.2404117584228516
sg8
I9
sg9
F0.13998818397521973
sa(dp131
g6
I1
sg7
F0.011570930480957031
sg8
I3
sg9
F0.01056981086730957
sa(dp132
g6
I0
sg7
F0.007665157318115234
sg8
I2
sg9
F0.009433746337890625
sasg12
I9
ssI32
(dp133
g2
I3
sg3
(lp134
(dp135
g6
I1
sg7
F15.629093885421753
sg8
I7
sg9
F1.832859992980957
sa(dp136
g6
I0
sg7
F0.8168308734893799
sg8
I4
sg9
F0.004384040832519531
sa(dp137
g6
I0
sg7
F0.2857191562652588
sg8
I2
sg9
F0.23540401458740234
sasg12
I7
ssI33
(dp138
g2
I1
sg3
(lp139
(dp140
g6
I0
sg7
F0.015942096710205078
sg8
I2
sg9
F0.0006902217864990234
sasg12
I2
ssI34
(dp141
g2
I0
sg3
(lp142
sg12
I1
ssI35
(dp143
g2
I2
sg3
(lp144
(dp145
g6
I1
sg7
F10.568078994750977
sg8
I5
sg9
F0.1463310718536377
sa(dp146
g6
I0
sg7
F0.03465414047241211
sg8
I2
sg9
F0.022641897201538086
sasg12
I5
ssI37
(dp147
g2
I2
sg3
(lp148
(dp149
g6
I6
sg7
F1.3149678707122803
sg8
I10
sg9
F0.027260780334472656
sa(dp150
g6
I0
sg7
F0.003982067108154297
sg8
I2
sg9
F0.004350900650024414
sasg12
I10
ssI38
(dp151
g2
I0
sg3
(lp152
sg12
I1
ssI39
(dp153
g2
I0
sg3
(lp154
sg12
I1
ssI40
(dp155
g2
I1
sg3
(lp156
(dp157
g6
I0
sg7
F0.00345611572265625
sg8
I2
sg9
F0.0004589557647705078
sasg12
I2
ssI41
(dp158
g2
I2
sg3
(lp159
(dp160
g6
I2
sg7
F8.933563709259033
sg8
I6
sg9
F0.6874282360076904
sa(dp161
g6
I0
sg7
F0.0017571449279785156
sg8
I2
sg9
F0.0010716915130615234
sasg12
I6
ssI42
(dp162
g2
I1
sg3
(lp163
(dp164
g6
I0
sg7
F0.0077860355377197266
sg8
I2
sg9
F0.0004019737243652344
sasg12
I2
ssI43
(dp165
g2
I0
sg3
(lp166
sg12
I1
ssI44
(dp167
g2
I2
sg3
(lp168
(dp169
g6
I1
sg7
F1.1333861351013184
sg8
I5
sg9
F0.02931690216064453
sa(dp170
g6
I1
sg7
F0.019566059112548828
sg8
I3
sg9
F0.0873558521270752
sasg12
I5
ssI45
(dp171
g2
I2
sg3
(lp172
(dp173
g6
I1
sg7
F0.06500697135925293
sg8
I5
sg9
F0.0017189979553222656
sa(dp174
g6
I0
sg7
F0.0011980533599853516
sg8
I2
sg9
F0.0004260540008544922
sasg12
I5
ssI46
(dp175
g2
I0
sg3
(lp176
sg12
I1
ssI47
(dp177
g2
I0
sg3
(lp178
sg12
I1
ssI48
(dp179
g2
I1
sg3
(lp180
(dp181
g6
I0
sg7
F0.06428813934326172
sg8
I2
sg9
F0.0012629032135009766
sasg12
I2
ssI49
(dp182
g2
I3
sg3
(lp183
(dp184
g6
I1
sg7
F0.16482210159301758
sg8
I5
sg9
F0.0023338794708251953
sa(dp185
g6
I1
sg7
F0.06581974029541016
sg8
I3
sg9
F0.00025963783264160156
sa(dp186
g6
I0
sg7
F0.0015039443969726562
sg8
I2
sg9
F7.200241088867188e-05
sasg12
I5
ssI50
(dp187
g2
I1
sg3
(lp188
(dp189
g6
I3
sg7
F0.41574907302856445
sg8
I5
sg9
F0.0019867420196533203
sasg12
I5
ssI51
(dp190
g2
I0
sg3
(lp191
sg12
I1
ssI52
(dp192
g2
I0
sg3
(lp193
sg12
I1
ssI53
(dp194
g2
I0
sg3
(lp195
sg12
I1
ssI55
(dp196
g2
I1
sg3
(lp197
(dp198
g6
I0
sg7
F22.772881984710693
sg8
I2
sg9
F0.012479782104492188
sasg12
I2
ssI56
(dp199
g2
I0
sg3
(lp200
sg12
I1
ssI57
(dp201
g2
I2
sg3
(lp202
(dp203
g6
I1
sg7
F11.389360904693604
sg8
I3
sg9
F1.372696876525879
sa(dp204
g6
I0
sg7
F0.4201500415802002
sg8
I2
sg9
F0.262559175491333
sasg12
I3
ssI108
(dp205
g2
I0
sg3
(lp206
sg12
I1
ssI109
(dp207
g2
I0
sg3
(lp208
sg12
I1
ssI116
(dp209
g2
I2
sg3
(lp210
(dp211
g6
I17
sg7
F3.6032772064208984
sg8
I21
sg9
F0.16429781913757324
sa(dp212
g6
I0
sg7
F0.003515005111694336
sg8
I2
sg9
F0.0012271404266357422
sasg12
I21
ssI117
(dp213
g2
I1
sg3
(lp214
(dp215
g6
I3
sg7
F0.014980792999267578
sg8
I5
sg9
F0.0015611648559570312
sasg12
I5
ssI118
(dp216
g2
I0
sg3
(lp217
sg12
I1
ssI122
(dp218
g2
I0
sg3
(lp219
sg12
I1
ss.