(dp0
I1
(dp1
S'iters'
p2
I3
sS'meta'
p3
(lp4
(dp5
S'objective'
p6
I9
sS'query_time'
p7
F16.456379890441895
sS'comp_time'
p8
F0.0002281665802001953
sS'exec_cq'
p9
I1
sS'total_cq'
p10
I6
sa(dp11
g6
I7
sg7
F31.871154069900513
sg8
F0.00028896331787109375
sg9
I2
sg10
I5
sa(dp12
g6
I5
sg7
F0.5216560363769531
sg8
F0.0004730224609375
sg9
I2
sg10
I4
sasS'total_cqs'
p13
I6
ssI2
(dp14
S'iters'
p15
I1
sS'meta'
p16
(lp17
(dp18
S'objective'
p19
I15
sS'query_time'
p20
F0.6874570846557617
sS'comp_time'
p21
F7.104873657226562e-05
sS'exec_cq'
p22
I4
sS'total_cq'
p23
I6
sasS'total_cqs'
p24
I6
ssI3
(dp25
S'iters'
p26
I15
sS'meta'
p27
(lp28
(dp29
S'objective'
p30
I439
sS'query_time'
p31
F0.02769303321838379
sS'comp_time'
p32
F0.00012302398681640625
sS'exec_cq'
p33
I1
sS'total_cq'
p34
I33
sa(dp35
g30
I380
sg31
F0.030293941497802734
sg32
F0.0001220703125
sg33
I1
sg34
I30
sa(dp36
g30
I318
sg31
F0.13865995407104492
sg32
F0.00011706352233886719
sg33
I1
sg34
I27
sa(dp37
g30
I267
sg31
F0.015523910522460938
sg32
F8.58306884765625e-05
sg33
I1
sg34
I25
sa(dp38
g30
I267
sg31
F0.004213094711303711
sg32
F7.700920104980469e-05
sg33
I1
sg34
I23
sa(dp39
g30
I221
sg31
F0.013947010040283203
sg32
F0.00010180473327636719
sg33
I1
sg34
I22
sa(dp40
g30
I208
sg31
F0.21269512176513672
sg32
F9.417533874511719e-05
sg33
I1
sg34
I20
sa(dp41
g30
I185
sg31
F0.04193115234375
sg32
F7.414817810058594e-05
sg33
I1
sg34
I19
sa(dp42
g30
I163
sg31
F0.006033897399902344
sg32
F5.984306335449219e-05
sg33
I1
sg34
I18
sa(dp43
g30
I134
sg31
F1.751521110534668
sg32
F9.083747863769531e-05
sg33
I2
sg34
I17
sa(dp44
g30
I80
sg31
F0.788689136505127
sg32
F0.00010013580322265625
sg33
I2
sg34
I14
sa(dp45
g30
I86
sg31
F0.0017387866973876953
sg32
F6.198883056640625e-05
sg33
I2
sg34
I11
sa(dp46
g30
I73
sg31
F3.2810099124908447
sg32
F0.00011587142944335938
sg33
I2
sg34
I10
sa(dp47
g30
I62
sg31
F0.006333827972412109
sg32
F6.198883056640625e-05
sg33
I3
sg34
I9
sa(dp48
g30
I55
sg31
F0.1894211769104004
sg32
F7.200241088867188e-05
sg33
I3
sg34
I8
sasS'total_cqs'
p49
I33
ssI4
(dp50
S'iters'
p51
I0
sS'meta'
p52
(lp53
sS'total_cqs'
p54
I1
ssI5
(dp55
S'iters'
p56
I0
sS'meta'
p57
(lp58
sS'total_cqs'
p59
I1
ssI6
(dp60
S'iters'
p61
I3
sS'meta'
p62
(lp63
(dp64
S'objective'
p65
I3
sS'query_time'
p66
F4.061000108718872
sS'comp_time'
p67
F0.00010967254638671875
sS'exec_cq'
p68
I1
sS'total_cq'
p69
I5
sa(dp70
g65
I4
sg66
F0.7329049110412598
sg67
F9.989738464355469e-05
sg68
I1
sg69
I3
sa(dp71
g65
I1
sg66
F33.77762508392334
sg67
F0.00013899803161621094
sg68
I1
sg69
I2
sasS'total_cqs'
p72
I5
ssI7
(dp73
S'iters'
p74
I0
sS'meta'
p75
(lp76
sS'total_cqs'
p77
I1
ssI8
(dp78
S'iters'
p79
I5
sS'meta'
p80
(lp81
(dp82
S'objective'
p83
I17
sS'query_time'
p84
F62.54674506187439
sS'comp_time'
p85
F0.0001537799835205078
sS'exec_cq'
p86
I4
sS'total_cq'
p87
I6
sa(dp88
g83
I7
sg84
F21.043086051940918
sg85
F0.00012993812561035156
sg86
I4
sg87
I5
sa(dp89
g83
I3
sg84
F0.9525339603424072
sg85
F0.00014901161193847656
sg86
I3
sg87
I4
sa(dp90
g83
I0
sg84
F21.655030965805054
sg85
F9.202957153320312e-05
sg86
I3
sg87
I3
sa(dp91
g83
I2
sg84
F0.04345297813415527
sg85
F0.00015091896057128906
sg86
I2
sg87
I2
sasS'total_cqs'
p92
I6
ssI9
(dp93
S'iters'
p94
I4
sS'meta'
p95
(lp96
(dp97
S'objective'
p98
I9
sS'query_time'
p99
F1.6790010929107666
sS'comp_time'
p100
F7.987022399902344e-05
sS'exec_cq'
p101
I1
sS'total_cq'
p102
I6
sa(dp103
g98
I7
sg99
F38.66557192802429
sg100
F0.0002281665802001953
sg101
I2
sg102
I5
sa(dp104
g98
I3
sg99
F2.186289072036743
sg100
F0.00013184547424316406
sg101
I2
sg102
I4
sa(dp105
g98
I2
sg99
F4.562817096710205
sg100
F9.298324584960938e-05
sg101
I1
sg102
I2
sasS'total_cqs'
p106
I6
ssI10
(dp107
S'iters'
p108
I0
sS'meta'
p109
(lp110
sS'total_cqs'
p111
I1
ssI11
(dp112
S'iters'
p113
I0
sS'meta'
p114
(lp115
sS'total_cqs'
p116
I1
ssI12
(dp117
S'iters'
p118
I0
sS'meta'
p119
(lp120
sS'total_cqs'
p121
I1
ssI13
(dp122
S'iters'
p123
I2
sS'meta'
p124
(lp125
(dp126
S'objective'
p127
I26
sS'query_time'
p128
F8.908052921295166
sS'comp_time'
p129
F0.00011086463928222656
sS'exec_cq'
p130
I4
sS'total_cq'
p131
I8
sa(dp132
g127
I25
sg128
F0.003748178482055664
sg129
F4.57763671875e-05
sg130
I5
sg131
I7
sasS'total_cqs'
p133
I8
ssI14
(dp134
S'iters'
p135
I2
sS'meta'
p136
(lp137
(dp138
S'objective'
p139
I5
sS'query_time'
p140
F0.2383110523223877
sS'comp_time'
p141
F9.012222290039062e-05
sS'exec_cq'
p142
I1
sS'total_cq'
p143
I5
sa(dp144
g139
I4
sg140
F0.9922349452972412
sg141
F7.486343383789062e-05
sg142
I2
sg143
I4
sasS'total_cqs'
p145
I5
ssI16
(dp146
S'iters'
p147
I2
sS'meta'
p148
(lp149
(dp150
S'objective'
p151
I5
sS'query_time'
p152
F1.19722318649292
sS'comp_time'
p153
F9.989738464355469e-05
sS'exec_cq'
p154
I2
sS'total_cq'
p155
I5
sa(dp156
g151
I4
sg152
F0.06317520141601562
sg153
F6.103515625e-05
sg154
I2
sg155
I3
sasS'total_cqs'
p157
I5
ssI17
(dp158
S'iters'
p159
I0
sS'meta'
p160
(lp161
sS'total_cqs'
p162
I1
ssI18
(dp163
S'iters'
p164
I3
sS'meta'
p165
(lp166
(dp167
S'objective'
p168
I1
sS'query_time'
p169
F0.5945730209350586
sS'comp_time'
p170
F0.00011205673217773438
sS'exec_cq'
p171
I1
sS'total_cq'
p172
I5
sa(dp173
g168
I0
sg169
F0.08026599884033203
sg170
F7.510185241699219e-05
sg171
I1
sg172
I3
sa(dp174
g168
I2
sg169
F0.028460025787353516
sg170
F6.914138793945312e-05
sg171
I1
sg172
I2
sasS'total_cqs'
p175
I5
ssI19
(dp176
S'iters'
p177
I0
sS'meta'
p178
(lp179
sS'total_cqs'
p180
I1
ssI20
(dp181
S'iters'
p182
I5
sS'meta'
p183
(lp184
(dp185
S'objective'
p186
I34
sS'query_time'
p187
F0.028504133224487305
sS'comp_time'
p188
F8.893013000488281e-05
sS'exec_cq'
p189
I1
sS'total_cq'
p190
I12
sa(dp191
g186
I22
sg187
F8.082542896270752
sg188
F0.00016498565673828125
sg189
I1
sg190
I10
sa(dp192
g186
I19
sg187
F0.011719942092895508
sg188
F7.009506225585938e-05
sg189
I1
sg190
I8
sa(dp193
g186
I13
sg187
F4.746190071105957
sg188
F0.00010204315185546875
sg189
I1
sg190
I6
sa(dp194
g186
I13
sg187
F0.1019279956817627
sg188
F7.295608520507812e-05
sg189
I3
sg190
I5
sasS'total_cqs'
p195
I12
ssI21
(dp196
S'iters'
p197
I6
sS'meta'
p198
(lp199
(dp200
S'objective'
p201
I77
sS'query_time'
p202
F0.33618998527526855
sS'comp_time'
p203
F9.083747863769531e-05
sS'exec_cq'
p204
I1
sS'total_cq'
p205
I14
sa(dp206
g201
I59
sg202
F2.413712978363037
sg203
F0.00010204315185546875
sg204
I1
sg205
I13
sa(dp207
g201
I39
sg202
F20.106406927108765
sg203
F0.00012111663818359375
sg204
I2
sg205
I11
sa(dp208
g201
I25
sg202
F0.08426213264465332
sg203
F7.605552673339844e-05
sg204
I2
sg205
I9
sa(dp209
g201
I7
sg202
F20.509644031524658
sg203
F7.414817810058594e-05
sg204
I3
sg205
I7
sa(dp210
g201
I14
sg202
F0.01563096046447754
sg203
F8.320808410644531e-05
sg204
I2
sg205
I5
sasS'total_cqs'
p211
I14
ssI22
(dp212
S'iters'
p213
I1
sS'meta'
p214
(lp215
(dp216
S'objective'
p217
I1
sS'query_time'
p218
F0.009172916412353516
sS'comp_time'
p219
F5.817413330078125e-05
sS'exec_cq'
p220
I1
sS'total_cq'
p221
I2
sasS'total_cqs'
p222
I2
ssI23
(dp223
S'iters'
p224
I0
sS'meta'
p225
(lp226
sS'total_cqs'
p227
I1
ssI24
(dp228
S'iters'
p229
I0
sS'meta'
p230
(lp231
sS'total_cqs'
p232
I1
ssI25
(dp233
S'iters'
p234
I4
sS'meta'
p235
(lp236
(dp237
S'objective'
p238
I12
sS'query_time'
p239
F4.693188905715942
sS'comp_time'
p240
F8.20159912109375e-05
sS'exec_cq'
p241
I1
sS'total_cq'
p242
I7
sa(dp243
g238
I8
sg239
F9.682561874389648
sg240
F0.00022721290588378906
sg241
I1
sg242
I5
sa(dp244
g238
I6
sg239
F32.95839285850525
sg240
F0.0007340908050537109
sg241
I2
sg242
I4
sa(dp245
g238
I4
sg239
F0.17923808097839355
sg240
F6.389617919921875e-05
sg241
I2
sg242
I3
sasS'total_cqs'
p246
I7
ssI26
(dp247
S'iters'
p248
I7
sS'meta'
p249
(lp250
(dp251
S'objective'
p252
I65
sS'query_time'
p253
F0.07755208015441895
sS'comp_time'
p254
F8.511543273925781e-05
sS'exec_cq'
p255
I1
sS'total_cq'
p256
I13
sa(dp257
g252
I54
sg253
F0.03265690803527832
sg254
F8.893013000488281e-05
sg255
I1
sg256
I12
sa(dp258
g252
I30
sg253
F2.5150721073150635
sg254
F0.00012302398681640625
sg255
I1
sg256
I11
sa(dp259
g252
I10
sg253
F1.6632108688354492
sg254
F8.821487426757812e-05
sg255
I1
sg256
I9
sa(dp260
g252
I13
sg253
F0.03984999656677246
sg254
F7.104873657226562e-05
sg255
I1
sg256
I7
sa(dp261
g252
I9
sg253
F19.014075994491577
sg254
F0.00044608116149902344
sg255
I1
sg256
I6
sa(dp262
g252
I5
sg253
F0.004914999008178711
sg254
F5.4836273193359375e-05
sg255
I1
sg256
I5
sasS'total_cqs'
p263
I13
ssI27
(dp264
S'iters'
p265
I1
sS'meta'
p266
(lp267
(dp268
S'objective'
p269
I1
sS'query_time'
p270
F0.1394481658935547
sS'comp_time'
p271
F7.104873657226562e-05
sS'exec_cq'
p272
I1
sS'total_cq'
p273
I2
sasS'total_cqs'
p274
I2
ssI28
(dp275
S'iters'
p276
I7
sS'meta'
p277
(lp278
(dp279
S'objective'
p280
I77
sS'query_time'
p281
F2.504034996032715
sS'comp_time'
p282
F0.00010895729064941406
sS'exec_cq'
p283
I1
sS'total_cq'
p284
I14
sa(dp285
g280
I11
sg281
F1.1003470420837402
sg282
F9.083747863769531e-05
sg283
I1
sg284
I13
sa(dp286
g280
I27
sg281
F0.869783878326416
sg282
F8.416175842285156e-05
sg283
I1
sg284
I9
sa(dp287
g280
I17
sg281
F0.6711440086364746
sg282
F8.416175842285156e-05
sg283
I1
sg284
I8
sa(dp288
g280
I14
sg281
F0.5734109878540039
sg282
F8.320808410644531e-05
sg283
I1
sg284
I7
sa(dp289
g280
I9
sg281
F0.5418910980224609
sg282
F8.797645568847656e-05
sg283
I1
sg284
I6
sa(dp290
g280
I5
sg281
F0.34439897537231445
sg282
F0.00012087821960449219
sg283
I1
sg284
I5
sasS'total_cqs'
p291
I14
ssI29
(dp292
S'iters'
p293
I1
sS'meta'
p294
(lp295
(dp296
S'objective'
p297
I1
sS'query_time'
p298
F0.012926816940307617
sS'comp_time'
p299
F0.00011515617370605469
sS'exec_cq'
p300
I1
sS'total_cq'
p301
I2
sasS'total_cqs'
p302
I2
ssI30
(dp303
S'iters'
p304
I1
sS'meta'
p305
(lp306
(dp307
S'objective'
p308
I1
sS'query_time'
p309
F0.38431596755981445
sS'comp_time'
p310
F7.295608520507812e-05
sS'exec_cq'
p311
I1
sS'total_cq'
p312
I2
sasS'total_cqs'
p313
I2
ssI31
(dp314
S'iters'
p315
I6
sS'meta'
p316
(lp317
(dp318
S'objective'
p319
I27
sS'query_time'
p320
F4.569678068161011
sS'comp_time'
p321
F8.821487426757812e-05
sS'exec_cq'
p322
I1
sS'total_cq'
p323
I9
sa(dp324
g319
I20
sg320
F0.0065310001373291016
sg321
F5.91278076171875e-05
sg322
I1
sg323
I8
sa(dp325
g319
I10
sg320
F1.085024118423462
sg321
F7.390975952148438e-05
sg322
I1
sg323
I7
sa(dp326
g319
I3
sg320
F0.39534497261047363
sg321
F0.00011396408081054688
sg322
I1
sg323
I5
sa(dp327
g319
I6
sg320
F0.43272900581359863
sg321
F9.274482727050781e-05
sg322
I1
sg323
I3
sa(dp328
g319
I1
sg320
F0.09273600578308105
sg321
F0.00011420249938964844
sg322
I1
sg323
I2
sasS'total_cqs'
p329
I9
ssI32
(dp330
S'iters'
p331
I4
sS'meta'
p332
(lp333
(dp334
S'objective'
p335
I4
sS'query_time'
p336
F1.8655800819396973
sS'comp_time'
p337
F9.202957153320312e-05
sS'exec_cq'
p338
I1
sS'total_cq'
p339
I7
sa(dp340
g335
I4
sg336
F1.9652049541473389
sg337
F0.0004107952117919922
sg338
I1
sg339
I5
sa(dp341
g335
I2
sg336
F6.797430038452148
sg337
F0.00013899803161621094
sg338
I1
sg339
I4
sa(dp342
g335
I0
sg336
F0.09299397468566895
sg337
F6.985664367675781e-05
sg338
I1
sg339
I3
sasS'total_cqs'
p343
I7
ssI33
(dp344
S'iters'
p345
I1
sS'meta'
p346
(lp347
(dp348
S'objective'
p349
I1
sS'query_time'
p350
F0.025368928909301758
sS'comp_time'
p351
F7.796287536621094e-05
sS'exec_cq'
p352
I1
sS'total_cq'
p353
I2
sasS'total_cqs'
p354
I2
ssI34
(dp355
S'iters'
p356
I0
sS'meta'
p357
(lp358
sS'total_cqs'
p359
I1
ssI35
(dp360
S'iters'
p361
I3
sS'meta'
p362
(lp363
(dp364
S'objective'
p365
I3
sS'query_time'
p366
F2.2210700511932373
sS'comp_time'
p367
F0.00022411346435546875
sS'exec_cq'
p368
I1
sS'total_cq'
p369
I5
sa(dp370
g365
I1
sg366
F5.844260931015015
sg367
F9.489059448242188e-05
sg368
I1
sg369
I3
sa(dp371
g365
I1
sg366
F6.9681620597839355
sg367
F9.393692016601562e-05
sg368
I1
sg369
I2
sasS'total_cqs'
p372
I5
ssI37
(dp373
S'iters'
p374
I7
sS'meta'
p375
(lp376
(dp377
S'objective'
p378
I35
sS'query_time'
p379
F0.6108920574188232
sS'comp_time'
p380
F7.700920104980469e-05
sS'exec_cq'
p381
I1
sS'total_cq'
p382
I10
sa(dp383
g378
I27
sg379
F0.7592949867248535
sg380
F8.392333984375e-05
sg381
I1
sg382
I9
sa(dp384
g378
I20
sg379
F0.6938269138336182
sg380
F0.0006711483001708984
sg381
I1
sg382
I8
sa(dp385
g378
I14
sg379
F0.005522012710571289
sg380
F6.198883056640625e-05
sg381
I1
sg382
I7
sa(dp386
g378
I9
sg379
F0.32395410537719727
sg380
F7.796287536621094e-05
sg381
I1
sg382
I6
sa(dp387
g378
I5
sg379
F0.0034439563751220703
sg380
F4.982948303222656e-05
sg381
I1
sg382
I5
sa(dp388
g378
I2
sg379
F0.27609920501708984
sg380
F0.00010800361633300781
sg381
I1
sg382
I4
sasS'total_cqs'
p389
I10
ssI38
(dp390
S'iters'
p391
I0
sS'meta'
p392
(lp393
sS'total_cqs'
p394
I1
ssI39
(dp395
S'iters'
p396
I0
sS'meta'
p397
(lp398
sS'total_cqs'
p399
I1
ssI40
(dp400
S'iters'
p401
I1
sS'meta'
p402
(lp403
(dp404
S'objective'
p405
I1
sS'query_time'
p406
F17.682676076889038
sS'comp_time'
p407
F0.00022792816162109375
sS'exec_cq'
p408
I2
sS'total_cq'
p409
I2
sasS'total_cqs'
p410
I2
ssI41
(dp411
S'iters'
p412
I4
sS'meta'
p413
(lp414
(dp415
S'objective'
p416
I9
sS'query_time'
p417
F1.5559289455413818
sS'comp_time'
p418
F8.487701416015625e-05
sS'exec_cq'
p419
I1
sS'total_cq'
p420
I6
sa(dp421
g416
I5
sg417
F0.3562138080596924
sg418
F6.413459777832031e-05
sg419
I1
sg420
I5
sa(dp422
g416
I2
sg417
F1.9446799755096436
sg418
F0.00033783912658691406
sg419
I1
sg420
I4
sa(dp423
g416
I2
sg417
F0.09185504913330078
sg418
F9.202957153320312e-05
sg419
I1
sg420
I2
sasS'total_cqs'
p424
I6
ssI42
(dp425
S'iters'
p426
I1
sS'meta'
p427
(lp428
(dp429
S'objective'
p430
I1
sS'query_time'
p431
F0.010113954544067383
sS'comp_time'
p432
F7.796287536621094e-05
sS'exec_cq'
p433
I1
sS'total_cq'
p434
I2
sasS'total_cqs'
p435
I2
ssI43
(dp436
S'iters'
p437
I0
sS'meta'
p438
(lp439
sS'total_cqs'
p440
I1
ssI44
(dp441
S'iters'
p442
I3
sS'meta'
p443
(lp444
(dp445
S'objective'
p446
I5
sS'query_time'
p447
F1.2432470321655273
sS'comp_time'
p448
F7.390975952148438e-05
sS'exec_cq'
p449
I1
sS'total_cq'
p450
I5
sa(dp451
g446
I2
sg447
F0.010404825210571289
sg448
F5.7220458984375e-05
sg449
I1
sg450
I4
sa(dp452
g446
I0
sg447
F0.0036520957946777344
sg448
F4.506111145019531e-05
sg449
I1
sg450
I3
sasS'total_cqs'
p453
I5
ssI45
(dp454
S'iters'
p455
I2
sS'meta'
p456
(lp457
(dp458
S'objective'
p459
I7
sS'query_time'
p460
F0.049781084060668945
sS'comp_time'
p461
F0.00010418891906738281
sS'exec_cq'
p462
I3
sS'total_cq'
p463
I5
sa(dp464
g459
I2
sg460
F0.7569749355316162
sg461
F8.702278137207031e-05
sg462
I2
sg463
I2
sasS'total_cqs'
p465
I5
ssI46
(dp466
S'iters'
p467
I0
sS'meta'
p468
(lp469
sS'total_cqs'
p470
I1
ssI47
(dp471
S'iters'
p472
I0
sS'meta'
p473
(lp474
sS'total_cqs'
p475
I1
ssI48
(dp476
S'iters'
p477
I1
sS'meta'
p478
(lp479
(dp480
S'objective'
p481
I1
sS'query_time'
p482
F0.1641380786895752
sS'comp_time'
p483
F0.00010800361633300781
sS'exec_cq'
p484
I1
sS'total_cq'
p485
I2
sasS'total_cqs'
p486
I2
ssI49
(dp487
S'iters'
p488
I3
sS'meta'
p489
(lp490
(dp491
S'objective'
p492
I5
sS'query_time'
p493
F5.410964012145996
sS'comp_time'
p494
F0.00011181831359863281
sS'exec_cq'
p495
I1
sS'total_cq'
p496
I5
sa(dp497
g492
I2
sg493
F0.0338289737701416
sg494
F9.202957153320312e-05
sg495
I2
sg496
I4
sa(dp498
g492
I2
sg493
F0.07641100883483887
sg494
F0.00010395050048828125
sg495
I1
sg496
I2
sasS'total_cqs'
p499
I5
ssI50
(dp500
S'iters'
p501
I3
sS'meta'
p502
(lp503
(dp504
S'objective'
p505
I5
sS'query_time'
p506
F0.008741140365600586
sS'comp_time'
p507
F7.390975952148438e-05
sS'exec_cq'
p508
I1
sS'total_cq'
p509
I5
sa(dp510
g505
I2
sg506
F0.004435062408447266
sg507
F8.20159912109375e-05
sg508
I1
sg509
I4
sa(dp511
g505
I0
sg506
F0.9803750514984131
sg507
F8.606910705566406e-05
sg508
I1
sg509
I3
sasS'total_cqs'
p512
I5
ssI51
(dp513
S'iters'
p514
I0
sS'meta'
p515
(lp516
sS'total_cqs'
p517
I1
ssI52
(dp518
S'iters'
p519
I0
sS'meta'
p520
(lp521
sS'total_cqs'
p522
I1
ssI53
(dp523
S'iters'
p524
I0
sS'meta'
p525
(lp526
sS'total_cqs'
p527
I1
ssI55
(dp528
S'iters'
p529
I1
sS'meta'
p530
(lp531
(dp532
S'objective'
p533
I1
sS'query_time'
p534
F28.82831311225891
sS'comp_time'
p535
F0.0001659393310546875
sS'exec_cq'
p536
I1
sS'total_cq'
p537
I2
sasS'total_cqs'
p538
I2
ssI56
(dp539
S'iters'
p540
I0
sS'meta'
p541
(lp542
sS'total_cqs'
p543
I1
ssI57
(dp544
S'iters'
p545
I1
sS'meta'
p546
(lp547
(dp548
S'objective'
p549
I2
sS'query_time'
p550
F11.962805986404419
sS'comp_time'
p551
F7.987022399902344e-05
sS'exec_cq'
p552
I2
sS'total_cq'
p553
I3
sasS'total_cqs'
p554
I3
ssI108
(dp555
S'iters'
p556
I0
sS'meta'
p557
(lp558
sS'total_cqs'
p559
I1
ssI109
(dp560
S'iters'
p561
I0
sS'meta'
p562
(lp563
sS'total_cqs'
p564
I1
ssI116
(dp565
S'iters'
p566
I4
sS'meta'
p567
(lp568
(dp569
S'objective'
p570
I197
sS'query_time'
p571
F3.9733691215515137
sS'comp_time'
p572
F0.000244140625
sS'exec_cq'
p573
I5
sS'total_cq'
p574
I21
sa(dp575
g570
I184
sg571
F0.934899091720581
sg572
F0.00010204315185546875
sg573
I6
sg574
I20
sa(dp576
g570
I159
sg571
F1.118649959564209
sg572
F9.393692016601562e-05
sg573
I7
sg574
I19
sa(dp577
g570
I6
sg571
F0.08991289138793945
sg572
F9.799003601074219e-05
sg573
I1
sg574
I2
sasS'total_cqs'
p578
I21
ssI117
(dp579
S'iters'
p580
I2
sS'meta'
p581
(lp582
(dp583
S'objective'
p584
I5
sS'query_time'
p585
F0.006450176239013672
sS'comp_time'
p586
F6.890296936035156e-05
sS'exec_cq'
p587
I1
sS'total_cq'
p588
I5
sa(dp589
g584
I4
sg585
F0.0040509700775146484
sg586
F5.793571472167969e-05
sg587
I2
sg588
I4
sasS'total_cqs'
p590
I5
ssI118
(dp591
S'iters'
p592
I0
sS'meta'
p593
(lp594
sS'total_cqs'
p595
I1
ssI122
(dp596
S'iters'
p597
I0
sS'meta'
p598
(lp599
sS'total_cqs'
p600
I1
ss.