(dp0
I1
(dp1
S'iters'
p2
I2
sS'meta'
p3
(lp4
(dp5
S'objective'
p6
I2
sS'query_time'
p7
F15.53444790840149
sS'comp_time'
p8
F0.6850500106811523
sS'exec_cq'
p9
I3
sS'total_cq'
p10
I6
sa(dp11
g6
I0
sg7
F0.15961623191833496
sg8
F0.6632382869720459
sg9
I2
sg10
I2
sasS'total_cqs'
p12
I6
ssI2
(dp13
S'iters'
p14
I1
sS'meta'
p15
(lp16
(dp17
S'objective'
p18
I4
sS'query_time'
p19
F1.0787749290466309
sS'comp_time'
p20
F0.26371288299560547
sS'exec_cq'
p21
I5
sS'total_cq'
p22
I6
sasS'total_cqs'
p23
I6
ssI3
(dp24
S'iters'
p25
I14
sS'meta'
p26
(lp27
(dp28
S'objective'
p29
I27
sS'query_time'
p30
F25.40463399887085
sS'comp_time'
p31
F0.36472463607788086
sS'exec_cq'
p32
I15
sS'total_cq'
p33
I33
sa(dp34
g29
I24
sg30
F0.3726499080657959
sg31
F0.020437002182006836
sg32
I13
sg33
I30
sa(dp35
g29
I21
sg30
F0.028753995895385742
sg31
F0.33975696563720703
sg32
I12
sg33
I27
sa(dp36
g29
I18
sg30
F0.0038139820098876953
sg31
F0.02065110206604004
sg32
I10
sg33
I24
sa(dp37
g29
I15
sg30
F0.011044979095458984
sg31
F0.14255237579345703
sg32
I9
sg33
I21
sa(dp38
g29
I12
sg30
F0.0026328563690185547
sg31
F0.015491962432861328
sg32
I7
sg33
I18
sa(dp39
g29
I9
sg30
F0.00831913948059082
sg31
F0.11551594734191895
sg32
I6
sg33
I15
sa(dp40
g29
I10
sg30
F0.18784117698669434
sg31
F0.018720149993896484
sg32
I5
sg33
I12
sa(dp41
g29
I9
sg30
F0.0006248950958251953
sg31
F0.0033600330352783203
sg32
I4
sg33
I11
sa(dp42
g29
I6
sg30
F0.0025358200073242188
sg31
F0.01541900634765625
sg32
I4
sg33
I10
sa(dp43
g29
I6
sg30
F5.91278076171875e-05
sg31
F0.00040912628173828125
sg32
I3
sg33
I8
sa(dp44
g29
I5
sg30
F0.00019598007202148438
sg31
F0.0011413097381591797
sg32
I3
sg33
I7
sa(dp45
g29
I4
sg30
F1.5974044799804688e-05
sg31
F0.000102996826171875
sg32
I2
sg33
I6
sa(dp46
g29
I3
sg30
F0.002437114715576172
sg31
F0.015231132507324219
sg32
I2
sg33
I5
sasS'total_cqs'
p47
I33
ssI6
(dp48
S'iters'
p49
I2
sS'meta'
p50
(lp51
(dp52
S'objective'
p53
I1
sS'query_time'
p54
F14.99167013168335
sS'comp_time'
p55
F0.018201112747192383
sS'exec_cq'
p56
I4
sS'total_cq'
p57
I5
sa(dp58
g53
I0
sg54
F7.700920104980469e-05
sg55
F0.0004937648773193359
sg56
I1
sg57
I2
sasS'total_cqs'
p59
I5
ssI8
(dp60
S'iters'
p61
I3
sS'meta'
p62
(lp63
(dp64
S'objective'
p65
I4
sS'query_time'
p66
F22.982107877731323
sS'comp_time'
p67
F0.3369314670562744
sS'exec_cq'
p68
I5
sS'total_cq'
p69
I6
sa(dp70
g65
I3
sg66
F41.7226779460907
sg67
F41.56152415275574
sg68
I4
sg69
I5
sa(dp71
g65
I2
sg66
F0.08654427528381348
sg67
F0.0698997974395752
sg68
I3
sg69
I4
sasS'total_cqs'
p72
I6
ssI9
(dp73
S'iters'
p74
I3
sS'meta'
p75
(lp76
(dp77
S'objective'
p78
I0
sS'query_time'
p79
F10.670655012130737
sS'comp_time'
p80
F0.45728421211242676
sS'exec_cq'
p81
I3
sS'total_cq'
p82
I6
sa(dp83
g78
I1
sg79
F0.042762041091918945
sg80
F0.479158878326416
sg81
I3
sg82
I3
sa(dp84
g78
I0
sg79
F0.010667085647583008
sg80
F0.048844337463378906
sg81
I2
sg82
I2
sasS'total_cqs'
p85
I6
ssI13
(dp86
S'iters'
p87
I2
sS'meta'
p88
(lp89
(dp90
S'objective'
p91
I6
sS'query_time'
p92
F0.016386032104492188
sS'comp_time'
p93
F0.008081912994384766
sS'exec_cq'
p94
I6
sS'total_cq'
p95
I8
sa(dp96
g91
I5
sg92
F2.2172927856445312e-05
sg93
F0.00010275840759277344
sg94
I5
sg95
I7
sasS'total_cqs'
p97
I8
ssI14
(dp98
S'iters'
p99
I1
sS'meta'
p100
(lp101
(dp102
S'objective'
p103
I3
sS'query_time'
p104
F1.008141040802002
sS'comp_time'
p105
F0.006712913513183594
sS'exec_cq'
p106
I5
sS'total_cq'
p107
I5
sasS'total_cqs'
p108
I5
ssI16
(dp109
S'iters'
p110
I3
sS'meta'
p111
(lp112
(dp113
S'objective'
p114
I1
sS'query_time'
p115
F1.582460880279541
sS'comp_time'
p116
F0.011598825454711914
sS'exec_cq'
p117
I4
sS'total_cq'
p118
I5
sa(dp119
g114
I1
sg115
F0.04861187934875488
sg116
F0.0005629062652587891
sg117
I1
sg118
I3
sa(dp120
g114
I0
sg115
F5.602836608886719e-05
sg116
F0.00024390220642089844
sg117
I2
sg118
I2
sasS'total_cqs'
p121
I5
ssI18
(dp122
S'iters'
p123
I3
sS'meta'
p124
(lp125
(dp126
S'objective'
p127
I1
sS'query_time'
p128
F0.20418310165405273
sS'comp_time'
p129
F0.00438690185546875
sS'exec_cq'
p130
I4
sS'total_cq'
p131
I5
sa(dp132
g127
I1
sg128
F0.04639410972595215
sg129
F0.0002694129943847656
sg130
I1
sg131
I3
sa(dp133
g127
I0
sg128
F5.1975250244140625e-05
sg129
F0.00018739700317382812
sg130
I2
sg131
I2
sasS'total_cqs'
p134
I5
ssI20
(dp135
S'iters'
p136
I6
sS'meta'
p137
(lp138
(dp139
S'objective'
p140
I8
sS'query_time'
p141
F7.055124998092651
sS'comp_time'
p142
F1.1390721797943115
sS'exec_cq'
p143
I6
sS'total_cq'
p144
I12
sa(dp145
g140
I6
sg141
F3.715045213699341
sg142
F0.573498010635376
sg143
I4
sg144
I10
sa(dp146
g140
I4
sg141
F0.19743108749389648
sg142
F1.044316053390503
sg143
I4
sg144
I8
sa(dp147
g140
I4
sg141
F2.384185791015625e-05
sg142
F0.0005199909210205078
sg143
I2
sg144
I6
sa(dp148
g140
I3
sg141
F0.17688798904418945
sg142
F0.8754775524139404
sg143
I2
sg144
I5
sa(dp149
g140
I2
sg141
F0.12366724014282227
sg142
F0.004029989242553711
sg143
I4
sg144
I4
sasS'total_cqs'
p150
I12
ssI21
(dp151
S'iters'
p152
I5
sS'meta'
p153
(lp154
(dp155
S'objective'
p156
I6
sS'query_time'
p157
F30.44410991668701
sS'comp_time'
p158
F0.3113422393798828
sS'exec_cq'
p159
I8
sS'total_cq'
p160
I14
sa(dp161
g156
I2
sg157
F30.157166004180908
sg158
F2.183577537536621
sg159
I4
sg160
I10
sa(dp162
g156
I2
sg157
F0.010277032852172852
sg158
F0.06947636604309082
sg159
I4
sg160
I6
sa(dp163
g156
I0
sg157
F0.0014069080352783203
sg158
F0.009988069534301758
sg159
I2
sg160
I4
sa(dp164
g156
I0
sg157
F0.020974159240722656
sg158
F0.0001590251922607422
sg159
I1
sg160
I2
sasS'total_cqs'
p165
I14
ssI22
(dp166
S'iters'
p167
I1
sS'meta'
p168
(lp169
(dp170
S'objective'
p171
I0
sS'query_time'
p172
F0.004034996032714844
sS'comp_time'
p173
F0.0011432170867919922
sS'exec_cq'
p174
I1
sS'total_cq'
p175
I2
sasS'total_cqs'
p176
I2
ssI25
(dp177
S'iters'
p178
I4
sS'meta'
p179
(lp180
(dp181
S'objective'
p182
I3
sS'query_time'
p183
F45.494606018066406
sS'comp_time'
p184
F4.8624489307403564
sS'exec_cq'
p185
I4
sS'total_cq'
p186
I7
sa(dp187
g182
I1
sg183
F5.344343900680542
sg184
F0.35420966148376465
sg185
I2
sg186
I5
sa(dp188
g182
I1
sg183
F0.11583995819091797
sg184
F0.16838836669921875
sg185
I2
sg186
I3
sa(dp189
g182
I0
sg183
F0.008634090423583984
sg184
F0.07381486892700195
sg185
I1
sg186
I2
sasS'total_cqs'
p190
I7
ssI26
(dp191
S'iters'
p192
I9
sS'meta'
p193
(lp194
(dp195
S'objective'
p196
I9
sS'query_time'
p197
F0.29497504234313965
sS'comp_time'
p198
F0.02799081802368164
sS'exec_cq'
p199
I4
sS'total_cq'
p200
I13
sa(dp201
g196
I9
sg197
F19.99706196784973
sg198
F4.888582229614258
sg199
I3
sg200
I11
sa(dp202
g196
I6
sg197
F0.016329050064086914
sg198
F0.00028324127197265625
sg199
I2
sg200
I10
sa(dp203
g196
I6
sg197
F0.001544952392578125
sg198
F0.008099794387817383
sg199
I2
sg200
I8
sa(dp204
g196
I5
sg197
F0.0007750988006591797
sg198
F0.0031752586364746094
sg199
I2
sg200
I7
sa(dp205
g196
I2
sg197
F3.425600051879883
sg198
F0.014525890350341797
sg199
I2
sg200
I6
sa(dp206
g196
I2
sg197
F0.00024700164794921875
sg198
F0.0014772415161132812
sg199
I1
sg200
I4
sa(dp207
g196
I1
sg197
F0.0002720355987548828
sg198
F0.00156402587890625
sg199
I1
sg200
I3
sa(dp208
g196
I0
sg197
F0.03557991981506348
sg198
F0.0017290115356445312
sg199
I1
sg200
I2
sasS'total_cqs'
p209
I13
ssI27
(dp210
S'iters'
p211
I1
sS'meta'
p212
(lp213
(dp214
S'objective'
p215
I0
sS'query_time'
p216
F0.1905829906463623
sS'comp_time'
p217
F0.00704503059387207
sS'exec_cq'
p218
I1
sS'total_cq'
p219
I2
sasS'total_cqs'
p220
I2
ssI28
(dp221
S'iters'
p222
I4
sS'meta'
p223
(lp224
(dp225
S'objective'
p226
I8
sS'query_time'
p227
F1.4597768783569336
sS'comp_time'
p228
F0.19553494453430176
sS'exec_cq'
p229
I6
sS'total_cq'
p230
I14
sa(dp231
g226
I7
sg227
F0.0033299922943115234
sg228
F0.02517104148864746
sg229
I3
sg230
I11
sa(dp232
g226
I7
sg227
F0.006175994873046875
sg228
F0.00016832351684570312
sg229
I2
sg230
I9
sa(dp233
g226
I6
sg227
F0.0024461746215820312
sg228
F0.0001327991485595703
sg229
I1
sg230
I8
sasS'total_cqs'
p234
I14
ssI29
(dp235
S'iters'
p236
I1
sS'meta'
p237
(lp238
(dp239
S'objective'
p240
I0
sS'query_time'
p241
F0.016289234161376953
sS'comp_time'
p242
F0.0045506954193115234
sS'exec_cq'
p243
I2
sS'total_cq'
p244
I2
sasS'total_cqs'
p245
I2
ssI30
(dp246
S'iters'
p247
I1
sS'meta'
p248
(lp249
(dp250
S'objective'
p251
I0
sS'query_time'
p252
F0.36946702003479004
sS'comp_time'
p253
F0.005147218704223633
sS'exec_cq'
p254
I2
sS'total_cq'
p255
I2
sasS'total_cqs'
p256
I2
ssI31
(dp257
S'iters'
p258
I4
sS'meta'
p259
(lp260
(dp261
S'objective'
p262
I5
sS'query_time'
p263
F3.9292349815368652
sS'comp_time'
p264
F0.18240904808044434
sS'exec_cq'
p265
I4
sS'total_cq'
p266
I9
sa(dp267
g262
I1
sg263
F1.3119311332702637
sg264
F0.09867644309997559
sg265
I5
sg266
I7
sa(dp268
g262
I1
sg263
F0.006497859954833984
sg264
F0.03410220146179199
sg265
I3
sg266
I3
sa(dp269
g262
I0
sg263
F0.002652883529663086
sg264
F0.01597118377685547
sg265
I2
sg266
I2
sasS'total_cqs'
p270
I9
ssI32
(dp271
S'iters'
p272
I3
sS'meta'
p273
(lp274
(dp275
S'objective'
p276
I1
sS'query_time'
p277
F17.83637499809265
sS'comp_time'
p278
F4.667133569717407
sS'exec_cq'
p279
I4
sS'total_cq'
p280
I7
sa(dp281
g276
I0
sg277
F1.1084349155426025
sg278
F0.020446062088012695
sg279
I2
sg280
I4
sa(dp282
g276
I0
sg277
F0.24083995819091797
sg278
F0.31076598167419434
sg279
I1
sg280
I2
sasS'total_cqs'
p283
I7
ssI33
(dp284
S'iters'
p285
I1
sS'meta'
p286
(lp287
(dp288
S'objective'
p289
I0
sS'query_time'
p290
F0.028895854949951172
sS'comp_time'
p291
F0.0016551017761230469
sS'exec_cq'
p292
I2
sS'total_cq'
p293
I2
sasS'total_cqs'
p294
I2
ssI35
(dp295
S'iters'
p296
I3
sS'meta'
p297
(lp298
(dp299
S'objective'
p300
I1
sS'query_time'
p301
F15.752830028533936
sS'comp_time'
p302
F0.4675290584564209
sS'exec_cq'
p303
I4
sS'total_cq'
p304
I5
sa(dp305
g300
I1
sg301
F0.250089168548584
sg302
F0.06562924385070801
sg303
I2
sg304
I3
sa(dp306
g300
I0
sg301
F0.0006051063537597656
sg302
F0.0034821033477783203
sg303
I1
sg304
I2
sasS'total_cqs'
p307
I5
ssI37
(dp308
S'iters'
p309
I2
sS'meta'
p310
(lp311
(dp312
S'objective'
p313
I6
sS'query_time'
p314
F0.7145750522613525
sS'comp_time'
p315
F0.032876014709472656
sS'exec_cq'
p316
I4
sS'total_cq'
p317
I10
sa(dp318
g313
I0
sg314
F0.003370046615600586
sg315
F0.014250755310058594
sg316
I2
sg317
I2
sasS'total_cqs'
p319
I10
ssI40
(dp320
S'iters'
p321
I1
sS'meta'
p322
(lp323
(dp324
S'objective'
p325
I0
sS'query_time'
p326
F0.009341955184936523
sS'comp_time'
p327
F0.0018739700317382812
sS'exec_cq'
p328
I1
sS'total_cq'
p329
I2
sasS'total_cqs'
p330
I2
ssI41
(dp331
S'iters'
p332
I3
sS'meta'
p333
(lp334
(dp335
S'objective'
p336
I2
sS'query_time'
p337
F10.874368906021118
sS'comp_time'
p338
F1.8730792999267578
sS'exec_cq'
p339
I3
sS'total_cq'
p340
I6
sa(dp341
g336
I0
sg337
F0.7997519969940186
sg338
F0.004306793212890625
sg339
I2
sg340
I4
sa(dp342
g336
I0
sg337
F0.0006258487701416016
sg338
F0.0038650035858154297
sg339
I2
sg340
I2
sasS'total_cqs'
p343
I6
ssI42
(dp344
S'iters'
p345
I1
sS'meta'
p346
(lp347
(dp348
S'objective'
p349
I0
sS'query_time'
p350
F0.011946916580200195
sS'comp_time'
p351
F0.002218008041381836
sS'exec_cq'
p352
I1
sS'total_cq'
p353
I2
sasS'total_cqs'
p354
I2
ssI44
(dp355
S'iters'
p356
I3
sS'meta'
p357
(lp358
(dp359
S'objective'
p360
I3
sS'query_time'
p361
F1.3563971519470215
sS'comp_time'
p362
F0.20477843284606934
sS'exec_cq'
p363
I2
sS'total_cq'
p364
I5
sa(dp365
g360
I0
sg361
F0.2088148593902588
sg362
F0.0014576911926269531
sg363
I2
sg364
I4
sa(dp366
g360
I0
sg361
F7.605552673339844e-05
sg362
F0.00035881996154785156
sg363
I1
sg364
I2
sasS'total_cqs'
p367
I5
ssI45
(dp368
S'iters'
p369
I2
sS'meta'
p370
(lp371
(dp372
S'objective'
p373
I1
sS'query_time'
p374
F0.0841529369354248
sS'comp_time'
p375
F0.004014015197753906
sS'exec_cq'
p376
I3
sS'total_cq'
p377
I5
sa(dp378
g373
I0
sg374
F0.00019598007202148438
sg375
F0.00069427490234375
sg376
I2
sg377
I2
sasS'total_cqs'
p379
I5
ssI48
(dp380
S'iters'
p381
I1
sS'meta'
p382
(lp383
(dp384
S'objective'
p385
I0
sS'query_time'
p386
F0.16173481941223145
sS'comp_time'
p387
F0.008269786834716797
sS'exec_cq'
p388
I2
sS'total_cq'
p389
I2
sasS'total_cqs'
p390
I2
ssI49
(dp391
S'iters'
p392
I2
sS'meta'
p393
(lp394
(dp395
S'objective'
p396
I1
sS'query_time'
p397
F0.26207399368286133
sS'comp_time'
p398
F0.005858898162841797
sS'exec_cq'
p399
I4
sS'total_cq'
p400
I5
sa(dp401
g396
I1
sg397
F8.511543273925781e-05
sg398
F0.0005171298980712891
sg399
I2
sg400
I3
sasS'total_cqs'
p402
I5
ssI50
(dp403
S'iters'
p404
I2
sS'meta'
p405
(lp406
(dp407
S'objective'
p408
I3
sS'query_time'
p409
F0.8047080039978027
sS'comp_time'
p410
F0.14496684074401855
sS'exec_cq'
p411
I5
sS'total_cq'
p412
I5
sa(dp413
g408
I2
sg409
F0.0001270771026611328
sg410
F0.0008718967437744141
sg411
I4
sg412
I4
sasS'total_cqs'
p414
I5
ssI55
(dp415
S'iters'
p416
I1
sS'meta'
p417
(lp418
(dp419
S'objective'
p420
I0
sS'query_time'
p421
F24.849329948425293
sS'comp_time'
p422
F3.2028822898864746
sS'exec_cq'
p423
I2
sS'total_cq'
p424
I2
sasS'total_cqs'
p425
I2
ssI57
(dp426
S'iters'
p427
I1
sS'meta'
p428
(lp429
(dp430
S'objective'
p431
I1
sS'query_time'
p432
F12.827031135559082
sS'comp_time'
p433
F2.45017147064209
sS'exec_cq'
p434
I2
sS'total_cq'
p435
I3
sasS'total_cqs'
p436
I3
ssI116
(dp437
S'iters'
p438
I3
sS'meta'
p439
(lp440
(dp441
S'objective'
p442
I17
sS'query_time'
p443
F4.090135097503662
sS'comp_time'
p444
F0.5155940055847168
sS'exec_cq'
p445
I15
sS'total_cq'
p446
I21
sa(dp447
g442
I15
sg443
F0.5218348503112793
sg444
F0.004275798797607422
sg445
I14
sg446
I19
sa(dp448
g442
I0
sg443
F0.0007569789886474609
sg444
F0.003421783447265625
sg445
I2
sg446
I2
sasS'total_cqs'
p449
I21
ssI117
(dp450
S'iters'
p451
I2
sS'meta'
p452
(lp453
(dp454
S'objective'
p455
I3
sS'query_time'
p456
F0.007769107818603516
sS'comp_time'
p457
F0.001567840576171875
sS'exec_cq'
p458
I3
sS'total_cq'
p459
I5
sa(dp460
g455
I2
sg456
F0.00234222412109375
sg457
F0.00011587142944335938
sg458
I3
sg459
I4
sasS'total_cqs'
p461
I5
ss.