(dp0
I1
(dp1
S'iters'
p2
I2
sS'meta'
p3
(lp4
(dp5
S'objective'
p6
I1
sS'query_time'
p7
F24.966336011886597
sS'comp_time'
p8
F1.3165807723999023
sS'exec_cq'
p9
I6
sS'total_cq'
p10
I6
sa(dp11
g6
I2
sg7
F0.010350227355957031
sg8
F231.7379720211029
sg9
I2
sg10
I2
sasS'total_cqs'
p12
I6
ssI2
(dp13
S'iters'
p14
I1
sS'meta'
p15
(lp16
(dp17
S'objective'
p18
I13
sS'query_time'
p19
F0.9013180732727051
sS'comp_time'
p20
F0.09272503852844238
sS'exec_cq'
p21
I6
sS'total_cq'
p22
I6
sasS'total_cqs'
p23
I6
ssI3
(dp24
S'iters'
p25
I13
sS'meta'
p26
(lp27
(dp28
S'objective'
p29
I437
sS'query_time'
p30
F25.74496603012085
sS'comp_time'
p31
F0.23862409591674805
sS'exec_cq'
p32
I33
sS'total_cq'
p33
I33
sa(dp34
g29
I379
sg30
F0.030071020126342773
sg31
F0.22277283668518066
sg32
I30
sg33
I30
sa(dp35
g29
I337
sg30
F0.023936986923217773
sg31
F0.1961972713470459
sg32
I27
sg33
I27
sa(dp36
g29
I290
sg30
F0.026477813720703125
sg31
F0.15832304954528809
sg32
I25
sg33
I25
sa(dp37
g29
I243
sg30
F0.025628089904785156
sg31
F0.14964604377746582
sg32
I22
sg33
I22
sa(dp38
g29
I205
sg30
F0.023236989974975586
sg31
F0.1509239673614502
sg32
I19
sg33
I19
sa(dp39
g29
I164
sg30
F0.04457402229309082
sg31
F0.14411687850952148
sg32
I16
sg33
I16
sa(dp40
g29
I132
sg30
F0.022688865661621094
sg31
F0.139909029006958
sg32
I13
sg33
I13
sa(dp41
g29
I109
sg30
F0.007622957229614258
sg31
F0.031136751174926758
sg32
I10
sg33
I10
sa(dp42
g29
I83
sg30
F0.005825042724609375
sg31
F0.05711007118225098
sg32
I9
sg33
I9
sa(dp43
g29
I57
sg30
F0.005712985992431641
sg31
F0.027709007263183594
sg32
I8
sg33
I8
sa(dp44
g29
I32
sg30
F0.005322933197021484
sg31
F0.04836297035217285
sg32
I7
sg33
I7
sa(dp45
g29
I22
sg30
F0.0049250125885009766
sg31
F0.02594900131225586
sg32
I6
sg33
I6
sasS'total_cqs'
p46
I33
ssI6
(dp47
S'iters'
p48
I2
sS'meta'
p49
(lp50
(dp51
S'objective'
p52
I1
sS'query_time'
p53
F14.89423394203186
sS'comp_time'
p54
F0.003512144088745117
sS'exec_cq'
p55
I5
sS'total_cq'
p56
I5
sa(dp57
g52
I1
sg53
F0.0007259845733642578
sg54
F0.002778768539428711
sg55
I3
sg56
I3
sasS'total_cqs'
p58
I5
ssI8
(dp59
S'iters'
p60
I3
sS'meta'
p61
(lp62
(dp63
S'objective'
p64
I17
sS'query_time'
p65
F23.077225923538208
sS'comp_time'
p66
F0.27428698539733887
sS'exec_cq'
p67
I6
sS'total_cq'
p68
I6
sa(dp69
g64
I3
sg65
F0.19672203063964844
sg66
F0.18797016143798828
sg67
I5
sg68
I5
sa(dp70
g64
I0
sg65
F0.0035719871520996094
sg66
F0.0026340484619140625
sg67
I3
sg68
I3
sasS'total_cqs'
p71
I6
ssI9
(dp72
S'iters'
p73
I3
sS'meta'
p74
(lp75
(dp76
S'objective'
p77
I1
sS'query_time'
p78
F52.670268058776855
sS'comp_time'
p79
F4.227082014083862
sS'exec_cq'
p80
I6
sS'total_cq'
p81
I6
sa(dp82
g77
I1
sg78
F0.06508207321166992
sg79
F0.5788817405700684
sg80
I3
sg81
I3
sa(dp83
g77
I2
sg78
F0.026952028274536133
sg79
F0.2855188846588135
sg80
I2
sg81
I2
sasS'total_cqs'
p84
I6
ssI13
(dp85
S'iters'
p86
I2
sS'meta'
p87
(lp88
(dp89
S'objective'
p90
I24
sS'query_time'
p91
F0.033396005630493164
sS'comp_time'
p92
F0.00014495849609375
sS'exec_cq'
p93
I8
sS'total_cq'
p94
I8
sa(dp95
g90
I20
sg91
F3.1948089599609375e-05
sg92
F5.1975250244140625e-05
sg93
I7
sg94
I7
sasS'total_cqs'
p96
I8
ssI14
(dp97
S'iters'
p98
I2
sS'meta'
p99
(lp100
(dp101
S'objective'
p102
I5
sS'query_time'
p103
F1.211920976638794
sS'comp_time'
p104
F0.007483005523681641
sS'exec_cq'
p105
I5
sS'total_cq'
p106
I5
sa(dp107
g102
I2
sg103
F0.0005118846893310547
sg104
F0.0030829906463623047
sg105
I4
sg106
I4
sasS'total_cqs'
p108
I5
ssI16
(dp109
S'iters'
p110
I2
sS'meta'
p111
(lp112
(dp113
S'objective'
p114
I1
sS'query_time'
p115
F1.5445690155029297
sS'comp_time'
p116
F0.005321979522705078
sS'exec_cq'
p117
I5
sS'total_cq'
p118
I5
sa(dp119
g114
I0
sg115
F8.988380432128906e-05
sg116
F0.0003409385681152344
sg117
I3
sg118
I3
sasS'total_cqs'
p120
I5
ssI18
(dp121
S'iters'
p122
I2
sS'meta'
p123
(lp124
(dp125
S'objective'
p126
I1
sS'query_time'
p127
F0.3108220100402832
sS'comp_time'
p128
F0.00034499168395996094
sS'exec_cq'
p129
I5
sS'total_cq'
p130
I5
sa(dp131
g126
I0
sg127
F5.1021575927734375e-05
sg128
F0.00013208389282226562
sg129
I3
sg130
I3
sasS'total_cqs'
p132
I5
ssI20
(dp133
S'iters'
p134
I3
sS'meta'
p135
(lp136
(dp137
S'objective'
p138
I38
sS'query_time'
p139
F11.385877847671509
sS'comp_time'
p140
F1.2011821269989014
sS'exec_cq'
p141
I12
sS'total_cq'
p142
I12
sa(dp143
g138
I20
sg139
F0.18790698051452637
sg140
F0.6930339336395264
sg141
I10
sg142
I10
sa(dp144
g138
I25
sg139
F0.15745806694030762
sg140
F0.6178929805755615
sg141
I8
sg142
I8
sasS'total_cqs'
p145
I12
ssI21
(dp146
S'iters'
p147
I3
sS'meta'
p148
(lp149
(dp150
S'objective'
p151
I51
sS'query_time'
p152
F27.77807116508484
sS'comp_time'
p153
F0.22715997695922852
sS'exec_cq'
p154
I14
sS'total_cq'
p155
I14
sa(dp156
g151
I50
sg152
F0.021522045135498047
sg153
F0.14838004112243652
sg154
I12
sg155
I12
sa(dp157
g151
I2
sg152
F0.004888057708740234
sg153
F0.02110910415649414
sg154
I2
sg155
I2
sasS'total_cqs'
p158
I14
ssI22
(dp159
S'iters'
p160
I1
sS'meta'
p161
(lp162
(dp163
S'objective'
p164
I1
sS'query_time'
p165
F0.0057299137115478516
sS'comp_time'
p166
F0.0001342296600341797
sS'exec_cq'
p167
I2
sS'total_cq'
p168
I2
sasS'total_cqs'
p169
I2
ssI25
(dp170
S'iters'
p171
I3
sS'meta'
p172
(lp173
(dp174
S'objective'
p175
I2
sS'query_time'
p176
F87.66189503669739
sS'comp_time'
p177
F10.050080060958862
sS'exec_cq'
p178
I7
sS'total_cq'
p179
I7
sa(dp180
g175
I1
sg176
F2.0113179683685303
sg177
F6.4620888233184814
sg178
I5
sg179
I5
sa(dp181
g175
I2
sg176
F1.898102045059204
sg177
F6.693174839019775
sg178
I3
sg179
I3
sasS'total_cqs'
p182
I7
ssI26
(dp183
S'iters'
p184
I7
sS'meta'
p185
(lp186
(dp187
S'objective'
p188
I57
sS'query_time'
p189
F24.200273990631104
sS'comp_time'
p190
F3.0072078704833984
sS'exec_cq'
p191
I13
sS'total_cq'
p192
I13
sa(dp193
g188
I48
sg189
F0.7566649913787842
sg190
F3.1239590644836426
sg191
I11
sg192
I11
sa(dp194
g188
I39
sg189
F0.7429859638214111
sg190
F3.1727731227874756
sg191
I10
sg192
I10
sa(dp195
g188
I28
sg189
F0.8188469409942627
sg190
F3.187731981277466
sg191
I9
sg192
I9
sa(dp196
g188
I19
sg189
F0.6835989952087402
sg190
F3.162957191467285
sg191
I7
sg192
I7
sa(dp197
g188
I9
sg189
F0.8593859672546387
sg190
F3.1914708614349365
sg191
I6
sg192
I6
sa(dp198
g188
I3
sg189
F0.6749451160430908
sg190
F3.1343178749084473
sg191
I4
sg192
I4
sasS'total_cqs'
p199
I13
ssI27
(dp200
S'iters'
p201
I1
sS'meta'
p202
(lp203
(dp204
S'objective'
p205
I1
sS'query_time'
p206
F0.17261815071105957
sS'comp_time'
p207
F0.004332065582275391
sS'exec_cq'
p208
I2
sS'total_cq'
p209
I2
sasS'total_cqs'
p210
I2
ssI28
(dp211
S'iters'
p212
I5
sS'meta'
p213
(lp214
(dp215
S'objective'
p216
I53
sS'query_time'
p217
F1.545654058456421
sS'comp_time'
p218
F0.026617050170898438
sS'exec_cq'
p219
I14
sS'total_cq'
p220
I14
sa(dp221
g216
I27
sg217
F0.006441831588745117
sg218
F0.021666765213012695
sg219
I11
sg220
I11
sa(dp222
g216
I7
sg217
F0.019350051879882812
sg218
F0.013628005981445312
sg219
I7
sg220
I7
sa(dp223
g216
I10
sg217
F0.002624034881591797
sg218
F0.012123823165893555
sg219
I5
sg220
I5
sa(dp224
g216
I4
sg217
F8.916854858398438e-05
sg218
F0.0004131793975830078
sg219
I4
sg220
I4
sasS'total_cqs'
p225
I14
ssI29
(dp226
S'iters'
p227
I1
sS'meta'
p228
(lp229
(dp230
S'objective'
p231
I1
sS'query_time'
p232
F0.007035017013549805
sS'comp_time'
p233
F9.989738464355469e-05
sS'exec_cq'
p234
I2
sS'total_cq'
p235
I2
sasS'total_cqs'
p236
I2
ssI30
(dp237
S'iters'
p238
I1
sS'meta'
p239
(lp240
(dp241
S'objective'
p242
I1
sS'query_time'
p243
F0.35121917724609375
sS'comp_time'
p244
F0.005176067352294922
sS'exec_cq'
p245
I2
sS'total_cq'
p246
I2
sasS'total_cqs'
p247
I2
ssI31
(dp248
S'iters'
p249
I3
sS'meta'
p250
(lp251
(dp252
S'objective'
p253
I1
sS'query_time'
p254
F6.061280965805054
sS'comp_time'
p255
F0.2047100067138672
sS'exec_cq'
p256
I9
sS'total_cq'
p257
I9
sa(dp258
g253
I4
sg254
F0.007692098617553711
sg255
F0.02851581573486328
sg256
I3
sg257
I3
sa(dp259
g253
I1
sg254
F0.0026161670684814453
sg255
F0.013075828552246094
sg256
I2
sg257
I2
sasS'total_cqs'
p260
I9
ssI32
(dp261
S'iters'
p262
I3
sS'meta'
p263
(lp264
(dp265
S'objective'
p266
I4
sS'query_time'
p267
F19.481976985931396
sS'comp_time'
p268
F2.8543002605438232
sS'exec_cq'
p269
I7
sS'total_cq'
p270
I7
sa(dp271
g266
I0
sg267
F0.2967231273651123
sg268
F1.0019810199737549
sg269
I4
sg270
I4
sa(dp272
g266
I2
sg267
F0.2808239459991455
sg268
F0.9977781772613525
sg269
I2
sg270
I2
sasS'total_cqs'
p273
I7
ssI33
(dp274
S'iters'
p275
I1
sS'meta'
p276
(lp277
(dp278
S'objective'
p279
I1
sS'query_time'
p280
F0.04219198226928711
sS'comp_time'
p281
F0.00014472007751464844
sS'exec_cq'
p282
I2
sS'total_cq'
p283
I2
sasS'total_cqs'
p284
I2
ssI35
(dp285
S'iters'
p286
I2
sS'meta'
p287
(lp288
(dp289
S'objective'
p290
I1
sS'query_time'
p291
F15.963807106018066
sS'comp_time'
p292
F0.24296784400939941
sS'exec_cq'
p293
I5
sS'total_cq'
p294
I5
sa(dp295
g290
I1
sg291
F0.03512692451477051
sg292
F0.17575883865356445
sg293
I3
sg294
I3
sasS'total_cqs'
p296
I5
ssI37
(dp297
S'iters'
p298
I2
sS'meta'
p299
(lp300
(dp301
S'objective'
p302
I29
sS'query_time'
p303
F2.293689012527466
sS'comp_time'
p304
F0.11426091194152832
sS'exec_cq'
p305
I10
sS'total_cq'
p306
I10
sa(dp307
g302
I1
sg303
F0.029726028442382812
sg304
F0.0358271598815918
sg305
I3
sg306
I3
sasS'total_cqs'
p308
I10
ssI40
(dp309
S'iters'
p310
I1
sS'meta'
p311
(lp312
(dp313
S'objective'
p314
I1
sS'query_time'
p315
F17.26880407333374
sS'comp_time'
p316
F2.4516959190368652
sS'exec_cq'
p317
I2
sS'total_cq'
p318
I2
sasS'total_cqs'
p319
I2
ssI41
(dp320
S'iters'
p321
I3
sS'meta'
p322
(lp323
(dp324
S'objective'
p325
I1
sS'query_time'
p326
F12.102195978164673
sS'comp_time'
p327
F1.1321120262145996
sS'exec_cq'
p328
I6
sS'total_cq'
p329
I6
sa(dp330
g325
I0
sg326
F0.2509620189666748
sg327
F1.1983709335327148
sg328
I4
sg329
I4
sa(dp331
g325
I3
sg326
F0.0009920597076416016
sg327
F0.003931760787963867
sg328
I2
sg329
I2
sasS'total_cqs'
p332
I6
ssI42
(dp333
S'iters'
p334
I1
sS'meta'
p335
(lp336
(dp337
S'objective'
p338
I1
sS'query_time'
p339
F17.394708156585693
sS'comp_time'
p340
F2.4591898918151855
sS'exec_cq'
p341
I2
sS'total_cq'
p342
I2
sasS'total_cqs'
p343
I2
ssI44
(dp344
S'iters'
p345
I3
sS'meta'
p346
(lp347
(dp348
S'objective'
p349
I5
sS'query_time'
p350
F1.5709199905395508
sS'comp_time'
p351
F0.1113748550415039
sS'exec_cq'
p352
I5
sS'total_cq'
p353
I5
sa(dp354
g349
I0
sg350
F0.0006837844848632812
sg351
F0.0017390251159667969
sg352
I4
sg353
I4
sa(dp355
g349
I3
sg350
F5.2928924560546875e-05
sg351
F0.0002651214599609375
sg352
I2
sg353
I2
sasS'total_cqs'
p356
I5
ssI45
(dp357
S'iters'
p358
I2
sS'meta'
p359
(lp360
(dp361
S'objective'
p362
I5
sS'query_time'
p363
F0.037687063217163086
sS'comp_time'
p364
F0.000576019287109375
sS'exec_cq'
p365
I5
sS'total_cq'
p366
I5
sa(dp367
g362
I3
sg363
F0.00015091896057128906
sg364
F0.0006210803985595703
sg365
I2
sg366
I2
sasS'total_cqs'
p368
I5
ssI48
(dp369
S'iters'
p370
I1
sS'meta'
p371
(lp372
(dp373
S'objective'
p374
I1
sS'query_time'
p375
F0.1315929889678955
sS'comp_time'
p376
F0.0062558650970458984
sS'exec_cq'
p377
I2
sS'total_cq'
p378
I2
sasS'total_cqs'
p379
I2
ssI49
(dp380
S'iters'
p381
I2
sS'meta'
p382
(lp383
(dp384
S'objective'
p385
I1
sS'query_time'
p386
F0.23772907257080078
sS'comp_time'
p387
F0.00662994384765625
sS'exec_cq'
p388
I5
sS'total_cq'
p389
I5
sa(dp390
g385
I1
sg386
F0.000331878662109375
sg387
F0.0017042160034179688
sg388
I3
sg389
I3
sasS'total_cqs'
p391
I5
ssI50
(dp392
S'iters'
p393
I2
sS'meta'
p394
(lp395
(dp396
S'objective'
p397
I5
sS'query_time'
p398
F1.138395071029663
sS'comp_time'
p399
F0.0012650489807128906
sS'exec_cq'
p400
I5
sS'total_cq'
p401
I5
sa(dp402
g397
I2
sg398
F0.0001900196075439453
sg399
F0.0011868476867675781
sg400
I4
sg401
I4
sasS'total_cqs'
p403
I5
ssI55
(dp404
S'iters'
p405
I1
sS'meta'
p406
(lp407
(dp408
S'objective'
p409
I1
sS'query_time'
p410
F26.516063928604126
sS'comp_time'
p411
F3.59417724609375
sS'exec_cq'
p412
I2
sS'total_cq'
p413
I2
sasS'total_cqs'
p414
I2
ssI57
(dp415
S'iters'
p416
I1
sS'meta'
p417
(lp418
(dp419
S'objective'
p420
I0
sS'query_time'
p421
F13.882117986679077
sS'comp_time'
p422
F1.6794509887695312
sS'exec_cq'
p423
I3
sS'total_cq'
p424
I3
sasS'total_cqs'
p425
I3
ssI116
(dp426
S'iters'
p427
I2
sS'meta'
p428
(lp429
(dp430
S'objective'
p431
I167
sS'query_time'
p432
F5.381080150604248
sS'comp_time'
p433
F0.2978098392486572
sS'exec_cq'
p434
I21
sS'total_cq'
p435
I21
sa(dp436
g431
I8
sg432
F0.00127410888671875
sg433
F0.004193782806396484
sg434
I3
sg435
I3
sasS'total_cqs'
p437
I21
ssI117
(dp438
S'iters'
p439
I2
sS'meta'
p440
(lp441
(dp442
S'objective'
p443
I5
sS'query_time'
p444
F0.013492822647094727
sS'comp_time'
p445
F8.511543273925781e-05
sS'exec_cq'
p446
I5
sS'total_cq'
p447
I5
sa(dp448
g443
I2
sg444
F2.002716064453125e-05
sg445
F4.291534423828125e-05
sg446
I4
sg447
I4
sasS'total_cqs'
p449
I5
ss.