(dp0
I1
(dp1
S'iters'
p2
I3
sS'meta'
p3
(lp4
(dp5
S'objective'
p6
I1
sS'query_time'
p7
F14.695400953292847
sS'comp_time'
p8
F0.7187759876251221
sS'exec_cq'
p9
I3
sS'total_cq'
p10
I6
sa(dp11
g6
I2
sg7
F30.37827181816101
sg8
F2.604116916656494
sg9
I2
sg10
I4
sa(dp12
g6
I2
sg7
F0.009681940078735352
sg8
F0.05803322792053223
sg9
I1
sg10
I2
sasS'total_cqs'
p13
I6
ssI2
(dp14
S'iters'
p15
I1
sS'meta'
p16
(lp17
(dp18
S'objective'
p19
I13
sS'query_time'
p20
F1.0028619766235352
sS'comp_time'
p21
F0.19345951080322266
sS'exec_cq'
p22
I6
sS'total_cq'
p23
I6
sasS'total_cqs'
p24
I6
ssI3
(dp25
S'iters'
p26
I12
sS'meta'
p27
(lp28
(dp29
S'objective'
p30
I435
sS'query_time'
p31
F24.575947999954224
sS'comp_time'
p32
F0.44995570182800293
sS'exec_cq'
p33
I15
sS'total_cq'
p34
I33
sa(dp35
g30
I372
sg31
F0.13093805313110352
sg32
F0.44680261611938477
sg33
I12
sg34
I30
sa(dp36
g30
I325
sg31
F0.3287680149078369
sg32
F0.021413087844848633
sg33
I13
sg34
I27
sa(dp37
g30
I262
sg31
F0.028264999389648438
sg32
F0.32958197593688965
sg33
I9
sg34
I24
sa(dp38
g30
I249
sg31
F0.004138946533203125
sg32
F0.020438194274902344
sg33
I10
sg34
I21
sa(dp39
g30
I213
sg31
F0.0024900436401367188
sg32
F0.015613079071044922
sg33
I7
sg34
I18
sa(dp40
g30
I169
sg31
F0.00889897346496582
sg32
F0.1410350799560547
sg33
I6
sg34
I15
sa(dp41
g30
I145
sg31
F0.19292616844177246
sg32
F0.02094411849975586
sg33
I5
sg34
I12
sa(dp42
g30
I117
sg31
F0.003078937530517578
sg32
F0.016656875610351562
sg33
I4
sg34
I11
sa(dp43
g30
I85
sg31
F0.0002231597900390625
sg32
F0.0011861324310302734
sg33
I3
sg34
I9
sa(dp44
g30
I84
sg31
F0.003125905990600586
sg32
F0.017157316207885742
sg33
I4
sg34
I8
sa(dp45
g30
I64
sg31
F0.0024771690368652344
sg32
F0.01566910743713379
sg33
I2
sg34
I7
sasS'total_cqs'
p46
I33
ssI6
(dp47
S'iters'
p48
I2
sS'meta'
p49
(lp50
(dp51
S'objective'
p52
I1
sS'query_time'
p53
F12.863337993621826
sS'comp_time'
p54
F0.005337953567504883
sS'exec_cq'
p55
I4
sS'total_cq'
p56
I5
sa(dp57
g52
I1
sg53
F0.0005309581756591797
sg54
F0.009190082550048828
sg55
I2
sg56
I3
sasS'total_cqs'
p58
I5
ssI8
(dp59
S'iters'
p60
I3
sS'meta'
p61
(lp62
(dp63
S'objective'
p64
I11
sS'query_time'
p65
F23.138710021972656
sS'comp_time'
p66
F0.5381686687469482
sS'exec_cq'
p67
I5
sS'total_cq'
p68
I6
sa(dp69
g64
I4
sg65
F1.4653701782226562
sg66
F1.5210716724395752
sg67
I4
sg68
I5
sa(dp70
g64
I2
sg65
F0.04470682144165039
sg66
F0.04272627830505371
sg67
I3
sg68
I4
sasS'total_cqs'
p71
I6
ssI9
(dp72
S'iters'
p73
I3
sS'meta'
p74
(lp75
(dp76
S'objective'
p77
I11
sS'query_time'
p78
F41.59237480163574
sS'comp_time'
p79
F5.420100212097168
sS'exec_cq'
p80
I2
sS'total_cq'
p81
I6
sa(dp82
g77
I2
sg78
F8.116565942764282
sg79
F0.5842640399932861
sg80
I3
sg81
I5
sa(dp83
g77
I1
sg78
F0.04323983192443848
sg79
F0.4992196559906006
sg80
I3
sg81
I3
sasS'total_cqs'
p84
I6
ssI13
(dp85
S'iters'
p86
I1
sS'meta'
p87
(lp88
(dp89
S'objective'
p90
I26
sS'query_time'
p91
F0.021979093551635742
sS'comp_time'
p92
F0.009294271469116211
sS'exec_cq'
p93
I6
sS'total_cq'
p94
I8
sasS'total_cqs'
p95
I8
ssI14
(dp96
S'iters'
p97
I2
sS'meta'
p98
(lp99
(dp100
S'objective'
p101
I5
sS'query_time'
p102
F0.9584150314331055
sS'comp_time'
p103
F0.009844064712524414
sS'exec_cq'
p104
I5
sS'total_cq'
p105
I5
sa(dp106
g101
I2
sg102
F0.0008211135864257812
sg103
F0.0037348270416259766
sg104
I4
sg105
I4
sasS'total_cqs'
p107
I5
ssI16
(dp108
S'iters'
p109
I2
sS'meta'
p110
(lp111
(dp112
S'objective'
p113
I1
sS'query_time'
p114
F1.135157823562622
sS'comp_time'
p115
F0.009807586669921875
sS'exec_cq'
p116
I4
sS'total_cq'
p117
I5
sa(dp118
g113
I1
sg114
F0.0011501312255859375
sg115
F0.005668163299560547
sg116
I3
sg117
I3
sasS'total_cqs'
p119
I5
ssI18
(dp120
S'iters'
p121
I2
sS'meta'
p122
(lp123
(dp124
S'objective'
p125
I1
sS'query_time'
p126
F0.15900182723999023
sS'comp_time'
p127
F0.004284858703613281
sS'exec_cq'
p128
I4
sS'total_cq'
p129
I5
sa(dp130
g125
I0
sg126
F3.600120544433594e-05
sg127
F0.0002257823944091797
sg128
I2
sg129
I3
sasS'total_cqs'
p131
I5
ssI20
(dp132
S'iters'
p133
I6
sS'meta'
p134
(lp135
(dp136
S'objective'
p137
I50
sS'query_time'
p138
F7.338084936141968
sS'comp_time'
p139
F1.0826189517974854
sS'exec_cq'
p140
I6
sS'total_cq'
p141
I12
sa(dp142
g137
I46
sg138
F0.19687795639038086
sg139
F0.8362979888916016
sg140
I4
sg141
I10
sa(dp143
g137
I31
sg138
F3.91034197807312
sg139
F0.41138601303100586
sg140
I4
sg141
I9
sa(dp144
g137
I35
sg138
F0.0116119384765625
sg139
F0.05708169937133789
sg140
I3
sg141
I7
sa(dp145
g137
I29
sg138
F0.12617707252502441
sg139
F0.3300490379333496
sg140
I4
sg141
I5
sa(dp146
g137
I20
sg138
F0.08875155448913574
sg139
F0.004155158996582031
sg140
I3
sg141
I4
sasS'total_cqs'
p147
I12
ssI21
(dp148
S'iters'
p149
I4
sS'meta'
p150
(lp151
(dp152
S'objective'
p153
I51
sS'query_time'
p154
F30.301844120025635
sS'comp_time'
p155
F0.3190157413482666
sS'exec_cq'
p156
I8
sS'total_cq'
p157
I14
sa(dp158
g153
I2
sg154
F30.46132802963257
sg155
F2.702542781829834
sg156
I4
sg157
I10
sa(dp159
g153
I6
sg154
F0.022565126419067383
sg155
F0.06522893905639648
sg156
I4
sg157
I6
sa(dp160
g153
I1
sg154
F0.01464700698852539
sg155
F0.00019693374633789062
sg156
I1
sg157
I4
sasS'total_cqs'
p161
I14
ssI22
(dp162
S'iters'
p163
I1
sS'meta'
p164
(lp165
(dp166
S'objective'
p167
I1
sS'query_time'
p168
F0.014922857284545898
sS'comp_time'
p169
F0.0013349056243896484
sS'exec_cq'
p170
I1
sS'total_cq'
p171
I2
sasS'total_cqs'
p172
I2
ssI25
(dp173
S'iters'
p174
I4
sS'meta'
p175
(lp176
(dp177
S'objective'
p178
I14
sS'query_time'
p179
F44.97593283653259
sS'comp_time'
p180
F4.921933889389038
sS'exec_cq'
p181
I4
sS'total_cq'
p182
I7
sa(dp183
g178
I7
sg179
F0.07106423377990723
sg180
F0.11066317558288574
sg181
I2
sg182
I5
sa(dp184
g178
I2
sg179
F4.841369152069092
sg180
F0.34412670135498047
sg181
I2
sg182
I4
sa(dp185
g178
I2
sg179
F0.011825084686279297
sg180
F0.04674887657165527
sg181
I1
sg182
I2
sasS'total_cqs'
p186
I7
ssI26
(dp187
S'iters'
p188
I8
sS'meta'
p189
(lp190
(dp191
S'objective'
p192
I69
sS'query_time'
p193
F19.724982976913452
sS'comp_time'
p194
F4.847177028656006
sS'exec_cq'
p195
I3
sS'total_cq'
p196
I13
sa(dp197
g192
I42
sg193
F0.011919021606445312
sg194
F0.00021791458129882812
sg195
I2
sg196
I12
sa(dp198
g192
I45
sg193
F0.14855694770812988
sg194
F0.01092529296875
sg195
I4
sg196
I10
sa(dp199
g192
I25
sg193
F3.438059091567993
sg194
F0.014647245407104492
sg195
I2
sg196
I8
sa(dp200
g192
I21
sg193
F1.0510330200195312
sg194
F6.148962736129761
sg195
I2
sg196
I6
sa(dp201
g192
I10
sg193
F0.028909921646118164
sg194
F0.001626729965209961
sg195
I1
sg196
I5
sa(dp202
g192
I10
sg193
F0.0009219646453857422
sg194
F0.0047969818115234375
sg195
I2
sg196
I4
sa(dp203
g192
I1
sg193
F0.0029871463775634766
sg194
F9.012222290039062e-05
sg195
I1
sg196
I3
sasS'total_cqs'
p204
I13
ssI27
(dp205
S'iters'
p206
I1
sS'meta'
p207
(lp208
(dp209
S'objective'
p210
I1
sS'query_time'
p211
F0.19879984855651855
sS'comp_time'
p212
F0.007966041564941406
sS'exec_cq'
p213
I1
sS'total_cq'
p214
I2
sasS'total_cqs'
p215
I2
ssI28
(dp216
S'iters'
p217
I5
sS'meta'
p218
(lp219
(dp220
S'objective'
p221
I31
sS'query_time'
p222
F1.2734060287475586
sS'comp_time'
p223
F0.10332489013671875
sS'exec_cq'
p224
I6
sS'total_cq'
p225
I14
sa(dp226
g221
I48
sg222
F0.005520820617675781
sg223
F0.0002357959747314453
sg224
I2
sg225
I11
sa(dp227
g221
I38
sg222
F0.003454923629760742
sg223
F0.025321006774902344
sg224
I3
sg225
I10
sa(dp228
g221
I22
sg222
F0.014698982238769531
sg223
F0.0008318424224853516
sg224
I1
sg225
I8
sa(dp229
g221
I19
sg222
F0.0025260448455810547
sg223
F0.00011372566223144531
sg224
I1
sg225
I7
sasS'total_cqs'
p230
I14
ssI29
(dp231
S'iters'
p232
I1
sS'meta'
p233
(lp234
(dp235
S'objective'
p236
I1
sS'query_time'
p237
F0.012991905212402344
sS'comp_time'
p238
F0.0020542144775390625
sS'exec_cq'
p239
I2
sS'total_cq'
p240
I2
sasS'total_cqs'
p241
I2
ssI30
(dp242
S'iters'
p243
I1
sS'meta'
p244
(lp245
(dp246
S'objective'
p247
I1
sS'query_time'
p248
F0.3857738971710205
sS'comp_time'
p249
F0.004680156707763672
sS'exec_cq'
p250
I2
sS'total_cq'
p251
I2
sasS'total_cqs'
p252
I2
ssI31
(dp253
S'iters'
p254
I3
sS'meta'
p255
(lp256
(dp257
S'objective'
p258
I11
sS'query_time'
p259
F1.615307092666626
sS'comp_time'
p260
F0.06400895118713379
sS'exec_cq'
p261
I5
sS'total_cq'
p262
I9
sa(dp263
g258
I3
sg259
F0.010557889938354492
sg260
F0.11770510673522949
sg261
I3
sg262
I3
sa(dp264
g258
I2
sg259
F0.010094881057739258
sg260
F0.042862892150878906
sg261
I2
sg262
I2
sasS'total_cqs'
p265
I9
ssI32
(dp266
S'iters'
p267
I3
sS'meta'
p268
(lp269
(dp270
S'objective'
p271
I2
sS'query_time'
p272
F17.45029902458191
sS'comp_time'
p273
F4.426522970199585
sS'exec_cq'
p274
I4
sS'total_cq'
p275
I7
sa(dp276
g271
I1
sg272
F1.116103172302246
sg273
F0.021401643753051758
sg274
I2
sg275
I4
sa(dp277
g271
I2
sg272
F0.08609986305236816
sg273
F0.002254009246826172
sg274
I1
sg275
I3
sasS'total_cqs'
p278
I7
ssI33
(dp279
S'iters'
p280
I1
sS'meta'
p281
(lp282
(dp283
S'objective'
p284
I1
sS'query_time'
p285
F0.04975295066833496
sS'comp_time'
p286
F0.0012629032135009766
sS'exec_cq'
p287
I2
sS'total_cq'
p288
I2
sasS'total_cqs'
p289
I2
ssI35
(dp290
S'iters'
p291
I2
sS'meta'
p292
(lp293
(dp294
S'objective'
p295
I1
sS'query_time'
p296
F14.0849769115448
sS'comp_time'
p297
F0.34015798568725586
sS'exec_cq'
p298
I4
sS'total_cq'
p299
I5
sa(dp300
g295
I1
sg296
F0.21567702293395996
sg297
F0.25572919845581055
sg298
I3
sg299
I3
sasS'total_cqs'
p301
I5
ssI37
(dp302
S'iters'
p303
I2
sS'meta'
p304
(lp305
(dp306
S'objective'
p307
I35
sS'query_time'
p308
F0.681873083114624
sS'comp_time'
p309
F0.031632184982299805
sS'exec_cq'
p310
I4
sS'total_cq'
p311
I10
sa(dp312
g307
I2
sg308
F0.0033159255981445312
sg309
F0.014291763305664062
sg310
I2
sg311
I2
sasS'total_cqs'
p313
I10
ssI40
(dp314
S'iters'
p315
I1
sS'meta'
p316
(lp317
(dp318
S'objective'
p319
I1
sS'query_time'
p320
F0.004889965057373047
sS'comp_time'
p321
F0.0018048286437988281
sS'exec_cq'
p322
I1
sS'total_cq'
p323
I2
sasS'total_cqs'
p324
I2
ssI41
(dp325
S'iters'
p326
I3
sS'meta'
p327
(lp328
(dp329
S'objective'
p330
I9
sS'query_time'
p331
F10.400936841964722
sS'comp_time'
p332
F1.8507323265075684
sS'exec_cq'
p333
I3
sS'total_cq'
p334
I6
sa(dp335
g330
I3
sg331
F0.7362101078033447
sg332
F0.004311800003051758
sg333
I2
sg334
I5
sa(dp336
g330
I1
sg331
F0.0006160736083984375
sg332
F0.0036602020263671875
sg333
I2
sg334
I2
sasS'total_cqs'
p337
I6
ssI42
(dp338
S'iters'
p339
I1
sS'meta'
p340
(lp341
(dp342
S'objective'
p343
I1
sS'query_time'
p344
F0.00915217399597168
sS'comp_time'
p345
F0.0020241737365722656
sS'exec_cq'
p346
I1
sS'total_cq'
p347
I2
sasS'total_cqs'
p348
I2
ssI44
(dp349
S'iters'
p350
I3
sS'meta'
p351
(lp352
(dp353
S'objective'
p354
I1
sS'query_time'
p355
F0.24634599685668945
sS'comp_time'
p356
F0.1370091438293457
sS'exec_cq'
p357
I2
sS'total_cq'
p358
I5
sa(dp359
g354
I3
sg355
F1.3204240798950195
sg356
F0.14914703369140625
sg357
I2
sg358
I3
sa(dp360
g354
I3
sg355
F6.508827209472656e-05
sg356
F0.00041103363037109375
sg357
I1
sg358
I2
sasS'total_cqs'
p361
I5
ssI45
(dp362
S'iters'
p363
I2
sS'meta'
p364
(lp365
(dp366
S'objective'
p367
I3
sS'query_time'
p368
F0.03695106506347656
sS'comp_time'
p369
F0.0032100677490234375
sS'exec_cq'
p370
I3
sS'total_cq'
p371
I5
sa(dp372
g367
I2
sg368
F0.00015687942504882812
sg369
F0.0006659030914306641
sg370
I2
sg371
I2
sasS'total_cqs'
p373
I5
ssI48
(dp374
S'iters'
p375
I1
sS'meta'
p376
(lp377
(dp378
S'objective'
p379
I1
sS'query_time'
p380
F0.20241689682006836
sS'comp_time'
p381
F0.004797935485839844
sS'exec_cq'
p382
I2
sS'total_cq'
p383
I2
sasS'total_cqs'
p384
I2
ssI49
(dp385
S'iters'
p386
I2
sS'meta'
p387
(lp388
(dp389
S'objective'
p390
I1
sS'query_time'
p391
F0.2366178035736084
sS'comp_time'
p392
F0.006277799606323242
sS'exec_cq'
p393
I4
sS'total_cq'
p394
I5
sa(dp395
g390
I0
sg391
F0.001104116439819336
sg392
F0.0032019615173339844
sg393
I3
sg394
I3
sasS'total_cqs'
p396
I5
ssI50
(dp397
S'iters'
p398
I2
sS'meta'
p399
(lp400
(dp401
S'objective'
p402
I5
sS'query_time'
p403
F0.7596521377563477
sS'comp_time'
p404
F0.10947132110595703
sS'exec_cq'
p405
I5
sS'total_cq'
p406
I5
sa(dp407
g402
I2
sg403
F0.00019884109497070312
sg404
F0.0013298988342285156
sg405
I4
sg406
I4
sasS'total_cqs'
p408
I5
ssI55
(dp409
S'iters'
p410
I1
sS'meta'
p411
(lp412
(dp413
S'objective'
p414
I1
sS'query_time'
p415
F24.52617383003235
sS'comp_time'
p416
F3.5109457969665527
sS'exec_cq'
p417
I2
sS'total_cq'
p418
I2
sasS'total_cqs'
p419
I2
ssI57
(dp420
S'iters'
p421
I1
sS'meta'
p422
(lp423
(dp424
S'objective'
p425
I0
sS'query_time'
p426
F12.470151901245117
sS'comp_time'
p427
F2.4191510677337646
sS'exec_cq'
p428
I2
sS'total_cq'
p429
I3
sasS'total_cqs'
p430
I3
ssI116
(dp431
S'iters'
p432
I3
sS'meta'
p433
(lp434
(dp435
S'objective'
p436
I177
sS'query_time'
p437
F4.079151153564453
sS'comp_time'
p438
F0.7074689865112305
sS'exec_cq'
p439
I15
sS'total_cq'
p440
I21
sa(dp441
g436
I176
sg437
F0.49295473098754883
sg438
F0.004015684127807617
sg439
I14
sg440
I19
sa(dp442
g436
I10
sg437
F0.0007760524749755859
sg438
F0.0033729076385498047
sg439
I2
sg440
I2
sasS'total_cqs'
p443
I21
ssI117
(dp444
S'iters'
p445
I2
sS'meta'
p446
(lp447
(dp448
S'objective'
p449
I5
sS'query_time'
p450
F0.0073468685150146484
sS'comp_time'
p451
F0.0019659996032714844
sS'exec_cq'
p452
I3
sS'total_cq'
p453
I5
sa(dp454
g449
I2
sg450
F0.0020999908447265625
sg451
F8.368492126464844e-05
sg452
I1
sg453
I4
sasS'total_cqs'
p455
I5
ss.