(dp0
I1
(dp1
S'iters'
p2
I3
sS'meta'
p3
(lp4
(dp5
S'objective'
p6
I9
sS'query_time'
p7
F47.76096796989441
sS'comp_time'
p8
F0.9886419773101807
sS'exec_cq'
p9
I5
sS'total_cq'
p10
I6
sa(dp11
g6
I5
sg7
F0.0692300796508789
sg8
F0.3590550422668457
sg9
I4
sg10
I5
sa(dp12
g6
I3
sg7
F0.14721989631652832
sg8
F0.22083210945129395
sg9
I2
sg10
I2
sasS'total_cqs'
p13
I6
ssI2
(dp14
S'iters'
p15
I1
sS'meta'
p16
(lp17
(dp18
S'objective'
p19
I13
sS'query_time'
p20
F1.111603021621704
sS'comp_time'
p21
F0.15659737586975098
sS'exec_cq'
p22
I6
sS'total_cq'
p23
I6
sasS'total_cqs'
p24
I6
ssI3
(dp25
S'iters'
p26
I10
sS'meta'
p27
(lp28
(dp29
S'objective'
p30
I423
sS'query_time'
p31
F25.703952074050903
sS'comp_time'
p32
F0.2738053798675537
sS'exec_cq'
p33
I28
sS'total_cq'
p34
I33
sa(dp35
g30
I356
sg31
F0.009312868118286133
sg32
F0.012552738189697266
sg33
I25
sg34
I30
sa(dp36
g30
I288
sg31
F0.007710695266723633
sg32
F0.01035308837890625
sg33
I22
sg34
I27
sa(dp37
g30
I238
sg31
F0.006309032440185547
sg32
F0.07228302955627441
sg33
I19
sg34
I24
sa(dp38
g30
I189
sg31
F0.0040149688720703125
sg32
F0.006500959396362305
sg33
I16
sg34
I21
sa(dp39
g30
I175
sg31
F0.19198393821716309
sg32
F0.014047861099243164
sg33
I18
sg34
I18
sa(dp40
g30
I149
sg31
F0.008201122283935547
sg32
F0.011677980422973633
sg33
I16
sg34
I16
sa(dp41
g30
I141
sg31
F0.007573127746582031
sg32
F0.07149910926818848
sg33
I15
sg34
I15
sa(dp42
g30
I110
sg31
F28.892077922821045
sg32
F0.014868974685668945
sg33
I14
sg34
I14
sa(dp43
g30
I99
sg31
F0.00739288330078125
sg32
F0.012478828430175781
sg33
I13
sg34
I13
sasS'total_cqs'
p44
I33
ssI4
(dp45
S'iters'
p46
I0
sS'meta'
p47
(lp48
sS'total_cqs'
p49
I1
ssI5
(dp50
S'iters'
p51
I0
sS'meta'
p52
(lp53
sS'total_cqs'
p54
I1
ssI6
(dp55
S'iters'
p56
I2
sS'meta'
p57
(lp58
(dp59
S'objective'
p60
I1
sS'query_time'
p61
F15.00776982307434
sS'comp_time'
p62
F0.00404810905456543
sS'exec_cq'
p63
I4
sS'total_cq'
p64
I5
sa(dp65
g60
I0
sg61
F0.0004248619079589844
sg62
F0.0005834102630615234
sg63
I2
sg64
I3
sasS'total_cqs'
p66
I5
ssI7
(dp67
S'iters'
p68
I0
sS'meta'
p69
(lp70
sS'total_cqs'
p71
I1
ssI8
(dp72
S'iters'
p73
I3
sS'meta'
p74
(lp75
(dp76
S'objective'
p77
I11
sS'query_time'
p78
F23.59389305114746
sS'comp_time'
p79
F0.08027005195617676
sS'exec_cq'
p80
I5
sS'total_cq'
p81
I6
sa(dp82
g77
I4
sg78
F1.794255018234253
sg79
F0.00016069412231445312
sg80
I4
sg81
I5
sa(dp83
g77
I2
sg78
F0.051580190658569336
sg79
F0.00011515617370605469
sg80
I3
sg81
I4
sasS'total_cqs'
p84
I6
ssI9
(dp85
S'iters'
p86
I2
sS'meta'
p87
(lp88
(dp89
S'objective'
p90
I5
sS'query_time'
p91
F11.360398054122925
sS'comp_time'
p92
F0.09231233596801758
sS'exec_cq'
p93
I3
sS'total_cq'
p94
I6
sa(dp95
g90
I0
sg91
F0.056672096252441406
sg92
F0.3730027675628662
sg93
I3
sg94
I3
sasS'total_cqs'
p96
I6
ssI10
(dp97
S'iters'
p98
I0
sS'meta'
p99
(lp100
sS'total_cqs'
p101
I1
ssI11
(dp102
S'iters'
p103
I0
sS'meta'
p104
(lp105
sS'total_cqs'
p106
I1
ssI12
(dp107
S'iters'
p108
I0
sS'meta'
p109
(lp110
sS'total_cqs'
p111
I1
ssI13
(dp112
S'iters'
p113
I1
sS'meta'
p114
(lp115
(dp116
S'objective'
p117
I26
sS'query_time'
p118
F0.02727198600769043
sS'comp_time'
p119
F0.010526657104492188
sS'exec_cq'
p120
I6
sS'total_cq'
p121
I8
sasS'total_cqs'
p122
I8
ssI14
(dp123
S'iters'
p124
I2
sS'meta'
p125
(lp126
(dp127
S'objective'
p128
I5
sS'query_time'
p129
F0.9847049713134766
sS'comp_time'
p130
F0.004166841506958008
sS'exec_cq'
p131
I5
sS'total_cq'
p132
I5
sa(dp133
g128
I2
sg129
F0.0008189678192138672
sg130
F0.0012900829315185547
sg131
I4
sg132
I4
sasS'total_cqs'
p134
I5
ssI16
(dp135
S'iters'
p136
I2
sS'meta'
p137
(lp138
(dp139
S'objective'
p140
I3
sS'query_time'
p141
F1.4708809852600098
sS'comp_time'
p142
F0.0059452056884765625
sS'exec_cq'
p143
I4
sS'total_cq'
p144
I5
sa(dp145
g140
I1
sg141
F0.001483917236328125
sg142
F0.002717256546020508
sg143
I3
sg144
I3
sasS'total_cqs'
p146
I5
ssI17
(dp147
S'iters'
p148
I0
sS'meta'
p149
(lp150
sS'total_cqs'
p151
I1
ssI18
(dp152
S'iters'
p153
I2
sS'meta'
p154
(lp155
(dp156
S'objective'
p157
I1
sS'query_time'
p158
F0.2197589874267578
sS'comp_time'
p159
F0.004256248474121094
sS'exec_cq'
p160
I4
sS'total_cq'
p161
I5
sa(dp162
g157
I1
sg158
F3.504753112792969e-05
sg159
F0.0001926422119140625
sg160
I2
sg161
I3
sasS'total_cqs'
p163
I5
ssI19
(dp164
S'iters'
p165
I0
sS'meta'
p166
(lp167
sS'total_cqs'
p168
I1
ssI20
(dp169
S'iters'
p170
I3
sS'meta'
p171
(lp172
(dp173
S'objective'
p174
I44
sS'query_time'
p175
F14.379199981689453
sS'comp_time'
p176
F0.7044339179992676
sS'exec_cq'
p177
I10
sS'total_cq'
p178
I12
sa(dp179
g174
I27
sg175
F0.26430511474609375
sg176
F0.5160427093505859
sg177
I8
sg178
I10
sa(dp180
g174
I30
sg175
F0.25583362579345703
sg176
F0.3885948657989502
sg177
I6
sg178
I8
sasS'total_cqs'
p181
I12
ssI21
(dp182
S'iters'
p183
I5
sS'meta'
p184
(lp185
(dp186
S'objective'
p187
I73
sS'query_time'
p188
F61.86524200439453
sS'comp_time'
p189
F0.920555591583252
sS'exec_cq'
p190
I12
sS'total_cq'
p191
I14
sa(dp192
g187
I57
sg188
F0.30326104164123535
sg189
F0.5824110507965088
sg190
I10
sg191
I12
sa(dp193
g187
I45
sg188
F0.3422219753265381
sg189
F0.01966261863708496
sg190
I7
sg191
I9
sa(dp194
g187
I33
sg188
F0.010017156600952148
sg189
F0.017271995544433594
sg190
I6
sg191
I8
sa(dp195
g187
I30
sg188
F0.09340095520019531
sg189
F0.015196084976196289
sg190
I6
sg191
I7
sasS'total_cqs'
p196
I14
ssI22
(dp197
S'iters'
p198
I1
sS'meta'
p199
(lp200
(dp201
S'objective'
p202
I1
sS'query_time'
p203
F0.0075380802154541016
sS'comp_time'
p204
F0.0009682178497314453
sS'exec_cq'
p205
I1
sS'total_cq'
p206
I2
sasS'total_cqs'
p207
I2
ssI23
(dp208
S'iters'
p209
I0
sS'meta'
p210
(lp211
sS'total_cqs'
p212
I1
ssI24
(dp213
S'iters'
p214
I0
sS'meta'
p215
(lp216
sS'total_cqs'
p217
I1
ssI25
(dp218
S'iters'
p219
I4
sS'meta'
p220
(lp221
(dp222
S'objective'
p223
I10
sS'query_time'
p224
F53.312142848968506
sS'comp_time'
p225
F1.7998430728912354
sS'exec_cq'
p226
I6
sS'total_cq'
p227
I7
sa(dp228
g223
I5
sg224
F0.6944530010223389
sg225
F2.2758278846740723
sg226
I4
sg227
I5
sa(dp229
g223
I0
sg224
F0.015614986419677734
sg225
F0.00012969970703125
sg226
I2
sg227
I3
sa(dp230
g223
I4
sg224
F0.006463050842285156
sg225
F4.506111145019531e-05
sg226
I1
sg227
I2
sasS'total_cqs'
p231
I7
ssI26
(dp232
S'iters'
p233
I6
sS'meta'
p234
(lp235
(dp236
S'objective'
p237
I57
sS'query_time'
p238
F22.894160747528076
sS'comp_time'
p239
F2.0389978885650635
sS'exec_cq'
p240
I9
sS'total_cq'
p241
I13
sa(dp242
g237
I40
sg238
F0.8076350688934326
sg239
F2.1934056282043457
sg240
I7
sg241
I11
sa(dp243
g237
I31
sg238
F0.7726128101348877
sg239
F1.839432954788208
sg240
I4
sg241
I9
sa(dp244
g237
I24
sg238
F0.8099620342254639
sg239
F2.6694698333740234
sg240
I5
sg241
I8
sa(dp245
g237
I16
sg238
F0.8028771877288818
sg239
F1.8619065284729004
sg240
I4
sg241
I7
sa(dp246
g237
I9
sg238
F0.8166360855102539
sg239
F1.8556628227233887
sg240
I3
sg241
I6
sasS'total_cqs'
p247
I13
ssI27
(dp248
S'iters'
p249
I1
sS'meta'
p250
(lp251
(dp252
S'objective'
p253
I1
sS'query_time'
p254
F0.17273306846618652
sS'comp_time'
p255
F0.0022542476654052734
sS'exec_cq'
p256
I1
sS'total_cq'
p257
I2
sasS'total_cqs'
p258
I2
ssI28
(dp259
S'iters'
p260
I7
sS'meta'
p261
(lp262
(dp263
S'objective'
p264
I53
sS'query_time'
p265
F1.5136120319366455
sS'comp_time'
p266
F0.10214734077453613
sS'exec_cq'
p267
I6
sS'total_cq'
p268
I14
sa(dp269
g264
I53
sg265
F0.007809877395629883
sg266
F0.00021791458129882812
sg267
I3
sg268
I12
sa(dp270
g264
I44
sg265
F0.006675243377685547
sg266
F0.007968902587890625
sg267
I6
sg268
I11
sa(dp271
g264
I35
sg265
F0.02658700942993164
sg266
F0.008897066116333008
sg267
I5
sg268
I10
sa(dp272
g264
I25
sg265
F0.006782054901123047
sg266
F0.008604764938354492
sg267
I4
sg268
I9
sa(dp273
g264
I17
sg265
F1.811981201171875e-05
sg266
F6.914138793945312e-05
sg267
I1
sg268
I6
sa(dp274
g264
I10
sg265
F0.02288198471069336
sg266
F3.910064697265625e-05
sg267
I1
sg268
I5
sasS'total_cqs'
p275
I14
ssI29
(dp276
S'iters'
p277
I1
sS'meta'
p278
(lp279
(dp280
S'objective'
p281
I1
sS'query_time'
p282
F0.011143922805786133
sS'comp_time'
p283
F0.001863718032836914
sS'exec_cq'
p284
I2
sS'total_cq'
p285
I2
sasS'total_cqs'
p286
I2
ssI30
(dp287
S'iters'
p288
I1
sS'meta'
p289
(lp290
(dp291
S'objective'
p292
I1
sS'query_time'
p293
F0.40587806701660156
sS'comp_time'
p294
F0.002542734146118164
sS'exec_cq'
p295
I2
sS'total_cq'
p296
I2
sasS'total_cqs'
p297
I2
ssI31
(dp298
S'iters'
p299
I3
sS'meta'
p300
(lp301
(dp302
S'objective'
p303
I9
sS'query_time'
p304
F1.5355160236358643
sS'comp_time'
p305
F0.025792837142944336
sS'exec_cq'
p306
I5
sS'total_cq'
p307
I9
sa(dp308
g303
I2
sg304
F0.008323192596435547
sg305
F0.011967897415161133
sg306
I3
sg307
I3
sa(dp309
g303
I2
sg304
F0.00845193862915039
sg305
F0.01163482666015625
sg306
I2
sg307
I2
sasS'total_cqs'
p310
I9
ssI32
(dp311
S'iters'
p312
I3
sS'meta'
p313
(lp314
(dp315
S'objective'
p316
I2
sS'query_time'
p317
F21.41612410545349
sS'comp_time'
p318
F1.880079746246338
sS'exec_cq'
p319
I4
sS'total_cq'
p320
I7
sa(dp321
g316
I3
sg317
F1.160830020904541
sg318
F0.002743244171142578
sg319
I2
sg320
I4
sa(dp322
g316
I4
sg317
F0.24166202545166016
sg318
F0.22420215606689453
sg319
I1
sg320
I2
sasS'total_cqs'
p323
I7
ssI33
(dp324
S'iters'
p325
I1
sS'meta'
p326
(lp327
(dp328
S'objective'
p329
I1
sS'query_time'
p330
F0.03073406219482422
sS'comp_time'
p331
F0.0019342899322509766
sS'exec_cq'
p332
I2
sS'total_cq'
p333
I2
sasS'total_cqs'
p334
I2
ssI34
(dp335
S'iters'
p336
I0
sS'meta'
p337
(lp338
sS'total_cqs'
p339
I1
ssI35
(dp340
S'iters'
p341
I2
sS'meta'
p342
(lp343
(dp344
S'objective'
p345
I1
sS'query_time'
p346
F14.29480504989624
sS'comp_time'
p347
F0.09729146957397461
sS'exec_cq'
p348
I4
sS'total_cq'
p349
I5
sa(dp350
g345
I0
sg346
F0.013417959213256836
sg347
F0.10866737365722656
sg348
I2
sg349
I3
sasS'total_cqs'
p351
I5
ssI37
(dp352
S'iters'
p353
I2
sS'meta'
p354
(lp355
(dp356
S'objective'
p357
I23
sS'query_time'
p358
F0.5384860038757324
sS'comp_time'
p359
F0.06938004493713379
sS'exec_cq'
p360
I4
sS'total_cq'
p361
I10
sa(dp362
g357
I4
sg358
F0.004546165466308594
sg359
F0.005705833435058594
sg360
I2
sg361
I2
sasS'total_cqs'
p363
I10
ssI38
(dp364
S'iters'
p365
I0
sS'meta'
p366
(lp367
sS'total_cqs'
p368
I1
ssI39
(dp369
S'iters'
p370
I0
sS'meta'
p371
(lp372
sS'total_cqs'
p373
I1
ssI40
(dp374
S'iters'
p375
I1
sS'meta'
p376
(lp377
(dp378
S'objective'
p379
I1
sS'query_time'
p380
F0.002804994583129883
sS'comp_time'
p381
F0.0010418891906738281
sS'exec_cq'
p382
I1
sS'total_cq'
p383
I2
sasS'total_cqs'
p384
I2
ssI41
(dp385
S'iters'
p386
I4
sS'meta'
p387
(lp388
(dp389
S'objective'
p390
I5
sS'query_time'
p391
F10.085863828659058
sS'comp_time'
p392
F0.7680761814117432
sS'exec_cq'
p393
I3
sS'total_cq'
p394
I6
sa(dp395
g390
I1
sg391
F0.16729497909545898
sg392
F0.0004220008850097656
sg393
I1
sg394
I4
sa(dp396
g390
I3
sg391
F0.7697079181671143
sg392
F0.0006680488586425781
sg393
I2
sg394
I3
sa(dp397
g390
I3
sg391
F0.0007228851318359375
sg392
F0.0009386539459228516
sg393
I2
sg394
I2
sasS'total_cqs'
p398
I6
ssI42
(dp399
S'iters'
p400
I1
sS'meta'
p401
(lp402
(dp403
S'objective'
p404
I1
sS'query_time'
p405
F0.010720968246459961
sS'comp_time'
p406
F0.0007648468017578125
sS'exec_cq'
p407
I1
sS'total_cq'
p408
I2
sasS'total_cqs'
p409
I2
ssI43
(dp410
S'iters'
p411
I0
sS'meta'
p412
(lp413
sS'total_cqs'
p414
I1
ssI44
(dp415
S'iters'
p416
I2
sS'meta'
p417
(lp418
(dp419
S'objective'
p420
I1
sS'query_time'
p421
F0.28354716300964355
sS'comp_time'
p422
F0.05506587028503418
sS'exec_cq'
p423
I2
sS'total_cq'
p424
I5
sa(dp425
g420
I0
sg421
F1.0513668060302734
sg422
F0.02610325813293457
sg423
I3
sg424
I3
sasS'total_cqs'
p426
I5
ssI45
(dp427
S'iters'
p428
I2
sS'meta'
p429
(lp430
(dp431
S'objective'
p432
I1
sS'query_time'
p433
F0.037966012954711914
sS'comp_time'
p434
F0.002671480178833008
sS'exec_cq'
p435
I3
sS'total_cq'
p436
I5
sa(dp437
g432
I1
sg433
F0.00015497207641601562
sg434
F0.00020694732666015625
sg435
I2
sg436
I2
sasS'total_cqs'
p438
I5
ssI46
(dp439
S'iters'
p440
I0
sS'meta'
p441
(lp442
sS'total_cqs'
p443
I1
ssI47
(dp444
S'iters'
p445
I0
sS'meta'
p446
(lp447
sS'total_cqs'
p448
I1
ssI48
(dp449
S'iters'
p450
I1
sS'meta'
p451
(lp452
(dp453
S'objective'
p454
I1
sS'query_time'
p455
F0.17838311195373535
sS'comp_time'
p456
F0.006277322769165039
sS'exec_cq'
p457
I2
sS'total_cq'
p458
I2
sasS'total_cqs'
p459
I2
ssI49
(dp460
S'iters'
p461
I2
sS'meta'
p462
(lp463
(dp464
S'objective'
p465
I3
sS'query_time'
p466
F0.2648580074310303
sS'comp_time'
p467
F0.003464221954345703
sS'exec_cq'
p468
I4
sS'total_cq'
p469
I5
sa(dp470
g465
I1
sg466
F3.4809112548828125e-05
sg467
F9.799003601074219e-05
sg468
I2
sg469
I3
sasS'total_cqs'
p471
I5
ssI50
(dp472
S'iters'
p473
I2
sS'meta'
p474
(lp475
(dp476
S'objective'
p477
I5
sS'query_time'
p478
F0.6266791820526123
sS'comp_time'
p479
F0.0026149749755859375
sS'exec_cq'
p480
I5
sS'total_cq'
p481
I5
sa(dp482
g477
I2
sg478
F0.00018906593322753906
sg479
F0.00044417381286621094
sg480
I4
sg481
I4
sasS'total_cqs'
p483
I5
ssI51
(dp484
S'iters'
p485
I0
sS'meta'
p486
(lp487
sS'total_cqs'
p488
I1
ssI52
(dp489
S'iters'
p490
I0
sS'meta'
p491
(lp492
sS'total_cqs'
p493
I1
ssI53
(dp494
S'iters'
p495
I0
sS'meta'
p496
(lp497
sS'total_cqs'
p498
I1
ssI55
(dp499
S'iters'
p500
I1
sS'meta'
p501
(lp502
(dp503
S'objective'
p504
I1
sS'query_time'
p505
F24.59872078895569
sS'comp_time'
p506
F0.018081188201904297
sS'exec_cq'
p507
I2
sS'total_cq'
p508
I2
sasS'total_cqs'
p509
I2
ssI56
(dp510
S'iters'
p511
I0
sS'meta'
p512
(lp513
sS'total_cqs'
p514
I1
ssI57
(dp515
S'iters'
p516
I1
sS'meta'
p517
(lp518
(dp519
S'objective'
p520
I0
sS'query_time'
p521
F13.094743013381958
sS'comp_time'
p522
F0.8868489265441895
sS'exec_cq'
p523
I2
sS'total_cq'
p524
I3
sasS'total_cqs'
p525
I3
ssI108
(dp526
S'iters'
p527
I0
sS'meta'
p528
(lp529
sS'total_cqs'
p530
I1
ssI109
(dp531
S'iters'
p532
I0
sS'meta'
p533
(lp534
sS'total_cqs'
p535
I1
ssI116
(dp536
S'iters'
p537
I3
sS'meta'
p538
(lp539
(dp540
S'objective'
p541
I173
sS'query_time'
p542
F3.6410012245178223
sS'comp_time'
p543
F0.21537089347839355
sS'exec_cq'
p544
I15
sS'total_cq'
p545
I21
sa(dp546
g541
I172
sg542
F0.5359330177307129
sg543
F0.0006520748138427734
sg544
I14
sg545
I19
sa(dp547
g541
I9
sg542
F0.000701904296875
sg543
F0.0009026527404785156
sg544
I2
sg545
I2
sasS'total_cqs'
p548
I21
ssI117
(dp549
S'iters'
p550
I2
sS'meta'
p551
(lp552
(dp553
S'objective'
p554
I5
sS'query_time'
p555
F0.009274959564208984
sS'comp_time'
p556
F0.0014328956604003906
sS'exec_cq'
p557
I3
sS'total_cq'
p558
I5
sa(dp559
g554
I2
sg555
F0.0023729801177978516
sg556
F2.8133392333984375e-05
sg557
I1
sg558
I4
sasS'total_cqs'
p560
I5
ssI118
(dp561
S'iters'
p562
I0
sS'meta'
p563
(lp564
sS'total_cqs'
p565
I1
ssI122
(dp566
S'iters'
p567
I0
sS'meta'
p568
(lp569
sS'total_cqs'
p570
I1
ss.