(dp0
I1
(dp1
S'iters'
p2
I3
sS'meta'
p3
(lp4
(dp5
S'objective'
p6
I9
sS'query_time'
p7
F15.081781148910522
sS'comp_time'
p8
F0.7244181632995605
sS'exec_cq'
p9
I3
sS'total_cq'
p10
I6
sa(dp11
g6
I3
sg7
F30.729686975479126
sg8
F2.4421708583831787
sg9
I2
sg10
I4
sa(dp12
g6
I3
sg7
F0.01019597053527832
sg8
F0.05806612968444824
sg9
I1
sg10
I2
sasS'total_cqs'
p13
I6
ssI2
(dp14
S'iters'
p15
I1
sS'meta'
p16
(lp17
(dp18
S'objective'
p19
I15
sS'query_time'
p20
F0.932208776473999
sS'comp_time'
p21
F0.2639646530151367
sS'exec_cq'
p22
I5
sS'total_cq'
p23
I6
sasS'total_cqs'
p24
I6
ssI3
(dp25
S'iters'
p26
I15
sS'meta'
p27
(lp28
(dp29
S'objective'
p30
I411
sS'query_time'
p31
F25.06162691116333
sS'comp_time'
p32
F0.4936530590057373
sS'exec_cq'
p33
I15
sS'total_cq'
p34
I33
sa(dp35
g30
I342
sg31
F0.11132407188415527
sg32
F0.2660853862762451
sg33
I12
sg34
I30
sa(dp36
g30
I252
sg31
F0.3084080219268799
sg32
F0.11102294921875
sg33
I13
sg34
I27
sa(dp37
g30
I239
sg31
F0.02610611915588379
sg32
F0.247697114944458
sg33
I9
sg34
I24
sa(dp38
g30
I198
sg31
F0.008486032485961914
sg32
F0.05293893814086914
sg33
I6
sg34
I21
sa(dp39
g30
I182
sg31
F0.003735065460205078
sg32
F0.020657062530517578
sg33
I10
sg34
I18
sa(dp40
g30
I152
sg31
F0.2564880847930908
sg32
F0.02051091194152832
sg33
I5
sg34
I16
sa(dp41
g30
I126
sg31
F0.00018215179443359375
sg32
F0.0011491775512695312
sg33
I3
sg34
I15
sa(dp42
g30
I104
sg31
F0.0035381317138671875
sg32
F0.01986098289489746
sg33
I8
sg34
I14
sa(dp43
g30
I75
sg31
F0.0030989646911621094
sg32
F0.019790172576904297
sg33
I4
sg34
I11
sa(dp44
g30
I66
sg31
F0.0001800060272216797
sg32
F0.001142263412475586
sg33
I2
sg34
I10
sa(dp45
g30
I44
sg31
F0.002998828887939453
sg32
F0.019988059997558594
sg33
I5
sg34
I9
sa(dp46
g30
I40
sg31
F0.0031919479370117188
sg32
F0.08095836639404297
sg33
I3
sg34
I6
sa(dp47
g30
I30
sg31
F0.0007398128509521484
sg32
F0.0030956268310546875
sg33
I3
sg34
I5
sa(dp48
g30
I21
sg31
F0.0022912025451660156
sg32
F0.015180349349975586
sg33
I3
sg34
I4
sasS'total_cqs'
p49
I33
ssI6
(dp50
S'iters'
p51
I2
sS'meta'
p52
(lp53
(dp54
S'objective'
p55
I1
sS'query_time'
p56
F13.305908918380737
sS'comp_time'
p57
F0.005686521530151367
sS'exec_cq'
p58
I4
sS'total_cq'
p59
I5
sa(dp60
g55
I1
sg56
F4.792213439941406e-05
sg57
F0.0004086494445800781
sg58
I1
sg59
I2
sasS'total_cqs'
p61
I5
ssI8
(dp62
S'iters'
p63
I5
sS'meta'
p64
(lp65
(dp66
S'objective'
p67
I19
sS'query_time'
p68
F22.817934036254883
sS'comp_time'
p69
F0.3976869583129883
sS'exec_cq'
p70
I5
sS'total_cq'
p71
I6
sa(dp72
g67
I8
sg68
F1.4310100078582764
sg69
F1.500190019607544
sg70
I4
sg71
I5
sa(dp73
g67
I4
sg68
F0.003347158432006836
sg69
F0.0029501914978027344
sg70
I3
sg71
I4
sa(dp74
g67
I1
sg68
F1.6948750019073486
sg69
F1.6056640148162842
sg70
I2
sg71
I3
sa(dp75
g67
I1
sg68
F0.0025680065155029297
sg69
F0.0023801326751708984
sg70
I1
sg71
I2
sasS'total_cqs'
p76
I6
ssI9
(dp77
S'iters'
p78
I3
sS'meta'
p79
(lp80
(dp81
S'objective'
p82
I1
sS'query_time'
p83
F10.998900890350342
sS'comp_time'
p84
F0.589954137802124
sS'exec_cq'
p85
I3
sS'total_cq'
p86
I6
sa(dp87
g82
I2
sg83
F39.96578502655029
sg84
F5.258994102478027
sg85
I2
sg86
I4
sa(dp88
g82
I0
sg83
F0.015848875045776367
sg84
F0.25920605659484863
sg85
I1
sg86
I3
sasS'total_cqs'
p89
I6
ssI13
(dp90
S'iters'
p91
I1
sS'meta'
p92
(lp93
(dp94
S'objective'
p95
I30
sS'query_time'
p96
F0.020711898803710938
sS'comp_time'
p97
F0.01017618179321289
sS'exec_cq'
p98
I6
sS'total_cq'
p99
I8
sasS'total_cqs'
p100
I8
ssI14
(dp101
S'iters'
p102
I2
sS'meta'
p103
(lp104
(dp105
S'objective'
p106
I7
sS'query_time'
p107
F0.8501620292663574
sS'comp_time'
p108
F0.0077397823333740234
sS'exec_cq'
p109
I5
sS'total_cq'
p110
I5
sa(dp111
g106
I5
sg107
F0.0007698535919189453
sg108
F0.004927158355712891
sg109
I4
sg110
I4
sasS'total_cqs'
p112
I5
ssI16
(dp113
S'iters'
p114
I2
sS'meta'
p115
(lp116
(dp117
S'objective'
p118
I1
sS'query_time'
p119
F1.3826379776000977
sS'comp_time'
p120
F0.009427309036254883
sS'exec_cq'
p121
I4
sS'total_cq'
p122
I5
sa(dp123
g118
I2
sg119
F0.0008909702301025391
sg120
F0.005255937576293945
sg121
I2
sg122
I2
sasS'total_cqs'
p124
I5
ssI18
(dp125
S'iters'
p126
I3
sS'meta'
p127
(lp128
(dp129
S'objective'
p130
I1
sS'query_time'
p131
F0.15277600288391113
sS'comp_time'
p132
F0.0038280487060546875
sS'exec_cq'
p133
I4
sS'total_cq'
p134
I5
sa(dp135
g130
I0
sg131
F0.054028987884521484
sg132
F0.00039196014404296875
sg133
I1
sg134
I3
sa(dp136
g130
I2
sg131
F3.2901763916015625e-05
sg132
F0.00012993812561035156
sg133
I2
sg134
I2
sasS'total_cqs'
p137
I5
ssI20
(dp138
S'iters'
p139
I6
sS'meta'
p140
(lp141
(dp142
S'objective'
p143
I36
sS'query_time'
p144
F7.319833993911743
sS'comp_time'
p145
F1.1429359912872314
sS'exec_cq'
p146
I6
sS'total_cq'
p147
I12
sa(dp148
g143
I15
sg144
F3.6155049800872803
sg145
F0.4662201404571533
sg146
I4
sg147
I10
sa(dp149
g143
I8
sg144
F0.175184965133667
sg145
F1.083395004272461
sg146
I4
sg147
I8
sa(dp150
g143
I8
sg144
F2.288818359375e-05
sg145
F0.0004608631134033203
sg146
I2
sg147
I6
sa(dp151
g143
I9
sg144
F0.1788311004638672
sg145
F0.8037846088409424
sg146
I2
sg147
I5
sa(dp152
g143
I4
sg144
F0.10437703132629395
sg145
F0.004359006881713867
sg146
I2
sg147
I4
sasS'total_cqs'
p153
I12
ssI21
(dp154
S'iters'
p155
I5
sS'meta'
p156
(lp157
(dp158
S'objective'
p159
I25
sS'query_time'
p160
F29.940233945846558
sS'comp_time'
p161
F0.3414180278778076
sS'exec_cq'
p162
I8
sS'total_cq'
p163
I14
sa(dp164
g159
I7
sg160
F30.422116994857788
sg161
F1.9140620231628418
sg162
I4
sg163
I10
sa(dp165
g159
I4
sg160
F0.009529829025268555
sg161
F0.06673359870910645
sg162
I4
sg163
I6
sa(dp166
g159
I4
sg160
F0.00940084457397461
sg161
F0.3379952907562256
sg162
I2
sg163
I4
sa(dp167
g159
I2
sg160
F0.014882087707519531
sg161
F0.00015306472778320312
sg162
I1
sg163
I2
sasS'total_cqs'
p168
I14
ssI22
(dp169
S'iters'
p170
I1
sS'meta'
p171
(lp172
(dp173
S'objective'
p174
I1
sS'query_time'
p175
F0.015178918838500977
sS'comp_time'
p176
F0.0016999244689941406
sS'exec_cq'
p177
I1
sS'total_cq'
p178
I2
sasS'total_cqs'
p179
I2
ssI25
(dp180
S'iters'
p181
I4
sS'meta'
p182
(lp183
(dp184
S'objective'
p185
I22
sS'query_time'
p186
F44.48941707611084
sS'comp_time'
p187
F4.874937295913696
sS'exec_cq'
p188
I4
sS'total_cq'
p189
I7
sa(dp190
g185
I1
sg186
F4.748703956604004
sg187
F0.33901000022888184
sg188
I2
sg189
I5
sa(dp191
g185
I1
sg186
F0.009675025939941406
sg187
F0.04694795608520508
sg188
I2
sg189
I3
sa(dp192
g185
I1
sg186
F0.0071370601654052734
sg187
F0.046019792556762695
sg188
I1
sg189
I2
sasS'total_cqs'
p193
I7
ssI26
(dp194
S'iters'
p195
I6
sS'meta'
p196
(lp197
(dp198
S'objective'
p199
I45
sS'query_time'
p200
F0.26726794242858887
sS'comp_time'
p201
F0.03159332275390625
sS'exec_cq'
p202
I4
sS'total_cq'
p203
I13
sa(dp204
g199
I30
sg200
F0.02060699462890625
sg201
F0.00023221969604492188
sg202
I2
sg203
I11
sa(dp205
g199
I27
sg200
F0.0010440349578857422
sg201
F0.0073282718658447266
sg202
I2
sg203
I9
sa(dp206
g199
I10
sg200
F4.133293151855469
sg201
F0.014559745788574219
sg202
I2
sg203
I8
sa(dp207
g199
I6
sg200
F19.07428503036499
sg201
F5.072997331619263
sg202
I3
sg203
I6
sa(dp208
g199
I5
sg200
F0.004286050796508789
sg201
F0.00016498565673828125
sg202
I1
sg203
I5
sasS'total_cqs'
p209
I13
ssI27
(dp210
S'iters'
p211
I1
sS'meta'
p212
(lp213
(dp214
S'objective'
p215
I1
sS'query_time'
p216
F0.19093799591064453
sS'comp_time'
p217
F0.008493900299072266
sS'exec_cq'
p218
I1
sS'total_cq'
p219
I2
sasS'total_cqs'
p220
I2
ssI28
(dp221
S'iters'
p222
I8
sS'meta'
p223
(lp224
(dp225
S'objective'
p226
I63
sS'query_time'
p227
F1.396420955657959
sS'comp_time'
p228
F0.12577009201049805
sS'exec_cq'
p229
I6
sS'total_cq'
p230
I14
sa(dp231
g226
I44
sg227
F0.0025298595428466797
sg228
F0.01917243003845215
sg229
I4
sg230
I12
sa(dp232
g226
I48
sg227
F0.007632017135620117
sg228
F0.00016117095947265625
sg229
I2
sg230
I9
sa(dp233
g226
I28
sg227
F0.019552946090698242
sg228
F0.0010981559753417969
sg229
I1
sg230
I8
sa(dp234
g226
I16
sg227
F0.002900838851928711
sg228
F0.00010228157043457031
sg229
I1
sg230
I7
sa(dp235
g226
I7
sg227
F0.00860905647277832
sg228
F0.0004482269287109375
sg229
I1
sg230
I6
sa(dp236
g226
I6
sg227
F1.0967254638671875e-05
sg228
F6.842613220214844e-05
sg229
I1
sg230
I5
sa(dp237
g226
I2
sg227
F0.002546072006225586
sg228
F0.00011014938354492188
sg229
I1
sg230
I4
sasS'total_cqs'
p238
I14
ssI29
(dp239
S'iters'
p240
I1
sS'meta'
p241
(lp242
(dp243
S'objective'
p244
I1
sS'query_time'
p245
F0.010648965835571289
sS'comp_time'
p246
F0.0014846324920654297
sS'exec_cq'
p247
I2
sS'total_cq'
p248
I2
sasS'total_cqs'
p249
I2
ssI30
(dp250
S'iters'
p251
I1
sS'meta'
p252
(lp253
(dp254
S'objective'
p255
I1
sS'query_time'
p256
F0.3428080081939697
sS'comp_time'
p257
F0.003954172134399414
sS'exec_cq'
p258
I2
sS'total_cq'
p259
I2
sasS'total_cqs'
p260
I2
ssI31
(dp261
S'iters'
p262
I3
sS'meta'
p263
(lp264
(dp265
S'objective'
p266
I21
sS'query_time'
p267
F1.6350429058074951
sS'comp_time'
p268
F0.05751156806945801
sS'exec_cq'
p269
I5
sS'total_cq'
p270
I9
sa(dp271
g266
I2
sg267
F0.008150815963745117
sg268
F0.10623669624328613
sg269
I3
sg270
I3
sa(dp272
g266
I1
sg267
F0.0029840469360351562
sg268
F0.015802860260009766
sg269
I2
sg270
I2
sasS'total_cqs'
p273
I9
ssI32
(dp274
S'iters'
p275
I4
sS'meta'
p276
(lp277
(dp278
S'objective'
p279
I2
sS'query_time'
p280
F18.542815923690796
sS'comp_time'
p281
F5.358053207397461
sS'exec_cq'
p282
I4
sS'total_cq'
p283
I7
sa(dp284
g279
I1
sg280
F1.081712007522583
sg281
F0.021485090255737305
sg282
I2
sg283
I5
sa(dp285
g279
I0
sg280
F0.25344300270080566
sg281
F0.7569754123687744
sg282
I2
sg283
I3
sa(dp286
g279
I2
sg280
F0.02965998649597168
sg281
F0.4182288646697998
sg282
I1
sg283
I2
sasS'total_cqs'
p287
I7
ssI33
(dp288
S'iters'
p289
I1
sS'meta'
p290
(lp291
(dp292
S'objective'
p293
I1
sS'query_time'
p294
F0.02670907974243164
sS'comp_time'
p295
F0.0019001960754394531
sS'exec_cq'
p296
I2
sS'total_cq'
p297
I2
sasS'total_cqs'
p298
I2
ssI35
(dp299
S'iters'
p300
I2
sS'meta'
p301
(lp302
(dp303
S'objective'
p304
I1
sS'query_time'
p305
F14.73756194114685
sS'comp_time'
p306
F0.2827610969543457
sS'exec_cq'
p307
I4
sS'total_cq'
p308
I5
sa(dp309
g304
I2
sg305
F0.0005850791931152344
sg306
F0.0036971569061279297
sg307
I1
sg308
I2
sasS'total_cqs'
p310
I5
ssI37
(dp311
S'iters'
p312
I7
sS'meta'
p313
(lp314
(dp315
S'objective'
p316
I35
sS'query_time'
p317
F1.2478368282318115
sS'comp_time'
p318
F0.1945781707763672
sS'exec_cq'
p319
I4
sS'total_cq'
p320
I10
sa(dp321
g316
I27
sg317
F0.011189937591552734
sg318
F0.06135916709899902
sg319
I3
sg320
I9
sa(dp322
g316
I22
sg317
F0.45978403091430664
sg318
F0.08808612823486328
sg319
I4
sg320
I8
sa(dp323
g316
I19
sg317
F0.005281925201416016
sg318
F0.041385650634765625
sg319
I2
sg320
I7
sa(dp324
g316
I8
sg317
F0.502722978591919
sg318
F0.027238130569458008
sg319
I1
sg320
I6
sa(dp325
g316
I4
sg317
F0.0035071372985839844
sg318
F0.014599084854125977
sg319
I3
sg320
I5
sa(dp326
g316
I2
sg317
F0.0030519962310791016
sg318
F0.014368772506713867
sg319
I2
sg320
I2
sasS'total_cqs'
p327
I10
ssI40
(dp328
S'iters'
p329
I1
sS'meta'
p330
(lp331
(dp332
S'objective'
p333
I1
sS'query_time'
p334
F0.004073143005371094
sS'comp_time'
p335
F0.0016376972198486328
sS'exec_cq'
p336
I1
sS'total_cq'
p337
I2
sasS'total_cqs'
p338
I2
ssI41
(dp339
S'iters'
p340
I2
sS'meta'
p341
(lp342
(dp343
S'objective'
p344
I5
sS'query_time'
p345
F1.1002159118652344
sS'comp_time'
p346
F0.006760358810424805
sS'exec_cq'
p347
I2
sS'total_cq'
p348
I6
sa(dp349
g344
I2
sg345
F0.0006301403045654297
sg346
F0.00372314453125
sg347
I2
sg348
I2
sasS'total_cqs'
p350
I6
ssI42
(dp351
S'iters'
p352
I1
sS'meta'
p353
(lp354
(dp355
S'objective'
p356
I1
sS'query_time'
p357
F0.00817108154296875
sS'comp_time'
p358
F0.001065969467163086
sS'exec_cq'
p359
I1
sS'total_cq'
p360
I2
sasS'total_cqs'
p361
I2
ssI44
(dp362
S'iters'
p363
I3
sS'meta'
p364
(lp365
(dp366
S'objective'
p367
I7
sS'query_time'
p368
F1.3003277778625488
sS'comp_time'
p369
F0.17493772506713867
sS'exec_cq'
p370
I2
sS'total_cq'
p371
I5
sa(dp372
g367
I1
sg368
F0.21977496147155762
sg369
F0.0015411376953125
sg370
I2
sg371
I4
sa(dp373
g367
I1
sg368
F7.295608520507812e-05
sg369
F0.00036072731018066406
sg370
I1
sg371
I2
sasS'total_cqs'
p374
I5
ssI45
(dp375
S'iters'
p376
I2
sS'meta'
p377
(lp378
(dp379
S'objective'
p380
I5
sS'query_time'
p381
F0.044363975524902344
sS'comp_time'
p382
F0.00781393051147461
sS'exec_cq'
p383
I3
sS'total_cq'
p384
I5
sa(dp385
g380
I1
sg381
F0.00018596649169921875
sg382
F0.0007617473602294922
sg383
I2
sg384
I2
sasS'total_cqs'
p386
I5
ssI48
(dp387
S'iters'
p388
I1
sS'meta'
p389
(lp390
(dp391
S'objective'
p392
I1
sS'query_time'
p393
F0.165938138961792
sS'comp_time'
p394
F0.005062103271484375
sS'exec_cq'
p395
I2
sS'total_cq'
p396
I2
sasS'total_cqs'
p397
I2
ssI49
(dp398
S'iters'
p399
I3
sS'meta'
p400
(lp401
(dp402
S'objective'
p403
I1
sS'query_time'
p404
F0.26778578758239746
sS'comp_time'
p405
F0.011957406997680664
sS'exec_cq'
p406
I4
sS'total_cq'
p407
I5
sa(dp408
g403
I0
sg404
F0.0014820098876953125
sg405
F0.004003286361694336
sg406
I3
sg407
I3
sa(dp409
g403
I2
sg404
F0.0003981590270996094
sg405
F0.002364635467529297
sg406
I2
sg407
I2
sasS'total_cqs'
p410
I5
ssI50
(dp411
S'iters'
p412
I3
sS'meta'
p413
(lp414
(dp415
S'objective'
p416
I5
sS'query_time'
p417
F0.7238719463348389
sS'comp_time'
p418
F0.05770397186279297
sS'exec_cq'
p419
I5
sS'total_cq'
p420
I5
sa(dp421
g416
I2
sg417
F0.00014781951904296875
sg418
F0.0010199546813964844
sg419
I4
sg420
I4
sa(dp422
g416
I0
sg417
F0.000141143798828125
sg418
F0.0010254383087158203
sg419
I3
sg420
I3
sasS'total_cqs'
p423
I5
ssI55
(dp424
S'iters'
p425
I1
sS'meta'
p426
(lp427
(dp428
S'objective'
p429
I1
sS'query_time'
p430
F24.590930938720703
sS'comp_time'
p431
F3.482145071029663
sS'exec_cq'
p432
I2
sS'total_cq'
p433
I2
sasS'total_cqs'
p434
I2
ssI57
(dp435
S'iters'
p436
I1
sS'meta'
p437
(lp438
(dp439
S'objective'
p440
I2
sS'query_time'
p441
F12.478031158447266
sS'comp_time'
p442
F3.197342872619629
sS'exec_cq'
p443
I2
sS'total_cq'
p444
I3
sasS'total_cqs'
p445
I3
ssI116
(dp446
S'iters'
p447
I3
sS'meta'
p448
(lp449
(dp450
S'objective'
p451
I161
sS'query_time'
p452
F3.960824966430664
sS'comp_time'
p453
F0.5539579391479492
sS'exec_cq'
p454
I15
sS'total_cq'
p455
I21
sa(dp456
g451
I146
sg452
F0.5346419811248779
sg453
F0.0041658878326416016
sg454
I14
sg455
I19
sa(dp457
g451
I11
sg452
F0.0012729167938232422
sg453
F0.003592252731323242
sg454
I2
sg455
I2
sasS'total_cqs'
p458
I21
ssI117
(dp459
S'iters'
p460
I2
sS'meta'
p461
(lp462
(dp463
S'objective'
p464
I5
sS'query_time'
p465
F0.007297039031982422
sS'comp_time'
p466
F0.001542806625366211
sS'exec_cq'
p467
I3
sS'total_cq'
p468
I5
sa(dp469
g464
I4
sg465
F0.004694938659667969
sg466
F8.821487426757812e-05
sg467
I2
sg468
I4
sasS'total_cqs'
p470
I5
ss.