(dp0
I1
(dp1
S'iters'
p2
I4
sS'meta'
p3
(lp4
(dp5
S'objective'
p6
I1
sS'query_time'
p7
F32.17866110801697
sS'comp_time'
p8
F0.24735808372497559
sS'exec_cq'
p9
I2
sS'total_cq'
p10
I6
sa(dp11
g6
I1
sg7
F11.738857984542847
sg8
F0.22658276557922363
sg9
I3
sg10
I4
sa(dp12
g6
I0
sg7
F0.010895013809204102
sg8
F0.017129898071289062
sg9
I2
sg10
I3
sa(dp13
g6
I1
sg7
F0.00882411003112793
sg8
F0.006995677947998047
sg9
I1
sg10
I2
sasS'total_cqs'
p14
I6
ssI2
(dp15
S'iters'
p16
I1
sS'meta'
p17
(lp18
(dp19
S'objective'
p20
I19
sS'query_time'
p21
F1.0115890502929688
sS'comp_time'
p22
F0.04819226264953613
sS'exec_cq'
p23
I6
sS'total_cq'
p24
I6
sasS'total_cqs'
p25
I6
ssI3
(dp26
S'iters'
p27
I17
sS'meta'
p28
(lp29
(dp30
S'objective'
p31
I443
sS'query_time'
p32
F26.33404803276062
sS'comp_time'
p33
F0.2711305618286133
sS'exec_cq'
p34
I33
sS'total_cq'
p35
I33
sa(dp36
g31
I386
sg32
F0.024799823760986328
sg33
F0.12218570709228516
sg34
I30
sg35
I30
sa(dp37
g31
I330
sg32
F0.02390909194946289
sg33
F0.1280384063720703
sg34
I27
sg35
I27
sa(dp38
g31
I275
sg32
F0.01130533218383789
sg33
F0.08314275741577148
sg34
I24
sg35
I24
sa(dp39
g31
I221
sg32
F0.011575698852539062
sg33
F0.024194955825805664
sg34
I22
sg35
I22
sa(dp40
g31
I190
sg32
F0.07717108726501465
sg33
F0.021255970001220703
sg34
I19
sg35
I19
sa(dp41
g31
I151
sg32
F0.008911848068237305
sg33
F0.023215293884277344
sg34
I16
sg35
I16
sa(dp42
g31
I110
sg32
F0.005869150161743164
sg33
F0.013518333435058594
sg34
I13
sg35
I13
sa(dp43
g31
I87
sg32
F0.003094911575317383
sg33
F0.06391739845275879
sg34
I9
sg35
I11
sa(dp44
g31
I63
sg32
F0.002974987030029297
sg33
F0.006262540817260742
sg34
I8
sg35
I10
sa(dp45
g31
I39
sg32
F0.0001690387725830078
sg33
F0.00032329559326171875
sg34
I4
sg35
I9
sa(dp46
g31
I15
sg32
F0.00014495849609375
sg33
F0.00031113624572753906
sg34
I3
sg35
I8
sa(dp47
g31
I16
sg32
F0.0006580352783203125
sg33
F0.0011892318725585938
sg34
I5
sg35
I7
sa(dp48
g31
I10
sg32
F0.0001590251922607422
sg33
F0.00030612945556640625
sg34
I2
sg35
I6
sa(dp49
g31
I11
sg32
F0.0026540756225585938
sg33
F0.005922555923461914
sg34
I5
sg35
I5
sa(dp50
g31
I11
sg32
F0.0025763511657714844
sg33
F0.00439906120300293
sg34
I4
sg35
I4
sa(dp51
g31
I11
sg32
F0.002148866653442383
sg33
F0.005510807037353516
sg34
I3
sg35
I3
sasS'total_cqs'
p52
I33
ssI4
(dp53
S'iters'
p54
I0
sS'meta'
p55
(lp56
sS'total_cqs'
p57
I1
ssI5
(dp58
S'iters'
p59
I0
sS'meta'
p60
(lp61
sS'total_cqs'
p62
I1
ssI6
(dp63
S'iters'
p64
I3
sS'meta'
p65
(lp66
(dp67
S'objective'
p68
I1
sS'query_time'
p69
F15.733790874481201
sS'comp_time'
p70
F0.0037860870361328125
sS'exec_cq'
p71
I4
sS'total_cq'
p72
I5
sa(dp73
g68
I2
sg69
F0.0003349781036376953
sg70
F0.008486747741699219
sg71
I2
sg72
I3
sa(dp74
g68
I1
sg69
F0.00030517578125
sg70
F0.0005340576171875
sg71
I2
sg72
I2
sasS'total_cqs'
p75
I5
ssI7
(dp76
S'iters'
p77
I0
sS'meta'
p78
(lp79
sS'total_cqs'
p80
I1
ssI8
(dp81
S'iters'
p82
I5
sS'meta'
p83
(lp84
(dp85
S'objective'
p86
I9
sS'query_time'
p87
F83.79500198364258
sS'comp_time'
p88
F0.3532590866088867
sS'exec_cq'
p89
I5
sS'total_cq'
p90
I6
sa(dp91
g86
I5
sg87
F20.074070930480957
sg88
F0.13820481300354004
sg89
I5
sg90
I5
sa(dp92
g86
I2
sg87
F0.034976959228515625
sg88
F0.20330405235290527
sg89
I4
sg90
I4
sa(dp93
g86
I0
sg87
F0.034401893615722656
sg88
F0.22098708152770996
sg89
I3
sg90
I3
sa(dp94
g86
I1
sg87
F2.2172927856445312e-05
sg88
F0.00012493133544921875
sg89
I2
sg90
I2
sasS'total_cqs'
p95
I6
ssI9
(dp96
S'iters'
p97
I3
sS'meta'
p98
(lp99
(dp100
S'objective'
p101
I5
sS'query_time'
p102
F48.045225858688354
sS'comp_time'
p103
F2.6767470836639404
sS'exec_cq'
p104
I5
sS'total_cq'
p105
I6
sa(dp106
g101
I2
sg102
F0.0434870719909668
sg103
F0.08408403396606445
sg104
I3
sg105
I3
sa(dp107
g101
I1
sg102
F0.1630871295928955
sg103
F0.012626171112060547
sg104
I2
sg105
I2
sasS'total_cqs'
p108
I6
ssI10
(dp109
S'iters'
p110
I0
sS'meta'
p111
(lp112
sS'total_cqs'
p113
I1
ssI11
(dp114
S'iters'
p115
I0
sS'meta'
p116
(lp117
sS'total_cqs'
p118
I1
ssI12
(dp119
S'iters'
p120
I0
sS'meta'
p121
(lp122
sS'total_cqs'
p123
I1
ssI13
(dp124
S'iters'
p125
I2
sS'meta'
p126
(lp127
(dp128
S'objective'
p129
I32
sS'query_time'
p130
F0.007592201232910156
sS'comp_time'
p131
F0.007893800735473633
sS'exec_cq'
p132
I8
sS'total_cq'
p133
I8
sa(dp134
g129
I32
sg130
F3.910064697265625e-05
sg131
F7.796287536621094e-05
sg132
I7
sg133
I7
sasS'total_cqs'
p135
I8
ssI14
(dp136
S'iters'
p137
I3
sS'meta'
p138
(lp139
(dp140
S'objective'
p141
I7
sS'query_time'
p142
F1.0164170265197754
sS'comp_time'
p143
F0.0045909881591796875
sS'exec_cq'
p144
I5
sS'total_cq'
p145
I5
sa(dp146
g141
I5
sg142
F0.0005688667297363281
sg143
F0.0009298324584960938
sg144
I4
sg145
I4
sa(dp147
g141
I6
sg142
F0.00057220458984375
sg143
F0.0010607242584228516
sg144
I3
sg145
I3
sasS'total_cqs'
p148
I5
ssI16
(dp149
S'iters'
p150
I3
sS'meta'
p151
(lp152
(dp153
S'objective'
p154
I3
sS'query_time'
p155
F1.336540937423706
sS'comp_time'
p156
F0.006230831146240234
sS'exec_cq'
p157
I4
sS'total_cq'
p158
I5
sa(dp159
g154
I2
sg155
F0.04272294044494629
sg156
F0.0001800060272216797
sg157
I3
sg158
I3
sa(dp160
g154
I2
sg155
F5.412101745605469e-05
sg156
F0.00011205673217773438
sg157
I2
sg158
I2
sasS'total_cqs'
p161
I5
ssI17
(dp162
S'iters'
p163
I0
sS'meta'
p164
(lp165
sS'total_cqs'
p166
I1
ssI18
(dp167
S'iters'
p168
I3
sS'meta'
p169
(lp170
(dp171
S'objective'
p172
I1
sS'query_time'
p173
F0.16391277313232422
sS'comp_time'
p174
F0.004616975784301758
sS'exec_cq'
p175
I4
sS'total_cq'
p176
I5
sa(dp177
g172
I1
sg173
F4.887580871582031e-05
sg174
F0.00012612342834472656
sg175
I2
sg176
I3
sa(dp178
g172
I1
sg173
F0.03226494789123535
sg174
F3.5762786865234375e-05
sg175
I1
sg176
I2
sasS'total_cqs'
p179
I5
ssI19
(dp180
S'iters'
p181
I0
sS'meta'
p182
(lp183
sS'total_cqs'
p184
I1
ssI20
(dp185
S'iters'
p186
I6
sS'meta'
p187
(lp188
(dp189
S'objective'
p190
I34
sS'query_time'
p191
F9.426716089248657
sS'comp_time'
p192
F0.3324911594390869
sS'exec_cq'
p193
I6
sS'total_cq'
p194
I12
sa(dp195
g190
I32
sg191
F4.805700063705444
sg192
F0.6280345916748047
sg193
I8
sg194
I10
sa(dp196
g190
I30
sg191
F0.21397900581359863
sg192
F0.6389687061309814
sg193
I7
sg194
I8
sa(dp197
g190
I25
sg191
F0.2071239948272705
sg192
F0.6499691009521484
sg193
I5
sg194
I6
sa(dp198
g190
I23
sg191
F0.0981292724609375
sg192
F0.16019010543823242
sg193
I4
sg194
I5
sa(dp199
g190
I25
sg191
F0.09294986724853516
sg192
F0.0003809928894042969
sg193
I4
sg194
I4
sasS'total_cqs'
p200
I12
ssI21
(dp201
S'iters'
p202
I10
sS'meta'
p203
(lp204
(dp205
S'objective'
p206
I67
sS'query_time'
p207
F124.52441787719727
sS'comp_time'
p208
F1.0873091220855713
sS'exec_cq'
p209
I12
sS'total_cq'
p210
I14
sa(dp211
g206
I58
sg207
F0.09633207321166992
sg208
F0.045262813568115234
sg209
I10
sg210
I12
sa(dp212
g206
I44
sg207
F0.02137017250061035
sg208
F0.13178515434265137
sg209
I8
sg210
I10
sa(dp213
g206
I32
sg207
F0.009619951248168945
sg208
F0.01840066909790039
sg209
I6
sg210
I8
sa(dp214
g206
I23
sg207
F0.0010712146759033203
sg208
F0.0014162063598632812
sg209
I5
sg210
I7
sa(dp215
g206
I14
sg207
F0.0009250640869140625
sg208
F0.0013704299926757812
sg209
I4
sg210
I6
sa(dp216
g206
I6
sg207
F0.00102996826171875
sg208
F0.0017261505126953125
sg209
I3
sg210
I5
sa(dp217
g206
I1
sg207
F9.059906005859375e-06
sg208
F5.984306335449219e-05
sg209
I2
sg210
I4
sa(dp218
g206
I0
sg207
F0.3361058235168457
sg208
F0.002444028854370117
sg209
I1
sg210
I3
sa(dp219
g206
I2
sg207
F9.059906005859375e-06
sg208
F3.0279159545898438e-05
sg209
I1
sg210
I2
sasS'total_cqs'
p220
I14
ssI22
(dp221
S'iters'
p222
I1
sS'meta'
p223
(lp224
(dp225
S'objective'
p226
I1
sS'query_time'
p227
F0.002919912338256836
sS'comp_time'
p228
F0.0010998249053955078
sS'exec_cq'
p229
I1
sS'total_cq'
p230
I2
sasS'total_cqs'
p231
I2
ssI23
(dp232
S'iters'
p233
I0
sS'meta'
p234
(lp235
sS'total_cqs'
p236
I1
ssI24
(dp237
S'iters'
p238
I0
sS'meta'
p239
(lp240
sS'total_cqs'
p241
I1
ssI25
(dp242
S'iters'
p243
I4
sS'meta'
p244
(lp245
(dp246
S'objective'
p247
I8
sS'query_time'
p248
F71.05650901794434
sS'comp_time'
p249
F2.0922534465789795
sS'exec_cq'
p250
I6
sS'total_cq'
p251
I7
sa(dp252
g247
I4
sg248
F0.7782981395721436
sg249
F2.137721061706543
sg250
I4
sg251
I5
sa(dp253
g247
I1
sg248
F1.621246337890625e-05
sg249
F0.00010585784912109375
sg250
I2
sg251
I3
sa(dp254
g247
I3
sg248
F5.9604644775390625e-06
sg249
F1.7881393432617188e-05
sg250
I1
sg251
I2
sasS'total_cqs'
p255
I7
ssI26
(dp256
S'iters'
p257
I9
sS'meta'
p258
(lp259
(dp260
S'objective'
p261
I45
sS'query_time'
p262
F0.14113116264343262
sS'comp_time'
p263
F0.025974035263061523
sS'exec_cq'
p264
I2
sS'total_cq'
p265
I13
sa(dp266
g261
I40
sg262
F23.119395971298218
sg263
F0.008051156997680664
sg264
I7
sg265
I11
sa(dp267
g261
I30
sg262
F0.02723383903503418
sg263
F0.0010089874267578125
sg264
I4
sg265
I9
sa(dp268
g261
I20
sg262
F3.96079683303833
sg263
F0.14864873886108398
sg264
I5
sg265
I8
sa(dp269
g261
I15
sg262
F0.0015232563018798828
sg263
F0.0018839836120605469
sg264
I5
sg265
I6
sa(dp270
g261
I9
sg262
F0.0008978843688964844
sg263
F0.0014438629150390625
sg264
I4
sg265
I5
sa(dp271
g261
I4
sg262
F0.000659942626953125
sg263
F0.0009634494781494141
sg264
I3
sg265
I4
sa(dp272
g261
I0
sg262
F0.0005929470062255859
sg263
F0.0011441707611083984
sg264
I2
sg265
I3
sa(dp273
g261
I3
sg262
F0.0001239776611328125
sg263
F9.918212890625e-05
sg264
I1
sg265
I2
sasS'total_cqs'
p274
I13
ssI27
(dp275
S'iters'
p276
I1
sS'meta'
p277
(lp278
(dp279
S'objective'
p280
I1
sS'query_time'
p281
F0.18382716178894043
sS'comp_time'
p282
F0.0017349720001220703
sS'exec_cq'
p283
I1
sS'total_cq'
p284
I2
sasS'total_cqs'
p285
I2
ssI28
(dp286
S'iters'
p287
I10
sS'meta'
p288
(lp289
(dp290
S'objective'
p291
I65
sS'query_time'
p292
F1.5087618827819824
sS'comp_time'
p293
F0.10955357551574707
sS'exec_cq'
p294
I6
sS'total_cq'
p295
I14
sa(dp296
g291
I51
sg292
F0.00548100471496582
sg293
F0.00684356689453125
sg294
I6
sg295
I12
sa(dp297
g291
I40
sg292
F0.014051675796508789
sg293
F0.00020384788513183594
sg294
I3
sg295
I9
sa(dp298
g291
I28
sg292
F0.009207010269165039
sg293
F0.0001537799835205078
sg294
I3
sg295
I8
sa(dp299
g291
I17
sg292
F1.9073486328125e-05
sg293
F0.00011682510375976562
sg294
I2
sg295
I7
sa(dp300
g291
I13
sg292
F0.0001239776611328125
sg293
F8.893013000488281e-05
sg294
I1
sg295
I6
sa(dp301
g291
I7
sg292
F0.022166013717651367
sg293
F0.00012421607971191406
sg294
I1
sg295
I5
sa(dp302
g291
I2
sg292
F1.1920928955078125e-05
sg293
F3.719329833984375e-05
sg294
I1
sg295
I4
sa(dp303
g291
I0
sg292
F0.017861127853393555
sg293
F0.00010395050048828125
sg294
I1
sg295
I3
sa(dp304
g291
I2
sg292
F0.0015490055084228516
sg293
F3.504753112792969e-05
sg294
I1
sg295
I2
sasS'total_cqs'
p305
I14
ssI29
(dp306
S'iters'
p307
I1
sS'meta'
p308
(lp309
(dp310
S'objective'
p311
I1
sS'query_time'
p312
F0.004655122756958008
sS'comp_time'
p313
F0.0013358592987060547
sS'exec_cq'
p314
I2
sS'total_cq'
p315
I2
sasS'total_cqs'
p316
I2
ssI30
(dp317
S'iters'
p318
I1
sS'meta'
p319
(lp320
(dp321
S'objective'
p322
I1
sS'query_time'
p323
F0.3179209232330322
sS'comp_time'
p324
F0.0022771358489990234
sS'exec_cq'
p325
I2
sS'total_cq'
p326
I2
sasS'total_cqs'
p327
I2
ssI31
(dp328
S'iters'
p329
I3
sS'meta'
p330
(lp331
(dp332
S'objective'
p333
I15
sS'query_time'
p334
F5.906044960021973
sS'comp_time'
p335
F0.16504979133605957
sS'exec_cq'
p336
I9
sS'total_cq'
p337
I9
sa(dp338
g333
I3
sg334
F0.010087966918945312
sg335
F0.01751112937927246
sg336
I3
sg337
I3
sa(dp339
g333
I4
sg334
F0.0036089420318603516
sg335
F0.005360126495361328
sg336
I2
sg337
I2
sasS'total_cqs'
p340
I9
ssI32
(dp341
S'iters'
p342
I4
sS'meta'
p343
(lp344
(dp345
S'objective'
p346
I2
sS'query_time'
p347
F21.410222053527832
sS'comp_time'
p348
F2.0295560359954834
sS'exec_cq'
p349
I4
sS'total_cq'
p350
I7
sa(dp351
g346
I1
sg347
F1.3004729747772217
sg348
F0.005242824554443359
sg349
I2
sg350
I5
sa(dp352
g346
I1
sg347
F0.4287540912628174
sg348
F1.2254981994628906
sg349
I2
sg350
I3
sa(dp353
g346
I1
sg347
F0.03171706199645996
sg348
F0.15630865097045898
sg349
I1
sg350
I2
sasS'total_cqs'
p354
I7
ssI33
(dp355
S'iters'
p356
I1
sS'meta'
p357
(lp358
(dp359
S'objective'
p360
I1
sS'query_time'
p361
F0.024616003036499023
sS'comp_time'
p362
F0.0014722347259521484
sS'exec_cq'
p363
I2
sS'total_cq'
p364
I2
sasS'total_cqs'
p365
I2
ssI34
(dp366
S'iters'
p367
I0
sS'meta'
p368
(lp369
sS'total_cqs'
p370
I1
ssI35
(dp371
S'iters'
p372
I3
sS'meta'
p373
(lp374
(dp375
S'objective'
p376
I1
sS'query_time'
p377
F14.664967060089111
sS'comp_time'
p378
F0.08570003509521484
sS'exec_cq'
p379
I4
sS'total_cq'
p380
I5
sa(dp381
g376
I1
sg377
F0.01275491714477539
sg378
F0.08878898620605469
sg379
I2
sg380
I3
sa(dp382
g376
I1
sg377
F0.012579917907714844
sg378
F0.022661924362182617
sg379
I2
sg380
I2
sasS'total_cqs'
p383
I5
ssI37
(dp384
S'iters'
p385
I5
sS'meta'
p386
(lp387
(dp388
S'objective'
p389
I35
sS'query_time'
p390
F2.496608018875122
sS'comp_time'
p391
F0.09340429306030273
sS'exec_cq'
p392
I9
sS'total_cq'
p393
I10
sa(dp394
g389
I27
sg390
F0.01483011245727539
sg391
F0.028662681579589844
sg392
I8
sg393
I9
sa(dp395
g389
I20
sg390
F0.009611129760742188
sg391
F0.06967496871948242
sg392
I7
sg393
I8
sa(dp396
g389
I12
sg390
F0.007230043411254883
sg391
F0.01652073860168457
sg392
I6
sg393
I7
sa(dp397
g389
I6
sg390
F0.0028040409088134766
sg391
F0.004077911376953125
sg392
I2
sg393
I2
sasS'total_cqs'
p398
I10
ssI38
(dp399
S'iters'
p400
I0
sS'meta'
p401
(lp402
sS'total_cqs'
p403
I1
ssI39
(dp404
S'iters'
p405
I0
sS'meta'
p406
(lp407
sS'total_cqs'
p408
I1
ssI40
(dp409
S'iters'
p410
I1
sS'meta'
p411
(lp412
(dp413
S'objective'
p414
I1
sS'query_time'
p415
F0.008588075637817383
sS'comp_time'
p416
F0.0018918514251708984
sS'exec_cq'
p417
I1
sS'total_cq'
p418
I2
sasS'total_cqs'
p419
I2
ssI41
(dp420
S'iters'
p421
I3
sS'meta'
p422
(lp423
(dp424
S'objective'
p425
I1
sS'query_time'
p426
F10.454030990600586
sS'comp_time'
p427
F1.112673044204712
sS'exec_cq'
p428
I3
sS'total_cq'
p429
I6
sa(dp430
g425
I0
sg426
F0.9370760917663574
sg427
F0.0006921291351318359
sg428
I2
sg429
I4
sa(dp431
g425
I3
sg426
F0.0006630420684814453
sg427
F0.0009601116180419922
sg428
I2
sg429
I2
sasS'total_cqs'
p432
I6
ssI42
(dp433
S'iters'
p434
I1
sS'meta'
p435
(lp436
(dp437
S'objective'
p438
I1
sS'query_time'
p439
F0.006806850433349609
sS'comp_time'
p440
F0.0009598731994628906
sS'exec_cq'
p441
I1
sS'total_cq'
p442
I2
sasS'total_cqs'
p443
I2
ssI43
(dp444
S'iters'
p445
I0
sS'meta'
p446
(lp447
sS'total_cqs'
p448
I1
ssI44
(dp449
S'iters'
p450
I3
sS'meta'
p451
(lp452
(dp453
S'objective'
p454
I3
sS'query_time'
p455
F1.4780840873718262
sS'comp_time'
p456
F0.029314041137695312
sS'exec_cq'
p457
I4
sS'total_cq'
p458
I5
sa(dp459
g454
I1
sg455
F0.08580398559570312
sg456
F0.030048847198486328
sg457
I2
sg458
I3
sa(dp460
g454
I2
sg455
F0.01792001724243164
sg456
F0.012714862823486328
sg457
I1
sg458
I2
sasS'total_cqs'
p461
I5
ssI45
(dp462
S'iters'
p463
I2
sS'meta'
p464
(lp465
(dp466
S'objective'
p467
I5
sS'query_time'
p468
F0.02701711654663086
sS'comp_time'
p469
F0.0032470226287841797
sS'exec_cq'
p470
I4
sS'total_cq'
p471
I5
sa(dp472
g467
I3
sg468
F0.00013399124145507812
sg469
F0.0001881122589111328
sg470
I2
sg471
I2
sasS'total_cqs'
p473
I5
ssI46
(dp474
S'iters'
p475
I0
sS'meta'
p476
(lp477
sS'total_cqs'
p478
I1
ssI47
(dp479
S'iters'
p480
I0
sS'meta'
p481
(lp482
sS'total_cqs'
p483
I1
ssI48
(dp484
S'iters'
p485
I1
sS'meta'
p486
(lp487
(dp488
S'objective'
p489
I1
sS'query_time'
p490
F0.09881091117858887
sS'comp_time'
p491
F0.004034280776977539
sS'exec_cq'
p492
I2
sS'total_cq'
p493
I2
sasS'total_cqs'
p494
I2
ssI49
(dp495
S'iters'
p496
I3
sS'meta'
p497
(lp498
(dp499
S'objective'
p500
I1
sS'query_time'
p501
F0.16562104225158691
sS'comp_time'
p502
F0.0033190250396728516
sS'exec_cq'
p503
I4
sS'total_cq'
p504
I5
sa(dp505
g500
I0
sg501
F0.04217219352722168
sg502
F0.00028014183044433594
sg503
I3
sg504
I3
sa(dp506
g500
I2
sg501
F3.218650817871094e-05
sg502
F9.107589721679688e-05
sg503
I2
sg504
I2
sasS'total_cqs'
p507
I5
ssI50
(dp508
S'iters'
p509
I4
sS'meta'
p510
(lp511
(dp512
S'objective'
p513
I5
sS'query_time'
p514
F0.7507379055023193
sS'comp_time'
p515
F0.0025408267974853516
sS'exec_cq'
p516
I5
sS'total_cq'
p517
I5
sa(dp518
g513
I2
sg514
F0.0001430511474609375
sg515
F0.00032401084899902344
sg516
I4
sg517
I4
sa(dp519
g513
I0
sg514
F0.00010013580322265625
sg515
F0.00022125244140625
sg516
I3
sg517
I3
sa(dp520
g513
I1
sg514
F9.298324584960938e-05
sg515
F0.000263214111328125
sg516
I2
sg517
I2
sasS'total_cqs'
p521
I5
ssI51
(dp522
S'iters'
p523
I0
sS'meta'
p524
(lp525
sS'total_cqs'
p526
I1
ssI52
(dp527
S'iters'
p528
I0
sS'meta'
p529
(lp530
sS'total_cqs'
p531
I1
ssI53
(dp532
S'iters'
p533
I0
sS'meta'
p534
(lp535
sS'total_cqs'
p536
I1
ssI55
(dp537
S'iters'
p538
I1
sS'meta'
p539
(lp540
(dp541
S'objective'
p542
I1
sS'query_time'
p543
F24.270370960235596
sS'comp_time'
p544
F0.013795852661132812
sS'exec_cq'
p545
I2
sS'total_cq'
p546
I2
sasS'total_cqs'
p547
I2
ssI56
(dp548
S'iters'
p549
I0
sS'meta'
p550
(lp551
sS'total_cqs'
p552
I1
ssI57
(dp553
S'iters'
p554
I2
sS'meta'
p555
(lp556
(dp557
S'objective'
p558
I0
sS'query_time'
p559
F12.660825967788696
sS'comp_time'
p560
F1.3194243907928467
sS'exec_cq'
p561
I2
sS'total_cq'
p562
I3
sa(dp563
g558
I1
sg559
F0.3489809036254883
sg560
F0.5667328834533691
sg561
I1
sg562
I2
sasS'total_cqs'
p564
I3
ssI108
(dp565
S'iters'
p566
I0
sS'meta'
p567
(lp568
sS'total_cqs'
p569
I1
ssI109
(dp570
S'iters'
p571
I0
sS'meta'
p572
(lp573
sS'total_cqs'
p574
I1
ssI116
(dp575
S'iters'
p576
I5
sS'meta'
p577
(lp578
(dp579
S'objective'
p580
I183
sS'query_time'
p581
F3.663825035095215
sS'comp_time'
p582
F0.253521203994751
sS'exec_cq'
p583
I15
sS'total_cq'
p584
I21
sa(dp585
g580
I181
sg581
F0.003286123275756836
sg582
F0.0002598762512207031
sg583
I15
sg584
I19
sa(dp586
g580
I172
sg581
F0.06979489326477051
sg582
F0.0002110004425048828
sg583
I15
sg584
I18
sa(dp587
g580
I177
sg581
F0.5355813503265381
sg582
F0.0006344318389892578
sg583
I17
sg584
I17
sa(dp588
g580
I1
sg581
F0.0007719993591308594
sg582
F0.0008571147918701172
sg583
I2
sg584
I2
sasS'total_cqs'
p589
I21
ssI117
(dp590
S'iters'
p591
I2
sS'meta'
p592
(lp593
(dp594
S'objective'
p595
I7
sS'query_time'
p596
F0.005728960037231445
sS'comp_time'
p597
F0.0020918846130371094
sS'exec_cq'
p598
I3
sS'total_cq'
p599
I5
sa(dp600
g595
I9
sg596
F0.0027420520782470703
sg597
F4.8160552978515625e-05
sg598
I4
sg599
I4
sasS'total_cqs'
p601
I5
ssI118
(dp602
S'iters'
p603
I0
sS'meta'
p604
(lp605
sS'total_cqs'
p606
I1
ssI122
(dp607
S'iters'
p608
I0
sS'meta'
p609
(lp610
sS'total_cqs'
p611
I1
ss.