(dp0
I1
(dp1
S'iters'
p2
I2
sS'meta'
p3
(lp4
(dp5
S'objective'
p6
I1
sS'query_time'
p7
F6.163747072219849
sS'comp_time'
p8
F7.605552673339844e-05
sS'exec_cq'
p9
I1
sS'total_cq'
p10
I6
sa(dp11
g6
I1
sg7
F276.6696219444275
sg8
F0.0001499652862548828
sg9
I1
sg10
I2
sasS'total_cqs'
p12
I6
ssI2
(dp13
S'iters'
p14
I1
sS'meta'
p15
(lp16
(dp17
S'objective'
p18
I9
sS'query_time'
p19
F0.7011001110076904
sS'comp_time'
p20
F8.20159912109375e-05
sS'exec_cq'
p21
I1
sS'total_cq'
p22
I6
sasS'total_cqs'
p23
I6
ssI3
(dp24
S'iters'
p25
I1
sS'meta'
p26
(lp27
(dp28
S'objective'
p29
I495
sS'query_time'
p30
F0.2589399814605713
sS'comp_time'
p31
F0.00011301040649414062
sS'exec_cq'
p32
I1
sS'total_cq'
p33
I33
sasS'total_cqs'
p34
I33
ssI4
(dp35
S'iters'
p36
I0
sS'meta'
p37
(lp38
sS'total_cqs'
p39
I1
ssI5
(dp40
S'iters'
p41
I0
sS'meta'
p42
(lp43
sS'total_cqs'
p44
I1
ssI6
(dp45
S'iters'
p46
I3
sS'meta'
p47
(lp48
(dp49
S'objective'
p50
I5
sS'query_time'
p51
F2.6077778339385986
sS'comp_time'
p52
F0.00014591217041015625
sS'exec_cq'
p53
I1
sS'total_cq'
p54
I5
sa(dp55
g50
I4
sg51
F16.140522003173828
sg52
F0.00014925003051757812
sg53
I1
sg54
I3
sa(dp56
g50
I3
sg51
F4.388855934143066
sg52
F8.082389831542969e-05
sg53
I2
sg54
I2
sasS'total_cqs'
p57
I5
ssI7
(dp58
S'iters'
p59
I0
sS'meta'
p60
(lp61
sS'total_cqs'
p62
I1
ssI8
(dp63
S'iters'
p64
I2
sS'meta'
p65
(lp66
(dp67
S'objective'
p68
I7
sS'query_time'
p69
F44.40495800971985
sS'comp_time'
p70
F0.0002448558807373047
sS'exec_cq'
p71
I3
sS'total_cq'
p72
I6
sa(dp73
g68
I5
sg69
F0.01813197135925293
sg70
F4.792213439941406e-05
sg71
I2
sg72
I2
sasS'total_cqs'
p74
I6
ssI9
(dp75
S'iters'
p76
I1
sS'meta'
p77
(lp78
(dp79
S'objective'
p80
I9
sS'query_time'
p81
F0.9852159023284912
sS'comp_time'
p82
F5.6743621826171875e-05
sS'exec_cq'
p83
I1
sS'total_cq'
p84
I6
sasS'total_cqs'
p85
I6
ssI10
(dp86
S'iters'
p87
I0
sS'meta'
p88
(lp89
sS'total_cqs'
p90
I1
ssI11
(dp91
S'iters'
p92
I0
sS'meta'
p93
(lp94
sS'total_cqs'
p95
I1
ssI12
(dp96
S'iters'
p97
I0
sS'meta'
p98
(lp99
sS'total_cqs'
p100
I1
ssI13
(dp101
S'iters'
p102
I1
sS'meta'
p103
(lp104
(dp105
S'objective'
p106
I20
sS'query_time'
p107
F0.2787349224090576
sS'comp_time'
p108
F7.891654968261719e-05
sS'exec_cq'
p109
I1
sS'total_cq'
p110
I8
sasS'total_cqs'
p111
I8
ssI14
(dp112
S'iters'
p113
I1
sS'meta'
p114
(lp115
(dp116
S'objective'
p117
I5
sS'query_time'
p118
F0.8046708106994629
sS'comp_time'
p119
F6.103515625e-05
sS'exec_cq'
p120
I1
sS'total_cq'
p121
I5
sasS'total_cqs'
p122
I5
ssI16
(dp123
S'iters'
p124
I2
sS'meta'
p125
(lp126
(dp127
S'objective'
p128
I3
sS'query_time'
p129
F5.982491970062256
sS'comp_time'
p130
F8.082389831542969e-05
sS'exec_cq'
p131
I1
sS'total_cq'
p132
I5
sa(dp133
g128
I1
sg129
F101.28385996818542
sg130
F7.390975952148438e-05
sg131
I2
sg132
I2
sasS'total_cqs'
p134
I5
ssI17
(dp135
S'iters'
p136
I0
sS'meta'
p137
(lp138
sS'total_cqs'
p139
I1
ssI18
(dp140
S'iters'
p141
I2
sS'meta'
p142
(lp143
(dp144
S'objective'
p145
I1
sS'query_time'
p146
F0.35202479362487793
sS'comp_time'
p147
F8.392333984375e-05
sS'exec_cq'
p148
I1
sS'total_cq'
p149
I5
sa(dp150
g145
I3
sg146
F0.2567720413208008
sg147
F8.082389831542969e-05
sg148
I2
sg149
I2
sasS'total_cqs'
p151
I5
ssI19
(dp152
S'iters'
p153
I0
sS'meta'
p154
(lp155
sS'total_cqs'
p156
I1
ssI20
(dp157
S'iters'
p158
I1
sS'meta'
p159
(lp160
(dp161
S'objective'
p162
I54
sS'query_time'
p163
F0.13585996627807617
sS'comp_time'
p164
F7.414817810058594e-05
sS'exec_cq'
p165
I1
sS'total_cq'
p166
I12
sasS'total_cqs'
p167
I12
ssI21
(dp168
S'iters'
p169
I1
sS'meta'
p170
(lp171
(dp172
S'objective'
p173
I77
sS'query_time'
p174
F0.04546999931335449
sS'comp_time'
p175
F8.296966552734375e-05
sS'exec_cq'
p176
I1
sS'total_cq'
p177
I14
sasS'total_cqs'
p178
I14
ssI22
(dp179
S'iters'
p180
I1
sS'meta'
p181
(lp182
(dp183
S'objective'
p184
I1
sS'query_time'
p185
F0.004377841949462891
sS'comp_time'
p186
F0.00037598609924316406
sS'exec_cq'
p187
I1
sS'total_cq'
p188
I2
sasS'total_cqs'
p189
I2
ssI23
(dp190
S'iters'
p191
I0
sS'meta'
p192
(lp193
sS'total_cqs'
p194
I1
ssI24
(dp195
S'iters'
p196
I0
sS'meta'
p197
(lp198
sS'total_cqs'
p199
I1
ssI25
(dp200
S'iters'
p201
I1
sS'meta'
p202
(lp203
(dp204
S'objective'
p205
I14
sS'query_time'
p206
F0.3792388439178467
sS'comp_time'
p207
F8.296966552734375e-05
sS'exec_cq'
p208
I1
sS'total_cq'
p209
I7
sasS'total_cqs'
p210
I7
ssI26
(dp211
S'iters'
p212
I1
sS'meta'
p213
(lp214
(dp215
S'objective'
p216
I65
sS'query_time'
p217
F0.014249086380004883
sS'comp_time'
p218
F9.012222290039062e-05
sS'exec_cq'
p219
I1
sS'total_cq'
p220
I13
sasS'total_cqs'
p221
I13
ssI27
(dp222
S'iters'
p223
I1
sS'meta'
p224
(lp225
(dp226
S'objective'
p227
I1
sS'query_time'
p228
F0.31496191024780273
sS'comp_time'
p229
F0.00011014938354492188
sS'exec_cq'
p230
I1
sS'total_cq'
p231
I2
sasS'total_cqs'
p232
I2
ssI28
(dp233
S'iters'
p234
I1
sS'meta'
p235
(lp236
(dp237
S'objective'
p238
I77
sS'query_time'
p239
F1.1959848403930664
sS'comp_time'
p240
F0.00015115737915039062
sS'exec_cq'
p241
I1
sS'total_cq'
p242
I14
sasS'total_cqs'
p243
I14
ssI29
(dp244
S'iters'
p245
I1
sS'meta'
p246
(lp247
(dp248
S'objective'
p249
I1
sS'query_time'
p250
F0.00601506233215332
sS'comp_time'
p251
F7.295608520507812e-05
sS'exec_cq'
p252
I1
sS'total_cq'
p253
I2
sasS'total_cqs'
p254
I2
ssI30
(dp255
S'iters'
p256
I1
sS'meta'
p257
(lp258
(dp259
S'objective'
p260
I1
sS'query_time'
p261
F0.35520100593566895
sS'comp_time'
p262
F6.985664367675781e-05
sS'exec_cq'
p263
I1
sS'total_cq'
p264
I2
sasS'total_cqs'
p265
I2
ssI31
(dp266
S'iters'
p267
I1
sS'meta'
p268
(lp269
(dp270
S'objective'
p271
I27
sS'query_time'
p272
F0.513577938079834
sS'comp_time'
p273
F7.486343383789062e-05
sS'exec_cq'
p274
I1
sS'total_cq'
p275
I9
sasS'total_cqs'
p276
I9
ssI32
(dp277
S'iters'
p278
I1
sS'meta'
p279
(lp280
(dp281
S'objective'
p282
I14
sS'query_time'
p283
F0.18470001220703125
sS'comp_time'
p284
F0.00011134147644042969
sS'exec_cq'
p285
I1
sS'total_cq'
p286
I7
sasS'total_cqs'
p287
I7
ssI33
(dp288
S'iters'
p289
I1
sS'meta'
p290
(lp291
(dp292
S'objective'
p293
I1
sS'query_time'
p294
F0.0291750431060791
sS'comp_time'
p295
F8.0108642578125e-05
sS'exec_cq'
p296
I1
sS'total_cq'
p297
I2
sasS'total_cqs'
p298
I2
ssI34
(dp299
S'iters'
p300
I0
sS'meta'
p301
(lp302
sS'total_cqs'
p303
I1
ssI35
(dp304
S'iters'
p305
I1
sS'meta'
p306
(lp307
(dp308
S'objective'
p309
I5
sS'query_time'
p310
F0.32340502738952637
sS'comp_time'
p311
F8.106231689453125e-05
sS'exec_cq'
p312
I1
sS'total_cq'
p313
I5
sasS'total_cqs'
p314
I5
ssI37
(dp315
S'iters'
p316
I1
sS'meta'
p317
(lp318
(dp319
S'objective'
p320
I35
sS'query_time'
p321
F0.42272496223449707
sS'comp_time'
p322
F8.606910705566406e-05
sS'exec_cq'
p323
I1
sS'total_cq'
p324
I10
sasS'total_cqs'
p325
I10
ssI38
(dp326
S'iters'
p327
I0
sS'meta'
p328
(lp329
sS'total_cqs'
p330
I1
ssI39
(dp331
S'iters'
p332
I0
sS'meta'
p333
(lp334
sS'total_cqs'
p335
I1
ssI40
(dp336
S'iters'
p337
I1
sS'meta'
p338
(lp339
(dp340
S'objective'
p341
I1
sS'query_time'
p342
F14.965853929519653
sS'comp_time'
p343
F0.00017905235290527344
sS'exec_cq'
p344
I2
sS'total_cq'
p345
I2
sasS'total_cqs'
p346
I2
ssI41
(dp347
S'iters'
p348
I2
sS'meta'
p349
(lp350
(dp351
S'objective'
p352
I5
sS'query_time'
p353
F6.026479005813599
sS'comp_time'
p354
F8.392333984375e-05
sS'exec_cq'
p355
I1
sS'total_cq'
p356
I6
sa(dp357
g352
I4
sg353
F64.03159809112549
sg354
F8.416175842285156e-05
sg355
I2
sg356
I2
sasS'total_cqs'
p358
I6
ssI42
(dp359
S'iters'
p360
I1
sS'meta'
p361
(lp362
(dp363
S'objective'
p364
I1
sS'query_time'
p365
F0.010782003402709961
sS'comp_time'
p366
F7.200241088867188e-05
sS'exec_cq'
p367
I1
sS'total_cq'
p368
I2
sasS'total_cqs'
p369
I2
ssI43
(dp370
S'iters'
p371
I0
sS'meta'
p372
(lp373
sS'total_cqs'
p374
I1
ssI44
(dp375
S'iters'
p376
I1
sS'meta'
p377
(lp378
(dp379
S'objective'
p380
I5
sS'query_time'
p381
F0.008760213851928711
sS'comp_time'
p382
F6.389617919921875e-05
sS'exec_cq'
p383
I1
sS'total_cq'
p384
I5
sasS'total_cqs'
p385
I5
ssI45
(dp386
S'iters'
p387
I2
sS'meta'
p388
(lp389
(dp390
S'objective'
p391
I3
sS'query_time'
p392
F0.039205074310302734
sS'comp_time'
p393
F0.000118255615234375
sS'exec_cq'
p394
I1
sS'total_cq'
p395
I5
sa(dp396
g391
I1
sg392
F0.5095348358154297
sg393
F8.988380432128906e-05
sg394
I2
sg395
I2
sasS'total_cqs'
p397
I5
ssI46
(dp398
S'iters'
p399
I0
sS'meta'
p400
(lp401
sS'total_cqs'
p402
I1
ssI47
(dp403
S'iters'
p404
I0
sS'meta'
p405
(lp406
sS'total_cqs'
p407
I1
ssI48
(dp408
S'iters'
p409
I1
sS'meta'
p410
(lp411
(dp412
S'objective'
p413
I1
sS'query_time'
p414
F0.10065507888793945
sS'comp_time'
p415
F6.008148193359375e-05
sS'exec_cq'
p416
I1
sS'total_cq'
p417
I2
sasS'total_cqs'
p418
I2
ssI49
(dp419
S'iters'
p420
I2
sS'meta'
p421
(lp422
(dp423
S'objective'
p424
I3
sS'query_time'
p425
F0.09642219543457031
sS'comp_time'
p426
F9.918212890625e-05
sS'exec_cq'
p427
I1
sS'total_cq'
p428
I5
sa(dp429
g424
I1
sg425
F0.07735419273376465
sg426
F0.00011610984802246094
sg427
I1
sg428
I2
sasS'total_cqs'
p430
I5
ssI50
(dp431
S'iters'
p432
I1
sS'meta'
p433
(lp434
(dp435
S'objective'
p436
I5
sS'query_time'
p437
F0.7312180995941162
sS'comp_time'
p438
F7.414817810058594e-05
sS'exec_cq'
p439
I1
sS'total_cq'
p440
I5
sasS'total_cqs'
p441
I5
ssI51
(dp442
S'iters'
p443
I0
sS'meta'
p444
(lp445
sS'total_cqs'
p446
I1
ssI52
(dp447
S'iters'
p448
I0
sS'meta'
p449
(lp450
sS'total_cqs'
p451
I1
ssI53
(dp452
S'iters'
p453
I0
sS'meta'
p454
(lp455
sS'total_cqs'
p456
I1
ssI55
(dp457
S'iters'
p458
I1
sS'meta'
p459
(lp460
(dp461
S'objective'
p462
I1
sS'query_time'
p463
F7.157904863357544
sS'comp_time'
p464
F0.00010228157043457031
sS'exec_cq'
p465
I1
sS'total_cq'
p466
I2
sasS'total_cqs'
p467
I2
ssI56
(dp468
S'iters'
p469
I0
sS'meta'
p470
(lp471
sS'total_cqs'
p472
I1
ssI57
(dp473
S'iters'
p474
I1
sS'meta'
p475
(lp476
(dp477
S'objective'
p478
I0
sS'query_time'
p479
F10.788827896118164
sS'comp_time'
p480
F0.0002448558807373047
sS'exec_cq'
p481
I1
sS'total_cq'
p482
I3
sasS'total_cqs'
p483
I3
ssI108
(dp484
S'iters'
p485
I0
sS'meta'
p486
(lp487
sS'total_cqs'
p488
I1
ssI109
(dp489
S'iters'
p490
I0
sS'meta'
p491
(lp492
sS'total_cqs'
p493
I1
ssI116
(dp494
S'iters'
p495
I1
sS'meta'
p496
(lp497
(dp498
S'objective'
p499
I189
sS'query_time'
p500
F0.3182840347290039
sS'comp_time'
p501
F9.417533874511719e-05
sS'exec_cq'
p502
I1
sS'total_cq'
p503
I21
sasS'total_cqs'
p504
I21
ssI117
(dp505
S'iters'
p506
I1
sS'meta'
p507
(lp508
(dp509
S'objective'
p510
I5
sS'query_time'
p511
F0.0068340301513671875
sS'comp_time'
p512
F6.413459777832031e-05
sS'exec_cq'
p513
I1
sS'total_cq'
p514
I5
sasS'total_cqs'
p515
I5
ssI118
(dp516
S'iters'
p517
I0
sS'meta'
p518
(lp519
sS'total_cqs'
p520
I1
ssI122
(dp521
S'iters'
p522
I0
sS'meta'
p523
(lp524
sS'total_cqs'
p525
I1
ss.