(dp0
I1
(dp1
S'iters'
p2
I3
sS'meta'
p3
(lp4
(dp5
S'objective'
p6
I2
sS'query_time'
p7
F15.249446153640747
sS'comp_time'
p8
F0.00016498565673828125
sS'exec_cq'
p9
I1
sS'total_cq'
p10
I6
sa(dp11
g6
I0
sg7
F0.5911321640014648
sg8
F0.0008878707885742188
sg9
I1
sg10
I4
sa(dp12
g6
I0
sg7
F12.322289943695068
sg8
F0.0005369186401367188
sg9
I1
sg10
I2
sasS'total_cqs'
p13
I6
ssI2
(dp14
S'iters'
p15
I1
sS'meta'
p16
(lp17
(dp18
S'objective'
p19
I4
sS'query_time'
p20
F1.0138921737670898
sS'comp_time'
p21
F9.703636169433594e-05
sS'exec_cq'
p22
I3
sS'total_cq'
p23
I6
sasS'total_cqs'
p24
I6
ssI3
(dp25
S'iters'
p26
I9
sS'meta'
p27
(lp28
(dp29
S'objective'
p30
I29
sS'query_time'
p31
F0.022069931030273438
sS'comp_time'
p32
F8.797645568847656e-05
sS'exec_cq'
p33
I1
sS'total_cq'
p34
I33
sa(dp35
g30
I29
sg31
F0.004137992858886719
sg32
F7.700920104980469e-05
sg33
I1
sg34
I31
sa(dp36
g30
I24
sg31
F0.7952868938446045
sg32
F0.00013113021850585938
sg33
I1
sg34
I30
sa(dp37
g30
I25
sg31
F0.04750204086303711
sg32
F0.00011205673217773438
sg33
I1
sg34
I27
sa(dp38
g30
I22
sg31
F0.028403043746948242
sg32
F9.989738464355469e-05
sg33
I1
sg34
I26
sa(dp39
g30
I18
sg31
F0.017913103103637695
sg32
F8.988380432128906e-05
sg33
I1
sg34
I24
sa(dp40
g30
I19
sg31
F0.013276815414428711
sg32
F8.20159912109375e-05
sg33
I1
sg34
I21
sa(dp41
g30
I18
sg31
F0.04579019546508789
sg32
F9.679794311523438e-05
sg33
I1
sg34
I20
sa(dp42
g30
I17
sg31
F0.23794913291931152
sg32
F0.00010085105895996094
sg33
I1
sg34
I19
sasS'total_cqs'
p43
I33
ssI6
(dp44
S'iters'
p45
I3
sS'meta'
p46
(lp47
(dp48
S'objective'
p49
I1
sS'query_time'
p50
F7.19380784034729
sS'comp_time'
p51
F0.00010824203491210938
sS'exec_cq'
p52
I1
sS'total_cq'
p53
I5
sa(dp54
g49
I1
sg50
F0.12298893928527832
sg51
F6.794929504394531e-05
sg52
I1
sg53
I3
sa(dp55
g49
I0
sg50
F1.89451003074646
sg51
F7.009506225585938e-05
sg52
I1
sg53
I2
sasS'total_cqs'
p56
I5
ssI8
(dp57
S'iters'
p58
I4
sS'meta'
p59
(lp60
(dp61
S'objective'
p62
I4
sS'query_time'
p63
F22.108262062072754
sS'comp_time'
p64
F0.000263214111328125
sS'exec_cq'
p65
I2
sS'total_cq'
p66
I6
sa(dp67
g62
I1
sg63
F22.14606499671936
sg64
F0.0004563331604003906
sg65
I2
sg66
I5
sa(dp68
g62
I1
sg63
F21.67917490005493
sg64
F0.0003631114959716797
sg65
I3
sg66
I3
sa(dp69
g62
I0
sg63
F0.054479122161865234
sg64
F0.0001571178436279297
sg65
I2
sg66
I2
sasS'total_cqs'
p70
I6
ssI9
(dp71
S'iters'
p72
I2
sS'meta'
p73
(lp74
(dp75
S'objective'
p76
I4
sS'query_time'
p77
F1.9471559524536133
sS'comp_time'
p78
F8.702278137207031e-05
sS'exec_cq'
p79
I1
sS'total_cq'
p80
I6
sa(dp81
g76
I3
sg77
F20.707587003707886
sg78
F0.00026988983154296875
sg79
I2
sg80
I5
sasS'total_cqs'
p82
I6
ssI13
(dp83
S'iters'
p84
I1
sS'meta'
p85
(lp86
(dp87
S'objective'
p88
I6
sS'query_time'
p89
F0.3680710792541504
sS'comp_time'
p90
F9.012222290039062e-05
sS'exec_cq'
p91
I2
sS'total_cq'
p92
I8
sasS'total_cqs'
p93
I8
ssI14
(dp94
S'iters'
p95
I1
sS'meta'
p96
(lp97
(dp98
S'objective'
p99
I3
sS'query_time'
p100
F1.2603681087493896
sS'comp_time'
p101
F7.104873657226562e-05
sS'exec_cq'
p102
I2
sS'total_cq'
p103
I5
sasS'total_cqs'
p104
I5
ssI16
(dp105
S'iters'
p106
I2
sS'meta'
p107
(lp108
(dp109
S'objective'
p110
I1
sS'query_time'
p111
F4.927742958068848
sS'comp_time'
p112
F8.0108642578125e-05
sS'exec_cq'
p113
I1
sS'total_cq'
p114
I5
sa(dp115
g110
I0
sg111
F94.47298097610474
sg112
F7.700920104980469e-05
sg113
I2
sg114
I2
sasS'total_cqs'
p116
I5
ssI18
(dp117
S'iters'
p118
I3
sS'meta'
p119
(lp120
(dp121
S'objective'
p122
I1
sS'query_time'
p123
F3.644792079925537
sS'comp_time'
p124
F0.0001010894775390625
sS'exec_cq'
p125
I1
sS'total_cq'
p126
I5
sa(dp127
g122
I1
sg123
F0.25632810592651367
sg124
F9.202957153320312e-05
sg125
I1
sg126
I3
sa(dp128
g122
I0
sg123
F0.29732513427734375
sg124
F8.106231689453125e-05
sg125
I2
sg126
I2
sasS'total_cqs'
p129
I5
ssI20
(dp130
S'iters'
p131
I4
sS'meta'
p132
(lp133
(dp134
S'objective'
p135
I10
sS'query_time'
p136
F10.363404035568237
sS'comp_time'
p137
F0.00018978118896484375
sS'exec_cq'
p138
I1
sS'total_cq'
p139
I12
sa(dp140
g135
I9
sg136
F0.8903830051422119
sg137
F8.487701416015625e-05
sg138
I2
sg139
I11
sa(dp141
g135
I8
sg136
F3.7698779106140137
sg137
F9.202957153320312e-05
sg138
I2
sg139
I10
sa(dp142
g135
I7
sg136
F0.09836888313293457
sg137
F7.891654968261719e-05
sg138
I1
sg139
I9
sasS'total_cqs'
p143
I12
ssI21
(dp144
S'iters'
p145
I1
sS'meta'
p146
(lp147
(dp148
S'objective'
p149
I12
sS'query_time'
p150
F0.030795812606811523
sS'comp_time'
p151
F9.393692016601562e-05
sS'exec_cq'
p152
I1
sS'total_cq'
p153
I14
sasS'total_cqs'
p154
I14
ssI22
(dp155
S'iters'
p156
I1
sS'meta'
p157
(lp158
(dp159
S'objective'
p160
I0
sS'query_time'
p161
F0.011713981628417969
sS'comp_time'
p162
F7.319450378417969e-05
sS'exec_cq'
p163
I1
sS'total_cq'
p164
I2
sasS'total_cqs'
p165
I2
ssI25
(dp166
S'iters'
p167
I2
sS'meta'
p168
(lp169
(dp170
S'objective'
p171
I3
sS'query_time'
p172
F6.9221978187561035
sS'comp_time'
p173
F0.0001418590545654297
sS'exec_cq'
p174
I1
sS'total_cq'
p175
I7
sa(dp176
g171
I3
sg172
F24.822829008102417
sg173
F9.393692016601562e-05
sg174
I2
sg175
I5
sasS'total_cqs'
p177
I7
ssI26
(dp178
S'iters'
p179
I9
sS'meta'
p180
(lp181
(dp182
S'objective'
p183
I9
sS'query_time'
p184
F0.09432411193847656
sS'comp_time'
p185
F0.0001049041748046875
sS'exec_cq'
p186
I1
sS'total_cq'
p187
I13
sa(dp188
g183
I9
sg184
F0.04090380668640137
sg185
F0.00010776519775390625
sg186
I1
sg187
I11
sa(dp189
g183
I6
sg184
F2.8333609104156494
sg185
F9.083747863769531e-05
sg186
I1
sg187
I10
sa(dp190
g183
I4
sg184
F1.0771660804748535
sg185
F9.584426879882812e-05
sg186
I1
sg187
I8
sa(dp191
g183
I4
sg184
F0.027627944946289062
sg185
F6.699562072753906e-05
sg186
I1
sg187
I6
sa(dp192
g183
I3
sg184
F0.0315248966217041
sg185
F5.984306335449219e-05
sg186
I1
sg187
I5
sa(dp193
g183
I2
sg184
F0.049041032791137695
sg185
F5.507469177246094e-05
sg186
I1
sg187
I4
sa(dp194
g183
I1
sg184
F0.02731013298034668
sg185
F5.1021575927734375e-05
sg186
I1
sg187
I3
sa(dp195
g183
I0
sg184
F0.0014729499816894531
sg185
F4.291534423828125e-05
sg186
I1
sg187
I2
sasS'total_cqs'
p196
I13
ssI27
(dp197
S'iters'
p198
I1
sS'meta'
p199
(lp200
(dp201
S'objective'
p202
I0
sS'query_time'
p203
F0.16343212127685547
sS'comp_time'
p204
F8.082389831542969e-05
sS'exec_cq'
p205
I1
sS'total_cq'
p206
I2
sasS'total_cqs'
p207
I2
ssI28
(dp208
S'iters'
p209
I2
sS'meta'
p210
(lp211
(dp212
S'objective'
p213
I12
sS'query_time'
p214
F2.1301989555358887
sS'comp_time'
p215
F0.0001049041748046875
sS'exec_cq'
p216
I1
sS'total_cq'
p217
I14
sa(dp218
g213
I11
sg214
F1.858262062072754
sg215
F0.000102996826171875
sg216
I1
sg217
I13
sasS'total_cqs'
p219
I14
ssI29
(dp220
S'iters'
p221
I1
sS'meta'
p222
(lp223
(dp224
S'objective'
p225
I0
sS'query_time'
p226
F0.005311012268066406
sS'comp_time'
p227
F6.413459777832031e-05
sS'exec_cq'
p228
I2
sS'total_cq'
p229
I2
sasS'total_cqs'
p230
I2
ssI30
(dp231
S'iters'
p232
I1
sS'meta'
p233
(lp234
(dp235
S'objective'
p236
I0
sS'query_time'
p237
F0.4044368267059326
sS'comp_time'
p238
F0.00010180473327636719
sS'exec_cq'
p239
I2
sS'total_cq'
p240
I2
sasS'total_cqs'
p241
I2
ssI31
(dp242
S'iters'
p243
I3
sS'meta'
p244
(lp245
(dp246
S'objective'
p247
I5
sS'query_time'
p248
F1.0112690925598145
sS'comp_time'
p249
F0.00010704994201660156
sS'exec_cq'
p250
I1
sS'total_cq'
p251
I9
sa(dp252
g247
I5
sg248
F0.00610804557800293
sg249
F6.198883056640625e-05
sg250
I1
sg251
I7
sa(dp253
g247
I4
sg248
F0.5320851802825928
sg249
F8.988380432128906e-05
sg250
I1
sg251
I6
sasS'total_cqs'
p254
I9
ssI32
(dp255
S'iters'
p256
I2
sS'meta'
p257
(lp258
(dp259
S'objective'
p260
I5
sS'query_time'
p261
F1.9804039001464844
sS'comp_time'
p262
F0.0007748603820800781
sS'exec_cq'
p263
I1
sS'total_cq'
p264
I7
sa(dp265
g260
I4
sg261
F0.12881207466125488
sg262
F7.581710815429688e-05
sg263
I1
sg264
I6
sasS'total_cqs'
p266
I7
ssI33
(dp267
S'iters'
p268
I1
sS'meta'
p269
(lp270
(dp271
S'objective'
p272
I0
sS'query_time'
p273
F0.040142059326171875
sS'comp_time'
p274
F8.821487426757812e-05
sS'exec_cq'
p275
I1
sS'total_cq'
p276
I2
sasS'total_cqs'
p277
I2
ssI35
(dp278
S'iters'
p279
I4
sS'meta'
p280
(lp281
(dp282
S'objective'
p283
I3
sS'query_time'
p284
F7.609843015670776
sS'comp_time'
p285
F0.0002269744873046875
sS'exec_cq'
p286
I1
sS'total_cq'
p287
I5
sa(dp288
g283
I2
sg284
F6.133540153503418
sg285
F0.00025391578674316406
sg286
I1
sg287
I4
sa(dp289
g283
I1
sg284
F2.077876091003418
sg285
F6.699562072753906e-05
sg286
I1
sg287
I3
sa(dp290
g283
I0
sg284
F0.055628061294555664
sg285
F5.602836608886719e-05
sg286
I1
sg287
I2
sasS'total_cqs'
p291
I5
ssI37
(dp292
S'iters'
p293
I9
sS'meta'
p294
(lp295
(dp296
S'objective'
p297
I8
sS'query_time'
p298
F0.8369920253753662
sS'comp_time'
p299
F0.00012993812561035156
sS'exec_cq'
p300
I1
sS'total_cq'
p301
I10
sa(dp302
g297
I7
sg298
F0.6433210372924805
sg299
F7.796287536621094e-05
sg300
I1
sg301
I9
sa(dp303
g297
I6
sg298
F0.5548229217529297
sg299
F0.0003962516784667969
sg300
I1
sg301
I8
sa(dp304
g297
I5
sg298
F0.0052890777587890625
sg299
F5.817413330078125e-05
sg300
I1
sg301
I7
sa(dp305
g297
I4
sg298
F0.3079049587249756
sg299
F6.079673767089844e-05
sg300
I1
sg301
I6
sa(dp306
g297
I3
sg298
F0.0033960342407226562
sg299
F4.6253204345703125e-05
sg300
I1
sg301
I5
sa(dp307
g297
I2
sg298
F0.002933025360107422
sg299
F7.700920104980469e-05
sg300
I1
sg301
I4
sa(dp308
g297
I1
sg298
F0.0038671493530273438
sg299
F7.319450378417969e-05
sg300
I1
sg301
I3
sa(dp309
g297
I0
sg298
F0.2790560722351074
sg299
F7.414817810058594e-05
sg300
I2
sg301
I2
sasS'total_cqs'
p310
I10
ssI40
(dp311
S'iters'
p312
I1
sS'meta'
p313
(lp314
(dp315
S'objective'
p316
I0
sS'query_time'
p317
F16.485575199127197
sS'comp_time'
p318
F0.00020599365234375
sS'exec_cq'
p319
I1
sS'total_cq'
p320
I2
sasS'total_cqs'
p321
I2
ssI41
(dp322
S'iters'
p323
I4
sS'meta'
p324
(lp325
(dp326
S'objective'
p327
I4
sS'query_time'
p328
F2.126296043395996
sS'comp_time'
p329
F0.0002949237823486328
sS'exec_cq'
p330
I1
sS'total_cq'
p331
I6
sa(dp332
g327
I3
sg328
F0.3199291229248047
sg329
F9.512901306152344e-05
sg330
I1
sg331
I5
sa(dp333
g327
I0
sg328
F4.711353063583374
sg329
F8.511543273925781e-05
sg330
I1
sg331
I4
sa(dp334
g327
I0
sg328
F0.8989300727844238
sg329
F0.00010704994201660156
sg330
I1
sg331
I2
sasS'total_cqs'
p335
I6
ssI42
(dp336
S'iters'
p337
I1
sS'meta'
p338
(lp339
(dp340
S'objective'
p341
I0
sS'query_time'
p342
F16.78676199913025
sS'comp_time'
p343
F0.00028586387634277344
sS'exec_cq'
p344
I1
sS'total_cq'
p345
I2
sasS'total_cqs'
p346
I2
ssI44
(dp347
S'iters'
p348
I3
sS'meta'
p349
(lp350
(dp351
S'objective'
p352
I3
sS'query_time'
p353
F0.015128850936889648
sS'comp_time'
p354
F7.104873657226562e-05
sS'exec_cq'
p355
I1
sS'total_cq'
p356
I5
sa(dp357
g352
I0
sg353
F4.230884075164795
sg354
F8.702278137207031e-05
sg355
I1
sg356
I4
sa(dp358
g352
I0
sg353
F1.0327849388122559
sg354
F7.104873657226562e-05
sg355
I1
sg356
I2
sasS'total_cqs'
p359
I5
ssI45
(dp360
S'iters'
p361
I2
sS'meta'
p362
(lp363
(dp364
S'objective'
p365
I1
sS'query_time'
p366
F0.05260920524597168
sS'comp_time'
p367
F0.00011992454528808594
sS'exec_cq'
p368
I4
sS'total_cq'
p369
I5
sa(dp370
g365
I0
sg366
F5.197360992431641
sg367
F0.00011396408081054688
sg368
I1
sg369
I2
sasS'total_cqs'
p371
I5
ssI48
(dp372
S'iters'
p373
I1
sS'meta'
p374
(lp375
(dp376
S'objective'
p377
I0
sS'query_time'
p378
F0.1222841739654541
sS'comp_time'
p379
F7.891654968261719e-05
sS'exec_cq'
p380
I1
sS'total_cq'
p381
I2
sasS'total_cqs'
p382
I2
ssI49
(dp383
S'iters'
p384
I2
sS'meta'
p385
(lp386
(dp387
S'objective'
p388
I1
sS'query_time'
p389
F2.4699630737304688
sS'comp_time'
p390
F0.00011396408081054688
sS'exec_cq'
p391
I1
sS'total_cq'
p392
I5
sa(dp393
g388
I1
sg389
F0.02596592903137207
sg390
F6.818771362304688e-05
sg391
I1
sg392
I3
sasS'total_cqs'
p394
I5
ssI50
(dp395
S'iters'
p396
I2
sS'meta'
p397
(lp398
(dp399
S'objective'
p400
I3
sS'query_time'
p401
F0.010577201843261719
sS'comp_time'
p402
F8.320808410644531e-05
sS'exec_cq'
p403
I1
sS'total_cq'
p404
I5
sa(dp405
g400
I2
sg401
F0.9896829128265381
sg402
F8.106231689453125e-05
sg403
I1
sg404
I4
sasS'total_cqs'
p406
I5
ssI55
(dp407
S'iters'
p408
I1
sS'meta'
p409
(lp410
(dp411
S'objective'
p412
I0
sS'query_time'
p413
F32.820454120635986
sS'comp_time'
p414
F0.000102996826171875
sS'exec_cq'
p415
I2
sS'total_cq'
p416
I2
sasS'total_cqs'
p417
I2
ssI57
(dp418
S'iters'
p419
I1
sS'meta'
p420
(lp421
(dp422
S'objective'
p423
I1
sS'query_time'
p424
F11.71962308883667
sS'comp_time'
p425
F7.796287536621094e-05
sS'exec_cq'
p426
I1
sS'total_cq'
p427
I3
sasS'total_cqs'
p428
I3
ssI116
(dp429
S'iters'
p430
I3
sS'meta'
p431
(lp432
(dp433
S'objective'
p434
I19
sS'query_time'
p435
F0.22938799858093262
sS'comp_time'
p436
F9.870529174804688e-05
sS'exec_cq'
p437
I4
sS'total_cq'
p438
I21
sa(dp439
g434
I16
sg435
F2.576021194458008
sg436
F0.00020623207092285156
sg437
I3
sg438
I20
sa(dp440
g434
I0
sg435
F0.0023488998413085938
sg436
F0.00010919570922851562
sg437
I1
sg438
I2
sasS'total_cqs'
p441
I21
ssI117
(dp442
S'iters'
p443
I2
sS'meta'
p444
(lp445
(dp446
S'objective'
p447
I3
sS'query_time'
p448
F0.007899999618530273
sS'comp_time'
p449
F9.489059448242188e-05
sS'exec_cq'
p450
I1
sS'total_cq'
p451
I5
sa(dp452
g447
I2
sg448
F0.004743099212646484
sg449
F8.916854858398438e-05
sg450
I1
sg451
I4
sasS'total_cqs'
p453
I5
ss.