(dp0
I1
(dp1
S'iters'
p2
I2
sS'meta'
p3
(lp4
(dp5
S'objective'
p6
I1
sS'query_time'
p7
F17.130357027053833
sS'comp_time'
p8
F1.2622768878936768
sS'exec_cq'
p9
I3
sS'total_cq'
p10
I6
sa(dp11
g6
I2
sg7
F0.18887805938720703
sg8
F1.1781997680664062
sg9
I2
sg10
I2
sasS'total_cqs'
p12
I6
ssI2
(dp13
S'iters'
p14
I1
sS'meta'
p15
(lp16
(dp17
S'objective'
p18
I9
sS'query_time'
p19
F1.0224199295043945
sS'comp_time'
p20
F0.24448180198669434
sS'exec_cq'
p21
I5
sS'total_cq'
p22
I6
sasS'total_cqs'
p23
I6
ssI3
(dp24
S'iters'
p25
I10
sS'meta'
p26
(lp27
(dp28
S'objective'
p29
I403
sS'query_time'
p30
F26.37493896484375
sS'comp_time'
p31
F0.2969050407409668
sS'exec_cq'
p32
I15
sS'total_cq'
p33
I33
sa(dp34
g29
I360
sg30
F0.28496789932250977
sg31
F0.13866066932678223
sg32
I13
sg33
I30
sa(dp35
g29
I265
sg30
F0.011806011199951172
sg31
F0.20865607261657715
sg32
I12
sg33
I27
sa(dp36
g29
I227
sg30
F0.004611968994140625
sg31
F0.03263711929321289
sg32
I10
sg33
I24
sa(dp37
g29
I201
sg30
F0.00096893310546875
sg31
F0.009182214736938477
sg32
I9
sg33
I21
sa(dp38
g29
I131
sg30
F0.00459599494934082
sg31
F0.03155112266540527
sg32
I7
sg33
I18
sa(dp39
g29
I139
sg30
F0.17618799209594727
sg31
F0.13869976997375488
sg32
I5
sg33
I16
sa(dp40
g29
I83
sg30
F0.0002410411834716797
sg31
F0.3886399269104004
sg32
I6
sg33
I15
sa(dp41
g29
I95
sg30
F0.00722193717956543
sg31
F0.03702402114868164
sg32
I4
sg33
I12
sa(dp42
g29
I57
sg30
F0.004850864410400391
sg31
F0.029600858688354492
sg32
I5
sg33
I11
sasS'total_cqs'
p43
I33
ssI4
(dp44
S'iters'
p45
I0
sS'meta'
p46
(lp47
sS'total_cqs'
p48
I1
ssI5
(dp49
S'iters'
p50
I0
sS'meta'
p51
(lp52
sS'total_cqs'
p53
I1
ssI6
(dp54
S'iters'
p55
I2
sS'meta'
p56
(lp57
(dp58
S'objective'
p59
I1
sS'query_time'
p60
F15.346864223480225
sS'comp_time'
p61
F0.005047798156738281
sS'exec_cq'
p62
I4
sS'total_cq'
p63
I5
sa(dp64
g59
I3
sg60
F4.9114227294921875e-05
sg61
F0.0004639625549316406
sg62
I1
sg63
I2
sasS'total_cqs'
p65
I5
ssI7
(dp66
S'iters'
p67
I0
sS'meta'
p68
(lp69
sS'total_cqs'
p70
I1
ssI8
(dp71
S'iters'
p72
I1
sS'meta'
p73
(lp74
(dp75
S'objective'
p76
I9
sS'query_time'
p77
F83.87005496025085
sS'comp_time'
p78
F0.7097940444946289
sS'exec_cq'
p79
I5
sS'total_cq'
p80
I6
sasS'total_cqs'
p81
I6
ssI9
(dp82
S'iters'
p83
I2
sS'meta'
p84
(lp85
(dp86
S'objective'
p87
I1
sS'query_time'
p88
F11.572887182235718
sS'comp_time'
p89
F0.7094738483428955
sS'exec_cq'
p90
I3
sS'total_cq'
p91
I6
sa(dp92
g87
I2
sg88
F0.061506032943725586
sg89
F0.773777961730957
sg90
I3
sg91
I3
sasS'total_cqs'
p93
I6
ssI10
(dp94
S'iters'
p95
I0
sS'meta'
p96
(lp97
sS'total_cqs'
p98
I1
ssI11
(dp99
S'iters'
p100
I0
sS'meta'
p101
(lp102
sS'total_cqs'
p103
I1
ssI12
(dp104
S'iters'
p105
I0
sS'meta'
p106
(lp107
sS'total_cqs'
p108
I1
ssI13
(dp109
S'iters'
p110
I1
sS'meta'
p111
(lp112
(dp113
S'objective'
p114
I22
sS'query_time'
p115
F0.03250479698181152
sS'comp_time'
p116
F0.0004410743713378906
sS'exec_cq'
p117
I6
sS'total_cq'
p118
I8
sasS'total_cqs'
p119
I8
ssI14
(dp120
S'iters'
p121
I1
sS'meta'
p122
(lp123
(dp124
S'objective'
p125
I5
sS'query_time'
p126
F0.9347290992736816
sS'comp_time'
p127
F0.008415937423706055
sS'exec_cq'
p128
I5
sS'total_cq'
p129
I5
sasS'total_cqs'
p130
I5
ssI16
(dp131
S'iters'
p132
I2
sS'meta'
p133
(lp134
(dp135
S'objective'
p136
I1
sS'query_time'
p137
F1.3596889972686768
sS'comp_time'
p138
F0.01313471794128418
sS'exec_cq'
p139
I4
sS'total_cq'
p140
I5
sa(dp141
g136
I3
sg137
F0.0012631416320800781
sg138
F0.012452840805053711
sg139
I2
sg140
I2
sasS'total_cqs'
p142
I5
ssI17
(dp143
S'iters'
p144
I0
sS'meta'
p145
(lp146
sS'total_cqs'
p147
I1
ssI18
(dp148
S'iters'
p149
I2
sS'meta'
p150
(lp151
(dp152
S'objective'
p153
I3
sS'query_time'
p154
F0.19350004196166992
sS'comp_time'
p155
F0.0007169246673583984
sS'exec_cq'
p156
I4
sS'total_cq'
p157
I5
sa(dp158
g153
I1
sg154
F0.056188106536865234
sg155
F0.00022029876708984375
sg156
I1
sg157
I2
sasS'total_cqs'
p159
I5
ssI19
(dp160
S'iters'
p161
I0
sS'meta'
p162
(lp163
sS'total_cqs'
p164
I1
ssI20
(dp165
S'iters'
p166
I5
sS'meta'
p167
(lp168
(dp169
S'objective'
p170
I48
sS'query_time'
p171
F9.113626956939697
sS'comp_time'
p172
F1.90106201171875
sS'exec_cq'
p173
I6
sS'total_cq'
p174
I12
sa(dp175
g170
I39
sg171
F0.28674817085266113
sg172
F1.7055950164794922
sg173
I4
sg174
I10
sa(dp176
g170
I27
sg171
F3.791171073913574
sg172
F0.7194180488586426
sg173
I4
sg174
I8
sa(dp177
g170
I33
sg171
F0.242523193359375
sg172
F1.5231430530548096
sg173
I2
sg174
I6
sa(dp178
g170
I16
sg171
F0.08997392654418945
sg172
F0.006533145904541016
sg173
I2
sg174
I5
sasS'total_cqs'
p179
I12
ssI21
(dp180
S'iters'
p181
I5
sS'meta'
p182
(lp183
(dp184
S'objective'
p185
I47
sS'query_time'
p186
F93.2442979812622
sS'comp_time'
p187
F0.6697771549224854
sS'exec_cq'
p188
I8
sS'total_cq'
p189
I14
sa(dp190
g185
I34
sg186
F0.01049184799194336
sg187
F0.2591888904571533
sg188
I4
sg189
I10
sa(dp191
g185
I9
sg186
F29.617959022521973
sg187
F2.6172566413879395
sg188
I4
sg189
I8
sa(dp192
g185
I16
sg186
F0.0011987686157226562
sg187
F0.013177156448364258
sg188
I2
sg189
I4
sa(dp193
g185
I0
sg186
F0.012382984161376953
sg187
F0.0002951622009277344
sg188
I1
sg189
I3
sasS'total_cqs'
p194
I14
ssI22
(dp195
S'iters'
p196
I1
sS'meta'
p197
(lp198
(dp199
S'objective'
p200
I1
sS'query_time'
p201
F0.0017402172088623047
sS'comp_time'
p202
F0.0003800392150878906
sS'exec_cq'
p203
I1
sS'total_cq'
p204
I2
sasS'total_cqs'
p205
I2
ssI23
(dp206
S'iters'
p207
I0
sS'meta'
p208
(lp209
sS'total_cqs'
p210
I1
ssI24
(dp211
S'iters'
p212
I0
sS'meta'
p213
(lp214
sS'total_cqs'
p215
I1
ssI25
(dp216
S'iters'
p217
I4
sS'meta'
p218
(lp219
(dp220
S'objective'
p221
I18
sS'query_time'
p222
F67.67051005363464
sS'comp_time'
p223
F7.613311767578125
sS'exec_cq'
p224
I4
sS'total_cq'
p225
I7
sa(dp226
g221
I3
sg222
F4.669177055358887
sg223
F0.17125201225280762
sg224
I2
sg225
I5
sa(dp227
g221
I3
sg222
F2.002716064453125e-05
sg223
F0.05171394348144531
sg224
I2
sg225
I3
sa(dp228
g221
I6
sg222
F9.059906005859375e-06
sg223
F0.05063223838806152
sg224
I1
sg225
I2
sasS'total_cqs'
p229
I7
ssI26
(dp230
S'iters'
p231
I7
sS'meta'
p232
(lp233
(dp234
S'objective'
p235
I59
sS'query_time'
p236
F0.2316601276397705
sS'comp_time'
p237
F0.018943071365356445
sS'exec_cq'
p238
I4
sS'total_cq'
p239
I13
sa(dp240
g235
I57
sg236
F23.15631604194641
sg237
F6.946515083312988
sg238
I3
sg239
I11
sa(dp241
g235
I50
sg236
F1.047631025314331
sg237
F6.641293048858643
sg238
I2
sg239
I10
sa(dp242
g235
I34
sg236
F0.000946044921875
sg237
F0.00797581672668457
sg238
I2
sg239
I9
sa(dp243
g235
I22
sg236
F3.1280689239501953
sg237
F0.022197246551513672
sg238
I2
sg239
I8
sa(dp244
g235
I12
sg236
F0.010808944702148438
sg237
F0.00020003318786621094
sg238
I2
sg239
I6
sa(dp245
g235
I1
sg236
F0.0008671283721923828
sg237
F8.320808410644531e-05
sg238
I1
sg239
I4
sasS'total_cqs'
p246
I13
ssI27
(dp247
S'iters'
p248
I1
sS'meta'
p249
(lp250
(dp251
S'objective'
p252
I1
sS'query_time'
p253
F0.23553800582885742
sS'comp_time'
p254
F0.009739875793457031
sS'exec_cq'
p255
I1
sS'total_cq'
p256
I2
sasS'total_cqs'
p257
I2
ssI28
(dp258
S'iters'
p259
I3
sS'meta'
p260
(lp261
(dp262
S'objective'
p263
I45
sS'query_time'
p264
F1.4438707828521729
sS'comp_time'
p265
F0.056833744049072266
sS'exec_cq'
p266
I6
sS'total_cq'
p267
I14
sa(dp268
g263
I33
sg264
F0.003659963607788086
sg265
F0.03960084915161133
sg266
I3
sg267
I11
sa(dp269
g263
I30
sg264
F0.002151012420654297
sg265
F0.00017023086547851562
sg266
I1
sg267
I9
sasS'total_cqs'
p270
I14
ssI29
(dp271
S'iters'
p272
I1
sS'meta'
p273
(lp274
(dp275
S'objective'
p276
I1
sS'query_time'
p277
F0.015922069549560547
sS'comp_time'
p278
F0.00029277801513671875
sS'exec_cq'
p279
I2
sS'total_cq'
p280
I2
sasS'total_cqs'
p281
I2
ssI30
(dp282
S'iters'
p283
I1
sS'meta'
p284
(lp285
(dp286
S'objective'
p287
I1
sS'query_time'
p288
F0.33299803733825684
sS'comp_time'
p289
F0.005444049835205078
sS'exec_cq'
p290
I2
sS'total_cq'
p291
I2
sasS'total_cqs'
p292
I2
ssI31
(dp293
S'iters'
p294
I3
sS'meta'
p295
(lp296
(dp297
S'objective'
p298
I13
sS'query_time'
p299
F4.578985929489136
sS'comp_time'
p300
F0.4998812675476074
sS'exec_cq'
p301
I4
sS'total_cq'
p302
I9
sa(dp303
g298
I7
sg299
F1.4460079669952393
sg300
F0.07428789138793945
sg301
I5
sg302
I7
sa(dp304
g298
I5
sg299
F0.008980035781860352
sg300
F0.19869017601013184
sg301
I3
sg302
I3
sasS'total_cqs'
p305
I9
ssI32
(dp306
S'iters'
p307
I2
sS'meta'
p308
(lp309
(dp310
S'objective'
p311
I0
sS'query_time'
p312
F21.25556993484497
sS'comp_time'
p313
F6.496444225311279
sS'exec_cq'
p314
I4
sS'total_cq'
p315
I7
sa(dp316
g311
I0
sg312
F0.09636116027832031
sg313
F0.003161907196044922
sg314
I1
sg315
I4
sasS'total_cqs'
p317
I7
ssI33
(dp318
S'iters'
p319
I1
sS'meta'
p320
(lp321
(dp322
S'objective'
p323
I1
sS'query_time'
p324
F0.02345895767211914
sS'comp_time'
p325
F0.0004191398620605469
sS'exec_cq'
p326
I2
sS'total_cq'
p327
I2
sasS'total_cqs'
p328
I2
ssI34
(dp329
S'iters'
p330
I0
sS'meta'
p331
(lp332
sS'total_cqs'
p333
I1
ssI35
(dp334
S'iters'
p335
I2
sS'meta'
p336
(lp337
(dp338
S'objective'
p339
I1
sS'query_time'
p340
F13.730613946914673
sS'comp_time'
p341
F0.5858461856842041
sS'exec_cq'
p342
I4
sS'total_cq'
p343
I5
sa(dp344
g339
I2
sg340
F0.011079072952270508
sg341
F0.22245383262634277
sg342
I2
sg343
I3
sasS'total_cqs'
p345
I5
ssI37
(dp346
S'iters'
p347
I2
sS'meta'
p348
(lp349
(dp350
S'objective'
p351
I25
sS'query_time'
p352
F0.5411159992218018
sS'comp_time'
p353
F0.03743410110473633
sS'exec_cq'
p354
I4
sS'total_cq'
p355
I10
sa(dp356
g351
I3
sg352
F0.0043621063232421875
sg353
F0.033071279525756836
sg354
I2
sg355
I2
sasS'total_cqs'
p357
I10
ssI38
(dp358
S'iters'
p359
I0
sS'meta'
p360
(lp361
sS'total_cqs'
p362
I1
ssI39
(dp363
S'iters'
p364
I0
sS'meta'
p365
(lp366
sS'total_cqs'
p367
I1
ssI40
(dp368
S'iters'
p369
I1
sS'meta'
p370
(lp371
(dp372
S'objective'
p373
I1
sS'query_time'
p374
F0.002452850341796875
sS'comp_time'
p375
F0.0002620220184326172
sS'exec_cq'
p376
I1
sS'total_cq'
p377
I2
sasS'total_cqs'
p378
I2
ssI41
(dp379
S'iters'
p380
I2
sS'meta'
p381
(lp382
(dp383
S'objective'
p384
I1
sS'query_time'
p385
F1.0484440326690674
sS'comp_time'
p386
F0.009755611419677734
sS'exec_cq'
p387
I2
sS'total_cq'
p388
I6
sa(dp389
g384
I1
sg385
F0.001085042953491211
sg386
F0.008569002151489258
sg387
I2
sg388
I2
sasS'total_cqs'
p390
I6
ssI42
(dp391
S'iters'
p392
I1
sS'meta'
p393
(lp394
(dp395
S'objective'
p396
I1
sS'query_time'
p397
F0.0067119598388671875
sS'comp_time'
p398
F0.0002968311309814453
sS'exec_cq'
p399
I1
sS'total_cq'
p400
I2
sasS'total_cqs'
p401
I2
ssI43
(dp402
S'iters'
p403
I0
sS'meta'
p404
(lp405
sS'total_cqs'
p406
I1
ssI44
(dp407
S'iters'
p408
I2
sS'meta'
p409
(lp410
(dp411
S'objective'
p412
I7
sS'query_time'
p413
F1.3242039680480957
sS'comp_time'
p414
F0.2158191204071045
sS'exec_cq'
p415
I2
sS'total_cq'
p416
I5
sa(dp417
g412
I1
sg413
F0.0021440982818603516
sg414
F9.918212890625e-05
sg415
I1
sg416
I4
sasS'total_cqs'
p418
I5
ssI45
(dp419
S'iters'
p420
I2
sS'meta'
p421
(lp422
(dp423
S'objective'
p424
I3
sS'query_time'
p425
F0.027544021606445312
sS'comp_time'
p426
F0.05321788787841797
sS'exec_cq'
p427
I3
sS'total_cq'
p428
I5
sa(dp429
g424
I4
sg425
F0.00018286705017089844
sg426
F0.0010499954223632812
sg427
I2
sg428
I2
sasS'total_cqs'
p430
I5
ssI46
(dp431
S'iters'
p432
I0
sS'meta'
p433
(lp434
sS'total_cqs'
p435
I1
ssI47
(dp436
S'iters'
p437
I0
sS'meta'
p438
(lp439
sS'total_cqs'
p440
I1
ssI48
(dp441
S'iters'
p442
I1
sS'meta'
p443
(lp444
(dp445
S'objective'
p446
I1
sS'query_time'
p447
F0.1600790023803711
sS'comp_time'
p448
F0.00642085075378418
sS'exec_cq'
p449
I2
sS'total_cq'
p450
I2
sasS'total_cqs'
p451
I2
ssI49
(dp452
S'iters'
p453
I2
sS'meta'
p454
(lp455
(dp456
S'objective'
p457
I1
sS'query_time'
p458
F0.2059800624847412
sS'comp_time'
p459
F0.005959033966064453
sS'exec_cq'
p460
I4
sS'total_cq'
p461
I5
sa(dp462
g457
I2
sg458
F0.0003790855407714844
sg459
F0.0034818649291992188
sg460
I2
sg461
I2
sasS'total_cqs'
p463
I5
ssI50
(dp464
S'iters'
p465
I1
sS'meta'
p466
(lp467
(dp468
S'objective'
p469
I5
sS'query_time'
p470
F0.7540171146392822
sS'comp_time'
p471
F0.0021429061889648438
sS'exec_cq'
p472
I5
sS'total_cq'
p473
I5
sasS'total_cqs'
p474
I5
ssI51
(dp475
S'iters'
p476
I0
sS'meta'
p477
(lp478
sS'total_cqs'
p479
I1
ssI52
(dp480
S'iters'
p481
I0
sS'meta'
p482
(lp483
sS'total_cqs'
p484
I1
ssI53
(dp485
S'iters'
p486
I0
sS'meta'
p487
(lp488
sS'total_cqs'
p489
I1
ssI55
(dp490
S'iters'
p491
I1
sS'meta'
p492
(lp493
(dp494
S'objective'
p495
I1
sS'query_time'
p496
F24.39146089553833
sS'comp_time'
p497
F0.09784317016601562
sS'exec_cq'
p498
I2
sS'total_cq'
p499
I2
sasS'total_cqs'
p500
I2
ssI56
(dp501
S'iters'
p502
I0
sS'meta'
p503
(lp504
sS'total_cqs'
p505
I1
ssI57
(dp506
S'iters'
p507
I1
sS'meta'
p508
(lp509
(dp510
S'objective'
p511
I2
sS'query_time'
p512
F11.951449155807495
sS'comp_time'
p513
F3.416896104812622
sS'exec_cq'
p514
I2
sS'total_cq'
p515
I3
sasS'total_cqs'
p516
I3
ssI108
(dp517
S'iters'
p518
I0
sS'meta'
p519
(lp520
sS'total_cqs'
p521
I1
ssI109
(dp522
S'iters'
p523
I0
sS'meta'
p524
(lp525
sS'total_cqs'
p526
I1
ssI116
(dp527
S'iters'
p528
I3
sS'meta'
p529
(lp530
(dp531
S'objective'
p532
I173
sS'query_time'
p533
F3.51800799369812
sS'comp_time'
p534
F0.7124948501586914
sS'exec_cq'
p535
I15
sS'total_cq'
p536
I21
sa(dp537
g532
I156
sg533
F0.5057501792907715
sg534
F0.005959033966064453
sg535
I14
sg536
I19
sa(dp538
g532
I11
sg533
F0.0007030963897705078
sg534
F0.00513005256652832
sg535
I2
sg536
I2
sasS'total_cqs'
p539
I21
ssI117
(dp540
S'iters'
p541
I2
sS'meta'
p542
(lp543
(dp544
S'objective'
p545
I9
sS'query_time'
p546
F0.003988981246948242
sS'comp_time'
p547
F0.00011682510375976562
sS'exec_cq'
p548
I3
sS'total_cq'
p549
I5
sa(dp550
g545
I2
sg546
F0.000843048095703125
sg547
F6.198883056640625e-05
sg548
I1
sg549
I4
sasS'total_cqs'
p551
I5
ssI118
(dp552
S'iters'
p553
I0
sS'meta'
p554
(lp555
sS'total_cqs'
p556
I1
ssI122
(dp557
S'iters'
p558
I0
sS'meta'
p559
(lp560
sS'total_cqs'
p561
I1
ss.