(dp0
I1
(dp1
S'iters'
p2
I2
sS'meta'
p3
(lp4
(dp5
S'objective'
p6
I11
sS'query_time'
p7
F16.290670156478882
sS'comp_time'
p8
F1.1493630409240723
sS'exec_cq'
p9
I3
sS'total_cq'
p10
I6
sa(dp11
g6
I3
sg7
F0.22478985786437988
sg8
F1.2072129249572754
sg9
I2
sg10
I2
sasS'total_cqs'
p12
I6
ssI2
(dp13
S'iters'
p14
I1
sS'meta'
p15
(lp16
(dp17
S'objective'
p18
I13
sS'query_time'
p19
F0.9390251636505127
sS'comp_time'
p20
F0.28111696243286133
sS'exec_cq'
p21
I2
sS'total_cq'
p22
I6
sasS'total_cqs'
p23
I6
ssI3
(dp24
S'iters'
p25
I11
sS'meta'
p26
(lp27
(dp28
S'objective'
p29
I415
sS'query_time'
p30
F25.73045516014099
sS'comp_time'
p31
F0.37737298011779785
sS'exec_cq'
p32
I15
sS'total_cq'
p33
I33
sa(dp34
g29
I374
sg30
F0.31346607208251953
sg31
F0.16387104988098145
sg32
I13
sg33
I30
sa(dp35
g29
I307
sg30
F0.01232600212097168
sg31
F0.18958115577697754
sg32
I12
sg33
I27
sa(dp36
g29
I291
sg30
F0.0027430057525634766
sg31
F0.026459693908691406
sg32
I10
sg33
I24
sa(dp37
g29
I226
sg30
F0.00226593017578125
sg31
F0.025285959243774414
sg32
I9
sg33
I21
sa(dp38
g29
I204
sg30
F0.0024290084838867188
sg31
F0.09556889533996582
sg32
I7
sg33
I18
sa(dp39
g29
I181
sg30
F0.0002071857452392578
sg31
F0.0036046504974365234
sg32
I6
sg33
I16
sa(dp40
g29
I139
sg30
F0.0033609867095947266
sg31
F0.028322219848632812
sg32
I5
sg33
I15
sa(dp41
g29
I117
sg30
F2.5033950805664062e-05
sg31
F0.0011820793151855469
sg32
I5
sg33
I12
sa(dp42
g29
I98
sg30
F0.18153119087219238
sg31
F0.030413150787353516
sg32
I5
sg33
I11
sa(dp43
g29
I86
sg30
F0.002407073974609375
sg31
F0.03468632698059082
sg32
I2
sg33
I10
sasS'total_cqs'
p44
I33
ssI4
(dp45
S'iters'
p46
I0
sS'meta'
p47
(lp48
sS'total_cqs'
p49
I1
ssI5
(dp50
S'iters'
p51
I0
sS'meta'
p52
(lp53
sS'total_cqs'
p54
I1
ssI6
(dp55
S'iters'
p56
I2
sS'meta'
p57
(lp58
(dp59
S'objective'
p60
I1
sS'query_time'
p61
F14.971696853637695
sS'comp_time'
p62
F0.006741046905517578
sS'exec_cq'
p63
I4
sS'total_cq'
p64
I5
sa(dp65
g60
I1
sg61
F6.508827209472656e-05
sg62
F0.0006158351898193359
sg63
I1
sg64
I2
sasS'total_cqs'
p66
I5
ssI7
(dp67
S'iters'
p68
I0
sS'meta'
p69
(lp70
sS'total_cqs'
p71
I1
ssI8
(dp72
S'iters'
p73
I3
sS'meta'
p74
(lp75
(dp76
S'objective'
p77
I9
sS'query_time'
p78
F84.10716581344604
sS'comp_time'
p79
F0.6184608936309814
sS'exec_cq'
p80
I5
sS'total_cq'
p81
I6
sa(dp82
g77
I5
sg78
F2.5987625122070312e-05
sg79
F41.45811605453491
sg80
I4
sg81
I5
sa(dp83
g77
I2
sg78
F3.409385681152344e-05
sg79
F0.07348012924194336
sg80
I3
sg81
I4
sasS'total_cqs'
p84
I6
ssI9
(dp85
S'iters'
p86
I3
sS'meta'
p87
(lp88
(dp89
S'objective'
p90
I3
sS'query_time'
p91
F11.755763053894043
sS'comp_time'
p92
F0.9215517044067383
sS'exec_cq'
p93
I3
sS'total_cq'
p94
I6
sa(dp95
g90
I2
sg91
F38.78043603897095
sg92
F7.62221884727478
sg93
I2
sg94
I4
sa(dp96
g90
I1
sg91
F0.007910966873168945
sg92
F0.4496490955352783
sg93
I1
sg94
I3
sasS'total_cqs'
p97
I6
ssI10
(dp98
S'iters'
p99
I0
sS'meta'
p100
(lp101
sS'total_cqs'
p102
I1
ssI11
(dp103
S'iters'
p104
I0
sS'meta'
p105
(lp106
sS'total_cqs'
p107
I1
ssI12
(dp108
S'iters'
p109
I0
sS'meta'
p110
(lp111
sS'total_cqs'
p112
I1
ssI13
(dp113
S'iters'
p114
I2
sS'meta'
p115
(lp116
(dp117
S'objective'
p118
I20
sS'query_time'
p119
F0.02395915985107422
sS'comp_time'
p120
F0.00018095970153808594
sS'exec_cq'
p121
I6
sS'total_cq'
p122
I8
sa(dp123
g118
I18
sg119
F2.6941299438476562e-05
sg120
F7.104873657226562e-05
sg121
I5
sg122
I7
sasS'total_cqs'
p124
I8
ssI14
(dp125
S'iters'
p126
I2
sS'meta'
p127
(lp128
(dp129
S'objective'
p130
I5
sS'query_time'
p131
F1.0064599514007568
sS'comp_time'
p132
F0.013047218322753906
sS'exec_cq'
p133
I5
sS'total_cq'
p134
I5
sa(dp135
g130
I2
sg131
F0.0007529258728027344
sg132
F0.009154796600341797
sg133
I4
sg134
I4
sasS'total_cqs'
p136
I5
ssI16
(dp137
S'iters'
p138
I2
sS'meta'
p139
(lp140
(dp141
S'objective'
p142
I3
sS'query_time'
p143
F1.26584792137146
sS'comp_time'
p144
F0.013259172439575195
sS'exec_cq'
p145
I4
sS'total_cq'
p146
I5
sa(dp147
g142
I1
sg143
F6.29425048828125e-05
sg144
F0.0004432201385498047
sg145
I2
sg146
I3
sasS'total_cqs'
p148
I5
ssI17
(dp149
S'iters'
p150
I0
sS'meta'
p151
(lp152
sS'total_cqs'
p153
I1
ssI18
(dp154
S'iters'
p155
I2
sS'meta'
p156
(lp157
(dp158
S'objective'
p159
I1
sS'query_time'
p160
F0.14525413513183594
sS'comp_time'
p161
F0.0006520748138427734
sS'exec_cq'
p162
I4
sS'total_cq'
p163
I5
sa(dp164
g159
I1
sg160
F2.8133392333984375e-05
sg161
F0.00016021728515625
sg162
I2
sg163
I3
sasS'total_cqs'
p165
I5
ssI19
(dp166
S'iters'
p167
I0
sS'meta'
p168
(lp169
sS'total_cqs'
p170
I1
ssI20
(dp171
S'iters'
p172
I6
sS'meta'
p173
(lp174
(dp175
S'objective'
p176
I48
sS'query_time'
p177
F9.811302900314331
sS'comp_time'
p178
F2.4787111282348633
sS'exec_cq'
p179
I6
sS'total_cq'
p180
I12
sa(dp181
g176
I25
sg177
F4.435112953186035
sg178
F0.7257518768310547
sg179
I4
sg180
I10
sa(dp182
g176
I22
sg177
F0.21181392669677734
sg178
F1.4289929866790771
sg179
I4
sg180
I8
sa(dp183
g176
I29
sg177
F0.029082059860229492
sg178
F0.5033667087554932
sg179
I3
sg180
I6
sa(dp184
g176
I25
sg177
F0.06060385704040527
sg178
F1.0743699073791504
sg179
I3
sg180
I5
sa(dp185
g176
I14
sg177
F0.0968010425567627
sg178
F0.007173776626586914
sg179
I2
sg180
I4
sasS'total_cqs'
p186
I12
ssI21
(dp187
S'iters'
p188
I5
sS'meta'
p189
(lp190
(dp191
S'objective'
p192
I33
sS'query_time'
p193
F94.36002922058105
sS'comp_time'
p194
F0.43653225898742676
sS'exec_cq'
p195
I8
sS'total_cq'
p196
I14
sa(dp197
g192
I3
sg193
F29.76375985145569
sg194
F2.3820531368255615
sg195
I4
sg196
I10
sa(dp198
g192
I12
sg193
F0.009229183197021484
sg194
F0.26352810859680176
sg195
I4
sg196
I6
sa(dp199
g192
I4
sg193
F0.009995222091674805
sg194
F0.230759859085083
sg195
I3
sg196
I5
sa(dp200
g192
I2
sg193
F0.012591838836669922
sg194
F0.00021314620971679688
sg195
I1
sg196
I4
sasS'total_cqs'
p201
I14
ssI22
(dp202
S'iters'
p203
I1
sS'meta'
p204
(lp205
(dp206
S'objective'
p207
I1
sS'query_time'
p208
F0.010428905487060547
sS'comp_time'
p209
F0.0002930164337158203
sS'exec_cq'
p210
I1
sS'total_cq'
p211
I2
sasS'total_cqs'
p212
I2
ssI23
(dp213
S'iters'
p214
I0
sS'meta'
p215
(lp216
sS'total_cqs'
p217
I1
ssI24
(dp218
S'iters'
p219
I0
sS'meta'
p220
(lp221
sS'total_cqs'
p222
I1
ssI25
(dp223
S'iters'
p224
I4
sS'meta'
p225
(lp226
(dp227
S'objective'
p228
I8
sS'query_time'
p229
F66.80867004394531
sS'comp_time'
p230
F6.674063205718994
sS'exec_cq'
p231
I4
sS'total_cq'
p232
I7
sa(dp233
g228
I0
sg229
F4.719310998916626
sg230
F0.5789890289306641
sg231
I2
sg232
I5
sa(dp234
g228
I3
sg229
F1.9073486328125e-05
sg230
F0.07736778259277344
sg231
I2
sg232
I3
sa(dp235
g228
I4
sg229
F1.1920928955078125e-05
sg230
F0.03430008888244629
sg231
I1
sg232
I2
sasS'total_cqs'
p236
I7
ssI26
(dp237
S'iters'
p238
I7
sS'meta'
p239
(lp240
(dp241
S'objective'
p242
I71
sS'query_time'
p243
F22.269157886505127
sS'comp_time'
p244
F0.00880885124206543
sS'exec_cq'
p245
I3
sS'total_cq'
p246
I13
sa(dp247
g242
I47
sg243
F0.14072394371032715
sg244
F0.11546897888183594
sg245
I4
sg246
I12
sa(dp248
g242
I34
sg243
F3.8521740436553955
sg244
F0.023728609085083008
sg245
I2
sg246
I10
sa(dp249
g242
I35
sg243
F0.0006189346313476562
sg244
F0.005089282989501953
sg245
I2
sg246
I8
sa(dp250
g242
I18
sg243
F0.009512186050415039
sg244
F0.0002739429473876953
sg245
I2
sg246
I7
sa(dp251
g242
I8
sg243
F0.02710103988647461
sg244
F0.002682924270629883
sg245
I1
sg246
I5
sa(dp252
g242
I3
sg243
F0.0009520053863525391
sg244
F6.914138793945312e-05
sg245
I1
sg246
I4
sasS'total_cqs'
p253
I13
ssI27
(dp254
S'iters'
p255
I1
sS'meta'
p256
(lp257
(dp258
S'objective'
p259
I1
sS'query_time'
p260
F0.21146798133850098
sS'comp_time'
p261
F0.011870861053466797
sS'exec_cq'
p262
I1
sS'total_cq'
p263
I2
sasS'total_cqs'
p264
I2
ssI28
(dp265
S'iters'
p266
I7
sS'meta'
p267
(lp268
(dp269
S'objective'
p270
I73
sS'query_time'
p271
F1.478882074356079
sS'comp_time'
p272
F0.05272197723388672
sS'exec_cq'
p273
I6
sS'total_cq'
p274
I14
sa(dp275
g270
I67
sg271
F0.03891801834106445
sg272
F0.0007739067077636719
sg273
I2
sg274
I12
sa(dp276
g270
I56
sg271
F0.006836891174316406
sg272
F0.048728227615356445
sg273
I4
sg274
I11
sa(dp277
g270
I39
sg271
F0.024903059005737305
sg272
F0.0012347698211669922
sg273
I1
sg274
I9
sa(dp278
g270
I27
sg271
F0.025159120559692383
sg272
F0.00011587142944335938
sg273
I1
sg274
I8
sa(dp279
g270
I22
sg271
F0.036789894104003906
sg272
F0.0008740425109863281
sg273
I1
sg274
I7
sa(dp280
g270
I15
sg271
F0.006253957748413086
sg272
F0.00013685226440429688
sg273
I1
sg274
I6
sasS'total_cqs'
p281
I14
ssI29
(dp282
S'iters'
p283
I1
sS'meta'
p284
(lp285
(dp286
S'objective'
p287
I1
sS'query_time'
p288
F0.012368202209472656
sS'comp_time'
p289
F0.0005192756652832031
sS'exec_cq'
p290
I2
sS'total_cq'
p291
I2
sasS'total_cqs'
p292
I2
ssI30
(dp293
S'iters'
p294
I1
sS'meta'
p295
(lp296
(dp297
S'objective'
p298
I1
sS'query_time'
p299
F0.43406081199645996
sS'comp_time'
p300
F0.004983186721801758
sS'exec_cq'
p301
I2
sS'total_cq'
p302
I2
sasS'total_cqs'
p303
I2
ssI31
(dp304
S'iters'
p305
I3
sS'meta'
p306
(lp307
(dp308
S'objective'
p309
I15
sS'query_time'
p310
F1.5136802196502686
sS'comp_time'
p311
F0.0955960750579834
sS'exec_cq'
p312
I5
sS'total_cq'
p313
I9
sa(dp314
g309
I1
sg310
F0.14514708518981934
sg311
F0.07148337364196777
sg312
I3
sg313
I3
sa(dp315
g309
I5
sg310
F0.008707046508789062
sg311
F0.07739090919494629
sg312
I2
sg313
I2
sasS'total_cqs'
p316
I9
ssI32
(dp317
S'iters'
p318
I3
sS'meta'
p319
(lp320
(dp321
S'objective'
p322
I0
sS'query_time'
p323
F21.303920030593872
sS'comp_time'
p324
F6.179733037948608
sS'exec_cq'
p325
I4
sS'total_cq'
p326
I7
sa(dp327
g322
I4
sg323
F1.011871099472046
sg324
F0.033960819244384766
sg325
I2
sg326
I4
sa(dp328
g322
I1
sg323
F0.821674108505249
sg324
F2.4069552421569824
sg325
I1
sg326
I2
sasS'total_cqs'
p329
I7
ssI33
(dp330
S'iters'
p331
I1
sS'meta'
p332
(lp333
(dp334
S'objective'
p335
I1
sS'query_time'
p336
F0.030476093292236328
sS'comp_time'
p337
F0.0005848407745361328
sS'exec_cq'
p338
I2
sS'total_cq'
p339
I2
sasS'total_cqs'
p340
I2
ssI34
(dp341
S'iters'
p342
I0
sS'meta'
p343
(lp344
sS'total_cqs'
p345
I1
ssI35
(dp346
S'iters'
p347
I2
sS'meta'
p348
(lp349
(dp350
S'objective'
p351
I1
sS'query_time'
p352
F14.587872982025146
sS'comp_time'
p353
F0.4963080883026123
sS'exec_cq'
p354
I4
sS'total_cq'
p355
I5
sa(dp356
g351
I1
sg352
F0.012914180755615234
sg353
F0.19012975692749023
sg354
I2
sg355
I3
sasS'total_cqs'
p357
I5
ssI37
(dp358
S'iters'
p359
I2
sS'meta'
p360
(lp361
(dp362
S'objective'
p363
I23
sS'query_time'
p364
F0.5837819576263428
sS'comp_time'
p365
F0.044593095779418945
sS'exec_cq'
p366
I4
sS'total_cq'
p367
I10
sa(dp368
g363
I4
sg364
F0.004990816116333008
sg365
F0.04096579551696777
sg366
I2
sg367
I2
sasS'total_cqs'
p369
I10
ssI38
(dp370
S'iters'
p371
I0
sS'meta'
p372
(lp373
sS'total_cqs'
p374
I1
ssI39
(dp375
S'iters'
p376
I0
sS'meta'
p377
(lp378
sS'total_cqs'
p379
I1
ssI40
(dp380
S'iters'
p381
I1
sS'meta'
p382
(lp383
(dp384
S'objective'
p385
I1
sS'query_time'
p386
F0.009881973266601562
sS'comp_time'
p387
F0.00012803077697753906
sS'exec_cq'
p388
I1
sS'total_cq'
p389
I2
sasS'total_cqs'
p390
I2
ssI41
(dp391
S'iters'
p392
I3
sS'meta'
p393
(lp394
(dp395
S'objective'
p396
I3
sS'query_time'
p397
F10.856791973114014
sS'comp_time'
p398
F2.749980926513672
sS'exec_cq'
p399
I3
sS'total_cq'
p400
I6
sa(dp401
g396
I2
sg397
F0.6463990211486816
sg398
F0.006897687911987305
sg399
I2
sg400
I4
sa(dp402
g396
I1
sg397
F2.002716064453125e-05
sg398
F0.0001780986785888672
sg399
I1
sg400
I3
sasS'total_cqs'
p403
I6
ssI42
(dp404
S'iters'
p405
I1
sS'meta'
p406
(lp407
(dp408
S'objective'
p409
I1
sS'query_time'
p410
F0.006073951721191406
sS'comp_time'
p411
F0.0002601146697998047
sS'exec_cq'
p412
I1
sS'total_cq'
p413
I2
sasS'total_cqs'
p414
I2
ssI43
(dp415
S'iters'
p416
I0
sS'meta'
p417
(lp418
sS'total_cqs'
p419
I1
ssI44
(dp420
S'iters'
p421
I2
sS'meta'
p422
(lp423
(dp424
S'objective'
p425
I5
sS'query_time'
p426
F1.3719282150268555
sS'comp_time'
p427
F0.21273350715637207
sS'exec_cq'
p428
I2
sS'total_cq'
p429
I5
sa(dp430
g425
I2
sg426
F0.004701137542724609
sg427
F0.00010085105895996094
sg428
I1
sg429
I4
sasS'total_cqs'
p431
I5
ssI45
(dp432
S'iters'
p433
I2
sS'meta'
p434
(lp435
(dp436
S'objective'
p437
I3
sS'query_time'
p438
F0.028590917587280273
sS'comp_time'
p439
F0.09029936790466309
sS'exec_cq'
p440
I3
sS'total_cq'
p441
I5
sa(dp442
g437
I1
sg438
F0.00020313262939453125
sg439
F0.001094818115234375
sg440
I2
sg441
I2
sasS'total_cqs'
p443
I5
ssI46
(dp444
S'iters'
p445
I0
sS'meta'
p446
(lp447
sS'total_cqs'
p448
I1
ssI47
(dp449
S'iters'
p450
I0
sS'meta'
p451
(lp452
sS'total_cqs'
p453
I1
ssI48
(dp454
S'iters'
p455
I1
sS'meta'
p456
(lp457
(dp458
S'objective'
p459
I1
sS'query_time'
p460
F0.1508181095123291
sS'comp_time'
p461
F0.005426168441772461
sS'exec_cq'
p462
I2
sS'total_cq'
p463
I2
sasS'total_cqs'
p464
I2
ssI49
(dp465
S'iters'
p466
I2
sS'meta'
p467
(lp468
(dp469
S'objective'
p470
I1
sS'query_time'
p471
F0.2082979679107666
sS'comp_time'
p472
F0.006296634674072266
sS'exec_cq'
p473
I4
sS'total_cq'
p474
I5
sa(dp475
g470
I1
sg471
F0.0012440681457519531
sg472
F0.005235195159912109
sg473
I3
sg474
I3
sasS'total_cqs'
p476
I5
ssI50
(dp477
S'iters'
p478
I2
sS'meta'
p479
(lp480
(dp481
S'objective'
p482
I5
sS'query_time'
p483
F0.8361380100250244
sS'comp_time'
p484
F0.002415180206298828
sS'exec_cq'
p485
I5
sS'total_cq'
p486
I5
sa(dp487
g482
I2
sg483
F0.00018477439880371094
sg484
F0.00237274169921875
sg485
I4
sg486
I4
sasS'total_cqs'
p488
I5
ssI51
(dp489
S'iters'
p490
I0
sS'meta'
p491
(lp492
sS'total_cqs'
p493
I1
ssI52
(dp494
S'iters'
p495
I0
sS'meta'
p496
(lp497
sS'total_cqs'
p498
I1
ssI53
(dp499
S'iters'
p500
I0
sS'meta'
p501
(lp502
sS'total_cqs'
p503
I1
ssI55
(dp504
S'iters'
p505
I1
sS'meta'
p506
(lp507
(dp508
S'objective'
p509
I1
sS'query_time'
p510
F24.040750980377197
sS'comp_time'
p511
F0.09542703628540039
sS'exec_cq'
p512
I2
sS'total_cq'
p513
I2
sasS'total_cqs'
p514
I2
ssI56
(dp515
S'iters'
p516
I0
sS'meta'
p517
(lp518
sS'total_cqs'
p519
I1
ssI57
(dp520
S'iters'
p521
I1
sS'meta'
p522
(lp523
(dp524
S'objective'
p525
I0
sS'query_time'
p526
F12.818524837493896
sS'comp_time'
p527
F3.626181125640869
sS'exec_cq'
p528
I2
sS'total_cq'
p529
I3
sasS'total_cqs'
p530
I3
ssI108
(dp531
S'iters'
p532
I0
sS'meta'
p533
(lp534
sS'total_cqs'
p535
I1
ssI109
(dp536
S'iters'
p537
I0
sS'meta'
p538
(lp539
sS'total_cqs'
p540
I1
ssI116
(dp541
S'iters'
p542
I3
sS'meta'
p543
(lp544
(dp545
S'objective'
p546
I173
sS'query_time'
p547
F3.691699981689453
sS'comp_time'
p548
F0.8008947372436523
sS'exec_cq'
p549
I9
sS'total_cq'
p550
I21
sa(dp551
g546
I160
sg547
F0.5304622650146484
sg548
F0.005612373352050781
sg549
I15
sg550
I19
sa(dp552
g546
I3
sg547
F0.0006749629974365234
sg548
F0.00491786003112793
sg549
I2
sg550
I2
sasS'total_cqs'
p553
I21
ssI117
(dp554
S'iters'
p555
I2
sS'meta'
p556
(lp557
(dp558
S'objective'
p559
I13
sS'query_time'
p560
F0.00644993782043457
sS'comp_time'
p561
F0.0004868507385253906
sS'exec_cq'
p562
I3
sS'total_cq'
p563
I5
sa(dp564
g559
I6
sg560
F0.0017101764678955078
sg561
F8.0108642578125e-05
sg562
I3
sg563
I4
sasS'total_cqs'
p565
I5
ssI118
(dp566
S'iters'
p567
I0
sS'meta'
p568
(lp569
sS'total_cqs'
p570
I1
ssI122
(dp571
S'iters'
p572
I0
sS'meta'
p573
(lp574
sS'total_cqs'
p575
I1
ss.