(dp0
I1
(dp1
S'iters'
p2
I2
sS'meta'
p3
(lp4
(dp5
S'objective'
p6
I3
sS'query_time'
p7
F25.113043069839478
sS'comp_time'
p8
F1.397914171218872
sS'exec_cq'
p9
I6
sS'total_cq'
p10
I6
sa(dp11
g6
I3
sg7
F0.010628938674926758
sg8
F236.64892482757568
sg9
I2
sg10
I2
sasS'total_cqs'
p12
I6
ssI2
(dp13
S'iters'
p14
I1
sS'meta'
p15
(lp16
(dp17
S'objective'
p18
I9
sS'query_time'
p19
F0.9346160888671875
sS'comp_time'
p20
F0.09327292442321777
sS'exec_cq'
p21
I6
sS'total_cq'
p22
I6
sasS'total_cqs'
p23
I6
ssI3
(dp24
S'iters'
p25
I9
sS'meta'
p26
(lp27
(dp28
S'objective'
p29
I415
sS'query_time'
p30
F26.403332948684692
sS'comp_time'
p31
F0.2319498062133789
sS'exec_cq'
p32
I33
sS'total_cq'
p33
I33
sa(dp34
g29
I344
sg30
F0.08252596855163574
sg31
F0.23799824714660645
sg32
I30
sg33
I30
sa(dp35
g29
I288
sg30
F0.03474712371826172
sg31
F0.28705501556396484
sg32
I27
sg33
I27
sa(dp36
g29
I250
sg30
F0.07050704956054688
sg31
F0.21059894561767578
sg32
I24
sg33
I24
sa(dp37
g29
I201
sg30
F0.02342391014099121
sg31
F0.205352783203125
sg32
I21
sg33
I21
sa(dp38
g29
I179
sg30
F0.010020017623901367
sg31
F0.07517766952514648
sg32
I18
sg33
I18
sa(dp39
g29
I151
sg30
F0.008455991744995117
sg31
F0.06721878051757812
sg32
I15
sg33
I15
sa(dp40
g29
I125
sg30
F0.007910966873168945
sg31
F0.04254508018493652
sg32
I14
sg33
I14
sa(dp41
g29
I102
sg30
F0.02823185920715332
sg31
F0.041272878646850586
sg32
I13
sg33
I13
sasS'total_cqs'
p42
I33
ssI4
(dp43
S'iters'
p44
I0
sS'meta'
p45
(lp46
sS'total_cqs'
p47
I1
ssI5
(dp48
S'iters'
p49
I0
sS'meta'
p50
(lp51
sS'total_cqs'
p52
I1
ssI6
(dp53
S'iters'
p54
I2
sS'meta'
p55
(lp56
(dp57
S'objective'
p58
I1
sS'query_time'
p59
F14.427658081054688
sS'comp_time'
p60
F0.0029931068420410156
sS'exec_cq'
p61
I5
sS'total_cq'
p62
I5
sa(dp63
g58
I2
sg59
F0.0002598762512207031
sg60
F0.0015919208526611328
sg61
I2
sg62
I2
sasS'total_cqs'
p64
I5
ssI7
(dp65
S'iters'
p66
I0
sS'meta'
p67
(lp68
sS'total_cqs'
p69
I1
ssI8
(dp70
S'iters'
p71
I2
sS'meta'
p72
(lp73
(dp74
S'objective'
p75
I15
sS'query_time'
p76
F22.90997886657715
sS'comp_time'
p77
F0.2677731513977051
sS'exec_cq'
p78
I6
sS'total_cq'
p79
I6
sa(dp80
g75
I6
sg76
F0.10176968574523926
sg77
F0.08445906639099121
sg78
I5
sg79
I5
sasS'total_cqs'
p81
I6
ssI9
(dp82
S'iters'
p83
I2
sS'meta'
p84
(lp85
(dp86
S'objective'
p87
I1
sS'query_time'
p88
F52.27232885360718
sS'comp_time'
p89
F4.241581916809082
sS'exec_cq'
p90
I6
sS'total_cq'
p91
I6
sa(dp92
g87
I1
sg88
F0.04390311241149902
sg89
F0.36716604232788086
sg90
I2
sg91
I2
sasS'total_cqs'
p93
I6
ssI10
(dp94
S'iters'
p95
I0
sS'meta'
p96
(lp97
sS'total_cqs'
p98
I1
ssI11
(dp99
S'iters'
p100
I0
sS'meta'
p101
(lp102
sS'total_cqs'
p103
I1
ssI12
(dp104
S'iters'
p105
I0
sS'meta'
p106
(lp107
sS'total_cqs'
p108
I1
ssI13
(dp109
S'iters'
p110
I1
sS'meta'
p111
(lp112
(dp113
S'objective'
p114
I22
sS'query_time'
p115
F0.02057480812072754
sS'comp_time'
p116
F0.0001308917999267578
sS'exec_cq'
p117
I8
sS'total_cq'
p118
I8
sasS'total_cqs'
p119
I8
ssI14
(dp120
S'iters'
p121
I1
sS'meta'
p122
(lp123
(dp124
S'objective'
p125
I5
sS'query_time'
p126
F1.1988048553466797
sS'comp_time'
p127
F0.0077817440032958984
sS'exec_cq'
p128
I5
sS'total_cq'
p129
I5
sasS'total_cqs'
p130
I5
ssI16
(dp131
S'iters'
p132
I2
sS'meta'
p133
(lp134
(dp135
S'objective'
p136
I1
sS'query_time'
p137
F1.5162789821624756
sS'comp_time'
p138
F0.006592988967895508
sS'exec_cq'
p139
I5
sS'total_cq'
p140
I5
sa(dp141
g136
I3
sg137
F0.0011839866638183594
sg138
F0.005208015441894531
sg139
I2
sg140
I2
sasS'total_cqs'
p142
I5
ssI17
(dp143
S'iters'
p144
I0
sS'meta'
p145
(lp146
sS'total_cqs'
p147
I1
ssI18
(dp148
S'iters'
p149
I2
sS'meta'
p150
(lp151
(dp152
S'objective'
p153
I1
sS'query_time'
p154
F0.28830909729003906
sS'comp_time'
p155
F0.00031065940856933594
sS'exec_cq'
p156
I5
sS'total_cq'
p157
I5
sa(dp158
g153
I3
sg154
F3.504753112792969e-05
sg155
F0.00012302398681640625
sg156
I2
sg157
I2
sasS'total_cqs'
p159
I5
ssI19
(dp160
S'iters'
p161
I0
sS'meta'
p162
(lp163
sS'total_cqs'
p164
I1
ssI20
(dp165
S'iters'
p166
I2
sS'meta'
p167
(lp168
(dp169
S'objective'
p170
I36
sS'query_time'
p171
F11.54405403137207
sS'comp_time'
p172
F1.1486940383911133
sS'exec_cq'
p173
I12
sS'total_cq'
p174
I12
sa(dp175
g170
I37
sg171
F0.24253416061401367
sg172
F0.9396309852600098
sg173
I10
sg174
I10
sasS'total_cqs'
p176
I12
ssI21
(dp177
S'iters'
p178
I2
sS'meta'
p179
(lp180
(dp181
S'objective'
p182
I55
sS'query_time'
p183
F27.150853872299194
sS'comp_time'
p184
F0.24161195755004883
sS'exec_cq'
p185
I14
sS'total_cq'
p186
I14
sa(dp187
g182
I1
sg183
F0.004391908645629883
sg184
F0.019713640213012695
sg185
I2
sg186
I2
sasS'total_cqs'
p188
I14
ssI22
(dp189
S'iters'
p190
I1
sS'meta'
p191
(lp192
(dp193
S'objective'
p194
I1
sS'query_time'
p195
F0.006680011749267578
sS'comp_time'
p196
F0.00011587142944335938
sS'exec_cq'
p197
I2
sS'total_cq'
p198
I2
sasS'total_cqs'
p199
I2
ssI23
(dp200
S'iters'
p201
I0
sS'meta'
p202
(lp203
sS'total_cqs'
p204
I1
ssI24
(dp205
S'iters'
p206
I0
sS'meta'
p207
(lp208
sS'total_cqs'
p209
I1
ssI25
(dp210
S'iters'
p211
I1
sS'meta'
p212
(lp213
(dp214
S'objective'
p215
I14
sS'query_time'
p216
F50.39446496963501
sS'comp_time'
p217
F3.1204841136932373
sS'exec_cq'
p218
I7
sS'total_cq'
p219
I7
sasS'total_cqs'
p220
I7
ssI26
(dp221
S'iters'
p222
I4
sS'meta'
p223
(lp224
(dp225
S'objective'
p226
I47
sS'query_time'
p227
F23.96278691291809
sS'comp_time'
p228
F3.9365429878234863
sS'exec_cq'
p229
I13
sS'total_cq'
p230
I13
sa(dp231
g226
I27
sg227
F0.8001627922058105
sg228
F3.339200019836426
sg229
I11
sg230
I11
sa(dp232
g226
I18
sg227
F0.760915994644165
sg228
F2.9733290672302246
sg229
I9
sg230
I9
sa(dp233
g226
I11
sg227
F0.8506619930267334
sg228
F3.197554111480713
sg229
I7
sg230
I7
sasS'total_cqs'
p234
I13
ssI27
(dp235
S'iters'
p236
I1
sS'meta'
p237
(lp238
(dp239
S'objective'
p240
I1
sS'query_time'
p241
F0.15466094017028809
sS'comp_time'
p242
F0.004712104797363281
sS'exec_cq'
p243
I2
sS'total_cq'
p244
I2
sasS'total_cqs'
p245
I2
ssI28
(dp246
S'iters'
p247
I4
sS'meta'
p248
(lp249
(dp250
S'objective'
p251
I41
sS'query_time'
p252
F1.7191188335418701
sS'comp_time'
p253
F0.026175260543823242
sS'exec_cq'
p254
I14
sS'total_cq'
p255
I14
sa(dp256
g251
I19
sg252
F0.00379180908203125
sg253
F0.019538164138793945
sg254
I10
sg255
I10
sa(dp257
g251
I22
sg252
F0.003467082977294922
sg253
F0.03931713104248047
sg254
I7
sg255
I7
sa(dp258
g251
I10
sg252
F0.0025370121002197266
sg253
F0.0124969482421875
sg254
I5
sg255
I5
sasS'total_cqs'
p259
I14
ssI29
(dp260
S'iters'
p261
I1
sS'meta'
p262
(lp263
(dp264
S'objective'
p265
I1
sS'query_time'
p266
F0.007835149765014648
sS'comp_time'
p267
F0.00011897087097167969
sS'exec_cq'
p268
I2
sS'total_cq'
p269
I2
sasS'total_cqs'
p270
I2
ssI30
(dp271
S'iters'
p272
I1
sS'meta'
p273
(lp274
(dp275
S'objective'
p276
I1
sS'query_time'
p277
F0.35652685165405273
sS'comp_time'
p278
F0.0052890777587890625
sS'exec_cq'
p279
I2
sS'total_cq'
p280
I2
sasS'total_cqs'
p281
I2
ssI31
(dp282
S'iters'
p283
I2
sS'meta'
p284
(lp285
(dp286
S'objective'
p287
I13
sS'query_time'
p288
F5.935960054397583
sS'comp_time'
p289
F0.15462493896484375
sS'exec_cq'
p290
I9
sS'total_cq'
p291
I9
sa(dp292
g287
I0
sg288
F0.011118888854980469
sg289
F0.03814125061035156
sg290
I3
sg291
I3
sasS'total_cqs'
p293
I9
ssI32
(dp294
S'iters'
p295
I2
sS'meta'
p296
(lp297
(dp298
S'objective'
p299
I0
sS'query_time'
p300
F19.434163093566895
sS'comp_time'
p301
F3.127234935760498
sS'exec_cq'
p302
I7
sS'total_cq'
p303
I7
sa(dp304
g299
I0
sg300
F0.039346933364868164
sg301
F0.39271092414855957
sg302
I4
sg303
I4
sasS'total_cqs'
p305
I7
ssI33
(dp306
S'iters'
p307
I1
sS'meta'
p308
(lp309
(dp310
S'objective'
p311
I1
sS'query_time'
p312
F0.024685144424438477
sS'comp_time'
p313
F0.0001418590545654297
sS'exec_cq'
p314
I2
sS'total_cq'
p315
I2
sasS'total_cqs'
p316
I2
ssI34
(dp317
S'iters'
p318
I0
sS'meta'
p319
(lp320
sS'total_cqs'
p321
I1
ssI35
(dp322
S'iters'
p323
I2
sS'meta'
p324
(lp325
(dp326
S'objective'
p327
I1
sS'query_time'
p328
F15.883254051208496
sS'comp_time'
p329
F0.23587918281555176
sS'exec_cq'
p330
I5
sS'total_cq'
p331
I5
sa(dp332
g327
I2
sg328
F0.031481027603149414
sg329
F0.19122600555419922
sg330
I3
sg331
I3
sasS'total_cqs'
p333
I5
ssI37
(dp334
S'iters'
p335
I2
sS'meta'
p336
(lp337
(dp338
S'objective'
p339
I17
sS'query_time'
p340
F2.340754985809326
sS'comp_time'
p341
F0.11478114128112793
sS'exec_cq'
p342
I10
sS'total_cq'
p343
I10
sa(dp344
g339
I1
sg340
F0.028473854064941406
sg341
F0.037592172622680664
sg342
I3
sg343
I3
sasS'total_cqs'
p345
I10
ssI38
(dp346
S'iters'
p347
I0
sS'meta'
p348
(lp349
sS'total_cqs'
p350
I1
ssI39
(dp351
S'iters'
p352
I0
sS'meta'
p353
(lp354
sS'total_cqs'
p355
I1
ssI40
(dp356
S'iters'
p357
I1
sS'meta'
p358
(lp359
(dp360
S'objective'
p361
I1
sS'query_time'
p362
F18.240987062454224
sS'comp_time'
p363
F2.5627939701080322
sS'exec_cq'
p364
I2
sS'total_cq'
p365
I2
sasS'total_cqs'
p366
I2
ssI41
(dp367
S'iters'
p368
I2
sS'meta'
p369
(lp370
(dp371
S'objective'
p372
I3
sS'query_time'
p373
F11.987475156784058
sS'comp_time'
p374
F1.1866509914398193
sS'exec_cq'
p375
I6
sS'total_cq'
p376
I6
sa(dp377
g372
I3
sg373
F0.002007007598876953
sg374
F0.007055044174194336
sg375
I3
sg376
I3
sasS'total_cqs'
p378
I6
ssI42
(dp379
S'iters'
p380
I1
sS'meta'
p381
(lp382
(dp383
S'objective'
p384
I1
sS'query_time'
p385
F16.965813875198364
sS'comp_time'
p386
F2.529552936553955
sS'exec_cq'
p387
I2
sS'total_cq'
p388
I2
sasS'total_cqs'
p389
I2
ssI43
(dp390
S'iters'
p391
I0
sS'meta'
p392
(lp393
sS'total_cqs'
p394
I1
ssI44
(dp395
S'iters'
p396
I1
sS'meta'
p397
(lp398
(dp399
S'objective'
p400
I5
sS'query_time'
p401
F1.4155030250549316
sS'comp_time'
p402
F0.12022686004638672
sS'exec_cq'
p403
I5
sS'total_cq'
p404
I5
sasS'total_cqs'
p405
I5
ssI45
(dp406
S'iters'
p407
I2
sS'meta'
p408
(lp409
(dp410
S'objective'
p411
I1
sS'query_time'
p412
F0.0460660457611084
sS'comp_time'
p413
F0.0008151531219482422
sS'exec_cq'
p414
I5
sS'total_cq'
p415
I5
sa(dp416
g411
I2
sg412
F0.00013899803161621094
sg413
F0.0004639625549316406
sg414
I2
sg415
I2
sasS'total_cqs'
p417
I5
ssI46
(dp418
S'iters'
p419
I0
sS'meta'
p420
(lp421
sS'total_cqs'
p422
I1
ssI47
(dp423
S'iters'
p424
I0
sS'meta'
p425
(lp426
sS'total_cqs'
p427
I1
ssI48
(dp428
S'iters'
p429
I1
sS'meta'
p430
(lp431
(dp432
S'objective'
p433
I1
sS'query_time'
p434
F0.10935020446777344
sS'comp_time'
p435
F0.007157087326049805
sS'exec_cq'
p436
I2
sS'total_cq'
p437
I2
sasS'total_cqs'
p438
I2
ssI49
(dp439
S'iters'
p440
I2
sS'meta'
p441
(lp442
(dp443
S'objective'
p444
I1
sS'query_time'
p445
F0.2522850036621094
sS'comp_time'
p446
F0.0031299591064453125
sS'exec_cq'
p447
I5
sS'total_cq'
p448
I5
sa(dp449
g444
I2
sg445
F0.00032711029052734375
sg446
F0.0014810562133789062
sg447
I3
sg448
I3
sasS'total_cqs'
p450
I5
ssI50
(dp451
S'iters'
p452
I1
sS'meta'
p453
(lp454
(dp455
S'objective'
p456
I5
sS'query_time'
p457
F0.9763698577880859
sS'comp_time'
p458
F0.0014989376068115234
sS'exec_cq'
p459
I5
sS'total_cq'
p460
I5
sasS'total_cqs'
p461
I5
ssI51
(dp462
S'iters'
p463
I0
sS'meta'
p464
(lp465
sS'total_cqs'
p466
I1
ssI52
(dp467
S'iters'
p468
I0
sS'meta'
p469
(lp470
sS'total_cqs'
p471
I1
ssI53
(dp472
S'iters'
p473
I0
sS'meta'
p474
(lp475
sS'total_cqs'
p476
I1
ssI55
(dp477
S'iters'
p478
I1
sS'meta'
p479
(lp480
(dp481
S'objective'
p482
I1
sS'query_time'
p483
F26.44381093978882
sS'comp_time'
p484
F3.5875632762908936
sS'exec_cq'
p485
I2
sS'total_cq'
p486
I2
sasS'total_cqs'
p487
I2
ssI56
(dp488
S'iters'
p489
I0
sS'meta'
p490
(lp491
sS'total_cqs'
p492
I1
ssI57
(dp493
S'iters'
p494
I2
sS'meta'
p495
(lp496
(dp497
S'objective'
p498
I0
sS'query_time'
p499
F13.853743076324463
sS'comp_time'
p500
F1.7855291366577148
sS'exec_cq'
p501
I3
sS'total_cq'
p502
I3
sa(dp503
g498
I1
sg499
F0.6011090278625488
sg500
F1.327152967453003
sg501
I2
sg502
I2
sasS'total_cqs'
p504
I3
ssI108
(dp505
S'iters'
p506
I0
sS'meta'
p507
(lp508
sS'total_cqs'
p509
I1
ssI109
(dp510
S'iters'
p511
I0
sS'meta'
p512
(lp513
sS'total_cqs'
p514
I1
ssI116
(dp515
S'iters'
p516
I3
sS'meta'
p517
(lp518
(dp519
S'objective'
p520
I129
sS'query_time'
p521
F5.239764928817749
sS'comp_time'
p522
F0.39248204231262207
sS'exec_cq'
p523
I21
sS'total_cq'
p524
I21
sa(dp525
g520
I15
sg521
F0.00168609619140625
sg522
F0.004335165023803711
sg523
I3
sg524
I3
sa(dp526
g520
I1
sg521
F0.0004010200500488281
sg522
F0.00226593017578125
sg523
I2
sg524
I2
sasS'total_cqs'
p527
I21
ssI117
(dp528
S'iters'
p529
I1
sS'meta'
p530
(lp531
(dp532
S'objective'
p533
I5
sS'query_time'
p534
F0.01744699478149414
sS'comp_time'
p535
F9.608268737792969e-05
sS'exec_cq'
p536
I5
sS'total_cq'
p537
I5
sasS'total_cqs'
p538
I5
ssI118
(dp539
S'iters'
p540
I0
sS'meta'
p541
(lp542
sS'total_cqs'
p543
I1
ssI122
(dp544
S'iters'
p545
I0
sS'meta'
p546
(lp547
sS'total_cqs'
p548
I1
ss.