(dp0
I1
(dp1
S'iters'
p2
I2
sS'meta'
p3
(lp4
(dp5
S'objective'
p6
I1
sS'query_time'
p7
F17.930814027786255
sS'comp_time'
p8
F0.2835052013397217
sS'exec_cq'
p9
I3
sS'total_cq'
p10
I6
sa(dp11
g6
I2
sg7
F0.09609198570251465
sg8
F0.23802518844604492
sg9
I2
sg10
I2
sasS'total_cqs'
p12
I6
ssI2
(dp13
S'iters'
p14
I1
sS'meta'
p15
(lp16
(dp17
S'objective'
p18
I9
sS'query_time'
p19
F0.8904039859771729
sS'comp_time'
p20
F0.038597822189331055
sS'exec_cq'
p21
I5
sS'total_cq'
p22
I6
sasS'total_cqs'
p23
I6
ssI3
(dp24
S'iters'
p25
I6
sS'meta'
p26
(lp27
(dp28
S'objective'
p29
I415
sS'query_time'
p30
F27.291009187698364
sS'comp_time'
p31
F0.3968033790588379
sS'exec_cq'
p32
I33
sS'total_cq'
p33
I33
sa(dp34
g29
I344
sg30
F0.1060631275177002
sg31
F0.17329001426696777
sg32
I30
sg33
I30
sa(dp35
g29
I274
sg30
F0.03851675987243652
sg31
F0.17104744911193848
sg32
I27
sg33
I27
sa(dp36
g29
I253
sg30
F0.1100013256072998
sg31
F0.18825316429138184
sg32
I24
sg33
I24
sa(dp37
g29
I227
sg30
F0.042237043380737305
sg31
F0.16953039169311523
sg32
I21
sg33
I21
sa(dp38
g29
I197
sg30
F0.0994729995727539
sg31
F0.1711421012878418
sg32
I19
sg33
I19
sasS'total_cqs'
p39
I33
ssI4
(dp40
S'iters'
p41
I0
sS'meta'
p42
(lp43
sS'total_cqs'
p44
I1
ssI5
(dp45
S'iters'
p46
I0
sS'meta'
p47
(lp48
sS'total_cqs'
p49
I1
ssI6
(dp50
S'iters'
p51
I2
sS'meta'
p52
(lp53
(dp54
S'objective'
p55
I3
sS'query_time'
p56
F14.98123812675476
sS'comp_time'
p57
F0.003405332565307617
sS'exec_cq'
p58
I4
sS'total_cq'
p59
I5
sa(dp60
g55
I1
sg56
F0.0006670951843261719
sg57
F0.0013957023620605469
sg58
I3
sg59
I3
sasS'total_cqs'
p61
I5
ssI7
(dp62
S'iters'
p63
I0
sS'meta'
p64
(lp65
sS'total_cqs'
p66
I1
ssI8
(dp67
S'iters'
p68
I1
sS'meta'
p69
(lp70
(dp71
S'objective'
p72
I9
sS'query_time'
p73
F83.9165871143341
sS'comp_time'
p74
F0.2756190299987793
sS'exec_cq'
p75
I5
sS'total_cq'
p76
I6
sasS'total_cqs'
p77
I6
ssI9
(dp78
S'iters'
p79
I2
sS'meta'
p80
(lp81
(dp82
S'objective'
p83
I1
sS'query_time'
p84
F12.800981998443604
sS'comp_time'
p85
F0.09276890754699707
sS'exec_cq'
p86
I3
sS'total_cq'
p87
I6
sa(dp88
g83
I1
sg84
F0.05915999412536621
sg85
F0.4617936611175537
sg86
I3
sg87
I3
sasS'total_cqs'
p89
I6
ssI10
(dp90
S'iters'
p91
I0
sS'meta'
p92
(lp93
sS'total_cqs'
p94
I1
ssI11
(dp95
S'iters'
p96
I0
sS'meta'
p97
(lp98
sS'total_cqs'
p99
I1
ssI12
(dp100
S'iters'
p101
I0
sS'meta'
p102
(lp103
sS'total_cqs'
p104
I1
ssI13
(dp105
S'iters'
p106
I1
sS'meta'
p107
(lp108
(dp109
S'objective'
p110
I20
sS'query_time'
p111
F0.008383989334106445
sS'comp_time'
p112
F0.009055137634277344
sS'exec_cq'
p113
I6
sS'total_cq'
p114
I8
sasS'total_cqs'
p115
I8
ssI14
(dp116
S'iters'
p117
I1
sS'meta'
p118
(lp119
(dp120
S'objective'
p121
I5
sS'query_time'
p122
F1.0837218761444092
sS'comp_time'
p123
F0.004248142242431641
sS'exec_cq'
p124
I5
sS'total_cq'
p125
I5
sasS'total_cqs'
p126
I5
ssI16
(dp127
S'iters'
p128
I2
sS'meta'
p129
(lp130
(dp131
S'objective'
p132
I1
sS'query_time'
p133
F1.433640956878662
sS'comp_time'
p134
F0.0055925846099853516
sS'exec_cq'
p135
I4
sS'total_cq'
p136
I5
sa(dp137
g132
I2
sg133
F0.001280069351196289
sg134
F0.0017478466033935547
sg135
I2
sg136
I2
sasS'total_cqs'
p138
I5
ssI17
(dp139
S'iters'
p140
I0
sS'meta'
p141
(lp142
sS'total_cqs'
p143
I1
ssI18
(dp144
S'iters'
p145
I3
sS'meta'
p146
(lp147
(dp148
S'objective'
p149
I1
sS'query_time'
p150
F0.15773487091064453
sS'comp_time'
p151
F0.004423856735229492
sS'exec_cq'
p152
I4
sS'total_cq'
p153
I5
sa(dp154
g149
I4
sg150
F3.504753112792969e-05
sg151
F0.00010275840759277344
sg152
I2
sg153
I3
sa(dp155
g149
I4
sg150
F2.7894973754882812e-05
sg151
F8.606910705566406e-05
sg152
I2
sg153
I2
sasS'total_cqs'
p156
I5
ssI19
(dp157
S'iters'
p158
I0
sS'meta'
p159
(lp160
sS'total_cqs'
p161
I1
ssI20
(dp162
S'iters'
p163
I3
sS'meta'
p164
(lp165
(dp166
S'objective'
p167
I42
sS'query_time'
p168
F14.673895120620728
sS'comp_time'
p169
F0.7613472938537598
sS'exec_cq'
p170
I10
sS'total_cq'
p171
I12
sa(dp172
g167
I32
sg168
F0.2815229892730713
sg169
F0.5221707820892334
sg170
I6
sg171
I10
sa(dp173
g167
I22
sg168
F0.390610933303833
sg169
F0.5568721294403076
sg170
I5
sg171
I8
sasS'total_cqs'
p174
I12
ssI21
(dp175
S'iters'
p176
I2
sS'meta'
p177
(lp178
(dp179
S'objective'
p180
I57
sS'query_time'
p181
F122.79020714759827
sS'comp_time'
p182
F0.8508450984954834
sS'exec_cq'
p183
I12
sS'total_cq'
p184
I14
sa(dp185
g180
I53
sg181
F0.09995293617248535
sg182
F0.06040215492248535
sg183
I9
sg184
I12
sasS'total_cqs'
p186
I14
ssI22
(dp187
S'iters'
p188
I1
sS'meta'
p189
(lp190
(dp191
S'objective'
p192
I1
sS'query_time'
p193
F0.002549886703491211
sS'comp_time'
p194
F0.0009891986846923828
sS'exec_cq'
p195
I1
sS'total_cq'
p196
I2
sasS'total_cqs'
p197
I2
ssI23
(dp198
S'iters'
p199
I0
sS'meta'
p200
(lp201
sS'total_cqs'
p202
I1
ssI24
(dp203
S'iters'
p204
I0
sS'meta'
p205
(lp206
sS'total_cqs'
p207
I1
ssI25
(dp208
S'iters'
p209
I2
sS'meta'
p210
(lp211
(dp212
S'objective'
p213
I12
sS'query_time'
p214
F66.19821500778198
sS'comp_time'
p215
F2.2732601165771484
sS'exec_cq'
p216
I4
sS'total_cq'
p217
I7
sa(dp218
g213
I6
sg214
F0.15658092498779297
sg215
F0.0005972385406494141
sg216
I3
sg217
I5
sasS'total_cqs'
p219
I7
ssI26
(dp220
S'iters'
p221
I3
sS'meta'
p222
(lp223
(dp224
S'objective'
p225
I59
sS'query_time'
p226
F22.262019157409668
sS'comp_time'
p227
F0.13537311553955078
sS'exec_cq'
p228
I7
sS'total_cq'
p229
I13
sa(dp230
g225
I49
sg226
F0.009974002838134766
sg227
F0.0010411739349365234
sg228
I5
sg229
I11
sa(dp231
g225
I36
sg226
F0.002215147018432617
sg227
F0.0010478496551513672
sg228
I4
sg229
I9
sasS'total_cqs'
p232
I13
ssI27
(dp233
S'iters'
p234
I1
sS'meta'
p235
(lp236
(dp237
S'objective'
p238
I1
sS'query_time'
p239
F0.3142209053039551
sS'comp_time'
p240
F0.0018928050994873047
sS'exec_cq'
p241
I1
sS'total_cq'
p242
I2
sasS'total_cqs'
p243
I2
ssI28
(dp244
S'iters'
p245
I3
sS'meta'
p246
(lp247
(dp248
S'objective'
p249
I73
sS'query_time'
p250
F1.6668410301208496
sS'comp_time'
p251
F0.08825087547302246
sS'exec_cq'
p252
I8
sS'total_cq'
p253
I14
sa(dp254
g249
I59
sg250
F0.0044460296630859375
sg251
F0.0073699951171875
sg252
I5
sg253
I11
sa(dp255
g249
I46
sg250
F0.0018558502197265625
sg251
F0.00012803077697753906
sg252
I3
sg253
I9
sasS'total_cqs'
p256
I14
ssI29
(dp257
S'iters'
p258
I1
sS'meta'
p259
(lp260
(dp261
S'objective'
p262
I1
sS'query_time'
p263
F0.0036551952362060547
sS'comp_time'
p264
F0.0012314319610595703
sS'exec_cq'
p265
I2
sS'total_cq'
p266
I2
sasS'total_cqs'
p267
I2
ssI30
(dp268
S'iters'
p269
I1
sS'meta'
p270
(lp271
(dp272
S'objective'
p273
I1
sS'query_time'
p274
F0.3676421642303467
sS'comp_time'
p275
F0.00244903564453125
sS'exec_cq'
p276
I2
sS'total_cq'
p277
I2
sasS'total_cqs'
p278
I2
ssI31
(dp279
S'iters'
p280
I2
sS'meta'
p281
(lp282
(dp283
S'objective'
p284
I3
sS'query_time'
p285
F1.6610639095306396
sS'comp_time'
p286
F0.028232097625732422
sS'exec_cq'
p287
I5
sS'total_cq'
p288
I9
sa(dp289
g284
I3
sg285
F0.011647224426269531
sg286
F0.013737201690673828
sg287
I3
sg288
I3
sasS'total_cqs'
p290
I9
ssI32
(dp291
S'iters'
p292
I3
sS'meta'
p293
(lp294
(dp295
S'objective'
p296
I6
sS'query_time'
p297
F20.835492849349976
sS'comp_time'
p298
F1.9731841087341309
sS'exec_cq'
p299
I4
sS'total_cq'
p300
I7
sa(dp301
g296
I1
sg297
F1.0023090839385986
sg298
F0.002859354019165039
sg299
I2
sg300
I4
sa(dp302
g296
I6
sg297
F0.028677940368652344
sg298
F0.02243828773498535
sg299
I1
sg300
I2
sasS'total_cqs'
p303
I7
ssI33
(dp304
S'iters'
p305
I1
sS'meta'
p306
(lp307
(dp308
S'objective'
p309
I1
sS'query_time'
p310
F0.021879911422729492
sS'comp_time'
p311
F0.0013499259948730469
sS'exec_cq'
p312
I2
sS'total_cq'
p313
I2
sasS'total_cqs'
p314
I2
ssI34
(dp315
S'iters'
p316
I0
sS'meta'
p317
(lp318
sS'total_cqs'
p319
I1
ssI35
(dp320
S'iters'
p321
I2
sS'meta'
p322
(lp323
(dp324
S'objective'
p325
I1
sS'query_time'
p326
F14.219237089157104
sS'comp_time'
p327
F0.1170964241027832
sS'exec_cq'
p328
I4
sS'total_cq'
p329
I5
sa(dp330
g325
I2
sg326
F0.0007081031799316406
sg327
F0.00030303001403808594
sg328
I1
sg329
I2
sasS'total_cqs'
p331
I5
ssI37
(dp332
S'iters'
p333
I2
sS'meta'
p334
(lp335
(dp336
S'objective'
p337
I33
sS'query_time'
p338
F1.7874021530151367
sS'comp_time'
p339
F0.1615140438079834
sS'exec_cq'
p340
I8
sS'total_cq'
p341
I10
sa(dp342
g337
I9
sg338
F0.003939151763916016
sg339
F0.005291938781738281
sg340
I2
sg341
I2
sasS'total_cqs'
p343
I10
ssI38
(dp344
S'iters'
p345
I0
sS'meta'
p346
(lp347
sS'total_cqs'
p348
I1
ssI39
(dp349
S'iters'
p350
I0
sS'meta'
p351
(lp352
sS'total_cqs'
p353
I1
ssI40
(dp354
S'iters'
p355
I1
sS'meta'
p356
(lp357
(dp358
S'objective'
p359
I1
sS'query_time'
p360
F0.001728057861328125
sS'comp_time'
p361
F0.0004291534423828125
sS'exec_cq'
p362
I1
sS'total_cq'
p363
I2
sasS'total_cqs'
p364
I2
ssI41
(dp365
S'iters'
p366
I2
sS'meta'
p367
(lp368
(dp369
S'objective'
p370
I1
sS'query_time'
p371
F0.9166381359100342
sS'comp_time'
p372
F0.00351715087890625
sS'exec_cq'
p373
I2
sS'total_cq'
p374
I6
sa(dp375
g370
I1
sg371
F0.0008909702301025391
sg372
F0.0012788772583007812
sg373
I2
sg374
I2
sasS'total_cqs'
p376
I6
ssI42
(dp377
S'iters'
p378
I1
sS'meta'
p379
(lp380
(dp381
S'objective'
p382
I1
sS'query_time'
p383
F0.007649898529052734
sS'comp_time'
p384
F0.0013129711151123047
sS'exec_cq'
p385
I1
sS'total_cq'
p386
I2
sasS'total_cqs'
p387
I2
ssI43
(dp388
S'iters'
p389
I0
sS'meta'
p390
(lp391
sS'total_cqs'
p392
I1
ssI44
(dp393
S'iters'
p394
I1
sS'meta'
p395
(lp396
(dp397
S'objective'
p398
I5
sS'query_time'
p399
F1.3764169216156006
sS'comp_time'
p400
F0.03375720977783203
sS'exec_cq'
p401
I3
sS'total_cq'
p402
I5
sasS'total_cqs'
p403
I5
ssI45
(dp404
S'iters'
p405
I2
sS'meta'
p406
(lp407
(dp408
S'objective'
p409
I1
sS'query_time'
p410
F0.025633811950683594
sS'comp_time'
p411
F0.0018181800842285156
sS'exec_cq'
p412
I3
sS'total_cq'
p413
I5
sa(dp414
g409
I3
sg410
F0.0001499652862548828
sg411
F0.00019478797912597656
sg412
I2
sg413
I2
sasS'total_cqs'
p415
I5
ssI46
(dp416
S'iters'
p417
I0
sS'meta'
p418
(lp419
sS'total_cqs'
p420
I1
ssI47
(dp421
S'iters'
p422
I0
sS'meta'
p423
(lp424
sS'total_cqs'
p425
I1
ssI48
(dp426
S'iters'
p427
I1
sS'meta'
p428
(lp429
(dp430
S'objective'
p431
I1
sS'query_time'
p432
F0.20029306411743164
sS'comp_time'
p433
F0.003162860870361328
sS'exec_cq'
p434
I2
sS'total_cq'
p435
I2
sasS'total_cqs'
p436
I2
ssI49
(dp437
S'iters'
p438
I2
sS'meta'
p439
(lp440
(dp441
S'objective'
p442
I1
sS'query_time'
p443
F0.2504458427429199
sS'comp_time'
p444
F0.003837108612060547
sS'exec_cq'
p445
I4
sS'total_cq'
p446
I5
sa(dp447
g442
I3
sg443
F0.00026297569274902344
sg444
F0.00043773651123046875
sg445
I2
sg446
I2
sasS'total_cqs'
p448
I5
ssI50
(dp449
S'iters'
p450
I1
sS'meta'
p451
(lp452
(dp453
S'objective'
p454
I5
sS'query_time'
p455
F0.6321530342102051
sS'comp_time'
p456
F0.001974821090698242
sS'exec_cq'
p457
I5
sS'total_cq'
p458
I5
sasS'total_cqs'
p459
I5
ssI51
(dp460
S'iters'
p461
I0
sS'meta'
p462
(lp463
sS'total_cqs'
p464
I1
ssI52
(dp465
S'iters'
p466
I0
sS'meta'
p467
(lp468
sS'total_cqs'
p469
I1
ssI53
(dp470
S'iters'
p471
I0
sS'meta'
p472
(lp473
sS'total_cqs'
p474
I1
ssI55
(dp475
S'iters'
p476
I1
sS'meta'
p477
(lp478
(dp479
S'objective'
p480
I1
sS'query_time'
p481
F24.403539896011353
sS'comp_time'
p482
F0.027179956436157227
sS'exec_cq'
p483
I2
sS'total_cq'
p484
I2
sasS'total_cqs'
p485
I2
ssI56
(dp486
S'iters'
p487
I0
sS'meta'
p488
(lp489
sS'total_cqs'
p490
I1
ssI57
(dp491
S'iters'
p492
I1
sS'meta'
p493
(lp494
(dp495
S'objective'
p496
I0
sS'query_time'
p497
F13.180556058883667
sS'comp_time'
p498
F1.1842460632324219
sS'exec_cq'
p499
I2
sS'total_cq'
p500
I3
sasS'total_cqs'
p501
I3
ssI108
(dp502
S'iters'
p503
I0
sS'meta'
p504
(lp505
sS'total_cqs'
p506
I1
ssI109
(dp507
S'iters'
p508
I0
sS'meta'
p509
(lp510
sS'total_cqs'
p511
I1
ssI116
(dp512
S'iters'
p513
I2
sS'meta'
p514
(lp515
(dp516
S'objective'
p517
I165
sS'query_time'
p518
F0.5279700756072998
sS'comp_time'
p519
F0.014145851135253906
sS'exec_cq'
p520
I14
sS'total_cq'
p521
I21
sa(dp522
g517
I9
sg518
F0.0007200241088867188
sg519
F0.0009219646453857422
sg520
I2
sg521
I2
sasS'total_cqs'
p523
I21
ssI117
(dp524
S'iters'
p525
I1
sS'meta'
p526
(lp527
(dp528
S'objective'
p529
I5
sS'query_time'
p530
F0.010437965393066406
sS'comp_time'
p531
F0.0016963481903076172
sS'exec_cq'
p532
I4
sS'total_cq'
p533
I5
sasS'total_cqs'
p534
I5
ssI118
(dp535
S'iters'
p536
I0
sS'meta'
p537
(lp538
sS'total_cqs'
p539
I1
ssI122
(dp540
S'iters'
p541
I0
sS'meta'
p542
(lp543
sS'total_cqs'
p544
I1
ss.