(dp0
I1
(dp1
S'iters'
p2
I2
sS'meta'
p3
(lp4
(dp5
S'objective'
p6
I2
sS'query_time'
p7
F16.071943998336792
sS'comp_time'
p8
F0.7800161838531494
sS'exec_cq'
p9
I3
sS'total_cq'
p10
I6
sa(dp11
g6
I0
sg7
F0.17031002044677734
sg8
F0.6710450649261475
sg9
I2
sg10
I2
sasS'total_cqs'
p12
I6
ssI2
(dp13
S'iters'
p14
I1
sS'meta'
p15
(lp16
(dp17
S'objective'
p18
I4
sS'query_time'
p19
F0.8783469200134277
sS'comp_time'
p20
F0.2025604248046875
sS'exec_cq'
p21
I5
sS'total_cq'
p22
I6
sasS'total_cqs'
p23
I6
ssI3
(dp24
S'iters'
p25
I14
sS'meta'
p26
(lp27
(dp28
S'objective'
p29
I27
sS'query_time'
p30
F25.348222017288208
sS'comp_time'
p31
F0.43648719787597656
sS'exec_cq'
p32
I15
sS'total_cq'
p33
I33
sa(dp34
g29
I24
sg30
F0.48882412910461426
sg31
F0.021042823791503906
sg32
I13
sg33
I30
sa(dp35
g29
I21
sg30
F0.03343701362609863
sg31
F0.6051902770996094
sg32
I12
sg33
I27
sa(dp36
g29
I18
sg30
F0.004908084869384766
sg31
F0.020453691482543945
sg32
I10
sg33
I24
sa(dp37
g29
I15
sg30
F0.013900041580200195
sg31
F0.2664525508880615
sg32
I9
sg33
I21
sa(dp38
g29
I12
sg30
F0.0033271312713623047
sg31
F0.0156710147857666
sg32
I7
sg33
I18
sa(dp39
g29
I9
sg30
F0.009959936141967773
sg31
F0.332918643951416
sg32
I6
sg33
I15
sa(dp40
g29
I10
sg30
F0.19305992126464844
sg31
F0.018542766571044922
sg32
I5
sg33
I12
sa(dp41
g29
I9
sg30
F0.0004839897155761719
sg31
F0.0031092166900634766
sg32
I4
sg33
I11
sa(dp42
g29
I6
sg30
F0.002593994140625
sg31
F0.015465021133422852
sg32
I4
sg33
I10
sa(dp43
g29
I6
sg30
F6.079673767089844e-05
sg31
F0.0004031658172607422
sg32
I3
sg33
I8
sa(dp44
g29
I5
sg30
F0.00019693374633789062
sg31
F0.0011429786682128906
sg32
I3
sg33
I7
sa(dp45
g29
I4
sg30
F1.5974044799804688e-05
sg31
F0.000102996826171875
sg32
I2
sg33
I6
sa(dp46
g29
I3
sg30
F0.0024499893188476562
sg31
F0.01538395881652832
sg32
I2
sg33
I5
sasS'total_cqs'
p47
I33
ssI6
(dp48
S'iters'
p49
I2
sS'meta'
p50
(lp51
(dp52
S'objective'
p53
I1
sS'query_time'
p54
F14.32308292388916
sS'comp_time'
p55
F0.00625920295715332
sS'exec_cq'
p56
I4
sS'total_cq'
p57
I5
sa(dp58
g53
I0
sg54
F4.696846008300781e-05
sg55
F0.0003826618194580078
sg56
I1
sg57
I2
sasS'total_cqs'
p59
I5
ssI8
(dp60
S'iters'
p61
I3
sS'meta'
p62
(lp63
(dp64
S'objective'
p65
I4
sS'query_time'
p66
F22.985862016677856
sS'comp_time'
p67
F0.28164029121398926
sS'exec_cq'
p68
I5
sS'total_cq'
p69
I6
sa(dp70
g65
I3
sg66
F41.77676820755005
sg67
F41.77604651451111
sg68
I4
sg69
I5
sa(dp71
g65
I2
sg66
F0.10911989212036133
sg67
F0.06880402565002441
sg68
I3
sg69
I4
sasS'total_cqs'
p72
I6
ssI9
(dp73
S'iters'
p74
I3
sS'meta'
p75
(lp76
(dp77
S'objective'
p78
I0
sS'query_time'
p79
F11.08876895904541
sS'comp_time'
p80
F0.492598295211792
sS'exec_cq'
p81
I3
sS'total_cq'
p82
I6
sa(dp83
g78
I1
sg79
F0.04257798194885254
sg80
F0.39278674125671387
sg81
I3
sg82
I3
sa(dp84
g78
I0
sg79
F0.008840084075927734
sg80
F0.04349088668823242
sg81
I2
sg82
I2
sasS'total_cqs'
p85
I6
ssI13
(dp86
S'iters'
p87
I2
sS'meta'
p88
(lp89
(dp90
S'objective'
p91
I6
sS'query_time'
p92
F0.14424395561218262
sS'comp_time'
p93
F0.008260250091552734
sS'exec_cq'
p94
I6
sS'total_cq'
p95
I8
sa(dp96
g91
I5
sg92
F3.0994415283203125e-05
sg93
F0.00011587142944335938
sg94
I5
sg95
I7
sasS'total_cqs'
p97
I8
ssI14
(dp98
S'iters'
p99
I1
sS'meta'
p100
(lp101
(dp102
S'objective'
p103
I3
sS'query_time'
p104
F0.9822640419006348
sS'comp_time'
p105
F0.006313323974609375
sS'exec_cq'
p106
I5
sS'total_cq'
p107
I5
sasS'total_cqs'
p108
I5
ssI16
(dp109
S'iters'
p110
I3
sS'meta'
p111
(lp112
(dp113
S'objective'
p114
I1
sS'query_time'
p115
F1.417236089706421
sS'comp_time'
p116
F0.011442899703979492
sS'exec_cq'
p117
I4
sS'total_cq'
p118
I5
sa(dp119
g114
I1
sg115
F0.048388004302978516
sg116
F0.00048351287841796875
sg117
I1
sg118
I3
sa(dp120
g114
I0
sg115
F4.482269287109375e-05
sg116
F0.00023984909057617188
sg117
I2
sg118
I2
sasS'total_cqs'
p121
I5
ssI18
(dp122
S'iters'
p123
I3
sS'meta'
p124
(lp125
(dp126
S'objective'
p127
I1
sS'query_time'
p128
F0.20510292053222656
sS'comp_time'
p129
F0.0033805370330810547
sS'exec_cq'
p130
I4
sS'total_cq'
p131
I5
sa(dp132
g127
I1
sg128
F0.04447603225708008
sg129
F0.0002963542938232422
sg130
I1
sg131
I3
sa(dp133
g127
I0
sg128
F4.291534423828125e-05
sg129
F0.0001800060272216797
sg130
I2
sg131
I2
sasS'total_cqs'
p134
I5
ssI20
(dp135
S'iters'
p136
I6
sS'meta'
p137
(lp138
(dp139
S'objective'
p140
I8
sS'query_time'
p141
F7.312247037887573
sS'comp_time'
p142
F1.0879769325256348
sS'exec_cq'
p143
I6
sS'total_cq'
p144
I12
sa(dp145
g140
I6
sg141
F3.617136001586914
sg142
F0.45310401916503906
sg143
I4
sg144
I10
sa(dp146
g140
I4
sg141
F0.1647200584411621
sg142
F0.9709217548370361
sg143
I4
sg144
I8
sa(dp147
g140
I4
sg141
F2.5987625122070312e-05
sg142
F0.00016188621520996094
sg143
I2
sg144
I6
sa(dp148
g140
I3
sg141
F0.18363404273986816
sg142
F0.7511072158813477
sg143
I2
sg144
I5
sa(dp149
g140
I2
sg141
F0.09473133087158203
sg142
F0.0038568973541259766
sg143
I4
sg144
I4
sasS'total_cqs'
p150
I12
ssI21
(dp151
S'iters'
p152
I5
sS'meta'
p153
(lp154
(dp155
S'objective'
p156
I6
sS'query_time'
p157
F30.191400051116943
sS'comp_time'
p158
F0.32579588890075684
sS'exec_cq'
p159
I8
sS'total_cq'
p160
I14
sa(dp161
g156
I2
sg157
F30.405164003372192
sg158
F2.386429786682129
sg159
I4
sg160
I10
sa(dp162
g156
I2
sg157
F0.010159969329833984
sg158
F0.06537103652954102
sg159
I4
sg160
I6
sa(dp163
g156
I0
sg157
F0.001399993896484375
sg158
F0.010251998901367188
sg159
I2
sg160
I4
sa(dp164
g156
I0
sg157
F0.02614283561706543
sg158
F0.00012636184692382812
sg159
I1
sg160
I2
sasS'total_cqs'
p165
I14
ssI22
(dp166
S'iters'
p167
I1
sS'meta'
p168
(lp169
(dp170
S'objective'
p171
I0
sS'query_time'
p172
F0.0051500797271728516
sS'comp_time'
p173
F0.0015687942504882812
sS'exec_cq'
p174
I1
sS'total_cq'
p175
I2
sasS'total_cqs'
p176
I2
ssI25
(dp177
S'iters'
p178
I4
sS'meta'
p179
(lp180
(dp181
S'objective'
p182
I3
sS'query_time'
p183
F46.705957889556885
sS'comp_time'
p184
F4.977768898010254
sS'exec_cq'
p185
I4
sS'total_cq'
p186
I7
sa(dp187
g182
I1
sg183
F5.187956094741821
sg184
F0.4546511173248291
sg185
I2
sg186
I5
sa(dp188
g182
I1
sg183
F0.12534213066101074
sg184
F0.16478824615478516
sg185
I2
sg186
I3
sa(dp189
g182
I0
sg183
F0.007498979568481445
sg184
F0.0729060173034668
sg185
I1
sg186
I2
sasS'total_cqs'
p190
I7
ssI26
(dp191
S'iters'
p192
I9
sS'meta'
p193
(lp194
(dp195
S'objective'
p196
I9
sS'query_time'
p197
F0.25768399238586426
sS'comp_time'
p198
F0.02698206901550293
sS'exec_cq'
p199
I4
sS'total_cq'
p200
I13
sa(dp201
g196
I9
sg197
F19.947484970092773
sg198
F4.998511791229248
sg199
I3
sg200
I11
sa(dp202
g196
I6
sg197
F0.014941930770874023
sg198
F0.0007607936859130859
sg199
I2
sg200
I10
sa(dp203
g196
I6
sg197
F0.0014469623565673828
sg198
F0.007988452911376953
sg199
I2
sg200
I8
sa(dp204
g196
I5
sg197
F0.0004298686981201172
sg198
F0.0028879642486572266
sg199
I2
sg200
I7
sa(dp205
g196
I2
sg197
F3.3474199771881104
sg198
F0.013339519500732422
sg199
I2
sg200
I6
sa(dp206
g196
I2
sg197
F0.00022482872009277344
sg198
F0.001310110092163086
sg199
I1
sg200
I4
sa(dp207
g196
I1
sg197
F0.00024580955505371094
sg198
F0.0014390945434570312
sg199
I1
sg200
I3
sa(dp208
g196
I0
sg197
F0.025683879852294922
sg198
F0.0014677047729492188
sg199
I1
sg200
I2
sasS'total_cqs'
p209
I13
ssI27
(dp210
S'iters'
p211
I1
sS'meta'
p212
(lp213
(dp214
S'objective'
p215
I0
sS'query_time'
p216
F0.15731406211853027
sS'comp_time'
p217
F0.0058100223541259766
sS'exec_cq'
p218
I1
sS'total_cq'
p219
I2
sasS'total_cqs'
p220
I2
ssI28
(dp221
S'iters'
p222
I4
sS'meta'
p223
(lp224
(dp225
S'objective'
p226
I8
sS'query_time'
p227
F1.3783979415893555
sS'comp_time'
p228
F0.14890027046203613
sS'exec_cq'
p229
I6
sS'total_cq'
p230
I14
sa(dp231
g226
I7
sg227
F0.0023500919342041016
sg228
F0.01904582977294922
sg229
I3
sg230
I11
sa(dp232
g226
I7
sg227
F0.0049932003021240234
sg228
F0.00011491775512695312
sg229
I2
sg230
I9
sa(dp233
g226
I6
sg227
F0.002009153366088867
sg228
F0.00010204315185546875
sg229
I1
sg230
I8
sasS'total_cqs'
p234
I14
ssI29
(dp235
S'iters'
p236
I1
sS'meta'
p237
(lp238
(dp239
S'objective'
p240
I0
sS'query_time'
p241
F0.009781837463378906
sS'comp_time'
p242
F0.0014910697937011719
sS'exec_cq'
p243
I2
sS'total_cq'
p244
I2
sasS'total_cqs'
p245
I2
ssI30
(dp246
S'iters'
p247
I1
sS'meta'
p248
(lp249
(dp250
S'objective'
p251
I0
sS'query_time'
p252
F0.3548240661621094
sS'comp_time'
p253
F0.008045673370361328
sS'exec_cq'
p254
I2
sS'total_cq'
p255
I2
sasS'total_cqs'
p256
I2
ssI31
(dp257
S'iters'
p258
I4
sS'meta'
p259
(lp260
(dp261
S'objective'
p262
I5
sS'query_time'
p263
F4.162980794906616
sS'comp_time'
p264
F0.4249846935272217
sS'exec_cq'
p265
I4
sS'total_cq'
p266
I9
sa(dp267
g262
I1
sg263
F1.2423219680786133
sg264
F0.10160994529724121
sg265
I5
sg266
I7
sa(dp268
g262
I1
sg263
F0.006494045257568359
sg264
F0.032948970794677734
sg265
I3
sg266
I3
sa(dp269
g262
I0
sg263
F0.0028259754180908203
sg264
F0.016091585159301758
sg265
I2
sg266
I2
sasS'total_cqs'
p270
I9
ssI32
(dp271
S'iters'
p272
I3
sS'meta'
p273
(lp274
(dp275
S'objective'
p276
I1
sS'query_time'
p277
F17.78316593170166
sS'comp_time'
p278
F5.544858932495117
sS'exec_cq'
p279
I4
sS'total_cq'
p280
I7
sa(dp281
g276
I0
sg277
F1.1737220287322998
sg278
F0.02198314666748047
sg279
I2
sg280
I4
sa(dp282
g276
I0
sg277
F0.3634510040283203
sg278
F0.35266900062561035
sg279
I1
sg280
I2
sasS'total_cqs'
p283
I7
ssI33
(dp284
S'iters'
p285
I1
sS'meta'
p286
(lp287
(dp288
S'objective'
p289
I0
sS'query_time'
p290
F0.03058004379272461
sS'comp_time'
p291
F0.0018258094787597656
sS'exec_cq'
p292
I2
sS'total_cq'
p293
I2
sasS'total_cqs'
p294
I2
ssI35
(dp295
S'iters'
p296
I3
sS'meta'
p297
(lp298
(dp299
S'objective'
p300
I1
sS'query_time'
p301
F15.494425058364868
sS'comp_time'
p302
F0.369152307510376
sS'exec_cq'
p303
I4
sS'total_cq'
p304
I5
sa(dp305
g300
I1
sg301
F0.1615750789642334
sg302
F0.07886695861816406
sg303
I2
sg304
I3
sa(dp306
g300
I0
sg301
F0.0006060600280761719
sg302
F0.0035181045532226562
sg303
I1
sg304
I2
sasS'total_cqs'
p307
I5
ssI37
(dp308
S'iters'
p309
I2
sS'meta'
p310
(lp311
(dp312
S'objective'
p313
I6
sS'query_time'
p314
F0.7008419036865234
sS'comp_time'
p315
F0.029273033142089844
sS'exec_cq'
p316
I4
sS'total_cq'
p317
I10
sa(dp318
g313
I0
sg314
F0.004282951354980469
sg315
F0.017437219619750977
sg316
I2
sg317
I2
sasS'total_cqs'
p319
I10
ssI40
(dp320
S'iters'
p321
I1
sS'meta'
p322
(lp323
(dp324
S'objective'
p325
I0
sS'query_time'
p326
F0.011617898941040039
sS'comp_time'
p327
F0.0015361309051513672
sS'exec_cq'
p328
I1
sS'total_cq'
p329
I2
sasS'total_cqs'
p330
I2
ssI41
(dp331
S'iters'
p332
I3
sS'meta'
p333
(lp334
(dp335
S'objective'
p336
I2
sS'query_time'
p337
F10.180372953414917
sS'comp_time'
p338
F1.8243510723114014
sS'exec_cq'
p339
I3
sS'total_cq'
p340
I6
sa(dp341
g336
I0
sg337
F0.8162188529968262
sg338
F0.005424976348876953
sg339
I2
sg340
I4
sa(dp342
g336
I0
sg337
F0.0006439685821533203
sg338
F0.003551006317138672
sg339
I2
sg340
I2
sasS'total_cqs'
p343
I6
ssI42
(dp344
S'iters'
p345
I1
sS'meta'
p346
(lp347
(dp348
S'objective'
p349
I0
sS'query_time'
p350
F0.01399993896484375
sS'comp_time'
p351
F0.0029828548431396484
sS'exec_cq'
p352
I1
sS'total_cq'
p353
I2
sasS'total_cqs'
p354
I2
ssI44
(dp355
S'iters'
p356
I3
sS'meta'
p357
(lp358
(dp359
S'objective'
p360
I3
sS'query_time'
p361
F1.3346009254455566
sS'comp_time'
p362
F0.19458818435668945
sS'exec_cq'
p363
I2
sS'total_cq'
p364
I5
sa(dp365
g360
I0
sg361
F0.25372910499572754
sg362
F0.0015289783477783203
sg363
I2
sg364
I4
sa(dp366
g360
I0
sg361
F6.198883056640625e-05
sg362
F0.0003521442413330078
sg363
I1
sg364
I2
sasS'total_cqs'
p367
I5
ssI45
(dp368
S'iters'
p369
I2
sS'meta'
p370
(lp371
(dp372
S'objective'
p373
I1
sS'query_time'
p374
F0.03910207748413086
sS'comp_time'
p375
F0.0050411224365234375
sS'exec_cq'
p376
I3
sS'total_cq'
p377
I5
sa(dp378
g373
I0
sg374
F0.0002269744873046875
sg375
F0.0009679794311523438
sg376
I2
sg377
I2
sasS'total_cqs'
p379
I5
ssI48
(dp380
S'iters'
p381
I1
sS'meta'
p382
(lp383
(dp384
S'objective'
p385
I0
sS'query_time'
p386
F0.1592559814453125
sS'comp_time'
p387
F0.005014657974243164
sS'exec_cq'
p388
I2
sS'total_cq'
p389
I2
sasS'total_cqs'
p390
I2
ssI49
(dp391
S'iters'
p392
I2
sS'meta'
p393
(lp394
(dp395
S'objective'
p396
I1
sS'query_time'
p397
F0.2760498523712158
sS'comp_time'
p398
F0.006573915481567383
sS'exec_cq'
p399
I4
sS'total_cq'
p400
I5
sa(dp401
g396
I1
sg397
F3.0994415283203125e-05
sg398
F0.0002579689025878906
sg399
I2
sg400
I3
sasS'total_cqs'
p402
I5
ssI50
(dp403
S'iters'
p404
I2
sS'meta'
p405
(lp406
(dp407
S'objective'
p408
I3
sS'query_time'
p409
F0.8321759700775146
sS'comp_time'
p410
F0.05497479438781738
sS'exec_cq'
p411
I5
sS'total_cq'
p412
I5
sa(dp413
g408
I2
sg409
F0.0001499652862548828
sg410
F0.0010380744934082031
sg411
I4
sg412
I4
sasS'total_cqs'
p414
I5
ssI55
(dp415
S'iters'
p416
I1
sS'meta'
p417
(lp418
(dp419
S'objective'
p420
I0
sS'query_time'
p421
F25.094204902648926
sS'comp_time'
p422
F3.3870537281036377
sS'exec_cq'
p423
I2
sS'total_cq'
p424
I2
sasS'total_cqs'
p425
I2
ssI57
(dp426
S'iters'
p427
I1
sS'meta'
p428
(lp429
(dp430
S'objective'
p431
I1
sS'query_time'
p432
F12.440342903137207
sS'comp_time'
p433
F2.31797194480896
sS'exec_cq'
p434
I2
sS'total_cq'
p435
I3
sasS'total_cqs'
p436
I3
ssI116
(dp437
S'iters'
p438
I3
sS'meta'
p439
(lp440
(dp441
S'objective'
p442
I17
sS'query_time'
p443
F4.175681829452515
sS'comp_time'
p444
F0.49027395248413086
sS'exec_cq'
p445
I15
sS'total_cq'
p446
I21
sa(dp447
g442
I15
sg443
F0.5720231533050537
sg444
F0.004237174987792969
sg445
I14
sg446
I19
sa(dp448
g442
I0
sg443
F0.0007269382476806641
sg444
F0.003446817398071289
sg445
I2
sg446
I2
sasS'total_cqs'
p449
I21
ssI117
(dp450
S'iters'
p451
I2
sS'meta'
p452
(lp453
(dp454
S'objective'
p455
I3
sS'query_time'
p456
F0.008246898651123047
sS'comp_time'
p457
F0.0015032291412353516
sS'exec_cq'
p458
I3
sS'total_cq'
p459
I5
sa(dp460
g455
I2
sg456
F0.0022008419036865234
sg457
F0.00011086463928222656
sg458
I3
sg459
I4
sasS'total_cqs'
p461
I5
ss.