(dp0
I1
(dp1
S'iters'
p2
I2
sS'meta'
p3
(lp4
(dp5
S'objective'
p6
I1
sS'query_time'
p7
F4.248809099197388
sS'comp_time'
p8
F7.200241088867188e-05
sS'exec_cq'
p9
I1
sS'total_cq'
p10
I6
sa(dp11
g6
I2
sg7
F48.47562003135681
sg8
F5.888938903808594e-05
sg9
I1
sg10
I2
sasS'total_cqs'
p12
I6
ssI2
(dp13
S'iters'
p14
I1
sS'meta'
p15
(lp16
(dp17
S'objective'
p18
I9
sS'query_time'
p19
F0.7000830173492432
sS'comp_time'
p20
F7.796287536621094e-05
sS'exec_cq'
p21
I1
sS'total_cq'
p22
I6
sasS'total_cqs'
p23
I6
ssI3
(dp24
S'iters'
p25
I1
sS'meta'
p26
(lp27
(dp28
S'objective'
p29
I495
sS'query_time'
p30
F0.24819111824035645
sS'comp_time'
p31
F0.00011205673217773438
sS'exec_cq'
p32
I1
sS'total_cq'
p33
I33
sasS'total_cqs'
p34
I33
ssI4
(dp35
S'iters'
p36
I0
sS'meta'
p37
(lp38
sS'total_cqs'
p39
I1
ssI5
(dp40
S'iters'
p41
I0
sS'meta'
p42
(lp43
sS'total_cqs'
p44
I1
ssI6
(dp45
S'iters'
p46
I3
sS'meta'
p47
(lp48
(dp49
S'objective'
p50
I3
sS'query_time'
p51
F2.5091919898986816
sS'comp_time'
p52
F7.605552673339844e-05
sS'exec_cq'
p53
I1
sS'total_cq'
p54
I5
sa(dp55
g50
I3
sg51
F20.35633397102356
sg52
F2.6226043701171875e-05
sg53
I1
sg54
I3
sa(dp56
g50
I4
sg51
F24.254860877990723
sg52
F5.793571472167969e-05
sg53
I1
sg54
I2
sasS'total_cqs'
p57
I5
ssI7
(dp58
S'iters'
p59
I0
sS'meta'
p60
(lp61
sS'total_cqs'
p62
I1
ssI8
(dp63
S'iters'
p64
I1
sS'meta'
p65
(lp66
(dp67
S'objective'
p68
I9
sS'query_time'
p69
F31.674957990646362
sS'comp_time'
p70
F0.0004069805145263672
sS'exec_cq'
p71
I1
sS'total_cq'
p72
I6
sasS'total_cqs'
p73
I6
ssI9
(dp74
S'iters'
p75
I2
sS'meta'
p76
(lp77
(dp78
S'objective'
p79
I5
sS'query_time'
p80
F4.533143997192383
sS'comp_time'
p81
F7.200241088867188e-05
sS'exec_cq'
p82
I1
sS'total_cq'
p83
I6
sa(dp84
g79
I4
sg80
F0.11021995544433594
sg81
F6.008148193359375e-05
sg82
I1
sg83
I2
sasS'total_cqs'
p85
I6
ssI10
(dp86
S'iters'
p87
I0
sS'meta'
p88
(lp89
sS'total_cqs'
p90
I1
ssI11
(dp91
S'iters'
p92
I0
sS'meta'
p93
(lp94
sS'total_cqs'
p95
I1
ssI12
(dp96
S'iters'
p97
I0
sS'meta'
p98
(lp99
sS'total_cqs'
p100
I1
ssI13
(dp101
S'iters'
p102
I1
sS'meta'
p103
(lp104
(dp105
S'objective'
p106
I20
sS'query_time'
p107
F0.22088384628295898
sS'comp_time'
p108
F4.9114227294921875e-05
sS'exec_cq'
p109
I1
sS'total_cq'
p110
I8
sasS'total_cqs'
p111
I8
ssI14
(dp112
S'iters'
p113
I1
sS'meta'
p114
(lp115
(dp116
S'objective'
p117
I5
sS'query_time'
p118
F0.8048200607299805
sS'comp_time'
p119
F7.295608520507812e-05
sS'exec_cq'
p120
I1
sS'total_cq'
p121
I5
sasS'total_cqs'
p122
I5
ssI16
(dp123
S'iters'
p124
I2
sS'meta'
p125
(lp126
(dp127
S'objective'
p128
I3
sS'query_time'
p129
F3.97491717338562
sS'comp_time'
p130
F6.198883056640625e-05
sS'exec_cq'
p131
I1
sS'total_cq'
p132
I5
sa(dp133
g128
I1
sg129
F98.09129595756531
sg130
F6.699562072753906e-05
sg131
I2
sg132
I2
sasS'total_cqs'
p134
I5
ssI17
(dp135
S'iters'
p136
I0
sS'meta'
p137
(lp138
sS'total_cqs'
p139
I1
ssI18
(dp140
S'iters'
p141
I2
sS'meta'
p142
(lp143
(dp144
S'objective'
p145
I3
sS'query_time'
p146
F0.31879186630249023
sS'comp_time'
p147
F6.198883056640625e-05
sS'exec_cq'
p148
I1
sS'total_cq'
p149
I5
sa(dp150
g145
I4
sg146
F0.27300405502319336
sg147
F8.511543273925781e-05
sg148
I2
sg149
I2
sasS'total_cqs'
p151
I5
ssI19
(dp152
S'iters'
p153
I0
sS'meta'
p154
(lp155
sS'total_cqs'
p156
I1
ssI20
(dp157
S'iters'
p158
I1
sS'meta'
p159
(lp160
(dp161
S'objective'
p162
I54
sS'query_time'
p163
F0.13793087005615234
sS'comp_time'
p164
F7.700920104980469e-05
sS'exec_cq'
p165
I1
sS'total_cq'
p166
I12
sasS'total_cqs'
p167
I12
ssI21
(dp168
S'iters'
p169
I1
sS'meta'
p170
(lp171
(dp172
S'objective'
p173
I77
sS'query_time'
p174
F0.033674001693725586
sS'comp_time'
p175
F6.794929504394531e-05
sS'exec_cq'
p176
I1
sS'total_cq'
p177
I14
sasS'total_cqs'
p178
I14
ssI22
(dp179
S'iters'
p180
I1
sS'meta'
p181
(lp182
(dp183
S'objective'
p184
I1
sS'query_time'
p185
F0.004566192626953125
sS'comp_time'
p186
F3.600120544433594e-05
sS'exec_cq'
p187
I1
sS'total_cq'
p188
I2
sasS'total_cqs'
p189
I2
ssI23
(dp190
S'iters'
p191
I0
sS'meta'
p192
(lp193
sS'total_cqs'
p194
I1
ssI24
(dp195
S'iters'
p196
I0
sS'meta'
p197
(lp198
sS'total_cqs'
p199
I1
ssI25
(dp200
S'iters'
p201
I1
sS'meta'
p202
(lp203
(dp204
S'objective'
p205
I14
sS'query_time'
p206
F0.40148496627807617
sS'comp_time'
p207
F8.702278137207031e-05
sS'exec_cq'
p208
I1
sS'total_cq'
p209
I7
sasS'total_cqs'
p210
I7
ssI26
(dp211
S'iters'
p212
I1
sS'meta'
p213
(lp214
(dp215
S'objective'
p216
I65
sS'query_time'
p217
F0.014619112014770508
sS'comp_time'
p218
F6.103515625e-05
sS'exec_cq'
p219
I1
sS'total_cq'
p220
I13
sasS'total_cqs'
p221
I13
ssI27
(dp222
S'iters'
p223
I1
sS'meta'
p224
(lp225
(dp226
S'objective'
p227
I1
sS'query_time'
p228
F0.3164710998535156
sS'comp_time'
p229
F9.107589721679688e-05
sS'exec_cq'
p230
I1
sS'total_cq'
p231
I2
sasS'total_cqs'
p232
I2
ssI28
(dp233
S'iters'
p234
I1
sS'meta'
p235
(lp236
(dp237
S'objective'
p238
I77
sS'query_time'
p239
F1.0742380619049072
sS'comp_time'
p240
F4.00543212890625e-05
sS'exec_cq'
p241
I1
sS'total_cq'
p242
I14
sasS'total_cqs'
p243
I14
ssI29
(dp244
S'iters'
p245
I1
sS'meta'
p246
(lp247
(dp248
S'objective'
p249
I1
sS'query_time'
p250
F0.005076885223388672
sS'comp_time'
p251
F4.696846008300781e-05
sS'exec_cq'
p252
I1
sS'total_cq'
p253
I2
sasS'total_cqs'
p254
I2
ssI30
(dp255
S'iters'
p256
I1
sS'meta'
p257
(lp258
(dp259
S'objective'
p260
I1
sS'query_time'
p261
F0.32883191108703613
sS'comp_time'
p262
F7.081031799316406e-05
sS'exec_cq'
p263
I1
sS'total_cq'
p264
I2
sasS'total_cqs'
p265
I2
ssI31
(dp266
S'iters'
p267
I1
sS'meta'
p268
(lp269
(dp270
S'objective'
p271
I27
sS'query_time'
p272
F0.4826838970184326
sS'comp_time'
p273
F7.700920104980469e-05
sS'exec_cq'
p274
I1
sS'total_cq'
p275
I9
sasS'total_cqs'
p276
I9
ssI32
(dp277
S'iters'
p278
I1
sS'meta'
p279
(lp280
(dp281
S'objective'
p282
I14
sS'query_time'
p283
F0.15832304954528809
sS'comp_time'
p284
F0.000102996826171875
sS'exec_cq'
p285
I1
sS'total_cq'
p286
I7
sasS'total_cqs'
p287
I7
ssI33
(dp288
S'iters'
p289
I1
sS'meta'
p290
(lp291
(dp292
S'objective'
p293
I1
sS'query_time'
p294
F0.031580209732055664
sS'comp_time'
p295
F7.200241088867188e-05
sS'exec_cq'
p296
I1
sS'total_cq'
p297
I2
sasS'total_cqs'
p298
I2
ssI34
(dp299
S'iters'
p300
I0
sS'meta'
p301
(lp302
sS'total_cqs'
p303
I1
ssI35
(dp304
S'iters'
p305
I2
sS'meta'
p306
(lp307
(dp308
S'objective'
p309
I1
sS'query_time'
p310
F3.178704023361206
sS'comp_time'
p311
F7.891654968261719e-05
sS'exec_cq'
p312
I1
sS'total_cq'
p313
I5
sa(dp314
g309
I3
sg310
F0.09953904151916504
sg311
F0.00011610984802246094
sg312
I1
sg313
I2
sasS'total_cqs'
p315
I5
ssI37
(dp316
S'iters'
p317
I2
sS'meta'
p318
(lp319
(dp320
S'objective'
p321
I21
sS'query_time'
p322
F0.37000393867492676
sS'comp_time'
p323
F9.012222290039062e-05
sS'exec_cq'
p324
I1
sS'total_cq'
p325
I10
sa(dp326
g321
I3
sg322
F0.10079503059387207
sg323
F4.1961669921875e-05
sg324
I1
sg325
I2
sasS'total_cqs'
p327
I10
ssI38
(dp328
S'iters'
p329
I0
sS'meta'
p330
(lp331
sS'total_cqs'
p332
I1
ssI39
(dp333
S'iters'
p334
I0
sS'meta'
p335
(lp336
sS'total_cqs'
p337
I1
ssI40
(dp338
S'iters'
p339
I1
sS'meta'
p340
(lp341
(dp342
S'objective'
p343
I1
sS'query_time'
p344
F15.572418928146362
sS'comp_time'
p345
F0.0001289844512939453
sS'exec_cq'
p346
I2
sS'total_cq'
p347
I2
sasS'total_cqs'
p348
I2
ssI41
(dp349
S'iters'
p350
I2
sS'meta'
p351
(lp352
(dp353
S'objective'
p354
I7
sS'query_time'
p355
F2.439568042755127
sS'comp_time'
p356
F6.413459777832031e-05
sS'exec_cq'
p357
I1
sS'total_cq'
p358
I6
sa(dp359
g354
I5
sg355
F70.16153907775879
sg356
F5.698204040527344e-05
sg357
I2
sg358
I2
sasS'total_cqs'
p360
I6
ssI42
(dp361
S'iters'
p362
I1
sS'meta'
p363
(lp364
(dp365
S'objective'
p366
I1
sS'query_time'
p367
F0.012315988540649414
sS'comp_time'
p368
F4.792213439941406e-05
sS'exec_cq'
p369
I1
sS'total_cq'
p370
I2
sasS'total_cqs'
p371
I2
ssI43
(dp372
S'iters'
p373
I0
sS'meta'
p374
(lp375
sS'total_cqs'
p376
I1
ssI44
(dp377
S'iters'
p378
I1
sS'meta'
p379
(lp380
(dp381
S'objective'
p382
I5
sS'query_time'
p383
F0.009679079055786133
sS'comp_time'
p384
F4.9114227294921875e-05
sS'exec_cq'
p385
I1
sS'total_cq'
p386
I5
sasS'total_cqs'
p387
I5
ssI45
(dp388
S'iters'
p389
I2
sS'meta'
p390
(lp391
(dp392
S'objective'
p393
I3
sS'query_time'
p394
F0.0406339168548584
sS'comp_time'
p395
F7.796287536621094e-05
sS'exec_cq'
p396
I1
sS'total_cq'
p397
I5
sa(dp398
g393
I4
sg394
F0.5251059532165527
sg395
F5.698204040527344e-05
sg396
I2
sg397
I2
sasS'total_cqs'
p399
I5
ssI46
(dp400
S'iters'
p401
I0
sS'meta'
p402
(lp403
sS'total_cqs'
p404
I1
ssI47
(dp405
S'iters'
p406
I0
sS'meta'
p407
(lp408
sS'total_cqs'
p409
I1
ssI48
(dp410
S'iters'
p411
I1
sS'meta'
p412
(lp413
(dp414
S'objective'
p415
I1
sS'query_time'
p416
F0.10847902297973633
sS'comp_time'
p417
F8.20159912109375e-05
sS'exec_cq'
p418
I1
sS'total_cq'
p419
I2
sasS'total_cqs'
p420
I2
ssI49
(dp421
S'iters'
p422
I1
sS'meta'
p423
(lp424
(dp425
S'objective'
p426
I5
sS'query_time'
p427
F0.12062692642211914
sS'comp_time'
p428
F6.198883056640625e-05
sS'exec_cq'
p429
I1
sS'total_cq'
p430
I5
sasS'total_cqs'
p431
I5
ssI50
(dp432
S'iters'
p433
I1
sS'meta'
p434
(lp435
(dp436
S'objective'
p437
I5
sS'query_time'
p438
F0.6992871761322021
sS'comp_time'
p439
F7.510185241699219e-05
sS'exec_cq'
p440
I1
sS'total_cq'
p441
I5
sasS'total_cqs'
p442
I5
ssI51
(dp443
S'iters'
p444
I0
sS'meta'
p445
(lp446
sS'total_cqs'
p447
I1
ssI52
(dp448
S'iters'
p449
I0
sS'meta'
p450
(lp451
sS'total_cqs'
p452
I1
ssI53
(dp453
S'iters'
p454
I0
sS'meta'
p455
(lp456
sS'total_cqs'
p457
I1
ssI55
(dp458
S'iters'
p459
I1
sS'meta'
p460
(lp461
(dp462
S'objective'
p463
I1
sS'query_time'
p464
F14.337536811828613
sS'comp_time'
p465
F5.793571472167969e-05
sS'exec_cq'
p466
I1
sS'total_cq'
p467
I2
sasS'total_cqs'
p468
I2
ssI56
(dp469
S'iters'
p470
I0
sS'meta'
p471
(lp472
sS'total_cqs'
p473
I1
ssI57
(dp474
S'iters'
p475
I1
sS'meta'
p476
(lp477
(dp478
S'objective'
p479
I0
sS'query_time'
p480
F16.79550790786743
sS'comp_time'
p481
F0.00049591064453125
sS'exec_cq'
p482
I1
sS'total_cq'
p483
I3
sasS'total_cqs'
p484
I3
ssI108
(dp485
S'iters'
p486
I0
sS'meta'
p487
(lp488
sS'total_cqs'
p489
I1
ssI109
(dp490
S'iters'
p491
I0
sS'meta'
p492
(lp493
sS'total_cqs'
p494
I1
ssI116
(dp495
S'iters'
p496
I2
sS'meta'
p497
(lp498
(dp499
S'objective'
p500
I151
sS'query_time'
p501
F1.6034190654754639
sS'comp_time'
p502
F7.605552673339844e-05
sS'exec_cq'
p503
I1
sS'total_cq'
p504
I21
sa(dp505
g500
I2
sg501
F2.560080051422119
sg502
F2.8848648071289062e-05
sg503
I1
sg504
I2
sasS'total_cqs'
p506
I21
ssI117
(dp507
S'iters'
p508
I1
sS'meta'
p509
(lp510
(dp511
S'objective'
p512
I5
sS'query_time'
p513
F0.0074939727783203125
sS'comp_time'
p514
F4.00543212890625e-05
sS'exec_cq'
p515
I1
sS'total_cq'
p516
I5
sasS'total_cqs'
p517
I5
ssI118
(dp518
S'iters'
p519
I0
sS'meta'
p520
(lp521
sS'total_cqs'
p522
I1
ssI122
(dp523
S'iters'
p524
I0
sS'meta'
p525
(lp526
sS'total_cqs'
p527
I1
ss.