(dp0
I1
(dp1
S'iters'
p2
I3
sS'meta'
p3
(lp4
(dp5
S'objective'
p6
(cnumpy.core.multiarray
scalar
p7
(cnumpy
dtype
p8
(S'f8'
p9
I0
I1
tp10
Rp11
(I3
S'<'
p12
NNNI-1
I-1
I0
tp13
bS'\x00\x00\x00\x00\x00\x00\xf0?'
p14
tp15
Rp16
g16
tp17
sS'query_time'
p18
F25.498735904693604
sS'comp_time'
p19
F0.018077850341796875
sS'exec_cq'
p20
I6
sS'total_cq'
p21
I6
sa(dp22
g6
(g7
(g11
S'\x00\x00\x00\x00\x00\x00\xf0?'
p23
tp24
Rp25
g25
tp26
sg18
F0.01287388801574707
sg19
F1.3665263652801514
sg20
I5
sg21
I5
sa(dp27
g6
(g7
(g11
S'\x00\x00\x00\x00\x00\x00\xf0?'
p28
tp29
Rp30
g30
tp31
sg18
F0.08205604553222656
sg19
F258.58242750167847
sg20
I2
sg21
I2
sasS'total_cqs'
p32
I6
ssI2
(dp33
S'iters'
p34
I1
sS'meta'
p35
(lp36
(dp37
S'objective'
p38
(g7
(g11
S'\x00\x00\x00\x00\x00\x00\xf0?'
p39
tp40
Rp41
g41
tp42
sS'query_time'
p43
F1.1383321285247803
sS'comp_time'
p44
F0.014646053314208984
sS'exec_cq'
p45
I6
sS'total_cq'
p46
I6
sasS'total_cqs'
p47
I6
ssI3
(dp48
S'iters'
p49
I15
sS'meta'
p50
(lp51
(dp52
S'objective'
p53
(g7
(g11
S'\x00\x00\x00\x00\x00\x00\xf0?'
p54
tp55
Rp56
g7
(g11
S'\x00\x00\x00\x00\x00\xc0b@'
p57
tp58
Rp59
tp60
sS'query_time'
p61
F26.57155990600586
sS'comp_time'
p62
F0.04085898399353027
sS'exec_cq'
p63
I33
sS'total_cq'
p64
I33
sa(dp65
g53
(g7
(g11
S'\x00\x00\x00\x00\x00\x00\xf0?'
p66
tp67
Rp68
g7
(g11
S'\x00\x00\x00\x00\x00\x007@'
p69
tp70
Rp71
tp72
sg61
F0.0581820011138916
sg62
F0.03410983085632324
sg63
I30
sg64
I30
sa(dp73
g53
(g7
(g11
S'\x00\x00\x00\x00\x00\x00\xf0?'
p74
tp75
Rp76
g7
(g11
S'\x00\x00\x00\x00\x00\x00\x08@'
p77
tp78
Rp79
tp80
sg61
F0.07599902153015137
sg62
F0.033599853515625
sg63
I27
sg64
I27
sa(dp81
g53
(g7
(g11
S'\x00\x00\x00\x00\x00\x00\xf0?'
p82
tp83
Rp84
g7
(g11
S'\x00\x00\x00\x00\x00\x00\x00@'
p85
tp86
Rp87
tp88
sg61
F0.03783082962036133
sg62
F0.034391164779663086
sg63
I24
sg64
I24
sa(dp89
g53
(g7
(g11
S'\x00\x00\x00\x00\x00\x00\xf0?'
p90
tp91
Rp92
g7
(g11
S'\x00\x00\x00\x00\x00\x00\x00@'
p93
tp94
Rp95
tp96
sg61
F0.023765087127685547
sg62
F0.02009105682373047
sg63
I23
sg64
I23
sa(dp97
g53
(g7
(g11
S'\x00\x00\x00\x00\x00\x00\xf0?'
p98
tp99
Rp100
g7
(g11
S'\x00\x00\x00\x00\x00\x00\x00@'
p101
tp102
Rp103
tp104
sg61
F0.05293703079223633
sg62
F0.01967597007751465
sg63
I22
sg64
I22
sa(dp105
g53
(g7
(g11
S'\x00\x00\x00\x00\x00\x00\xf0?'
p106
tp107
Rp108
g7
(g11
S'\x00\x00\x00\x00\x00\x00\x00@'
p109
tp110
Rp111
tp112
sg61
F0.01769709587097168
sg62
F0.015655040740966797
sg63
I21
sg64
I21
sa(dp113
g53
(g7
(g11
S'\x00\x00\x00\x00\x00\x00\xf0?'
p114
tp115
Rp116
g116
tp117
sg61
F0.007955074310302734
sg62
F0.006120920181274414
sg63
I20
sg64
I20
sa(dp118
g53
(g7
(g11
S'\x00\x00\x00\x00\x00\x00\xf0?'
p119
tp120
Rp121
g121
tp122
sg61
F0.006101846694946289
sg62
F0.006039142608642578
sg63
I19
sg64
I19
sa(dp123
g53
(g7
(g11
S'\x00\x00\x00\x00\x00\x00\xf0?'
p124
tp125
Rp126
g126
tp127
sg61
F0.005956172943115234
sg62
F0.005610942840576172
sg63
I18
sg64
I18
sa(dp128
g53
(g7
(g11
S'\x00\x00\x00\x00\x00\x00\xf0?'
p129
tp130
Rp131
g131
tp132
sg61
F0.004454135894775391
sg62
F0.005354166030883789
sg63
I17
sg64
I17
sa(dp133
g53
(g7
(g11
S'\x00\x00\x00\x00\x00\x00\xf0?'
p134
tp135
Rp136
g136
tp137
sg61
F0.004256010055541992
sg62
F0.005160808563232422
sg63
I16
sg64
I16
sa(dp138
g53
(g7
(g11
S'\x00\x00\x00\x00\x00\x00\xf0?'
p139
tp140
Rp141
g141
tp142
sg61
F0.0042591094970703125
sg62
F0.004895210266113281
sg63
I14
sg64
I14
sa(dp143
g53
(g7
(g11
S'\x00\x00\x00\x00\x00\x00\xf0?'
p144
tp145
Rp146
g146
tp147
sg61
F0.004641056060791016
sg62
F0.005117893218994141
sg63
I12
sg64
I12
sa(dp148
g53
(g7
(g11
S'\x00\x00\x00\x00\x00\x00\xf0?'
p149
tp150
Rp151
g151
tp152
sg61
F0.004910945892333984
sg62
F0.005120277404785156
sg63
I10
sg64
I10
sasS'total_cqs'
p153
I33
ssI6
(dp154
S'iters'
p155
I2
sS'meta'
p156
(lp157
(dp158
S'objective'
p159
(g7
(g11
S'\x00\x00\x00\x00\x00 c@'
p160
tp161
Rp162
g7
(g11
S'\x00\x00\x00\x00\x00\x00n@'
p163
tp164
Rp165
tp166
sS'query_time'
p167
F14.897277116775513
sS'comp_time'
p168
F0.0015947818756103516
sS'exec_cq'
p169
I5
sS'total_cq'
p170
I5
sa(dp171
g159
(g7
(g11
S'\x00\x00\x00\x00\x00\x00\xf0?'
p172
tp173
Rp174
g7
(g11
S'\x00\x00\x00\x00\x00\x90r@'
p175
tp176
Rp177
tp178
sg167
F0.0007250308990478516
sg168
F0.0006909370422363281
sg169
I3
sg170
I3
sasS'total_cqs'
p179
I5
ssI8
(dp180
S'iters'
p181
I4
sS'meta'
p182
(lp183
(dp184
S'objective'
p185
(g7
(g11
S'\x00\x00\x00\x00\x00\x00\xf0?'
p186
tp187
Rp188
g188
tp189
sS'query_time'
p190
F22.888827800750732
sS'comp_time'
p191
F0.037786006927490234
sS'exec_cq'
p192
I6
sS'total_cq'
p193
I6
sa(dp194
g185
(g7
(g11
S'\x00\x00\x00\x00\x00\x00\xf0?'
p195
tp196
Rp197
g197
tp198
sg190
F1.8563647270202637
sg191
F2.0317652225494385
sg192
I5
sg193
I5
sa(dp199
g185
(g7
(g11
S'\x00\x00\x00\x00\x00\x00\xf0?'
p200
tp201
Rp202
g202
tp203
sg190
F21.904154777526855
sg191
F21.635990142822266
sg192
I3
sg193
I3
sa(dp204
g185
(g7
(g11
S'\x00\x00\x00\x00\x00\x00\xf0?'
p205
tp206
Rp207
g207
tp208
sg190
F0.047110795974731445
sg191
F0.040524959564208984
sg192
I2
sg193
I2
sasS'total_cqs'
p209
I6
ssI9
(dp210
S'iters'
p211
I2
sS'meta'
p212
(lp213
(dp214
S'objective'
p215
(g7
(g11
S'\x00\x00\x00\x00\x00\xe0u@'
p216
tp217
Rp218
g7
(g11
S'\x00\x00\x00\x00\x80\x06\xc7@'
p219
tp220
Rp221
tp222
sS'query_time'
p223
F53.37673783302307
sS'comp_time'
p224
F0.3468160629272461
sS'exec_cq'
p225
I6
sS'total_cq'
p226
I6
sa(dp227
g215
(g7
(g11
S'\x00\x00\x00\x00\x00\x00\xf0?'
p228
tp229
Rp230
g230
tp231
sg223
F0.10883307456970215
sg224
F0.025393962860107422
sg225
I2
sg226
I2
sasS'total_cqs'
p232
I6
ssI13
(dp233
S'iters'
p234
I2
sS'meta'
p235
(lp236
(dp237
S'objective'
p238
(g7
(g11
S'\x00\x00\x00\x00\x00\x00\xf0?'
p239
tp240
Rp241
g241
tp242
sS'query_time'
p243
F0.02030205726623535
sS'comp_time'
p244
F0.0004818439483642578
sS'exec_cq'
p245
I8
sS'total_cq'
p246
I8
sa(dp247
g238
(g7
(g11
S'\x00\x00\x00\x00\x00\x00\xf0?'
p248
tp249
Rp250
g250
tp251
sg243
F3.600120544433594e-05
sg244
F0.00010204315185546875
sg245
I7
sg246
I7
sasS'total_cqs'
p252
I8
ssI14
(dp253
S'iters'
p254
I3
sS'meta'
p255
(lp256
(dp257
S'objective'
p258
(g7
(g11
S'\x00\x00\x00\x00\x00\x00\xf0?'
p259
tp260
Rp261
g261
tp262
sS'query_time'
p263
F1.1707680225372314
sS'comp_time'
p264
F0.0013918876647949219
sS'exec_cq'
p265
I5
sS'total_cq'
p266
I5
sa(dp267
g258
(g7
(g11
S'\x00\x00\x00\x00\x00\x00\xf0?'
p268
tp269
Rp270
g270
tp271
sg263
F0.0007457733154296875
sg264
F0.0010039806365966797
sg265
I4
sg266
I4
sa(dp272
g258
(g7
(g11
S'\x00\x00\x00\x00\x00\x00\xf0?'
p273
tp274
Rp275
g275
tp276
sg263
F0.0005419254302978516
sg264
F0.0008921623229980469
sg265
I3
sg266
I3
sasS'total_cqs'
p277
I5
ssI16
(dp278
S'iters'
p279
I3
sS'meta'
p280
(lp281
(dp282
S'objective'
p283
(g7
(g11
S'\x00\x00\x00\x00\x00\x00(@'
p284
tp285
Rp286
g7
(g11
S'\x00\x00\x00\x00\x00\x80M@'
p287
tp288
Rp289
tp290
sS'query_time'
p291
F1.824660062789917
sS'comp_time'
p292
F0.0018417835235595703
sS'exec_cq'
p293
I5
sS'total_cq'
p294
I5
sa(dp295
g283
(g7
(g11
S'\x00\x00\x00\x00\x00\x00\xf0?'
p296
tp297
Rp298
g7
(g11
S'\x00\x00\x00\x00\x00\x00\x1c@'
p299
tp300
Rp301
tp302
sg291
F0.00021195411682128906
sg292
F0.00036907196044921875
sg293
I3
sg294
I3
sa(dp303
g283
(g7
(g11
S'\x00\x00\x00\x00\x00\x00\xf0?'
p304
tp305
Rp306
g306
tp307
sg291
F0.00019693374633789062
sg292
F0.0003540515899658203
sg293
I2
sg294
I2
sasS'total_cqs'
p308
I5
ssI18
(dp309
S'iters'
p310
I2
sS'meta'
p311
(lp312
(dp313
S'objective'
p314
(g7
(g11
S'\x00\x00\x00\x00\x00\x00\x08@'
p315
tp316
Rp317
g7
(g11
S'\x00\x00\x00\x00\x00\x001@'
p318
tp319
Rp320
tp321
sS'query_time'
p322
F0.5191709995269775
sS'comp_time'
p323
F0.0008940696716308594
sS'exec_cq'
p324
I5
sS'total_cq'
p325
I5
sa(dp326
g314
(g7
(g11
S'\x00\x00\x00\x00\x00\x00\xf0?'
p327
tp328
Rp329
g7
(g11
S'\x00\x00\x00\x00\x00\x005@'
p330
tp331
Rp332
tp333
sg322
F4.982948303222656e-05
sg323
F0.0001399517059326172
sg324
I3
sg325
I3
sasS'total_cqs'
p334
I5
ssI20
(dp335
S'iters'
p336
I6
sS'meta'
p337
(lp338
(dp339
S'objective'
p340
(g7
(g11
S'\x00\x00\x00\x00\x00\x00\xf0?'
p341
tp342
Rp343
g7
(g11
S'\x00\x00\x00\x00\x80\xb2\xc3@'
p344
tp345
Rp346
tp347
sS'query_time'
p348
F12.02673602104187
sS'comp_time'
p349
F0.11939024925231934
sS'exec_cq'
p350
I12
sS'total_cq'
p351
I12
sa(dp352
g340
(g7
(g11
S'\x00\x00\x00\x00\x00\x00\xf0?'
p353
tp354
Rp355
g7
(g11
S'\x00\x00\x00\x00\x00\x00\x10@'
p356
tp357
Rp358
tp359
sg348
F0.11893916130065918
sg349
F0.07537674903869629
sg350
I10
sg351
I10
sa(dp360
g340
(g7
(g11
S'\x00\x00\x00\x00\x00\x00\xf0?'
p361
tp362
Rp363
g7
(g11
S'\x00\x00\x00\x00\x00\x00\x10@'
p364
tp365
Rp366
tp367
sg348
F0.13945388793945312
sg349
F0.06465697288513184
sg350
I9
sg351
I9
sa(dp368
g340
(g7
(g11
S'\x00\x00\x00\x00\x00\x00\xf0?'
p369
tp370
Rp371
g371
tp372
sg348
F0.1313779354095459
sg349
F0.05451178550720215
sg350
I8
sg351
I8
sa(dp373
g340
(g7
(g11
S'\x00\x00\x00\x00\x00\x00\xf0?'
p374
tp375
Rp376
g376
tp377
sg348
F0.0888669490814209
sg349
F0.04997396469116211
sg350
I7
sg351
I7
sa(dp378
g340
(g7
(g11
S'\x00\x00\x00\x00\x00\x00\xf0?'
p379
tp380
Rp381
g381
tp382
sg348
F0.0010190010070800781
sg349
F0.0009641647338867188
sg350
I6
sg351
I6
sasS'total_cqs'
p383
I12
ssI21
(dp384
S'iters'
p385
I5
sS'meta'
p386
(lp387
(dp388
S'objective'
p389
(g7
(g11
S'\x00\x00\x00\x00\x00\x00\xf0?'
p390
tp391
Rp392
g7
(g11
S'\x00\x00\x00\x00\x00d\x91@'
p393
tp394
Rp395
tp396
sS'query_time'
p397
F31.662800073623657
sS'comp_time'
p398
F0.35055112838745117
sS'exec_cq'
p399
I14
sS'total_cq'
p400
I14
sa(dp401
g389
(g7
(g11
S'\x00\x00\x00\x00\x00\x00\xf0?'
p402
tp403
Rp404
g7
(g11
S'\x00\x00\x00\x00\x00\xa8\x8e@'
p405
tp406
Rp407
tp408
sg397
F0.07106518745422363
sg398
F0.029654979705810547
sg399
I10
sg400
I10
sa(dp409
g389
(g7
(g11
S'\x00\x00\x00\x00\x00\x00\xf0?'
p410
tp411
Rp412
g7
(g11
S'\x00\x00\x00\x00\x00\x00"@'
p413
tp414
Rp415
tp416
sg397
F0.016906023025512695
sg398
F0.01826000213623047
sg399
I6
sg400
I6
sa(dp417
g389
(g7
(g11
S'\x00\x00\x00\x00\x00\x00\xf0?'
p418
tp419
Rp420
g420
tp421
sg397
F0.01225900650024414
sg398
F0.010874032974243164
sg399
I5
sg400
I5
sa(dp422
g389
(g7
(g11
S'\x00\x00\x00\x00\x00\x00\xf0?'
p423
tp424
Rp425
g425
tp426
sg397
F0.0012009143829345703
sg398
F0.0023910999298095703
sg399
I3
sg400
I3
sasS'total_cqs'
p427
I14
ssI22
(dp428
S'iters'
p429
I1
sS'meta'
p430
(lp431
(dp432
S'objective'
p433
(g7
(g11
S'\x00\x00\x00\x00\x00\x00\xf0?'
p434
tp435
Rp436
g436
tp437
sS'query_time'
p438
F0.005578041076660156
sS'comp_time'
p439
F0.0005407333374023438
sS'exec_cq'
p440
I2
sS'total_cq'
p441
I2
sasS'total_cqs'
p442
I2
ssI25
(dp443
S'iters'
p444
I3
sS'meta'
p445
(lp446
(dp447
S'objective'
p448
(g7
(g11
S'\x00\x00\x00\x00\x00\x00\xf0?'
p449
tp450
Rp451
g7
(g11
S'\x00\x00\x00\x00\x00@X@'
p452
tp453
Rp454
tp455
sS'query_time'
p456
F51.62211012840271
sS'comp_time'
p457
F0.4681732654571533
sS'exec_cq'
p458
I7
sS'total_cq'
p459
I7
sa(dp460
g448
(g7
(g11
S'\x00\x00\x00\x00\x00\x00\xf0?'
p461
tp462
Rp463
g463
tp464
sg456
F0.014658927917480469
sg457
F0.2351701259613037
sg458
I5
sg459
I5
sa(dp465
g448
(g7
(g11
S'\x00\x00\x00\x00\x00\x00\xf0?'
p466
tp467
Rp468
g468
tp469
sg456
F0.001483917236328125
sg457
F0.004894733428955078
sg458
I3
sg459
I3
sasS'total_cqs'
p470
I7
ssI26
(dp471
S'iters'
p472
I10
sS'meta'
p473
(lp474
(dp475
S'objective'
p476
(g7
(g11
S'\x00\x00\x00\x00\x00\x00\xf0?'
p477
tp478
Rp479
g7
(g11
S'\x00\x00\x00\x00\x00\xa0u@'
p480
tp481
Rp482
tp483
sS'query_time'
p484
F24.61414909362793
sS'comp_time'
p485
F0.2706630229949951
sS'exec_cq'
p486
I13
sS'total_cq'
p487
I13
sa(dp488
g476
(g7
(g11
S'\x00\x00\x00\x00\x00\x00\xf0?'
p489
tp490
Rp491
g7
(g11
S'\x00\x00\x00\x00\x00 f@'
p492
tp493
Rp494
tp495
sg484
F0.8401820659637451
sg485
F0.27261781692504883
sg486
I12
sg487
I12
sa(dp496
g476
(g7
(g11
S'\x00\x00\x00\x00\x00\x00\xf0?'
p497
tp498
Rp499
g7
(g11
S'\x00\x00\x00\x00\x00\x00 @'
p500
tp501
Rp502
tp503
sg484
F0.8056900501251221
sg485
F0.25827527046203613
sg486
I10
sg487
I10
sa(dp504
g476
(g7
(g11
S'\x00\x00\x00\x00\x00\x00\xf0?'
p505
tp506
Rp507
g507
tp508
sg484
F0.9125239849090576
sg485
F0.259397029876709
sg486
I8
sg487
I8
sa(dp509
g476
(g7
(g11
S'\x00\x00\x00\x00\x00\x00\xf0?'
p510
tp511
Rp512
g512
tp513
sg484
F0.0022389888763427734
sg485
F0.0019199848175048828
sg486
I7
sg487
I7
sa(dp514
g476
(g7
(g11
S'\x00\x00\x00\x00\x00\x00\xf0?'
p515
tp516
Rp517
g517
tp518
sg484
F0.001215219497680664
sg485
F0.0015611648559570312
sg486
I6
sg487
I6
sa(dp519
g476
(g7
(g11
S'\x00\x00\x00\x00\x00\x00\xf0?'
p520
tp521
Rp522
g522
tp523
sg484
F0.0010249614715576172
sg485
F0.0013480186462402344
sg486
I5
sg487
I5
sa(dp524
g476
(g7
(g11
S'\x00\x00\x00\x00\x00\x00\xf0?'
p525
tp526
Rp527
g527
tp528
sg484
F0.0005719661712646484
sg485
F0.0007069110870361328
sg486
I4
sg487
I4
sa(dp529
g476
(g7
(g11
S'\x00\x00\x00\x00\x00\x00\xf0?'
p530
tp531
Rp532
g532
tp533
sg484
F0.0002949237823486328
sg485
F0.0004870891571044922
sg486
I3
sg487
I3
sa(dp534
g476
(g7
(g11
S'\x00\x00\x00\x00\x00\x00\xf0?'
p535
tp536
Rp537
g537
tp538
sg484
F0.00016808509826660156
sg485
F0.0002739429473876953
sg486
I2
sg487
I2
sasS'total_cqs'
p539
I13
ssI27
(dp540
S'iters'
p541
I1
sS'meta'
p542
(lp543
(dp544
S'objective'
p545
(g7
(g11
S'\x00\x00\x00\x00\x00\x00\xf0?'
p546
tp547
Rp548
g548
tp549
sS'query_time'
p550
F0.1440889835357666
sS'comp_time'
p551
F0.001168966293334961
sS'exec_cq'
p552
I2
sS'total_cq'
p553
I2
sasS'total_cqs'
p554
I2
ssI28
(dp555
S'iters'
p556
I8
sS'meta'
p557
(lp558
(dp559
S'objective'
p560
(g7
(g11
S'\x00\x00\x00\x00\x00\x00\x00@'
p561
tp562
Rp563
g7
(g11
S'\x00\x00\x00\x00\x00@T@'
p564
tp565
Rp566
tp567
sS'query_time'
p568
F1.868502140045166
sS'comp_time'
p569
F0.004845857620239258
sS'exec_cq'
p570
I14
sS'total_cq'
p571
I14
sa(dp572
g560
(g7
(g11
S'\x00\x00\x00\x00\x00\x00\xf0?'
p573
tp574
Rp575
g7
(g11
S'\x00\x00\x00\x00\x00R\xa9@'
p576
tp577
Rp578
tp579
sg568
F0.004765033721923828
sg569
F0.0038077831268310547
sg570
I12
sg571
I12
sa(dp580
g560
(g7
(g11
S'\x00\x00\x00\x00\x00\x00\xf0?'
p581
tp582
Rp583
g7
(g11
S'\x00\x00\x00\x00\x00\x00\x14@'
p584
tp585
Rp586
tp587
sg568
F0.0003409385681152344
sg569
F0.0005860328674316406
sg570
I10
sg571
I10
sa(dp588
g560
(g7
(g11
S'\x00\x00\x00\x00\x00\x00\xf0?'
p589
tp590
Rp591
g7
(g11
S'\x00\x00\x00\x00\x00\x00\x00@'
p592
tp593
Rp594
tp595
sg568
F0.00012803077697753906
sg569
F0.0002548694610595703
sg570
I8
sg571
I8
sa(dp596
g560
(g7
(g11
S'\x00\x00\x00\x00\x00\x00\xf0?'
p597
tp598
Rp599
g599
tp600
sg568
F8.702278137207031e-05
sg569
F0.00018095970153808594
sg570
I7
sg571
I7
sa(dp601
g560
(g7
(g11
S'\x00\x00\x00\x00\x00\x00\xf0?'
p602
tp603
Rp604
g604
tp605
sg568
F2.9087066650390625e-05
sg569
F9.918212890625e-05
sg570
I6
sg571
I6
sa(dp606
g560
(g7
(g11
S'\x00\x00\x00\x00\x00\x00\xf0?'
p607
tp608
Rp609
g609
tp610
sg568
F2.09808349609375e-05
sg569
F9.298324584960938e-05
sg570
I4
sg571
I4
sa(dp611
g560
(g7
(g11
S'\x00\x00\x00\x00\x00\x00\xf0?'
p612
tp613
Rp614
g614
tp615
sg568
F1.811981201171875e-05
sg569
F9.179115295410156e-05
sg570
I3
sg571
I3
sasS'total_cqs'
p616
I14
ssI29
(dp617
S'iters'
p618
I1
sS'meta'
p619
(lp620
(dp621
S'objective'
p622
(g7
(g11
S'\x00\x00\x00\x00\x00\x00\xf0?'
p623
tp624
Rp625
g625
tp626
sS'query_time'
p627
F0.006852865219116211
sS'comp_time'
p628
F0.0005078315734863281
sS'exec_cq'
p629
I2
sS'total_cq'
p630
I2
sasS'total_cqs'
p631
I2
ssI30
(dp632
S'iters'
p633
I1
sS'meta'
p634
(lp635
(dp636
S'objective'
p637
(g7
(g11
S'\x00\x00\x00\x00\x00\x00\xf0?'
p638
tp639
Rp640
g640
tp641
sS'query_time'
p642
F0.4197690486907959
sS'comp_time'
p643
F0.0008029937744140625
sS'exec_cq'
p644
I2
sS'total_cq'
p645
I2
sasS'total_cqs'
p646
I2
ssI31
(dp647
S'iters'
p648
I2
sS'meta'
p649
(lp650
(dp651
S'objective'
p652
(g7
(g11
S'\x00\x00\x00\x00\x00\x00\x14@'
p653
tp654
Rp655
g7
(g11
S'\x00\x00\x00\x00\x00$\x9c@'
p656
tp657
Rp658
tp659
sS'query_time'
p660
F6.178579092025757
sS'comp_time'
p661
F0.021226882934570312
sS'exec_cq'
p662
I9
sS'total_cq'
p663
I9
sa(dp664
g652
(g7
(g11
S'\x00\x00\x00\x00\x00\x00\xf0?'
p665
tp666
Rp667
g667
tp668
sg660
F0.007302999496459961
sg661
F0.004517078399658203
sg662
I2
sg663
I2
sasS'total_cqs'
p669
I9
ssI32
(dp670
S'iters'
p671
I4
sS'meta'
p672
(lp673
(dp674
S'objective'
p675
(g7
(g11
S'\x00\x00\x00\x00\x00\x00\x08@'
p676
tp677
Rp678
g7
(g11
S'\x00\x00\x00\x00\xc0H\xd0@'
p679
tp680
Rp681
tp682
sS'query_time'
p683
F19.883975982666016
sS'comp_time'
p684
F0.2276780605316162
sS'exec_cq'
p685
I7
sS'total_cq'
p686
I7
sa(dp687
g675
(g7
(g11
S'\x00\x00\x00\x00\x00\x00\xf0?'
p688
tp689
Rp690
g7
(g11
S'\x00\x00\x00\x00\x00\x17\xb7@'
p691
tp692
Rp693
tp694
sg683
F0.3423328399658203
sg684
F0.13457822799682617
sg685
I5
sg686
I5
sa(dp695
g675
(g7
(g11
S'\x00\x00\x00\x00\x00\x00\xf0?'
p696
tp697
Rp698
g698
tp699
sg683
F0.2908320426940918
sg684
F0.11439800262451172
sg685
I3
sg686
I3
sa(dp700
g675
(g7
(g11
S'\x00\x00\x00\x00\x00\x00\xf0?'
p701
tp702
Rp703
g703
tp704
sg683
F0.02941107749938965
sg684
F0.023350000381469727
sg685
I2
sg686
I2
sasS'total_cqs'
p705
I7
ssI33
(dp706
S'iters'
p707
I1
sS'meta'
p708
(lp709
(dp710
S'objective'
p711
(g7
(g11
S'\x00\x00\x00\x00\x00\x00\xf0?'
p712
tp713
Rp714
g714
tp715
sS'query_time'
p716
F0.03982114791870117
sS'comp_time'
p717
F0.0004210472106933594
sS'exec_cq'
p718
I2
sS'total_cq'
p719
I2
sasS'total_cqs'
p720
I2
ssI35
(dp721
S'iters'
p722
I2
sS'meta'
p723
(lp724
(dp725
S'objective'
p726
(g7
(g11
S'\x00\x00\x00\x00\x00d\xb1@'
p727
tp728
Rp729
g7
(g11
S'\x00\x00\x00\x00\xc0\x99\xd0@'
p730
tp731
Rp732
tp733
sS'query_time'
p734
F16.947267055511475
sS'comp_time'
p735
F0.030881166458129883
sS'exec_cq'
p736
I5
sS'total_cq'
p737
I5
sa(dp738
g726
(g7
(g11
S'\x00\x00\x00\x00\x00\x00\xf0?'
p739
tp740
Rp741
g7
(g11
S'\x00\x00\x00\x00\x00+\xbe@'
p742
tp743
Rp744
tp745
sg734
F0.02650904655456543
sg735
F0.016597747802734375
sg736
I3
sg737
I3
sasS'total_cqs'
p746
I5
ssI37
(dp747
S'iters'
p748
I2
sS'meta'
p749
(lp750
(dp751
S'objective'
p752
(g7
(g11
S'\x00\x00\x00\x00\x00\x00&@'
p753
tp754
Rp755
g7
(g11
S'\x00\x00\x00\x00\x00\xb0|@'
p756
tp757
Rp758
tp759
sS'query_time'
p760
F2.6844871044158936
sS'comp_time'
p761
F0.02428269386291504
sS'exec_cq'
p762
I10
sS'total_cq'
p763
I10
sa(dp764
g752
(g7
(g11
S'\x00\x00\x00\x00\x00\x00\xf0?'
p765
tp766
Rp767
g767
tp768
sg760
F0.0033288002014160156
sg761
F0.002496957778930664
sg762
I2
sg763
I2
sasS'total_cqs'
p769
I10
ssI40
(dp770
S'iters'
p771
I1
sS'meta'
p772
(lp773
(dp774
S'objective'
p775
(g7
(g11
S'\x00\x00\x00\x00\x00\x00\xf0?'
p776
tp777
Rp778
g778
tp779
sS'query_time'
p780
F17.514440059661865
sS'comp_time'
p781
F0.20917773246765137
sS'exec_cq'
p782
I2
sS'total_cq'
p783
I2
sasS'total_cqs'
p784
I2
ssI41
(dp785
S'iters'
p786
I3
sS'meta'
p787
(lp788
(dp789
S'objective'
p790
(g7
(g11
S'\x00\x00\x00\x00\x00\x00\x08@'
p791
tp792
Rp793
g7
(g11
S'\x00\x00\x00\x00\x00\x80B@'
p794
tp795
Rp796
tp797
sS'query_time'
p798
F12.319280862808228
sS'comp_time'
p799
F0.11544609069824219
sS'exec_cq'
p800
I6
sS'total_cq'
p801
I6
sa(dp802
g790
(g7
(g11
S'\x00\x00\x00\x00\x00\x00\xf0?'
p803
tp804
Rp805
g7
(g11
S'\x00\x00\x00\x00\x80\x00\xcd@'
p806
tp807
Rp808
tp809
sg798
F0.26752710342407227
sg799
F0.1156010627746582
sg800
I4
sg801
I4
sa(dp810
g790
(g7
(g11
S'\x00\x00\x00\x00\x00\x00\xf0?'
p811
tp812
Rp813
g813
tp814
sg798
F0.0011439323425292969
sg799
F0.00096893310546875
sg800
I2
sg801
I2
sasS'total_cqs'
p815
I6
ssI42
(dp816
S'iters'
p817
I1
sS'meta'
p818
(lp819
(dp820
S'objective'
p821
(g7
(g11
S'\x00\x00\x00\x00\x00\x00\xf0?'
p822
tp823
Rp824
g824
tp825
sS'query_time'
p826
F17.575673818588257
sS'comp_time'
p827
F0.20548295974731445
sS'exec_cq'
p828
I2
sS'total_cq'
p829
I2
sasS'total_cqs'
p830
I2
ssI44
(dp831
S'iters'
p832
I3
sS'meta'
p833
(lp834
(dp835
S'objective'
p836
(g7
(g11
S'\x00\x00\x00\x00\x00\x00\xf0?'
p837
tp838
Rp839
g7
(g11
S'\x00\x00\x00\x00\x00\xc0S@'
p840
tp841
Rp842
tp843
sS'query_time'
p844
F1.4778180122375488
sS'comp_time'
p845
F0.012035846710205078
sS'exec_cq'
p846
I5
sS'total_cq'
p847
I5
sa(dp848
g836
(g7
(g11
S'\x00\x00\x00\x00\x00\x00\xf0?'
p849
tp850
Rp851
g851
tp852
sg844
F0.014278888702392578
sg845
F0.011717081069946289
sg846
I3
sg847
I3
sa(dp853
g836
(g7
(g11
S'\x00\x00\x00\x00\x00\x00\xf0?'
p854
tp855
Rp856
g856
tp857
sg844
F8.606910705566406e-05
sg845
F0.0001659393310546875
sg846
I2
sg847
I2
sasS'total_cqs'
p858
I5
ssI45
(dp859
S'iters'
p860
I2
sS'meta'
p861
(lp862
(dp863
S'objective'
p864
(g7
(g11
S'\x00\x00\x00\x00\x00\x00\xf0?'
p865
tp866
Rp867
g7
(g11
S'\x00\x00\x00\x00\x00\x006@'
p868
tp869
Rp870
tp871
sS'query_time'
p872
F0.033859968185424805
sS'comp_time'
p873
F0.0006721019744873047
sS'exec_cq'
p874
I5
sS'total_cq'
p875
I5
sa(dp876
g864
(g7
(g11
S'\x00\x00\x00\x00\x00\x00\xf0?'
p877
tp878
Rp879
g879
tp880
sg872
F4.1961669921875e-05
sg873
F0.00012421607971191406
sg874
I4
sg875
I4
sasS'total_cqs'
p881
I5
ssI48
(dp882
S'iters'
p883
I1
sS'meta'
p884
(lp885
(dp886
S'objective'
p887
(g7
(g11
S'\x00\x00\x00\x00\x00\x00\xf0?'
p888
tp889
Rp890
g890
tp891
sS'query_time'
p892
F0.21553492546081543
sS'comp_time'
p893
F0.0010800361633300781
sS'exec_cq'
p894
I2
sS'total_cq'
p895
I2
sasS'total_cqs'
p896
I2
ssI49
(dp897
S'iters'
p898
I3
sS'meta'
p899
(lp900
(dp901
S'objective'
p902
(g7
(g11
S'\x00\x00\x00\x00\x00\x80Z@'
p903
tp904
Rp905
g7
(g11
S'\x00\x00\x00\x00\x00 h@'
p906
tp907
Rp908
tp909
sS'query_time'
p910
F0.2304391860961914
sS'comp_time'
p911
F0.0013208389282226562
sS'exec_cq'
p912
I5
sS'total_cq'
p913
I5
sa(dp914
g902
(g7
(g11
S'\x00\x00\x00\x00\x00\x00\xf0?'
p915
tp916
Rp917
g917
tp918
sg910
F0.0003521442413330078
sg911
F0.0004508495330810547
sg912
I3
sg913
I3
sa(dp919
g902
(g7
(g11
S'\x00\x00\x00\x00\x00\x00\xf0?'
p920
tp921
Rp922
g922
tp923
sg910
F2.5987625122070312e-05
sg911
F0.00011301040649414062
sg912
I2
sg913
I2
sasS'total_cqs'
p924
I5
ssI50
(dp925
S'iters'
p926
I2
sS'meta'
p927
(lp928
(dp929
S'objective'
p930
(g7
(g11
S'\x00\x00\x00\x00\x00\x00\xf0?'
p931
tp932
Rp933
g933
tp934
sS'query_time'
p935
F1.1098871231079102
sS'comp_time'
p936
F0.0007979869842529297
sS'exec_cq'
p937
I5
sS'total_cq'
p938
I5
sa(dp939
g930
(g7
(g11
S'\x00\x00\x00\x00\x00\x00\xf0?'
p940
tp941
Rp942
g942
tp943
sg935
F0.00014209747314453125
sg936
F0.0002989768981933594
sg937
I4
sg938
I4
sasS'total_cqs'
p944
I5
ssI55
(dp945
S'iters'
p946
I1
sS'meta'
p947
(lp948
(dp949
S'objective'
p950
(g7
(g11
S'\x00\x00\x00\x00\x00\x00\xf0?'
p951
tp952
Rp953
g953
tp954
sS'query_time'
p955
F26.941893815994263
sS'comp_time'
p956
F3.40544056892395
sS'exec_cq'
p957
I2
sS'total_cq'
p958
I2
sasS'total_cqs'
p959
I2
ssI57
(dp960
S'iters'
p961
I1
sS'meta'
p962
(lp963
(dp964
S'objective'
p965
(g7
(g11
S'\x00\x00\x00\x00\x00\x00\xf0?'
p966
tp967
Rp968
g968
tp969
sS'query_time'
p970
F13.92881178855896
sS'comp_time'
p971
F0.16738390922546387
sS'exec_cq'
p972
I3
sS'total_cq'
p973
I3
sasS'total_cqs'
p974
I3
ssI116
(dp975
S'iters'
p976
I2
sS'meta'
p977
(lp978
(dp979
S'objective'
p980
(g7
(g11
S'\x00\x00\x00\x00\x00\x00(@'
p981
tp982
Rp983
g7
(g11
S'\x00\x00\x00\x00\x00\xe0n@'
p984
tp985
Rp986
tp987
sS'query_time'
p988
F6.0735437870025635
sS'comp_time'
p989
F0.03731393814086914
sS'exec_cq'
p990
I21
sS'total_cq'
p991
I21
sa(dp992
g980
(g7
(g11
S'\x00\x00\x00\x00\x00\x00\xf0?'
p993
tp994
Rp995
g995
tp996
sg988
F0.001283884048461914
sg989
F0.0007002353668212891
sg990
I2
sg991
I2
sasS'total_cqs'
p997
I21
ssI117
(dp998
S'iters'
p999
I1
sS'meta'
p1000
(lp1001
(dp1002
S'objective'
p1003
(g7
(g11
S'\x00\x00\x00\x00\x00\x00\xf0?'
p1004
tp1005
Rp1006
g1006
tp1007
sS'query_time'
p1008
F0.014719009399414062
sS'comp_time'
p1009
F0.00019621849060058594
sS'exec_cq'
p1010
I5
sS'total_cq'
p1011
I5
sasS'total_cqs'
p1012
I5
ss.