(dp0
I1
(dp1
S'iters'
p2
I3
sS'meta'
p3
(lp4
(dp5
S'objective'
p6
(cnumpy.core.multiarray
scalar
p7
(cnumpy
dtype
p8
(S'f8'
p9
I0
I1
tp10
Rp11
(I3
S'<'
p12
NNNI-1
I-1
I0
tp13
bS'\x00\x00\x00\x00\x00\x00\xf0?'
p14
tp15
Rp16
g16
tp17
sS'query_time'
p18
F24.628981828689575
sS'comp_time'
p19
F0.018573999404907227
sS'exec_cq'
p20
I6
sS'total_cq'
p21
I6
sa(dp22
g6
(g7
(g11
S'\x00\x00\x00\x00\x00\x00\xf0?'
p23
tp24
Rp25
g25
tp26
sg18
F0.012707948684692383
sg19
F1.273212194442749
sg20
I5
sg21
I5
sa(dp27
g6
(g7
(g11
S'\x00\x00\x00\x00\x00\x00\xf0?'
p28
tp29
Rp30
g30
tp31
sg18
F0.03820991516113281
sg19
F256.1577184200287
sg20
I2
sg21
I2
sasS'total_cqs'
p32
I6
ssI2
(dp33
S'iters'
p34
I1
sS'meta'
p35
(lp36
(dp37
S'objective'
p38
(g7
(g11
S'\x00\x00\x00\x00\x00\x00\xf0?'
p39
tp40
Rp41
g41
tp42
sS'query_time'
p43
F1.1015331745147705
sS'comp_time'
p44
F0.015002012252807617
sS'exec_cq'
p45
I6
sS'total_cq'
p46
I6
sasS'total_cqs'
p47
I6
ssI3
(dp48
S'iters'
p49
I15
sS'meta'
p50
(lp51
(dp52
S'objective'
p53
(g7
(g11
S'\x00\x00\x00\x00\x00\x00\xf0?'
p54
tp55
Rp56
g7
(g11
S'\x00\x00\x00\x00\x00\xc0b@'
p57
tp58
Rp59
tp60
sS'query_time'
p61
F26.41348099708557
sS'comp_time'
p62
F0.05110597610473633
sS'exec_cq'
p63
I33
sS'total_cq'
p64
I33
sa(dp65
g53
(g7
(g11
S'\x00\x00\x00\x00\x00\x00\xf0?'
p66
tp67
Rp68
g7
(g11
S'\x00\x00\x00\x00\x00\x007@'
p69
tp70
Rp71
tp72
sg61
F0.041021108627319336
sg62
F0.032412052154541016
sg63
I30
sg64
I30
sa(dp73
g53
(g7
(g11
S'\x00\x00\x00\x00\x00\x00\xf0?'
p74
tp75
Rp76
g7
(g11
S'\x00\x00\x00\x00\x00\x00\x08@'
p77
tp78
Rp79
tp80
sg61
F0.06894302368164062
sg62
F0.032475948333740234
sg63
I27
sg64
I27
sa(dp81
g53
(g7
(g11
S'\x00\x00\x00\x00\x00\x00\xf0?'
p82
tp83
Rp84
g7
(g11
S'\x00\x00\x00\x00\x00\x00\x00@'
p85
tp86
Rp87
tp88
sg61
F0.035971879959106445
sg62
F0.03078317642211914
sg63
I24
sg64
I24
sa(dp89
g53
(g7
(g11
S'\x00\x00\x00\x00\x00\x00\xf0?'
p90
tp91
Rp92
g7
(g11
S'\x00\x00\x00\x00\x00\x00\x00@'
p93
tp94
Rp95
tp96
sg61
F0.020519018173217773
sg62
F0.01920294761657715
sg63
I23
sg64
I23
sa(dp97
g53
(g7
(g11
S'\x00\x00\x00\x00\x00\x00\xf0?'
p98
tp99
Rp100
g7
(g11
S'\x00\x00\x00\x00\x00\x00\x00@'
p101
tp102
Rp103
tp104
sg61
F0.04821014404296875
sg62
F0.01867508888244629
sg63
I22
sg64
I22
sa(dp105
g53
(g7
(g11
S'\x00\x00\x00\x00\x00\x00\xf0?'
p106
tp107
Rp108
g7
(g11
S'\x00\x00\x00\x00\x00\x00\x00@'
p109
tp110
Rp111
tp112
sg61
F0.016888856887817383
sg62
F0.01505422592163086
sg63
I21
sg64
I21
sa(dp113
g53
(g7
(g11
S'\x00\x00\x00\x00\x00\x00\xf0?'
p114
tp115
Rp116
g116
tp117
sg61
F0.007337093353271484
sg62
F0.00634002685546875
sg63
I20
sg64
I20
sa(dp118
g53
(g7
(g11
S'\x00\x00\x00\x00\x00\x00\xf0?'
p119
tp120
Rp121
g121
tp122
sg61
F0.006690025329589844
sg62
F0.006141185760498047
sg63
I19
sg64
I19
sa(dp123
g53
(g7
(g11
S'\x00\x00\x00\x00\x00\x00\xf0?'
p124
tp125
Rp126
g126
tp127
sg61
F0.005975008010864258
sg62
F0.005747795104980469
sg63
I18
sg64
I18
sa(dp128
g53
(g7
(g11
S'\x00\x00\x00\x00\x00\x00\xf0?'
p129
tp130
Rp131
g131
tp132
sg61
F0.004411935806274414
sg62
F0.0053920745849609375
sg63
I17
sg64
I17
sa(dp133
g53
(g7
(g11
S'\x00\x00\x00\x00\x00\x00\xf0?'
p134
tp135
Rp136
g136
tp137
sg61
F0.004477024078369141
sg62
F0.00525212287902832
sg63
I16
sg64
I16
sa(dp138
g53
(g7
(g11
S'\x00\x00\x00\x00\x00\x00\xf0?'
p139
tp140
Rp141
g141
tp142
sg61
F0.004684925079345703
sg62
F0.005305767059326172
sg63
I14
sg64
I14
sa(dp143
g53
(g7
(g11
S'\x00\x00\x00\x00\x00\x00\xf0?'
p144
tp145
Rp146
g146
tp147
sg61
F0.004762172698974609
sg62
F0.0054280757904052734
sg63
I12
sg64
I12
sa(dp148
g53
(g7
(g11
S'\x00\x00\x00\x00\x00\x00\xf0?'
p149
tp150
Rp151
g151
tp152
sg61
F0.005003929138183594
sg62
F0.0054569244384765625
sg63
I10
sg64
I10
sasS'total_cqs'
p153
I33
ssI6
(dp154
S'iters'
p155
I2
sS'meta'
p156
(lp157
(dp158
S'objective'
p159
(g7
(g11
S'\x00\x00\x00\x00\x00 c@'
p160
tp161
Rp162
g7
(g11
S'\x00\x00\x00\x00\x00\x00n@'
p163
tp164
Rp165
tp166
sS'query_time'
p167
F14.879402875900269
sS'comp_time'
p168
F0.0016281604766845703
sS'exec_cq'
p169
I5
sS'total_cq'
p170
I5
sa(dp171
g159
(g7
(g11
S'\x00\x00\x00\x00\x00\x00\xf0?'
p172
tp173
Rp174
g7
(g11
S'\x00\x00\x00\x00\x00\x90r@'
p175
tp176
Rp177
tp178
sg167
F0.0007801055908203125
sg168
F0.0007538795471191406
sg169
I3
sg170
I3
sasS'total_cqs'
p179
I5
ssI8
(dp180
S'iters'
p181
I4
sS'meta'
p182
(lp183
(dp184
S'objective'
p185
(g7
(g11
S'\x00\x00\x00\x00\x00\x00\xf0?'
p186
tp187
Rp188
g188
tp189
sS'query_time'
p190
F22.9212908744812
sS'comp_time'
p191
F0.03273606300354004
sS'exec_cq'
p192
I6
sS'total_cq'
p193
I6
sa(dp194
g185
(g7
(g11
S'\x00\x00\x00\x00\x00\x00\xf0?'
p195
tp196
Rp197
g197
tp198
sg190
F2.0918941497802734
sg191
F2.197648048400879
sg192
I5
sg193
I5
sa(dp199
g185
(g7
(g11
S'\x00\x00\x00\x00\x00\x00\xf0?'
p200
tp201
Rp202
g202
tp203
sg190
F22.00614881515503
sg191
F21.74411916732788
sg192
I3
sg193
I3
sa(dp204
g185
(g7
(g11
S'\x00\x00\x00\x00\x00\x00\xf0?'
p205
tp206
Rp207
g207
tp208
sg190
F0.05002903938293457
sg191
F0.04506182670593262
sg192
I2
sg193
I2
sasS'total_cqs'
p209
I6
ssI9
(dp210
S'iters'
p211
I2
sS'meta'
p212
(lp213
(dp214
S'objective'
p215
(g7
(g11
S'\x00\x00\x00\x00\x00\xe0u@'
p216
tp217
Rp218
g7
(g11
S'\x00\x00\x00\x00\x80\x06\xc7@'
p219
tp220
Rp221
tp222
sS'query_time'
p223
F53.699873208999634
sS'comp_time'
p224
F0.5176870822906494
sS'exec_cq'
p225
I6
sS'total_cq'
p226
I6
sa(dp227
g215
(g7
(g11
S'\x00\x00\x00\x00\x00\x00\xf0?'
p228
tp229
Rp230
g230
tp231
sg223
F0.15281891822814941
sg224
F0.0256500244140625
sg225
I2
sg226
I2
sasS'total_cqs'
p232
I6
ssI13
(dp233
S'iters'
p234
I2
sS'meta'
p235
(lp236
(dp237
S'objective'
p238
(g7
(g11
S'\x00\x00\x00\x00\x00\x00\xf0?'
p239
tp240
Rp241
g241
tp242
sS'query_time'
p243
F0.0218198299407959
sS'comp_time'
p244
F0.0005190372467041016
sS'exec_cq'
p245
I8
sS'total_cq'
p246
I8
sa(dp247
g238
(g7
(g11
S'\x00\x00\x00\x00\x00\x00\xf0?'
p248
tp249
Rp250
g250
tp251
sg243
F3.2901763916015625e-05
sg244
F0.00010776519775390625
sg245
I7
sg246
I7
sasS'total_cqs'
p252
I8
ssI14
(dp253
S'iters'
p254
I3
sS'meta'
p255
(lp256
(dp257
S'objective'
p258
(g7
(g11
S'\x00\x00\x00\x00\x00\x00\xf0?'
p259
tp260
Rp261
g261
tp262
sS'query_time'
p263
F1.110990047454834
sS'comp_time'
p264
F0.0013680458068847656
sS'exec_cq'
p265
I5
sS'total_cq'
p266
I5
sa(dp267
g258
(g7
(g11
S'\x00\x00\x00\x00\x00\x00\xf0?'
p268
tp269
Rp270
g270
tp271
sg263
F0.0007588863372802734
sg264
F0.0009801387786865234
sg265
I4
sg266
I4
sa(dp272
g258
(g7
(g11
S'\x00\x00\x00\x00\x00\x00\xf0?'
p273
tp274
Rp275
g275
tp276
sg263
F0.0004990100860595703
sg264
F0.0007789134979248047
sg265
I3
sg266
I3
sasS'total_cqs'
p277
I5
ssI16
(dp278
S'iters'
p279
I3
sS'meta'
p280
(lp281
(dp282
S'objective'
p283
(g7
(g11
S'\x00\x00\x00\x00\x00\x00(@'
p284
tp285
Rp286
g7
(g11
S'\x00\x00\x00\x00\x00\x80M@'
p287
tp288
Rp289
tp290
sS'query_time'
p291
F1.8384921550750732
sS'comp_time'
p292
F0.0019099712371826172
sS'exec_cq'
p293
I5
sS'total_cq'
p294
I5
sa(dp295
g283
(g7
(g11
S'\x00\x00\x00\x00\x00\x00\xf0?'
p296
tp297
Rp298
g7
(g11
S'\x00\x00\x00\x00\x00\x00\x1c@'
p299
tp300
Rp301
tp302
sg291
F0.00023603439331054688
sg292
F0.0003769397735595703
sg293
I3
sg294
I3
sa(dp303
g283
(g7
(g11
S'\x00\x00\x00\x00\x00\x00\xf0?'
p304
tp305
Rp306
g306
tp307
sg291
F0.00021409988403320312
sg292
F0.00036597251892089844
sg293
I2
sg294
I2
sasS'total_cqs'
p308
I5
ssI18
(dp309
S'iters'
p310
I2
sS'meta'
p311
(lp312
(dp313
S'objective'
p314
(g7
(g11
S'\x00\x00\x00\x00\x00\x00\x08@'
p315
tp316
Rp317
g7
(g11
S'\x00\x00\x00\x00\x00\x001@'
p318
tp319
Rp320
tp321
sS'query_time'
p322
F0.5232100486755371
sS'comp_time'
p323
F0.0008759498596191406
sS'exec_cq'
p324
I5
sS'total_cq'
p325
I5
sa(dp326
g314
(g7
(g11
S'\x00\x00\x00\x00\x00\x00\xf0?'
p327
tp328
Rp329
g7
(g11
S'\x00\x00\x00\x00\x00\x005@'
p330
tp331
Rp332
tp333
sg322
F5.1021575927734375e-05
sg323
F0.00015211105346679688
sg324
I3
sg325
I3
sasS'total_cqs'
p334
I5
ssI20
(dp335
S'iters'
p336
I6
sS'meta'
p337
(lp338
(dp339
S'objective'
p340
(g7
(g11
S'\x00\x00\x00\x00\x00\x00\xf0?'
p341
tp342
Rp343
g7
(g11
S'\x00\x00\x00\x00\x80\xb2\xc3@'
p344
tp345
Rp346
tp347
sS'query_time'
p348
F11.34740686416626
sS'comp_time'
p349
F0.09275603294372559
sS'exec_cq'
p350
I12
sS'total_cq'
p351
I12
sa(dp352
g340
(g7
(g11
S'\x00\x00\x00\x00\x00\x00\xf0?'
p353
tp354
Rp355
g7
(g11
S'\x00\x00\x00\x00\x00\x00\x10@'
p356
tp357
Rp358
tp359
sg348
F0.08641600608825684
sg349
F0.0673820972442627
sg350
I10
sg351
I10
sa(dp360
g340
(g7
(g11
S'\x00\x00\x00\x00\x00\x00\xf0?'
p361
tp362
Rp363
g7
(g11
S'\x00\x00\x00\x00\x00\x00\x10@'
p364
tp365
Rp366
tp367
sg348
F0.10074996948242188
sg349
F0.058389902114868164
sg350
I9
sg351
I9
sa(dp368
g340
(g7
(g11
S'\x00\x00\x00\x00\x00\x00\xf0?'
p369
tp370
Rp371
g371
tp372
sg348
F0.09848618507385254
sg349
F0.05333995819091797
sg350
I8
sg351
I8
sa(dp373
g340
(g7
(g11
S'\x00\x00\x00\x00\x00\x00\xf0?'
p374
tp375
Rp376
g376
tp377
sg348
F0.061737060546875
sg349
F0.04842519760131836
sg350
I7
sg351
I7
sa(dp378
g340
(g7
(g11
S'\x00\x00\x00\x00\x00\x00\xf0?'
p379
tp380
Rp381
g381
tp382
sg348
F0.0008261203765869141
sg349
F0.0008749961853027344
sg350
I6
sg351
I6
sasS'total_cqs'
p383
I12
ssI21
(dp384
S'iters'
p385
I5
sS'meta'
p386
(lp387
(dp388
S'objective'
p389
(g7
(g11
S'\x00\x00\x00\x00\x00\x00\xf0?'
p390
tp391
Rp392
g7
(g11
S'\x00\x00\x00\x00\x00d\x91@'
p393
tp394
Rp395
tp396
sS'query_time'
p397
F29.89541006088257
sS'comp_time'
p398
F0.3312699794769287
sS'exec_cq'
p399
I14
sS'total_cq'
p400
I14
sa(dp401
g389
(g7
(g11
S'\x00\x00\x00\x00\x00\x00\xf0?'
p402
tp403
Rp404
g7
(g11
S'\x00\x00\x00\x00\x00\xa8\x8e@'
p405
tp406
Rp407
tp408
sg397
F0.05863809585571289
sg398
F0.02775883674621582
sg399
I10
sg400
I10
sa(dp409
g389
(g7
(g11
S'\x00\x00\x00\x00\x00\x00\xf0?'
p410
tp411
Rp412
g7
(g11
S'\x00\x00\x00\x00\x00\x00"@'
p413
tp414
Rp415
tp416
sg397
F0.014878988265991211
sg398
F0.015041112899780273
sg399
I6
sg400
I6
sa(dp417
g389
(g7
(g11
S'\x00\x00\x00\x00\x00\x00\xf0?'
p418
tp419
Rp420
g420
tp421
sg397
F0.009124040603637695
sg398
F0.009490966796875
sg399
I5
sg400
I5
sa(dp422
g389
(g7
(g11
S'\x00\x00\x00\x00\x00\x00\xf0?'
p423
tp424
Rp425
g425
tp426
sg397
F0.0010228157043457031
sg398
F0.002020120620727539
sg399
I3
sg400
I3
sasS'total_cqs'
p427
I14
ssI22
(dp428
S'iters'
p429
I1
sS'meta'
p430
(lp431
(dp432
S'objective'
p433
(g7
(g11
S'\x00\x00\x00\x00\x00\x00\xf0?'
p434
tp435
Rp436
g436
tp437
sS'query_time'
p438
F0.005857944488525391
sS'comp_time'
p439
F0.0004761219024658203
sS'exec_cq'
p440
I2
sS'total_cq'
p441
I2
sasS'total_cqs'
p442
I2
ssI25
(dp443
S'iters'
p444
I3
sS'meta'
p445
(lp446
(dp447
S'objective'
p448
(g7
(g11
S'\x00\x00\x00\x00\x00\x00\xf0?'
p449
tp450
Rp451
g7
(g11
S'\x00\x00\x00\x00\x00@X@'
p452
tp453
Rp454
tp455
sS'query_time'
p456
F51.97546911239624
sS'comp_time'
p457
F0.6214361190795898
sS'exec_cq'
p458
I7
sS'total_cq'
p459
I7
sa(dp460
g448
(g7
(g11
S'\x00\x00\x00\x00\x00\x00\xf0?'
p461
tp462
Rp463
g463
tp464
sg456
F0.014561176300048828
sg457
F0.23089003562927246
sg458
I5
sg459
I5
sa(dp465
g448
(g7
(g11
S'\x00\x00\x00\x00\x00\x00\xf0?'
p466
tp467
Rp468
g468
tp469
sg456
F0.0021049976348876953
sg457
F0.0034749507904052734
sg458
I3
sg459
I3
sasS'total_cqs'
p470
I7
ssI26
(dp471
S'iters'
p472
I10
sS'meta'
p473
(lp474
(dp475
S'objective'
p476
(g7
(g11
S'\x00\x00\x00\x00\x00\x00\xf0?'
p477
tp478
Rp479
g7
(g11
S'\x00\x00\x00\x00\x00\xa0u@'
p480
tp481
Rp482
tp483
sS'query_time'
p484
F24.749732971191406
sS'comp_time'
p485
F0.2566831111907959
sS'exec_cq'
p486
I13
sS'total_cq'
p487
I13
sa(dp488
g476
(g7
(g11
S'\x00\x00\x00\x00\x00\x00\xf0?'
p489
tp490
Rp491
g7
(g11
S'\x00\x00\x00\x00\x00 f@'
p492
tp493
Rp494
tp495
sg484
F0.6610109806060791
sg485
F0.251849889755249
sg486
I12
sg487
I12
sa(dp496
g476
(g7
(g11
S'\x00\x00\x00\x00\x00\x00\xf0?'
p497
tp498
Rp499
g7
(g11
S'\x00\x00\x00\x00\x00\x00 @'
p500
tp501
Rp502
tp503
sg484
F0.8261070251464844
sg485
F0.246049165725708
sg486
I10
sg487
I10
sa(dp504
g476
(g7
(g11
S'\x00\x00\x00\x00\x00\x00\xf0?'
p505
tp506
Rp507
g507
tp508
sg484
F0.7451798915863037
sg485
F0.2473597526550293
sg486
I8
sg487
I8
sa(dp509
g476
(g7
(g11
S'\x00\x00\x00\x00\x00\x00\xf0?'
p510
tp511
Rp512
g512
tp513
sg484
F0.0021529197692871094
sg485
F0.001992940902709961
sg486
I7
sg487
I7
sa(dp514
g476
(g7
(g11
S'\x00\x00\x00\x00\x00\x00\xf0?'
p515
tp516
Rp517
g517
tp518
sg484
F0.0013241767883300781
sg485
F0.0017151832580566406
sg486
I6
sg487
I6
sa(dp519
g476
(g7
(g11
S'\x00\x00\x00\x00\x00\x00\xf0?'
p520
tp521
Rp522
g522
tp523
sg484
F0.0010271072387695312
sg485
F0.0012979507446289062
sg486
I5
sg487
I5
sa(dp524
g476
(g7
(g11
S'\x00\x00\x00\x00\x00\x00\xf0?'
p525
tp526
Rp527
g527
tp528
sg484
F0.0005829334259033203
sg485
F0.0007200241088867188
sg486
I4
sg487
I4
sa(dp529
g476
(g7
(g11
S'\x00\x00\x00\x00\x00\x00\xf0?'
p530
tp531
Rp532
g532
tp533
sg484
F0.0003299713134765625
sg485
F0.0005078315734863281
sg486
I3
sg487
I3
sa(dp534
g476
(g7
(g11
S'\x00\x00\x00\x00\x00\x00\xf0?'
p535
tp536
Rp537
g537
tp538
sg484
F0.00016117095947265625
sg485
F0.0002899169921875
sg486
I2
sg487
I2
sasS'total_cqs'
p539
I13
ssI27
(dp540
S'iters'
p541
I1
sS'meta'
p542
(lp543
(dp544
S'objective'
p545
(g7
(g11
S'\x00\x00\x00\x00\x00\x00\xf0?'
p546
tp547
Rp548
g548
tp549
sS'query_time'
p550
F0.1404569149017334
sS'comp_time'
p551
F0.0011119842529296875
sS'exec_cq'
p552
I2
sS'total_cq'
p553
I2
sasS'total_cqs'
p554
I2
ssI28
(dp555
S'iters'
p556
I8
sS'meta'
p557
(lp558
(dp559
S'objective'
p560
(g7
(g11
S'\x00\x00\x00\x00\x00\x00\x00@'
p561
tp562
Rp563
g7
(g11
S'\x00\x00\x00\x00\x00@T@'
p564
tp565
Rp566
tp567
sS'query_time'
p568
F1.795685052871704
sS'comp_time'
p569
F0.00634002685546875
sS'exec_cq'
p570
I14
sS'total_cq'
p571
I14
sa(dp572
g560
(g7
(g11
S'\x00\x00\x00\x00\x00\x00\xf0?'
p573
tp574
Rp575
g7
(g11
S'\x00\x00\x00\x00\x00R\xa9@'
p576
tp577
Rp578
tp579
sg568
F0.00677800178527832
sg569
F0.005352973937988281
sg570
I12
sg571
I12
sa(dp580
g560
(g7
(g11
S'\x00\x00\x00\x00\x00\x00\xf0?'
p581
tp582
Rp583
g7
(g11
S'\x00\x00\x00\x00\x00\x00\x14@'
p584
tp585
Rp586
tp587
sg568
F0.0004978179931640625
sg569
F0.0007498264312744141
sg570
I10
sg571
I10
sa(dp588
g560
(g7
(g11
S'\x00\x00\x00\x00\x00\x00\xf0?'
p589
tp590
Rp591
g7
(g11
S'\x00\x00\x00\x00\x00\x00\x00@'
p592
tp593
Rp594
tp595
sg568
F0.00015997886657714844
sg569
F0.00033402442932128906
sg570
I8
sg571
I8
sa(dp596
g560
(g7
(g11
S'\x00\x00\x00\x00\x00\x00\xf0?'
p597
tp598
Rp599
g599
tp600
sg568
F0.000102996826171875
sg569
F0.00023603439331054688
sg570
I7
sg571
I7
sa(dp601
g560
(g7
(g11
S'\x00\x00\x00\x00\x00\x00\xf0?'
p602
tp603
Rp604
g604
tp605
sg568
F3.695487976074219e-05
sg569
F0.0001270771026611328
sg570
I6
sg571
I6
sa(dp606
g560
(g7
(g11
S'\x00\x00\x00\x00\x00\x00\xf0?'
p607
tp608
Rp609
g609
tp610
sg568
F2.7179718017578125e-05
sg569
F0.00011682510375976562
sg570
I4
sg571
I4
sa(dp611
g560
(g7
(g11
S'\x00\x00\x00\x00\x00\x00\xf0?'
p612
tp613
Rp614
g614
tp615
sg568
F2.288818359375e-05
sg569
F0.00011777877807617188
sg570
I3
sg571
I3
sasS'total_cqs'
p616
I14
ssI29
(dp617
S'iters'
p618
I1
sS'meta'
p619
(lp620
(dp621
S'objective'
p622
(g7
(g11
S'\x00\x00\x00\x00\x00\x00\xf0?'
p623
tp624
Rp625
g625
tp626
sS'query_time'
p627
F0.007241010665893555
sS'comp_time'
p628
F0.0005168914794921875
sS'exec_cq'
p629
I2
sS'total_cq'
p630
I2
sasS'total_cqs'
p631
I2
ssI30
(dp632
S'iters'
p633
I1
sS'meta'
p634
(lp635
(dp636
S'objective'
p637
(g7
(g11
S'\x00\x00\x00\x00\x00\x00\xf0?'
p638
tp639
Rp640
g640
tp641
sS'query_time'
p642
F0.4904959201812744
sS'comp_time'
p643
F0.0010089874267578125
sS'exec_cq'
p644
I2
sS'total_cq'
p645
I2
sasS'total_cqs'
p646
I2
ssI31
(dp647
S'iters'
p648
I2
sS'meta'
p649
(lp650
(dp651
S'objective'
p652
(g7
(g11
S'\x00\x00\x00\x00\x00\x00\x14@'
p653
tp654
Rp655
g7
(g11
S'\x00\x00\x00\x00\x00$\x9c@'
p656
tp657
Rp658
tp659
sS'query_time'
p660
F5.997810125350952
sS'comp_time'
p661
F0.020372867584228516
sS'exec_cq'
p662
I9
sS'total_cq'
p663
I9
sa(dp664
g652
(g7
(g11
S'\x00\x00\x00\x00\x00\x00\xf0?'
p665
tp666
Rp667
g667
tp668
sg660
F0.008040904998779297
sg661
F0.0045430660247802734
sg662
I2
sg663
I2
sasS'total_cqs'
p669
I9
ssI32
(dp670
S'iters'
p671
I4
sS'meta'
p672
(lp673
(dp674
S'objective'
p675
(g7
(g11
S'\x00\x00\x00\x00\x00\x00\x08@'
p676
tp677
Rp678
g7
(g11
S'\x00\x00\x00\x00\xc0H\xd0@'
p679
tp680
Rp681
tp682
sS'query_time'
p683
F19.834178924560547
sS'comp_time'
p684
F0.2353501319885254
sS'exec_cq'
p685
I7
sS'total_cq'
p686
I7
sa(dp687
g675
(g7
(g11
S'\x00\x00\x00\x00\x00\x00\xf0?'
p688
tp689
Rp690
g7
(g11
S'\x00\x00\x00\x00\x00\x17\xb7@'
p691
tp692
Rp693
tp694
sg683
F0.3932180404663086
sg684
F0.12208294868469238
sg685
I5
sg686
I5
sa(dp695
g675
(g7
(g11
S'\x00\x00\x00\x00\x00\x00\xf0?'
p696
tp697
Rp698
g698
tp699
sg683
F0.26729702949523926
sg684
F0.11416292190551758
sg685
I3
sg686
I3
sa(dp700
g675
(g7
(g11
S'\x00\x00\x00\x00\x00\x00\xf0?'
p701
tp702
Rp703
g703
tp704
sg683
F0.030464887619018555
sg684
F0.02277684211730957
sg685
I2
sg686
I2
sasS'total_cqs'
p705
I7
ssI33
(dp706
S'iters'
p707
I1
sS'meta'
p708
(lp709
(dp710
S'objective'
p711
(g7
(g11
S'\x00\x00\x00\x00\x00\x00\xf0?'
p712
tp713
Rp714
g714
tp715
sS'query_time'
p716
F0.045529842376708984
sS'comp_time'
p717
F0.0004699230194091797
sS'exec_cq'
p718
I2
sS'total_cq'
p719
I2
sasS'total_cqs'
p720
I2
ssI35
(dp721
S'iters'
p722
I2
sS'meta'
p723
(lp724
(dp725
S'objective'
p726
(g7
(g11
S'\x00\x00\x00\x00\x00d\xb1@'
p727
tp728
Rp729
g7
(g11
S'\x00\x00\x00\x00\xc0\x99\xd0@'
p730
tp731
Rp732
tp733
sS'query_time'
p734
F16.574830055236816
sS'comp_time'
p735
F0.03058004379272461
sS'exec_cq'
p736
I5
sS'total_cq'
p737
I5
sa(dp738
g726
(g7
(g11
S'\x00\x00\x00\x00\x00\x00\xf0?'
p739
tp740
Rp741
g7
(g11
S'\x00\x00\x00\x00\x00+\xbe@'
p742
tp743
Rp744
tp745
sg734
F0.02715897560119629
sg735
F0.016030073165893555
sg736
I3
sg737
I3
sasS'total_cqs'
p746
I5
ssI37
(dp747
S'iters'
p748
I2
sS'meta'
p749
(lp750
(dp751
S'objective'
p752
(g7
(g11
S'\x00\x00\x00\x00\x00\x00&@'
p753
tp754
Rp755
g7
(g11
S'\x00\x00\x00\x00\x00\xb0|@'
p756
tp757
Rp758
tp759
sS'query_time'
p760
F2.6743109226226807
sS'comp_time'
p761
F0.027750253677368164
sS'exec_cq'
p762
I10
sS'total_cq'
p763
I10
sa(dp764
g752
(g7
(g11
S'\x00\x00\x00\x00\x00\x00\xf0?'
p765
tp766
Rp767
g767
tp768
sg760
F0.006936073303222656
sg761
F0.003098011016845703
sg762
I2
sg763
I2
sasS'total_cqs'
p769
I10
ssI40
(dp770
S'iters'
p771
I1
sS'meta'
p772
(lp773
(dp774
S'objective'
p775
(g7
(g11
S'\x00\x00\x00\x00\x00\x00\xf0?'
p776
tp777
Rp778
g778
tp779
sS'query_time'
p780
F17.558218955993652
sS'comp_time'
p781
F0.22043490409851074
sS'exec_cq'
p782
I2
sS'total_cq'
p783
I2
sasS'total_cqs'
p784
I2
ssI41
(dp785
S'iters'
p786
I3
sS'meta'
p787
(lp788
(dp789
S'objective'
p790
(g7
(g11
S'\x00\x00\x00\x00\x00\x00\x08@'
p791
tp792
Rp793
g7
(g11
S'\x00\x00\x00\x00\x00\x80B@'
p794
tp795
Rp796
tp797
sS'query_time'
p798
F12.48029088973999
sS'comp_time'
p799
F0.11362504959106445
sS'exec_cq'
p800
I6
sS'total_cq'
p801
I6
sa(dp802
g790
(g7
(g11
S'\x00\x00\x00\x00\x00\x00\xf0?'
p803
tp804
Rp805
g7
(g11
S'\x00\x00\x00\x00\x80\x00\xcd@'
p806
tp807
Rp808
tp809
sg798
F0.36556315422058105
sg799
F0.10961270332336426
sg800
I4
sg801
I4
sa(dp810
g790
(g7
(g11
S'\x00\x00\x00\x00\x00\x00\xf0?'
p811
tp812
Rp813
g813
tp814
sg798
F0.0012068748474121094
sg799
F0.0009350776672363281
sg800
I2
sg801
I2
sasS'total_cqs'
p815
I6
ssI42
(dp816
S'iters'
p817
I1
sS'meta'
p818
(lp819
(dp820
S'objective'
p821
(g7
(g11
S'\x00\x00\x00\x00\x00\x00\xf0?'
p822
tp823
Rp824
g824
tp825
sS'query_time'
p826
F17.295893907546997
sS'comp_time'
p827
F0.19647789001464844
sS'exec_cq'
p828
I2
sS'total_cq'
p829
I2
sasS'total_cqs'
p830
I2
ssI44
(dp831
S'iters'
p832
I3
sS'meta'
p833
(lp834
(dp835
S'objective'
p836
(g7
(g11
S'\x00\x00\x00\x00\x00\x00\xf0?'
p837
tp838
Rp839
g7
(g11
S'\x00\x00\x00\x00\x00\xc0S@'
p840
tp841
Rp842
tp843
sS'query_time'
p844
F1.3241760730743408
sS'comp_time'
p845
F0.01425313949584961
sS'exec_cq'
p846
I5
sS'total_cq'
p847
I5
sa(dp848
g836
(g7
(g11
S'\x00\x00\x00\x00\x00\x00\xf0?'
p849
tp850
Rp851
g851
tp852
sg844
F0.01368403434753418
sg845
F0.011762142181396484
sg846
I3
sg847
I3
sa(dp853
g836
(g7
(g11
S'\x00\x00\x00\x00\x00\x00\xf0?'
p854
tp855
Rp856
g856
tp857
sg844
F7.605552673339844e-05
sg845
F0.00016808509826660156
sg846
I2
sg847
I2
sasS'total_cqs'
p858
I5
ssI45
(dp859
S'iters'
p860
I2
sS'meta'
p861
(lp862
(dp863
S'objective'
p864
(g7
(g11
S'\x00\x00\x00\x00\x00\x00\xf0?'
p865
tp866
Rp867
g7
(g11
S'\x00\x00\x00\x00\x00\x006@'
p868
tp869
Rp870
tp871
sS'query_time'
p872
F0.04035305976867676
sS'comp_time'
p873
F0.0005738735198974609
sS'exec_cq'
p874
I5
sS'total_cq'
p875
I5
sa(dp876
g864
(g7
(g11
S'\x00\x00\x00\x00\x00\x00\xf0?'
p877
tp878
Rp879
g879
tp880
sg872
F4.1961669921875e-05
sg873
F0.00012803077697753906
sg874
I4
sg875
I4
sasS'total_cqs'
p881
I5
ssI48
(dp882
S'iters'
p883
I1
sS'meta'
p884
(lp885
(dp886
S'objective'
p887
(g7
(g11
S'\x00\x00\x00\x00\x00\x00\xf0?'
p888
tp889
Rp890
g890
tp891
sS'query_time'
p892
F0.1588749885559082
sS'comp_time'
p893
F0.0008919239044189453
sS'exec_cq'
p894
I2
sS'total_cq'
p895
I2
sasS'total_cqs'
p896
I2
ssI49
(dp897
S'iters'
p898
I3
sS'meta'
p899
(lp900
(dp901
S'objective'
p902
(g7
(g11
S'\x00\x00\x00\x00\x00\x80Z@'
p903
tp904
Rp905
g7
(g11
S'\x00\x00\x00\x00\x00 h@'
p906
tp907
Rp908
tp909
sS'query_time'
p910
F0.26665687561035156
sS'comp_time'
p911
F0.0013251304626464844
sS'exec_cq'
p912
I5
sS'total_cq'
p913
I5
sa(dp914
g902
(g7
(g11
S'\x00\x00\x00\x00\x00\x00\xf0?'
p915
tp916
Rp917
g917
tp918
sg910
F0.00034689903259277344
sg911
F0.00044798851013183594
sg912
I3
sg913
I3
sa(dp919
g902
(g7
(g11
S'\x00\x00\x00\x00\x00\x00\xf0?'
p920
tp921
Rp922
g922
tp923
sg910
F2.5987625122070312e-05
sg911
F0.00011587142944335938
sg912
I2
sg913
I2
sasS'total_cqs'
p924
I5
ssI50
(dp925
S'iters'
p926
I2
sS'meta'
p927
(lp928
(dp929
S'objective'
p930
(g7
(g11
S'\x00\x00\x00\x00\x00\x00\xf0?'
p931
tp932
Rp933
g933
tp934
sS'query_time'
p935
F1.0407829284667969
sS'comp_time'
p936
F0.0006351470947265625
sS'exec_cq'
p937
I5
sS'total_cq'
p938
I5
sa(dp939
g930
(g7
(g11
S'\x00\x00\x00\x00\x00\x00\xf0?'
p940
tp941
Rp942
g942
tp943
sg935
F0.00011706352233886719
sg936
F0.00021886825561523438
sg937
I4
sg938
I4
sasS'total_cqs'
p944
I5
ssI55
(dp945
S'iters'
p946
I1
sS'meta'
p947
(lp948
(dp949
S'objective'
p950
(g7
(g11
S'\x00\x00\x00\x00\x00\x00\xf0?'
p951
tp952
Rp953
g953
tp954
sS'query_time'
p955
F26.3840970993042
sS'comp_time'
p956
F3.6085045337677
sS'exec_cq'
p957
I2
sS'total_cq'
p958
I2
sasS'total_cqs'
p959
I2
ssI57
(dp960
S'iters'
p961
I1
sS'meta'
p962
(lp963
(dp964
S'objective'
p965
(g7
(g11
S'\x00\x00\x00\x00\x00\x00\xf0?'
p966
tp967
Rp968
g968
tp969
sS'query_time'
p970
F13.989861965179443
sS'comp_time'
p971
F0.14093494415283203
sS'exec_cq'
p972
I3
sS'total_cq'
p973
I3
sasS'total_cqs'
p974
I3
ssI116
(dp975
S'iters'
p976
I2
sS'meta'
p977
(lp978
(dp979
S'objective'
p980
(g7
(g11
S'\x00\x00\x00\x00\x00\x00(@'
p981
tp982
Rp983
g7
(g11
S'\x00\x00\x00\x00\x00\xe0n@'
p984
tp985
Rp986
tp987
sS'query_time'
p988
F5.680233001708984
sS'comp_time'
p989
F0.04344892501831055
sS'exec_cq'
p990
I21
sS'total_cq'
p991
I21
sa(dp992
g980
(g7
(g11
S'\x00\x00\x00\x00\x00\x00\xf0?'
p993
tp994
Rp995
g995
tp996
sg988
F0.0011560916900634766
sg989
F0.0009112358093261719
sg990
I2
sg991
I2
sasS'total_cqs'
p997
I21
ssI117
(dp998
S'iters'
p999
I1
sS'meta'
p1000
(lp1001
(dp1002
S'objective'
p1003
(g7
(g11
S'\x00\x00\x00\x00\x00\x00\xf0?'
p1004
tp1005
Rp1006
g1006
tp1007
sS'query_time'
p1008
F0.01571202278137207
sS'comp_time'
p1009
F0.00016999244689941406
sS'exec_cq'
p1010
I5
sS'total_cq'
p1011
I5
sasS'total_cqs'
p1012
I5
ss.