(dp0
I1
(dp1
S'iters'
p2
I2
sS'meta'
p3
(lp4
(dp5
S'objective'
p6
I7
sS'query_time'
p7
F71.10769581794739
sS'comp_time'
p8
F2.9167227745056152
sS'exec_cq'
p9
I6
sS'total_cq'
p10
I6
sa(dp11
g6
I5
sg7
F0.25591588020324707
sg8
F0.7008728981018066
sg9
I2
sg10
I2
sasS'total_cqs'
p12
I6
ssI2
(dp13
S'iters'
p14
I1
sS'meta'
p15
(lp16
(dp17
S'objective'
p18
I9
sS'query_time'
p19
F0.859644889831543
sS'comp_time'
p20
F0.16611981391906738
sS'exec_cq'
p21
I6
sS'total_cq'
p22
I6
sasS'total_cqs'
p23
I6
ssI3
(dp24
S'iters'
p25
I8
sS'meta'
p26
(lp27
(dp28
S'objective'
p29
I393
sS'query_time'
p30
F25.303241968154907
sS'comp_time'
p31
F0.5359859466552734
sS'exec_cq'
p32
I33
sS'total_cq'
p33
I33
sa(dp34
g29
I323
sg30
F0.13207697868347168
sg31
F0.31860876083374023
sg32
I30
sg33
I30
sa(dp35
g29
I250
sg30
F0.14536094665527344
sg31
F0.3043949604034424
sg32
I27
sg33
I27
sa(dp36
g29
I239
sg30
F0.02416396141052246
sg31
F0.4025139808654785
sg32
I24
sg33
I24
sa(dp37
g29
I196
sg30
F0.010270118713378906
sg31
F0.17115998268127441
sg32
I21
sg33
I21
sa(dp38
g29
I155
sg30
F0.008921146392822266
sg31
F0.15798020362854004
sg32
I18
sg33
I18
sa(dp39
g29
I127
sg30
F0.006535053253173828
sg31
F0.13740110397338867
sg32
I15
sg33
I15
sa(dp40
g29
I96
sg30
F0.006561994552612305
sg31
F0.13126325607299805
sg32
I12
sg33
I12
sasS'total_cqs'
p41
I33
ssI4
(dp42
S'iters'
p43
I0
sS'meta'
p44
(lp45
sS'total_cqs'
p46
I1
ssI5
(dp47
S'iters'
p48
I0
sS'meta'
p49
(lp50
sS'total_cqs'
p51
I1
ssI6
(dp52
S'iters'
p53
I2
sS'meta'
p54
(lp55
(dp56
S'objective'
p57
I1
sS'query_time'
p58
F14.880261898040771
sS'comp_time'
p59
F0.005656003952026367
sS'exec_cq'
p60
I5
sS'total_cq'
p61
I5
sa(dp62
g57
I2
sg58
F0.0002970695495605469
sg59
F0.0027010440826416016
sg60
I2
sg61
I2
sasS'total_cqs'
p63
I5
ssI7
(dp64
S'iters'
p65
I0
sS'meta'
p66
(lp67
sS'total_cqs'
p68
I1
ssI8
(dp69
S'iters'
p70
I1
sS'meta'
p71
(lp72
(dp73
S'objective'
p74
I9
sS'query_time'
p75
F102.75949501991272
sS'comp_time'
p76
F0.4452829360961914
sS'exec_cq'
p77
I6
sS'total_cq'
p78
I6
sasS'total_cqs'
p79
I6
ssI9
(dp80
S'iters'
p81
I2
sS'meta'
p82
(lp83
(dp84
S'objective'
p85
I1
sS'query_time'
p86
F51.32180309295654
sS'comp_time'
p87
F6.295694828033447
sS'exec_cq'
p88
I6
sS'total_cq'
p89
I6
sa(dp90
g85
I1
sg86
F0.04417705535888672
sg87
F0.8390491008758545
sg88
I2
sg89
I2
sasS'total_cqs'
p91
I6
ssI10
(dp92
S'iters'
p93
I0
sS'meta'
p94
(lp95
sS'total_cqs'
p96
I1
ssI11
(dp97
S'iters'
p98
I0
sS'meta'
p99
(lp100
sS'total_cqs'
p101
I1
ssI12
(dp102
S'iters'
p103
I0
sS'meta'
p104
(lp105
sS'total_cqs'
p106
I1
ssI13
(dp107
S'iters'
p108
I1
sS'meta'
p109
(lp110
(dp111
S'objective'
p112
I20
sS'query_time'
p113
F0.008051872253417969
sS'comp_time'
p114
F0.0001609325408935547
sS'exec_cq'
p115
I8
sS'total_cq'
p116
I8
sasS'total_cqs'
p117
I8
ssI14
(dp118
S'iters'
p119
I1
sS'meta'
p120
(lp121
(dp122
S'objective'
p123
I5
sS'query_time'
p124
F0.7891697883605957
sS'comp_time'
p125
F0.007546901702880859
sS'exec_cq'
p126
I5
sS'total_cq'
p127
I5
sasS'total_cqs'
p128
I5
ssI16
(dp129
S'iters'
p130
I2
sS'meta'
p131
(lp132
(dp133
S'objective'
p134
I1
sS'query_time'
p135
F1.1553940773010254
sS'comp_time'
p136
F0.012079000473022461
sS'exec_cq'
p137
I5
sS'total_cq'
p138
I5
sa(dp139
g134
I2
sg135
F9.703636169433594e-05
sg136
F0.0006489753723144531
sg137
I3
sg138
I3
sasS'total_cqs'
p140
I5
ssI17
(dp141
S'iters'
p142
I0
sS'meta'
p143
(lp144
sS'total_cqs'
p145
I1
ssI18
(dp146
S'iters'
p147
I2
sS'meta'
p148
(lp149
(dp150
S'objective'
p151
I1
sS'query_time'
p152
F0.18829894065856934
sS'comp_time'
p153
F0.0004520416259765625
sS'exec_cq'
p154
I5
sS'total_cq'
p155
I5
sa(dp156
g151
I2
sg152
F5.984306335449219e-05
sg153
F0.000186920166015625
sg154
I3
sg155
I3
sasS'total_cqs'
p157
I5
ssI19
(dp158
S'iters'
p159
I0
sS'meta'
p160
(lp161
sS'total_cqs'
p162
I1
ssI20
(dp163
S'iters'
p164
I4
sS'meta'
p165
(lp166
(dp167
S'objective'
p168
I44
sS'query_time'
p169
F11.438181161880493
sS'comp_time'
p170
F1.9085171222686768
sS'exec_cq'
p171
I12
sS'total_cq'
p172
I12
sa(dp173
g168
I29
sg169
F0.3116321563720703
sg170
F1.7342140674591064
sg171
I10
sg172
I10
sa(dp174
g168
I19
sg169
F0.2835860252380371
sg170
F1.442492961883545
sg171
I8
sg172
I8
sa(dp175
g168
I8
sg169
F0.23483610153198242
sg170
F1.195835828781128
sg171
I6
sg172
I6
sasS'total_cqs'
p176
I12
ssI21
(dp177
S'iters'
p178
I3
sS'meta'
p179
(lp180
(dp181
S'objective'
p182
I47
sS'query_time'
p183
F125.69007802009583
sS'comp_time'
p184
F2.3227109909057617
sS'exec_cq'
p185
I14
sS'total_cq'
p186
I14
sa(dp187
g182
I36
sg183
F0.025259971618652344
sg184
F0.4854288101196289
sg185
I10
sg186
I10
sa(dp188
g182
I8
sg183
F0.00410008430480957
sg184
F0.1040799617767334
sg185
I2
sg186
I2
sasS'total_cqs'
p189
I14
ssI22
(dp190
S'iters'
p191
I1
sS'meta'
p192
(lp193
(dp194
S'objective'
p195
I1
sS'query_time'
p196
F0.004063844680786133
sS'comp_time'
p197
F0.00012302398681640625
sS'exec_cq'
p198
I2
sS'total_cq'
p199
I2
sasS'total_cqs'
p200
I2
ssI23
(dp201
S'iters'
p202
I0
sS'meta'
p203
(lp204
sS'total_cqs'
p205
I1
ssI24
(dp206
S'iters'
p207
I0
sS'meta'
p208
(lp209
sS'total_cqs'
p210
I1
ssI25
(dp211
S'iters'
p212
I2
sS'meta'
p213
(lp214
(dp215
S'objective'
p216
I12
sS'query_time'
p217
F78.04686498641968
sS'comp_time'
p218
F5.202805042266846
sS'exec_cq'
p219
I7
sS'total_cq'
p220
I7
sa(dp221
g216
I6
sg217
F0.8116059303283691
sg218
F5.187587022781372
sg219
I5
sg220
I5
sasS'total_cqs'
p222
I7
ssI26
(dp223
S'iters'
p224
I2
sS'meta'
p225
(lp226
(dp227
S'objective'
p228
I49
sS'query_time'
p229
F23.860536098480225
sS'comp_time'
p230
F6.429656982421875
sS'exec_cq'
p231
I13
sS'total_cq'
p232
I13
sa(dp233
g228
I44
sg229
F1.177551031112671
sg230
F5.7665510177612305
sg231
I11
sg232
I11
sasS'total_cqs'
p234
I13
ssI27
(dp235
S'iters'
p236
I1
sS'meta'
p237
(lp238
(dp239
S'objective'
p240
I1
sS'query_time'
p241
F0.14461088180541992
sS'comp_time'
p242
F0.009560346603393555
sS'exec_cq'
p243
I2
sS'total_cq'
p244
I2
sasS'total_cqs'
p245
I2
ssI28
(dp246
S'iters'
p247
I3
sS'meta'
p248
(lp249
(dp250
S'objective'
p251
I43
sS'query_time'
p252
F1.1704909801483154
sS'comp_time'
p253
F0.044618844985961914
sS'exec_cq'
p254
I14
sS'total_cq'
p255
I14
sa(dp256
g251
I42
sg252
F0.003492116928100586
sg253
F0.030966997146606445
sg254
I10
sg255
I10
sa(dp257
g251
I30
sg252
F0.0032470226287841797
sg253
F0.032379150390625
sg254
I8
sg255
I8
sasS'total_cqs'
p258
I14
ssI29
(dp259
S'iters'
p260
I1
sS'meta'
p261
(lp262
(dp263
S'objective'
p264
I1
sS'query_time'
p265
F0.0061740875244140625
sS'comp_time'
p266
F0.00041294097900390625
sS'exec_cq'
p267
I2
sS'total_cq'
p268
I2
sasS'total_cqs'
p269
I2
ssI30
(dp270
S'iters'
p271
I1
sS'meta'
p272
(lp273
(dp274
S'objective'
p275
I1
sS'query_time'
p276
F0.3161499500274658
sS'comp_time'
p277
F0.0051457881927490234
sS'exec_cq'
p278
I2
sS'total_cq'
p279
I2
sasS'total_cqs'
p280
I2
ssI31
(dp281
S'iters'
p282
I2
sS'meta'
p283
(lp284
(dp285
S'objective'
p286
I7
sS'query_time'
p287
F5.2618348598480225
sS'comp_time'
p288
F0.3088796138763428
sS'exec_cq'
p289
I9
sS'total_cq'
p290
I9
sa(dp291
g286
I1
sg287
F0.007642030715942383
sg288
F0.10677719116210938
sg289
I3
sg290
I3
sasS'total_cqs'
p292
I9
ssI32
(dp293
S'iters'
p294
I2
sS'meta'
p295
(lp296
(dp297
S'objective'
p298
I6
sS'query_time'
p299
F18.74964690208435
sS'comp_time'
p300
F4.5058839321136475
sS'exec_cq'
p301
I7
sS'total_cq'
p302
I7
sa(dp303
g298
I3
sg299
F0.4667840003967285
sg300
F2.1409220695495605
sg301
I4
sg302
I4
sasS'total_cqs'
p304
I7
ssI33
(dp305
S'iters'
p306
I1
sS'meta'
p307
(lp308
(dp309
S'objective'
p310
I1
sS'query_time'
p311
F0.032186031341552734
sS'comp_time'
p312
F0.0002257823944091797
sS'exec_cq'
p313
I2
sS'total_cq'
p314
I2
sasS'total_cqs'
p315
I2
ssI34
(dp316
S'iters'
p317
I0
sS'meta'
p318
(lp319
sS'total_cqs'
p320
I1
ssI35
(dp321
S'iters'
p322
I2
sS'meta'
p323
(lp324
(dp325
S'objective'
p326
I1
sS'query_time'
p327
F16.448284149169922
sS'comp_time'
p328
F0.4496269226074219
sS'exec_cq'
p329
I5
sS'total_cq'
p330
I5
sa(dp331
g326
I2
sg327
F0.03341794013977051
sg328
F0.3281679153442383
sg329
I3
sg330
I3
sasS'total_cqs'
p332
I5
ssI37
(dp333
S'iters'
p334
I2
sS'meta'
p335
(lp336
(dp337
S'objective'
p338
I9
sS'query_time'
p339
F2.1578428745269775
sS'comp_time'
p340
F0.33641600608825684
sS'exec_cq'
p341
I10
sS'total_cq'
p342
I10
sa(dp343
g338
I3
sg339
F0.007566928863525391
sg340
F0.06401801109313965
sg341
I3
sg342
I3
sasS'total_cqs'
p344
I10
ssI38
(dp345
S'iters'
p346
I0
sS'meta'
p347
(lp348
sS'total_cqs'
p349
I1
ssI39
(dp350
S'iters'
p351
I0
sS'meta'
p352
(lp353
sS'total_cqs'
p354
I1
ssI40
(dp355
S'iters'
p356
I1
sS'meta'
p357
(lp358
(dp359
S'objective'
p360
I1
sS'query_time'
p361
F16.96497392654419
sS'comp_time'
p362
F4.374953031539917
sS'exec_cq'
p363
I2
sS'total_cq'
p364
I2
sasS'total_cqs'
p365
I2
ssI41
(dp366
S'iters'
p367
I2
sS'meta'
p368
(lp369
(dp370
S'objective'
p371
I1
sS'query_time'
p372
F11.249167919158936
sS'comp_time'
p373
F2.515998125076294
sS'exec_cq'
p374
I6
sS'total_cq'
p375
I6
sa(dp376
g371
I2
sg372
F0.000988006591796875
sg373
F0.0056798458099365234
sg374
I2
sg375
I2
sasS'total_cqs'
p377
I6
ssI42
(dp378
S'iters'
p379
I1
sS'meta'
p380
(lp381
(dp382
S'objective'
p383
I1
sS'query_time'
p384
F17.606892824172974
sS'comp_time'
p385
F4.236232042312622
sS'exec_cq'
p386
I2
sS'total_cq'
p387
I2
sasS'total_cqs'
p388
I2
ssI43
(dp389
S'iters'
p390
I0
sS'meta'
p391
(lp392
sS'total_cqs'
p393
I1
ssI44
(dp394
S'iters'
p395
I2
sS'meta'
p396
(lp397
(dp398
S'objective'
p399
I5
sS'query_time'
p400
F1.5095829963684082
sS'comp_time'
p401
F0.17974472045898438
sS'exec_cq'
p402
I5
sS'total_cq'
p403
I5
sa(dp404
g399
I0
sg400
F0.01677107810974121
sg401
F0.17652082443237305
sg402
I3
sg403
I3
sasS'total_cqs'
p405
I5
ssI45
(dp406
S'iters'
p407
I2
sS'meta'
p408
(lp409
(dp410
S'objective'
p411
I1
sS'query_time'
p412
F0.02783203125
sS'comp_time'
p413
F0.0015790462493896484
sS'exec_cq'
p414
I5
sS'total_cq'
p415
I5
sa(dp416
g411
I3
sg412
F0.0001690387725830078
sg413
F0.0009789466857910156
sg414
I2
sg415
I2
sasS'total_cqs'
p417
I5
ssI46
(dp418
S'iters'
p419
I0
sS'meta'
p420
(lp421
sS'total_cqs'
p422
I1
ssI47
(dp423
S'iters'
p424
I0
sS'meta'
p425
(lp426
sS'total_cqs'
p427
I1
ssI48
(dp428
S'iters'
p429
I1
sS'meta'
p430
(lp431
(dp432
S'objective'
p433
I1
sS'query_time'
p434
F0.14208388328552246
sS'comp_time'
p435
F0.0055370330810546875
sS'exec_cq'
p436
I2
sS'total_cq'
p437
I2
sasS'total_cqs'
p438
I2
ssI49
(dp439
S'iters'
p440
I2
sS'meta'
p441
(lp442
(dp443
S'objective'
p444
I1
sS'query_time'
p445
F0.20234394073486328
sS'comp_time'
p446
F0.005280733108520508
sS'exec_cq'
p447
I5
sS'total_cq'
p448
I5
sa(dp449
g444
I3
sg445
F3.814697265625e-05
sg446
F0.00019812583923339844
sg447
I2
sg448
I2
sasS'total_cqs'
p450
I5
ssI50
(dp451
S'iters'
p452
I1
sS'meta'
p453
(lp454
(dp455
S'objective'
p456
I5
sS'query_time'
p457
F0.7268109321594238
sS'comp_time'
p458
F0.0026388168334960938
sS'exec_cq'
p459
I5
sS'total_cq'
p460
I5
sasS'total_cqs'
p461
I5
ssI51
(dp462
S'iters'
p463
I0
sS'meta'
p464
(lp465
sS'total_cqs'
p466
I1
ssI52
(dp467
S'iters'
p468
I0
sS'meta'
p469
(lp470
sS'total_cqs'
p471
I1
ssI53
(dp472
S'iters'
p473
I0
sS'meta'
p474
(lp475
sS'total_cqs'
p476
I1
ssI55
(dp477
S'iters'
p478
I1
sS'meta'
p479
(lp480
(dp481
S'objective'
p482
I1
sS'query_time'
p483
F25.049160957336426
sS'comp_time'
p484
F0.09516596794128418
sS'exec_cq'
p485
I2
sS'total_cq'
p486
I2
sasS'total_cqs'
p487
I2
ssI56
(dp488
S'iters'
p489
I0
sS'meta'
p490
(lp491
sS'total_cqs'
p492
I1
ssI57
(dp493
S'iters'
p494
I1
sS'meta'
p495
(lp496
(dp497
S'objective'
p498
I0
sS'query_time'
p499
F13.656952857971191
sS'comp_time'
p500
F3.4776668548583984
sS'exec_cq'
p501
I3
sS'total_cq'
p502
I3
sasS'total_cqs'
p503
I3
ssI108
(dp504
S'iters'
p505
I0
sS'meta'
p506
(lp507
sS'total_cqs'
p508
I1
ssI109
(dp509
S'iters'
p510
I0
sS'meta'
p511
(lp512
sS'total_cqs'
p513
I1
ssI116
(dp514
S'iters'
p515
I2
sS'meta'
p516
(lp517
(dp518
S'objective'
p519
I153
sS'query_time'
p520
F4.254166126251221
sS'comp_time'
p521
F0.6437230110168457
sS'exec_cq'
p522
I21
sS'total_cq'
p523
I21
sa(dp524
g519
I3
sg520
F0.0014679431915283203
sg521
F0.007420778274536133
sg522
I3
sg523
I3
sasS'total_cqs'
p525
I21
ssI117
(dp526
S'iters'
p527
I1
sS'meta'
p528
(lp529
(dp530
S'objective'
p531
I5
sS'query_time'
p532
F0.008038043975830078
sS'comp_time'
p533
F0.0001239776611328125
sS'exec_cq'
p534
I5
sS'total_cq'
p535
I5
sasS'total_cqs'
p536
I5
ssI118
(dp537
S'iters'
p538
I0
sS'meta'
p539
(lp540
sS'total_cqs'
p541
I1
ssI122
(dp542
S'iters'
p543
I0
sS'meta'
p544
(lp545
sS'total_cqs'
p546
I1
ss.