(dp0
I1
(dp1
S'iters'
p2
I2
sS'meta'
p3
(lp4
(dp5
S'objective'
p6
I9
sS'query_time'
p7
F26.224022150039673
sS'comp_time'
p8
F0.0003809928894042969
sS'exec_cq'
p9
I2
sS'total_cq'
p10
I6
sa(dp11
g6
I13
sg7
F0.49190306663513184
sg8
F6.67572021484375e-05
sg9
I2
sg10
I4
sasS'total_cqs'
p12
I6
ssI2
(dp13
S'iters'
p14
I1
sS'meta'
p15
(lp16
(dp17
S'objective'
p18
I19
sS'query_time'
p19
F0.8421018123626709
sS'comp_time'
p20
F8.678436279296875e-05
sS'exec_cq'
p21
I6
sS'total_cq'
p22
I6
sasS'total_cqs'
p23
I6
ssI3
(dp24
S'iters'
p25
I18
sS'meta'
p26
(lp27
(dp28
S'objective'
p29
I449
sS'query_time'
p30
F0.029757976531982422
sS'comp_time'
p31
F0.0001239776611328125
sS'exec_cq'
p32
I1
sS'total_cq'
p33
I33
sa(dp34
g29
I419
sg30
F20.02165412902832
sg31
F0.00011324882507324219
sg32
I2
sg33
I30
sa(dp35
g29
I402
sg30
F0.03347492218017578
sg31
F7.295608520507812e-05
sg32
I2
sg33
I28
sa(dp36
g29
I290
sg30
F0.07031607627868652
sg31
F9.417533874511719e-05
sg32
I3
sg33
I27
sa(dp37
g29
I261
sg30
F0.32086801528930664
sg31
F0.00010085105895996094
sg32
I3
sg33
I24
sa(dp38
g29
I229
sg30
F0.012356996536254883
sg31
F7.176399230957031e-05
sg32
I3
sg33
I21
sa(dp39
g29
I220
sg30
F0.037049055099487305
sg31
F7.796287536621094e-05
sg32
I3
sg33
I19
sa(dp40
g29
I197
sg30
F0.2923719882965088
sg31
F0.00010204315185546875
sg32
I3
sg33
I18
sa(dp41
g29
I187
sg30
F0.011230945587158203
sg31
F6.4849853515625e-05
sg32
I4
sg33
I17
sa(dp42
g29
I172
sg30
F0.0035979747772216797
sg31
F6.103515625e-05
sg32
I4
sg33
I16
sa(dp43
g29
I160
sg30
F0.0025408267974853516
sg31
F5.888938903808594e-05
sg32
I4
sg33
I15
sa(dp44
g29
I132
sg30
F0.01441502571105957
sg31
F8.20159912109375e-05
sg32
I4
sg33
I14
sa(dp45
g29
I131
sg30
F0.147597074508667
sg31
F7.987022399902344e-05
sg32
I4
sg33
I12
sa(dp46
g29
I118
sg30
F0.014896869659423828
sg31
F7.581710815429688e-05
sg32
I4
sg33
I11
sa(dp47
g29
I116
sg30
F0.010474920272827148
sg31
F5.91278076171875e-05
sg32
I4
sg33
I9
sa(dp48
g29
I111
sg30
F0.006600141525268555
sg31
F5.698204040527344e-05
sg32
I4
sg33
I8
sa(dp49
g29
I109
sg30
F0.005758047103881836
sg31
F5.602836608886719e-05
sg32
I4
sg33
I7
sa(dp50
g29
I111
sg30
F0.1669778823852539
sg31
F7.319450378417969e-05
sg32
I4
sg33
I6
sasS'total_cqs'
p51
I33
ssI4
(dp52
S'iters'
p53
I0
sS'meta'
p54
(lp55
sS'total_cqs'
p56
I1
ssI5
(dp57
S'iters'
p58
I0
sS'meta'
p59
(lp60
sS'total_cqs'
p61
I1
ssI6
(dp62
S'iters'
p63
I2
sS'meta'
p64
(lp65
(dp66
S'objective'
p67
I1
sS'query_time'
p68
F1.2864229679107666
sS'comp_time'
p69
F0.00011110305786132812
sS'exec_cq'
p70
I1
sS'total_cq'
p71
I5
sa(dp72
g67
I5
sg68
F3.810685873031616
sg69
F0.00011086463928222656
sg70
I1
sg71
I3
sasS'total_cqs'
p73
I5
ssI7
(dp74
S'iters'
p75
I0
sS'meta'
p76
(lp77
sS'total_cqs'
p78
I1
ssI8
(dp79
S'iters'
p80
I4
sS'meta'
p81
(lp82
(dp83
S'objective'
p84
I11
sS'query_time'
p85
F22.184926986694336
sS'comp_time'
p86
F0.00044798851013183594
sS'exec_cq'
p87
I2
sS'total_cq'
p88
I6
sa(dp89
g84
I0
sg85
F0.1622471809387207
sg86
F0.0001010894775390625
sg87
I1
sg88
I5
sa(dp90
g84
I0
sg85
F1.4950830936431885
sg86
F0.00014781951904296875
sg87
I3
sg88
I3
sa(dp91
g84
I2
sg85
F0.0034990310668945312
sg86
F9.107589721679688e-05
sg87
I2
sg88
I2
sasS'total_cqs'
p92
I6
ssI9
(dp93
S'iters'
p94
I4
sS'meta'
p95
(lp96
(dp97
S'objective'
p98
I9
sS'query_time'
p99
F1.8416838645935059
sS'comp_time'
p100
F0.0009016990661621094
sS'exec_cq'
p101
I1
sS'total_cq'
p102
I6
sa(dp103
g98
I1
sg99
F1.0791120529174805
sg100
F9.512901306152344e-05
sg101
I1
sg102
I5
sa(dp104
g98
I0
sg99
F23.18540120124817
sg100
F0.0008289813995361328
sg101
I1
sg102
I3
sa(dp105
g98
I2
sg99
F20.62663507461548
sg100
F0.00011491775512695312
sg101
I2
sg102
I2
sasS'total_cqs'
p106
I6
ssI10
(dp107
S'iters'
p108
I0
sS'meta'
p109
(lp110
sS'total_cqs'
p111
I1
ssI11
(dp112
S'iters'
p113
I0
sS'meta'
p114
(lp115
sS'total_cqs'
p116
I1
ssI12
(dp117
S'iters'
p118
I0
sS'meta'
p119
(lp120
sS'total_cqs'
p121
I1
ssI13
(dp122
S'iters'
p123
I2
sS'meta'
p124
(lp125
(dp126
S'objective'
p127
I30
sS'query_time'
p128
F9.773093938827515
sS'comp_time'
p129
F0.00012302398681640625
sS'exec_cq'
p130
I6
sS'total_cq'
p131
I8
sa(dp132
g127
I31
sg128
F0.0028040409088134766
sg129
F7.081031799316406e-05
sg130
I7
sg131
I7
sasS'total_cqs'
p133
I8
ssI14
(dp134
S'iters'
p135
I3
sS'meta'
p136
(lp137
(dp138
S'objective'
p139
I5
sS'query_time'
p140
F0.025854110717773438
sS'comp_time'
p141
F7.104873657226562e-05
sS'exec_cq'
p142
I1
sS'total_cq'
p143
I5
sa(dp144
g139
I2
sg140
F0.24815893173217773
sg141
F8.893013000488281e-05
sg142
I1
sg143
I4
sa(dp145
g139
I4
sg140
F1.0222210884094238
sg141
F9.012222290039062e-05
sg142
I3
sg143
I3
sasS'total_cqs'
p146
I5
ssI16
(dp147
S'iters'
p148
I3
sS'meta'
p149
(lp150
(dp151
S'objective'
p152
I3
sS'query_time'
p153
F16.65953803062439
sS'comp_time'
p154
F0.00010800361633300781
sS'exec_cq'
p155
I2
sS'total_cq'
p156
I5
sa(dp157
g152
I3
sg153
F0.1322948932647705
sg154
F7.605552673339844e-05
sg155
I2
sg156
I3
sa(dp158
g152
I4
sg153
F0.03028106689453125
sg154
F8.392333984375e-05
sg155
I2
sg156
I2
sasS'total_cqs'
p159
I5
ssI17
(dp160
S'iters'
p161
I0
sS'meta'
p162
(lp163
sS'total_cqs'
p164
I1
ssI18
(dp165
S'iters'
p166
I4
sS'meta'
p167
(lp168
(dp169
S'objective'
p170
I5
sS'query_time'
p171
F0.09283590316772461
sS'comp_time'
p172
F8.58306884765625e-05
sS'exec_cq'
p173
I1
sS'total_cq'
p174
I5
sa(dp175
g170
I2
sg171
F0.1888430118560791
sg172
F8.106231689453125e-05
sg173
I1
sg174
I4
sa(dp176
g170
I0
sg171
F0.08504104614257812
sg172
F7.796287536621094e-05
sg173
I1
sg174
I3
sa(dp177
g170
I1
sg171
F0.08307790756225586
sg172
F0.00010395050048828125
sg173
I1
sg174
I2
sasS'total_cqs'
p178
I5
ssI19
(dp179
S'iters'
p180
I0
sS'meta'
p181
(lp182
sS'total_cqs'
p183
I1
ssI20
(dp184
S'iters'
p185
I8
sS'meta'
p186
(lp187
(dp188
S'objective'
p189
I42
sS'query_time'
p190
F0.03040599822998047
sS'comp_time'
p191
F9.584426879882812e-05
sS'exec_cq'
p192
I1
sS'total_cq'
p193
I12
sa(dp194
g189
I42
sg190
F5.683959007263184
sg191
F0.0003299713134765625
sg192
I3
sg193
I10
sa(dp195
g189
I35
sg190
F10.335216999053955
sg191
F0.00010895729064941406
sg192
I3
sg193
I9
sa(dp196
g189
I29
sg190
F0.9142711162567139
sg191
F0.0006756782531738281
sg192
I3
sg193
I8
sa(dp197
g189
I26
sg190
F0.0051419734954833984
sg191
F6.818771362304688e-05
sg192
I3
sg193
I7
sa(dp198
g189
I25
sg190
F4.374345064163208
sg191
F0.0003399848937988281
sg192
I4
sg193
I6
sa(dp199
g189
I24
sg190
F0.002875089645385742
sg191
F0.00011801719665527344
sg192
I4
sg193
I5
sa(dp200
g189
I24
sg190
F0.09813809394836426
sg191
F9.72747802734375e-05
sg192
I4
sg193
I4
sasS'total_cqs'
p201
I12
ssI21
(dp202
S'iters'
p203
I7
sS'meta'
p204
(lp205
(dp206
S'objective'
p207
I61
sS'query_time'
p208
F20.099328994750977
sS'comp_time'
p209
F7.295608520507812e-05
sS'exec_cq'
p210
I2
sS'total_cq'
p211
I14
sa(dp212
g207
I31
sg208
F1.6225450038909912
sg209
F0.00010418891906738281
sg210
I2
sg211
I12
sa(dp213
g207
I11
sg208
F0.087432861328125
sg209
F8.225440979003906e-05
sg210
I1
sg211
I10
sa(dp214
g207
I2
sg208
F20.44424796104431
sg209
F8.20159912109375e-05
sg210
I2
sg211
I6
sa(dp215
g207
I4
sg208
F9.497846841812134
sg209
F0.000286102294921875
sg210
I1
sg211
I4
sa(dp216
g207
I0
sg208
F0.03952193260192871
sg209
F5.7697296142578125e-05
sg210
I1
sg211
I3
sa(dp217
g207
I3
sg208
F0.24903202056884766
sg209
F6.198883056640625e-05
sg210
I1
sg211
I2
sasS'total_cqs'
p218
I14
ssI22
(dp219
S'iters'
p220
I1
sS'meta'
p221
(lp222
(dp223
S'objective'
p224
I1
sS'query_time'
p225
F0.004921913146972656
sS'comp_time'
p226
F5.412101745605469e-05
sS'exec_cq'
p227
I1
sS'total_cq'
p228
I2
sasS'total_cqs'
p229
I2
ssI23
(dp230
S'iters'
p231
I0
sS'meta'
p232
(lp233
sS'total_cqs'
p234
I1
ssI24
(dp235
S'iters'
p236
I0
sS'meta'
p237
(lp238
sS'total_cqs'
p239
I1
ssI25
(dp240
S'iters'
p241
I4
sS'meta'
p242
(lp243
(dp244
S'objective'
p245
I8
sS'query_time'
p246
F28.72321915626526
sS'comp_time'
p247
F0.00043201446533203125
sS'exec_cq'
p248
I2
sS'total_cq'
p249
I7
sa(dp250
g245
I6
sg246
F8.49036979675293
sg247
F0.0003428459167480469
sg248
I2
sg249
I5
sa(dp251
g245
I0
sg246
F8.060791969299316
sg247
F0.00015020370483398438
sg248
I1
sg249
I3
sa(dp252
g245
I1
sg246
F28.46693205833435
sg247
F0.0001437664031982422
sg248
I1
sg249
I2
sasS'total_cqs'
p253
I7
ssI26
(dp254
S'iters'
p255
I10
sS'meta'
p256
(lp257
(dp258
S'objective'
p259
I51
sS'query_time'
p260
F2.5386438369750977
sS'comp_time'
p261
F0.00010204315185546875
sS'exec_cq'
p262
I1
sS'total_cq'
p263
I13
sa(dp264
g259
I47
sg260
F0.03803300857543945
sg261
F9.512901306152344e-05
sg262
I1
sg263
I11
sa(dp265
g259
I37
sg260
F0.034223079681396484
sg261
F9.107589721679688e-05
sg262
I1
sg263
I10
sa(dp266
g259
I12
sg260
F1.920158863067627
sg261
F0.00010180473327636719
sg262
I1
sg263
I9
sa(dp267
g259
I12
sg260
F0.053131818771362305
sg261
F9.989738464355469e-05
sg262
I1
sg263
I7
sa(dp268
g259
I9
sg260
F0.08479499816894531
sg261
F8.392333984375e-05
sg262
I1
sg263
I6
sa(dp269
g259
I5
sg260
F0.02676701545715332
sg261
F6.604194641113281e-05
sg262
I1
sg263
I5
sa(dp270
g259
I2
sg260
F0.06368708610534668
sg261
F7.82012939453125e-05
sg262
I1
sg263
I4
sa(dp271
g259
I0
sg260
F0.03676795959472656
sg261
F7.390975952148438e-05
sg262
I1
sg263
I3
sa(dp272
g259
I1
sg260
F20.171849966049194
sg261
F0.00022983551025390625
sg262
I1
sg263
I2
sasS'total_cqs'
p273
I13
ssI27
(dp274
S'iters'
p275
I1
sS'meta'
p276
(lp277
(dp278
S'objective'
p279
I1
sS'query_time'
p280
F0.16141486167907715
sS'comp_time'
p281
F9.894371032714844e-05
sS'exec_cq'
p282
I2
sS'total_cq'
p283
I2
sasS'total_cqs'
p284
I2
ssI28
(dp285
S'iters'
p286
I9
sS'meta'
p287
(lp288
(dp289
S'objective'
p290
I59
sS'query_time'
p291
F2.1458470821380615
sS'comp_time'
p292
F9.703636169433594e-05
sS'exec_cq'
p293
I1
sS'total_cq'
p294
I14
sa(dp295
g290
I38
sg291
F1.1103169918060303
sg292
F9.298324584960938e-05
sg293
I1
sg294
I12
sa(dp296
g290
I22
sg291
F1.4538249969482422
sg292
F0.0001270771026611328
sg293
I1
sg294
I9
sa(dp297
g290
I19
sg291
F0.554534912109375
sg292
F8.296966552734375e-05
sg293
I1
sg294
I7
sa(dp298
g290
I10
sg291
F0.43399810791015625
sg292
F0.0001289844512939453
sg293
I1
sg294
I6
sa(dp299
g290
I4
sg291
F0.3917980194091797
sg292
F0.0001239776611328125
sg293
I1
sg294
I5
sa(dp300
g290
I2
sg291
F0.373729944229126
sg292
F0.0001418590545654297
sg293
I1
sg294
I4
sa(dp301
g290
I1
sg291
F0.27803897857666016
sg292
F0.00012302398681640625
sg293
I1
sg294
I3
sa(dp302
g290
I1
sg291
F0.13752293586730957
sg292
F0.00011801719665527344
sg293
I1
sg294
I2
sasS'total_cqs'
p303
I14
ssI29
(dp304
S'iters'
p305
I1
sS'meta'
p306
(lp307
(dp308
S'objective'
p309
I1
sS'query_time'
p310
F0.0049190521240234375
sS'comp_time'
p311
F6.794929504394531e-05
sS'exec_cq'
p312
I2
sS'total_cq'
p313
I2
sasS'total_cqs'
p314
I2
ssI30
(dp315
S'iters'
p316
I1
sS'meta'
p317
(lp318
(dp319
S'objective'
p320
I1
sS'query_time'
p321
F0.3804621696472168
sS'comp_time'
p322
F9.417533874511719e-05
sS'exec_cq'
p323
I2
sS'total_cq'
p324
I2
sasS'total_cqs'
p325
I2
ssI31
(dp326
S'iters'
p327
I6
sS'meta'
p328
(lp329
(dp330
S'objective'
p331
I27
sS'query_time'
p332
F0.19817495346069336
sS'comp_time'
p333
F9.083747863769531e-05
sS'exec_cq'
p334
I1
sS'total_cq'
p335
I9
sa(dp336
g331
I12
sg332
F4.267329931259155
sg333
F8.606910705566406e-05
sg334
I1
sg335
I8
sa(dp337
g331
I10
sg332
F0.004431009292602539
sg333
F4.482269287109375e-05
sg334
I1
sg335
I6
sa(dp338
g331
I5
sg332
F9.641172170639038
sg333
F0.00013685226440429688
sg334
I1
sg335
I5
sa(dp339
g331
I1
sg332
F1.682330846786499
sg333
F9.107589721679688e-05
sg334
I1
sg335
I4
sa(dp340
g331
I4
sg332
F0.0029649734497070312
sg333
F5.0067901611328125e-05
sg334
I1
sg335
I2
sasS'total_cqs'
p341
I9
ssI32
(dp342
S'iters'
p343
I5
sS'meta'
p344
(lp345
(dp346
S'objective'
p347
I14
sS'query_time'
p348
F7.439306020736694
sS'comp_time'
p349
F0.000118255615234375
sS'exec_cq'
p350
I1
sS'total_cq'
p351
I7
sa(dp352
g347
I9
sg348
F2.0855588912963867
sg349
F0.0007088184356689453
sg350
I1
sg351
I6
sa(dp353
g347
I1
sg348
F2.010392904281616
sg349
F8.702278137207031e-05
sg350
I1
sg351
I5
sa(dp354
g347
I1
sg348
F7.450052976608276
sg349
F0.0001590251922607422
sg350
I1
sg351
I3
sa(dp355
g347
I1
sg348
F1.4726231098175049
sg349
F8.296966552734375e-05
sg350
I1
sg351
I2
sasS'total_cqs'
p356
I7
ssI33
(dp357
S'iters'
p358
I1
sS'meta'
p359
(lp360
(dp361
S'objective'
p362
I1
sS'query_time'
p363
F0.03465580940246582
sS'comp_time'
p364
F9.489059448242188e-05
sS'exec_cq'
p365
I2
sS'total_cq'
p366
I2
sasS'total_cqs'
p367
I2
ssI34
(dp368
S'iters'
p369
I0
sS'meta'
p370
(lp371
sS'total_cqs'
p372
I1
ssI35
(dp373
S'iters'
p374
I4
sS'meta'
p375
(lp376
(dp377
S'objective'
p378
I5
sS'query_time'
p379
F6.494232892990112
sS'comp_time'
p380
F0.00023603439331054688
sS'exec_cq'
p381
I1
sS'total_cq'
p382
I5
sa(dp383
g378
I2
sg379
F8.082031965255737
sg380
F0.00011801719665527344
sg381
I1
sg382
I4
sa(dp384
g378
I0
sg379
F3.5571320056915283
sg380
F0.0001621246337890625
sg381
I1
sg382
I3
sa(dp385
g378
I1
sg379
F4.858365058898926
sg380
F6.794929504394531e-05
sg381
I1
sg382
I2
sasS'total_cqs'
p386
I5
ssI37
(dp387
S'iters'
p388
I9
sS'meta'
p389
(lp390
(dp391
S'objective'
p392
I35
sS'query_time'
p393
F0.8188419342041016
sS'comp_time'
p394
F0.00010085105895996094
sS'exec_cq'
p395
I1
sS'total_cq'
p396
I10
sa(dp397
g392
I27
sg393
F0.006570100784301758
sg394
F6.222724914550781e-05
sg395
I1
sg396
I9
sa(dp398
g392
I22
sg393
F0.35181403160095215
sg394
F7.724761962890625e-05
sg395
I2
sg396
I8
sa(dp399
g392
I17
sg393
F0.8068740367889404
sg394
F8.893013000488281e-05
sg395
I2
sg396
I7
sa(dp400
g392
I13
sg393
F0.004523038864135742
sg394
F4.792213439941406e-05
sg395
I2
sg396
I6
sa(dp401
g392
I10
sg393
F0.8101539611816406
sg394
F0.0003349781036376953
sg395
I2
sg396
I5
sa(dp402
g392
I8
sg393
F0.0030319690704345703
sg394
F7.295608520507812e-05
sg395
I2
sg396
I4
sa(dp403
g392
I7
sg393
F0.0019731521606445312
sg394
F5.1975250244140625e-05
sg395
I2
sg396
I3
sa(dp404
g392
I7
sg393
F0.3749370574951172
sg394
F0.00011897087097167969
sg395
I2
sg396
I2
sasS'total_cqs'
p405
I10
ssI38
(dp406
S'iters'
p407
I0
sS'meta'
p408
(lp409
sS'total_cqs'
p410
I1
ssI39
(dp411
S'iters'
p412
I0
sS'meta'
p413
(lp414
sS'total_cqs'
p415
I1
ssI40
(dp416
S'iters'
p417
I1
sS'meta'
p418
(lp419
(dp420
S'objective'
p421
I1
sS'query_time'
p422
F18.287467002868652
sS'comp_time'
p423
F0.00011587142944335938
sS'exec_cq'
p424
I1
sS'total_cq'
p425
I2
sasS'total_cqs'
p426
I2
ssI41
(dp427
S'iters'
p428
I5
sS'meta'
p429
(lp430
(dp431
S'objective'
p432
I9
sS'query_time'
p433
F1.770319938659668
sS'comp_time'
p434
F8.702278137207031e-05
sS'exec_cq'
p435
I1
sS'total_cq'
p436
I6
sa(dp437
g432
I5
sg433
F0.31858301162719727
sg434
F8.20159912109375e-05
sg435
I1
sg436
I5
sa(dp438
g432
I2
sg433
F0.2599329948425293
sg434
F8.702278137207031e-05
sg435
I1
sg436
I4
sa(dp439
g432
I0
sg433
F9.65375018119812
sg434
F0.0004138946533203125
sg435
I1
sg436
I3
sa(dp440
g432
I1
sg433
F1.6822841167449951
sg434
F0.0005519390106201172
sg435
I1
sg436
I2
sasS'total_cqs'
p441
I6
ssI42
(dp442
S'iters'
p443
I1
sS'meta'
p444
(lp445
(dp446
S'objective'
p447
I1
sS'query_time'
p448
F18.23764395713806
sS'comp_time'
p449
F0.0001888275146484375
sS'exec_cq'
p450
I1
sS'total_cq'
p451
I2
sasS'total_cqs'
p452
I2
ssI43
(dp453
S'iters'
p454
I0
sS'meta'
p455
(lp456
sS'total_cqs'
p457
I1
ssI44
(dp458
S'iters'
p459
I3
sS'meta'
p460
(lp461
(dp462
S'objective'
p463
I3
sS'query_time'
p464
F4.019241094589233
sS'comp_time'
p465
F8.606910705566406e-05
sS'exec_cq'
p466
I1
sS'total_cq'
p467
I5
sa(dp468
g463
I0
sg464
F0.026194095611572266
sg465
F7.390975952148438e-05
sg466
I1
sg467
I3
sa(dp469
g463
I1
sg464
F1.1998851299285889
sg465
F0.00011014938354492188
sg466
I1
sg467
I2
sasS'total_cqs'
p470
I5
ssI45
(dp471
S'iters'
p472
I2
sS'meta'
p473
(lp474
(dp475
S'objective'
p476
I11
sS'query_time'
p477
F5.692537069320679
sS'comp_time'
p478
F0.00012135505676269531
sS'exec_cq'
p479
I4
sS'total_cq'
p480
I5
sa(dp481
g476
I11
sg477
F0.005017995834350586
sg478
F6.198883056640625e-05
sg479
I4
sg480
I4
sasS'total_cqs'
p482
I5
ssI46
(dp483
S'iters'
p484
I0
sS'meta'
p485
(lp486
sS'total_cqs'
p487
I1
ssI47
(dp488
S'iters'
p489
I0
sS'meta'
p490
(lp491
sS'total_cqs'
p492
I1
ssI48
(dp493
S'iters'
p494
I1
sS'meta'
p495
(lp496
(dp497
S'objective'
p498
I1
sS'query_time'
p499
F0.12282514572143555
sS'comp_time'
p500
F9.298324584960938e-05
sS'exec_cq'
p501
I2
sS'total_cq'
p502
I2
sasS'total_cqs'
p503
I2
ssI49
(dp504
S'iters'
p505
I4
sS'meta'
p506
(lp507
(dp508
S'objective'
p509
I5
sS'query_time'
p510
F0.1454911231994629
sS'comp_time'
p511
F8.893013000488281e-05
sS'exec_cq'
p512
I1
sS'total_cq'
p513
I5
sa(dp514
g509
I2
sg510
F0.052848100662231445
sg511
F7.200241088867188e-05
sg512
I1
sg513
I4
sa(dp515
g509
I0
sg510
F0.05364203453063965
sg511
F8.797645568847656e-05
sg512
I1
sg513
I3
sa(dp516
g509
I1
sg510
F0.01146388053894043
sg511
F6.890296936035156e-05
sg512
I2
sg513
I2
sasS'total_cqs'
p517
I5
ssI50
(dp518
S'iters'
p519
I4
sS'meta'
p520
(lp521
(dp522
S'objective'
p523
I5
sS'query_time'
p524
F0.20656585693359375
sS'comp_time'
p525
F7.796287536621094e-05
sS'exec_cq'
p526
I1
sS'total_cq'
p527
I5
sa(dp528
g523
I2
sg524
F0.006556034088134766
sg525
F6.508827209472656e-05
sg526
I1
sg527
I4
sa(dp529
g523
I0
sg524
F0.0030341148376464844
sg525
F6.914138793945312e-05
sg526
I1
sg527
I3
sa(dp530
g523
I1
sg524
F0.02066206932067871
sg525
F9.584426879882812e-05
sg526
I1
sg527
I2
sasS'total_cqs'
p531
I5
ssI51
(dp532
S'iters'
p533
I0
sS'meta'
p534
(lp535
sS'total_cqs'
p536
I1
ssI52
(dp537
S'iters'
p538
I0
sS'meta'
p539
(lp540
sS'total_cqs'
p541
I1
ssI53
(dp542
S'iters'
p543
I0
sS'meta'
p544
(lp545
sS'total_cqs'
p546
I1
ssI55
(dp547
S'iters'
p548
I1
sS'meta'
p549
(lp550
(dp551
S'objective'
p552
I1
sS'query_time'
p553
F29.18561816215515
sS'comp_time'
p554
F0.0001590251922607422
sS'exec_cq'
p555
I2
sS'total_cq'
p556
I2
sasS'total_cqs'
p557
I2
ssI56
(dp558
S'iters'
p559
I0
sS'meta'
p560
(lp561
sS'total_cqs'
p562
I1
ssI57
(dp563
S'iters'
p564
I2
sS'meta'
p565
(lp566
(dp567
S'objective'
p568
I0
sS'query_time'
p569
F2.4841880798339844
sS'comp_time'
p570
F0.0001990795135498047
sS'exec_cq'
p571
I1
sS'total_cq'
p572
I3
sa(dp573
g568
I1
sg569
F12.597990989685059
sg570
F0.00047397613525390625
sg571
I2
sg572
I2
sasS'total_cqs'
p574
I3
ssI108
(dp575
S'iters'
p576
I0
sS'meta'
p577
(lp578
sS'total_cqs'
p579
I1
ssI109
(dp580
S'iters'
p581
I0
sS'meta'
p582
(lp583
sS'total_cqs'
p584
I1
ssI116
(dp585
S'iters'
p586
I4
sS'meta'
p587
(lp588
(dp589
S'objective'
p590
I187
sS'query_time'
p591
F1.1378650665283203
sS'comp_time'
p592
F9.703636169433594e-05
sS'exec_cq'
p593
I5
sS'total_cq'
p594
I21
sa(dp595
g590
I163
sg591
F7.388869047164917
sg592
F0.00010418891906738281
sg593
I5
sg594
I19
sa(dp596
g590
I174
sg591
F0.10091185569763184
sg592
F8.797645568847656e-05
sg593
I13
sg594
I17
sa(dp597
g590
I178
sg591
F0.06440901756286621
sg592
F0.00011014938354492188
sg593
I16
sg594
I16
sasS'total_cqs'
p598
I21
ssI117
(dp599
S'iters'
p600
I2
sS'meta'
p601
(lp602
(dp603
S'objective'
p604
I9
sS'query_time'
p605
F0.009824037551879883
sS'comp_time'
p606
F0.0001049041748046875
sS'exec_cq'
p607
I3
sS'total_cq'
p608
I5
sa(dp609
g604
I10
sg605
F0.0028040409088134766
sg606
F6.794929504394531e-05
sg607
I4
sg608
I4
sasS'total_cqs'
p610
I5
ssI118
(dp611
S'iters'
p612
I0
sS'meta'
p613
(lp614
sS'total_cqs'
p615
I1
ssI122
(dp616
S'iters'
p617
I0
sS'meta'
p618
(lp619
sS'total_cqs'
p620
I1
ss.