(dp0
I1
(dp1
S'iters'
p2
I2
sS'meta'
p3
(lp4
(dp5
S'objective'
p6
I2
sS'query_time'
p7
F16.340281009674072
sS'comp_time'
p8
F0.8206021785736084
sS'exec_cq'
p9
I3
sS'total_cq'
p10
I6
sa(dp11
g6
I0
sg7
F0.36246204376220703
sg8
F0.7782399654388428
sg9
I2
sg10
I2
sasS'total_cqs'
p12
I6
ssI2
(dp13
S'iters'
p14
I1
sS'meta'
p15
(lp16
(dp17
S'objective'
p18
I4
sS'query_time'
p19
F1.0842671394348145
sS'comp_time'
p20
F0.20804500579833984
sS'exec_cq'
p21
I5
sS'total_cq'
p22
I6
sasS'total_cqs'
p23
I6
ssI3
(dp24
S'iters'
p25
I14
sS'meta'
p26
(lp27
(dp28
S'objective'
p29
I27
sS'query_time'
p30
F25.56607699394226
sS'comp_time'
p31
F0.6043519973754883
sS'exec_cq'
p32
I15
sS'total_cq'
p33
I33
sa(dp34
g29
I24
sg30
F0.44961094856262207
sg31
F0.020418405532836914
sg32
I13
sg33
I30
sa(dp35
g29
I21
sg30
F0.035360097885131836
sg31
F0.4534299373626709
sg32
I12
sg33
I27
sa(dp36
g29
I18
sg30
F0.004103899002075195
sg31
F0.020465850830078125
sg32
I10
sg33
I24
sa(dp37
g29
I15
sg30
F0.011349916458129883
sg31
F0.1682891845703125
sg32
I9
sg33
I21
sa(dp38
g29
I12
sg30
F0.002790212631225586
sg31
F0.015790224075317383
sg32
I7
sg33
I18
sa(dp39
g29
I9
sg30
F0.008309125900268555
sg31
F0.13863396644592285
sg32
I6
sg33
I15
sa(dp40
g29
I10
sg30
F0.19245600700378418
sg31
F0.01823282241821289
sg32
I5
sg33
I12
sa(dp41
g29
I9
sg30
F0.0004839897155761719
sg31
F0.0030517578125
sg32
I4
sg33
I11
sa(dp42
g29
I6
sg30
F0.0025908946990966797
sg31
F0.015381336212158203
sg32
I4
sg33
I10
sa(dp43
g29
I6
sg30
F5.888938903808594e-05
sg31
F0.0004050731658935547
sg32
I3
sg33
I8
sa(dp44
g29
I5
sg30
F0.00019288063049316406
sg31
F0.0011141300201416016
sg32
I3
sg33
I7
sa(dp45
g29
I4
sg30
F1.5020370483398438e-05
sg31
F0.00010418891906738281
sg32
I2
sg33
I6
sa(dp46
g29
I3
sg30
F0.0025370121002197266
sg31
F0.01518392562866211
sg32
I2
sg33
I5
sasS'total_cqs'
p47
I33
ssI6
(dp48
S'iters'
p49
I2
sS'meta'
p50
(lp51
(dp52
S'objective'
p53
I1
sS'query_time'
p54
F14.117197036743164
sS'comp_time'
p55
F0.006465911865234375
sS'exec_cq'
p56
I4
sS'total_cq'
p57
I5
sa(dp58
g53
I0
sg54
F5.888938903808594e-05
sg55
F0.0004127025604248047
sg56
I1
sg57
I2
sasS'total_cqs'
p59
I5
ssI8
(dp60
S'iters'
p61
I3
sS'meta'
p62
(lp63
(dp64
S'objective'
p65
I4
sS'query_time'
p66
F22.947070837020874
sS'comp_time'
p67
F0.3544013500213623
sS'exec_cq'
p68
I5
sS'total_cq'
p69
I6
sa(dp70
g65
I3
sg66
F41.616779804229736
sg67
F41.44740271568298
sg68
I4
sg69
I5
sa(dp71
g65
I2
sg66
F0.07969880104064941
sg67
F0.06960415840148926
sg68
I3
sg69
I4
sasS'total_cqs'
p72
I6
ssI9
(dp73
S'iters'
p74
I3
sS'meta'
p75
(lp76
(dp77
S'objective'
p78
I0
sS'query_time'
p79
F10.883277893066406
sS'comp_time'
p80
F0.4229447841644287
sS'exec_cq'
p81
I3
sS'total_cq'
p82
I6
sa(dp83
g78
I1
sg79
F0.04338479042053223
sg80
F0.3695640563964844
sg81
I3
sg82
I3
sa(dp84
g78
I0
sg79
F0.008556842803955078
sg80
F0.042761802673339844
sg81
I2
sg82
I2
sasS'total_cqs'
p85
I6
ssI13
(dp86
S'iters'
p87
I2
sS'meta'
p88
(lp89
(dp90
S'objective'
p91
I6
sS'query_time'
p92
F0.0168001651763916
sS'comp_time'
p93
F0.0077381134033203125
sS'exec_cq'
p94
I6
sS'total_cq'
p95
I8
sa(dp96
g91
I5
sg92
F2.3126602172851562e-05
sg93
F0.0001010894775390625
sg94
I5
sg95
I7
sasS'total_cqs'
p97
I8
ssI14
(dp98
S'iters'
p99
I1
sS'meta'
p100
(lp101
(dp102
S'objective'
p103
I3
sS'query_time'
p104
F1.0449202060699463
sS'comp_time'
p105
F0.007723808288574219
sS'exec_cq'
p106
I5
sS'total_cq'
p107
I5
sasS'total_cqs'
p108
I5
ssI16
(dp109
S'iters'
p110
I3
sS'meta'
p111
(lp112
(dp113
S'objective'
p114
I1
sS'query_time'
p115
F1.5471131801605225
sS'comp_time'
p116
F0.010770797729492188
sS'exec_cq'
p117
I4
sS'total_cq'
p118
I5
sa(dp119
g114
I1
sg115
F0.05299687385559082
sg116
F0.0005671977996826172
sg117
I1
sg118
I3
sa(dp120
g114
I0
sg115
F5.1975250244140625e-05
sg116
F0.00025963783264160156
sg117
I2
sg118
I2
sasS'total_cqs'
p121
I5
ssI18
(dp122
S'iters'
p123
I3
sS'meta'
p124
(lp125
(dp126
S'objective'
p127
I1
sS'query_time'
p128
F0.24506402015686035
sS'comp_time'
p129
F0.00360870361328125
sS'exec_cq'
p130
I4
sS'total_cq'
p131
I5
sa(dp132
g127
I1
sg128
F0.0463411808013916
sg129
F0.0003066062927246094
sg130
I1
sg131
I3
sa(dp133
g127
I0
sg128
F4.506111145019531e-05
sg129
F0.00018787384033203125
sg130
I2
sg131
I2
sasS'total_cqs'
p134
I5
ssI20
(dp135
S'iters'
p136
I6
sS'meta'
p137
(lp138
(dp139
S'objective'
p140
I8
sS'query_time'
p141
F7.531903028488159
sS'comp_time'
p142
F1.1777129173278809
sS'exec_cq'
p143
I6
sS'total_cq'
p144
I12
sa(dp145
g140
I6
sg141
F3.81269907951355
sg142
F0.5292503833770752
sg143
I4
sg144
I10
sa(dp146
g140
I4
sg141
F0.16075682640075684
sg142
F0.9851691722869873
sg143
I4
sg144
I8
sa(dp147
g140
I4
sg141
F2.288818359375e-05
sg142
F0.00015211105346679688
sg143
I2
sg144
I6
sa(dp148
g140
I3
sg141
F0.19887399673461914
sg142
F0.7651381492614746
sg143
I2
sg144
I5
sa(dp149
g140
I2
sg141
F0.09438896179199219
sg142
F0.0038862228393554688
sg143
I4
sg144
I4
sasS'total_cqs'
p150
I12
ssI21
(dp151
S'iters'
p152
I5
sS'meta'
p153
(lp154
(dp155
S'objective'
p156
I6
sS'query_time'
p157
F29.344420909881592
sS'comp_time'
p158
F0.252169132232666
sS'exec_cq'
p159
I8
sS'total_cq'
p160
I14
sa(dp161
g156
I2
sg157
F30.082659006118774
sg158
F2.7994778156280518
sg159
I4
sg160
I10
sa(dp162
g156
I2
sg157
F0.009348869323730469
sg158
F0.0641028881072998
sg159
I4
sg160
I6
sa(dp163
g156
I0
sg157
F0.0012860298156738281
sg158
F0.008807182312011719
sg159
I2
sg160
I4
sa(dp164
g156
I0
sg157
F0.01636195182800293
sg158
F0.00017714500427246094
sg159
I1
sg160
I2
sasS'total_cqs'
p165
I14
ssI22
(dp166
S'iters'
p167
I1
sS'meta'
p168
(lp169
(dp170
S'objective'
p171
I0
sS'query_time'
p172
F0.0035848617553710938
sS'comp_time'
p173
F0.0012922286987304688
sS'exec_cq'
p174
I1
sS'total_cq'
p175
I2
sasS'total_cqs'
p176
I2
ssI25
(dp177
S'iters'
p178
I4
sS'meta'
p179
(lp180
(dp181
S'objective'
p182
I3
sS'query_time'
p183
F44.40099501609802
sS'comp_time'
p184
F5.934115171432495
sS'exec_cq'
p185
I4
sS'total_cq'
p186
I7
sa(dp187
g182
I1
sg183
F5.365624904632568
sg184
F0.5472738742828369
sg185
I2
sg186
I5
sa(dp188
g182
I1
sg183
F0.10504317283630371
sg184
F0.1668260097503662
sg185
I2
sg186
I3
sa(dp189
g182
I0
sg183
F0.007877111434936523
sg184
F0.07315731048583984
sg185
I1
sg186
I2
sasS'total_cqs'
p190
I7
ssI26
(dp191
S'iters'
p192
I9
sS'meta'
p193
(lp194
(dp195
S'objective'
p196
I9
sS'query_time'
p197
F0.28701305389404297
sS'comp_time'
p198
F0.030307769775390625
sS'exec_cq'
p199
I4
sS'total_cq'
p200
I13
sa(dp201
g196
I9
sg197
F19.856536149978638
sg198
F4.748456716537476
sg199
I3
sg200
I11
sa(dp202
g196
I6
sg197
F0.015686988830566406
sg198
F0.00021791458129882812
sg199
I2
sg200
I10
sa(dp203
g196
I6
sg197
F0.0010509490966796875
sg198
F0.008811235427856445
sg199
I2
sg200
I8
sa(dp204
g196
I5
sg197
F0.0007319450378417969
sg198
F0.0036270618438720703
sg199
I2
sg200
I7
sa(dp205
g196
I2
sg197
F3.3512330055236816
sg198
F0.013194561004638672
sg199
I2
sg200
I6
sa(dp206
g196
I2
sg197
F0.00020813941955566406
sg198
F0.0013344287872314453
sg199
I1
sg200
I4
sa(dp207
g196
I1
sg197
F0.00020599365234375
sg198
F0.0014197826385498047
sg199
I1
sg200
I3
sa(dp208
g196
I0
sg197
F0.02990102767944336
sg198
F0.0014071464538574219
sg199
I1
sg200
I2
sasS'total_cqs'
p209
I13
ssI27
(dp210
S'iters'
p211
I1
sS'meta'
p212
(lp213
(dp214
S'objective'
p215
I0
sS'query_time'
p216
F0.18396592140197754
sS'comp_time'
p217
F0.0073909759521484375
sS'exec_cq'
p218
I1
sS'total_cq'
p219
I2
sasS'total_cqs'
p220
I2
ssI28
(dp221
S'iters'
p222
I4
sS'meta'
p223
(lp224
(dp225
S'objective'
p226
I8
sS'query_time'
p227
F1.5190701484680176
sS'comp_time'
p228
F0.11707305908203125
sS'exec_cq'
p229
I6
sS'total_cq'
p230
I14
sa(dp231
g226
I7
sg227
F0.0031430721282958984
sg228
F0.024770736694335938
sg229
I3
sg230
I11
sa(dp232
g226
I7
sg227
F0.005774974822998047
sg228
F0.00015306472778320312
sg229
I2
sg230
I9
sa(dp233
g226
I6
sg227
F0.0025110244750976562
sg228
F0.0001239776611328125
sg229
I1
sg230
I8
sasS'total_cqs'
p234
I14
ssI29
(dp235
S'iters'
p236
I1
sS'meta'
p237
(lp238
(dp239
S'objective'
p240
I0
sS'query_time'
p241
F0.009104013442993164
sS'comp_time'
p242
F0.0026159286499023438
sS'exec_cq'
p243
I2
sS'total_cq'
p244
I2
sasS'total_cqs'
p245
I2
ssI30
(dp246
S'iters'
p247
I1
sS'meta'
p248
(lp249
(dp250
S'objective'
p251
I0
sS'query_time'
p252
F0.3475198745727539
sS'comp_time'
p253
F0.005572319030761719
sS'exec_cq'
p254
I2
sS'total_cq'
p255
I2
sasS'total_cqs'
p256
I2
ssI31
(dp257
S'iters'
p258
I4
sS'meta'
p259
(lp260
(dp261
S'objective'
p262
I5
sS'query_time'
p263
F4.0702879428863525
sS'comp_time'
p264
F0.2362990379333496
sS'exec_cq'
p265
I4
sS'total_cq'
p266
I9
sa(dp267
g262
I1
sg263
F1.2566359043121338
sg264
F0.10696291923522949
sg265
I5
sg266
I7
sa(dp268
g262
I1
sg263
F0.00663304328918457
sg264
F0.032835960388183594
sg265
I3
sg266
I3
sa(dp269
g262
I0
sg263
F0.0027658939361572266
sg264
F0.016087055206298828
sg265
I2
sg266
I2
sasS'total_cqs'
p270
I9
ssI32
(dp271
S'iters'
p272
I3
sS'meta'
p273
(lp274
(dp275
S'objective'
p276
I1
sS'query_time'
p277
F17.728662967681885
sS'comp_time'
p278
F4.169292688369751
sS'exec_cq'
p279
I4
sS'total_cq'
p280
I7
sa(dp281
g276
I0
sg277
F1.0720901489257812
sg278
F0.02072906494140625
sg279
I2
sg280
I4
sa(dp282
g276
I0
sg277
F0.3284168243408203
sg278
F0.2899138927459717
sg279
I1
sg280
I2
sasS'total_cqs'
p283
I7
ssI33
(dp284
S'iters'
p285
I1
sS'meta'
p286
(lp287
(dp288
S'objective'
p289
I0
sS'query_time'
p290
F0.03605389595031738
sS'comp_time'
p291
F0.0017192363739013672
sS'exec_cq'
p292
I2
sS'total_cq'
p293
I2
sasS'total_cqs'
p294
I2
ssI35
(dp295
S'iters'
p296
I3
sS'meta'
p297
(lp298
(dp299
S'objective'
p300
I1
sS'query_time'
p301
F15.60326099395752
sS'comp_time'
p302
F0.35285115242004395
sS'exec_cq'
p303
I4
sS'total_cq'
p304
I5
sa(dp305
g300
I1
sg301
F0.11673402786254883
sg302
F0.06663799285888672
sg303
I2
sg304
I3
sa(dp306
g300
I0
sg301
F0.0006060600280761719
sg302
F0.0032889842987060547
sg303
I1
sg304
I2
sasS'total_cqs'
p307
I5
ssI37
(dp308
S'iters'
p309
I2
sS'meta'
p310
(lp311
(dp312
S'objective'
p313
I6
sS'query_time'
p314
F0.6472868919372559
sS'comp_time'
p315
F0.03078293800354004
sS'exec_cq'
p316
I4
sS'total_cq'
p317
I10
sa(dp318
g313
I0
sg314
F0.004055023193359375
sg315
F0.017748117446899414
sg316
I2
sg317
I2
sasS'total_cqs'
p319
I10
ssI40
(dp320
S'iters'
p321
I1
sS'meta'
p322
(lp323
(dp324
S'objective'
p325
I0
sS'query_time'
p326
F0.0035119056701660156
sS'comp_time'
p327
F0.0013427734375
sS'exec_cq'
p328
I1
sS'total_cq'
p329
I2
sasS'total_cqs'
p330
I2
ssI41
(dp331
S'iters'
p332
I3
sS'meta'
p333
(lp334
(dp335
S'objective'
p336
I2
sS'query_time'
p337
F10.572810888290405
sS'comp_time'
p338
F1.8006219863891602
sS'exec_cq'
p339
I3
sS'total_cq'
p340
I6
sa(dp341
g336
I0
sg337
F0.8125150203704834
sg338
F0.00421595573425293
sg339
I2
sg340
I4
sa(dp342
g336
I0
sg337
F0.0006189346313476562
sg338
F0.0036590099334716797
sg339
I2
sg340
I2
sasS'total_cqs'
p343
I6
ssI42
(dp344
S'iters'
p345
I1
sS'meta'
p346
(lp347
(dp348
S'objective'
p349
I0
sS'query_time'
p350
F0.01002192497253418
sS'comp_time'
p351
F0.0019118785858154297
sS'exec_cq'
p352
I1
sS'total_cq'
p353
I2
sasS'total_cqs'
p354
I2
ssI44
(dp355
S'iters'
p356
I3
sS'meta'
p357
(lp358
(dp359
S'objective'
p360
I3
sS'query_time'
p361
F1.300602912902832
sS'comp_time'
p362
F0.17716097831726074
sS'exec_cq'
p363
I2
sS'total_cq'
p364
I5
sa(dp365
g360
I0
sg361
F0.2820720672607422
sg362
F0.002123117446899414
sg363
I2
sg364
I4
sa(dp366
g360
I0
sg361
F9.512901306152344e-05
sg362
F0.0005199909210205078
sg363
I1
sg364
I2
sasS'total_cqs'
p367
I5
ssI45
(dp368
S'iters'
p369
I2
sS'meta'
p370
(lp371
(dp372
S'objective'
p373
I1
sS'query_time'
p374
F0.036689043045043945
sS'comp_time'
p375
F0.0037450790405273438
sS'exec_cq'
p376
I3
sS'total_cq'
p377
I5
sa(dp378
g373
I0
sg374
F0.00017404556274414062
sg375
F0.000713348388671875
sg376
I2
sg377
I2
sasS'total_cqs'
p379
I5
ssI48
(dp380
S'iters'
p381
I1
sS'meta'
p382
(lp383
(dp384
S'objective'
p385
I0
sS'query_time'
p386
F0.2241990566253662
sS'comp_time'
p387
F0.006119966506958008
sS'exec_cq'
p388
I2
sS'total_cq'
p389
I2
sasS'total_cqs'
p390
I2
ssI49
(dp391
S'iters'
p392
I2
sS'meta'
p393
(lp394
(dp395
S'objective'
p396
I1
sS'query_time'
p397
F0.2502009868621826
sS'comp_time'
p398
F0.006463766098022461
sS'exec_cq'
p399
I4
sS'total_cq'
p400
I5
sa(dp401
g396
I1
sg397
F3.0994415283203125e-05
sg398
F0.0002646446228027344
sg399
I2
sg400
I3
sasS'total_cqs'
p402
I5
ssI50
(dp403
S'iters'
p404
I2
sS'meta'
p405
(lp406
(dp407
S'objective'
p408
I3
sS'query_time'
p409
F0.8547959327697754
sS'comp_time'
p410
F0.05605888366699219
sS'exec_cq'
p411
I5
sS'total_cq'
p412
I5
sa(dp413
g408
I2
sg409
F0.0001499652862548828
sg410
F0.0009839534759521484
sg411
I4
sg412
I4
sasS'total_cqs'
p414
I5
ssI55
(dp415
S'iters'
p416
I1
sS'meta'
p417
(lp418
(dp419
S'objective'
p420
I0
sS'query_time'
p421
F24.934376001358032
sS'comp_time'
p422
F3.4544851779937744
sS'exec_cq'
p423
I2
sS'total_cq'
p424
I2
sasS'total_cqs'
p425
I2
ssI57
(dp426
S'iters'
p427
I1
sS'meta'
p428
(lp429
(dp430
S'objective'
p431
I1
sS'query_time'
p432
F12.347134113311768
sS'comp_time'
p433
F3.66660213470459
sS'exec_cq'
p434
I2
sS'total_cq'
p435
I3
sasS'total_cqs'
p436
I3
ssI116
(dp437
S'iters'
p438
I3
sS'meta'
p439
(lp440
(dp441
S'objective'
p442
I17
sS'query_time'
p443
F3.9771289825439453
sS'comp_time'
p444
F0.5160596370697021
sS'exec_cq'
p445
I15
sS'total_cq'
p446
I21
sa(dp447
g442
I15
sg443
F0.584169864654541
sg444
F0.0039560794830322266
sg445
I14
sg446
I19
sa(dp448
g442
I0
sg443
F0.0008361339569091797
sg444
F0.0033707618713378906
sg445
I2
sg446
I2
sasS'total_cqs'
p449
I21
ssI117
(dp450
S'iters'
p451
I2
sS'meta'
p452
(lp453
(dp454
S'objective'
p455
I3
sS'query_time'
p456
F0.0075490474700927734
sS'comp_time'
p457
F0.0022242069244384766
sS'exec_cq'
p458
I3
sS'total_cq'
p459
I5
sa(dp460
g455
I2
sg456
F0.001806020736694336
sg457
F8.893013000488281e-05
sg458
I3
sg459
I4
sasS'total_cqs'
p461
I5
ss.