(dp0
I1
(dp1
S'iters'
p2
I4
sS'meta'
p3
(lp4
(dp5
S'objective'
p6
I3
sS'query_time'
p7
F33.33363318443298
sS'comp_time'
p8
F2.329148054122925
sS'exec_cq'
p9
I2
sS'total_cq'
p10
I6
sa(dp11
g6
I2
sg7
F12.393165826797485
sg8
F0.681643009185791
sg9
I3
sg10
I4
sa(dp12
g6
I1
sg7
F0.16697096824645996
sg8
F0.674842119216919
sg9
I2
sg10
I3
sa(dp13
g6
I1
sg7
F0.16880202293395996
sg8
F0.6748571395874023
sg9
I2
sg10
I2
sasS'total_cqs'
p14
I6
ssI2
(dp15
S'iters'
p16
I1
sS'meta'
p17
(lp18
(dp19
S'objective'
p20
I19
sS'query_time'
p21
F0.8827798366546631
sS'comp_time'
p22
F0.21111369132995605
sS'exec_cq'
p23
I5
sS'total_cq'
p24
I6
sasS'total_cqs'
p25
I6
ssI3
(dp26
S'iters'
p27
I16
sS'meta'
p28
(lp29
(dp30
S'objective'
p31
I447
sS'query_time'
p32
F25.335989952087402
sS'comp_time'
p33
F0.5567810535430908
sS'exec_cq'
p34
I15
sS'total_cq'
p35
I33
sa(dp36
g31
I370
sg32
F0.37349414825439453
sg33
F0.01980423927307129
sg34
I13
sg35
I30
sa(dp37
g31
I327
sg32
F0.02793097496032715
sg33
F0.335193395614624
sg34
I12
sg35
I27
sa(dp38
g31
I250
sg32
F0.0037899017333984375
sg33
F0.019894123077392578
sg34
I10
sg35
I24
sa(dp39
g31
I208
sg32
F0.01101994514465332
sg33
F0.1414027214050293
sg34
I9
sg35
I21
sa(dp40
g31
I142
sg32
F0.002629995346069336
sg33
F0.015403985977172852
sg34
I7
sg35
I18
sa(dp41
g31
I114
sg32
F0.0021550655364990234
sg33
F0.013870716094970703
sg34
I6
sg35
I15
sa(dp42
g31
I44
sg32
F0.0026290416717529297
sg33
F0.015192270278930664
sg34
I4
sg35
I12
sa(dp43
g31
I57
sg32
F0.19708704948425293
sg33
F0.11728286743164062
sg34
I5
sg35
I10
sa(dp44
g31
I39
sg32
F0.00019311904907226562
sg33
F0.0011568069458007812
sg34
I3
sg35
I9
sa(dp45
g31
I35
sg32
F0.0025010108947753906
sg33
F0.019614696502685547
sg34
I4
sg35
I8
sa(dp46
g31
I9
sg32
F0.00015091896057128906
sg33
F0.0011110305786132812
sg34
I2
sg35
I7
sa(dp47
g31
I14
sg32
F0.002410888671875
sg33
F0.015419960021972656
sg34
I3
sg35
I6
sa(dp48
g31
I11
sg32
F1.7881393432617188e-05
sg33
F0.00011086463928222656
sg34
I2
sg35
I5
sa(dp49
g31
I8
sg32
F1.430511474609375e-05
sg33
F5.2928924560546875e-05
sg34
I2
sg35
I4
sa(dp50
g31
I10
sg32
F0.0024929046630859375
sg33
F0.014765501022338867
sg34
I2
sg35
I3
sasS'total_cqs'
p51
I33
ssI6
(dp52
S'iters'
p53
I3
sS'meta'
p54
(lp55
(dp56
S'objective'
p57
I1
sS'query_time'
p58
F13.667955160140991
sS'comp_time'
p59
F0.006575822830200195
sS'exec_cq'
p60
I4
sS'total_cq'
p61
I5
sa(dp62
g57
I0
sg58
F0.00025391578674316406
sg59
F0.0014982223510742188
sg60
I2
sg61
I3
sa(dp63
g57
I2
sg58
F0.0002238750457763672
sg59
F0.0015060901641845703
sg60
I2
sg61
I2
sasS'total_cqs'
p64
I5
ssI8
(dp65
S'iters'
p66
I4
sS'meta'
p67
(lp68
(dp69
S'objective'
p70
I9
sS'query_time'
p71
F22.747388124465942
sS'comp_time'
p72
F0.29256319999694824
sS'exec_cq'
p73
I5
sS'total_cq'
p74
I6
sa(dp75
g70
I5
sg71
F41.723016023635864
sg72
F41.47836899757385
sg73
I4
sg74
I5
sa(dp76
g70
I0
sg71
F0.12765288352966309
sg72
F0.125136137008667
sg73
I3
sg74
I4
sa(dp77
g70
I3
sg71
F0.0020058155059814453
sg72
F0.0016858577728271484
sg73
I1
sg74
I2
sasS'total_cqs'
p78
I6
ssI9
(dp79
S'iters'
p80
I3
sS'meta'
p81
(lp82
(dp83
S'objective'
p84
I1
sS'query_time'
p85
F11.040689945220947
sS'comp_time'
p86
F0.6294910907745361
sS'exec_cq'
p87
I3
sS'total_cq'
p88
I6
sa(dp89
g84
I0
sg85
F0.04488706588745117
sg86
F0.41352391242980957
sg87
I3
sg88
I3
sa(dp90
g84
I3
sg85
F0.042669057846069336
sg86
F0.41146183013916016
sg87
I2
sg88
I2
sasS'total_cqs'
p91
I6
ssI13
(dp92
S'iters'
p93
I2
sS'meta'
p94
(lp95
(dp96
S'objective'
p97
I24
sS'query_time'
p98
F0.025686025619506836
sS'comp_time'
p99
F0.007597684860229492
sS'exec_cq'
p100
I6
sS'total_cq'
p101
I8
sa(dp102
g97
I28
sg98
F3.504753112792969e-05
sg99
F0.00014281272888183594
sg100
I5
sg101
I7
sasS'total_cqs'
p103
I8
ssI14
(dp104
S'iters'
p105
I3
sS'meta'
p106
(lp107
(dp108
S'objective'
p109
I5
sS'query_time'
p110
F1.2323849201202393
sS'comp_time'
p111
F0.007865190505981445
sS'exec_cq'
p112
I5
sS'total_cq'
p113
I5
sa(dp114
g109
I4
sg110
F0.0004839897155761719
sg111
F0.003506183624267578
sg112
I4
sg113
I4
sa(dp115
g109
I5
sg110
F0.00045800209045410156
sg111
F0.0033788681030273438
sg112
I3
sg113
I3
sasS'total_cqs'
p116
I5
ssI16
(dp117
S'iters'
p118
I2
sS'meta'
p119
(lp120
(dp121
S'objective'
p122
I1
sS'query_time'
p123
F1.6071240901947021
sS'comp_time'
p124
F0.010667085647583008
sS'exec_cq'
p125
I4
sS'total_cq'
p126
I5
sa(dp127
g122
I5
sg123
F4.1961669921875e-05
sg124
F0.0003478527069091797
sg125
I2
sg126
I3
sasS'total_cqs'
p128
I5
ssI18
(dp129
S'iters'
p130
I3
sS'meta'
p131
(lp132
(dp133
S'objective'
p134
I1
sS'query_time'
p135
F0.22493410110473633
sS'comp_time'
p136
F0.0038619041442871094
sS'exec_cq'
p137
I4
sS'total_cq'
p138
I5
sa(dp139
g134
I1
sg135
F3.719329833984375e-05
sg136
F0.0002796649932861328
sg137
I2
sg138
I3
sa(dp140
g134
I1
sg135
F0.05594491958618164
sg136
F0.00018310546875
sg137
I1
sg138
I2
sasS'total_cqs'
p141
I5
ssI20
(dp142
S'iters'
p143
I6
sS'meta'
p144
(lp145
(dp146
S'objective'
p147
I36
sS'query_time'
p148
F4.234255790710449
sS'comp_time'
p149
F0.31597208976745605
sS'exec_cq'
p150
I4
sS'total_cq'
p151
I12
sa(dp152
g147
I31
sg148
F6.977740049362183
sg149
F1.1309378147125244
sg150
I6
sg151
I10
sa(dp153
g147
I22
sg148
F0.15105795860290527
sg149
F0.269960880279541
sg150
I2
sg151
I8
sa(dp154
g147
I11
sg148
F0.16177701950073242
sg149
F0.996751070022583
sg150
I4
sg151
I7
sa(dp155
g147
I12
sg148
F0.17037010192871094
sg149
F0.7156310081481934
sg150
I3
sg151
I5
sa(dp156
g147
I15
sg148
F0.09552645683288574
sg149
F0.0036211013793945312
sg150
I4
sg151
I4
sasS'total_cqs'
p157
I12
ssI21
(dp158
S'iters'
p159
I5
sS'meta'
p160
(lp161
(dp162
S'objective'
p163
I49
sS'query_time'
p164
F29.793356895446777
sS'comp_time'
p165
F0.3191502094268799
sS'exec_cq'
p166
I8
sS'total_cq'
p167
I14
sa(dp168
g163
I35
sg164
F0.009791851043701172
sg165
F0.06819415092468262
sg166
I4
sg167
I10
sa(dp169
g163
I8
sg164
F30.369250059127808
sg165
F2.2384800910949707
sg166
I4
sg167
I8
sa(dp170
g163
I2
sg164
F0.008625030517578125
sg165
F0.05433201789855957
sg166
I2
sg167
I4
sa(dp171
g163
I9
sg164
F0.015054941177368164
sg165
F0.00017499923706054688
sg166
I1
sg167
I2
sasS'total_cqs'
p172
I14
ssI22
(dp173
S'iters'
p174
I1
sS'meta'
p175
(lp176
(dp177
S'objective'
p178
I1
sS'query_time'
p179
F0.004647016525268555
sS'comp_time'
p180
F0.0015401840209960938
sS'exec_cq'
p181
I1
sS'total_cq'
p182
I2
sasS'total_cqs'
p183
I2
ssI25
(dp184
S'iters'
p185
I4
sS'meta'
p186
(lp187
(dp188
S'objective'
p189
I14
sS'query_time'
p190
F44.094135999679565
sS'comp_time'
p191
F4.82372522354126
sS'exec_cq'
p192
I4
sS'total_cq'
p193
I7
sa(dp194
g189
I3
sg190
F5.030642032623291
sg191
F0.5545368194580078
sg192
I2
sg193
I5
sa(dp195
g189
I3
sg190
F0.06509613990783691
sg191
F0.11383509635925293
sg192
I2
sg193
I3
sa(dp196
g189
I1
sg190
F0.007879972457885742
sg191
F0.04819631576538086
sg192
I1
sg193
I2
sasS'total_cqs'
p197
I7
ssI26
(dp198
S'iters'
p199
I9
sS'meta'
p200
(lp201
(dp202
S'objective'
p203
I63
sS'query_time'
p204
F0.2556498050689697
sS'comp_time'
p205
F0.02483391761779785
sS'exec_cq'
p206
I4
sS'total_cq'
p207
I13
sa(dp208
g203
I37
sg204
F4.468134880065918
sg205
F0.015670061111450195
sg206
I2
sg207
I11
sa(dp209
g203
I21
sg204
F0.012124061584472656
sg205
F0.0001556873321533203
sg206
I2
sg207
I9
sa(dp210
g203
I21
sg204
F19.35702610015869
sg205
F4.83641505241394
sg206
I3
sg207
I7
sa(dp211
g203
I8
sg204
F0.02696990966796875
sg205
F0.001573801040649414
sg206
I1
sg207
I6
sa(dp212
g203
I5
sg204
F0.0008380413055419922
sg205
F0.004647970199584961
sg206
I2
sg207
I5
sa(dp213
g203
I0
sg204
F0.0004658699035644531
sg205
F0.002760171890258789
sg206
I2
sg207
I4
sa(dp214
g203
I0
sg204
F0.00013899803161621094
sg205
F0.0010190010070800781
sg206
I1
sg207
I3
sa(dp215
g203
I1
sg204
F0.00016880035400390625
sg205
F0.001432180404663086
sg206
I1
sg207
I2
sasS'total_cqs'
p216
I13
ssI27
(dp217
S'iters'
p218
I1
sS'meta'
p219
(lp220
(dp221
S'objective'
p222
I1
sS'query_time'
p223
F0.17851686477661133
sS'comp_time'
p224
F0.0068662166595458984
sS'exec_cq'
p225
I1
sS'total_cq'
p226
I2
sasS'total_cqs'
p227
I2
ssI28
(dp228
S'iters'
p229
I10
sS'meta'
p230
(lp231
(dp232
S'objective'
p233
I71
sS'query_time'
p234
F1.5230441093444824
sS'comp_time'
p235
F0.09261322021484375
sS'exec_cq'
p236
I6
sS'total_cq'
p237
I14
sa(dp238
g233
I60
sg234
F0.004637002944946289
sg235
F0.0002155303955078125
sg236
I2
sg237
I11
sa(dp239
g233
I44
sg234
F0.0026311874389648438
sg235
F0.021165132522583008
sg236
I3
sg237
I10
sa(dp240
g233
I33
sg234
F0.01275491714477539
sg235
F0.0007579326629638672
sg236
I1
sg237
I8
sa(dp241
g233
I24
sg234
F0.015188932418823242
sg235
F0.0009472370147705078
sg236
I1
sg237
I7
sa(dp242
g233
I15
sg234
F0.004385948181152344
sg235
F9.584426879882812e-05
sg236
I1
sg237
I6
sa(dp243
g233
I7
sg234
F0.012826204299926758
sg235
F0.0007910728454589844
sg236
I1
sg237
I5
sa(dp244
g233
I4
sg234
F1.3828277587890625e-05
sg235
F8.511543273925781e-05
sg236
I1
sg237
I4
sa(dp245
g233
I0
sg234
F0.0033669471740722656
sg235
F0.016242027282714844
sg236
I1
sg237
I3
sa(dp246
g233
I3
sg234
F0.0032100677490234375
sg235
F0.00012302398681640625
sg236
I1
sg237
I2
sasS'total_cqs'
p247
I14
ssI29
(dp248
S'iters'
p249
I1
sS'meta'
p250
(lp251
(dp252
S'objective'
p253
I1
sS'query_time'
p254
F0.008137941360473633
sS'comp_time'
p255
F0.002498626708984375
sS'exec_cq'
p256
I2
sS'total_cq'
p257
I2
sasS'total_cqs'
p258
I2
ssI30
(dp259
S'iters'
p260
I1
sS'meta'
p261
(lp262
(dp263
S'objective'
p264
I1
sS'query_time'
p265
F0.3451821804046631
sS'comp_time'
p266
F0.0037546157836914062
sS'exec_cq'
p267
I2
sS'total_cq'
p268
I2
sasS'total_cqs'
p269
I2
ssI31
(dp270
S'iters'
p271
I6
sS'meta'
p272
(lp273
(dp274
S'objective'
p275
I15
sS'query_time'
p276
F3.9163081645965576
sS'comp_time'
p277
F0.17650270462036133
sS'exec_cq'
p278
I4
sS'total_cq'
p279
I9
sa(dp280
g275
I12
sg276
F1.2876501083374023
sg277
F0.0985252857208252
sg278
I5
sg279
I7
sa(dp281
g275
I1
sg276
F2.2172927856445312e-05
sg277
F0.00012063980102539062
sg278
I2
sg279
I6
sa(dp282
g275
I1
sg276
F0.006562948226928711
sg277
F0.03357863426208496
sg278
I4
sg279
I4
sa(dp283
g275
I0
sg276
F0.006281137466430664
sg277
F0.03414201736450195
sg278
I3
sg279
I3
sa(dp284
g275
I1
sg276
F0.006285905838012695
sg277
F0.03337526321411133
sg278
I2
sg279
I2
sasS'total_cqs'
p285
I9
ssI32
(dp286
S'iters'
p287
I3
sS'meta'
p288
(lp289
(dp290
S'objective'
p291
I4
sS'query_time'
p292
F18.044185161590576
sS'comp_time'
p293
F4.467113256454468
sS'exec_cq'
p294
I4
sS'total_cq'
p295
I7
sa(dp296
g291
I2
sg292
F1.1071832180023193
sg293
F0.022372961044311523
sg294
I2
sg295
I4
sa(dp297
g291
I5
sg292
F0.36254310607910156
sg293
F0.359799861907959
sg294
I1
sg295
I2
sasS'total_cqs'
p298
I7
ssI33
(dp299
S'iters'
p300
I1
sS'meta'
p301
(lp302
(dp303
S'objective'
p304
I1
sS'query_time'
p305
F0.0381929874420166
sS'comp_time'
p306
F0.0020797252655029297
sS'exec_cq'
p307
I2
sS'total_cq'
p308
I2
sasS'total_cqs'
p309
I2
ssI35
(dp310
S'iters'
p311
I3
sS'meta'
p312
(lp313
(dp314
S'objective'
p315
I1
sS'query_time'
p316
F15.137900114059448
sS'comp_time'
p317
F0.28305935859680176
sS'exec_cq'
p318
I4
sS'total_cq'
p319
I5
sa(dp320
g315
I2
sg316
F0.07862210273742676
sg317
F0.06507372856140137
sg318
I2
sg319
I3
sa(dp321
g315
I1
sg316
F0.0005400180816650391
sg317
F0.003476858139038086
sg318
I1
sg319
I2
sasS'total_cqs'
p322
I5
ssI37
(dp323
S'iters'
p324
I3
sS'meta'
p325
(lp326
(dp327
S'objective'
p328
I37
sS'query_time'
p329
F1.5487279891967773
sS'comp_time'
p330
F0.2941889762878418
sS'exec_cq'
p331
I4
sS'total_cq'
p332
I10
sa(dp333
g328
I24
sg329
F0.5404729843139648
sg330
F0.02056884765625
sg331
I4
sg332
I9
sa(dp334
g328
I9
sg329
F0.004107952117919922
sg330
F0.01867508888244629
sg331
I2
sg332
I2
sasS'total_cqs'
p335
I10
ssI40
(dp336
S'iters'
p337
I1
sS'meta'
p338
(lp339
(dp340
S'objective'
p341
I1
sS'query_time'
p342
F0.007064104080200195
sS'comp_time'
p343
F0.0011739730834960938
sS'exec_cq'
p344
I1
sS'total_cq'
p345
I2
sasS'total_cqs'
p346
I2
ssI41
(dp347
S'iters'
p348
I4
sS'meta'
p349
(lp350
(dp351
S'objective'
p352
I1
sS'query_time'
p353
F10.27338194847107
sS'comp_time'
p354
F1.8289439678192139
sS'exec_cq'
p355
I3
sS'total_cq'
p356
I6
sa(dp357
g352
I1
sg353
F0.0009560585021972656
sg354
F0.005140781402587891
sg355
I1
sg356
I4
sa(dp358
g352
I0
sg353
F0.8250401020050049
sg354
F0.0052149295806884766
sg355
I2
sg356
I3
sa(dp359
g352
I1
sg353
F0.001110076904296875
sg354
F0.0065288543701171875
sg355
I2
sg356
I2
sasS'total_cqs'
p360
I6
ssI42
(dp361
S'iters'
p362
I1
sS'meta'
p363
(lp364
(dp365
S'objective'
p366
I1
sS'query_time'
p367
F0.009242057800292969
sS'comp_time'
p368
F0.0014312267303466797
sS'exec_cq'
p369
I1
sS'total_cq'
p370
I2
sasS'total_cqs'
p371
I2
ssI44
(dp372
S'iters'
p373
I3
sS'meta'
p374
(lp375
(dp376
S'objective'
p377
I3
sS'query_time'
p378
F0.31166791915893555
sS'comp_time'
p379
F0.05889582633972168
sS'exec_cq'
p380
I2
sS'total_cq'
p381
I5
sa(dp382
g377
I0
sg378
F1.3260560035705566
sg379
F0.22082877159118652
sg380
I2
sg381
I3
sa(dp383
g377
I1
sg378
F8.606910705566406e-05
sg379
F0.0004889965057373047
sg380
I1
sg381
I2
sasS'total_cqs'
p384
I5
ssI45
(dp385
S'iters'
p386
I2
sS'meta'
p387
(lp388
(dp389
S'objective'
p390
I7
sS'query_time'
p391
F0.03898310661315918
sS'comp_time'
p392
F0.003050088882446289
sS'exec_cq'
p393
I3
sS'total_cq'
p394
I5
sa(dp395
g390
I2
sg391
F0.0001690387725830078
sg392
F0.0007102489471435547
sg393
I2
sg394
I2
sasS'total_cqs'
p396
I5
ssI48
(dp397
S'iters'
p398
I1
sS'meta'
p399
(lp400
(dp401
S'objective'
p402
I1
sS'query_time'
p403
F0.15008902549743652
sS'comp_time'
p404
F0.005052804946899414
sS'exec_cq'
p405
I2
sS'total_cq'
p406
I2
sasS'total_cqs'
p407
I2
ssI49
(dp408
S'iters'
p409
I2
sS'meta'
p410
(lp411
(dp412
S'objective'
p413
I1
sS'query_time'
p414
F0.26737499237060547
sS'comp_time'
p415
F0.00606226921081543
sS'exec_cq'
p416
I4
sS'total_cq'
p417
I5
sa(dp418
g413
I6
sg414
F2.9087066650390625e-05
sg415
F0.000263214111328125
sg416
I2
sg417
I3
sasS'total_cqs'
p419
I5
ssI50
(dp420
S'iters'
p421
I4
sS'meta'
p422
(lp423
(dp424
S'objective'
p425
I5
sS'query_time'
p426
F0.825275182723999
sS'comp_time'
p427
F0.06291007995605469
sS'exec_cq'
p428
I5
sS'total_cq'
p429
I5
sa(dp430
g425
I2
sg426
F0.00019502639770507812
sg427
F0.0014247894287109375
sg428
I4
sg429
I4
sa(dp431
g425
I0
sg426
F0.00017309188842773438
sg427
F0.0015671253204345703
sg428
I3
sg429
I3
sa(dp432
g425
I1
sg426
F0.00016689300537109375
sg427
F0.0010974407196044922
sg428
I2
sg429
I2
sasS'total_cqs'
p433
I5
ssI55
(dp434
S'iters'
p435
I1
sS'meta'
p436
(lp437
(dp438
S'objective'
p439
I1
sS'query_time'
p440
F24.451613903045654
sS'comp_time'
p441
F3.555725336074829
sS'exec_cq'
p442
I2
sS'total_cq'
p443
I2
sasS'total_cqs'
p444
I2
ssI57
(dp445
S'iters'
p446
I2
sS'meta'
p447
(lp448
(dp449
S'objective'
p450
I0
sS'query_time'
p451
F12.791446924209595
sS'comp_time'
p452
F2.597301721572876
sS'exec_cq'
p453
I2
sS'total_cq'
p454
I3
sa(dp455
g450
I1
sg451
F0.4832911491394043
sg452
F1.9254264831542969
sg453
I1
sg454
I2
sasS'total_cqs'
p456
I3
ssI116
(dp457
S'iters'
p458
I5
sS'meta'
p459
(lp460
(dp461
S'objective'
p462
I161
sS'query_time'
p463
F3.82796311378479
sS'comp_time'
p464
F0.651512861251831
sS'exec_cq'
p465
I15
sS'total_cq'
p466
I21
sa(dp467
g462
I170
sg463
F0.006376028060913086
sg464
F0.0025839805603027344
sg465
I15
sg466
I19
sa(dp468
g462
I161
sg463
F0.07911896705627441
sg464
F0.002191305160522461
sg465
I15
sg466
I18
sa(dp469
g462
I158
sg463
F0.5138723850250244
sg464
F0.0034127235412597656
sg465
I17
sg466
I17
sa(dp470
g462
I5
sg463
F0.0014870166778564453
sg464
F0.004716396331787109
sg465
I2
sg466
I2
sasS'total_cqs'
p471
I21
ssI117
(dp472
S'iters'
p473
I2
sS'meta'
p474
(lp475
(dp476
S'objective'
p477
I11
sS'query_time'
p478
F0.009521961212158203
sS'comp_time'
p479
F0.0015552043914794922
sS'exec_cq'
p480
I3
sS'total_cq'
p481
I5
sa(dp482
g477
I11
sg478
F0.006433248519897461
sg479
F0.0001571178436279297
sg480
I4
sg481
I4
sasS'total_cqs'
p483
I5
ss.