(dp0
I1
(dp1
S'iters'
p2
I2
sS'meta'
p3
(lp4
(dp5
S'objective'
p6
I7
sS'query_time'
p7
F5.20415997505188
sS'comp_time'
p8
F0.0001327991485595703
sS'exec_cq'
p9
I1
sS'total_cq'
p10
I6
sa(dp11
g6
I5
sg7
F455.99209809303284
sg8
F0.0001468658447265625
sg9
I1
sg10
I2
sasS'total_cqs'
p12
I6
ssI2
(dp13
S'iters'
p14
I1
sS'meta'
p15
(lp16
(dp17
S'objective'
p18
I9
sS'query_time'
p19
F0.6695160865783691
sS'comp_time'
p20
F6.580352783203125e-05
sS'exec_cq'
p21
I1
sS'total_cq'
p22
I6
sasS'total_cqs'
p23
I6
ssI3
(dp24
S'iters'
p25
I1
sS'meta'
p26
(lp27
(dp28
S'objective'
p29
I495
sS'query_time'
p30
F0.2451019287109375
sS'comp_time'
p31
F0.00011396408081054688
sS'exec_cq'
p32
I1
sS'total_cq'
p33
I33
sasS'total_cqs'
p34
I33
ssI4
(dp35
S'iters'
p36
I0
sS'meta'
p37
(lp38
sS'total_cqs'
p39
I1
ssI5
(dp40
S'iters'
p41
I0
sS'meta'
p42
(lp43
sS'total_cqs'
p44
I1
ssI6
(dp45
S'iters'
p46
I3
sS'meta'
p47
(lp48
(dp49
S'objective'
p50
I7
sS'query_time'
p51
F2.3553988933563232
sS'comp_time'
p52
F9.489059448242188e-05
sS'exec_cq'
p53
I1
sS'total_cq'
p54
I5
sa(dp55
g50
I3
sg51
F6.1789000034332275
sg52
F0.0001590251922607422
sg53
I1
sg54
I3
sa(dp56
g50
I3
sg51
F4.4169440269470215
sg52
F9.012222290039062e-05
sg53
I2
sg54
I2
sasS'total_cqs'
p57
I5
ssI7
(dp58
S'iters'
p59
I0
sS'meta'
p60
(lp61
sS'total_cqs'
p62
I1
ssI8
(dp63
S'iters'
p64
I2
sS'meta'
p65
(lp66
(dp67
S'objective'
p68
I1
sS'query_time'
p69
F43.208001136779785
sS'comp_time'
p70
F0.00032329559326171875
sS'exec_cq'
p71
I3
sS'total_cq'
p72
I6
sa(dp73
g68
I2
sg69
F0.01904892921447754
sg70
F5.0067901611328125e-05
sg71
I2
sg72
I2
sasS'total_cqs'
p74
I6
ssI9
(dp75
S'iters'
p76
I2
sS'meta'
p77
(lp78
(dp79
S'objective'
p80
I7
sS'query_time'
p81
F1.458914041519165
sS'comp_time'
p82
F8.0108642578125e-05
sS'exec_cq'
p83
I1
sS'total_cq'
p84
I6
sa(dp85
g80
I5
sg81
F0.004652976989746094
sg82
F4.410743713378906e-05
sg83
I1
sg84
I2
sasS'total_cqs'
p86
I6
ssI10
(dp87
S'iters'
p88
I0
sS'meta'
p89
(lp90
sS'total_cqs'
p91
I1
ssI11
(dp92
S'iters'
p93
I0
sS'meta'
p94
(lp95
sS'total_cqs'
p96
I1
ssI12
(dp97
S'iters'
p98
I0
sS'meta'
p99
(lp100
sS'total_cqs'
p101
I1
ssI13
(dp102
S'iters'
p103
I1
sS'meta'
p104
(lp105
(dp106
S'objective'
p107
I20
sS'query_time'
p108
F0.24048995971679688
sS'comp_time'
p109
F0.00011396408081054688
sS'exec_cq'
p110
I1
sS'total_cq'
p111
I8
sasS'total_cqs'
p112
I8
ssI14
(dp113
S'iters'
p114
I1
sS'meta'
p115
(lp116
(dp117
S'objective'
p118
I5
sS'query_time'
p119
F0.8566238880157471
sS'comp_time'
p120
F8.082389831542969e-05
sS'exec_cq'
p121
I1
sS'total_cq'
p122
I5
sasS'total_cqs'
p123
I5
ssI16
(dp124
S'iters'
p125
I2
sS'meta'
p126
(lp127
(dp128
S'objective'
p129
I1
sS'query_time'
p130
F2.6749558448791504
sS'comp_time'
p131
F0.00013589859008789062
sS'exec_cq'
p132
I1
sS'total_cq'
p133
I5
sa(dp134
g129
I2
sg130
F106.22959113121033
sg131
F8.392333984375e-05
sg132
I2
sg133
I2
sasS'total_cqs'
p135
I5
ssI17
(dp136
S'iters'
p137
I0
sS'meta'
p138
(lp139
sS'total_cqs'
p140
I1
ssI18
(dp141
S'iters'
p142
I2
sS'meta'
p143
(lp144
(dp145
S'objective'
p146
I1
sS'query_time'
p147
F0.343904972076416
sS'comp_time'
p148
F0.00010013580322265625
sS'exec_cq'
p149
I1
sS'total_cq'
p150
I5
sa(dp151
g146
I3
sg147
F0.2958688735961914
sg148
F0.00012993812561035156
sg149
I2
sg150
I2
sasS'total_cqs'
p152
I5
ssI19
(dp153
S'iters'
p154
I0
sS'meta'
p155
(lp156
sS'total_cqs'
p157
I1
ssI20
(dp158
S'iters'
p159
I1
sS'meta'
p160
(lp161
(dp162
S'objective'
p163
I54
sS'query_time'
p164
F0.1618819236755371
sS'comp_time'
p165
F0.00011610984802246094
sS'exec_cq'
p166
I1
sS'total_cq'
p167
I12
sasS'total_cqs'
p168
I12
ssI21
(dp169
S'iters'
p170
I1
sS'meta'
p171
(lp172
(dp173
S'objective'
p174
I77
sS'query_time'
p175
F0.03144717216491699
sS'comp_time'
p176
F0.00012111663818359375
sS'exec_cq'
p177
I1
sS'total_cq'
p178
I14
sasS'total_cqs'
p179
I14
ssI22
(dp180
S'iters'
p181
I1
sS'meta'
p182
(lp183
(dp184
S'objective'
p185
I1
sS'query_time'
p186
F0.004166841506958008
sS'comp_time'
p187
F7.62939453125e-05
sS'exec_cq'
p188
I1
sS'total_cq'
p189
I2
sasS'total_cqs'
p190
I2
ssI23
(dp191
S'iters'
p192
I0
sS'meta'
p193
(lp194
sS'total_cqs'
p195
I1
ssI24
(dp196
S'iters'
p197
I0
sS'meta'
p198
(lp199
sS'total_cqs'
p200
I1
ssI25
(dp201
S'iters'
p202
I1
sS'meta'
p203
(lp204
(dp205
S'objective'
p206
I14
sS'query_time'
p207
F0.3433229923248291
sS'comp_time'
p208
F7.891654968261719e-05
sS'exec_cq'
p209
I1
sS'total_cq'
p210
I7
sasS'total_cqs'
p211
I7
ssI26
(dp212
S'iters'
p213
I1
sS'meta'
p214
(lp215
(dp216
S'objective'
p217
I65
sS'query_time'
p218
F0.013910055160522461
sS'comp_time'
p219
F7.176399230957031e-05
sS'exec_cq'
p220
I1
sS'total_cq'
p221
I13
sasS'total_cqs'
p222
I13
ssI27
(dp223
S'iters'
p224
I1
sS'meta'
p225
(lp226
(dp227
S'objective'
p228
I1
sS'query_time'
p229
F0.14951491355895996
sS'comp_time'
p230
F8.106231689453125e-05
sS'exec_cq'
p231
I1
sS'total_cq'
p232
I2
sasS'total_cqs'
p233
I2
ssI28
(dp234
S'iters'
p235
I1
sS'meta'
p236
(lp237
(dp238
S'objective'
p239
I77
sS'query_time'
p240
F1.1470468044281006
sS'comp_time'
p241
F9.107589721679688e-05
sS'exec_cq'
p242
I1
sS'total_cq'
p243
I14
sasS'total_cqs'
p244
I14
ssI29
(dp245
S'iters'
p246
I1
sS'meta'
p247
(lp248
(dp249
S'objective'
p250
I1
sS'query_time'
p251
F0.0052568912506103516
sS'comp_time'
p252
F8.893013000488281e-05
sS'exec_cq'
p253
I1
sS'total_cq'
p254
I2
sasS'total_cqs'
p255
I2
ssI30
(dp256
S'iters'
p257
I1
sS'meta'
p258
(lp259
(dp260
S'objective'
p261
I1
sS'query_time'
p262
F0.3349919319152832
sS'comp_time'
p263
F6.914138793945312e-05
sS'exec_cq'
p264
I1
sS'total_cq'
p265
I2
sasS'total_cqs'
p266
I2
ssI31
(dp267
S'iters'
p268
I2
sS'meta'
p269
(lp270
(dp271
S'objective'
p272
I15
sS'query_time'
p273
F0.4627418518066406
sS'comp_time'
p274
F7.796287536621094e-05
sS'exec_cq'
p275
I1
sS'total_cq'
p276
I9
sa(dp277
g272
I3
sg273
F0.09183192253112793
sg274
F9.894371032714844e-05
sg275
I1
sg276
I2
sasS'total_cqs'
p278
I9
ssI32
(dp279
S'iters'
p280
I1
sS'meta'
p281
(lp282
(dp283
S'objective'
p284
I14
sS'query_time'
p285
F0.17447495460510254
sS'comp_time'
p286
F8.416175842285156e-05
sS'exec_cq'
p287
I1
sS'total_cq'
p288
I7
sasS'total_cqs'
p289
I7
ssI33
(dp290
S'iters'
p291
I1
sS'meta'
p292
(lp293
(dp294
S'objective'
p295
I1
sS'query_time'
p296
F0.03981614112854004
sS'comp_time'
p297
F8.0108642578125e-05
sS'exec_cq'
p298
I1
sS'total_cq'
p299
I2
sasS'total_cqs'
p300
I2
ssI34
(dp301
S'iters'
p302
I0
sS'meta'
p303
(lp304
sS'total_cqs'
p305
I1
ssI35
(dp306
S'iters'
p307
I2
sS'meta'
p308
(lp309
(dp310
S'objective'
p311
I1
sS'query_time'
p312
F2.1237170696258545
sS'comp_time'
p313
F9.703636169433594e-05
sS'exec_cq'
p314
I1
sS'total_cq'
p315
I5
sa(dp316
g311
I3
sg312
F1.9647278785705566
sg313
F0.0001049041748046875
sg314
I1
sg315
I2
sasS'total_cqs'
p317
I5
ssI37
(dp318
S'iters'
p319
I1
sS'meta'
p320
(lp321
(dp322
S'objective'
p323
I35
sS'query_time'
p324
F0.4432809352874756
sS'comp_time'
p325
F8.96453857421875e-05
sS'exec_cq'
p326
I1
sS'total_cq'
p327
I10
sasS'total_cqs'
p328
I10
ssI38
(dp329
S'iters'
p330
I0
sS'meta'
p331
(lp332
sS'total_cqs'
p333
I1
ssI39
(dp334
S'iters'
p335
I0
sS'meta'
p336
(lp337
sS'total_cqs'
p338
I1
ssI40
(dp339
S'iters'
p340
I1
sS'meta'
p341
(lp342
(dp343
S'objective'
p344
I1
sS'query_time'
p345
F14.98702096939087
sS'comp_time'
p346
F0.00017976760864257812
sS'exec_cq'
p347
I2
sS'total_cq'
p348
I2
sasS'total_cqs'
p349
I2
ssI41
(dp350
S'iters'
p351
I2
sS'meta'
p352
(lp353
(dp354
S'objective'
p355
I1
sS'query_time'
p356
F4.5059919357299805
sS'comp_time'
p357
F0.00013399124145507812
sS'exec_cq'
p358
I1
sS'total_cq'
p359
I6
sa(dp360
g355
I2
sg356
F67.1638731956482
sg357
F7.915496826171875e-05
sg358
I2
sg359
I2
sasS'total_cqs'
p361
I6
ssI42
(dp362
S'iters'
p363
I1
sS'meta'
p364
(lp365
(dp366
S'objective'
p367
I1
sS'query_time'
p368
F0.010541200637817383
sS'comp_time'
p369
F7.677078247070312e-05
sS'exec_cq'
p370
I1
sS'total_cq'
p371
I2
sasS'total_cqs'
p372
I2
ssI43
(dp373
S'iters'
p374
I0
sS'meta'
p375
(lp376
sS'total_cqs'
p377
I1
ssI44
(dp378
S'iters'
p379
I1
sS'meta'
p380
(lp381
(dp382
S'objective'
p383
I5
sS'query_time'
p384
F0.009984970092773438
sS'comp_time'
p385
F8.797645568847656e-05
sS'exec_cq'
p386
I1
sS'total_cq'
p387
I5
sasS'total_cqs'
p388
I5
ssI45
(dp389
S'iters'
p390
I2
sS'meta'
p391
(lp392
(dp393
S'objective'
p394
I3
sS'query_time'
p395
F0.03819894790649414
sS'comp_time'
p396
F9.107589721679688e-05
sS'exec_cq'
p397
I1
sS'total_cq'
p398
I5
sa(dp399
g394
I1
sg395
F0.5134170055389404
sg396
F8.106231689453125e-05
sg397
I2
sg398
I2
sasS'total_cqs'
p400
I5
ssI46
(dp401
S'iters'
p402
I0
sS'meta'
p403
(lp404
sS'total_cqs'
p405
I1
ssI47
(dp406
S'iters'
p407
I0
sS'meta'
p408
(lp409
sS'total_cqs'
p410
I1
ssI48
(dp411
S'iters'
p412
I1
sS'meta'
p413
(lp414
(dp415
S'objective'
p416
I1
sS'query_time'
p417
F0.10821199417114258
sS'comp_time'
p418
F7.295608520507812e-05
sS'exec_cq'
p419
I1
sS'total_cq'
p420
I2
sasS'total_cqs'
p421
I2
ssI49
(dp422
S'iters'
p423
I2
sS'meta'
p424
(lp425
(dp426
S'objective'
p427
I1
sS'query_time'
p428
F0.04640007019042969
sS'comp_time'
p429
F9.202957153320312e-05
sS'exec_cq'
p430
I1
sS'total_cq'
p431
I5
sa(dp432
g427
I3
sg428
F0.19964289665222168
sg429
F0.00011014938354492188
sg430
I1
sg431
I2
sasS'total_cqs'
p433
I5
ssI50
(dp434
S'iters'
p435
I1
sS'meta'
p436
(lp437
(dp438
S'objective'
p439
I5
sS'query_time'
p440
F0.7205300331115723
sS'comp_time'
p441
F0.00011515617370605469
sS'exec_cq'
p442
I1
sS'total_cq'
p443
I5
sasS'total_cqs'
p444
I5
ssI51
(dp445
S'iters'
p446
I0
sS'meta'
p447
(lp448
sS'total_cqs'
p449
I1
ssI52
(dp450
S'iters'
p451
I0
sS'meta'
p452
(lp453
sS'total_cqs'
p454
I1
ssI53
(dp455
S'iters'
p456
I0
sS'meta'
p457
(lp458
sS'total_cqs'
p459
I1
ssI55
(dp460
S'iters'
p461
I1
sS'meta'
p462
(lp463
(dp464
S'objective'
p465
I1
sS'query_time'
p466
F6.122289180755615
sS'comp_time'
p467
F0.00015115737915039062
sS'exec_cq'
p468
I1
sS'total_cq'
p469
I2
sasS'total_cqs'
p470
I2
ssI56
(dp471
S'iters'
p472
I0
sS'meta'
p473
(lp474
sS'total_cqs'
p475
I1
ssI57
(dp476
S'iters'
p477
I1
sS'meta'
p478
(lp479
(dp480
S'objective'
p481
I0
sS'query_time'
p482
F10.2883620262146
sS'comp_time'
p483
F0.000118255615234375
sS'exec_cq'
p484
I1
sS'total_cq'
p485
I3
sasS'total_cqs'
p486
I3
ssI108
(dp487
S'iters'
p488
I0
sS'meta'
p489
(lp490
sS'total_cqs'
p491
I1
ssI109
(dp492
S'iters'
p493
I0
sS'meta'
p494
(lp495
sS'total_cqs'
p496
I1
ssI116
(dp497
S'iters'
p498
I1
sS'meta'
p499
(lp500
(dp501
S'objective'
p502
I189
sS'query_time'
p503
F0.2610468864440918
sS'comp_time'
p504
F0.0001380443572998047
sS'exec_cq'
p505
I1
sS'total_cq'
p506
I21
sasS'total_cqs'
p507
I21
ssI117
(dp508
S'iters'
p509
I1
sS'meta'
p510
(lp511
(dp512
S'objective'
p513
I5
sS'query_time'
p514
F0.0036890506744384766
sS'comp_time'
p515
F4.792213439941406e-05
sS'exec_cq'
p516
I1
sS'total_cq'
p517
I5
sasS'total_cqs'
p518
I5
ssI118
(dp519
S'iters'
p520
I0
sS'meta'
p521
(lp522
sS'total_cqs'
p523
I1
ssI122
(dp524
S'iters'
p525
I0
sS'meta'
p526
(lp527
sS'total_cqs'
p528
I1
ss.