(dp0
I1
(dp1
S'iters'
p2
I4
sS'meta'
p3
(lp4
(dp5
S'objective'
p6
I1
sS'query_time'
p7
F16.301767110824585
sS'comp_time'
p8
F0.24325037002563477
sS'exec_cq'
p9
I3
sS'total_cq'
p10
I6
sa(dp11
g6
I4
sg7
F56.90168309211731
sg8
F0.9527301788330078
sg9
I3
sg10
I4
sa(dp12
g6
I1
sg7
F0.0018448829650878906
sg8
F4.696846008300781e-05
sg9
I1
sg10
I3
sa(dp13
g6
I1
sg7
F0.0012080669403076172
sg8
F1.8835067749023438e-05
sg9
I1
sg10
I2
sasS'total_cqs'
p14
I6
ssI2
(dp15
S'iters'
p16
I1
sS'meta'
p17
(lp18
(dp19
S'objective'
p20
I19
sS'query_time'
p21
F1.0624711513519287
sS'comp_time'
p22
F0.03393220901489258
sS'exec_cq'
p23
I6
sS'total_cq'
p24
I6
sasS'total_cqs'
p25
I6
ssI3
(dp26
S'iters'
p27
I17
sS'meta'
p28
(lp29
(dp30
S'objective'
p31
I417
sS'query_time'
p32
F26.327994108200073
sS'comp_time'
p33
F0.24101591110229492
sS'exec_cq'
p34
I33
sS'total_cq'
p35
I33
sa(dp36
g31
I371
sg32
F0.022709131240844727
sg33
F0.11384987831115723
sg34
I30
sg35
I30
sa(dp37
g31
I316
sg32
F0.02080535888671875
sg33
F0.11585521697998047
sg34
I27
sg35
I27
sa(dp38
g31
I263
sg32
F0.010727882385253906
sg33
F0.07612395286560059
sg34
I24
sg35
I24
sa(dp39
g31
I210
sg32
F0.008528947830200195
sg33
F0.01726698875427246
sg34
I21
sg35
I21
sa(dp40
g31
I172
sg32
F0.005733013153076172
sg33
F0.010942220687866211
sg34
I14
sg35
I18
sa(dp41
g31
I152
sg32
F0.0028209686279296875
sg33
F0.05953693389892578
sg34
I11
sg35
I15
sa(dp42
g31
I123
sg32
F0.002994060516357422
sg33
F0.006735801696777344
sg34
I10
sg35
I14
sa(dp43
g31
I110
sg32
F0.005334138870239258
sg33
F0.01051640510559082
sg34
I13
sg35
I13
sa(dp44
g31
I88
sg32
F0.004971742630004883
sg33
F0.010091066360473633
sg34
I12
sg35
I12
sa(dp45
g31
I70
sg32
F0.0023870468139648438
sg33
F0.004427433013916016
sg34
I8
sg35
I10
sa(dp46
g31
I54
sg32
F0.002287149429321289
sg33
F0.0034868717193603516
sg34
I7
sg35
I9
sa(dp47
g31
I42
sg32
F0.002022981643676758
sg33
F0.001950979232788086
sg34
I6
sg35
I8
sa(dp48
g31
I49
sg32
F0.0021469593048095703
sg33
F0.003894805908203125
sg34
I7
sg35
I7
sa(dp49
g31
I31
sg32
F29.044230937957764
sg33
F0.0001499652862548828
sg34
I4
sg35
I6
sa(dp50
g31
I22
sg32
F0.036073923110961914
sg33
F0.00014591217041015625
sg34
I3
sg35
I5
sa(dp51
g31
I30
sg32
F0.005908012390136719
sg33
F0.0176849365234375
sg34
I3
sg35
I3
sasS'total_cqs'
p52
I33
ssI4
(dp53
S'iters'
p54
I0
sS'meta'
p55
(lp56
sS'total_cqs'
p57
I1
ssI5
(dp58
S'iters'
p59
I0
sS'meta'
p60
(lp61
sS'total_cqs'
p62
I1
ssI6
(dp63
S'iters'
p64
I3
sS'meta'
p65
(lp66
(dp67
S'objective'
p68
I1
sS'query_time'
p69
F14.480239152908325
sS'comp_time'
p70
F0.004050016403198242
sS'exec_cq'
p71
I4
sS'total_cq'
p72
I5
sa(dp73
g68
I1
sg69
F0.00026488304138183594
sg70
F0.00039649009704589844
sg71
I2
sg72
I3
sa(dp74
g68
I1
sg69
F5.4836273193359375e-05
sg70
F4.887580871582031e-05
sg71
I1
sg72
I2
sasS'total_cqs'
p75
I5
ssI7
(dp76
S'iters'
p77
I0
sS'meta'
p78
(lp79
sS'total_cqs'
p80
I1
ssI8
(dp81
S'iters'
p82
I5
sS'meta'
p83
(lp84
(dp85
S'objective'
p86
I11
sS'query_time'
p87
F23.393510103225708
sS'comp_time'
p88
F0.0777134895324707
sS'exec_cq'
p89
I5
sS'total_cq'
p90
I6
sa(dp91
g86
I4
sg87
F1.6332480907440186
sg88
F0.0001289844512939453
sg89
I4
sg90
I5
sa(dp92
g86
I2
sg87
F21.638022899627686
sg88
F0.0001571178436279297
sg89
I3
sg90
I4
sa(dp93
g86
I0
sg87
F0.0034227371215820312
sg88
F0.000125885009765625
sg89
I2
sg90
I3
sa(dp94
g86
I1
sg87
F0.001439809799194336
sg88
F4.291534423828125e-05
sg89
I1
sg90
I2
sasS'total_cqs'
p95
I6
ssI9
(dp96
S'iters'
p97
I3
sS'meta'
p98
(lp99
(dp100
S'objective'
p101
I1
sS'query_time'
p102
F11.759172916412354
sS'comp_time'
p103
F0.06588411331176758
sS'exec_cq'
p104
I3
sS'total_cq'
p105
I6
sa(dp106
g101
I1
sg102
F0.05987691879272461
sg103
F0.2761518955230713
sg104
I3
sg105
I3
sa(dp107
g101
I3
sg102
F0.020925045013427734
sg103
F0.02863907814025879
sg104
I2
sg105
I2
sasS'total_cqs'
p108
I6
ssI10
(dp109
S'iters'
p110
I0
sS'meta'
p111
(lp112
sS'total_cqs'
p113
I1
ssI11
(dp114
S'iters'
p115
I0
sS'meta'
p116
(lp117
sS'total_cqs'
p118
I1
ssI12
(dp119
S'iters'
p120
I0
sS'meta'
p121
(lp122
sS'total_cqs'
p123
I1
ssI13
(dp124
S'iters'
p125
I2
sS'meta'
p126
(lp127
(dp128
S'objective'
p129
I32
sS'query_time'
p130
F0.03496217727661133
sS'comp_time'
p131
F0.010032415390014648
sS'exec_cq'
p132
I8
sS'total_cq'
p133
I8
sa(dp134
g129
I32
sg130
F5.698204040527344e-05
sg131
F0.00011372566223144531
sg132
I7
sg133
I7
sasS'total_cqs'
p135
I8
ssI14
(dp136
S'iters'
p137
I3
sS'meta'
p138
(lp139
(dp140
S'objective'
p141
I5
sS'query_time'
p142
F1.1981451511383057
sS'comp_time'
p143
F0.004312038421630859
sS'exec_cq'
p144
I5
sS'total_cq'
p145
I5
sa(dp146
g141
I2
sg142
F0.0005810260772705078
sg143
F0.0009119510650634766
sg144
I4
sg145
I4
sa(dp147
g141
I4
sg142
F0.0005030632019042969
sg143
F0.0009589195251464844
sg144
I3
sg145
I3
sasS'total_cqs'
p148
I5
ssI16
(dp149
S'iters'
p150
I3
sS'meta'
p151
(lp152
(dp153
S'objective'
p154
I3
sS'query_time'
p155
F1.416888952255249
sS'comp_time'
p156
F0.005755186080932617
sS'exec_cq'
p157
I4
sS'total_cq'
p158
I5
sa(dp159
g154
I0
sg155
F0.043148040771484375
sg156
F0.0001800060272216797
sg157
I1
sg158
I3
sa(dp160
g154
I1
sg155
F7.104873657226562e-05
sg156
F0.00013399124145507812
sg157
I2
sg158
I2
sasS'total_cqs'
p161
I5
ssI17
(dp162
S'iters'
p163
I0
sS'meta'
p164
(lp165
sS'total_cqs'
p166
I1
ssI18
(dp167
S'iters'
p168
I3
sS'meta'
p169
(lp170
(dp171
S'objective'
p172
I1
sS'query_time'
p173
F0.21465396881103516
sS'comp_time'
p174
F0.00477290153503418
sS'exec_cq'
p175
I4
sS'total_cq'
p176
I5
sa(dp177
g172
I0
sg173
F3.600120544433594e-05
sg174
F0.00020384788513183594
sg175
I2
sg176
I3
sa(dp178
g172
I2
sg173
F0.06183290481567383
sg174
F3.790855407714844e-05
sg175
I1
sg176
I2
sasS'total_cqs'
p179
I5
ssI19
(dp180
S'iters'
p181
I0
sS'meta'
p182
(lp183
sS'total_cqs'
p184
I1
ssI20
(dp185
S'iters'
p186
I6
sS'meta'
p187
(lp188
(dp189
S'objective'
p190
I44
sS'query_time'
p191
F13.712769985198975
sS'comp_time'
p192
F0.6993393898010254
sS'exec_cq'
p193
I10
sS'total_cq'
p194
I12
sa(dp195
g190
I31
sg191
F0.17914605140686035
sg192
F0.2967052459716797
sg193
I6
sg194
I10
sa(dp196
g190
I24
sg191
F0.15565800666809082
sg192
F0.3633460998535156
sg193
I4
sg194
I8
sa(dp197
g190
I15
sg191
F0.06311202049255371
sg192
F0.23489618301391602
sg193
I2
sg194
I6
sa(dp198
g190
I21
sg191
F0.030299663543701172
sg192
F0.16154050827026367
sg193
I4
sg194
I5
sa(dp199
g190
I21
sg191
F0.09176921844482422
sg192
F0.0003654956817626953
sg193
I4
sg194
I4
sasS'total_cqs'
p200
I12
ssI21
(dp201
S'iters'
p202
I10
sS'meta'
p203
(lp204
(dp205
S'objective'
p206
I51
sS'query_time'
p207
F62.261237144470215
sS'comp_time'
p208
F0.7217350006103516
sS'exec_cq'
p209
I12
sS'total_cq'
p210
I14
sa(dp211
g206
I46
sg207
F0.0890350341796875
sg208
F0.054429054260253906
sg209
I8
sg210
I11
sa(dp212
g206
I34
sg207
F0.009898900985717773
sg208
F0.019076824188232422
sg209
I6
sg210
I9
sa(dp213
g206
I30
sg207
F0.26563382148742676
sg208
F0.004853725433349609
sg209
I6
sg210
I8
sa(dp214
g206
I29
sg207
F0.0011019706726074219
sg208
F0.0015149116516113281
sg209
I5
sg210
I7
sa(dp215
g206
I8
sg207
F0.005541324615478516
sg208
F9.870529174804688e-05
sg209
I4
sg210
I6
sa(dp216
g206
I5
sg207
F0.002241849899291992
sg208
F7.534027099609375e-05
sg209
I3
sg210
I5
sa(dp217
g206
I1
sg207
F0.0016329288482666016
sg208
F8.20159912109375e-05
sg209
I2
sg210
I4
sa(dp218
g206
I0
sg207
F0.000965118408203125
sg208
F2.9802322387695312e-05
sg209
I1
sg210
I3
sa(dp219
g206
I1
sg207
F0.0009748935699462891
sg208
F2.574920654296875e-05
sg209
I1
sg210
I2
sasS'total_cqs'
p220
I14
ssI22
(dp221
S'iters'
p222
I1
sS'meta'
p223
(lp224
(dp225
S'objective'
p226
I1
sS'query_time'
p227
F0.008392810821533203
sS'comp_time'
p228
F0.0013909339904785156
sS'exec_cq'
p229
I1
sS'total_cq'
p230
I2
sasS'total_cqs'
p231
I2
ssI23
(dp232
S'iters'
p233
I0
sS'meta'
p234
(lp235
sS'total_cqs'
p236
I1
ssI24
(dp237
S'iters'
p238
I0
sS'meta'
p239
(lp240
sS'total_cqs'
p241
I1
ssI25
(dp242
S'iters'
p243
I4
sS'meta'
p244
(lp245
(dp246
S'objective'
p247
I2
sS'query_time'
p248
F48.61162304878235
sS'comp_time'
p249
F2.081118583679199
sS'exec_cq'
p250
I4
sS'total_cq'
p251
I7
sa(dp252
g247
I1
sg248
F4.887727975845337
sg249
F0.023724079132080078
sg250
I2
sg251
I5
sa(dp253
g247
I1
sg248
F0.07631421089172363
sg249
F0.0001804828643798828
sg250
I2
sg251
I3
sa(dp254
g247
I1
sg248
F0.007425069808959961
sg249
F5.5789947509765625e-05
sg250
I1
sg251
I2
sasS'total_cqs'
p255
I7
ssI26
(dp256
S'iters'
p257
I9
sS'meta'
p258
(lp259
(dp260
S'objective'
p261
I41
sS'query_time'
p262
F5.228132009506226
sS'comp_time'
p263
F0.01575303077697754
sS'exec_cq'
p264
I2
sS'total_cq'
p265
I13
sa(dp266
g261
I34
sg262
F21.940448999404907
sg263
F1.8445937633514404
sg264
I9
sg265
I11
sa(dp267
g261
I22
sg262
F0.9149401187896729
sg263
F3.1915950775146484
sg264
I7
sg265
I9
sa(dp268
g261
I14
sg262
F0.8210241794586182
sg263
F2.585824728012085
sg264
I3
sg265
I7
sa(dp269
g261
I9
sg262
F1.398033857345581
sg263
F3.8352856636047363
sg264
I4
sg265
I6
sa(dp270
g261
I3
sg262
F0.0012080669403076172
sg263
F0.0011610984802246094
sg264
I2
sg265
I5
sa(dp271
g261
I2
sg262
F0.0003120899200439453
sg263
F0.00011587142944335938
sg264
I1
sg265
I4
sa(dp272
g261
I0
sg262
F0.030674219131469727
sg263
F0.0001270771026611328
sg264
I1
sg265
I3
sa(dp273
g261
I1
sg262
F0.0002009868621826172
sg263
F0.00011396408081054688
sg264
I1
sg265
I2
sasS'total_cqs'
p274
I13
ssI27
(dp275
S'iters'
p276
I1
sS'meta'
p277
(lp278
(dp279
S'objective'
p280
I1
sS'query_time'
p281
F0.3072648048400879
sS'comp_time'
p282
F0.001983165740966797
sS'exec_cq'
p283
I1
sS'total_cq'
p284
I2
sasS'total_cqs'
p285
I2
ssI28
(dp286
S'iters'
p287
I10
sS'meta'
p288
(lp289
(dp290
S'objective'
p291
I55
sS'query_time'
p292
F1.5624279975891113
sS'comp_time'
p293
F0.07948994636535645
sS'exec_cq'
p294
I6
sS'total_cq'
p295
I14
sa(dp296
g291
I44
sg292
F0.003103971481323242
sg293
F0.005839824676513672
sg294
I4
sg295
I12
sa(dp297
g291
I34
sg292
F0.024731874465942383
sg293
F0.00019598007202148438
sg294
I3
sg295
I9
sa(dp298
g291
I28
sg292
F3.2901763916015625e-05
sg293
F0.00012493133544921875
sg294
I2
sg295
I8
sa(dp299
g291
I20
sg292
F0.04307413101196289
sg293
F0.00017333030700683594
sg294
I1
sg295
I7
sa(dp300
g291
I13
sg292
F0.03323817253112793
sg293
F0.00014209747314453125
sg294
I1
sg295
I6
sa(dp301
g291
I7
sg292
F0.047849178314208984
sg293
F5.91278076171875e-05
sg294
I1
sg295
I5
sa(dp302
g291
I2
sg292
F0.00019884109497070312
sg293
F9.584426879882812e-05
sg294
I1
sg295
I4
sa(dp303
g291
I0
sg292
F1.3113021850585938e-05
sg293
F2.5987625122070312e-05
sg294
I1
sg295
I3
sa(dp304
g291
I2
sg292
F0.03597092628479004
sg293
F3.075599670410156e-05
sg294
I1
sg295
I2
sasS'total_cqs'
p305
I14
ssI29
(dp306
S'iters'
p307
I1
sS'meta'
p308
(lp309
(dp310
S'objective'
p311
I1
sS'query_time'
p312
F0.04018092155456543
sS'comp_time'
p313
F0.01078486442565918
sS'exec_cq'
p314
I2
sS'total_cq'
p315
I2
sasS'total_cqs'
p316
I2
ssI30
(dp317
S'iters'
p318
I1
sS'meta'
p319
(lp320
(dp321
S'objective'
p322
I1
sS'query_time'
p323
F0.3444101810455322
sS'comp_time'
p324
F0.0024247169494628906
sS'exec_cq'
p325
I2
sS'total_cq'
p326
I2
sasS'total_cqs'
p327
I2
ssI31
(dp328
S'iters'
p329
I5
sS'meta'
p330
(lp331
(dp332
S'objective'
p333
I19
sS'query_time'
p334
F5.7875988483428955
sS'comp_time'
p335
F0.07954287528991699
sS'exec_cq'
p336
I9
sS'total_cq'
p337
I9
sa(dp338
g333
I8
sg334
F0.04397010803222656
sg335
F0.1169741153717041
sg336
I7
sg337
I7
sa(dp339
g333
I2
sg334
F0.009989023208618164
sg335
F0.014749288558959961
sg336
I5
sg337
I5
sa(dp340
g333
I3
sg334
F0.0041790008544921875
sg335
F0.005406856536865234
sg336
I3
sg337
I3
sa(dp341
g333
I1
sg334
F0.0035409927368164062
sg335
F0.005994081497192383
sg336
I2
sg337
I2
sasS'total_cqs'
p342
I9
ssI32
(dp343
S'iters'
p344
I3
sS'meta'
p345
(lp346
(dp347
S'objective'
p348
I0
sS'query_time'
p349
F20.70101499557495
sS'comp_time'
p350
F1.9886677265167236
sS'exec_cq'
p351
I4
sS'total_cq'
p352
I7
sa(dp353
g348
I0
sg349
F1.1224660873413086
sg350
F0.0029261112213134766
sg351
I2
sg352
I4
sa(dp354
g348
I5
sg349
F0.02936410903930664
sg350
F0.0221102237701416
sg351
I1
sg352
I2
sasS'total_cqs'
p355
I7
ssI33
(dp356
S'iters'
p357
I1
sS'meta'
p358
(lp359
(dp360
S'objective'
p361
I1
sS'query_time'
p362
F0.034947872161865234
sS'comp_time'
p363
F0.0019097328186035156
sS'exec_cq'
p364
I2
sS'total_cq'
p365
I2
sasS'total_cqs'
p366
I2
ssI34
(dp367
S'iters'
p368
I0
sS'meta'
p369
(lp370
sS'total_cqs'
p371
I1
ssI35
(dp372
S'iters'
p373
I3
sS'meta'
p374
(lp375
(dp376
S'objective'
p377
I1
sS'query_time'
p378
F13.199825048446655
sS'comp_time'
p379
F0.0755150318145752
sS'exec_cq'
p380
I4
sS'total_cq'
p381
I5
sa(dp382
g377
I2
sg378
F0.01468801498413086
sg379
F0.07484936714172363
sg380
I2
sg381
I3
sa(dp383
g377
I1
sg378
F0.013592958450317383
sg379
F0.029022932052612305
sg380
I2
sg381
I2
sasS'total_cqs'
p384
I5
ssI37
(dp385
S'iters'
p386
I2
sS'meta'
p387
(lp388
(dp389
S'objective'
p390
I33
sS'query_time'
p391
F1.8749210834503174
sS'comp_time'
p392
F0.04218602180480957
sS'exec_cq'
p393
I8
sS'total_cq'
p394
I10
sa(dp395
g390
I9
sg391
F0.004387855529785156
sg392
F0.06859421730041504
sg393
I2
sg394
I2
sasS'total_cqs'
p396
I10
ssI38
(dp397
S'iters'
p398
I0
sS'meta'
p399
(lp400
sS'total_cqs'
p401
I1
ssI39
(dp402
S'iters'
p403
I0
sS'meta'
p404
(lp405
sS'total_cqs'
p406
I1
ssI40
(dp407
S'iters'
p408
I1
sS'meta'
p409
(lp410
(dp411
S'objective'
p412
I1
sS'query_time'
p413
F0.004058837890625
sS'comp_time'
p414
F0.0011508464813232422
sS'exec_cq'
p415
I1
sS'total_cq'
p416
I2
sasS'total_cqs'
p417
I2
ssI41
(dp418
S'iters'
p419
I4
sS'meta'
p420
(lp421
(dp422
S'objective'
p423
I3
sS'query_time'
p424
F10.329948902130127
sS'comp_time'
p425
F0.7618539333343506
sS'exec_cq'
p426
I3
sS'total_cq'
p427
I6
sa(dp428
g423
I2
sg424
F0.0010390281677246094
sg425
F0.0004038810729980469
sg426
I1
sg427
I4
sa(dp429
g423
I1
sg424
F0.7122697830200195
sg425
F0.0006630420684814453
sg426
I2
sg427
I3
sa(dp430
g423
I1
sg424
F0.0007550716400146484
sg425
F0.0009350776672363281
sg426
I2
sg427
I2
sasS'total_cqs'
p431
I6
ssI42
(dp432
S'iters'
p433
I1
sS'meta'
p434
(lp435
(dp436
S'objective'
p437
I1
sS'query_time'
p438
F0.010601997375488281
sS'comp_time'
p439
F0.0012590885162353516
sS'exec_cq'
p440
I1
sS'total_cq'
p441
I2
sasS'total_cqs'
p442
I2
ssI43
(dp443
S'iters'
p444
I0
sS'meta'
p445
(lp446
sS'total_cqs'
p447
I1
ssI44
(dp448
S'iters'
p449
I3
sS'meta'
p450
(lp451
(dp452
S'objective'
p453
I1
sS'query_time'
p454
F1.5462658405303955
sS'comp_time'
p455
F0.15295171737670898
sS'exec_cq'
p456
I4
sS'total_cq'
p457
I5
sa(dp458
g453
I2
sg454
F0.024487018585205078
sg455
F0.04090380668640137
sg456
I2
sg457
I3
sa(dp459
g453
I1
sg454
F0.021566152572631836
sg455
F0.01584911346435547
sg456
I1
sg457
I2
sasS'total_cqs'
p460
I5
ssI45
(dp461
S'iters'
p462
I2
sS'meta'
p463
(lp464
(dp465
S'objective'
p466
I3
sS'query_time'
p467
F0.054718971252441406
sS'comp_time'
p468
F0.004716396331787109
sS'exec_cq'
p469
I3
sS'total_cq'
p470
I5
sa(dp471
g466
I4
sg467
F0.00017023086547851562
sg468
F0.00023317337036132812
sg469
I2
sg470
I2
sasS'total_cqs'
p472
I5
ssI46
(dp473
S'iters'
p474
I0
sS'meta'
p475
(lp476
sS'total_cqs'
p477
I1
ssI47
(dp478
S'iters'
p479
I0
sS'meta'
p480
(lp481
sS'total_cqs'
p482
I1
ssI48
(dp483
S'iters'
p484
I1
sS'meta'
p485
(lp486
(dp487
S'objective'
p488
I1
sS'query_time'
p489
F0.15195298194885254
sS'comp_time'
p490
F0.0022606849670410156
sS'exec_cq'
p491
I2
sS'total_cq'
p492
I2
sasS'total_cqs'
p493
I2
ssI49
(dp494
S'iters'
p495
I3
sS'meta'
p496
(lp497
(dp498
S'objective'
p499
I3
sS'query_time'
p500
F0.2525980472564697
sS'comp_time'
p501
F0.00407099723815918
sS'exec_cq'
p502
I4
sS'total_cq'
p503
I5
sa(dp504
g499
I0
sg500
F0.0011928081512451172
sg501
F0.0009982585906982422
sg502
I3
sg503
I3
sa(dp505
g499
I1
sg500
F0.00032901763916015625
sg501
F0.0005578994750976562
sg502
I2
sg503
I2
sasS'total_cqs'
p506
I5
ssI50
(dp507
S'iters'
p508
I4
sS'meta'
p509
(lp510
(dp511
S'objective'
p512
I5
sS'query_time'
p513
F0.7258851528167725
sS'comp_time'
p514
F0.0021533966064453125
sS'exec_cq'
p515
I5
sS'total_cq'
p516
I5
sa(dp517
g512
I2
sg513
F0.00018978118896484375
sg514
F0.0003261566162109375
sg515
I4
sg516
I4
sa(dp518
g512
I0
sg513
F0.0001251697540283203
sg514
F0.00029087066650390625
sg515
I3
sg516
I3
sa(dp519
g512
I1
sg513
F9.799003601074219e-05
sg514
F0.0002770423889160156
sg515
I2
sg516
I2
sasS'total_cqs'
p520
I5
ssI51
(dp521
S'iters'
p522
I0
sS'meta'
p523
(lp524
sS'total_cqs'
p525
I1
ssI52
(dp526
S'iters'
p527
I0
sS'meta'
p528
(lp529
sS'total_cqs'
p530
I1
ssI53
(dp531
S'iters'
p532
I0
sS'meta'
p533
(lp534
sS'total_cqs'
p535
I1
ssI55
(dp536
S'iters'
p537
I1
sS'meta'
p538
(lp539
(dp540
S'objective'
p541
I1
sS'query_time'
p542
F24.391605854034424
sS'comp_time'
p543
F0.018185853958129883
sS'exec_cq'
p544
I2
sS'total_cq'
p545
I2
sasS'total_cqs'
p546
I2
ssI56
(dp547
S'iters'
p548
I0
sS'meta'
p549
(lp550
sS'total_cqs'
p551
I1
ssI57
(dp552
S'iters'
p553
I2
sS'meta'
p554
(lp555
(dp556
S'objective'
p557
I2
sS'query_time'
p558
F12.23560118675232
sS'comp_time'
p559
F1.1859490871429443
sS'exec_cq'
p560
I3
sS'total_cq'
p561
I3
sa(dp562
g557
I2
sg558
F0.2541220188140869
sg559
F0.3791689872741699
sg560
I1
sg561
I2
sasS'total_cqs'
p563
I3
ssI108
(dp564
S'iters'
p565
I0
sS'meta'
p566
(lp567
sS'total_cqs'
p568
I1
ssI109
(dp569
S'iters'
p570
I0
sS'meta'
p571
(lp572
sS'total_cqs'
p573
I1
ssI116
(dp574
S'iters'
p575
I3
sS'meta'
p576
(lp577
(dp578
S'objective'
p579
I187
sS'query_time'
p580
F3.67113995552063
sS'comp_time'
p581
F0.30281901359558105
sS'exec_cq'
p582
I15
sS'total_cq'
p583
I21
sa(dp584
g579
I193
sg580
F0.507575273513794
sg581
F0.0006563663482666016
sg582
I17
sg583
I19
sa(dp585
g579
I6
sg580
F0.0006520748138427734
sg581
F0.0009036064147949219
sg582
I2
sg583
I2
sasS'total_cqs'
p586
I21
ssI117
(dp587
S'iters'
p588
I2
sS'meta'
p589
(lp590
(dp591
S'objective'
p592
I9
sS'query_time'
p593
F0.010903120040893555
sS'comp_time'
p594
F0.0025446414947509766
sS'exec_cq'
p595
I4
sS'total_cq'
p596
I5
sa(dp597
g592
I10
sg593
F0.0025289058685302734
sg594
F7.891654968261719e-05
sg595
I4
sg596
I4
sasS'total_cqs'
p598
I5
ssI118
(dp599
S'iters'
p600
I0
sS'meta'
p601
(lp602
sS'total_cqs'
p603
I1
ssI122
(dp604
S'iters'
p605
I0
sS'meta'
p606
(lp607
sS'total_cqs'
p608
I1
ss.