(dp0
I1
(dp1
S'iters'
p2
I3
sS'meta'
p3
(lp4
(dp5
S'objective'
p6
I5
sS'query_time'
p7
F16.95997714996338
sS'comp_time'
p8
F0.268416166305542
sS'exec_cq'
p9
I3
sS'total_cq'
p10
I6
sa(dp11
g6
I1
sg7
F24.56592607498169
sg8
F7.009506225585938e-05
sg9
I1
sg10
I4
sa(dp12
g6
I1
sg7
F30.37322998046875
sg8
F0.7036581039428711
sg9
I3
sg10
I3
sasS'total_cqs'
p13
I6
ssI2
(dp14
S'iters'
p15
I1
sS'meta'
p16
(lp17
(dp18
S'objective'
p19
I13
sS'query_time'
p20
F1.0897939205169678
sS'comp_time'
p21
F0.0406491756439209
sS'exec_cq'
p22
I5
sS'total_cq'
p23
I6
sasS'total_cqs'
p24
I6
ssI3
(dp25
S'iters'
p26
I13
sS'meta'
p27
(lp28
(dp29
S'objective'
p30
I407
sS'query_time'
p31
F25.87261176109314
sS'comp_time'
p32
F0.21851778030395508
sS'exec_cq'
p33
I28
sS'total_cq'
p34
I33
sa(dp35
g30
I340
sg31
F0.017441987991333008
sg32
F0.10873842239379883
sg33
I25
sg34
I30
sa(dp36
g30
I312
sg31
F0.2024698257446289
sg32
F0.022594690322875977
sg33
I27
sg34
I27
sa(dp37
g30
I290
sg31
F0.006917238235473633
sg32
F0.014931440353393555
sg33
I24
sg34
I24
sa(dp38
g30
I254
sg31
F0.007428169250488281
sg32
F0.07399916648864746
sg33
I22
sg34
I22
sa(dp39
g30
I218
sg31
F0.007884740829467773
sg32
F0.012620925903320312
sg33
I19
sg34
I19
sa(dp40
g30
I196
sg31
F0.007342815399169922
sg32
F0.013612747192382812
sg33
I16
sg34
I16
sa(dp41
g30
I169
sg31
F0.006257057189941406
sg32
F0.07549452781677246
sg33
I15
sg34
I15
sa(dp42
g30
I141
sg31
F0.006131172180175781
sg32
F0.012880086898803711
sg33
I12
sg34
I12
sa(dp43
g30
I127
sg31
F0.006897926330566406
sg32
F0.011187076568603516
sg33
I11
sg34
I11
sa(dp44
g30
I104
sg31
F28.84780502319336
sg32
F0.014178037643432617
sg33
I10
sg34
I10
sa(dp45
g30
I70
sg31
F0.048436880111694336
sg32
F0.010682821273803711
sg33
I9
sg34
I9
sa(dp46
g30
I62
sg31
F0.1633601188659668
sg32
F0.013719320297241211
sg33
I7
sg34
I7
sasS'total_cqs'
p47
I33
ssI4
(dp48
S'iters'
p49
I0
sS'meta'
p50
(lp51
sS'total_cqs'
p52
I1
ssI5
(dp53
S'iters'
p54
I0
sS'meta'
p55
(lp56
sS'total_cqs'
p57
I1
ssI6
(dp58
S'iters'
p59
I2
sS'meta'
p60
(lp61
(dp62
S'objective'
p63
I1
sS'query_time'
p64
F14.132787942886353
sS'comp_time'
p65
F0.004107952117919922
sS'exec_cq'
p66
I4
sS'total_cq'
p67
I5
sa(dp68
g63
I1
sg64
F0.00074005126953125
sg65
F0.0014679431915283203
sg66
I3
sg67
I3
sasS'total_cqs'
p69
I5
ssI7
(dp70
S'iters'
p71
I0
sS'meta'
p72
(lp73
sS'total_cqs'
p74
I1
ssI8
(dp75
S'iters'
p76
I3
sS'meta'
p77
(lp78
(dp79
S'objective'
p80
I15
sS'query_time'
p81
F43.743273973464966
sS'comp_time'
p82
F0.12842249870300293
sS'exec_cq'
p83
I6
sS'total_cq'
p84
I6
sa(dp85
g80
I4
sg81
F0.1743929386138916
sg82
F0.0001652240753173828
sg83
I4
sg84
I5
sa(dp86
g80
I3
sg81
F0.004195213317871094
sg82
F0.0001380443572998047
sg83
I3
sg84
I3
sasS'total_cqs'
p87
I6
ssI9
(dp88
S'iters'
p89
I2
sS'meta'
p90
(lp91
(dp92
S'objective'
p93
I1
sS'query_time'
p94
F11.62100601196289
sS'comp_time'
p95
F0.12882781028747559
sS'exec_cq'
p96
I3
sS'total_cq'
p97
I6
sa(dp98
g93
I2
sg94
F0.05903792381286621
sg95
F0.1878662109375
sg96
I2
sg97
I2
sasS'total_cqs'
p99
I6
ssI10
(dp100
S'iters'
p101
I0
sS'meta'
p102
(lp103
sS'total_cqs'
p104
I1
ssI11
(dp105
S'iters'
p106
I0
sS'meta'
p107
(lp108
sS'total_cqs'
p109
I1
ssI12
(dp110
S'iters'
p111
I0
sS'meta'
p112
(lp113
sS'total_cqs'
p114
I1
ssI13
(dp115
S'iters'
p116
I1
sS'meta'
p117
(lp118
(dp119
S'objective'
p120
I26
sS'query_time'
p121
F0.02597188949584961
sS'comp_time'
p122
F0.01002192497253418
sS'exec_cq'
p123
I6
sS'total_cq'
p124
I8
sasS'total_cqs'
p125
I8
ssI14
(dp126
S'iters'
p127
I1
sS'meta'
p128
(lp129
(dp130
S'objective'
p131
I7
sS'query_time'
p132
F1.1407551765441895
sS'comp_time'
p133
F0.0041942596435546875
sS'exec_cq'
p134
I5
sS'total_cq'
p135
I5
sasS'total_cqs'
p136
I5
ssI16
(dp137
S'iters'
p138
I2
sS'meta'
p139
(lp140
(dp141
S'objective'
p142
I1
sS'query_time'
p143
F1.2865679264068604
sS'comp_time'
p144
F0.005772113800048828
sS'exec_cq'
p145
I4
sS'total_cq'
p146
I5
sa(dp147
g142
I1
sg143
F4.601478576660156e-05
sg144
F0.00015497207641601562
sg145
I2
sg146
I3
sasS'total_cqs'
p148
I5
ssI17
(dp149
S'iters'
p150
I0
sS'meta'
p151
(lp152
sS'total_cqs'
p153
I1
ssI18
(dp154
S'iters'
p155
I3
sS'meta'
p156
(lp157
(dp158
S'objective'
p159
I1
sS'query_time'
p160
F0.19379901885986328
sS'comp_time'
p161
F0.004658937454223633
sS'exec_cq'
p162
I4
sS'total_cq'
p163
I5
sa(dp164
g159
I3
sg160
F8.0108642578125e-05
sg161
F0.0002834796905517578
sg162
I2
sg163
I3
sa(dp165
g159
I3
sg160
F0.04452204704284668
sg161
F5.4836273193359375e-05
sg162
I1
sg163
I2
sasS'total_cqs'
p166
I5
ssI19
(dp167
S'iters'
p168
I0
sS'meta'
p169
(lp170
sS'total_cqs'
p171
I1
ssI20
(dp172
S'iters'
p173
I5
sS'meta'
p174
(lp175
(dp176
S'objective'
p177
I38
sS'query_time'
p178
F14.034487009048462
sS'comp_time'
p179
F0.7795488834381104
sS'exec_cq'
p180
I10
sS'total_cq'
p181
I12
sa(dp182
g177
I36
sg178
F0.19084715843200684
sg179
F0.5078432559967041
sg180
I8
sg181
I10
sa(dp183
g177
I25
sg178
F0.1811830997467041
sg179
F0.43891453742980957
sg180
I6
sg181
I8
sa(dp184
g177
I16
sg178
F0.16774296760559082
sg179
F0.40775465965270996
sg180
I4
sg181
I6
sa(dp185
g177
I12
sg178
F0.1147458553314209
sg179
F0.0004699230194091797
sg180
I3
sg181
I5
sasS'total_cqs'
p186
I12
ssI21
(dp187
S'iters'
p188
I8
sS'meta'
p189
(lp190
(dp191
S'objective'
p192
I71
sS'query_time'
p193
F59.86920499801636
sS'comp_time'
p194
F0.646831750869751
sS'exec_cq'
p195
I12
sS'total_cq'
p196
I14
sa(dp197
g192
I62
sg193
F0.6343421936035156
sg194
F1.0623869895935059
sg195
I11
sg196
I12
sa(dp198
g192
I49
sg193
F0.3778989315032959
sg194
F1.2760109901428223
sg195
I10
sg196
I11
sa(dp199
g192
I38
sg193
F0.013211965560913086
sg194
F0.022994279861450195
sg195
I6
sg196
I8
sa(dp200
g192
I28
sg193
F0.001363992691040039
sg194
F0.001712799072265625
sg195
I5
sg196
I7
sa(dp201
g192
I11
sg193
F0.008073806762695312
sg194
F8.225440979003906e-05
sg195
I4
sg196
I6
sa(dp202
g192
I7
sg193
F0.0030241012573242188
sg194
F8.296966552734375e-05
sg195
I3
sg196
I5
sa(dp203
g192
I0
sg193
F0.01232004165649414
sg194
F4.410743713378906e-05
sg195
I1
sg196
I4
sasS'total_cqs'
p204
I14
ssI22
(dp205
S'iters'
p206
I1
sS'meta'
p207
(lp208
(dp209
S'objective'
p210
I1
sS'query_time'
p211
F0.0034308433532714844
sS'comp_time'
p212
F0.002237081527709961
sS'exec_cq'
p213
I1
sS'total_cq'
p214
I2
sasS'total_cqs'
p215
I2
ssI23
(dp216
S'iters'
p217
I0
sS'meta'
p218
(lp219
sS'total_cqs'
p220
I1
ssI24
(dp221
S'iters'
p222
I0
sS'meta'
p223
(lp224
sS'total_cqs'
p225
I1
ssI25
(dp226
S'iters'
p227
I3
sS'meta'
p228
(lp229
(dp230
S'objective'
p231
I8
sS'query_time'
p232
F53.15251088142395
sS'comp_time'
p233
F2.5668931007385254
sS'exec_cq'
p234
I6
sS'total_cq'
p235
I7
sa(dp236
g231
I2
sg232
F0.7352550029754639
sg233
F2.048661470413208
sg234
I4
sg235
I5
sa(dp237
g231
I0
sg232
F0.17250895500183105
sg233
F0.000499725341796875
sg234
I3
sg235
I3
sasS'total_cqs'
p238
I7
ssI26
(dp239
S'iters'
p240
I5
sS'meta'
p241
(lp242
(dp243
S'objective'
p244
I55
sS'query_time'
p245
F22.702018976211548
sS'comp_time'
p246
F0.010116815567016602
sS'exec_cq'
p247
I5
sS'total_cq'
p248
I13
sa(dp249
g244
I45
sg245
F3.9203031063079834
sg246
F0.08609175682067871
sg247
I9
sg248
I11
sa(dp250
g244
I33
sg245
F0.002959012985229492
sg246
F0.003574371337890625
sg247
I7
sg248
I9
sa(dp251
g244
I22
sg245
F0.0019490718841552734
sg246
F0.003203868865966797
sg247
I6
sg248
I8
sa(dp252
g244
I18
sg245
F0.0033800601959228516
sg246
F0.0004718303680419922
sg247
I3
sg248
I6
sasS'total_cqs'
p253
I13
ssI27
(dp254
S'iters'
p255
I1
sS'meta'
p256
(lp257
(dp258
S'objective'
p259
I1
sS'query_time'
p260
F0.24524188041687012
sS'comp_time'
p261
F0.0030333995819091797
sS'exec_cq'
p262
I1
sS'total_cq'
p263
I2
sasS'total_cqs'
p264
I2
ssI28
(dp265
S'iters'
p266
I6
sS'meta'
p267
(lp268
(dp269
S'objective'
p270
I59
sS'query_time'
p271
F1.5115981101989746
sS'comp_time'
p272
F0.0862891674041748
sS'exec_cq'
p273
I6
sS'total_cq'
p274
I14
sa(dp275
g270
I50
sg271
F0.0036280155181884766
sg272
F0.024588823318481445
sg273
I4
sg274
I12
sa(dp276
g270
I38
sg271
F0.01612091064453125
sg272
F0.00014781951904296875
sg273
I1
sg274
I9
sa(dp277
g270
I28
sg271
F0.0032711029052734375
sg272
F5.2928924560546875e-05
sg273
I1
sg274
I8
sa(dp278
g270
I18
sg271
F0.004892110824584961
sg272
F0.00016570091247558594
sg273
I3
sg274
I7
sa(dp279
g270
I13
sg271
F0.00537419319152832
sg272
F9.369850158691406e-05
sg273
I3
sg274
I6
sasS'total_cqs'
p280
I14
ssI29
(dp281
S'iters'
p282
I1
sS'meta'
p283
(lp284
(dp285
S'objective'
p286
I1
sS'query_time'
p287
F0.009776830673217773
sS'comp_time'
p288
F0.0014967918395996094
sS'exec_cq'
p289
I2
sS'total_cq'
p290
I2
sasS'total_cqs'
p291
I2
ssI30
(dp292
S'iters'
p293
I1
sS'meta'
p294
(lp295
(dp296
S'objective'
p297
I1
sS'query_time'
p298
F0.45432591438293457
sS'comp_time'
p299
F0.002517223358154297
sS'exec_cq'
p300
I2
sS'total_cq'
p301
I2
sasS'total_cqs'
p302
I2
ssI31
(dp303
S'iters'
p304
I2
sS'meta'
p305
(lp306
(dp307
S'objective'
p308
I15
sS'query_time'
p309
F5.518378973007202
sS'comp_time'
p310
F0.3005831241607666
sS'exec_cq'
p311
I9
sS'total_cq'
p312
I9
sa(dp313
g308
I3
sg309
F0.008778810501098633
sg310
F0.014458894729614258
sg311
I3
sg312
I3
sasS'total_cqs'
p314
I9
ssI32
(dp315
S'iters'
p316
I3
sS'meta'
p317
(lp318
(dp319
S'objective'
p320
I2
sS'query_time'
p321
F20.865526914596558
sS'comp_time'
p322
F1.833406925201416
sS'exec_cq'
p323
I4
sS'total_cq'
p324
I7
sa(dp325
g320
I5
sg321
F1.1926679611206055
sg322
F0.0028989315032958984
sg323
I2
sg324
I5
sa(dp326
g320
I0
sg321
F0.2649509906768799
sg322
F0.3152167797088623
sg323
I2
sg324
I3
sasS'total_cqs'
p327
I7
ssI33
(dp328
S'iters'
p329
I1
sS'meta'
p330
(lp331
(dp332
S'objective'
p333
I1
sS'query_time'
p334
F0.025203943252563477
sS'comp_time'
p335
F0.001264333724975586
sS'exec_cq'
p336
I2
sS'total_cq'
p337
I2
sasS'total_cqs'
p338
I2
ssI34
(dp339
S'iters'
p340
I0
sS'meta'
p341
(lp342
sS'total_cqs'
p343
I1
ssI35
(dp344
S'iters'
p345
I2
sS'meta'
p346
(lp347
(dp348
S'objective'
p349
I1
sS'query_time'
p350
F13.817412853240967
sS'comp_time'
p351
F0.08113789558410645
sS'exec_cq'
p352
I4
sS'total_cq'
p353
I5
sa(dp354
g349
I0
sg350
F0.011653900146484375
sg351
F0.08218789100646973
sg352
I2
sg353
I3
sasS'total_cqs'
p355
I5
ssI37
(dp356
S'iters'
p357
I5
sS'meta'
p358
(lp359
(dp360
S'objective'
p361
I35
sS'query_time'
p362
F2.4487059116363525
sS'comp_time'
p363
F0.1006307601928711
sS'exec_cq'
p364
I9
sS'total_cq'
p365
I10
sa(dp366
g361
I27
sg362
F0.015275001525878906
sg363
F0.02885580062866211
sg364
I8
sg365
I9
sa(dp367
g361
I20
sg362
F0.012114286422729492
sg363
F0.07181334495544434
sg364
I8
sg365
I8
sa(dp368
g361
I12
sg362
F0.009765148162841797
sg363
F0.014766454696655273
sg364
I7
sg365
I7
sa(dp369
g361
I4
sg362
F0.0028829574584960938
sg363
F0.0035910606384277344
sg364
I2
sg365
I2
sasS'total_cqs'
p370
I10
ssI38
(dp371
S'iters'
p372
I0
sS'meta'
p373
(lp374
sS'total_cqs'
p375
I1
ssI39
(dp376
S'iters'
p377
I0
sS'meta'
p378
(lp379
sS'total_cqs'
p380
I1
ssI40
(dp381
S'iters'
p382
I1
sS'meta'
p383
(lp384
(dp385
S'objective'
p386
I1
sS'query_time'
p387
F0.014432907104492188
sS'comp_time'
p388
F0.003008127212524414
sS'exec_cq'
p389
I1
sS'total_cq'
p390
I2
sasS'total_cqs'
p391
I2
ssI41
(dp392
S'iters'
p393
I3
sS'meta'
p394
(lp395
(dp396
S'objective'
p397
I7
sS'query_time'
p398
F10.019381999969482
sS'comp_time'
p399
F0.7819499969482422
sS'exec_cq'
p400
I3
sS'total_cq'
p401
I6
sa(dp402
g397
I2
sg398
F0.8072850704193115
sg399
F0.0006768703460693359
sg400
I2
sg401
I4
sa(dp403
g397
I2
sg398
F0.0006129741668701172
sg399
F0.000978231430053711
sg400
I2
sg401
I2
sasS'total_cqs'
p404
I6
ssI42
(dp405
S'iters'
p406
I1
sS'meta'
p407
(lp408
(dp409
S'objective'
p410
I1
sS'query_time'
p411
F0.008182048797607422
sS'comp_time'
p412
F0.0014948844909667969
sS'exec_cq'
p413
I1
sS'total_cq'
p414
I2
sasS'total_cqs'
p415
I2
ssI43
(dp416
S'iters'
p417
I0
sS'meta'
p418
(lp419
sS'total_cqs'
p420
I1
ssI44
(dp421
S'iters'
p422
I2
sS'meta'
p423
(lp424
(dp425
S'objective'
p426
I5
sS'query_time'
p427
F1.3602490425109863
sS'comp_time'
p428
F0.04148602485656738
sS'exec_cq'
p429
I2
sS'total_cq'
p430
I5
sa(dp431
g426
I2
sg427
F0.004168987274169922
sg428
F6.794929504394531e-05
sg429
I1
sg430
I4
sasS'total_cqs'
p432
I5
ssI45
(dp433
S'iters'
p434
I2
sS'meta'
p435
(lp436
(dp437
S'objective'
p438
I3
sS'query_time'
p439
F0.08901309967041016
sS'comp_time'
p440
F0.005928993225097656
sS'exec_cq'
p441
I3
sS'total_cq'
p442
I5
sa(dp443
g438
I2
sg439
F0.00019478797912597656
sg440
F0.00025200843811035156
sg441
I2
sg442
I2
sasS'total_cqs'
p444
I5
ssI46
(dp445
S'iters'
p446
I0
sS'meta'
p447
(lp448
sS'total_cqs'
p449
I1
ssI47
(dp450
S'iters'
p451
I0
sS'meta'
p452
(lp453
sS'total_cqs'
p454
I1
ssI48
(dp455
S'iters'
p456
I1
sS'meta'
p457
(lp458
(dp459
S'objective'
p460
I1
sS'query_time'
p461
F0.08816099166870117
sS'comp_time'
p462
F0.003621816635131836
sS'exec_cq'
p463
I2
sS'total_cq'
p464
I2
sasS'total_cqs'
p465
I2
ssI49
(dp466
S'iters'
p467
I2
sS'meta'
p468
(lp469
(dp470
S'objective'
p471
I1
sS'query_time'
p472
F0.2162032127380371
sS'comp_time'
p473
F0.0036020278930664062
sS'exec_cq'
p474
I4
sS'total_cq'
p475
I5
sa(dp476
g471
I1
sg472
F2.5987625122070312e-05
sg473
F9.34600830078125e-05
sg474
I2
sg475
I3
sasS'total_cqs'
p477
I5
ssI50
(dp478
S'iters'
p479
I2
sS'meta'
p480
(lp481
(dp482
S'objective'
p483
I5
sS'query_time'
p484
F0.635695219039917
sS'comp_time'
p485
F0.0025091171264648438
sS'exec_cq'
p486
I5
sS'total_cq'
p487
I5
sa(dp488
g483
I2
sg484
F0.00014781951904296875
sg485
F0.00035691261291503906
sg486
I4
sg487
I4
sasS'total_cqs'
p489
I5
ssI51
(dp490
S'iters'
p491
I0
sS'meta'
p492
(lp493
sS'total_cqs'
p494
I1
ssI52
(dp495
S'iters'
p496
I0
sS'meta'
p497
(lp498
sS'total_cqs'
p499
I1
ssI53
(dp500
S'iters'
p501
I0
sS'meta'
p502
(lp503
sS'total_cqs'
p504
I1
ssI55
(dp505
S'iters'
p506
I1
sS'meta'
p507
(lp508
(dp509
S'objective'
p510
I1
sS'query_time'
p511
F24.448485136032104
sS'comp_time'
p512
F0.01454925537109375
sS'exec_cq'
p513
I2
sS'total_cq'
p514
I2
sasS'total_cqs'
p515
I2
ssI56
(dp516
S'iters'
p517
I0
sS'meta'
p518
(lp519
sS'total_cqs'
p520
I1
ssI57
(dp521
S'iters'
p522
I1
sS'meta'
p523
(lp524
(dp525
S'objective'
p526
I0
sS'query_time'
p527
F13.015862941741943
sS'comp_time'
p528
F1.2226152420043945
sS'exec_cq'
p529
I2
sS'total_cq'
p530
I3
sasS'total_cqs'
p531
I3
ssI108
(dp532
S'iters'
p533
I0
sS'meta'
p534
(lp535
sS'total_cqs'
p536
I1
ssI109
(dp537
S'iters'
p538
I0
sS'meta'
p539
(lp540
sS'total_cqs'
p541
I1
ssI116
(dp542
S'iters'
p543
I3
sS'meta'
p544
(lp545
(dp546
S'objective'
p547
I153
sS'query_time'
p548
F3.7656521797180176
sS'comp_time'
p549
F0.2333066463470459
sS'exec_cq'
p550
I9
sS'total_cq'
p551
I21
sa(dp552
g547
I140
sg548
F0.5766241550445557
sg549
F0.0006492137908935547
sg550
I14
sg551
I19
sa(dp553
g547
I2
sg548
F0.0006880760192871094
sg549
F0.00092315673828125
sg550
I2
sg551
I2
sasS'total_cqs'
p554
I21
ssI117
(dp555
S'iters'
p556
I1
sS'meta'
p557
(lp558
(dp559
S'objective'
p560
I7
sS'query_time'
p561
F0.018212318420410156
sS'comp_time'
p562
F0.00263214111328125
sS'exec_cq'
p563
I5
sS'total_cq'
p564
I5
sasS'total_cqs'
p565
I5
ssI118
(dp566
S'iters'
p567
I0
sS'meta'
p568
(lp569
sS'total_cqs'
p570
I1
ssI122
(dp571
S'iters'
p572
I0
sS'meta'
p573
(lp574
sS'total_cqs'
p575
I1
ss.