(dp0
I1
(dp1
S'iters'
p2
I2
sS'meta'
p3
(lp4
(dp5
S'objective'
p6
I2
sS'query_time'
p7
F11.565205812454224
sS'total_cq'
p8
I6
sS'comp_time'
p9
F0.9714009761810303
sa(dp10
g6
I0
sg7
F0.2084050178527832
sg8
I2
sg9
F0.9070839881896973
sasS'total_cqs'
p11
I6
ssI2
(dp12
g2
I1
sg3
(lp13
(dp14
g6
I4
sg7
F0.5741901397705078
sg8
I6
sg9
F0.3092522621154785
sasg11
I6
ssI3
(dp15
g2
I14
sg3
(lp16
(dp17
g6
I27
sg7
F16.687064170837402
sg8
I33
sg9
F0.46589112281799316
sa(dp18
g6
I24
sg7
F0.315460205078125
sg8
I30
sg9
F0.04040884971618652
sa(dp19
g6
I21
sg7
F0.03900718688964844
sg8
I27
sg9
F0.5568342208862305
sa(dp20
g6
I18
sg7
F0.0034880638122558594
sg8
I24
sg9
F0.02638697624206543
sa(dp21
g6
I15
sg7
F0.01616692543029785
sg8
I21
sg9
F0.18653321266174316
sa(dp22
g6
I12
sg7
F0.003484010696411133
sg8
I18
sg9
F0.025516748428344727
sa(dp23
g6
I9
sg7
F0.016981840133666992
sg8
I15
sg9
F0.15315914154052734
sa(dp24
g6
I10
sg7
F0.21533703804016113
sg8
I12
sg9
F0.03741097450256348
sa(dp25
g6
I9
sg7
F0.1240072250366211
sg8
I11
sg9
F0.0059778690338134766
sa(dp26
g6
I6
sg7
F0.007730960845947266
sg8
I10
sg9
F0.028571128845214844
sa(dp27
g6
I6
sg7
F0.0012309551239013672
sg8
I8
sg9
F0.0006999969482421875
sa(dp28
g6
I5
sg7
F0.0014028549194335938
sg8
I7
sg9
F0.0021522045135498047
sa(dp29
g6
I4
sg7
F0.0014908313751220703
sg8
I6
sg9
F0.00027680397033691406
sa(dp30
g6
I3
sg7
F0.006287813186645508
sg8
I5
sg9
F0.02647089958190918
sasg11
I33
ssI4
(dp31
g2
I0
sg3
(lp32
sg11
I1
ssI5
(dp33
g2
I0
sg3
(lp34
sg11
I1
ssI6
(dp35
g2
I2
sg3
(lp36
(dp37
g6
I1
sg7
F9.039804935455322
sg8
I5
sg9
F0.0052530765533447266
sa(dp38
g6
I0
sg7
F0.0014460086822509766
sg8
I2
sg9
F0.0011191368103027344
sasg11
I5
ssI7
(dp39
g2
I0
sg3
(lp40
sg11
I1
ssI8
(dp41
g2
I4
sg3
(lp42
(dp43
g6
I4
sg7
F83.13075709342957
sg8
I6
sg9
F0.6085927486419678
sa(dp44
g6
I3
sg7
F0.0003349781036376953
sg8
I5
sg9
F1.0008790493011475
sa(dp45
g6
I2
sg7
F0.0014979839324951172
sg8
I4
sg9
F0.003952980041503906
sa(dp46
g6
I1
sg7
F0.0014379024505615234
sg8
I3
sg9
F0.0023963451385498047
sasg11
I6
ssI9
(dp47
g2
I3
sg3
(lp48
(dp49
g6
I0
sg7
F7.054380893707275
sg8
I6
sg9
F0.516057014465332
sa(dp50
g6
I1
sg7
F0.05092501640319824
sg8
I3
sg9
F0.6080491542816162
sa(dp51
g6
I0
sg7
F0.016294002532958984
sg8
I2
sg9
F0.15776801109313965
sasg11
I6
ssI10
(dp52
g2
I0
sg3
(lp53
sg11
I1
ssI11
(dp54
g2
I0
sg3
(lp55
sg11
I1
ssI12
(dp56
g2
I0
sg3
(lp57
sg11
I1
ssI13
(dp58
g2
I2
sg3
(lp59
(dp60
g6
I6
sg7
F0.01606297492980957
sg8
I8
sg9
F0.0001881122589111328
sa(dp61
g6
I5
sg7
F0.0015349388122558594
sg8
I7
sg9
F0.00012803077697753906
sasg11
I8
ssI14
(dp62
g2
I1
sg3
(lp63
(dp64
g6
I3
sg7
F0.46535587310791016
sg8
I5
sg9
F0.007604360580444336
sasg11
I5
ssI16
(dp65
g2
I3
sg3
(lp66
(dp67
g6
I1
sg7
F0.6160759925842285
sg8
I5
sg9
F0.009107828140258789
sa(dp68
g6
I1
sg7
F0.03200984001159668
sg8
I3
sg9
F0.0005130767822265625
sa(dp69
g6
I0
sg7
F0.0014641284942626953
sg8
I2
sg9
F0.0003314018249511719
sasg11
I5
ssI17
(dp70
g2
I0
sg3
(lp71
sg11
I1
ssI18
(dp72
g2
I3
sg3
(lp73
(dp74
g6
I1
sg7
F0.11473393440246582
sg8
I5
sg9
F0.0008060932159423828
sa(dp75
g6
I1
sg7
F0.031976938247680664
sg8
I3
sg9
F0.0003821849822998047
sa(dp76
g6
I0
sg7
F0.0017199516296386719
sg8
I2
sg9
F0.0011479854583740234
sasg11
I5
ssI19
(dp77
g2
I0
sg3
(lp78
sg11
I1
ssI20
(dp79
g2
I6
sg3
(lp80
(dp81
g6
I8
sg7
F6.198108911514282
sg8
I12
sg9
F1.507951259613037
sa(dp82
g6
I6
sg7
F3.3765149116516113
sg8
I10
sg9
F0.5172348022460938
sa(dp83
g6
I4
sg7
F0.2300410270690918
sg8
I8
sg9
F1.3467950820922852
sa(dp84
g6
I4
sg7
F0.0012080669403076172
sg8
I6
sg9
F0.0001308917999267578
sa(dp85
g6
I3
sg7
F0.19901704788208008
sg8
I5
sg9
F1.067992925643921
sa(dp86
g6
I2
sg7
F0.12042832374572754
sg8
I4
sg9
F0.006299257278442383
sasg11
I12
ssI21
(dp87
g2
I5
sg3
(lp88
(dp89
g6
I6
sg7
F102.60603094100952
sg8
I14
sg9
F27.01354694366455
sa(dp90
g6
I2
sg7
F29.24384593963623
sg8
I10
sg9
F2.765109062194824
sa(dp91
g6
I2
sg7
F3.166891098022461
sg8
I6
sg9
F16.060030937194824
sa(dp92
g6
I0
sg7
F0.015712976455688477
sg8
I4
sg9
F0.09469771385192871
sa(dp93
g6
I0
sg7
F0.01573920249938965
sg8
I2
sg9
F0.0003070831298828125
sasg11
I14
ssI22
(dp94
g2
I1
sg3
(lp95
(dp96
g6
I0
sg7
F0.003567934036254883
sg8
I2
sg9
F0.0002067089080810547
sasg11
I2
ssI23
(dp97
g2
I0
sg3
(lp98
sg11
I1
ssI24
(dp99
g2
I0
sg3
(lp100
sg11
I1
ssI25
(dp101
g2
I4
sg3
(lp102
(dp103
g6
I3
sg7
F79.90477395057678
sg8
I7
sg9
F19.93912625312805
sa(dp104
g6
I1
sg7
F4.140135049819946
sg8
I5
sg9
F1.1242971420288086
sa(dp105
g6
I1
sg7
F2.383808135986328
sg8
I3
sg9
F14.017090320587158
sa(dp106
g6
I0
sg7
F0.0011289119720458984
sg8
I2
sg9
F0.03632378578186035
sasg11
I7
ssI26
(dp107
g2
I9
sg3
(lp108
(dp109
g6
I9
sg7
F0.16484308242797852
sg8
I13
sg9
F0.018654823303222656
sa(dp110
g6
I9
sg7
F17.243401050567627
sg8
I11
sg9
F8.033082246780396
sa(dp111
g6
I6
sg7
F0.015763044357299805
sg8
I10
sg9
F0.0004496574401855469
sa(dp112
g6
I6
sg7
F0.0049479007720947266
sg8
I8
sg9
F0.012630939483642578
sa(dp113
g6
I5
sg7
F0.001203775405883789
sg8
I7
sg9
F0.0059719085693359375
sa(dp114
g6
I2
sg7
F2.973681926727295
sg8
I6
sg9
F0.03364396095275879
sa(dp115
g6
I2
sg7
F0.002402067184448242
sg8
I4
sg9
F0.007378101348876953
sa(dp116
g6
I1
sg7
F0.0012090206146240234
sg8
I3
sg9
F0.002564668655395508
sa(dp117
g6
I0
sg7
F0.032015085220336914
sg8
I2
sg9
F0.002489805221557617
sasg11
I13
ssI27
(dp118
g2
I1
sg3
(lp119
(dp120
g6
I0
sg7
F0.11456298828125
sg8
I2
sg9
F0.010545969009399414
sasg11
I2
ssI28
(dp121
g2
I4
sg3
(lp122
(dp123
g6
I8
sg7
F0.869920015335083
sg8
I14
sg9
F0.04318428039550781
sa(dp124
g6
I7
sg7
F0.003506898880004883
sg8
I11
sg9
F0.02775096893310547
sa(dp125
g6
I7
sg7
F0.003545045852661133
sg8
I9
sg9
F0.00012922286987304688
sa(dp126
g6
I6
sg7
F0.003487825393676758
sg8
I8
sg9
F0.00016307830810546875
sasg11
I14
ssI29
(dp127
g2
I1
sg3
(lp128
(dp129
g6
I0
sg7
F0.003476858139038086
sg8
I2
sg9
F0.00012087821960449219
sasg11
I2
ssI30
(dp130
g2
I1
sg3
(lp131
(dp132
g6
I0
sg7
F0.16478395462036133
sg8
I2
sg9
F0.00658726692199707
sasg11
I2
ssI31
(dp133
g2
I4
sg3
(lp134
(dp135
g6
I5
sg7
F2.373120069503784
sg8
I9
sg9
F0.14939308166503906
sa(dp136
g6
I1
sg7
F0.8669729232788086
sg8
I7
sg9
F0.06165313720703125
sa(dp137
g6
I1
sg7
F0.01777195930480957
sg8
I3
sg9
F0.053356170654296875
sa(dp138
g6
I0
sg7
F0.003535032272338867
sg8
I2
sg9
F0.605443000793457
sasg11
I9
ssI32
(dp139
g2
I3
sg3
(lp140
(dp141
g6
I1
sg7
F15.743506908416748
sg8
I7
sg9
F5.912657976150513
sa(dp142
g6
I0
sg7
F0.8670539855957031
sg8
I4
sg9
F0.03370523452758789
sa(dp143
g6
I0
sg7
F0.03266501426696777
sg8
I2
sg9
F0.6749143600463867
sasg11
I7
ssI33
(dp144
g2
I1
sg3
(lp145
(dp146
g6
I0
sg7
F0.032321929931640625
sg8
I2
sg9
F0.00018906593322753906
sasg11
I2
ssI34
(dp147
g2
I0
sg3
(lp148
sg11
I1
ssI35
(dp149
g2
I3
sg3
(lp150
(dp151
g6
I1
sg7
F10.737826108932495
sg8
I5
sg9
F0.5816328525543213
sa(dp152
g6
I1
sg7
F0.017238855361938477
sg8
I3
sg9
F0.18247294425964355
sa(dp153
g6
I0
sg7
F0.0011429786682128906
sg8
I2
sg9
F0.005503177642822266
sasg11
I5
ssI37
(dp154
g2
I2
sg3
(lp155
(dp156
g6
I6
sg7
F0.4156959056854248
sg8
I10
sg9
F0.03219008445739746
sa(dp157
g6
I0
sg7
F0.003328084945678711
sg8
I2
sg9
F0.021391630172729492
sasg11
I10
ssI38
(dp158
g2
I0
sg3
(lp159
sg11
I1
ssI39
(dp160
g2
I0
sg3
(lp161
sg11
I1
ssI40
(dp162
g2
I1
sg3
(lp163
(dp164
g6
I0
sg7
F0.003573894500732422
sg8
I2
sg9
F0.00012111663818359375
sasg11
I2
ssI41
(dp165
g2
I3
sg3
(lp166
(dp167
g6
I2
sg7
F8.39198112487793
sg8
I6
sg9
F2.54158878326416
sa(dp168
g6
I0
sg7
F0.5156710147857666
sg8
I4
sg9
F0.017291784286499023
sa(dp169
g6
I0
sg7
F0.00191497802734375
sg8
I2
sg9
F0.005950927734375
sasg11
I6
ssI42
(dp170
g2
I1
sg3
(lp171
(dp172
g6
I0
sg7
F0.007666110992431641
sg8
I2
sg9
F0.00029397010803222656
sasg11
I2
ssI43
(dp173
g2
I0
sg3
(lp174
sg11
I1
ssI44
(dp175
g2
I3
sg3
(lp176
(dp177
g6
I3
sg7
F0.8677940368652344
sg8
I5
sg9
F0.40592312812805176
sa(dp178
g6
I0
sg7
F0.16466498374938965
sg8
I4
sg9
F0.0032052993774414062
sa(dp179
g6
I0
sg7
F0.0013289451599121094
sg8
I2
sg9
F0.0008959770202636719
sasg11
I5
ssI45
(dp180
g2
I2
sg3
(lp181
(dp182
g6
I1
sg7
F0.031877994537353516
sg8
I5
sg9
F0.0014789104461669922
sa(dp183
g6
I0
sg7
F0.0013859272003173828
sg8
I2
sg9
F0.0011401176452636719
sasg11
I5
ssI46
(dp184
g2
I0
sg3
(lp185
sg11
I1
ssI47
(dp186
g2
I0
sg3
(lp187
sg11
I1
ssI48
(dp188
g2
I1
sg3
(lp189
(dp190
g6
I0
sg7
F0.11446905136108398
sg8
I2
sg9
F0.0040569305419921875
sasg11
I2
ssI49
(dp191
g2
I2
sg3
(lp192
(dp193
g6
I1
sg7
F0.16481590270996094
sg8
I5
sg9
F0.0040819644927978516
sa(dp194
g6
I1
sg7
F0.0012378692626953125
sg8
I3
sg9
F0.0002300739288330078
sasg11
I5
ssI50
(dp195
g2
I2
sg3
(lp196
(dp197
g6
I3
sg7
F0.4154040813446045
sg8
I5
sg9
F0.002049684524536133
sa(dp198
g6
I2
sg7
F0.0014009475708007812
sg8
I4
sg9
F0.0012042522430419922
sasg11
I5
ssI51
(dp199
g2
I0
sg3
(lp200
sg11
I1
ssI52
(dp201
g2
I0
sg3
(lp202
sg11
I1
ssI53
(dp203
g2
I0
sg3
(lp204
sg11
I1
ssI55
(dp205
g2
I1
sg3
(lp206
(dp207
g6
I0
sg7
F22.773600816726685
sg8
I2
sg9
F0.09978985786437988
sasg11
I2
ssI56
(dp208
g2
I0
sg3
(lp209
sg11
I1
ssI57
(dp210
g2
I1
sg3
(lp211
(dp212
g6
I1
sg7
F11.677227020263672
sg8
I3
sg9
F3.4880359172821045
sasg11
I3
ssI108
(dp213
g2
I0
sg3
(lp214
sg11
I1
ssI109
(dp215
g2
I0
sg3
(lp216
sg11
I1
ssI116
(dp217
g2
I3
sg3
(lp218
(dp219
g6
I17
sg7
F3.5815041065216064
sg8
I21
sg9
F0.7694549560546875
sa(dp220
g6
I15
sg7
F0.4178001880645752
sg8
I19
sg9
F0.01148080825805664
sa(dp221
g6
I0
sg7
F0.0013279914855957031
sg8
I2
sg9
F0.005499124526977539
sasg11
I21
ssI117
(dp222
g2
I2
sg3
(lp223
(dp224
g6
I3
sg7
F0.007608890533447266
sg8
I5
sg9
F0.00012183189392089844
sa(dp225
g6
I2
sg7
F0.0049610137939453125
sg8
I4
sg9
F0.00012183189392089844
sasg11
I5
ssI118
(dp226
g2
I0
sg3
(lp227
sg11
I1
ssI122
(dp228
g2
I0
sg3
(lp229
sg11
I1
ss.