(dp0
I1
(dp1
S'iters'
p2
I2
sS'meta'
p3
(lp4
(dp5
S'objective'
p6
I2
sS'query_time'
p7
F7.839178085327148
sS'comp_time'
p8
F8.487701416015625e-05
sS'exec_cq'
p9
I1
sS'total_cq'
p10
I6
sa(dp11
g6
I0
sg7
F13.00131106376648
sg8
F0.0002079010009765625
sg9
I1
sg10
I2
sasS'total_cqs'
p12
I6
ssI2
(dp13
S'iters'
p14
I1
sS'meta'
p15
(lp16
(dp17
S'objective'
p18
I4
sS'query_time'
p19
F0.8996450901031494
sS'comp_time'
p20
F6.222724914550781e-05
sS'exec_cq'
p21
I4
sS'total_cq'
p22
I6
sasS'total_cqs'
p23
I6
ssI3
(dp24
S'iters'
p25
I7
sS'meta'
p26
(lp27
(dp28
S'objective'
p29
I31
sS'query_time'
p30
F0.06644988059997559
sS'comp_time'
p31
F0.00012373924255371094
sS'exec_cq'
p32
I1
sS'total_cq'
p33
I33
sa(dp34
g29
I26
sg30
F0.024140119552612305
sg31
F0.00010895729064941406
sg32
I1
sg33
I32
sa(dp35
g29
I25
sg30
F0.11428022384643555
sg31
F0.0001049041748046875
sg32
I1
sg33
I29
sa(dp36
g29
I21
sg30
F0.015605926513671875
sg31
F7.104873657226562e-05
sg32
I1
sg33
I27
sa(dp37
g29
I18
sg30
F0.8115308284759521
sg31
F0.000118255615234375
sg32
I1
sg33
I24
sa(dp38
g29
I17
sg30
F0.013995885848999023
sg31
F8.893013000488281e-05
sg32
I1
sg33
I21
sa(dp39
g29
I17
sg30
F0.2069540023803711
sg31
F8.20159912109375e-05
sg32
I1
sg33
I19
sasS'total_cqs'
p40
I33
ssI6
(dp41
S'iters'
p42
I4
sS'meta'
p43
(lp44
(dp45
S'objective'
p46
I3
sS'query_time'
p47
F7.976765155792236
sS'comp_time'
p48
F0.00011396408081054688
sS'exec_cq'
p49
I1
sS'total_cq'
p50
I5
sa(dp51
g46
I2
sg47
F5.682128190994263
sg48
F8.7738037109375e-05
sg49
I1
sg50
I4
sa(dp52
g46
I1
sg47
F0.108489990234375
sg48
F7.200241088867188e-05
sg49
I1
sg50
I3
sa(dp53
g46
I0
sg47
F0.013571977615356445
sg48
F7.200241088867188e-05
sg49
I1
sg50
I2
sasS'total_cqs'
p54
I5
ssI8
(dp55
S'iters'
p56
I4
sS'meta'
p57
(lp58
(dp59
S'objective'
p60
I4
sS'query_time'
p61
F22.099727869033813
sS'comp_time'
p62
F0.00023412704467773438
sS'exec_cq'
p63
I2
sS'total_cq'
p64
I6
sa(dp65
g60
I1
sg61
F41.87256693840027
sg62
F0.006566762924194336
sg63
I3
sg64
I5
sa(dp66
g60
I1
sg61
F21.588523149490356
sg62
F0.00017309188842773438
sg63
I3
sg64
I3
sa(dp67
g60
I0
sg61
F0.04124808311462402
sg62
F0.00015091896057128906
sg63
I1
sg64
I2
sasS'total_cqs'
p68
I6
ssI9
(dp69
S'iters'
p70
I1
sS'meta'
p71
(lp72
(dp73
S'objective'
p74
I4
sS'query_time'
p75
F1.258749008178711
sS'comp_time'
p76
F6.604194641113281e-05
sS'exec_cq'
p77
I1
sS'total_cq'
p78
I6
sasS'total_cqs'
p79
I6
ssI13
(dp80
S'iters'
p81
I2
sS'meta'
p82
(lp83
(dp84
S'objective'
p85
I6
sS'query_time'
p86
F8.610698938369751
sS'comp_time'
p87
F0.00010514259338378906
sS'exec_cq'
p88
I2
sS'total_cq'
p89
I8
sa(dp90
g85
I5
sg86
F0.004613161087036133
sg87
F5.3882598876953125e-05
sg88
I7
sg89
I7
sasS'total_cqs'
p91
I8
ssI14
(dp92
S'iters'
p93
I1
sS'meta'
p94
(lp95
(dp96
S'objective'
p97
I3
sS'query_time'
p98
F1.129349946975708
sS'comp_time'
p99
F8.7738037109375e-05
sS'exec_cq'
p100
I2
sS'total_cq'
p101
I5
sasS'total_cqs'
p102
I5
ssI16
(dp103
S'iters'
p104
I2
sS'meta'
p105
(lp106
(dp107
S'objective'
p108
I1
sS'query_time'
p109
F4.351724863052368
sS'comp_time'
p110
F0.00011110305786132812
sS'exec_cq'
p111
I1
sS'total_cq'
p112
I5
sa(dp113
g108
I1
sg109
F0.056726932525634766
sg110
F7.390975952148438e-05
sg111
I1
sg112
I3
sasS'total_cqs'
p114
I5
ssI18
(dp115
S'iters'
p116
I3
sS'meta'
p117
(lp118
(dp119
S'objective'
p120
I1
sS'query_time'
p121
F3.9365320205688477
sS'comp_time'
p122
F0.0001499652862548828
sS'exec_cq'
p123
I1
sS'total_cq'
p124
I5
sa(dp125
g120
I1
sg121
F0.2647969722747803
sg122
F0.00011730194091796875
sg123
I1
sg124
I3
sa(dp126
g120
I0
sg121
F0.3748481273651123
sg122
F8.58306884765625e-05
sg123
I2
sg124
I2
sasS'total_cqs'
p127
I5
ssI20
(dp128
S'iters'
p129
I5
sS'meta'
p130
(lp131
(dp132
S'objective'
p133
I8
sS'query_time'
p134
F6.67976188659668
sS'comp_time'
p135
F0.00011110305786132812
sS'exec_cq'
p136
I2
sS'total_cq'
p137
I12
sa(dp138
g133
I6
sg134
F0.009279012680053711
sg135
F7.319450378417969e-05
sg136
I2
sg137
I10
sa(dp139
g133
I6
sg134
F4.844628095626831
sg135
F0.0004382133483886719
sg136
I1
sg137
I8
sa(dp140
g133
I3
sg134
F0.006891965866088867
sg135
F7.510185241699219e-05
sg136
I3
sg137
I7
sa(dp141
g133
I3
sg134
F0.1090700626373291
sg135
F6.890296936035156e-05
sg136
I3
sg137
I5
sasS'total_cqs'
p142
I12
ssI21
(dp143
S'iters'
p144
I5
sS'meta'
p145
(lp146
(dp147
S'objective'
p148
I12
sS'query_time'
p149
F0.3376491069793701
sS'comp_time'
p150
F8.296966552734375e-05
sS'exec_cq'
p151
I1
sS'total_cq'
p152
I14
sa(dp153
g148
I9
sg149
F25.38296103477478
sg150
F0.00034499168395996094
sg151
I2
sg152
I13
sa(dp154
g148
I7
sg149
F0.08867383003234863
sg150
F6.29425048828125e-05
sg151
I2
sg152
I11
sa(dp155
g148
I5
sg149
F0.08793878555297852
sg150
F4.601478576660156e-05
sg151
I2
sg152
I9
sa(dp156
g148
I5
sg149
F20.02676510810852
sg150
F0.0001277923583984375
sg151
I2
sg152
I7
sasS'total_cqs'
p157
I14
ssI22
(dp158
S'iters'
p159
I1
sS'meta'
p160
(lp161
(dp162
S'objective'
p163
I0
sS'query_time'
p164
F0.007400035858154297
sS'comp_time'
p165
F8.320808410644531e-05
sS'exec_cq'
p166
I1
sS'total_cq'
p167
I2
sasS'total_cqs'
p168
I2
ssI25
(dp169
S'iters'
p170
I4
sS'meta'
p171
(lp172
(dp173
S'objective'
p174
I3
sS'query_time'
p175
F3.7035958766937256
sS'comp_time'
p176
F9.322166442871094e-05
sS'exec_cq'
p177
I1
sS'total_cq'
p178
I7
sa(dp179
g174
I3
sg175
F9.61076807975769
sg176
F0.00020503997802734375
sg177
I1
sg178
I5
sa(dp180
g174
I2
sg175
F8.948270082473755
sg176
F0.0002930164337158203
sg177
I1
sg178
I4
sa(dp181
g174
I1
sg175
F25.928505897521973
sg176
F9.679794311523438e-05
sg177
I2
sg178
I3
sasS'total_cqs'
p182
I7
ssI26
(dp183
S'iters'
p184
I4
sS'meta'
p185
(lp186
(dp187
S'objective'
p188
I11
sS'query_time'
p189
F0.04479503631591797
sS'comp_time'
p190
F8.130073547363281e-05
sS'exec_cq'
p191
I1
sS'total_cq'
p192
I13
sa(dp193
g188
I10
sg189
F0.04044699668884277
sg190
F7.319450378417969e-05
sg191
I1
sg192
I12
sa(dp194
g188
I9
sg189
F1.1560561656951904
sg190
F9.202957153320312e-05
sg191
I1
sg192
I11
sa(dp195
g188
I8
sg189
F0.007102012634277344
sg190
F5.1021575927734375e-05
sg191
I1
sg192
I10
sasS'total_cqs'
p196
I13
ssI27
(dp197
S'iters'
p198
I1
sS'meta'
p199
(lp200
(dp201
S'objective'
p202
I0
sS'query_time'
p203
F0.36457395553588867
sS'comp_time'
p204
F0.0001277923583984375
sS'exec_cq'
p205
I1
sS'total_cq'
p206
I2
sasS'total_cqs'
p207
I2
ssI28
(dp208
S'iters'
p209
I5
sS'meta'
p210
(lp211
(dp212
S'objective'
p213
I8
sS'query_time'
p214
F2.205946922302246
sS'comp_time'
p215
F9.703636169433594e-05
sS'exec_cq'
p216
I1
sS'total_cq'
p217
I14
sa(dp218
g213
I9
sg214
F1.2951998710632324
sg215
F9.322166442871094e-05
sg216
I1
sg217
I11
sa(dp219
g213
I6
sg214
F1.004486083984375
sg215
F9.894371032714844e-05
sg216
I1
sg217
I10
sa(dp220
g213
I6
sg214
F0.7056710720062256
sg215
F8.606910705566406e-05
sg216
I1
sg217
I8
sa(dp221
g213
I5
sg214
F0.5436217784881592
sg215
F8.0108642578125e-05
sg216
I1
sg217
I7
sasS'total_cqs'
p222
I14
ssI29
(dp223
S'iters'
p224
I1
sS'meta'
p225
(lp226
(dp227
S'objective'
p228
I0
sS'query_time'
p229
F0.010565042495727539
sS'comp_time'
p230
F6.914138793945312e-05
sS'exec_cq'
p231
I2
sS'total_cq'
p232
I2
sasS'total_cqs'
p233
I2
ssI30
(dp234
S'iters'
p235
I1
sS'meta'
p236
(lp237
(dp238
S'objective'
p239
I0
sS'query_time'
p240
F0.47235703468322754
sS'comp_time'
p241
F9.202957153320312e-05
sS'exec_cq'
p242
I1
sS'total_cq'
p243
I2
sasS'total_cqs'
p244
I2
ssI31
(dp245
S'iters'
p246
I7
sS'meta'
p247
(lp248
(dp249
S'objective'
p250
I7
sS'query_time'
p251
F0.34894895553588867
sS'comp_time'
p252
F0.0001232624053955078
sS'exec_cq'
p253
I1
sS'total_cq'
p254
I9
sa(dp255
g250
I4
sg251
F3.984005928039551
sg252
F7.700920104980469e-05
sg253
I1
sg254
I8
sa(dp256
g250
I4
sg251
F3.2410261631011963
sg252
F0.0001537799835205078
sg253
I1
sg254
I6
sa(dp257
g250
I3
sg251
F0.004503965377807617
sg252
F4.792213439941406e-05
sg253
I1
sg254
I5
sa(dp258
g250
I2
sg251
F0.7230560779571533
sg252
F0.00012993812561035156
sg253
I1
sg254
I4
sa(dp259
g250
I1
sg251
F3.6269800662994385
sg252
F0.00011587142944335938
sg253
I1
sg254
I3
sa(dp260
g250
I0
sg251
F0.30368709564208984
sg252
F7.009506225585938e-05
sg253
I1
sg254
I2
sasS'total_cqs'
p261
I9
ssI32
(dp262
S'iters'
p263
I1
sS'meta'
p264
(lp265
(dp266
S'objective'
p267
I5
sS'query_time'
p268
F0.24429893493652344
sS'comp_time'
p269
F7.82012939453125e-05
sS'exec_cq'
p270
I1
sS'total_cq'
p271
I7
sasS'total_cqs'
p272
I7
ssI33
(dp273
S'iters'
p274
I1
sS'meta'
p275
(lp276
(dp277
S'objective'
p278
I0
sS'query_time'
p279
F0.04021310806274414
sS'comp_time'
p280
F7.104873657226562e-05
sS'exec_cq'
p281
I1
sS'total_cq'
p282
I2
sasS'total_cqs'
p283
I2
ssI35
(dp284
S'iters'
p285
I3
sS'meta'
p286
(lp287
(dp288
S'objective'
p289
I3
sS'query_time'
p290
F8.306870937347412
sS'comp_time'
p291
F0.00010991096496582031
sS'exec_cq'
p292
I1
sS'total_cq'
p293
I5
sa(dp294
g289
I0
sg290
F2.0930769443511963
sg291
F0.0002849102020263672
sg292
I1
sg293
I4
sa(dp295
g289
I0
sg290
F2.156108856201172
sg291
F6.604194641113281e-05
sg292
I1
sg293
I2
sasS'total_cqs'
p296
I5
ssI37
(dp297
S'iters'
p298
I5
sS'meta'
p299
(lp300
(dp301
S'objective'
p302
I8
sS'query_time'
p303
F0.8286559581756592
sS'comp_time'
p304
F9.298324584960938e-05
sS'exec_cq'
p305
I1
sS'total_cq'
p306
I10
sa(dp307
g302
I7
sg303
F0.0070879459381103516
sg304
F5.507469177246094e-05
sg305
I1
sg306
I9
sa(dp308
g302
I6
sg303
F0.005795001983642578
sg304
F5.602836608886719e-05
sg305
I1
sg306
I8
sa(dp309
g302
I5
sg303
F0.6648240089416504
sg304
F7.319450378417969e-05
sg305
I1
sg306
I7
sa(dp310
g302
I4
sg303
F0.39306211471557617
sg304
F8.511543273925781e-05
sg305
I2
sg306
I6
sasS'total_cqs'
p311
I10
ssI40
(dp312
S'iters'
p313
I1
sS'meta'
p314
(lp315
(dp316
S'objective'
p317
I0
sS'query_time'
p318
F17.258479833602905
sS'comp_time'
p319
F0.000225067138671875
sS'exec_cq'
p320
I2
sS'total_cq'
p321
I2
sasS'total_cqs'
p322
I2
ssI41
(dp323
S'iters'
p324
I2
sS'meta'
p325
(lp326
(dp327
S'objective'
p328
I2
sS'query_time'
p329
F8.312580108642578
sS'comp_time'
p330
F7.82012939453125e-05
sS'exec_cq'
p331
I1
sS'total_cq'
p332
I6
sa(dp333
g328
I0
sg329
F0.8619949817657471
sg330
F0.00010013580322265625
sg331
I1
sg332
I2
sasS'total_cqs'
p334
I6
ssI42
(dp335
S'iters'
p336
I1
sS'meta'
p337
(lp338
(dp339
S'objective'
p340
I0
sS'query_time'
p341
F17.209555864334106
sS'comp_time'
p342
F0.00015807151794433594
sS'exec_cq'
p343
I1
sS'total_cq'
p344
I2
sasS'total_cqs'
p345
I2
ssI44
(dp346
S'iters'
p347
I3
sS'meta'
p348
(lp349
(dp350
S'objective'
p351
I3
sS'query_time'
p352
F0.014677047729492188
sS'comp_time'
p353
F7.390975952148438e-05
sS'exec_cq'
p354
I1
sS'total_cq'
p355
I5
sa(dp356
g351
I2
sg352
F1.2111620903015137
sg353
F8.20159912109375e-05
sg354
I1
sg355
I4
sa(dp357
g351
I1
sg352
F0.0033202171325683594
sg353
F4.291534423828125e-05
sg354
I1
sg355
I3
sasS'total_cqs'
p358
I5
ssI45
(dp359
S'iters'
p360
I2
sS'meta'
p361
(lp362
(dp363
S'objective'
p364
I1
sS'query_time'
p365
F0.03393387794494629
sS'comp_time'
p366
F8.296966552734375e-05
sS'exec_cq'
p367
I2
sS'total_cq'
p368
I5
sa(dp369
g364
I0
sg365
F0.6805250644683838
sg366
F7.891654968261719e-05
sg367
I2
sg368
I2
sasS'total_cqs'
p370
I5
ssI48
(dp371
S'iters'
p372
I1
sS'meta'
p373
(lp374
(dp375
S'objective'
p376
I0
sS'query_time'
p377
F0.11083102226257324
sS'comp_time'
p378
F8.487701416015625e-05
sS'exec_cq'
p379
I2
sS'total_cq'
p380
I2
sasS'total_cqs'
p381
I2
ssI49
(dp382
S'iters'
p383
I3
sS'meta'
p384
(lp385
(dp386
S'objective'
p387
I1
sS'query_time'
p388
F1.5068891048431396
sS'comp_time'
p389
F0.00014710426330566406
sS'exec_cq'
p390
I1
sS'total_cq'
p391
I5
sa(dp392
g387
I1
sg388
F3.6218509674072266
sg389
F9.799003601074219e-05
sg390
I2
sg391
I3
sa(dp393
g387
I0
sg388
F0.10720586776733398
sg389
F7.605552673339844e-05
sg390
I1
sg391
I2
sasS'total_cqs'
p394
I5
ssI50
(dp395
S'iters'
p396
I3
sS'meta'
p397
(lp398
(dp399
S'objective'
p400
I3
sS'query_time'
p401
F0.28215694427490234
sS'comp_time'
p402
F6.604194641113281e-05
sS'exec_cq'
p403
I1
sS'total_cq'
p404
I5
sa(dp405
g400
I2
sg401
F0.017607927322387695
sg402
F5.91278076171875e-05
sg403
I1
sg404
I4
sa(dp406
g400
I1
sg401
F0.8567709922790527
sg402
F7.581710815429688e-05
sg403
I1
sg404
I3
sasS'total_cqs'
p407
I5
ssI55
(dp408
S'iters'
p409
I1
sS'meta'
p410
(lp411
(dp412
S'objective'
p413
I0
sS'query_time'
p414
F26.123008966445923
sS'comp_time'
p415
F9.679794311523438e-05
sS'exec_cq'
p416
I2
sS'total_cq'
p417
I2
sasS'total_cqs'
p418
I2
ssI57
(dp419
S'iters'
p420
I1
sS'meta'
p421
(lp422
(dp423
S'objective'
p424
I1
sS'query_time'
p425
F12.228739976882935
sS'comp_time'
p426
F0.000164031982421875
sS'exec_cq'
p427
I1
sS'total_cq'
p428
I3
sasS'total_cqs'
p429
I3
ssI116
(dp430
S'iters'
p431
I5
sS'meta'
p432
(lp433
(dp434
S'objective'
p435
I19
sS'query_time'
p436
F0.2157149314880371
sS'comp_time'
p437
F8.702278137207031e-05
sS'exec_cq'
p438
I1
sS'total_cq'
p439
I21
sa(dp440
g435
I18
sg436
F0.3046889305114746
sg437
F0.0001010894775390625
sg438
I1
sg439
I20
sa(dp441
g435
I17
sg436
F1.1365320682525635
sg437
F0.00011086463928222656
sg438
I13
sg439
I19
sa(dp442
g435
I14
sg436
F1.3048670291900635
sg437
F0.00011181831359863281
sg438
I6
sg439
I18
sa(dp443
g435
I0
sg436
F0.2283310890197754
sg437
F0.0001201629638671875
sg438
I1
sg439
I2
sasS'total_cqs'
p444
I21
ssI117
(dp445
S'iters'
p446
I1
sS'meta'
p447
(lp448
(dp449
S'objective'
p450
I3
sS'query_time'
p451
F0.006432056427001953
sS'comp_time'
p452
F6.008148193359375e-05
sS'exec_cq'
p453
I1
sS'total_cq'
p454
I5
sasS'total_cqs'
p455
I5
ss.