(dp0
I1
(dp1
S'iters'
p2
I3
sS'meta'
p3
(lp4
(dp5
S'objective'
p6
I9
sS'query_time'
p7
F25.32634401321411
sS'comp_time'
p8
F0.07785701751708984
sS'exec_cq'
p9
I6
sS'total_cq'
p10
I6
sa(dp11
g6
I9
sg7
F0.009548187255859375
sg8
F1.3369951248168945
sg9
I5
sg10
I5
sa(dp12
g6
I1
sg7
F0.01294398307800293
sg8
F238.61632418632507
sg9
I2
sg10
I2
sasS'total_cqs'
p13
I6
ssI2
(dp14
S'iters'
p15
I1
sS'meta'
p16
(lp17
(dp18
S'objective'
p19
I19
sS'query_time'
p20
F0.8892481327056885
sS'comp_time'
p21
F0.10117292404174805
sS'exec_cq'
p22
I6
sS'total_cq'
p23
I6
sasS'total_cqs'
p24
I6
ssI3
(dp25
S'iters'
p26
I16
sS'meta'
p27
(lp28
(dp29
S'objective'
p30
I413
sS'query_time'
p31
F25.917360067367554
sS'comp_time'
p32
F0.23558402061462402
sS'exec_cq'
p33
I33
sS'total_cq'
p34
I33
sa(dp35
g30
I341
sg31
F0.08751797676086426
sg32
F0.24501800537109375
sg33
I30
sg34
I30
sa(dp36
g30
I280
sg31
F0.035336971282958984
sg32
F0.30246710777282715
sg33
I27
sg34
I27
sa(dp37
g30
I229
sg31
F0.09363818168640137
sg32
F0.22397685050964355
sg33
I24
sg34
I24
sa(dp38
g30
I186
sg31
F0.07639789581298828
sg32
F0.2279059886932373
sg33
I21
sg34
I21
sa(dp39
g30
I167
sg31
F0.031228065490722656
sg32
F0.2566239833831787
sg33
I18
sg34
I18
sa(dp40
g30
I136
sg31
F0.06618309020996094
sg32
F0.20728397369384766
sg33
I16
sg34
I16
sa(dp41
g30
I111
sg31
F0.028316974639892578
sg32
F0.24421095848083496
sg33
I15
sg34
I15
sa(dp42
g30
I86
sg31
F0.06989002227783203
sg32
F0.20155620574951172
sg33
I14
sg34
I14
sa(dp43
g30
I69
sg31
F0.038825035095214844
sg32
F0.07243800163269043
sg33
I11
sg34
I11
sa(dp44
g30
I47
sg31
F0.014750957489013672
sg32
F0.10275793075561523
sg33
I10
sg34
I10
sa(dp45
g30
I35
sg31
F0.0049190521240234375
sg32
F0.029083967208862305
sg33
I7
sg34
I7
sa(dp46
g30
I24
sg31
F0.004467964172363281
sg32
F0.05035591125488281
sg33
I6
sg34
I6
sa(dp47
g30
I12
sg31
F0.004650115966796875
sg32
F0.02941608428955078
sg33
I5
sg34
I5
sa(dp48
g30
I3
sg31
F0.004803895950317383
sg32
F0.04621720314025879
sg33
I4
sg34
I4
sa(dp49
g30
I12
sg31
F0.0025069713592529297
sg32
F0.011428117752075195
sg33
I3
sg34
I3
sasS'total_cqs'
p50
I33
ssI4
(dp51
S'iters'
p52
I0
sS'meta'
p53
(lp54
sS'total_cqs'
p55
I1
ssI5
(dp56
S'iters'
p57
I0
sS'meta'
p58
(lp59
sS'total_cqs'
p60
I1
ssI6
(dp61
S'iters'
p62
I3
sS'meta'
p63
(lp64
(dp65
S'objective'
p66
I1
sS'query_time'
p67
F14.85219407081604
sS'comp_time'
p68
F0.003197908401489258
sS'exec_cq'
p69
I5
sS'total_cq'
p70
I5
sa(dp71
g66
I0
sg67
F0.0006070137023925781
sg68
F0.0018401145935058594
sg69
I3
sg70
I3
sa(dp72
g66
I2
sg67
F0.0002429485321044922
sg68
F0.0014200210571289062
sg69
I2
sg70
I2
sasS'total_cqs'
p73
I5
ssI7
(dp74
S'iters'
p75
I0
sS'meta'
p76
(lp77
sS'total_cqs'
p78
I1
ssI8
(dp79
S'iters'
p80
I5
sS'meta'
p81
(lp82
(dp83
S'objective'
p84
I17
sS'query_time'
p85
F22.864382028579712
sS'comp_time'
p86
F0.28493595123291016
sS'exec_cq'
p87
I6
sS'total_cq'
p88
I6
sa(dp89
g84
I7
sg85
F1.5814340114593506
sg86
F1.646907091140747
sg87
I5
sg88
I5
sa(dp90
g84
I3
sg85
F1.6008658409118652
sg86
F1.6520740985870361
sg87
I4
sg88
I4
sa(dp91
g84
I0
sg85
F21.874430894851685
sg86
F21.719442129135132
sg87
I3
sg88
I3
sa(dp92
g84
I2
sg85
F0.0030510425567626953
sg86
F0.002441883087158203
sg87
I2
sg88
I2
sasS'total_cqs'
p93
I6
ssI9
(dp94
S'iters'
p95
I4
sS'meta'
p96
(lp97
(dp98
S'objective'
p99
I1
sS'query_time'
p100
F53.00295901298523
sS'comp_time'
p101
F4.202168941497803
sS'exec_cq'
p102
I6
sS'total_cq'
p103
I6
sa(dp104
g99
I4
sg100
F0.884598970413208
sg101
F3.406189203262329
sg102
I4
sg103
I4
sa(dp105
g99
I1
sg100
F0.007642030715942383
sg101
F0.22802209854125977
sg102
I3
sg103
I3
sa(dp106
g99
I1
sg100
F0.008732080459594727
sg101
F0.0363459587097168
sg102
I2
sg103
I2
sasS'total_cqs'
p107
I6
ssI10
(dp108
S'iters'
p109
I0
sS'meta'
p110
(lp111
sS'total_cqs'
p112
I1
ssI11
(dp113
S'iters'
p114
I0
sS'meta'
p115
(lp116
sS'total_cqs'
p117
I1
ssI12
(dp118
S'iters'
p119
I0
sS'meta'
p120
(lp121
sS'total_cqs'
p122
I1
ssI13
(dp123
S'iters'
p124
I2
sS'meta'
p125
(lp126
(dp127
S'objective'
p128
I26
sS'query_time'
p129
F0.036132097244262695
sS'comp_time'
p130
F0.00015091896057128906
sS'exec_cq'
p131
I8
sS'total_cq'
p132
I8
sa(dp133
g128
I29
sg129
F3.218650817871094e-05
sg130
F5.412101745605469e-05
sg131
I7
sg132
I7
sasS'total_cqs'
p134
I8
ssI14
(dp135
S'iters'
p136
I3
sS'meta'
p137
(lp138
(dp139
S'objective'
p140
I9
sS'query_time'
p141
F1.117630958557129
sS'comp_time'
p142
F0.0074040889739990234
sS'exec_cq'
p143
I5
sS'total_cq'
p144
I5
sa(dp145
g140
I8
sg141
F0.0006821155548095703
sg142
F0.003386974334716797
sg143
I4
sg144
I4
sa(dp146
g140
I8
sg141
F0.0005190372467041016
sg142
F0.0028989315032958984
sg143
I3
sg144
I3
sasS'total_cqs'
p147
I5
ssI16
(dp148
S'iters'
p149
I3
sS'meta'
p150
(lp151
(dp152
S'objective'
p153
I1
sS'query_time'
p154
F1.5405449867248535
sS'comp_time'
p155
F0.007016897201538086
sS'exec_cq'
p156
I5
sS'total_cq'
p157
I5
sa(dp158
g153
I1
sg154
F0.000102996826171875
sg155
F0.00046372413635253906
sg156
I3
sg157
I3
sa(dp159
g153
I1
sg154
F3.886222839355469e-05
sg155
F0.00019097328186035156
sg156
I2
sg157
I2
sasS'total_cqs'
p160
I5
ssI17
(dp161
S'iters'
p162
I0
sS'meta'
p163
(lp164
sS'total_cqs'
p165
I1
ssI18
(dp166
S'iters'
p167
I3
sS'meta'
p168
(lp169
(dp170
S'objective'
p171
I1
sS'query_time'
p172
F0.3582160472869873
sS'comp_time'
p173
F0.0002980232238769531
sS'exec_cq'
p174
I5
sS'total_cq'
p175
I5
sa(dp176
g171
I1
sg172
F5.0067901611328125e-05
sg173
F0.00017905235290527344
sg174
I3
sg175
I3
sa(dp177
g171
I1
sg172
F3.0994415283203125e-05
sg173
F0.00012612342834472656
sg174
I2
sg175
I2
sasS'total_cqs'
p178
I5
ssI19
(dp179
S'iters'
p180
I0
sS'meta'
p181
(lp182
sS'total_cqs'
p183
I1
ssI20
(dp184
S'iters'
p185
I6
sS'meta'
p186
(lp187
(dp188
S'objective'
p189
I44
sS'query_time'
p190
F11.92890214920044
sS'comp_time'
p191
F1.4048120975494385
sS'exec_cq'
p192
I12
sS'total_cq'
p193
I12
sa(dp194
g189
I33
sg190
F0.3061819076538086
sg191
F1.101579189300537
sg192
I10
sg193
I10
sa(dp195
g189
I27
sg190
F0.2597980499267578
sg191
F1.084907054901123
sg192
I8
sg193
I8
sa(dp196
g189
I19
sg190
F0.24694180488586426
sg191
F0.8503797054290771
sg192
I6
sg193
I6
sa(dp197
g189
I18
sg190
F0.02901911735534668
sg191
F0.2852189540863037
sg192
I5
sg193
I5
sa(dp198
g189
I21
sg190
F0.0009109973907470703
sg191
F0.003640890121459961
sg192
I4
sg193
I4
sasS'total_cqs'
p199
I12
ssI21
(dp200
S'iters'
p201
I5
sS'meta'
p202
(lp203
(dp204
S'objective'
p205
I19
sS'query_time'
p206
F30.923758029937744
sS'comp_time'
p207
F0.24663329124450684
sS'exec_cq'
p208
I14
sS'total_cq'
p209
I14
sa(dp210
g205
I4
sg206
F0.016407012939453125
sg207
F0.24122095108032227
sg208
I10
sg209
I10
sa(dp211
g205
I13
sg206
F0.014777183532714844
sg207
F0.1104729175567627
sg208
I6
sg209
I6
sa(dp212
g205
I4
sg206
F0.01166987419128418
sg207
F0.09576606750488281
sg208
I4
sg209
I4
sa(dp213
g205
I1
sg206
F0.004786014556884766
sg207
F0.018644094467163086
sg208
I2
sg209
I2
sasS'total_cqs'
p214
I14
ssI22
(dp215
S'iters'
p216
I1
sS'meta'
p217
(lp218
(dp219
S'objective'
p220
I1
sS'query_time'
p221
F0.007330894470214844
sS'comp_time'
p222
F0.00012874603271484375
sS'exec_cq'
p223
I2
sS'total_cq'
p224
I2
sasS'total_cqs'
p225
I2
ssI23
(dp226
S'iters'
p227
I0
sS'meta'
p228
(lp229
sS'total_cqs'
p230
I1
ssI24
(dp231
S'iters'
p232
I0
sS'meta'
p233
(lp234
sS'total_cqs'
p235
I1
ssI25
(dp236
S'iters'
p237
I3
sS'meta'
p238
(lp239
(dp240
S'objective'
p241
I14
sS'query_time'
p242
F50.1283597946167
sS'comp_time'
p243
F3.124675750732422
sS'exec_cq'
p244
I7
sS'total_cq'
p245
I7
sa(dp246
g241
I7
sg242
F0.011323928833007812
sg243
F0.39148688316345215
sg244
I5
sg245
I5
sa(dp247
g241
I12
sg242
F0.0010039806365966797
sg243
F0.006567955017089844
sg244
I3
sg245
I3
sasS'total_cqs'
p248
I7
ssI26
(dp249
S'iters'
p250
I9
sS'meta'
p251
(lp252
(dp253
S'objective'
p254
I57
sS'query_time'
p255
F24.456944942474365
sS'comp_time'
p256
F3.4214718341827393
sS'exec_cq'
p257
I13
sS'total_cq'
p258
I13
sa(dp259
g254
I40
sg255
F0.7673778533935547
sg256
F3.192232131958008
sg257
I11
sg258
I11
sa(dp260
g254
I31
sg255
F0.7691800594329834
sg256
F2.941314935684204
sg257
I9
sg258
I9
sa(dp261
g254
I20
sg255
F0.8334660530090332
sg256
F2.9995808601379395
sg257
I7
sg258
I7
sa(dp262
g254
I14
sg255
F0.0016789436340332031
sg256
F0.0072231292724609375
sg257
I6
sg258
I6
sa(dp263
g254
I7
sg255
F0.001132965087890625
sg256
F0.005861043930053711
sg257
I5
sg258
I5
sa(dp264
g254
I3
sg255
F0.0009708404541015625
sg256
F0.0048007965087890625
sg257
I4
sg258
I4
sa(dp265
g254
I1
sg255
F0.0006539821624755859
sg256
F0.004225969314575195
sg257
I3
sg258
I3
sa(dp266
g254
I2
sg255
F0.00019311904907226562
sg256
F0.0009429454803466797
sg257
I2
sg258
I2
sasS'total_cqs'
p267
I13
ssI27
(dp268
S'iters'
p269
I1
sS'meta'
p270
(lp271
(dp272
S'objective'
p273
I1
sS'query_time'
p274
F0.17682909965515137
sS'comp_time'
p275
F0.0036520957946777344
sS'exec_cq'
p276
I2
sS'total_cq'
p277
I2
sasS'total_cqs'
p278
I2
ssI28
(dp279
S'iters'
p280
I7
sS'meta'
p281
(lp282
(dp283
S'objective'
p284
I33
sS'query_time'
p285
F1.702854871749878
sS'comp_time'
p286
F0.025703907012939453
sS'exec_cq'
p287
I14
sS'total_cq'
p288
I14
sa(dp289
g284
I9
sg285
F0.003576993942260742
sg286
F0.018481016159057617
sg287
I10
sg288
I10
sa(dp290
g284
I11
sg285
F0.0029900074005126953
sg286
F0.04138588905334473
sg287
I7
sg288
I7
sa(dp291
g284
I5
sg285
F0.003631114959716797
sg286
F0.020699024200439453
sg287
I6
sg288
I6
sa(dp292
g284
I1
sg285
F0.00040602684020996094
sg286
F0.0022721290588378906
sg287
I5
sg288
I5
sa(dp293
g284
I1
sg285
F9.393692016601562e-05
sg286
F0.0004947185516357422
sg287
I3
sg288
I3
sa(dp294
g284
I1
sg285
F2.09808349609375e-05
sg286
F7.414817810058594e-05
sg287
I2
sg288
I2
sasS'total_cqs'
p295
I14
ssI29
(dp296
S'iters'
p297
I1
sS'meta'
p298
(lp299
(dp300
S'objective'
p301
I1
sS'query_time'
p302
F0.011422872543334961
sS'comp_time'
p303
F0.00012803077697753906
sS'exec_cq'
p304
I2
sS'total_cq'
p305
I2
sasS'total_cqs'
p306
I2
ssI30
(dp307
S'iters'
p308
I1
sS'meta'
p309
(lp310
(dp311
S'objective'
p312
I1
sS'query_time'
p313
F0.4065070152282715
sS'comp_time'
p314
F0.0048580169677734375
sS'exec_cq'
p315
I2
sS'total_cq'
p316
I2
sasS'total_cqs'
p317
I2
ssI31
(dp318
S'iters'
p319
I4
sS'meta'
p320
(lp321
(dp322
S'objective'
p323
I19
sS'query_time'
p324
F6.142922878265381
sS'comp_time'
p325
F0.1953580379486084
sS'exec_cq'
p326
I9
sS'total_cq'
p327
I9
sa(dp328
g323
I12
sg324
F0.035362958908081055
sg325
F0.1811068058013916
sg326
I7
sg327
I7
sa(dp329
g323
I4
sg324
F0.008002042770385742
sg325
F0.026018142700195312
sg326
I3
sg327
I3
sa(dp330
g323
I1
sg324
F0.0030570030212402344
sg325
F0.013347864151000977
sg326
I2
sg327
I2
sasS'total_cqs'
p331
I9
ssI32
(dp332
S'iters'
p333
I4
sS'meta'
p334
(lp335
(dp336
S'objective'
p337
I0
sS'query_time'
p338
F19.514967918395996
sS'comp_time'
p339
F2.9035520553588867
sS'exec_cq'
p340
I7
sS'total_cq'
p341
I7
sa(dp342
g337
I2
sg338
F0.03910088539123535
sg339
F0.3863251209259033
sg340
I4
sg341
I4
sa(dp343
g337
I0
sg338
F0.09207391738891602
sg339
F0.21293210983276367
sg340
I3
sg341
I3
sa(dp344
g337
I2
sg338
F0.08499789237976074
sg339
F0.19870781898498535
sg340
I2
sg341
I2
sasS'total_cqs'
p345
I7
ssI33
(dp346
S'iters'
p347
I1
sS'meta'
p348
(lp349
(dp350
S'objective'
p351
I1
sS'query_time'
p352
F0.055526018142700195
sS'comp_time'
p353
F0.000141143798828125
sS'exec_cq'
p354
I2
sS'total_cq'
p355
I2
sasS'total_cqs'
p356
I2
ssI34
(dp357
S'iters'
p358
I0
sS'meta'
p359
(lp360
sS'total_cqs'
p361
I1
ssI35
(dp362
S'iters'
p363
I3
sS'meta'
p364
(lp365
(dp366
S'objective'
p367
I1
sS'query_time'
p368
F16.271185159683228
sS'comp_time'
p369
F0.23450303077697754
sS'exec_cq'
p370
I5
sS'total_cq'
p371
I5
sa(dp372
g367
I0
sg368
F0.054904937744140625
sg369
F0.24204206466674805
sg370
I3
sg371
I3
sa(dp373
g367
I2
sg368
F0.017261028289794922
sg369
F0.08338713645935059
sg370
I2
sg371
I2
sasS'total_cqs'
p374
I5
ssI37
(dp375
S'iters'
p376
I3
sS'meta'
p377
(lp378
(dp379
S'objective'
p380
I25
sS'query_time'
p381
F2.5324881076812744
sS'comp_time'
p382
F0.143571138381958
sS'exec_cq'
p383
I10
sS'total_cq'
p384
I10
sa(dp385
g380
I1
sg381
F0.03192496299743652
sg382
F0.04451918601989746
sg383
I3
sg384
I3
sa(dp386
g380
I5
sg381
F0.008162975311279297
sg382
F0.03661394119262695
sg383
I2
sg384
I2
sasS'total_cqs'
p387
I10
ssI38
(dp388
S'iters'
p389
I0
sS'meta'
p390
(lp391
sS'total_cqs'
p392
I1
ssI39
(dp393
S'iters'
p394
I0
sS'meta'
p395
(lp396
sS'total_cqs'
p397
I1
ssI40
(dp398
S'iters'
p399
I1
sS'meta'
p400
(lp401
(dp402
S'objective'
p403
I1
sS'query_time'
p404
F17.3319890499115
sS'comp_time'
p405
F2.564060926437378
sS'exec_cq'
p406
I2
sS'total_cq'
p407
I2
sasS'total_cqs'
p408
I2
ssI41
(dp409
S'iters'
p410
I3
sS'meta'
p411
(lp412
(dp413
S'objective'
p414
I5
sS'query_time'
p415
F12.071211099624634
sS'comp_time'
p416
F1.1657578945159912
sS'exec_cq'
p417
I6
sS'total_cq'
p418
I6
sa(dp419
g414
I0
sg415
F0.0019500255584716797
sg416
F0.006929874420166016
sg417
I3
sg418
I3
sa(dp420
g414
I2
sg415
F0.0007140636444091797
sg416
F0.0033960342407226562
sg417
I2
sg418
I2
sasS'total_cqs'
p421
I6
ssI42
(dp422
S'iters'
p423
I1
sS'meta'
p424
(lp425
(dp426
S'objective'
p427
I1
sS'query_time'
p428
F17.567063093185425
sS'comp_time'
p429
F2.7311060428619385
sS'exec_cq'
p430
I2
sS'total_cq'
p431
I2
sasS'total_cqs'
p432
I2
ssI43
(dp433
S'iters'
p434
I0
sS'meta'
p435
(lp436
sS'total_cqs'
p437
I1
ssI44
(dp438
S'iters'
p439
I3
sS'meta'
p440
(lp441
(dp442
S'objective'
p443
I3
sS'query_time'
p444
F1.5743281841278076
sS'comp_time'
p445
F0.11461901664733887
sS'exec_cq'
p446
I5
sS'total_cq'
p447
I5
sa(dp448
g443
I0
sg444
F0.018560171127319336
sg445
F0.14999175071716309
sg446
I3
sg447
I3
sa(dp449
g443
I1
sg444
F0.012212038040161133
sg445
F0.09748315811157227
sg446
I2
sg447
I2
sasS'total_cqs'
p450
I5
ssI45
(dp451
S'iters'
p452
I2
sS'meta'
p453
(lp454
(dp455
S'objective'
p456
I7
sS'query_time'
p457
F0.04762601852416992
sS'comp_time'
p458
F0.0008668899536132812
sS'exec_cq'
p459
I5
sS'total_cq'
p460
I5
sa(dp461
g456
I2
sg457
F0.0001537799835205078
sg458
F0.0004897117614746094
sg459
I2
sg460
I2
sasS'total_cqs'
p462
I5
ssI46
(dp463
S'iters'
p464
I0
sS'meta'
p465
(lp466
sS'total_cqs'
p467
I1
ssI47
(dp468
S'iters'
p469
I0
sS'meta'
p470
(lp471
sS'total_cqs'
p472
I1
ssI48
(dp473
S'iters'
p474
I1
sS'meta'
p475
(lp476
(dp477
S'objective'
p478
I1
sS'query_time'
p479
F0.12597990036010742
sS'comp_time'
p480
F0.006105184555053711
sS'exec_cq'
p481
I2
sS'total_cq'
p482
I2
sasS'total_cqs'
p483
I2
ssI49
(dp484
S'iters'
p485
I3
sS'meta'
p486
(lp487
(dp488
S'objective'
p489
I1
sS'query_time'
p490
F0.243513822555542
sS'comp_time'
p491
F0.002268075942993164
sS'exec_cq'
p492
I5
sS'total_cq'
p493
I5
sa(dp494
g489
I2
sg490
F0.0002970695495605469
sg491
F0.0016777515411376953
sg492
I3
sg493
I3
sa(dp495
g489
I1
sg490
F0.00024318695068359375
sg491
F0.0014657974243164062
sg492
I2
sg493
I2
sasS'total_cqs'
p496
I5
ssI50
(dp497
S'iters'
p498
I4
sS'meta'
p499
(lp500
(dp501
S'objective'
p502
I5
sS'query_time'
p503
F0.926732063293457
sS'comp_time'
p504
F0.001405954360961914
sS'exec_cq'
p505
I5
sS'total_cq'
p506
I5
sa(dp507
g502
I2
sg503
F0.0001690387725830078
sg504
F0.0009679794311523438
sg505
I4
sg506
I4
sa(dp508
g502
I0
sg503
F0.00011205673217773438
sg504
F0.0007429122924804688
sg505
I3
sg506
I3
sa(dp509
g502
I1
sg503
F0.00011396408081054688
sg504
F0.0006549358367919922
sg505
I2
sg506
I2
sasS'total_cqs'
p510
I5
ssI51
(dp511
S'iters'
p512
I0
sS'meta'
p513
(lp514
sS'total_cqs'
p515
I1
ssI52
(dp516
S'iters'
p517
I0
sS'meta'
p518
(lp519
sS'total_cqs'
p520
I1
ssI53
(dp521
S'iters'
p522
I0
sS'meta'
p523
(lp524
sS'total_cqs'
p525
I1
ssI55
(dp526
S'iters'
p527
I1
sS'meta'
p528
(lp529
(dp530
S'objective'
p531
I1
sS'query_time'
p532
F26.183874130249023
sS'comp_time'
p533
F3.8317060470581055
sS'exec_cq'
p534
I2
sS'total_cq'
p535
I2
sasS'total_cqs'
p536
I2
ssI56
(dp537
S'iters'
p538
I0
sS'meta'
p539
(lp540
sS'total_cqs'
p541
I1
ssI57
(dp542
S'iters'
p543
I2
sS'meta'
p544
(lp545
(dp546
S'objective'
p547
I0
sS'query_time'
p548
F13.835286140441895
sS'comp_time'
p549
F1.652966022491455
sS'exec_cq'
p550
I3
sS'total_cq'
p551
I3
sa(dp552
g547
I1
sg548
F0.29784393310546875
sg549
F1.3229732513427734
sg550
I2
sg551
I2
sasS'total_cqs'
p553
I3
ssI108
(dp554
S'iters'
p555
I0
sS'meta'
p556
(lp557
sS'total_cqs'
p558
I1
ssI109
(dp559
S'iters'
p560
I0
sS'meta'
p561
(lp562
sS'total_cqs'
p563
I1
ssI116
(dp564
S'iters'
p565
I3
sS'meta'
p566
(lp567
(dp568
S'objective'
p569
I159
sS'query_time'
p570
F5.278648138046265
sS'comp_time'
p571
F0.2877159118652344
sS'exec_cq'
p572
I21
sS'total_cq'
p573
I21
sa(dp574
g569
I0
sg570
F0.0014219284057617188
sg571
F0.00424504280090332
sg572
I3
sg573
I3
sa(dp575
g569
I16
sg570
F0.0007340908050537109
sg571
F0.002743959426879883
sg572
I2
sg573
I2
sasS'total_cqs'
p576
I21
ssI117
(dp577
S'iters'
p578
I2
sS'meta'
p579
(lp580
(dp581
S'objective'
p582
I9
sS'query_time'
p583
F0.020674943923950195
sS'comp_time'
p584
F0.00013899803161621094
sS'exec_cq'
p585
I5
sS'total_cq'
p586
I5
sa(dp587
g582
I10
sg583
F2.3126602172851562e-05
sg584
F4.9114227294921875e-05
sg585
I4
sg586
I4
sasS'total_cqs'
p588
I5
ssI118
(dp589
S'iters'
p590
I0
sS'meta'
p591
(lp592
sS'total_cqs'
p593
I1
ssI122
(dp594
S'iters'
p595
I0
sS'meta'
p596
(lp597
sS'total_cqs'
p598
I1
ss.