(dp0
I1
(dp1
S'iters'
p2
I3
sS'meta'
p3
(lp4
(dp5
S'objective'
p6
I2
sS'query_time'
p7
F5.571540117263794
sS'comp_time'
p8
F8.535385131835938e-05
sS'exec_cq'
p9
I1
sS'total_cq'
p10
I6
sa(dp11
g6
I0
sg7
F15.896950006484985
sg8
F0.00027108192443847656
sg9
I1
sg10
I4
sa(dp12
g6
I0
sg7
F25.903352975845337
sg8
F0.00013399124145507812
sg9
I2
sg10
I2
sasS'total_cqs'
p13
I6
ssI2
(dp14
S'iters'
p15
I1
sS'meta'
p16
(lp17
(dp18
S'objective'
p19
I4
sS'query_time'
p20
F1.0875420570373535
sS'comp_time'
p21
F8.225440979003906e-05
sS'exec_cq'
p22
I5
sS'total_cq'
p23
I6
sasS'total_cqs'
p24
I6
ssI3
(dp25
S'iters'
p26
I13
sS'meta'
p27
(lp28
(dp29
S'objective'
p30
I27
sS'query_time'
p31
F1.3021941184997559
sS'comp_time'
p32
F0.0001049041748046875
sS'exec_cq'
p33
I1
sS'total_cq'
p34
I33
sa(dp35
g30
I26
sg31
F0.023660898208618164
sg32
F6.794929504394531e-05
sg33
I1
sg34
I30
sa(dp36
g30
I26
sg31
F0.01816415786743164
sg32
F7.796287536621094e-05
sg33
I1
sg34
I28
sa(dp37
g30
I23
sg31
F0.11137104034423828
sg32
F0.00010514259338378906
sg33
I1
sg34
I27
sa(dp38
g30
I23
sg31
F0.16647601127624512
sg32
F7.128715515136719e-05
sg33
I1
sg34
I25
sa(dp39
g30
I18
sg31
F0.01657700538635254
sg32
F7.319450378417969e-05
sg33
I1
sg34
I24
sa(dp40
g30
I17
sg31
F0.014872074127197266
sg32
F0.00011324882507324219
sg33
I1
sg34
I21
sa(dp41
g30
I13
sg31
F0.037529945373535156
sg32
F7.081031799316406e-05
sg33
I1
sg34
I19
sa(dp42
g30
I14
sg31
F0.0026140213012695312
sg32
F4.7206878662109375e-05
sg33
I1
sg34
I16
sa(dp43
g30
I13
sg31
F6.689537048339844
sg32
F8.916854858398438e-05
sg33
I1
sg34
I15
sa(dp44
g30
I12
sg31
F0.034073829650878906
sg32
F6.580352783203125e-05
sg33
I1
sg34
I14
sa(dp45
g30
I11
sg31
F0.006391048431396484
sg32
F5.984306335449219e-05
sg33
I1
sg34
I13
sa(dp46
g30
I10
sg31
F0.17273688316345215
sg32
F6.794929504394531e-05
sg33
I1
sg34
I12
sasS'total_cqs'
p47
I33
ssI6
(dp48
S'iters'
p49
I2
sS'meta'
p50
(lp51
(dp52
S'objective'
p53
I1
sS'query_time'
p54
F5.351518869400024
sS'comp_time'
p55
F0.00010704994201660156
sS'exec_cq'
p56
I1
sS'total_cq'
p57
I5
sa(dp58
g53
I1
sg54
F3.822512149810791
sg55
F9.584426879882812e-05
sg56
I1
sg57
I3
sasS'total_cqs'
p59
I5
ssI8
(dp60
S'iters'
p61
I4
sS'meta'
p62
(lp63
(dp64
S'objective'
p65
I4
sS'query_time'
p66
F2.892303943634033
sS'comp_time'
p67
F0.00020503997802734375
sS'exec_cq'
p68
I1
sS'total_cq'
p69
I6
sa(dp70
g65
I1
sg66
F61.9501690864563
sg67
F0.00018596649169921875
sg68
I3
sg69
I5
sa(dp71
g65
I1
sg66
F21.65769910812378
sg67
F0.00024890899658203125
sg68
I3
sg69
I3
sa(dp72
g65
I0
sg66
F0.06322288513183594
sg67
F0.00014901161193847656
sg68
I2
sg69
I2
sasS'total_cqs'
p73
I6
ssI9
(dp74
S'iters'
p75
I2
sS'meta'
p76
(lp77
(dp78
S'objective'
p79
I2
sS'query_time'
p80
F4.658987045288086
sS'comp_time'
p81
F9.584426879882812e-05
sS'exec_cq'
p82
I1
sS'total_cq'
p83
I6
sa(dp84
g79
I0
sg80
F10.552354097366333
sg81
F0.0006439685821533203
sg82
I1
sg83
I2
sasS'total_cqs'
p85
I6
ssI13
(dp86
S'iters'
p87
I2
sS'meta'
p88
(lp89
(dp90
S'objective'
p91
I6
sS'query_time'
p92
F10.065263032913208
sS'comp_time'
p93
F0.0001430511474609375
sS'exec_cq'
p94
I2
sS'total_cq'
p95
I8
sa(dp96
g91
I5
sg92
F0.20304417610168457
sg93
F7.796287536621094e-05
sg94
I4
sg95
I7
sasS'total_cqs'
p97
I8
ssI14
(dp98
S'iters'
p99
I1
sS'meta'
p100
(lp101
(dp102
S'objective'
p103
I3
sS'query_time'
p104
F1.2713370323181152
sS'comp_time'
p105
F8.106231689453125e-05
sS'exec_cq'
p106
I1
sS'total_cq'
p107
I5
sasS'total_cqs'
p108
I5
ssI16
(dp109
S'iters'
p110
I3
sS'meta'
p111
(lp112
(dp113
S'objective'
p114
I1
sS'query_time'
p115
F4.399562835693359
sS'comp_time'
p116
F0.00011205673217773438
sS'exec_cq'
p117
I1
sS'total_cq'
p118
I5
sa(dp119
g114
I1
sg115
F0.06528306007385254
sg116
F7.700920104980469e-05
sg117
I1
sg118
I3
sa(dp120
g114
I0
sg115
F0.06284189224243164
sg116
F6.914138793945312e-05
sg117
I1
sg118
I2
sasS'total_cqs'
p121
I5
ssI18
(dp122
S'iters'
p123
I3
sS'meta'
p124
(lp125
(dp126
S'objective'
p127
I1
sS'query_time'
p128
F2.6736369132995605
sS'comp_time'
p129
F0.00010991096496582031
sS'exec_cq'
p130
I1
sS'total_cq'
p131
I5
sa(dp132
g127
I1
sg128
F0.2976570129394531
sg129
F0.00011396408081054688
sg130
I1
sg131
I3
sa(dp133
g127
I0
sg128
F0.1200551986694336
sg129
F0.00010609626770019531
sg130
I1
sg131
I2
sasS'total_cqs'
p134
I5
ssI20
(dp135
S'iters'
p136
I2
sS'meta'
p137
(lp138
(dp139
S'objective'
p140
I8
sS'query_time'
p141
F7.200418949127197
sS'comp_time'
p142
F0.00011801719665527344
sS'exec_cq'
p143
I1
sS'total_cq'
p144
I12
sa(dp145
g140
I8
sg141
F0.1141819953918457
sg142
F8.988380432128906e-05
sg143
I1
sg144
I10
sasS'total_cqs'
p146
I12
ssI21
(dp147
S'iters'
p148
I5
sS'meta'
p149
(lp150
(dp151
S'objective'
p152
I12
sS'query_time'
p153
F25.379889011383057
sS'comp_time'
p154
F9.703636169433594e-05
sS'exec_cq'
p155
I2
sS'total_cq'
p156
I14
sa(dp157
g152
I9
sg153
F0.09405183792114258
sg154
F7.200241088867188e-05
sg155
I1
sg156
I13
sa(dp158
g152
I3
sg153
F2.000322103500366
sg154
F0.00012922286987304688
sg155
I1
sg156
I11
sa(dp159
g152
I3
sg153
F0.5098459720611572
sg154
F6.604194641113281e-05
sg155
I1
sg156
I7
sa(dp160
g152
I3
sg153
F0.01703190803527832
sg154
F0.0001010894775390625
sg155
I1
sg156
I5
sasS'total_cqs'
p161
I14
ssI22
(dp162
S'iters'
p163
I1
sS'meta'
p164
(lp165
(dp166
S'objective'
p167
I0
sS'query_time'
p168
F0.0039060115814208984
sS'comp_time'
p169
F5.5789947509765625e-05
sS'exec_cq'
p170
I1
sS'total_cq'
p171
I2
sasS'total_cqs'
p172
I2
ssI25
(dp173
S'iters'
p174
I2
sS'meta'
p175
(lp176
(dp177
S'objective'
p178
I3
sS'query_time'
p179
F8.29115104675293
sS'comp_time'
p180
F0.00010180473327636719
sS'exec_cq'
p181
I1
sS'total_cq'
p182
I7
sa(dp183
g178
I3
sg179
F0.2509331703186035
sg180
F0.0003440380096435547
sg181
I1
sg182
I5
sasS'total_cqs'
p184
I7
ssI26
(dp185
S'iters'
p186
I1
sS'meta'
p187
(lp188
(dp189
S'objective'
p190
I11
sS'query_time'
p191
F0.06620001792907715
sS'comp_time'
p192
F9.489059448242188e-05
sS'exec_cq'
p193
I1
sS'total_cq'
p194
I13
sasS'total_cqs'
p195
I13
ssI27
(dp196
S'iters'
p197
I1
sS'meta'
p198
(lp199
(dp200
S'objective'
p201
I0
sS'query_time'
p202
F0.14299893379211426
sS'comp_time'
p203
F7.700920104980469e-05
sS'exec_cq'
p204
I2
sS'total_cq'
p205
I2
sasS'total_cqs'
p206
I2
ssI28
(dp207
S'iters'
p208
I3
sS'meta'
p209
(lp210
(dp211
S'objective'
p212
I4
sS'query_time'
p213
F2.3948888778686523
sS'comp_time'
p214
F0.0001049041748046875
sS'exec_cq'
p215
I1
sS'total_cq'
p216
I14
sa(dp217
g212
I7
sg213
F1.2152249813079834
sg214
F0.00010013580322265625
sg215
I1
sg216
I9
sa(dp218
g212
I6
sg213
F1.0721008777618408
sg214
F8.416175842285156e-05
sg215
I1
sg216
I8
sasS'total_cqs'
p219
I14
ssI29
(dp220
S'iters'
p221
I1
sS'meta'
p222
(lp223
(dp224
S'objective'
p225
I0
sS'query_time'
p226
F0.005110979080200195
sS'comp_time'
p227
F6.222724914550781e-05
sS'exec_cq'
p228
I2
sS'total_cq'
p229
I2
sasS'total_cqs'
p230
I2
ssI30
(dp231
S'iters'
p232
I1
sS'meta'
p233
(lp234
(dp235
S'objective'
p236
I0
sS'query_time'
p237
F0.5680091381072998
sS'comp_time'
p238
F8.702278137207031e-05
sS'exec_cq'
p239
I2
sS'total_cq'
p240
I2
sasS'total_cqs'
p241
I2
ssI31
(dp242
S'iters'
p243
I4
sS'meta'
p244
(lp245
(dp246
S'objective'
p247
I7
sS'query_time'
p248
F0.012074947357177734
sS'comp_time'
p249
F8.893013000488281e-05
sS'exec_cq'
p250
I1
sS'total_cq'
p251
I9
sa(dp252
g247
I4
sg248
F4.6786768436431885
sg249
F9.226799011230469e-05
sg250
I1
sg251
I8
sa(dp253
g247
I2
sg248
F4.95353102684021
sg249
F0.00010085105895996094
sg250
I1
sg251
I6
sa(dp254
g247
I2
sg248
F0.3945579528808594
sg249
F8.606910705566406e-05
sg250
I1
sg251
I4
sasS'total_cqs'
p255
I9
ssI32
(dp256
S'iters'
p257
I4
sS'meta'
p258
(lp259
(dp260
S'objective'
p261
I5
sS'query_time'
p262
F9.327953100204468
sS'comp_time'
p263
F0.0001518726348876953
sS'exec_cq'
p264
I1
sS'total_cq'
p265
I7
sa(dp266
g261
I2
sg262
F0.5739560127258301
sg263
F7.414817810058594e-05
sg264
I1
sg265
I6
sa(dp267
g261
I2
sg262
F1.5751547813415527
sg263
F7.009506225585938e-05
sg264
I1
sg265
I4
sa(dp268
g261
I1
sg262
F0.10561013221740723
sg263
F6.699562072753906e-05
sg264
I1
sg265
I3
sasS'total_cqs'
p269
I7
ssI33
(dp270
S'iters'
p271
I1
sS'meta'
p272
(lp273
(dp274
S'objective'
p275
I0
sS'query_time'
p276
F0.04229116439819336
sS'comp_time'
p277
F0.00010204315185546875
sS'exec_cq'
p278
I2
sS'total_cq'
p279
I2
sasS'total_cqs'
p280
I2
ssI35
(dp281
S'iters'
p282
I3
sS'meta'
p283
(lp284
(dp285
S'objective'
p286
I1
sS'query_time'
p287
F7.2158849239349365
sS'comp_time'
p288
F0.00010800361633300781
sS'exec_cq'
p289
I1
sS'total_cq'
p290
I5
sa(dp291
g286
I1
sg287
F5.777467966079712
sg288
F0.00016689300537109375
sg289
I1
sg290
I3
sa(dp292
g286
I0
sg287
F0.9045860767364502
sg288
F7.677078247070312e-05
sg289
I1
sg290
I2
sasS'total_cqs'
p293
I5
ssI37
(dp294
S'iters'
p295
I2
sS'meta'
p296
(lp297
(dp298
S'objective'
p299
I6
sS'query_time'
p300
F10.636314868927002
sS'comp_time'
p301
F8.106231689453125e-05
sS'exec_cq'
p302
I2
sS'total_cq'
p303
I10
sa(dp304
g299
I0
sg300
F0.2836010456085205
sg301
F0.00010013580322265625
sg302
I1
sg303
I2
sasS'total_cqs'
p305
I10
ssI40
(dp306
S'iters'
p307
I1
sS'meta'
p308
(lp309
(dp310
S'objective'
p311
I0
sS'query_time'
p312
F18.453758001327515
sS'comp_time'
p313
F0.000286102294921875
sS'exec_cq'
p314
I2
sS'total_cq'
p315
I2
sasS'total_cqs'
p316
I2
ssI41
(dp317
S'iters'
p318
I4
sS'meta'
p319
(lp320
(dp321
S'objective'
p322
I4
sS'query_time'
p323
F1.7303011417388916
sS'comp_time'
p324
F8.797645568847656e-05
sS'exec_cq'
p325
I1
sS'total_cq'
p326
I6
sa(dp327
g322
I3
sg323
F10.087838888168335
sg324
F8.988380432128906e-05
sg325
I1
sg326
I5
sa(dp328
g322
I2
sg323
F0.21068310737609863
sg324
F5.2928924560546875e-05
sg325
I1
sg326
I4
sa(dp329
g322
I1
sg323
F0.0707240104675293
sg324
F5.53131103515625e-05
sg325
I1
sg326
I3
sasS'total_cqs'
p330
I6
ssI42
(dp331
S'iters'
p332
I1
sS'meta'
p333
(lp334
(dp335
S'objective'
p336
I0
sS'query_time'
p337
F0.1513679027557373
sS'comp_time'
p338
F0.00010395050048828125
sS'exec_cq'
p339
I1
sS'total_cq'
p340
I2
sasS'total_cqs'
p341
I2
ssI44
(dp342
S'iters'
p343
I1
sS'meta'
p344
(lp345
(dp346
S'objective'
p347
I3
sS'query_time'
p348
F0.01006317138671875
sS'comp_time'
p349
F7.510185241699219e-05
sS'exec_cq'
p350
I1
sS'total_cq'
p351
I5
sasS'total_cqs'
p352
I5
ssI45
(dp353
S'iters'
p354
I2
sS'meta'
p355
(lp356
(dp357
S'objective'
p358
I3
sS'query_time'
p359
F5.93500280380249
sS'comp_time'
p360
F0.00011992454528808594
sS'exec_cq'
p361
I2
sS'total_cq'
p362
I5
sa(dp363
g358
I2
sg359
F0.0061681270599365234
sg360
F5.1021575927734375e-05
sg361
I3
sg362
I4
sasS'total_cqs'
p364
I5
ssI48
(dp365
S'iters'
p366
I1
sS'meta'
p367
(lp368
(dp369
S'objective'
p370
I0
sS'query_time'
p371
F0.25714588165283203
sS'comp_time'
p372
F6.031990051269531e-05
sS'exec_cq'
p373
I1
sS'total_cq'
p374
I2
sasS'total_cqs'
p375
I2
ssI49
(dp376
S'iters'
p377
I3
sS'meta'
p378
(lp379
(dp380
S'objective'
p381
I1
sS'query_time'
p382
F4.794405937194824
sS'comp_time'
p383
F0.00011396408081054688
sS'exec_cq'
p384
I2
sS'total_cq'
p385
I5
sa(dp386
g381
I1
sg382
F3.5877749919891357
sg383
F0.00011110305786132812
sg384
I2
sg385
I3
sa(dp387
g381
I0
sg382
F0.020581960678100586
sg383
F8.487701416015625e-05
sg384
I1
sg385
I2
sasS'total_cqs'
p388
I5
ssI50
(dp389
S'iters'
p390
I1
sS'meta'
p391
(lp392
(dp393
S'objective'
p394
I3
sS'query_time'
p395
F1.0613601207733154
sS'comp_time'
p396
F9.369850158691406e-05
sS'exec_cq'
p397
I1
sS'total_cq'
p398
I5
sasS'total_cqs'
p399
I5
ssI55
(dp400
S'iters'
p401
I1
sS'meta'
p402
(lp403
(dp404
S'objective'
p405
I0
sS'query_time'
p406
F27.3227641582489
sS'comp_time'
p407
F0.0001571178436279297
sS'exec_cq'
p408
I2
sS'total_cq'
p409
I2
sasS'total_cqs'
p410
I2
ssI57
(dp411
S'iters'
p412
I2
sS'meta'
p413
(lp414
(dp415
S'objective'
p416
I1
sS'query_time'
p417
F2.3411710262298584
sS'comp_time'
p418
F0.0006518363952636719
sS'exec_cq'
p419
I1
sS'total_cq'
p420
I3
sa(dp421
g416
I0
sg417
F11.772639989852905
sg418
F7.700920104980469e-05
sg419
I1
sg420
I2
sasS'total_cqs'
p422
I3
ssI116
(dp423
S'iters'
p424
I5
sS'meta'
p425
(lp426
(dp427
S'objective'
p428
I19
sS'query_time'
p429
F0.40191197395324707
sS'comp_time'
p430
F0.00010180473327636719
sS'exec_cq'
p431
I1
sS'total_cq'
p432
I21
sa(dp433
g428
I18
sg429
F0.14893198013305664
sg430
F9.894371032714844e-05
sg431
I7
sg432
I20
sa(dp434
g428
I17
sg429
F1.1522300243377686
sg430
F9.584426879882812e-05
sg431
I1
sg432
I19
sa(dp435
g428
I14
sg429
F4.445662021636963
sg430
F0.0001049041748046875
sg431
I4
sg432
I18
sa(dp436
g428
I0
sg429
F1.0861470699310303
sg430
F9.989738464355469e-05
sg431
I1
sg432
I2
sasS'total_cqs'
p437
I21
ssI117
(dp438
S'iters'
p439
I1
sS'meta'
p440
(lp441
(dp442
S'objective'
p443
I3
sS'query_time'
p444
F0.0074100494384765625
sS'comp_time'
p445
F6.103515625e-05
sS'exec_cq'
p446
I2
sS'total_cq'
p447
I5
sasS'total_cqs'
p448
I5
ss.