(dp0
I1
(dp1
S'iters'
p2
I2
sS'meta'
p3
(lp4
(dp5
S'objective'
p6
I7
sS'query_time'
p7
F25.758203983306885
sS'comp_time'
p8
F1.2911899089813232
sS'exec_cq'
p9
I6
sS'total_cq'
p10
I6
sa(dp11
g6
I1
sg7
F0.010730981826782227
sg8
F241.82477283477783
sg9
I2
sg10
I2
sasS'total_cqs'
p12
I6
ssI2
(dp13
S'iters'
p14
I1
sS'meta'
p15
(lp16
(dp17
S'objective'
p18
I15
sS'query_time'
p19
F0.9751689434051514
sS'comp_time'
p20
F0.10253310203552246
sS'exec_cq'
p21
I6
sS'total_cq'
p22
I6
sasS'total_cqs'
p23
I6
ssI3
(dp24
S'iters'
p25
I14
sS'meta'
p26
(lp27
(dp28
S'objective'
p29
I399
sS'query_time'
p30
F26.872167110443115
sS'comp_time'
p31
F0.22662901878356934
sS'exec_cq'
p32
I33
sS'total_cq'
p33
I33
sa(dp34
g29
I328
sg30
F0.07738399505615234
sg31
F0.22869491577148438
sg32
I30
sg33
I30
sa(dp35
g29
I294
sg30
F0.02120184898376465
sg31
F0.15510010719299316
sg32
I27
sg33
I27
sa(dp36
g29
I255
sg30
F0.022854089736938477
sg31
F0.1679210662841797
sg32
I24
sg33
I24
sa(dp37
g29
I220
sg30
F0.04003500938415527
sg31
F0.08451390266418457
sg32
I21
sg33
I21
sa(dp38
g29
I183
sg30
F0.00820779800415039
sg31
F0.03873896598815918
sg32
I18
sg33
I18
sa(dp39
g29
I144
sg30
F0.0068590641021728516
sg31
F0.03623676300048828
sg32
I15
sg33
I15
sa(dp40
g29
I123
sg30
F0.005339860916137695
sg31
F0.05730319023132324
sg32
I12
sg33
I12
sa(dp41
g29
I107
sg30
F0.0032739639282226562
sg31
F0.016120195388793945
sg32
I11
sg33
I11
sa(dp42
g29
I86
sg30
F0.002602100372314453
sg31
F0.016807079315185547
sg32
I9
sg33
I9
sa(dp43
g29
I68
sg30
F0.002698183059692383
sg31
F0.01693582534790039
sg32
I8
sg33
I8
sa(dp44
g29
I52
sg30
F0.0026700496673583984
sg31
F0.038125038146972656
sg32
I7
sg33
I7
sa(dp45
g29
I36
sg30
F0.0027730464935302734
sg31
F0.015761852264404297
sg32
I6
sg33
I6
sa(dp46
g29
I33
sg30
F0.0028488636016845703
sg31
F0.014451980590820312
sg32
I5
sg33
I5
sasS'total_cqs'
p47
I33
ssI4
(dp48
S'iters'
p49
I0
sS'meta'
p50
(lp51
sS'total_cqs'
p52
I1
ssI5
(dp53
S'iters'
p54
I0
sS'meta'
p55
(lp56
sS'total_cqs'
p57
I1
ssI6
(dp58
S'iters'
p59
I2
sS'meta'
p60
(lp61
(dp62
S'objective'
p63
I1
sS'query_time'
p64
F15.320662021636963
sS'comp_time'
p65
F0.0029418468475341797
sS'exec_cq'
p66
I5
sS'total_cq'
p67
I5
sa(dp68
g63
I2
sg64
F0.00020503997802734375
sg65
F0.0008649826049804688
sg66
I2
sg67
I2
sasS'total_cqs'
p69
I5
ssI7
(dp70
S'iters'
p71
I0
sS'meta'
p72
(lp73
sS'total_cqs'
p74
I1
ssI8
(dp75
S'iters'
p76
I5
sS'meta'
p77
(lp78
(dp79
S'objective'
p80
I17
sS'query_time'
p81
F22.83600091934204
sS'comp_time'
p82
F0.2762751579284668
sS'exec_cq'
p83
I6
sS'total_cq'
p84
I6
sa(dp85
g80
I7
sg81
F1.608595848083496
sg82
F1.739818811416626
sg83
I5
sg84
I5
sa(dp86
g80
I3
sg81
F0.004075050354003906
sg82
F0.002664804458618164
sg83
I4
sg84
I4
sa(dp87
g80
I0
sg81
F0.002168893814086914
sg82
F0.0013298988342285156
sg83
I3
sg84
I3
sa(dp88
g80
I2
sg81
F0.0018322467803955078
sg82
F0.0016160011291503906
sg83
I2
sg84
I2
sasS'total_cqs'
p89
I6
ssI9
(dp90
S'iters'
p91
I3
sS'meta'
p92
(lp93
(dp94
S'objective'
p95
I1
sS'query_time'
p96
F52.74132013320923
sS'comp_time'
p97
F4.17941689491272
sS'exec_cq'
p98
I6
sS'total_cq'
p99
I6
sa(dp100
g95
I0
sg96
F0.06341886520385742
sg97
F0.5761580467224121
sg98
I3
sg99
I3
sa(dp101
g95
I1
sg96
F0.02645587921142578
sg97
F0.2953190803527832
sg98
I2
sg99
I2
sasS'total_cqs'
p102
I6
ssI10
(dp103
S'iters'
p104
I0
sS'meta'
p105
(lp106
sS'total_cqs'
p107
I1
ssI11
(dp108
S'iters'
p109
I0
sS'meta'
p110
(lp111
sS'total_cqs'
p112
I1
ssI12
(dp113
S'iters'
p114
I0
sS'meta'
p115
(lp116
sS'total_cqs'
p117
I1
ssI13
(dp118
S'iters'
p119
I1
sS'meta'
p120
(lp121
(dp122
S'objective'
p123
I30
sS'query_time'
p124
F0.021446943283081055
sS'comp_time'
p125
F0.0001380443572998047
sS'exec_cq'
p126
I8
sS'total_cq'
p127
I8
sasS'total_cqs'
p128
I8
ssI14
(dp129
S'iters'
p130
I2
sS'meta'
p131
(lp132
(dp133
S'objective'
p134
I7
sS'query_time'
p135
F1.0926978588104248
sS'comp_time'
p136
F0.00877690315246582
sS'exec_cq'
p137
I5
sS'total_cq'
p138
I5
sa(dp139
g134
I5
sg135
F0.0005960464477539062
sg136
F0.0023012161254882812
sg137
I4
sg138
I4
sasS'total_cqs'
p140
I5
ssI16
(dp141
S'iters'
p142
I2
sS'meta'
p143
(lp144
(dp145
S'objective'
p146
I1
sS'query_time'
p147
F1.618190050125122
sS'comp_time'
p148
F0.006363868713378906
sS'exec_cq'
p149
I5
sS'total_cq'
p150
I5
sa(dp151
g146
I1
sg147
F0.0012030601501464844
sg148
F0.005143880844116211
sg149
I2
sg150
I2
sasS'total_cqs'
p152
I5
ssI17
(dp153
S'iters'
p154
I0
sS'meta'
p155
(lp156
sS'total_cqs'
p157
I1
ssI18
(dp158
S'iters'
p159
I2
sS'meta'
p160
(lp161
(dp162
S'objective'
p163
I1
sS'query_time'
p164
F0.39971303939819336
sS'comp_time'
p165
F0.0003190040588378906
sS'exec_cq'
p166
I5
sS'total_cq'
p167
I5
sa(dp168
g163
I2
sg164
F2.7894973754882812e-05
sg165
F9.703636169433594e-05
sg166
I2
sg167
I2
sasS'total_cqs'
p169
I5
ssI19
(dp170
S'iters'
p171
I0
sS'meta'
p172
(lp173
sS'total_cqs'
p174
I1
ssI20
(dp175
S'iters'
p176
I5
sS'meta'
p177
(lp178
(dp179
S'objective'
p180
I46
sS'query_time'
p181
F11.29400086402893
sS'comp_time'
p182
F1.8605661392211914
sS'exec_cq'
p183
I12
sS'total_cq'
p184
I12
sa(dp185
g180
I34
sg181
F0.20728397369384766
sg182
F0.8134021759033203
sg183
I10
sg184
I10
sa(dp186
g180
I24
sg181
F0.1602010726928711
sg182
F0.6439011096954346
sg183
I8
sg184
I8
sa(dp187
g180
I26
sg181
F0.14132189750671387
sg182
F0.48897290229797363
sg183
I6
sg184
I6
sa(dp188
g180
I23
sg181
F0.12623286247253418
sg182
F0.5131251811981201
sg183
I5
sg184
I5
sasS'total_cqs'
p189
I12
ssI21
(dp190
S'iters'
p191
I2
sS'meta'
p192
(lp193
(dp194
S'objective'
p195
I67
sS'query_time'
p196
F28.93506407737732
sS'comp_time'
p197
F0.2513260841369629
sS'exec_cq'
p198
I14
sS'total_cq'
p199
I14
sa(dp200
g195
I9
sg196
F0.004684925079345703
sg197
F0.019991159439086914
sg198
I2
sg199
I2
sasS'total_cqs'
p201
I14
ssI22
(dp202
S'iters'
p203
I1
sS'meta'
p204
(lp205
(dp206
S'objective'
p207
I1
sS'query_time'
p208
F0.009624004364013672
sS'comp_time'
p209
F0.00014710426330566406
sS'exec_cq'
p210
I2
sS'total_cq'
p211
I2
sasS'total_cqs'
p212
I2
ssI23
(dp213
S'iters'
p214
I0
sS'meta'
p215
(lp216
sS'total_cqs'
p217
I1
ssI24
(dp218
S'iters'
p219
I0
sS'meta'
p220
(lp221
sS'total_cqs'
p222
I1
ssI25
(dp223
S'iters'
p224
I3
sS'meta'
p225
(lp226
(dp227
S'objective'
p228
I4
sS'query_time'
p229
F86.79740190505981
sS'comp_time'
p230
F10.05746603012085
sS'exec_cq'
p231
I7
sS'total_cq'
p232
I7
sa(dp233
g228
I0
sg229
F0.22689318656921387
sg230
F2.417717933654785
sg231
I4
sg232
I4
sa(dp234
g228
I0
sg229
F0.5203430652618408
sg230
F2.1021952629089355
sg231
I3
sg232
I3
sasS'total_cqs'
p235
I7
ssI26
(dp236
S'iters'
p237
I7
sS'meta'
p238
(lp239
(dp240
S'objective'
p241
I51
sS'query_time'
p242
F24.306406021118164
sS'comp_time'
p243
F3.8763887882232666
sS'exec_cq'
p244
I13
sS'total_cq'
p245
I13
sa(dp246
g241
I33
sg242
F0.9815428256988525
sg243
F3.813854217529297
sg244
I11
sg245
I11
sa(dp247
g241
I28
sg242
F0.9155411720275879
sg243
F3.8375298976898193
sg244
I9
sg245
I9
sa(dp248
g241
I20
sg242
F0.004866838455200195
sg243
F0.018383026123046875
sg244
I8
sg245
I8
sa(dp249
g241
I12
sg242
F0.0030438899993896484
sg243
F0.017812013626098633
sg244
I7
sg245
I7
sa(dp250
g241
I7
sg242
F0.0011260509490966797
sg243
F0.005958080291748047
sg244
I5
sg245
I5
sa(dp251
g241
I4
sg242
F0.0009169578552246094
sg243
F0.004907131195068359
sg244
I4
sg245
I4
sasS'total_cqs'
p252
I13
ssI27
(dp253
S'iters'
p254
I1
sS'meta'
p255
(lp256
(dp257
S'objective'
p258
I1
sS'query_time'
p259
F0.1655418872833252
sS'comp_time'
p260
F0.004663228988647461
sS'exec_cq'
p261
I2
sS'total_cq'
p262
I2
sasS'total_cqs'
p263
I2
ssI28
(dp264
S'iters'
p265
I6
sS'meta'
p266
(lp267
(dp268
S'objective'
p269
I31
sS'query_time'
p270
F1.6850500106811523
sS'comp_time'
p271
F0.026671886444091797
sS'exec_cq'
p272
I14
sS'total_cq'
p273
I14
sa(dp274
g269
I12
sg270
F0.003495931625366211
sg271
F0.019724130630493164
sg272
I10
sg273
I10
sa(dp275
g269
I8
sg270
F0.003178119659423828
sg271
F0.04031825065612793
sg272
I7
sg273
I7
sa(dp276
g269
I8
sg270
F0.0034928321838378906
sg271
F0.016458988189697266
sg272
I5
sg273
I5
sa(dp277
g269
I4
sg270
F0.002789020538330078
sg271
F0.015398979187011719
sg272
I4
sg273
I4
sa(dp278
g269
I0
sg270
F0.003178834915161133
sg271
F0.015619754791259766
sg272
I3
sg273
I3
sasS'total_cqs'
p279
I14
ssI29
(dp280
S'iters'
p281
I1
sS'meta'
p282
(lp283
(dp284
S'objective'
p285
I1
sS'query_time'
p286
F0.01609182357788086
sS'comp_time'
p287
F0.0001423358917236328
sS'exec_cq'
p288
I2
sS'total_cq'
p289
I2
sasS'total_cqs'
p290
I2
ssI30
(dp291
S'iters'
p292
I1
sS'meta'
p293
(lp294
(dp295
S'objective'
p296
I1
sS'query_time'
p297
F0.38849306106567383
sS'comp_time'
p298
F0.008890867233276367
sS'exec_cq'
p299
I2
sS'total_cq'
p300
I2
sasS'total_cqs'
p301
I2
ssI31
(dp302
S'iters'
p303
I3
sS'meta'
p304
(lp305
(dp306
S'objective'
p307
I7
sS'query_time'
p308
F6.136792182922363
sS'comp_time'
p309
F0.15099596977233887
sS'exec_cq'
p310
I9
sS'total_cq'
p311
I9
sa(dp312
g307
I1
sg308
F0.006838798522949219
sg309
F0.028011083602905273
sg310
I3
sg311
I3
sa(dp313
g307
I2
sg308
F0.005627870559692383
sg309
F0.0517733097076416
sg310
I2
sg311
I2
sasS'total_cqs'
p314
I9
ssI32
(dp315
S'iters'
p316
I3
sS'meta'
p317
(lp318
(dp319
S'objective'
p320
I4
sS'query_time'
p321
F19.690593004226685
sS'comp_time'
p322
F2.7995872497558594
sS'exec_cq'
p323
I7
sS'total_cq'
p324
I7
sa(dp325
g320
I0
sg321
F0.03644609451293945
sg322
F0.3741598129272461
sg323
I4
sg324
I4
sa(dp326
g320
I2
sg321
F0.028033971786499023
sg322
F0.254382848739624
sg323
I2
sg324
I2
sasS'total_cqs'
p327
I7
ssI33
(dp328
S'iters'
p329
I1
sS'meta'
p330
(lp331
(dp332
S'objective'
p333
I1
sS'query_time'
p334
F0.04966998100280762
sS'comp_time'
p335
F0.00011992454528808594
sS'exec_cq'
p336
I2
sS'total_cq'
p337
I2
sasS'total_cqs'
p338
I2
ssI34
(dp339
S'iters'
p340
I0
sS'meta'
p341
(lp342
sS'total_cqs'
p343
I1
ssI35
(dp344
S'iters'
p345
I3
sS'meta'
p346
(lp347
(dp348
S'objective'
p349
I1
sS'query_time'
p350
F16.44516110420227
sS'comp_time'
p351
F0.28778791427612305
sS'exec_cq'
p352
I5
sS'total_cq'
p353
I5
sa(dp354
g349
I0
sg350
F0.03163599967956543
sg351
F0.16105318069458008
sg352
I3
sg353
I3
sa(dp355
g349
I2
sg350
F0.017482995986938477
sg351
F0.12517714500427246
sg352
I2
sg353
I2
sasS'total_cqs'
p356
I5
ssI37
(dp357
S'iters'
p358
I3
sS'meta'
p359
(lp360
(dp361
S'objective'
p362
I17
sS'query_time'
p363
F2.4321680068969727
sS'comp_time'
p364
F0.12101507186889648
sS'exec_cq'
p365
I10
sS'total_cq'
p366
I10
sa(dp367
g362
I1
sg363
F0.028743982315063477
sg364
F0.03624677658081055
sg365
I3
sg366
I3
sa(dp368
g362
I1
sg363
F0.0066869258880615234
sg364
F0.028999805450439453
sg365
I2
sg366
I2
sasS'total_cqs'
p369
I10
ssI38
(dp370
S'iters'
p371
I0
sS'meta'
p372
(lp373
sS'total_cqs'
p374
I1
ssI39
(dp375
S'iters'
p376
I0
sS'meta'
p377
(lp378
sS'total_cqs'
p379
I1
ssI40
(dp380
S'iters'
p381
I1
sS'meta'
p382
(lp383
(dp384
S'objective'
p385
I1
sS'query_time'
p386
F17.23986005783081
sS'comp_time'
p387
F3.2021470069885254
sS'exec_cq'
p388
I2
sS'total_cq'
p389
I2
sasS'total_cqs'
p390
I2
ssI41
(dp391
S'iters'
p392
I3
sS'meta'
p393
(lp394
(dp395
S'objective'
p396
I3
sS'query_time'
p397
F12.118693113327026
sS'comp_time'
p398
F1.1127071380615234
sS'exec_cq'
p399
I6
sS'total_cq'
p400
I6
sa(dp401
g396
I0
sg397
F0.2434101104736328
sg398
F1.2104780673980713
sg399
I4
sg400
I4
sa(dp402
g396
I0
sg397
F0.21653485298156738
sg398
F0.9818987846374512
sg399
I3
sg400
I3
sasS'total_cqs'
p403
I6
ssI42
(dp404
S'iters'
p405
I1
sS'meta'
p406
(lp407
(dp408
S'objective'
p409
I1
sS'query_time'
p410
F17.642199993133545
sS'comp_time'
p411
F2.482067108154297
sS'exec_cq'
p412
I2
sS'total_cq'
p413
I2
sasS'total_cqs'
p414
I2
ssI43
(dp415
S'iters'
p416
I0
sS'meta'
p417
(lp418
sS'total_cqs'
p419
I1
ssI44
(dp420
S'iters'
p421
I3
sS'meta'
p422
(lp423
(dp424
S'objective'
p425
I3
sS'query_time'
p426
F1.553995132446289
sS'comp_time'
p427
F0.11928796768188477
sS'exec_cq'
p428
I5
sS'total_cq'
p429
I5
sa(dp430
g425
I1
sg426
F0.019381046295166016
sg427
F0.15190911293029785
sg428
I3
sg429
I3
sa(dp431
g425
I1
sg426
F8.320808410644531e-05
sg427
F0.0005300045013427734
sg428
I2
sg429
I2
sasS'total_cqs'
p432
I5
ssI45
(dp433
S'iters'
p434
I2
sS'meta'
p435
(lp436
(dp437
S'objective'
p438
I1
sS'query_time'
p439
F0.03435087203979492
sS'comp_time'
p440
F0.0005297660827636719
sS'exec_cq'
p441
I5
sS'total_cq'
p442
I5
sa(dp443
g438
I1
sg439
F0.00011491775512695312
sg440
F0.0005581378936767578
sg441
I2
sg442
I2
sasS'total_cqs'
p444
I5
ssI46
(dp445
S'iters'
p446
I0
sS'meta'
p447
(lp448
sS'total_cqs'
p449
I1
ssI47
(dp450
S'iters'
p451
I0
sS'meta'
p452
(lp453
sS'total_cqs'
p454
I1
ssI48
(dp455
S'iters'
p456
I1
sS'meta'
p457
(lp458
(dp459
S'objective'
p460
I1
sS'query_time'
p461
F0.13387489318847656
sS'comp_time'
p462
F0.0066831111907958984
sS'exec_cq'
p463
I2
sS'total_cq'
p464
I2
sasS'total_cqs'
p465
I2
ssI49
(dp466
S'iters'
p467
I2
sS'meta'
p468
(lp469
(dp470
S'objective'
p471
I1
sS'query_time'
p472
F0.228956937789917
sS'comp_time'
p473
F0.002713918685913086
sS'exec_cq'
p474
I5
sS'total_cq'
p475
I5
sa(dp476
g471
I2
sg472
F3.0994415283203125e-05
sg473
F0.00010800361633300781
sg474
I2
sg475
I2
sasS'total_cqs'
p477
I5
ssI50
(dp478
S'iters'
p479
I3
sS'meta'
p480
(lp481
(dp482
S'objective'
p483
I5
sS'query_time'
p484
F0.9905388355255127
sS'comp_time'
p485
F0.0013141632080078125
sS'exec_cq'
p486
I5
sS'total_cq'
p487
I5
sa(dp488
g483
I2
sg484
F0.00018286705017089844
sg485
F0.0010809898376464844
sg486
I4
sg487
I4
sa(dp489
g483
I0
sg484
F0.00012993812561035156
sg485
F0.0007622241973876953
sg486
I3
sg487
I3
sasS'total_cqs'
p490
I5
ssI51
(dp491
S'iters'
p492
I0
sS'meta'
p493
(lp494
sS'total_cqs'
p495
I1
ssI52
(dp496
S'iters'
p497
I0
sS'meta'
p498
(lp499
sS'total_cqs'
p500
I1
ssI53
(dp501
S'iters'
p502
I0
sS'meta'
p503
(lp504
sS'total_cqs'
p505
I1
ssI55
(dp506
S'iters'
p507
I1
sS'meta'
p508
(lp509
(dp510
S'objective'
p511
I1
sS'query_time'
p512
F26.587377786636353
sS'comp_time'
p513
F3.6148228645324707
sS'exec_cq'
p514
I2
sS'total_cq'
p515
I2
sasS'total_cqs'
p516
I2
ssI56
(dp517
S'iters'
p518
I0
sS'meta'
p519
(lp520
sS'total_cqs'
p521
I1
ssI57
(dp522
S'iters'
p523
I2
sS'meta'
p524
(lp525
(dp526
S'objective'
p527
I0
sS'query_time'
p528
F13.861704111099243
sS'comp_time'
p529
F1.459568738937378
sS'exec_cq'
p530
I3
sS'total_cq'
p531
I3
sa(dp532
g527
I1
sg528
F0.3430910110473633
sg529
F1.4735839366912842
sg530
I2
sg531
I2
sasS'total_cqs'
p533
I3
ssI108
(dp534
S'iters'
p535
I0
sS'meta'
p536
(lp537
sS'total_cqs'
p538
I1
ssI109
(dp539
S'iters'
p540
I0
sS'meta'
p541
(lp542
sS'total_cqs'
p543
I1
ssI116
(dp544
S'iters'
p545
I4
sS'meta'
p546
(lp547
(dp548
S'objective'
p549
I187
sS'query_time'
p550
F5.414089202880859
sS'comp_time'
p551
F0.29003190994262695
sS'exec_cq'
p552
I21
sS'total_cq'
p553
I21
sa(dp554
g549
I169
sg550
F0.008335113525390625
sg551
F0.0731511116027832
sg552
I19
sg553
I19
sa(dp555
g549
I2
sg550
F0.0011990070343017578
sg551
F0.004342317581176758
sg552
I3
sg553
I3
sa(dp556
g549
I3
sg550
F0.0003840923309326172
sg551
F0.0024933815002441406
sg552
I2
sg553
I2
sasS'total_cqs'
p557
I21
ssI117
(dp558
S'iters'
p559
I1
sS'meta'
p560
(lp561
(dp562
S'objective'
p563
I9
sS'query_time'
p564
F0.012475013732910156
sS'comp_time'
p565
F7.510185241699219e-05
sS'exec_cq'
p566
I5
sS'total_cq'
p567
I5
sasS'total_cqs'
p568
I5
ssI118
(dp569
S'iters'
p570
I0
sS'meta'
p571
(lp572
sS'total_cqs'
p573
I1
ssI122
(dp574
S'iters'
p575
I0
sS'meta'
p576
(lp577
sS'total_cqs'
p578
I1
ss.