(dp0
I1
(dp1
S'iters'
p2
I3
sS'meta'
p3
(lp4
(dp5
S'objective'
p6
I1
sS'query_time'
p7
F20.36939001083374
sS'comp_time'
p8
F9.799003601074219e-05
sS'exec_cq'
p9
I1
sS'total_cq'
p10
I6
sa(dp11
g6
I4
sg7
F1.1422741413116455
sg8
F7.200241088867188e-05
sg9
I1
sg10
I4
sa(dp12
g6
I1
sg7
F755.5261290073395
sg8
F5.888938903808594e-05
sg9
I1
sg10
I2
sasS'total_cqs'
p13
I6
ssI2
(dp14
S'iters'
p15
I1
sS'meta'
p16
(lp17
(dp18
S'objective'
p19
I13
sS'query_time'
p20
F0.8885750770568848
sS'comp_time'
p21
F8.606910705566406e-05
sS'exec_cq'
p22
I3
sS'total_cq'
p23
I6
sasS'total_cqs'
p24
I6
ssI3
(dp25
S'iters'
p26
I12
sS'meta'
p27
(lp28
(dp29
S'objective'
p30
I421
sS'query_time'
p31
F0.14441299438476562
sS'comp_time'
p32
F9.799003601074219e-05
sS'exec_cq'
p33
I1
sS'total_cq'
p34
I33
sa(dp35
g30
I381
sg31
F0.04761099815368652
sg32
F0.00010395050048828125
sg33
I1
sg34
I30
sa(dp36
g30
I376
sg31
F0.17129898071289062
sg32
F0.0001220703125
sg33
I2
sg34
I27
sa(dp37
g30
I290
sg31
F1.59928297996521
sg32
F0.00010991096496582031
sg33
I2
sg34
I26
sa(dp38
g30
I246
sg31
F0.024402141571044922
sg32
F0.003889799118041992
sg33
I2
sg34
I23
sa(dp39
g30
I197
sg31
F0.013753890991210938
sg32
F0.00011706352233886719
sg33
I2
sg34
I20
sa(dp40
g30
I195
sg31
F0.007976055145263672
sg32
F4.00543212890625e-05
sg33
I2
sg34
I18
sa(dp41
g30
I167
sg31
F0.00747990608215332
sg32
F3.600120544433594e-05
sg33
I2
sg34
I17
sa(dp42
g30
I152
sg31
F0.0033228397369384766
sg32
F3.600120544433594e-05
sg33
I2
sg34
I15
sa(dp43
g30
I113
sg31
F0.0067920684814453125
sg32
F4.00543212890625e-05
sg33
I2
sg34
I14
sa(dp44
g30
I45
sg31
F0.5871021747589111
sg32
F9.799003601074219e-05
sg33
I2
sg34
I12
sa(dp45
g30
I58
sg31
F0.2122199535369873
sg32
F7.700920104980469e-05
sg33
I2
sg34
I9
sasS'total_cqs'
p46
I33
ssI4
(dp47
S'iters'
p48
I0
sS'meta'
p49
(lp50
sS'total_cqs'
p51
I1
ssI5
(dp52
S'iters'
p53
I0
sS'meta'
p54
(lp55
sS'total_cqs'
p56
I1
ssI6
(dp57
S'iters'
p58
I3
sS'meta'
p59
(lp60
(dp61
S'objective'
p62
I1
sS'query_time'
p63
F2.213559150695801
sS'comp_time'
p64
F9.679794311523438e-05
sS'exec_cq'
p65
I1
sS'total_cq'
p66
I5
sa(dp67
g62
I2
sg63
F1.0107197761535645
sg64
F4.506111145019531e-05
sg65
I1
sg66
I3
sa(dp68
g62
I3
sg63
F70.5137460231781
sg64
F2.6941299438476562e-05
sg65
I1
sg66
I2
sasS'total_cqs'
p69
I5
ssI7
(dp70
S'iters'
p71
I0
sS'meta'
p72
(lp73
sS'total_cqs'
p74
I1
ssI8
(dp75
S'iters'
p76
I3
sS'meta'
p77
(lp78
(dp79
S'objective'
p80
I9
sS'query_time'
p81
F21.735111951828003
sS'comp_time'
p82
F9.894371032714844e-05
sS'exec_cq'
p83
I1
sS'total_cq'
p84
I6
sa(dp85
g80
I5
sg81
F61.760273933410645
sg82
F0.00010800361633300781
sg83
I1
sg84
I5
sa(dp86
g80
I2
sg81
F29.609901905059814
sg82
F0.0002009868621826172
sg83
I1
sg84
I4
sasS'total_cqs'
p87
I6
ssI9
(dp88
S'iters'
p89
I3
sS'meta'
p90
(lp91
(dp92
S'objective'
p93
I7
sS'query_time'
p94
F22.08530592918396
sS'comp_time'
p95
F0.023614883422851562
sS'exec_cq'
p96
I1
sS'total_cq'
p97
I6
sa(dp98
g93
I2
sg94
F1.2117371559143066
sg95
F5.1021575927734375e-05
sg96
I1
sg97
I4
sa(dp99
g93
I2
sg94
F0.5967569351196289
sg95
F7.104873657226562e-05
sg96
I1
sg97
I2
sasS'total_cqs'
p100
I6
ssI10
(dp101
S'iters'
p102
I0
sS'meta'
p103
(lp104
sS'total_cqs'
p105
I1
ssI11
(dp106
S'iters'
p107
I0
sS'meta'
p108
(lp109
sS'total_cqs'
p110
I1
ssI12
(dp111
S'iters'
p112
I0
sS'meta'
p113
(lp114
sS'total_cqs'
p115
I1
ssI13
(dp116
S'iters'
p117
I2
sS'meta'
p118
(lp119
(dp120
S'objective'
p121
I20
sS'query_time'
p122
F7.7707438468933105
sS'comp_time'
p123
F5.817413330078125e-05
sS'exec_cq'
p124
I1
sS'total_cq'
p125
I8
sa(dp126
g121
I18
sg122
F0.0038318634033203125
sg123
F3.600120544433594e-05
sg124
I3
sg125
I7
sasS'total_cqs'
p127
I8
ssI14
(dp128
S'iters'
p129
I2
sS'meta'
p130
(lp131
(dp132
S'objective'
p133
I5
sS'query_time'
p134
F0.24237608909606934
sS'comp_time'
p135
F7.486343383789062e-05
sS'exec_cq'
p136
I1
sS'total_cq'
p137
I5
sa(dp138
g133
I2
sg134
F0.9740869998931885
sg135
F5.888938903808594e-05
sg136
I1
sg137
I4
sasS'total_cqs'
p139
I5
ssI16
(dp140
S'iters'
p141
I2
sS'meta'
p142
(lp143
(dp144
S'objective'
p145
I5
sS'query_time'
p146
F1.583280086517334
sS'comp_time'
p147
F7.510185241699219e-05
sS'exec_cq'
p148
I1
sS'total_cq'
p149
I5
sa(dp150
g145
I2
sg146
F0.051219940185546875
sg147
F6.699562072753906e-05
sg148
I1
sg149
I4
sasS'total_cqs'
p151
I5
ssI17
(dp152
S'iters'
p153
I0
sS'meta'
p154
(lp155
sS'total_cqs'
p156
I1
ssI18
(dp157
S'iters'
p158
I2
sS'meta'
p159
(lp160
(dp161
S'objective'
p162
I5
sS'query_time'
p163
F0.557725191116333
sS'comp_time'
p164
F7.104873657226562e-05
sS'exec_cq'
p165
I1
sS'total_cq'
p166
I5
sa(dp167
g162
I2
sg163
F0.09457206726074219
sg164
F6.604194641113281e-05
sg165
I1
sg166
I4
sasS'total_cqs'
p168
I5
ssI19
(dp169
S'iters'
p170
I0
sS'meta'
p171
(lp172
sS'total_cqs'
p173
I1
ssI20
(dp174
S'iters'
p175
I4
sS'meta'
p176
(lp177
(dp178
S'objective'
p179
I44
sS'query_time'
p180
F0.019315004348754883
sS'comp_time'
p181
F5.0067901611328125e-05
sS'exec_cq'
p182
I1
sS'total_cq'
p183
I12
sa(dp184
g179
I41
sg180
F0.012794017791748047
sg181
F4.601478576660156e-05
sg182
I3
sg183
I10
sa(dp185
g179
I35
sg180
F5.440417051315308
sg181
F0.00045299530029296875
sg182
I3
sg183
I8
sa(dp186
g179
I29
sg180
F0.10939288139343262
sg181
F8.0108642578125e-05
sg182
I3
sg183
I7
sasS'total_cqs'
p187
I12
ssI21
(dp188
S'iters'
p189
I5
sS'meta'
p190
(lp191
(dp192
S'objective'
p193
I23
sS'query_time'
p194
F1.4758930206298828
sS'comp_time'
p195
F7.987022399902344e-05
sS'exec_cq'
p196
I1
sS'total_cq'
p197
I14
sa(dp198
g193
I40
sg194
F25.713439226150513
sg195
F0.00011897087097167969
sg196
I1
sg197
I10
sa(dp199
g193
I32
sg194
F0.2812309265136719
sg195
F8.511543273925781e-05
sg196
I1
sg197
I9
sa(dp200
g193
I22
sg194
F0.4655590057373047
sg195
F0.0004138946533203125
sg196
I1
sg197
I8
sa(dp201
g193
I16
sg194
F0.013724088668823242
sg195
F6.103515625e-05
sg196
I1
sg197
I6
sasS'total_cqs'
p202
I14
ssI22
(dp203
S'iters'
p204
I1
sS'meta'
p205
(lp206
(dp207
S'objective'
p208
I1
sS'query_time'
p209
F0.011842966079711914
sS'comp_time'
p210
F4.696846008300781e-05
sS'exec_cq'
p211
I1
sS'total_cq'
p212
I2
sasS'total_cqs'
p213
I2
ssI23
(dp214
S'iters'
p215
I0
sS'meta'
p216
(lp217
sS'total_cqs'
p218
I1
ssI24
(dp219
S'iters'
p220
I0
sS'meta'
p221
(lp222
sS'total_cqs'
p223
I1
ssI25
(dp224
S'iters'
p225
I3
sS'meta'
p226
(lp227
(dp228
S'objective'
p229
I14
sS'query_time'
p230
F10.560691118240356
sS'comp_time'
p231
F0.0001709461212158203
sS'exec_cq'
p232
I1
sS'total_cq'
p233
I7
sa(dp234
g229
I9
sg230
F24.389642000198364
sg231
F0.0002899169921875
sg232
I1
sg233
I6
sa(dp235
g229
I5
sg230
F0.1623530387878418
sg231
F0.00011205673217773438
sg232
I1
sg233
I5
sasS'total_cqs'
p236
I7
ssI26
(dp237
S'iters'
p238
I6
sS'meta'
p239
(lp240
(dp241
S'objective'
p242
I65
sS'query_time'
p243
F6.610792875289917
sS'comp_time'
p244
F8.20159912109375e-05
sS'exec_cq'
p245
I1
sS'total_cq'
p246
I13
sa(dp247
g242
I54
sg243
F0.03159594535827637
sg244
F4.7206878662109375e-05
sg245
I1
sg246
I12
sa(dp248
g242
I38
sg243
F1.145374059677124
sg244
F4.9114227294921875e-05
sg245
I1
sg246
I11
sa(dp249
g242
I32
sg243
F17.671995162963867
sg244
F0.0004000663757324219
sg245
I1
sg246
I9
sa(dp250
g242
I24
sg243
F0.035784006118774414
sg244
F4.1961669921875e-05
sg245
I1
sg246
I8
sa(dp251
g242
I17
sg243
F0.005956888198852539
sg244
F4.220008850097656e-05
sg245
I1
sg246
I7
sasS'total_cqs'
p252
I13
ssI27
(dp253
S'iters'
p254
I1
sS'meta'
p255
(lp256
(dp257
S'objective'
p258
I1
sS'query_time'
p259
F0.3823819160461426
sS'comp_time'
p260
F8.392333984375e-05
sS'exec_cq'
p261
I1
sS'total_cq'
p262
I2
sasS'total_cqs'
p263
I2
ssI28
(dp264
S'iters'
p265
I5
sS'meta'
p266
(lp267
(dp268
S'objective'
p269
I77
sS'query_time'
p270
F1.5590460300445557
sS'comp_time'
p271
F6.103515625e-05
sS'exec_cq'
p272
I1
sS'total_cq'
p273
I14
sa(dp274
g269
I65
sg270
F1.342533826828003
sg271
F4.291534423828125e-05
sg272
I1
sg273
I13
sa(dp275
g269
I12
sg270
F1.2350471019744873
sg271
F3.790855407714844e-05
sg272
I1
sg273
I12
sa(dp276
g269
I27
sg270
F0.6721630096435547
sg271
F4.601478576660156e-05
sg272
I1
sg273
I9
sa(dp277
g269
I20
sg270
F0.533318042755127
sg271
F4.220008850097656e-05
sg272
I1
sg273
I8
sasS'total_cqs'
p278
I14
ssI29
(dp279
S'iters'
p280
I1
sS'meta'
p281
(lp282
(dp283
S'objective'
p284
I1
sS'query_time'
p285
F0.008727073669433594
sS'comp_time'
p286
F5.1975250244140625e-05
sS'exec_cq'
p287
I1
sS'total_cq'
p288
I2
sasS'total_cqs'
p289
I2
ssI30
(dp290
S'iters'
p291
I1
sS'meta'
p292
(lp293
(dp294
S'objective'
p295
I1
sS'query_time'
p296
F0.38886499404907227
sS'comp_time'
p297
F4.887580871582031e-05
sS'exec_cq'
p298
I1
sS'total_cq'
p299
I2
sasS'total_cqs'
p300
I2
ssI31
(dp301
S'iters'
p302
I4
sS'meta'
p303
(lp304
(dp305
S'objective'
p306
I27
sS'query_time'
p307
F0.012805938720703125
sS'comp_time'
p308
F4.792213439941406e-05
sS'exec_cq'
p309
I1
sS'total_cq'
p310
I9
sa(dp311
g306
I20
sg307
F4.492212772369385
sg308
F0.0001068115234375
sg309
I1
sg310
I8
sa(dp312
g306
I14
sg307
F4.357370138168335
sg308
F8.20159912109375e-05
sg309
I1
sg310
I7
sa(dp313
g306
I9
sg307
F0.32243800163269043
sg308
F7.700920104980469e-05
sg309
I1
sg310
I6
sasS'total_cqs'
p314
I9
ssI32
(dp315
S'iters'
p316
I3
sS'meta'
p317
(lp318
(dp319
S'objective'
p320
I14
sS'query_time'
p321
F1.9711639881134033
sS'comp_time'
p322
F0.0013551712036132812
sS'exec_cq'
p323
I1
sS'total_cq'
p324
I7
sa(dp325
g320
I7
sg321
F1.53010892868042
sg322
F6.604194641113281e-05
sg323
I1
sg324
I6
sa(dp326
g320
I4
sg321
F0.12297391891479492
sg322
F7.319450378417969e-05
sg323
I1
sg324
I4
sasS'total_cqs'
p327
I7
ssI33
(dp328
S'iters'
p329
I1
sS'meta'
p330
(lp331
(dp332
S'objective'
p333
I1
sS'query_time'
p334
F0.0398869514465332
sS'comp_time'
p335
F6.699562072753906e-05
sS'exec_cq'
p336
I1
sS'total_cq'
p337
I2
sasS'total_cqs'
p338
I2
ssI34
(dp339
S'iters'
p340
I0
sS'meta'
p341
(lp342
sS'total_cqs'
p343
I1
ssI35
(dp344
S'iters'
p345
I2
sS'meta'
p346
(lp347
(dp348
S'objective'
p349
I1
sS'query_time'
p350
F7.60676383972168
sS'comp_time'
p351
F8.106231689453125e-05
sS'exec_cq'
p352
I1
sS'total_cq'
p353
I5
sa(dp354
g349
I1
sg350
F0.04996299743652344
sg351
F6.604194641113281e-05
sg352
I1
sg353
I3
sasS'total_cqs'
p355
I5
ssI37
(dp356
S'iters'
p357
I5
sS'meta'
p358
(lp359
(dp360
S'objective'
p361
I35
sS'query_time'
p362
F0.7605001926422119
sS'comp_time'
p363
F7.700920104980469e-05
sS'exec_cq'
p364
I1
sS'total_cq'
p365
I10
sa(dp366
g361
I27
sg362
F0.30536508560180664
sg363
F7.700920104980469e-05
sg364
I1
sg365
I9
sa(dp367
g361
I20
sg362
F0.0055599212646484375
sg363
F4.315376281738281e-05
sg364
I1
sg365
I8
sa(dp368
g361
I14
sg362
F0.5521421432495117
sg363
F7.891654968261719e-05
sg364
I1
sg365
I7
sa(dp369
g361
I9
sg362
F0.2519650459289551
sg363
F7.390975952148438e-05
sg364
I1
sg365
I6
sasS'total_cqs'
p370
I10
ssI38
(dp371
S'iters'
p372
I0
sS'meta'
p373
(lp374
sS'total_cqs'
p375
I1
ssI39
(dp376
S'iters'
p377
I0
sS'meta'
p378
(lp379
sS'total_cqs'
p380
I1
ssI40
(dp381
S'iters'
p382
I1
sS'meta'
p383
(lp384
(dp385
S'objective'
p386
I1
sS'query_time'
p387
F17.022895097732544
sS'comp_time'
p388
F0.00017499923706054688
sS'exec_cq'
p389
I2
sS'total_cq'
p390
I2
sasS'total_cqs'
p391
I2
ssI41
(dp392
S'iters'
p393
I3
sS'meta'
p394
(lp395
(dp396
S'objective'
p397
I9
sS'query_time'
p398
F9.39649510383606
sS'comp_time'
p399
F0.0003380775451660156
sS'exec_cq'
p400
I1
sS'total_cq'
p401
I6
sa(dp402
g397
I5
sg398
F0.7454321384429932
sg399
F6.699562072753906e-05
sg400
I1
sg401
I5
sa(dp403
g397
I2
sg398
F0.0474700927734375
sg399
F8.58306884765625e-05
sg400
I1
sg401
I4
sasS'total_cqs'
p404
I6
ssI42
(dp405
S'iters'
p406
I1
sS'meta'
p407
(lp408
(dp409
S'objective'
p410
I1
sS'query_time'
p411
F0.015138864517211914
sS'comp_time'
p412
F5.888938903808594e-05
sS'exec_cq'
p413
I1
sS'total_cq'
p414
I2
sasS'total_cqs'
p415
I2
ssI43
(dp416
S'iters'
p417
I0
sS'meta'
p418
(lp419
sS'total_cqs'
p420
I1
ssI44
(dp421
S'iters'
p422
I2
sS'meta'
p423
(lp424
(dp425
S'objective'
p426
I5
sS'query_time'
p427
F0.01603102684020996
sS'comp_time'
p428
F6.103515625e-05
sS'exec_cq'
p429
I1
sS'total_cq'
p430
I5
sa(dp431
g426
I2
sg427
F0.005446910858154297
sg428
F9.202957153320312e-05
sg429
I1
sg430
I4
sasS'total_cqs'
p432
I5
ssI45
(dp433
S'iters'
p434
I2
sS'meta'
p435
(lp436
(dp437
S'objective'
p438
I3
sS'query_time'
p439
F0.047286033630371094
sS'comp_time'
p440
F5.4836273193359375e-05
sS'exec_cq'
p441
I2
sS'total_cq'
p442
I5
sa(dp443
g438
I2
sg439
F0.9165408611297607
sg440
F5.698204040527344e-05
sg441
I2
sg442
I2
sasS'total_cqs'
p444
I5
ssI46
(dp445
S'iters'
p446
I0
sS'meta'
p447
(lp448
sS'total_cqs'
p449
I1
ssI47
(dp450
S'iters'
p451
I0
sS'meta'
p452
(lp453
sS'total_cqs'
p454
I1
ssI48
(dp455
S'iters'
p456
I1
sS'meta'
p457
(lp458
(dp459
S'objective'
p460
I1
sS'query_time'
p461
F0.11147594451904297
sS'comp_time'
p462
F6.198883056640625e-05
sS'exec_cq'
p463
I1
sS'total_cq'
p464
I2
sasS'total_cqs'
p465
I2
ssI49
(dp466
S'iters'
p467
I2
sS'meta'
p468
(lp469
(dp470
S'objective'
p471
I5
sS'query_time'
p472
F0.12663483619689941
sS'comp_time'
p473
F6.508827209472656e-05
sS'exec_cq'
p474
I1
sS'total_cq'
p475
I5
sa(dp476
g471
I2
sg472
F0.11705303192138672
sg473
F5.0067901611328125e-05
sg474
I1
sg475
I4
sasS'total_cqs'
p477
I5
ssI50
(dp478
S'iters'
p479
I2
sS'meta'
p480
(lp481
(dp482
S'objective'
p483
I5
sS'query_time'
p484
F0.18366599082946777
sS'comp_time'
p485
F7.390975952148438e-05
sS'exec_cq'
p486
I1
sS'total_cq'
p487
I5
sa(dp488
g483
I2
sg484
F0.8572790622711182
sg485
F8.606910705566406e-05
sg486
I1
sg487
I4
sasS'total_cqs'
p489
I5
ssI51
(dp490
S'iters'
p491
I0
sS'meta'
p492
(lp493
sS'total_cqs'
p494
I1
ssI52
(dp495
S'iters'
p496
I0
sS'meta'
p497
(lp498
sS'total_cqs'
p499
I1
ssI53
(dp500
S'iters'
p501
I0
sS'meta'
p502
(lp503
sS'total_cqs'
p504
I1
ssI55
(dp505
S'iters'
p506
I1
sS'meta'
p507
(lp508
(dp509
S'objective'
p510
I1
sS'query_time'
p511
F18.991122007369995
sS'comp_time'
p512
F5.793571472167969e-05
sS'exec_cq'
p513
I1
sS'total_cq'
p514
I2
sasS'total_cqs'
p515
I2
ssI56
(dp516
S'iters'
p517
I0
sS'meta'
p518
(lp519
sS'total_cqs'
p520
I1
ssI57
(dp521
S'iters'
p522
I1
sS'meta'
p523
(lp524
(dp525
S'objective'
p526
I0
sS'query_time'
p527
F11.541746139526367
sS'comp_time'
p528
F0.00016999244689941406
sS'exec_cq'
p529
I1
sS'total_cq'
p530
I3
sasS'total_cqs'
p531
I3
ssI108
(dp532
S'iters'
p533
I0
sS'meta'
p534
(lp535
sS'total_cqs'
p536
I1
ssI109
(dp537
S'iters'
p538
I0
sS'meta'
p539
(lp540
sS'total_cqs'
p541
I1
ssI116
(dp542
S'iters'
p543
I2
sS'meta'
p544
(lp545
(dp546
S'objective'
p547
I195
sS'query_time'
p548
F1.110692024230957
sS'comp_time'
p549
F0.00010991096496582031
sS'exec_cq'
p550
I10
sS'total_cq'
p551
I21
sa(dp552
g547
I6
sg548
F4.388123035430908
sg549
F3.600120544433594e-05
sg550
I1
sg551
I2
sasS'total_cqs'
p553
I21
ssI117
(dp554
S'iters'
p555
I1
sS'meta'
p556
(lp557
(dp558
S'objective'
p559
I7
sS'query_time'
p560
F0.006232023239135742
sS'comp_time'
p561
F4.291534423828125e-05
sS'exec_cq'
p562
I2
sS'total_cq'
p563
I5
sasS'total_cqs'
p564
I5
ssI118
(dp565
S'iters'
p566
I0
sS'meta'
p567
(lp568
sS'total_cqs'
p569
I1
ssI122
(dp570
S'iters'
p571
I0
sS'meta'
p572
(lp573
sS'total_cqs'
p574
I1
ss.