(dp0
I1
(dp1
S'iters'
p2
I3
sS'meta'
p3
(lp4
(dp5
S'objective'
p6
I5
sS'query_time'
p7
F17.286869049072266
sS'comp_time'
p8
F1.271472692489624
sS'exec_cq'
p9
I3
sS'total_cq'
p10
I6
sa(dp11
g6
I1
sg7
F29.754925966262817
sg8
F2.0639312267303467
sg9
I2
sg10
I4
sa(dp12
g6
I4
sg7
F0.010668039321899414
sg8
F0.245743989944458
sg9
I1
sg10
I2
sasS'total_cqs'
p13
I6
ssI2
(dp14
S'iters'
p15
I1
sS'meta'
p16
(lp17
(dp18
S'objective'
p19
I19
sS'query_time'
p20
F1.0165488719940186
sS'comp_time'
p21
F0.29983091354370117
sS'exec_cq'
p22
I6
sS'total_cq'
p23
I6
sasS'total_cqs'
p24
I6
ssI3
(dp25
S'iters'
p26
I13
sS'meta'
p27
(lp28
(dp29
S'objective'
p30
I421
sS'query_time'
p31
F0.4875760078430176
sS'comp_time'
p32
F0.049936771392822266
sS'exec_cq'
p33
I13
sS'total_cq'
p34
I33
sa(dp35
g30
I403
sg31
F26.133028030395508
sg32
F0.20676374435424805
sg33
I15
sg34
I30
sa(dp36
g30
I319
sg31
F0.0030510425567626953
sg32
F0.027742862701416016
sg33
I10
sg34
I27
sa(dp37
g30
I273
sg31
F0.01152491569519043
sg32
F0.5812232494354248
sg33
I12
sg34
I24
sa(dp38
g30
I210
sg31
F0.0029370784759521484
sg32
F0.0246121883392334
sg33
I7
sg34
I21
sa(dp39
g30
I205
sg31
F0.1810438632965088
sg32
F0.104583740234375
sg33
I5
sg34
I19
sa(dp40
g30
I157
sg31
F0.010666131973266602
sg32
F0.17731904983520508
sg33
I9
sg34
I18
sa(dp41
g30
I141
sg31
F0.003268003463745117
sg32
F0.03056192398071289
sg33
I4
sg34
I15
sa(dp42
g30
I87
sg31
F0.002483844757080078
sg32
F0.024518966674804688
sg33
I5
sg34
I14
sa(dp43
g30
I74
sg31
F0.0021669864654541016
sg32
F0.08986330032348633
sg33
I6
sg34
I11
sa(dp44
g30
I47
sg31
F0.002405881881713867
sg32
F0.024588346481323242
sg33
I3
sg34
I8
sa(dp45
g30
I42
sg31
F0.0001628398895263672
sg32
F0.0018568038940429688
sg33
I3
sg34
I7
sa(dp46
g30
I56
sg31
F0.0030670166015625
sg32
F0.023739337921142578
sg33
I2
sg34
I6
sasS'total_cqs'
p47
I33
ssI4
(dp48
S'iters'
p49
I0
sS'meta'
p50
(lp51
sS'total_cqs'
p52
I1
ssI5
(dp53
S'iters'
p54
I0
sS'meta'
p55
(lp56
sS'total_cqs'
p57
I1
ssI6
(dp58
S'iters'
p59
I3
sS'meta'
p60
(lp61
(dp62
S'objective'
p63
I1
sS'query_time'
p64
F15.306205987930298
sS'comp_time'
p65
F0.006355762481689453
sS'exec_cq'
p66
I4
sS'total_cq'
p67
I5
sa(dp68
g63
I0
sg64
F0.005312919616699219
sg65
F0.003470182418823242
sg66
I2
sg67
I3
sa(dp69
g63
I2
sg64
F0.0008561611175537109
sg65
F0.0018579959869384766
sg66
I2
sg67
I2
sasS'total_cqs'
p70
I5
ssI7
(dp71
S'iters'
p72
I0
sS'meta'
p73
(lp74
sS'total_cqs'
p75
I1
ssI8
(dp76
S'iters'
p77
I4
sS'meta'
p78
(lp79
(dp80
S'objective'
p81
I3
sS'query_time'
p82
F84.17451095581055
sS'comp_time'
p83
F0.7007479667663574
sS'exec_cq'
p84
I5
sS'total_cq'
p85
I6
sa(dp86
g81
I2
sg82
F0.03013896942138672
sg83
F0.4519660472869873
sg84
I3
sg85
I4
sa(dp87
g81
I3
sg82
F1.7881393432617188e-05
sg83
F1.3975341320037842
sg84
I2
sg85
I3
sa(dp88
g81
I3
sg82
F1.0013580322265625e-05
sg83
F0.0010921955108642578
sg84
I1
sg85
I2
sasS'total_cqs'
p89
I6
ssI9
(dp90
S'iters'
p91
I3
sS'meta'
p92
(lp93
(dp94
S'objective'
p95
I1
sS'query_time'
p96
F12.23038911819458
sS'comp_time'
p97
F0.7366011142730713
sS'exec_cq'
p98
I3
sS'total_cq'
p99
I6
sa(dp100
g95
I0
sg96
F0.05976986885070801
sg97
F0.7556557655334473
sg98
I3
sg99
I3
sa(dp101
g95
I3
sg96
F0.04340696334838867
sg97
F0.6048777103424072
sg98
I2
sg99
I2
sasS'total_cqs'
p102
I6
ssI10
(dp103
S'iters'
p104
I0
sS'meta'
p105
(lp106
sS'total_cqs'
p107
I1
ssI11
(dp108
S'iters'
p109
I0
sS'meta'
p110
(lp111
sS'total_cqs'
p112
I1
ssI12
(dp113
S'iters'
p114
I0
sS'meta'
p115
(lp116
sS'total_cqs'
p117
I1
ssI13
(dp118
S'iters'
p119
I2
sS'meta'
p120
(lp121
(dp122
S'objective'
p123
I32
sS'query_time'
p124
F0.006685972213745117
sS'comp_time'
p125
F0.0005152225494384766
sS'exec_cq'
p126
I6
sS'total_cq'
p127
I8
sa(dp128
g123
I32
sg124
F2.8848648071289062e-05
sg125
F8.082389831542969e-05
sg126
I5
sg127
I7
sasS'total_cqs'
p129
I8
ssI14
(dp130
S'iters'
p131
I3
sS'meta'
p132
(lp133
(dp134
S'objective'
p135
I5
sS'query_time'
p136
F1.0559709072113037
sS'comp_time'
p137
F0.008904218673706055
sS'exec_cq'
p138
I5
sS'total_cq'
p139
I5
sa(dp140
g135
I4
sg136
F0.0005350112915039062
sg137
F0.006602048873901367
sg138
I4
sg139
I4
sa(dp141
g135
I5
sg136
F0.0005469322204589844
sg137
F0.006592988967895508
sg138
I3
sg139
I3
sasS'total_cqs'
p142
I5
ssI16
(dp143
S'iters'
p144
I3
sS'meta'
p145
(lp146
(dp147
S'objective'
p148
I3
sS'query_time'
p149
F1.3916239738464355
sS'comp_time'
p150
F0.015534162521362305
sS'exec_cq'
p151
I4
sS'total_cq'
p152
I5
sa(dp153
g148
I0
sg149
F0.04478001594543457
sg150
F0.000782012939453125
sg151
I1
sg152
I3
sa(dp154
g148
I1
sg149
F7.700920104980469e-05
sg150
F0.00038909912109375
sg151
I2
sg152
I2
sasS'total_cqs'
p155
I5
ssI17
(dp156
S'iters'
p157
I0
sS'meta'
p158
(lp159
sS'total_cqs'
p160
I1
ssI18
(dp161
S'iters'
p162
I3
sS'meta'
p163
(lp164
(dp165
S'objective'
p166
I1
sS'query_time'
p167
F0.1272740364074707
sS'comp_time'
p168
F0.0007369518280029297
sS'exec_cq'
p169
I4
sS'total_cq'
p170
I5
sa(dp171
g166
I1
sg167
F0.026391029357910156
sg168
F0.00023889541625976562
sg169
I1
sg170
I3
sa(dp172
g166
I1
sg167
F5.4836273193359375e-05
sg168
F0.0002562999725341797
sg169
I2
sg170
I2
sasS'total_cqs'
p173
I5
ssI19
(dp174
S'iters'
p175
I0
sS'meta'
p176
(lp177
sS'total_cqs'
p178
I1
ssI20
(dp179
S'iters'
p180
I6
sS'meta'
p181
(lp182
(dp183
S'objective'
p184
I40
sS'query_time'
p185
F9.295581102371216
sS'comp_time'
p186
F2.707551956176758
sS'exec_cq'
p187
I6
sS'total_cq'
p188
I12
sa(dp189
g184
I29
sg185
F4.254915952682495
sg186
F0.872204065322876
sg187
I4
sg188
I10
sa(dp190
g184
I16
sg185
F0.28163599967956543
sg186
F1.689452886581421
sg187
I4
sg188
I8
sa(dp191
g184
I22
sg185
F0.00012302398681640625
sg186
F0.0008678436279296875
sg187
I2
sg188
I6
sa(dp192
g184
I10
sg185
F0.21542787551879883
sg186
F1.2060437202453613
sg187
I3
sg188
I5
sa(dp193
g184
I16
sg185
F0.09980964660644531
sg186
F0.006400346755981445
sg187
I4
sg188
I4
sasS'total_cqs'
p194
I12
ssI21
(dp195
S'iters'
p196
I6
sS'meta'
p197
(lp198
(dp199
S'objective'
p200
I41
sS'query_time'
p201
F93.19940209388733
sS'comp_time'
p202
F0.4055948257446289
sS'exec_cq'
p203
I8
sS'total_cq'
p204
I14
sa(dp205
g200
I33
sg201
F0.010267972946166992
sg202
F0.2437136173248291
sg203
I4
sg204
I10
sa(dp206
g200
I1
sg201
F29.355027198791504
sg202
F2.536799192428589
sg203
I4
sg204
I8
sa(dp207
g200
I4
sg201
F0.001241922378540039
sg202
F0.01744675636291504
sg203
I2
sg204
I4
sa(dp208
g200
I3
sg201
F1.9073486328125e-05
sg202
F0.0015897750854492188
sg203
I1
sg204
I3
sa(dp209
g200
I4
sg201
F0.01471710205078125
sg202
F0.0001289844512939453
sg203
I1
sg204
I2
sasS'total_cqs'
p210
I14
ssI22
(dp211
S'iters'
p212
I1
sS'meta'
p213
(lp214
(dp215
S'objective'
p216
I1
sS'query_time'
p217
F0.016571998596191406
sS'comp_time'
p218
F0.00035572052001953125
sS'exec_cq'
p219
I1
sS'total_cq'
p220
I2
sasS'total_cqs'
p221
I2
ssI23
(dp222
S'iters'
p223
I0
sS'meta'
p224
(lp225
sS'total_cqs'
p226
I1
ssI24
(dp227
S'iters'
p228
I0
sS'meta'
p229
(lp230
sS'total_cqs'
p231
I1
ssI25
(dp232
S'iters'
p233
I4
sS'meta'
p234
(lp235
(dp236
S'objective'
p237
I6
sS'query_time'
p238
F68.0986909866333
sS'comp_time'
p239
F7.051297187805176
sS'exec_cq'
p240
I4
sS'total_cq'
p241
I7
sa(dp242
g237
I1
sg238
F4.422535181045532
sg239
F0.16169309616088867
sg240
I2
sg241
I5
sa(dp243
g237
I1
sg238
F1.7881393432617188e-05
sg239
F0.08964800834655762
sg240
I2
sg241
I3
sa(dp244
g237
I2
sg238
F1.7881393432617188e-05
sg239
F0.03441023826599121
sg240
I1
sg241
I2
sasS'total_cqs'
p245
I7
ssI26
(dp246
S'iters'
p247
I9
sS'meta'
p248
(lp249
(dp250
S'objective'
p251
I65
sS'query_time'
p252
F22.633302927017212
sS'comp_time'
p253
F0.010096073150634766
sS'exec_cq'
p254
I3
sS'total_cq'
p255
I13
sa(dp256
g251
I52
sg252
F0.17125201225280762
sg253
F0.11367177963256836
sg254
I4
sg255
I12
sa(dp257
g251
I41
sg252
F0.00037217140197753906
sg253
F0.006091117858886719
sg254
I2
sg255
I10
sa(dp258
g251
I23
sg252
F0.009109973907470703
sg253
F0.00019598007202148438
sg254
I2
sg255
I9
sa(dp259
g251
I16
sg252
F0.027513980865478516
sg253
F0.003420114517211914
sg254
I1
sg255
I7
sa(dp260
g251
I17
sg252
F0.0016658306121826172
sg253
F0.010640144348144531
sg254
I2
sg255
I6
sa(dp261
g251
I4
sg252
F3.7748241424560547
sg253
F0.025264978408813477
sg254
I2
sg255
I5
sa(dp262
g251
I3
sg252
F2.2172927856445312e-05
sg253
F0.0019960403442382812
sg254
I1
sg255
I3
sa(dp263
g251
I3
sg252
F0.00032401084899902344
sg253
F0.0022509098052978516
sg254
I1
sg255
I2
sasS'total_cqs'
p264
I13
ssI27
(dp265
S'iters'
p266
I1
sS'meta'
p267
(lp268
(dp269
S'objective'
p270
I1
sS'query_time'
p271
F0.2127540111541748
sS'comp_time'
p272
F0.010098695755004883
sS'exec_cq'
p273
I1
sS'total_cq'
p274
I2
sasS'total_cqs'
p275
I2
ssI28
(dp276
S'iters'
p277
I10
sS'meta'
p278
(lp279
(dp280
S'objective'
p281
I47
sS'query_time'
p282
F1.4929008483886719
sS'comp_time'
p283
F0.054884910583496094
sS'exec_cq'
p284
I6
sS'total_cq'
p285
I14
sa(dp286
g281
I36
sg282
F0.0033540725708007812
sg283
F0.040166378021240234
sg284
I3
sg285
I11
sa(dp287
g281
I36
sg282
F0.0033600330352783203
sg283
F0.00013685226440429688
sg284
I2
sg285
I9
sa(dp288
g281
I22
sg282
F0.021524906158447266
sg283
F0.0025920867919921875
sg284
I1
sg285
I8
sa(dp289
g281
I16
sg282
F1.0967254638671875e-05
sg283
F8.0108642578125e-05
sg284
I1
sg285
I7
sa(dp290
g281
I9
sg282
F0.0014100074768066406
sg283
F9.584426879882812e-05
sg284
I1
sg285
I6
sa(dp291
g281
I5
sg282
F0.017501115798950195
sg283
F0.0015709400177001953
sg284
I1
sg285
I5
sa(dp292
g281
I1
sg282
F0.00014090538024902344
sg283
F0.0015041828155517578
sg284
I1
sg285
I4
sa(dp293
g281
I0
sg282
F0.008491039276123047
sg283
F0.0008490085601806641
sg284
I1
sg285
I3
sa(dp294
g281
I1
sg282
F0.0014638900756835938
sg283
F0.00011920928955078125
sg284
I1
sg285
I2
sasS'total_cqs'
p295
I14
ssI29
(dp296
S'iters'
p297
I1
sS'meta'
p298
(lp299
(dp300
S'objective'
p301
I1
sS'query_time'
p302
F0.004968881607055664
sS'comp_time'
p303
F0.0003190040588378906
sS'exec_cq'
p304
I2
sS'total_cq'
p305
I2
sasS'total_cqs'
p306
I2
ssI30
(dp307
S'iters'
p308
I1
sS'meta'
p309
(lp310
(dp311
S'objective'
p312
I1
sS'query_time'
p313
F0.3143129348754883
sS'comp_time'
p314
F0.01018524169921875
sS'exec_cq'
p315
I2
sS'total_cq'
p316
I2
sasS'total_cqs'
p317
I2
ssI31
(dp318
S'iters'
p319
I4
sS'meta'
p320
(lp321
(dp322
S'objective'
p323
I17
sS'query_time'
p324
F4.651216983795166
sS'comp_time'
p325
F0.3117821216583252
sS'exec_cq'
p326
I4
sS'total_cq'
p327
I9
sa(dp328
g323
I9
sg324
F1.4063689708709717
sg325
F0.07124590873718262
sg326
I5
sg327
I7
sa(dp329
g323
I5
sg324
F0.008552789688110352
sg325
F0.17323088645935059
sg326
I3
sg327
I3
sa(dp330
g323
I1
sg324
F0.009150028228759766
sg325
F0.06624293327331543
sg326
I2
sg327
I2
sasS'total_cqs'
p331
I9
ssI32
(dp332
S'iters'
p333
I4
sS'meta'
p334
(lp335
(dp336
S'objective'
p337
I2
sS'query_time'
p338
F22.343111038208008
sS'comp_time'
p339
F7.172445058822632
sS'exec_cq'
p340
I4
sS'total_cq'
p341
I7
sa(dp342
g337
I3
sg338
F0.45288801193237305
sg339
F3.019625186920166
sg340
I2
sg341
I5
sa(dp343
g337
I0
sg338
F1.069136142730713
sg339
F0.03106403350830078
sg340
I2
sg341
I3
sa(dp344
g337
I1
sg338
F0.0032720565795898438
sg339
F0.02965998649597168
sg340
I1
sg341
I2
sasS'total_cqs'
p345
I7
ssI33
(dp346
S'iters'
p347
I1
sS'meta'
p348
(lp349
(dp350
S'objective'
p351
I1
sS'query_time'
p352
F0.05298900604248047
sS'comp_time'
p353
F0.00036406517028808594
sS'exec_cq'
p354
I2
sS'total_cq'
p355
I2
sasS'total_cqs'
p356
I2
ssI34
(dp357
S'iters'
p358
I0
sS'meta'
p359
(lp360
sS'total_cqs'
p361
I1
ssI35
(dp362
S'iters'
p363
I3
sS'meta'
p364
(lp365
(dp366
S'objective'
p367
I1
sS'query_time'
p368
F14.18245005607605
sS'comp_time'
p369
F0.5923123359680176
sS'exec_cq'
p370
I4
sS'total_cq'
p371
I5
sa(dp372
g367
I0
sg368
F0.016108989715576172
sg369
F0.26563096046447754
sg370
I2
sg371
I3
sa(dp373
g367
I2
sg368
F0.0005948543548583984
sg369
F0.005264997482299805
sg370
I1
sg371
I2
sasS'total_cqs'
p374
I5
ssI37
(dp375
S'iters'
p376
I4
sS'meta'
p377
(lp378
(dp379
S'objective'
p380
I35
sS'query_time'
p381
F1.2525289058685303
sS'comp_time'
p382
F0.21879887580871582
sS'exec_cq'
p383
I4
sS'total_cq'
p384
I10
sa(dp385
g380
I27
sg381
F0.005944013595581055
sg382
F0.06221938133239746
sg383
I3
sg384
I9
sa(dp386
g380
I28
sg381
F0.4600410461425781
sg382
F0.11700820922851562
sg383
I4
sg384
I8
sa(dp387
g380
I2
sg381
F0.0026960372924804688
sg382
F0.021999120712280273
sg383
I2
sg384
I2
sasS'total_cqs'
p388
I10
ssI38
(dp389
S'iters'
p390
I0
sS'meta'
p391
(lp392
sS'total_cqs'
p393
I1
ssI39
(dp394
S'iters'
p395
I0
sS'meta'
p396
(lp397
sS'total_cqs'
p398
I1
ssI40
(dp399
S'iters'
p400
I1
sS'meta'
p401
(lp402
(dp403
S'objective'
p404
I1
sS'query_time'
p405
F0.0015559196472167969
sS'comp_time'
p406
F0.0001571178436279297
sS'exec_cq'
p407
I1
sS'total_cq'
p408
I2
sasS'total_cqs'
p409
I2
ssI41
(dp410
S'iters'
p411
I4
sS'meta'
p412
(lp413
(dp414
S'objective'
p415
I5
sS'query_time'
p416
F10.183825016021729
sS'comp_time'
p417
F3.143141984939575
sS'exec_cq'
p418
I3
sS'total_cq'
p419
I6
sa(dp420
g415
I1
sg416
F0.5931580066680908
sg417
F0.006794929504394531
sg418
I2
sg419
I4
sa(dp421
g415
I1
sg416
F0.0009579658508300781
sg417
F0.007700920104980469
sg418
I1
sg419
I3
sa(dp422
g415
I1
sg416
F1.5974044799804688e-05
sg417
F0.00017690658569335938
sg418
I1
sg419
I2
sasS'total_cqs'
p423
I6
ssI42
(dp424
S'iters'
p425
I1
sS'meta'
p426
(lp427
(dp428
S'objective'
p429
I1
sS'query_time'
p430
F0.005435943603515625
sS'comp_time'
p431
F0.0003581047058105469
sS'exec_cq'
p432
I1
sS'total_cq'
p433
I2
sasS'total_cqs'
p434
I2
ssI43
(dp435
S'iters'
p436
I0
sS'meta'
p437
(lp438
sS'total_cqs'
p439
I1
ssI44
(dp440
S'iters'
p441
I4
sS'meta'
p442
(lp443
(dp444
S'objective'
p445
I5
sS'query_time'
p446
F1.319775104522705
sS'comp_time'
p447
F0.23721098899841309
sS'exec_cq'
p448
I2
sS'total_cq'
p449
I5
sa(dp450
g445
I2
sg446
F0.23061299324035645
sg447
F0.0029418468475341797
sg448
I2
sg449
I4
sa(dp451
g445
I0
sg446
F5.91278076171875e-05
sg447
F0.0007102489471435547
sg448
I1
sg449
I3
sa(dp452
g445
I1
sg446
F7.200241088867188e-05
sg447
F0.0007112026214599609
sg448
I1
sg449
I2
sasS'total_cqs'
p453
I5
ssI45
(dp454
S'iters'
p455
I2
sS'meta'
p456
(lp457
(dp458
S'objective'
p459
I9
sS'query_time'
p460
F0.028928041458129883
sS'comp_time'
p461
F0.054569244384765625
sS'exec_cq'
p462
I3
sS'total_cq'
p463
I5
sa(dp464
g459
I1
sg460
F0.0001800060272216797
sg461
F0.0010712146759033203
sg462
I2
sg463
I2
sasS'total_cqs'
p465
I5
ssI46
(dp466
S'iters'
p467
I0
sS'meta'
p468
(lp469
sS'total_cqs'
p470
I1
ssI47
(dp471
S'iters'
p472
I0
sS'meta'
p473
(lp474
sS'total_cqs'
p475
I1
ssI48
(dp476
S'iters'
p477
I1
sS'meta'
p478
(lp479
(dp480
S'objective'
p481
I1
sS'query_time'
p482
F0.08504796028137207
sS'comp_time'
p483
F0.005688190460205078
sS'exec_cq'
p484
I2
sS'total_cq'
p485
I2
sasS'total_cqs'
p486
I2
ssI49
(dp487
S'iters'
p488
I2
sS'meta'
p489
(lp490
(dp491
S'objective'
p492
I1
sS'query_time'
p493
F0.21432900428771973
sS'comp_time'
p494
F0.0044133663177490234
sS'exec_cq'
p495
I4
sS'total_cq'
p496
I5
sa(dp497
g492
I5
sg493
F3.0040740966796875e-05
sg494
F0.0001628398895263672
sg495
I2
sg496
I3
sasS'total_cqs'
p498
I5
ssI50
(dp499
S'iters'
p500
I4
sS'meta'
p501
(lp502
(dp503
S'objective'
p504
I5
sS'query_time'
p505
F0.6413459777832031
sS'comp_time'
p506
F0.004300832748413086
sS'exec_cq'
p507
I5
sS'total_cq'
p508
I5
sa(dp509
g504
I2
sg505
F0.0001480579376220703
sg506
F0.0014798641204833984
sg507
I4
sg508
I4
sa(dp510
g504
I0
sg505
F0.00011992454528808594
sg506
F0.0015020370483398438
sg507
I3
sg508
I3
sa(dp511
g504
I1
sg505
F7.915496826171875e-05
sg506
F0.0009012222290039062
sg507
I2
sg508
I2
sasS'total_cqs'
p512
I5
ssI51
(dp513
S'iters'
p514
I0
sS'meta'
p515
(lp516
sS'total_cqs'
p517
I1
ssI52
(dp518
S'iters'
p519
I0
sS'meta'
p520
(lp521
sS'total_cqs'
p522
I1
ssI53
(dp523
S'iters'
p524
I0
sS'meta'
p525
(lp526
sS'total_cqs'
p527
I1
ssI55
(dp528
S'iters'
p529
I1
sS'meta'
p530
(lp531
(dp532
S'objective'
p533
I1
sS'query_time'
p534
F24.220743894577026
sS'comp_time'
p535
F0.10723614692687988
sS'exec_cq'
p536
I2
sS'total_cq'
p537
I2
sasS'total_cqs'
p538
I2
ssI56
(dp539
S'iters'
p540
I0
sS'meta'
p541
(lp542
sS'total_cqs'
p543
I1
ssI57
(dp544
S'iters'
p545
I2
sS'meta'
p546
(lp547
(dp548
S'objective'
p549
I2
sS'query_time'
p550
F12.464493989944458
sS'comp_time'
p551
F4.421924114227295
sS'exec_cq'
p552
I2
sS'total_cq'
p553
I3
sa(dp554
g549
I2
sg550
F0.5869390964508057
sg551
F2.7279417514801025
sg552
I1
sg553
I2
sasS'total_cqs'
p555
I3
ssI108
(dp556
S'iters'
p557
I0
sS'meta'
p558
(lp559
sS'total_cqs'
p560
I1
ssI109
(dp561
S'iters'
p562
I0
sS'meta'
p563
(lp564
sS'total_cqs'
p565
I1
ssI116
(dp566
S'iters'
p567
I3
sS'meta'
p568
(lp569
(dp570
S'objective'
p571
I175
sS'query_time'
p572
F3.612576961517334
sS'comp_time'
p573
F0.7839961051940918
sS'exec_cq'
p574
I9
sS'total_cq'
p575
I21
sa(dp576
g571
I171
sg572
F0.5469870567321777
sg573
F0.005962848663330078
sg574
I16
sg575
I19
sa(dp577
g571
I14
sg572
F0.0007381439208984375
sg573
F0.005325794219970703
sg574
I2
sg575
I2
sasS'total_cqs'
p578
I21
ssI117
(dp579
S'iters'
p580
I2
sS'meta'
p581
(lp582
(dp583
S'objective'
p584
I5
sS'query_time'
p585
F0.006078004837036133
sS'comp_time'
p586
F0.00010633468627929688
sS'exec_cq'
p587
I3
sS'total_cq'
p588
I5
sa(dp589
g584
I8
sg585
F0.002804994583129883
sg586
F0.0001220703125
sg587
I4
sg588
I4
sasS'total_cqs'
p590
I5
ssI118
(dp591
S'iters'
p592
I0
sS'meta'
p593
(lp594
sS'total_cqs'
p595
I1
ssI122
(dp596
S'iters'
p597
I0
sS'meta'
p598
(lp599
sS'total_cqs'
p600
I1
ss.