(dp0
I1
(dp1
S'iters'
p2
I2
sS'meta'
p3
(lp4
(dp5
S'objective'
p6
I5
sS'query_time'
p7
F24.39527201652527
sS'comp_time'
p8
F1.334850788116455
sS'exec_cq'
p9
I6
sS'total_cq'
p10
I6
sa(dp11
g6
I4
sg7
F0.013818025588989258
sg8
F244.03617429733276
sg9
I2
sg10
I2
sasS'total_cqs'
p12
I6
ssI2
(dp13
S'iters'
p14
I1
sS'meta'
p15
(lp16
(dp17
S'objective'
p18
I9
sS'query_time'
p19
F0.8291771411895752
sS'comp_time'
p20
F0.10938286781311035
sS'exec_cq'
p21
I6
sS'total_cq'
p22
I6
sasS'total_cqs'
p23
I6
ssI3
(dp24
S'iters'
p25
I6
sS'meta'
p26
(lp27
(dp28
S'objective'
p29
I431
sS'query_time'
p30
F27.016720056533813
sS'comp_time'
p31
F0.22704601287841797
sS'exec_cq'
p32
I33
sS'total_cq'
p33
I33
sa(dp34
g29
I380
sg30
F0.027470827102661133
sg31
F0.21253228187561035
sg32
I30
sg33
I30
sa(dp35
g29
I324
sg30
F0.05751800537109375
sg31
F0.16315031051635742
sg32
I27
sg33
I27
sa(dp36
g29
I267
sg30
F0.05850815773010254
sg31
F0.16571903228759766
sg32
I24
sg33
I24
sa(dp37
g29
I214
sg30
F0.010662078857421875
sg31
F0.10296392440795898
sg32
I21
sg33
I21
sa(dp38
g29
I203
sg30
F0.008866071701049805
sg31
F0.07005596160888672
sg32
I18
sg33
I18
sasS'total_cqs'
p39
I33
ssI4
(dp40
S'iters'
p41
I0
sS'meta'
p42
(lp43
sS'total_cqs'
p44
I1
ssI5
(dp45
S'iters'
p46
I0
sS'meta'
p47
(lp48
sS'total_cqs'
p49
I1
ssI6
(dp50
S'iters'
p51
I2
sS'meta'
p52
(lp53
(dp54
S'objective'
p55
I1
sS'query_time'
p56
F15.246217966079712
sS'comp_time'
p57
F0.0029358863830566406
sS'exec_cq'
p58
I5
sS'total_cq'
p59
I5
sa(dp60
g55
I2
sg56
F0.0002567768096923828
sg57
F0.0016012191772460938
sg58
I2
sg59
I2
sasS'total_cqs'
p61
I5
ssI7
(dp62
S'iters'
p63
I0
sS'meta'
p64
(lp65
sS'total_cqs'
p66
I1
ssI8
(dp67
S'iters'
p68
I2
sS'meta'
p69
(lp70
(dp71
S'objective'
p72
I15
sS'query_time'
p73
F22.672411918640137
sS'comp_time'
p74
F0.2991797924041748
sS'exec_cq'
p75
I6
sS'total_cq'
p76
I6
sa(dp77
g72
I6
sg73
F0.09895205497741699
sg74
F0.08817887306213379
sg75
I5
sg76
I5
sasS'total_cqs'
p78
I6
ssI9
(dp79
S'iters'
p80
I2
sS'meta'
p81
(lp82
(dp83
S'objective'
p84
I1
sS'query_time'
p85
F53.11789512634277
sS'comp_time'
p86
F4.1604437828063965
sS'exec_cq'
p87
I6
sS'total_cq'
p88
I6
sa(dp89
g84
I1
sg85
F0.06531691551208496
sg86
F0.5536189079284668
sg87
I3
sg88
I3
sasS'total_cqs'
p90
I6
ssI10
(dp91
S'iters'
p92
I0
sS'meta'
p93
(lp94
sS'total_cqs'
p95
I1
ssI11
(dp96
S'iters'
p97
I0
sS'meta'
p98
(lp99
sS'total_cqs'
p100
I1
ssI12
(dp101
S'iters'
p102
I0
sS'meta'
p103
(lp104
sS'total_cqs'
p105
I1
ssI13
(dp106
S'iters'
p107
I1
sS'meta'
p108
(lp109
(dp110
S'objective'
p111
I20
sS'query_time'
p112
F0.019381999969482422
sS'comp_time'
p113
F0.0001380443572998047
sS'exec_cq'
p114
I8
sS'total_cq'
p115
I8
sasS'total_cqs'
p116
I8
ssI14
(dp117
S'iters'
p118
I1
sS'meta'
p119
(lp120
(dp121
S'objective'
p122
I5
sS'query_time'
p123
F1.0697548389434814
sS'comp_time'
p124
F0.008090019226074219
sS'exec_cq'
p125
I5
sS'total_cq'
p126
I5
sasS'total_cqs'
p127
I5
ssI16
(dp128
S'iters'
p129
I2
sS'meta'
p130
(lp131
(dp132
S'objective'
p133
I1
sS'query_time'
p134
F1.623363971710205
sS'comp_time'
p135
F0.006999015808105469
sS'exec_cq'
p136
I5
sS'total_cq'
p137
I5
sa(dp138
g133
I3
sg134
F6.198883056640625e-05
sg135
F0.00021886825561523438
sg136
I2
sg137
I2
sasS'total_cqs'
p139
I5
ssI17
(dp140
S'iters'
p141
I0
sS'meta'
p142
(lp143
sS'total_cqs'
p144
I1
ssI18
(dp145
S'iters'
p146
I2
sS'meta'
p147
(lp148
(dp149
S'objective'
p150
I1
sS'query_time'
p151
F0.312730073928833
sS'comp_time'
p152
F0.00033593177795410156
sS'exec_cq'
p153
I5
sS'total_cq'
p154
I5
sa(dp155
g150
I2
sg151
F4.9114227294921875e-05
sg152
F0.00011515617370605469
sg153
I3
sg154
I3
sasS'total_cqs'
p156
I5
ssI19
(dp157
S'iters'
p158
I0
sS'meta'
p159
(lp160
sS'total_cqs'
p161
I1
ssI20
(dp162
S'iters'
p163
I4
sS'meta'
p164
(lp165
(dp166
S'objective'
p167
I40
sS'query_time'
p168
F11.402792930603027
sS'comp_time'
p169
F1.1470999717712402
sS'exec_cq'
p170
I12
sS'total_cq'
p171
I12
sa(dp172
g167
I31
sg168
F0.2502481937408447
sg169
F0.9957671165466309
sg170
I10
sg171
I10
sa(dp173
g167
I19
sg168
F0.16901016235351562
sg169
F0.6477198600769043
sg170
I8
sg171
I8
sa(dp174
g167
I8
sg168
F0.13599491119384766
sg169
F0.45355916023254395
sg170
I6
sg171
I6
sasS'total_cqs'
p175
I12
ssI21
(dp176
S'iters'
p177
I2
sS'meta'
p178
(lp179
(dp180
S'objective'
p181
I65
sS'query_time'
p182
F28.30692982673645
sS'comp_time'
p183
F0.25590085983276367
sS'exec_cq'
p184
I14
sS'total_cq'
p185
I14
sa(dp186
g181
I8
sg182
F0.005379199981689453
sg183
F0.020262956619262695
sg184
I2
sg185
I2
sasS'total_cqs'
p187
I14
ssI22
(dp188
S'iters'
p189
I1
sS'meta'
p190
(lp191
(dp192
S'objective'
p193
I1
sS'query_time'
p194
F0.006658077239990234
sS'comp_time'
p195
F0.00011301040649414062
sS'exec_cq'
p196
I2
sS'total_cq'
p197
I2
sasS'total_cqs'
p198
I2
ssI23
(dp199
S'iters'
p200
I0
sS'meta'
p201
(lp202
sS'total_cqs'
p203
I1
ssI24
(dp204
S'iters'
p205
I0
sS'meta'
p206
(lp207
sS'total_cqs'
p208
I1
ssI25
(dp209
S'iters'
p210
I1
sS'meta'
p211
(lp212
(dp213
S'objective'
p214
I14
sS'query_time'
p215
F87.27306389808655
sS'comp_time'
p216
F10.07928204536438
sS'exec_cq'
p217
I7
sS'total_cq'
p218
I7
sasS'total_cqs'
p219
I7
ssI26
(dp220
S'iters'
p221
I3
sS'meta'
p222
(lp223
(dp224
S'objective'
p225
I59
sS'query_time'
p226
F24.552376985549927
sS'comp_time'
p227
F3.055401086807251
sS'exec_cq'
p228
I13
sS'total_cq'
p229
I13
sa(dp230
g225
I49
sg226
F0.7486519813537598
sg227
F3.1537868976593018
sg228
I11
sg229
I11
sa(dp231
g225
I36
sg226
F0.7332029342651367
sg227
F3.1947128772735596
sg228
I9
sg229
I9
sasS'total_cqs'
p232
I13
ssI27
(dp233
S'iters'
p234
I1
sS'meta'
p235
(lp236
(dp237
S'objective'
p238
I1
sS'query_time'
p239
F0.14658188819885254
sS'comp_time'
p240
F0.004550933837890625
sS'exec_cq'
p241
I2
sS'total_cq'
p242
I2
sasS'total_cqs'
p243
I2
ssI28
(dp244
S'iters'
p245
I3
sS'meta'
p246
(lp247
(dp248
S'objective'
p249
I29
sS'query_time'
p250
F1.7460901737213135
sS'comp_time'
p251
F0.0271148681640625
sS'exec_cq'
p252
I14
sS'total_cq'
p253
I14
sa(dp254
g249
I3
sg250
F0.003699064254760742
sg251
F0.01976299285888672
sg252
I10
sg253
I10
sa(dp255
g249
I7
sg250
F0.0031080245971679688
sg251
F0.037528038024902344
sg252
I7
sg253
I7
sasS'total_cqs'
p256
I14
ssI29
(dp257
S'iters'
p258
I1
sS'meta'
p259
(lp260
(dp261
S'objective'
p262
I1
sS'query_time'
p263
F0.006720066070556641
sS'comp_time'
p264
F0.00012183189392089844
sS'exec_cq'
p265
I2
sS'total_cq'
p266
I2
sasS'total_cqs'
p267
I2
ssI30
(dp268
S'iters'
p269
I1
sS'meta'
p270
(lp271
(dp272
S'objective'
p273
I1
sS'query_time'
p274
F0.3489069938659668
sS'comp_time'
p275
F0.0054891109466552734
sS'exec_cq'
p276
I2
sS'total_cq'
p277
I2
sasS'total_cqs'
p278
I2
ssI31
(dp279
S'iters'
p280
I3
sS'meta'
p281
(lp282
(dp283
S'objective'
p284
I19
sS'query_time'
p285
F5.993896007537842
sS'comp_time'
p286
F0.15216898918151855
sS'exec_cq'
p287
I9
sS'total_cq'
p288
I9
sa(dp289
g284
I6
sg285
F0.007302999496459961
sg286
F0.028529882431030273
sg287
I7
sg288
I7
sa(dp290
g284
I1
sg285
F0.005803108215332031
sg286
F0.05358099937438965
sg287
I5
sg288
I5
sasS'total_cqs'
p291
I9
ssI32
(dp292
S'iters'
p293
I2
sS'meta'
p294
(lp295
(dp296
S'objective'
p297
I2
sS'query_time'
p298
F19.780415058135986
sS'comp_time'
p299
F3.2031900882720947
sS'exec_cq'
p300
I7
sS'total_cq'
p301
I7
sa(dp302
g297
I1
sg298
F0.37406110763549805
sg299
F1.2199831008911133
sg300
I4
sg301
I4
sasS'total_cqs'
p303
I7
ssI33
(dp304
S'iters'
p305
I1
sS'meta'
p306
(lp307
(dp308
S'objective'
p309
I1
sS'query_time'
p310
F0.02501702308654785
sS'comp_time'
p311
F0.00013494491577148438
sS'exec_cq'
p312
I2
sS'total_cq'
p313
I2
sasS'total_cqs'
p314
I2
ssI34
(dp315
S'iters'
p316
I0
sS'meta'
p317
(lp318
sS'total_cqs'
p319
I1
ssI35
(dp320
S'iters'
p321
I2
sS'meta'
p322
(lp323
(dp324
S'objective'
p325
I1
sS'query_time'
p326
F16.98038911819458
sS'comp_time'
p327
F0.28417086601257324
sS'exec_cq'
p328
I5
sS'total_cq'
p329
I5
sa(dp330
g325
I2
sg326
F0.037030935287475586
sg327
F0.1685798168182373
sg328
I3
sg329
I3
sasS'total_cqs'
p331
I5
ssI37
(dp332
S'iters'
p333
I2
sS'meta'
p334
(lp335
(dp336
S'objective'
p337
I9
sS'query_time'
p338
F2.5237460136413574
sS'comp_time'
p339
F0.13855504989624023
sS'exec_cq'
p340
I10
sS'total_cq'
p341
I10
sa(dp342
g337
I3
sg338
F0.04381108283996582
sg339
F0.04982781410217285
sg340
I3
sg341
I3
sasS'total_cqs'
p343
I10
ssI38
(dp344
S'iters'
p345
I0
sS'meta'
p346
(lp347
sS'total_cqs'
p348
I1
ssI39
(dp349
S'iters'
p350
I0
sS'meta'
p351
(lp352
sS'total_cqs'
p353
I1
ssI40
(dp354
S'iters'
p355
I1
sS'meta'
p356
(lp357
(dp358
S'objective'
p359
I1
sS'query_time'
p360
F17.904186010360718
sS'comp_time'
p361
F2.5633809566497803
sS'exec_cq'
p362
I2
sS'total_cq'
p363
I2
sasS'total_cqs'
p364
I2
ssI41
(dp365
S'iters'
p366
I2
sS'meta'
p367
(lp368
(dp369
S'objective'
p370
I5
sS'query_time'
p371
F11.93598198890686
sS'comp_time'
p372
F1.365138053894043
sS'exec_cq'
p373
I6
sS'total_cq'
p374
I6
sa(dp375
g370
I4
sg371
F0.0009579658508300781
sg372
F0.003283262252807617
sg373
I2
sg374
I2
sasS'total_cqs'
p376
I6
ssI42
(dp377
S'iters'
p378
I1
sS'meta'
p379
(lp380
(dp381
S'objective'
p382
I1
sS'query_time'
p383
F17.198567867279053
sS'comp_time'
p384
F2.5973799228668213
sS'exec_cq'
p385
I2
sS'total_cq'
p386
I2
sasS'total_cqs'
p387
I2
ssI43
(dp388
S'iters'
p389
I0
sS'meta'
p390
(lp391
sS'total_cqs'
p392
I1
ssI44
(dp393
S'iters'
p394
I2
sS'meta'
p395
(lp396
(dp397
S'objective'
p398
I5
sS'query_time'
p399
F1.4522430896759033
sS'comp_time'
p400
F0.09713029861450195
sS'exec_cq'
p401
I5
sS'total_cq'
p402
I5
sa(dp403
g398
I0
sg399
F0.017874956130981445
sg400
F0.14327383041381836
sg401
I3
sg402
I3
sasS'total_cqs'
p404
I5
ssI45
(dp405
S'iters'
p406
I2
sS'meta'
p407
(lp408
(dp409
S'objective'
p410
I1
sS'query_time'
p411
F0.04501795768737793
sS'comp_time'
p412
F0.0010409355163574219
sS'exec_cq'
p413
I5
sS'total_cq'
p414
I5
sa(dp415
g410
I3
sg411
F0.00019693374633789062
sg412
F0.0006432533264160156
sg413
I2
sg414
I2
sasS'total_cqs'
p416
I5
ssI46
(dp417
S'iters'
p418
I0
sS'meta'
p419
(lp420
sS'total_cqs'
p421
I1
ssI47
(dp422
S'iters'
p423
I0
sS'meta'
p424
(lp425
sS'total_cqs'
p426
I1
ssI48
(dp427
S'iters'
p428
I1
sS'meta'
p429
(lp430
(dp431
S'objective'
p432
I1
sS'query_time'
p433
F0.10318708419799805
sS'comp_time'
p434
F0.0065882205963134766
sS'exec_cq'
p435
I2
sS'total_cq'
p436
I2
sasS'total_cqs'
p437
I2
ssI49
(dp438
S'iters'
p439
I2
sS'meta'
p440
(lp441
(dp442
S'objective'
p443
I1
sS'query_time'
p444
F0.24372601509094238
sS'comp_time'
p445
F0.002641916275024414
sS'exec_cq'
p446
I5
sS'total_cq'
p447
I5
sa(dp448
g443
I2
sg444
F0.00028586387634277344
sg445
F0.001283884048461914
sg446
I2
sg447
I2
sasS'total_cqs'
p449
I5
ssI50
(dp450
S'iters'
p451
I1
sS'meta'
p452
(lp453
(dp454
S'objective'
p455
I5
sS'query_time'
p456
F0.8878180980682373
sS'comp_time'
p457
F0.0012769699096679688
sS'exec_cq'
p458
I5
sS'total_cq'
p459
I5
sasS'total_cqs'
p460
I5
ssI51
(dp461
S'iters'
p462
I0
sS'meta'
p463
(lp464
sS'total_cqs'
p465
I1
ssI52
(dp466
S'iters'
p467
I0
sS'meta'
p468
(lp469
sS'total_cqs'
p470
I1
ssI53
(dp471
S'iters'
p472
I0
sS'meta'
p473
(lp474
sS'total_cqs'
p475
I1
ssI55
(dp476
S'iters'
p477
I1
sS'meta'
p478
(lp479
(dp480
S'objective'
p481
I1
sS'query_time'
p482
F26.461503982543945
sS'comp_time'
p483
F3.4267690181732178
sS'exec_cq'
p484
I2
sS'total_cq'
p485
I2
sasS'total_cqs'
p486
I2
ssI56
(dp487
S'iters'
p488
I0
sS'meta'
p489
(lp490
sS'total_cqs'
p491
I1
ssI57
(dp492
S'iters'
p493
I1
sS'meta'
p494
(lp495
(dp496
S'objective'
p497
I0
sS'query_time'
p498
F14.202298879623413
sS'comp_time'
p499
F1.7092700004577637
sS'exec_cq'
p500
I3
sS'total_cq'
p501
I3
sasS'total_cqs'
p502
I3
ssI108
(dp503
S'iters'
p504
I0
sS'meta'
p505
(lp506
sS'total_cqs'
p507
I1
ssI109
(dp508
S'iters'
p509
I0
sS'meta'
p510
(lp511
sS'total_cqs'
p512
I1
ssI116
(dp513
S'iters'
p514
I2
sS'meta'
p515
(lp516
(dp517
S'objective'
p518
I159
sS'query_time'
p519
F5.478517055511475
sS'comp_time'
p520
F0.2895827293395996
sS'exec_cq'
p521
I21
sS'total_cq'
p522
I21
sa(dp523
g518
I6
sg519
F0.0013799667358398438
sg520
F0.0042841434478759766
sg521
I3
sg522
I3
sasS'total_cqs'
p524
I21
ssI117
(dp525
S'iters'
p526
I1
sS'meta'
p527
(lp528
(dp529
S'objective'
p530
I5
sS'query_time'
p531
F0.019201993942260742
sS'comp_time'
p532
F9.298324584960938e-05
sS'exec_cq'
p533
I5
sS'total_cq'
p534
I5
sasS'total_cqs'
p535
I5
ssI118
(dp536
S'iters'
p537
I0
sS'meta'
p538
(lp539
sS'total_cqs'
p540
I1
ssI122
(dp541
S'iters'
p542
I0
sS'meta'
p543
(lp544
sS'total_cqs'
p545
I1
ss.