(dp0
I1
(dp1
S'iters'
p2
I2
sS'meta'
p3
(lp4
(dp5
S'objective'
p6
I1
sS'query_time'
p7
F17.8561909198761
sS'comp_time'
p8
F0.2808527946472168
sS'exec_cq'
p9
I3
sS'total_cq'
p10
I6
sa(dp11
g6
I2
sg7
F0.07394194602966309
sg8
F0.23027515411376953
sg9
I2
sg10
I2
sasS'total_cqs'
p12
I6
ssI2
(dp13
S'iters'
p14
I1
sS'meta'
p15
(lp16
(dp17
S'objective'
p18
I9
sS'query_time'
p19
F1.057629108428955
sS'comp_time'
p20
F0.14594054222106934
sS'exec_cq'
p21
I5
sS'total_cq'
p22
I6
sasS'total_cqs'
p23
I6
ssI3
(dp24
S'iters'
p25
I6
sS'meta'
p26
(lp27
(dp28
S'objective'
p29
I429
sS'query_time'
p30
F26.470230102539062
sS'comp_time'
p31
F0.3857262134552002
sS'exec_cq'
p32
I33
sS'total_cq'
p33
I33
sa(dp34
g29
I381
sg30
F0.02359294891357422
sg31
F0.13326287269592285
sg32
I30
sg33
I30
sa(dp35
g29
I330
sg30
F0.022855758666992188
sg31
F0.13219761848449707
sg32
I27
sg33
I27
sa(dp36
g29
I278
sg30
F0.09505105018615723
sg31
F0.05853104591369629
sg32
I24
sg33
I24
sa(dp37
g29
I235
sg30
F0.010380268096923828
sg31
F0.09479522705078125
sg32
I21
sg33
I21
sa(dp38
g29
I217
sg30
F0.0069081783294677734
sg31
F0.014435768127441406
sg32
I18
sg33
I18
sasS'total_cqs'
p39
I33
ssI4
(dp40
S'iters'
p41
I0
sS'meta'
p42
(lp43
sS'total_cqs'
p44
I1
ssI5
(dp45
S'iters'
p46
I0
sS'meta'
p47
(lp48
sS'total_cqs'
p49
I1
ssI6
(dp50
S'iters'
p51
I2
sS'meta'
p52
(lp53
(dp54
S'objective'
p55
I1
sS'query_time'
p56
F15.476655006408691
sS'comp_time'
p57
F0.003767728805541992
sS'exec_cq'
p58
I4
sS'total_cq'
p59
I5
sa(dp60
g55
I3
sg56
F0.00025010108947753906
sg57
F0.0004248619079589844
sg58
I2
sg59
I2
sasS'total_cqs'
p61
I5
ssI7
(dp62
S'iters'
p63
I0
sS'meta'
p64
(lp65
sS'total_cqs'
p66
I1
ssI8
(dp67
S'iters'
p68
I2
sS'meta'
p69
(lp70
(dp71
S'objective'
p72
I15
sS'query_time'
p73
F43.31995415687561
sS'comp_time'
p74
F0.11542487144470215
sS'exec_cq'
p75
I6
sS'total_cq'
p76
I6
sa(dp77
g72
I6
sg73
F0.0995330810546875
sg74
F0.00015401840209960938
sg75
I4
sg76
I5
sasS'total_cqs'
p78
I6
ssI9
(dp79
S'iters'
p80
I2
sS'meta'
p81
(lp82
(dp83
S'objective'
p84
I3
sS'query_time'
p85
F12.482527017593384
sS'comp_time'
p86
F0.05794119834899902
sS'exec_cq'
p87
I3
sS'total_cq'
p88
I6
sa(dp89
g84
I3
sg85
F0.06808614730834961
sg86
F0.42182016372680664
sg87
I3
sg88
I3
sasS'total_cqs'
p90
I6
ssI10
(dp91
S'iters'
p92
I0
sS'meta'
p93
(lp94
sS'total_cqs'
p95
I1
ssI11
(dp96
S'iters'
p97
I0
sS'meta'
p98
(lp99
sS'total_cqs'
p100
I1
ssI12
(dp101
S'iters'
p102
I0
sS'meta'
p103
(lp104
sS'total_cqs'
p105
I1
ssI13
(dp106
S'iters'
p107
I1
sS'meta'
p108
(lp109
(dp110
S'objective'
p111
I20
sS'query_time'
p112
F0.014964103698730469
sS'comp_time'
p113
F0.007556438446044922
sS'exec_cq'
p114
I6
sS'total_cq'
p115
I8
sasS'total_cqs'
p116
I8
ssI14
(dp117
S'iters'
p118
I1
sS'meta'
p119
(lp120
(dp121
S'objective'
p122
I5
sS'query_time'
p123
F1.098520040512085
sS'comp_time'
p124
F0.00452423095703125
sS'exec_cq'
p125
I5
sS'total_cq'
p126
I5
sasS'total_cqs'
p127
I5
ssI16
(dp128
S'iters'
p129
I2
sS'meta'
p130
(lp131
(dp132
S'objective'
p133
I1
sS'query_time'
p134
F1.5128049850463867
sS'comp_time'
p135
F0.0053217411041259766
sS'exec_cq'
p136
I4
sS'total_cq'
p137
I5
sa(dp138
g133
I3
sg134
F0.0011432170867919922
sg135
F0.0019690990447998047
sg136
I2
sg137
I2
sasS'total_cqs'
p139
I5
ssI17
(dp140
S'iters'
p141
I0
sS'meta'
p142
(lp143
sS'total_cqs'
p144
I1
ssI18
(dp145
S'iters'
p146
I2
sS'meta'
p147
(lp148
(dp149
S'objective'
p150
I1
sS'query_time'
p151
F0.22626996040344238
sS'comp_time'
p152
F0.004575252532958984
sS'exec_cq'
p153
I4
sS'total_cq'
p154
I5
sa(dp155
g150
I2
sg151
F3.886222839355469e-05
sg152
F0.00019860267639160156
sg153
I2
sg154
I3
sasS'total_cqs'
p156
I5
ssI19
(dp157
S'iters'
p158
I0
sS'meta'
p159
(lp160
sS'total_cqs'
p161
I1
ssI20
(dp162
S'iters'
p163
I3
sS'meta'
p164
(lp165
(dp166
S'objective'
p167
I38
sS'query_time'
p168
F13.867436647415161
sS'comp_time'
p169
F1.0536110401153564
sS'exec_cq'
p170
I10
sS'total_cq'
p171
I12
sa(dp172
g167
I32
sg168
F0.20643401145935059
sg169
F0.41529273986816406
sg170
I6
sg171
I10
sa(dp173
g167
I21
sg168
F0.3247411251068115
sg169
F0.5723557472229004
sg170
I5
sg171
I8
sasS'total_cqs'
p174
I12
ssI21
(dp175
S'iters'
p176
I3
sS'meta'
p177
(lp178
(dp179
S'objective'
p180
I57
sS'query_time'
p181
F59.52868890762329
sS'comp_time'
p182
F0.9982600212097168
sS'exec_cq'
p183
I12
sS'total_cq'
p184
I14
sa(dp185
g180
I39
sg181
F0.08952498435974121
sg182
F0.054972171783447266
sg183
I8
sg184
I11
sa(dp186
g180
I32
sg181
F0.02833700180053711
sg182
F0.022695064544677734
sg183
I7
sg184
I9
sasS'total_cqs'
p187
I14
ssI22
(dp188
S'iters'
p189
I1
sS'meta'
p190
(lp191
(dp192
S'objective'
p193
I1
sS'query_time'
p194
F0.004155158996582031
sS'comp_time'
p195
F0.0012292861938476562
sS'exec_cq'
p196
I1
sS'total_cq'
p197
I2
sasS'total_cqs'
p198
I2
ssI23
(dp199
S'iters'
p200
I0
sS'meta'
p201
(lp202
sS'total_cqs'
p203
I1
ssI24
(dp204
S'iters'
p205
I0
sS'meta'
p206
(lp207
sS'total_cqs'
p208
I1
ssI25
(dp209
S'iters'
p210
I2
sS'meta'
p211
(lp212
(dp213
S'objective'
p214
I12
sS'query_time'
p215
F47.721598863601685
sS'comp_time'
p216
F2.0787410736083984
sS'exec_cq'
p217
I4
sS'total_cq'
p218
I7
sa(dp219
g214
I6
sg215
F0.27884483337402344
sg216
F0.0007479190826416016
sg217
I3
sg218
I5
sasS'total_cqs'
p220
I7
ssI26
(dp221
S'iters'
p222
I3
sS'meta'
p223
(lp224
(dp225
S'objective'
p226
I53
sS'query_time'
p227
F23.161879062652588
sS'comp_time'
p228
F0.015370607376098633
sS'exec_cq'
p229
I9
sS'total_cq'
p230
I13
sa(dp231
g226
I36
sg227
F0.004115104675292969
sg228
F0.005446910858154297
sg229
I7
sg230
I11
sa(dp232
g226
I28
sg227
F0.004091024398803711
sg228
F0.002027750015258789
sg229
I6
sg230
I9
sasS'total_cqs'
p233
I13
ssI27
(dp234
S'iters'
p235
I1
sS'meta'
p236
(lp237
(dp238
S'objective'
p239
I1
sS'query_time'
p240
F0.20329499244689941
sS'comp_time'
p241
F0.0021903514862060547
sS'exec_cq'
p242
I1
sS'total_cq'
p243
I2
sasS'total_cqs'
p244
I2
ssI28
(dp245
S'iters'
p246
I3
sS'meta'
p247
(lp248
(dp249
S'objective'
p250
I59
sS'query_time'
p251
F1.5348401069641113
sS'comp_time'
p252
F0.09555220603942871
sS'exec_cq'
p253
I6
sS'total_cq'
p254
I14
sa(dp255
g250
I46
sg251
F0.0035071372985839844
sg252
F0.007110118865966797
sg253
I3
sg254
I11
sa(dp256
g250
I36
sg251
F0.0037260055541992188
sg252
F6.198883056640625e-05
sg253
I1
sg254
I9
sasS'total_cqs'
p257
I14
ssI29
(dp258
S'iters'
p259
I1
sS'meta'
p260
(lp261
(dp262
S'objective'
p263
I1
sS'query_time'
p264
F0.007311105728149414
sS'comp_time'
p265
F0.0013279914855957031
sS'exec_cq'
p266
I2
sS'total_cq'
p267
I2
sasS'total_cqs'
p268
I2
ssI30
(dp269
S'iters'
p270
I1
sS'meta'
p271
(lp272
(dp273
S'objective'
p274
I1
sS'query_time'
p275
F0.3375229835510254
sS'comp_time'
p276
F0.0022287368774414062
sS'exec_cq'
p277
I2
sS'total_cq'
p278
I2
sasS'total_cqs'
p279
I2
ssI31
(dp280
S'iters'
p281
I2
sS'meta'
p282
(lp283
(dp284
S'objective'
p285
I3
sS'query_time'
p286
F1.56439208984375
sS'comp_time'
p287
F0.03127002716064453
sS'exec_cq'
p288
I5
sS'total_cq'
p289
I9
sa(dp290
g285
I6
sg286
F0.02356719970703125
sg287
F0.02831101417541504
sg288
I3
sg289
I3
sasS'total_cqs'
p291
I9
ssI32
(dp292
S'iters'
p293
I3
sS'meta'
p294
(lp295
(dp296
S'objective'
p297
I10
sS'query_time'
p298
F22.439203023910522
sS'comp_time'
p299
F2.0402016639709473
sS'exec_cq'
p300
I6
sS'total_cq'
p301
I7
sa(dp302
g297
I3
sg298
F0.8375358581542969
sg299
F2.208620071411133
sg300
I4
sg301
I5
sa(dp303
g297
I3
sg298
F0.472822904586792
sg299
F0.24133801460266113
sg300
I1
sg301
I2
sasS'total_cqs'
p304
I7
ssI33
(dp305
S'iters'
p306
I1
sS'meta'
p307
(lp308
(dp309
S'objective'
p310
I1
sS'query_time'
p311
F0.04478001594543457
sS'comp_time'
p312
F0.001508951187133789
sS'exec_cq'
p313
I2
sS'total_cq'
p314
I2
sasS'total_cqs'
p315
I2
ssI34
(dp316
S'iters'
p317
I0
sS'meta'
p318
(lp319
sS'total_cqs'
p320
I1
ssI35
(dp321
S'iters'
p322
I2
sS'meta'
p323
(lp324
(dp325
S'objective'
p326
I1
sS'query_time'
p327
F14.079083919525146
sS'comp_time'
p328
F0.07391595840454102
sS'exec_cq'
p329
I4
sS'total_cq'
p330
I5
sa(dp331
g326
I2
sg327
F0.011356830596923828
sg328
F0.0798039436340332
sg329
I2
sg330
I2
sasS'total_cqs'
p332
I5
ssI37
(dp333
S'iters'
p334
I2
sS'meta'
p335
(lp336
(dp337
S'objective'
p338
I29
sS'query_time'
p339
F1.875572919845581
sS'comp_time'
p340
F0.09754085540771484
sS'exec_cq'
p341
I8
sS'total_cq'
p342
I10
sa(dp343
g338
I7
sg339
F0.004163980484008789
sg340
F0.07058095932006836
sg341
I2
sg342
I2
sasS'total_cqs'
p344
I10
ssI38
(dp345
S'iters'
p346
I0
sS'meta'
p347
(lp348
sS'total_cqs'
p349
I1
ssI39
(dp350
S'iters'
p351
I0
sS'meta'
p352
(lp353
sS'total_cqs'
p354
I1
ssI40
(dp355
S'iters'
p356
I1
sS'meta'
p357
(lp358
(dp359
S'objective'
p360
I1
sS'query_time'
p361
F0.004817008972167969
sS'comp_time'
p362
F0.0005879402160644531
sS'exec_cq'
p363
I1
sS'total_cq'
p364
I2
sasS'total_cqs'
p365
I2
ssI41
(dp366
S'iters'
p367
I2
sS'meta'
p368
(lp369
(dp370
S'objective'
p371
I3
sS'query_time'
p372
F1.0199661254882812
sS'comp_time'
p373
F0.003473997116088867
sS'exec_cq'
p374
I2
sS'total_cq'
p375
I6
sa(dp376
g371
I3
sg372
F0.000782012939453125
sg373
F0.0011572837829589844
sg374
I2
sg375
I2
sasS'total_cqs'
p377
I6
ssI42
(dp378
S'iters'
p379
I1
sS'meta'
p380
(lp381
(dp382
S'objective'
p383
I1
sS'query_time'
p384
F0.020422935485839844
sS'comp_time'
p385
F0.0008418560028076172
sS'exec_cq'
p386
I1
sS'total_cq'
p387
I2
sasS'total_cqs'
p388
I2
ssI43
(dp389
S'iters'
p390
I0
sS'meta'
p391
(lp392
sS'total_cqs'
p393
I1
ssI44
(dp394
S'iters'
p395
I2
sS'meta'
p396
(lp397
(dp398
S'objective'
p399
I3
sS'query_time'
p400
F0.36034703254699707
sS'comp_time'
p401
F0.0024721622467041016
sS'exec_cq'
p402
I2
sS'total_cq'
p403
I5
sa(dp404
g399
I1
sg400
F1.1586260795593262
sg401
F0.02973771095275879
sg402
I3
sg403
I3
sasS'total_cqs'
p405
I5
ssI45
(dp406
S'iters'
p407
I2
sS'meta'
p408
(lp409
(dp410
S'objective'
p411
I1
sS'query_time'
p412
F0.027297019958496094
sS'comp_time'
p413
F0.002081632614135742
sS'exec_cq'
p414
I3
sS'total_cq'
p415
I5
sa(dp416
g411
I2
sg412
F0.00014209747314453125
sg413
F0.00020170211791992188
sg414
I2
sg415
I2
sasS'total_cqs'
p417
I5
ssI46
(dp418
S'iters'
p419
I0
sS'meta'
p420
(lp421
sS'total_cqs'
p422
I1
ssI47
(dp423
S'iters'
p424
I0
sS'meta'
p425
(lp426
sS'total_cqs'
p427
I1
ssI48
(dp428
S'iters'
p429
I1
sS'meta'
p430
(lp431
(dp432
S'objective'
p433
I1
sS'query_time'
p434
F0.1044471263885498
sS'comp_time'
p435
F0.003940105438232422
sS'exec_cq'
p436
I2
sS'total_cq'
p437
I2
sasS'total_cqs'
p438
I2
ssI49
(dp439
S'iters'
p440
I2
sS'meta'
p441
(lp442
(dp443
S'objective'
p444
I1
sS'query_time'
p445
F0.23891305923461914
sS'comp_time'
p446
F0.004067897796630859
sS'exec_cq'
p447
I4
sS'total_cq'
p448
I5
sa(dp449
g444
I2
sg445
F3.1948089599609375e-05
sg446
F0.00010585784912109375
sg447
I2
sg448
I3
sasS'total_cqs'
p450
I5
ssI50
(dp451
S'iters'
p452
I1
sS'meta'
p453
(lp454
(dp455
S'objective'
p456
I5
sS'query_time'
p457
F0.7095739841461182
sS'comp_time'
p458
F0.001992940902709961
sS'exec_cq'
p459
I5
sS'total_cq'
p460
I5
sasS'total_cqs'
p461
I5
ssI51
(dp462
S'iters'
p463
I0
sS'meta'
p464
(lp465
sS'total_cqs'
p466
I1
ssI52
(dp467
S'iters'
p468
I0
sS'meta'
p469
(lp470
sS'total_cqs'
p471
I1
ssI53
(dp472
S'iters'
p473
I0
sS'meta'
p474
(lp475
sS'total_cqs'
p476
I1
ssI55
(dp477
S'iters'
p478
I1
sS'meta'
p479
(lp480
(dp481
S'objective'
p482
I1
sS'query_time'
p483
F24.253727912902832
sS'comp_time'
p484
F0.020571231842041016
sS'exec_cq'
p485
I2
sS'total_cq'
p486
I2
sasS'total_cqs'
p487
I2
ssI56
(dp488
S'iters'
p489
I0
sS'meta'
p490
(lp491
sS'total_cqs'
p492
I1
ssI57
(dp493
S'iters'
p494
I1
sS'meta'
p495
(lp496
(dp497
S'objective'
p498
I0
sS'query_time'
p499
F13.15071702003479
sS'comp_time'
p500
F0.8823227882385254
sS'exec_cq'
p501
I2
sS'total_cq'
p502
I3
sasS'total_cqs'
p503
I3
ssI108
(dp504
S'iters'
p505
I0
sS'meta'
p506
(lp507
sS'total_cqs'
p508
I1
ssI109
(dp509
S'iters'
p510
I0
sS'meta'
p511
(lp512
sS'total_cqs'
p513
I1
ssI116
(dp514
S'iters'
p515
I2
sS'meta'
p516
(lp517
(dp518
S'objective'
p519
I155
sS'query_time'
p520
F0.5277361869812012
sS'comp_time'
p521
F0.014475822448730469
sS'exec_cq'
p522
I14
sS'total_cq'
p523
I21
sa(dp524
g519
I4
sg520
F0.0007309913635253906
sg521
F0.0009307861328125
sg522
I2
sg523
I2
sasS'total_cqs'
p525
I21
ssI117
(dp526
S'iters'
p527
I1
sS'meta'
p528
(lp529
(dp530
S'objective'
p531
I5
sS'query_time'
p532
F0.014130115509033203
sS'comp_time'
p533
F0.0027704238891601562
sS'exec_cq'
p534
I4
sS'total_cq'
p535
I5
sasS'total_cqs'
p536
I5
ssI118
(dp537
S'iters'
p538
I0
sS'meta'
p539
(lp540
sS'total_cqs'
p541
I1
ssI122
(dp542
S'iters'
p543
I0
sS'meta'
p544
(lp545
sS'total_cqs'
p546
I1
ss.