(dp0
I1
(dp1
S'iters'
p2
I2
sS'meta'
p3
(lp4
(dp5
S'objective'
p6
I7
sS'query_time'
p7
F17.68516993522644
sS'comp_time'
p8
F0.6940219402313232
sS'exec_cq'
p9
I3
sS'total_cq'
p10
I6
sa(dp11
g6
I1
sg7
F0.16244196891784668
sg8
F0.6514372825622559
sg9
I2
sg10
I2
sasS'total_cqs'
p12
I6
ssI2
(dp13
S'iters'
p14
I1
sS'meta'
p15
(lp16
(dp17
S'objective'
p18
I13
sS'query_time'
p19
F0.9546351432800293
sS'comp_time'
p20
F0.2153620719909668
sS'exec_cq'
p21
I2
sS'total_cq'
p22
I6
sasS'total_cqs'
p23
I6
ssI3
(dp24
S'iters'
p25
I13
sS'meta'
p26
(lp27
(dp28
S'objective'
p29
I411
sS'query_time'
p30
F0.41379880905151367
sS'comp_time'
p31
F0.2117021083831787
sS'exec_cq'
p32
I13
sS'total_cq'
p33
I33
sa(dp34
g29
I362
sg30
F26.37358808517456
sg31
F0.5421578884124756
sg32
I15
sg33
I30
sa(dp35
g29
I316
sg30
F0.004174947738647461
sg31
F0.021094799041748047
sg32
I10
sg33
I27
sa(dp36
g29
I284
sg30
F0.028902053833007812
sg31
F0.3499467372894287
sg32
I12
sg33
I24
sa(dp37
g29
I229
sg30
F0.00418400764465332
sg31
F0.019116878509521484
sg32
I7
sg33
I21
sa(dp38
g29
I210
sg30
F0.01597309112548828
sg31
F0.18729448318481445
sg32
I9
sg33
I19
sa(dp39
g29
I190
sg30
F0.002235889434814453
sg31
F0.01436471939086914
sg32
I6
sg33
I16
sa(dp40
g29
I151
sg30
F0.1846179962158203
sg31
F0.01967597007751465
sg32
I5
sg33
I15
sa(dp41
g29
I96
sg30
F0.003659963607788086
sg31
F0.01946234703063965
sg32
I5
sg33
I14
sa(dp42
g29
I94
sg30
F0.0024080276489257812
sg31
F0.0116729736328125
sg32
I5
sg33
I11
sa(dp43
g29
I79
sg30
F0.0005419254302978516
sg31
F0.003259897232055664
sg32
I4
sg33
I10
sa(dp44
g29
I70
sg30
F0.0020961761474609375
sg31
F0.011567831039428711
sg32
I4
sg33
I9
sa(dp45
g29
I48
sg30
F0.0022039413452148438
sg31
F0.015702009201049805
sg32
I2
sg33
I6
sasS'total_cqs'
p46
I33
ssI4
(dp47
S'iters'
p48
I0
sS'meta'
p49
(lp50
sS'total_cqs'
p51
I1
ssI5
(dp52
S'iters'
p53
I0
sS'meta'
p54
(lp55
sS'total_cqs'
p56
I1
ssI6
(dp57
S'iters'
p58
I3
sS'meta'
p59
(lp60
(dp61
S'objective'
p62
I1
sS'query_time'
p63
F15.130406141281128
sS'comp_time'
p64
F0.005825996398925781
sS'exec_cq'
p65
I4
sS'total_cq'
p66
I5
sa(dp67
g62
I2
sg63
F0.00020003318786621094
sg64
F0.0012350082397460938
sg65
I2
sg66
I3
sa(dp68
g62
I3
sg63
F4.100799560546875e-05
sg64
F0.0003001689910888672
sg65
I1
sg66
I2
sasS'total_cqs'
p69
I5
ssI7
(dp70
S'iters'
p71
I0
sS'meta'
p72
(lp73
sS'total_cqs'
p74
I1
ssI8
(dp75
S'iters'
p76
I2
sS'meta'
p77
(lp78
(dp79
S'objective'
p80
I9
sS'query_time'
p81
F23.433583974838257
sS'comp_time'
p82
F0.39732813835144043
sS'exec_cq'
p83
I5
sS'total_cq'
p84
I6
sa(dp85
g80
I7
sg81
F0.09058094024658203
sg82
F0.08918285369873047
sg83
I4
sg84
I5
sasS'total_cqs'
p86
I6
ssI9
(dp87
S'iters'
p88
I3
sS'meta'
p89
(lp90
(dp91
S'objective'
p92
I1
sS'query_time'
p93
F12.864309072494507
sS'comp_time'
p94
F0.6309757232666016
sS'exec_cq'
p95
I3
sS'total_cq'
p96
I6
sa(dp97
g92
I1
sg93
F0.07081794738769531
sg94
F0.5433511734008789
sg95
I3
sg96
I3
sa(dp98
g92
I2
sg93
F0.05271291732788086
sg94
F0.6269607543945312
sg95
I2
sg96
I2
sasS'total_cqs'
p99
I6
ssI10
(dp100
S'iters'
p101
I0
sS'meta'
p102
(lp103
sS'total_cqs'
p104
I1
ssI11
(dp105
S'iters'
p106
I0
sS'meta'
p107
(lp108
sS'total_cqs'
p109
I1
ssI12
(dp110
S'iters'
p111
I0
sS'meta'
p112
(lp113
sS'total_cqs'
p114
I1
ssI13
(dp115
S'iters'
p116
I2
sS'meta'
p117
(lp118
(dp119
S'objective'
p120
I24
sS'query_time'
p121
F0.028671979904174805
sS'comp_time'
p122
F0.010052919387817383
sS'exec_cq'
p123
I6
sS'total_cq'
p124
I8
sa(dp125
g120
I20
sg121
F8.797645568847656e-05
sg122
F0.0001049041748046875
sg123
I5
sg124
I7
sasS'total_cqs'
p126
I8
ssI14
(dp127
S'iters'
p128
I2
sS'meta'
p129
(lp130
(dp131
S'objective'
p132
I5
sS'query_time'
p133
F0.9424839019775391
sS'comp_time'
p134
F0.020503997802734375
sS'exec_cq'
p135
I5
sS'total_cq'
p136
I5
sa(dp137
g132
I2
sg133
F0.0005519390106201172
sg134
F0.01634526252746582
sg135
I4
sg136
I4
sasS'total_cqs'
p138
I5
ssI16
(dp139
S'iters'
p140
I2
sS'meta'
p141
(lp142
(dp143
S'objective'
p144
I3
sS'query_time'
p145
F1.2105779647827148
sS'comp_time'
p146
F0.01248025894165039
sS'exec_cq'
p147
I4
sS'total_cq'
p148
I5
sa(dp149
g144
I2
sg145
F0.0012710094451904297
sg146
F0.007153987884521484
sg147
I2
sg148
I2
sasS'total_cqs'
p150
I5
ssI17
(dp151
S'iters'
p152
I0
sS'meta'
p153
(lp154
sS'total_cqs'
p155
I1
ssI18
(dp156
S'iters'
p157
I2
sS'meta'
p158
(lp159
(dp160
S'objective'
p161
I1
sS'query_time'
p162
F0.16826891899108887
sS'comp_time'
p163
F0.009765148162841797
sS'exec_cq'
p164
I4
sS'total_cq'
p165
I5
sa(dp166
g161
I1
sg162
F3.2901763916015625e-05
sg163
F0.00025272369384765625
sg164
I2
sg165
I3
sasS'total_cqs'
p167
I5
ssI19
(dp168
S'iters'
p169
I0
sS'meta'
p170
(lp171
sS'total_cqs'
p172
I1
ssI20
(dp173
S'iters'
p174
I5
sS'meta'
p175
(lp176
(dp177
S'objective'
p178
I52
sS'query_time'
p179
F8.909671783447266
sS'comp_time'
p180
F1.4944560527801514
sS'exec_cq'
p181
I6
sS'total_cq'
p182
I12
sa(dp183
g178
I23
sg179
F4.255941152572632
sg180
F0.45255589485168457
sg181
I4
sg182
I10
sa(dp184
g178
I20
sg179
F0.16440486907958984
sg180
F0.9723351001739502
sg181
I4
sg182
I8
sa(dp185
g178
I26
sg179
F0.18572402000427246
sg180
F0.8735067844390869
sg181
I3
sg182
I6
sa(dp186
g178
I15
sg179
F0.11831998825073242
sg180
F0.005858659744262695
sg181
I2
sg182
I5
sasS'total_cqs'
p187
I12
ssI21
(dp188
S'iters'
p189
I5
sS'meta'
p190
(lp191
(dp192
S'objective'
p193
I69
sS'query_time'
p194
F30.19734501838684
sS'comp_time'
p195
F0.23605799674987793
sS'exec_cq'
p196
I8
sS'total_cq'
p197
I14
sa(dp198
g193
I25
sg194
F0.019840002059936523
sg195
F0.21136474609375
sg196
I6
sg197
I12
sa(dp199
g193
I12
sg194
F30.176584005355835
sg195
F2.8680267333984375
sg196
I4
sg197
I8
sa(dp200
g193
I4
sg194
F0.011532068252563477
sg195
F0.05559802055358887
sg196
I2
sg197
I4
sa(dp201
g193
I3
sg194
F0.011321067810058594
sg195
F0.000164031982421875
sg196
I1
sg197
I2
sasS'total_cqs'
p202
I14
ssI22
(dp203
S'iters'
p204
I1
sS'meta'
p205
(lp206
(dp207
S'objective'
p208
I1
sS'query_time'
p209
F0.0038471221923828125
sS'comp_time'
p210
F0.0019409656524658203
sS'exec_cq'
p211
I1
sS'total_cq'
p212
I2
sasS'total_cqs'
p213
I2
ssI23
(dp214
S'iters'
p215
I0
sS'meta'
p216
(lp217
sS'total_cqs'
p218
I1
ssI24
(dp219
S'iters'
p220
I0
sS'meta'
p221
(lp222
sS'total_cqs'
p223
I1
ssI25
(dp224
S'iters'
p225
I4
sS'meta'
p226
(lp227
(dp228
S'objective'
p229
I18
sS'query_time'
p230
F48.71172094345093
sS'comp_time'
p231
F4.950081825256348
sS'exec_cq'
p232
I4
sS'total_cq'
p233
I7
sa(dp234
g229
I3
sg230
F4.248601198196411
sg231
F0.311506986618042
sg232
I2
sg233
I5
sa(dp235
g229
I1
sg230
F0.06601381301879883
sg231
F0.1095428466796875
sg232
I2
sg233
I3
sa(dp236
g229
I3
sg230
F0.006349802017211914
sg231
F0.042520761489868164
sg232
I1
sg233
I2
sasS'total_cqs'
p237
I7
ssI26
(dp238
S'iters'
p239
I8
sS'meta'
p240
(lp241
(dp242
S'objective'
p243
I61
sS'query_time'
p244
F0.2707700729370117
sS'comp_time'
p245
F0.02946329116821289
sS'exec_cq'
p246
I4
sS'total_cq'
p247
I13
sa(dp248
g243
I64
sg244
F22.796295881271362
sg245
F0.007200717926025391
sg246
I3
sg247
I11
sa(dp249
g243
I40
sg244
F0.010190963745117188
sg245
F0.0002181529998779297
sg246
I2
sg247
I10
sa(dp250
g243
I25
sg244
F3.570955991744995
sg245
F0.11613821983337402
sg246
I2
sg247
I8
sa(dp251
g243
I16
sg244
F0.0009829998016357422
sg245
F0.004806041717529297
sg246
I2
sg247
I6
sa(dp252
g243
I22
sg244
F0.000270843505859375
sg245
F0.003728628158569336
sg246
I2
sg247
I5
sa(dp253
g243
I7
sg244
F0.03033900260925293
sg245
F0.0015115737915039062
sg246
I1
sg247
I4
sa(dp254
g243
I0
sg244
F0.0019550323486328125
sg245
F6.914138793945312e-05
sg246
I1
sg247
I3
sasS'total_cqs'
p255
I13
ssI27
(dp256
S'iters'
p257
I1
sS'meta'
p258
(lp259
(dp260
S'objective'
p261
I1
sS'query_time'
p262
F0.21653389930725098
sS'comp_time'
p263
F0.009214639663696289
sS'exec_cq'
p264
I1
sS'total_cq'
p265
I2
sasS'total_cqs'
p266
I2
ssI28
(dp267
S'iters'
p268
I6
sS'meta'
p269
(lp270
(dp271
S'objective'
p272
I59
sS'query_time'
p273
F1.399156093597412
sS'comp_time'
p274
F0.12951970100402832
sS'exec_cq'
p275
I6
sS'total_cq'
p276
I14
sa(dp277
g272
I58
sg273
F0.005928993225097656
sg274
F0.000240325927734375
sg275
I2
sg276
I11
sa(dp278
g272
I38
sg273
F0.0038039684295654297
sg274
F0.02652907371520996
sg275
I3
sg276
I10
sa(dp279
g272
I26
sg273
F0.02285599708557129
sg274
F0.002626180648803711
sg275
I1
sg276
I8
sa(dp280
g272
I20
sg273
F1.4066696166992188e-05
sg274
F9.489059448242188e-05
sg275
I1
sg276
I7
sa(dp281
g272
I14
sg273
F0.0035400390625
sg274
F0.000125885009765625
sg275
I1
sg276
I6
sasS'total_cqs'
p282
I14
ssI29
(dp283
S'iters'
p284
I1
sS'meta'
p285
(lp286
(dp287
S'objective'
p288
I1
sS'query_time'
p289
F0.007459163665771484
sS'comp_time'
p290
F0.00174713134765625
sS'exec_cq'
p291
I2
sS'total_cq'
p292
I2
sasS'total_cqs'
p293
I2
ssI30
(dp294
S'iters'
p295
I1
sS'meta'
p296
(lp297
(dp298
S'objective'
p299
I1
sS'query_time'
p300
F0.3517639636993408
sS'comp_time'
p301
F0.004416942596435547
sS'exec_cq'
p302
I2
sS'total_cq'
p303
I2
sasS'total_cqs'
p304
I2
ssI31
(dp305
S'iters'
p306
I3
sS'meta'
p307
(lp308
(dp309
S'objective'
p310
I11
sS'query_time'
p311
F4.204986095428467
sS'comp_time'
p312
F0.2425851821899414
sS'exec_cq'
p313
I4
sS'total_cq'
p314
I9
sa(dp315
g310
I8
sg311
F1.5552620887756348
sg312
F0.12691211700439453
sg313
I5
sg314
I7
sa(dp316
g310
I2
sg311
F0.008405208587646484
sg312
F0.0445711612701416
sg313
I3
sg314
I3
sasS'total_cqs'
p317
I9
ssI32
(dp318
S'iters'
p319
I3
sS'meta'
p320
(lp321
(dp322
S'objective'
p323
I2
sS'query_time'
p324
F20.911822080612183
sS'comp_time'
p325
F4.42882227897644
sS'exec_cq'
p326
I4
sS'total_cq'
p327
I7
sa(dp328
g323
I5
sg324
F1.1300711631774902
sg325
F0.021590232849121094
sg326
I2
sg327
I5
sa(dp329
g323
I0
sg324
F1.3034319877624512
sg325
F5.40422797203064
sg326
I2
sg327
I3
sasS'total_cqs'
p330
I7
ssI33
(dp331
S'iters'
p332
I1
sS'meta'
p333
(lp334
(dp335
S'objective'
p336
I1
sS'query_time'
p337
F0.021747112274169922
sS'comp_time'
p338
F0.0015659332275390625
sS'exec_cq'
p339
I2
sS'total_cq'
p340
I2
sasS'total_cqs'
p341
I2
ssI34
(dp342
S'iters'
p343
I0
sS'meta'
p344
(lp345
sS'total_cqs'
p346
I1
ssI35
(dp347
S'iters'
p348
I2
sS'meta'
p349
(lp350
(dp351
S'objective'
p352
I1
sS'query_time'
p353
F13.211581945419312
sS'comp_time'
p354
F0.28996896743774414
sS'exec_cq'
p355
I4
sS'total_cq'
p356
I5
sa(dp357
g352
I1
sg353
F0.08324193954467773
sg354
F0.0713198184967041
sg355
I2
sg356
I3
sasS'total_cqs'
p358
I5
ssI37
(dp359
S'iters'
p360
I2
sS'meta'
p361
(lp362
(dp363
S'objective'
p364
I29
sS'query_time'
p365
F0.5080111026763916
sS'comp_time'
p366
F0.07983207702636719
sS'exec_cq'
p367
I4
sS'total_cq'
p368
I10
sa(dp369
g364
I1
sg365
F0.004575967788696289
sg366
F0.019642353057861328
sg367
I2
sg368
I2
sasS'total_cqs'
p370
I10
ssI38
(dp371
S'iters'
p372
I0
sS'meta'
p373
(lp374
sS'total_cqs'
p375
I1
ssI39
(dp376
S'iters'
p377
I0
sS'meta'
p378
(lp379
sS'total_cqs'
p380
I1
ssI40
(dp381
S'iters'
p382
I1
sS'meta'
p383
(lp384
(dp385
S'objective'
p386
I1
sS'query_time'
p387
F0.003495931625366211
sS'comp_time'
p388
F0.0009083747863769531
sS'exec_cq'
p389
I1
sS'total_cq'
p390
I2
sasS'total_cqs'
p391
I2
ssI41
(dp392
S'iters'
p393
I3
sS'meta'
p394
(lp395
(dp396
S'objective'
p397
I1
sS'query_time'
p398
F11.201594114303589
sS'comp_time'
p399
F1.8965222835540771
sS'exec_cq'
p400
I3
sS'total_cq'
p401
I6
sa(dp402
g397
I0
sg398
F0.6642699241638184
sg399
F0.004333972930908203
sg400
I2
sg401
I4
sa(dp403
g397
I3
sg398
F0.0006239414215087891
sg399
F0.0037200450897216797
sg400
I2
sg401
I2
sasS'total_cqs'
p404
I6
ssI42
(dp405
S'iters'
p406
I1
sS'meta'
p407
(lp408
(dp409
S'objective'
p410
I1
sS'query_time'
p411
F0.024194955825805664
sS'comp_time'
p412
F0.0012133121490478516
sS'exec_cq'
p413
I1
sS'total_cq'
p414
I2
sasS'total_cqs'
p415
I2
ssI43
(dp416
S'iters'
p417
I0
sS'meta'
p418
(lp419
sS'total_cqs'
p420
I1
ssI44
(dp421
S'iters'
p422
I2
sS'meta'
p423
(lp424
(dp425
S'objective'
p426
I5
sS'query_time'
p427
F1.3879590034484863
sS'comp_time'
p428
F0.19840502738952637
sS'exec_cq'
p429
I2
sS'total_cq'
p430
I5
sa(dp431
g426
I2
sg427
F0.0038318634033203125
sg428
F0.0001380443572998047
sg429
I1
sg430
I4
sasS'total_cqs'
p432
I5
ssI45
(dp433
S'iters'
p434
I2
sS'meta'
p435
(lp436
(dp437
S'objective'
p438
I5
sS'query_time'
p439
F0.03298783302307129
sS'comp_time'
p440
F0.003381013870239258
sS'exec_cq'
p441
I3
sS'total_cq'
p442
I5
sa(dp443
g438
I3
sg439
F0.0001537799835205078
sg440
F0.0006489753723144531
sg441
I2
sg442
I2
sasS'total_cqs'
p444
I5
ssI46
(dp445
S'iters'
p446
I0
sS'meta'
p447
(lp448
sS'total_cqs'
p449
I1
ssI47
(dp450
S'iters'
p451
I0
sS'meta'
p452
(lp453
sS'total_cqs'
p454
I1
ssI48
(dp455
S'iters'
p456
I1
sS'meta'
p457
(lp458
(dp459
S'objective'
p460
I1
sS'query_time'
p461
F0.14076995849609375
sS'comp_time'
p462
F0.005334138870239258
sS'exec_cq'
p463
I2
sS'total_cq'
p464
I2
sasS'total_cqs'
p465
I2
ssI49
(dp466
S'iters'
p467
I2
sS'meta'
p468
(lp469
(dp470
S'objective'
p471
I1
sS'query_time'
p472
F0.17031598091125488
sS'comp_time'
p473
F0.005955219268798828
sS'exec_cq'
p474
I4
sS'total_cq'
p475
I5
sa(dp476
g471
I1
sg472
F0.0012919902801513672
sg473
F0.0035507678985595703
sg474
I3
sg475
I3
sasS'total_cqs'
p477
I5
ssI50
(dp478
S'iters'
p479
I2
sS'meta'
p480
(lp481
(dp482
S'objective'
p483
I5
sS'query_time'
p484
F0.5000669956207275
sS'comp_time'
p485
F0.00910329818725586
sS'exec_cq'
p486
I5
sS'total_cq'
p487
I5
sa(dp488
g483
I2
sg484
F0.00017905235290527344
sg485
F0.0012738704681396484
sg486
I4
sg487
I4
sasS'total_cqs'
p489
I5
ssI51
(dp490
S'iters'
p491
I0
sS'meta'
p492
(lp493
sS'total_cqs'
p494
I1
ssI52
(dp495
S'iters'
p496
I0
sS'meta'
p497
(lp498
sS'total_cqs'
p499
I1
ssI53
(dp500
S'iters'
p501
I0
sS'meta'
p502
(lp503
sS'total_cqs'
p504
I1
ssI55
(dp505
S'iters'
p506
I1
sS'meta'
p507
(lp508
(dp509
S'objective'
p510
I1
sS'query_time'
p511
F24.374594926834106
sS'comp_time'
p512
F2.796804189682007
sS'exec_cq'
p513
I2
sS'total_cq'
p514
I2
sasS'total_cqs'
p515
I2
ssI56
(dp516
S'iters'
p517
I0
sS'meta'
p518
(lp519
sS'total_cqs'
p520
I1
ssI57
(dp521
S'iters'
p522
I1
sS'meta'
p523
(lp524
(dp525
S'objective'
p526
I0
sS'query_time'
p527
F12.468165874481201
sS'comp_time'
p528
F2.4172799587249756
sS'exec_cq'
p529
I2
sS'total_cq'
p530
I3
sasS'total_cqs'
p531
I3
ssI108
(dp532
S'iters'
p533
I0
sS'meta'
p534
(lp535
sS'total_cqs'
p536
I1
ssI109
(dp537
S'iters'
p538
I0
sS'meta'
p539
(lp540
sS'total_cqs'
p541
I1
ssI116
(dp542
S'iters'
p543
I3
sS'meta'
p544
(lp545
(dp546
S'objective'
p547
I161
sS'query_time'
p548
F3.5627498626708984
sS'comp_time'
p549
F0.5396316051483154
sS'exec_cq'
p550
I15
sS'total_cq'
p551
I21
sa(dp552
g547
I136
sg548
F0.4935429096221924
sg549
F0.004222393035888672
sg550
I14
sg551
I19
sa(dp553
g547
I6
sg548
F0.0007541179656982422
sg549
F0.003381013870239258
sg550
I2
sg551
I2
sasS'total_cqs'
p554
I21
ssI117
(dp555
S'iters'
p556
I2
sS'meta'
p557
(lp558
(dp559
S'objective'
p560
I9
sS'query_time'
p561
F0.009358882904052734
sS'comp_time'
p562
F0.001588582992553711
sS'exec_cq'
p563
I3
sS'total_cq'
p564
I5
sa(dp565
g560
I4
sg561
F0.002552032470703125
sg562
F9.131431579589844e-05
sg563
I3
sg564
I4
sasS'total_cqs'
p566
I5
ssI118
(dp567
S'iters'
p568
I0
sS'meta'
p569
(lp570
sS'total_cqs'
p571
I1
ssI122
(dp572
S'iters'
p573
I0
sS'meta'
p574
(lp575
sS'total_cqs'
p576
I1
ss.