(dp0
I1
(dp1
S'iters'
p2
I2
sS'meta'
p3
(lp4
(dp5
S'objective'
p6
I7
sS'query_time'
p7
F47.5940728187561
sS'comp_time'
p8
F1.1058578491210938
sS'exec_cq'
p9
I5
sS'total_cq'
p10
I6
sa(dp11
g6
I5
sg7
F0.157135009765625
sg8
F0.22294211387634277
sg9
I2
sg10
I2
sasS'total_cqs'
p12
I6
ssI2
(dp13
S'iters'
p14
I1
sS'meta'
p15
(lp16
(dp17
S'objective'
p18
I9
sS'query_time'
p19
F0.9957201480865479
sS'comp_time'
p20
F0.213608980178833
sS'exec_cq'
p21
I5
sS'total_cq'
p22
I6
sasS'total_cqs'
p23
I6
ssI3
(dp24
S'iters'
p25
I9
sS'meta'
p26
(lp27
(dp28
S'objective'
p29
I421
sS'query_time'
p30
F25.751330852508545
sS'comp_time'
p31
F0.2738926410675049
sS'exec_cq'
p32
I33
sS'total_cq'
p33
I33
sa(dp34
g29
I355
sg30
F0.08130216598510742
sg31
F0.04146003723144531
sg32
I30
sg33
I30
sa(dp35
g29
I299
sg30
F0.019532203674316406
sg31
F0.11048579216003418
sg32
I27
sg33
I27
sa(dp36
g29
I263
sg30
F0.02001214027404785
sg31
F0.1398165225982666
sg32
I24
sg33
I24
sa(dp37
g29
I220
sg30
F0.021379947662353516
sg31
F0.05147814750671387
sg32
I21
sg33
I21
sa(dp38
g29
I202
sg30
F0.09013795852661133
sg31
F0.013262510299682617
sg32
I18
sg33
I18
sa(dp39
g29
I170
sg30
F0.007328987121582031
sg31
F0.013930559158325195
sg32
I16
sg33
I16
sa(dp40
g29
I140
sg30
F0.004919767379760742
sg31
F0.008080720901489258
sg32
I15
sg33
I15
sa(dp41
g29
I119
sg30
F0.0037801265716552734
sg31
F0.006438016891479492
sg32
I12
sg33
I12
sasS'total_cqs'
p42
I33
ssI4
(dp43
S'iters'
p44
I0
sS'meta'
p45
(lp46
sS'total_cqs'
p47
I1
ssI5
(dp48
S'iters'
p49
I0
sS'meta'
p50
(lp51
sS'total_cqs'
p52
I1
ssI6
(dp53
S'iters'
p54
I2
sS'meta'
p55
(lp56
(dp57
S'objective'
p58
I1
sS'query_time'
p59
F13.873479843139648
sS'comp_time'
p60
F0.0594182014465332
sS'exec_cq'
p61
I4
sS'total_cq'
p62
I5
sa(dp63
g58
I2
sg59
F0.00048089027404785156
sg60
F0.0005953311920166016
sg61
I2
sg62
I2
sasS'total_cqs'
p64
I5
ssI7
(dp65
S'iters'
p66
I0
sS'meta'
p67
(lp68
sS'total_cqs'
p69
I1
ssI8
(dp70
S'iters'
p71
I2
sS'meta'
p72
(lp73
(dp74
S'objective'
p75
I15
sS'query_time'
p76
F23.684287786483765
sS'comp_time'
p77
F0.07719802856445312
sS'exec_cq'
p78
I5
sS'total_cq'
p79
I6
sa(dp80
g75
I6
sg76
F0.1045839786529541
sg77
F0.00014710426330566406
sg78
I4
sg79
I5
sasS'total_cqs'
p81
I6
ssI9
(dp82
S'iters'
p83
I2
sS'meta'
p84
(lp85
(dp86
S'objective'
p87
I3
sS'query_time'
p88
F11.285673141479492
sS'comp_time'
p89
F0.1551222801208496
sS'exec_cq'
p90
I3
sS'total_cq'
p91
I6
sa(dp92
g87
I0
sg88
F0.09480500221252441
sg89
F0.3786509037017822
sg90
I3
sg91
I3
sasS'total_cqs'
p93
I6
ssI10
(dp94
S'iters'
p95
I0
sS'meta'
p96
(lp97
sS'total_cqs'
p98
I1
ssI11
(dp99
S'iters'
p100
I0
sS'meta'
p101
(lp102
sS'total_cqs'
p103
I1
ssI12
(dp104
S'iters'
p105
I0
sS'meta'
p106
(lp107
sS'total_cqs'
p108
I1
ssI13
(dp109
S'iters'
p110
I1
sS'meta'
p111
(lp112
(dp113
S'objective'
p114
I22
sS'query_time'
p115
F0.029779911041259766
sS'comp_time'
p116
F0.011945247650146484
sS'exec_cq'
p117
I7
sS'total_cq'
p118
I8
sasS'total_cqs'
p119
I8
ssI14
(dp120
S'iters'
p121
I1
sS'meta'
p122
(lp123
(dp124
S'objective'
p125
I5
sS'query_time'
p126
F1.1199607849121094
sS'comp_time'
p127
F0.004417896270751953
sS'exec_cq'
p128
I5
sS'total_cq'
p129
I5
sasS'total_cqs'
p130
I5
ssI16
(dp131
S'iters'
p132
I2
sS'meta'
p133
(lp134
(dp135
S'objective'
p136
I3
sS'query_time'
p137
F1.3396217823028564
sS'comp_time'
p138
F0.005759239196777344
sS'exec_cq'
p139
I4
sS'total_cq'
p140
I5
sa(dp141
g136
I4
sg137
F0.0012481212615966797
sg138
F0.0018482208251953125
sg139
I2
sg140
I2
sasS'total_cqs'
p142
I5
ssI17
(dp143
S'iters'
p144
I0
sS'meta'
p145
(lp146
sS'total_cqs'
p147
I1
ssI18
(dp148
S'iters'
p149
I2
sS'meta'
p150
(lp151
(dp152
S'objective'
p153
I1
sS'query_time'
p154
F0.17717790603637695
sS'comp_time'
p155
F0.003610849380493164
sS'exec_cq'
p156
I4
sS'total_cq'
p157
I5
sa(dp158
g153
I2
sg154
F3.790855407714844e-05
sg155
F0.00021409988403320312
sg156
I2
sg157
I3
sasS'total_cqs'
p159
I5
ssI19
(dp160
S'iters'
p161
I0
sS'meta'
p162
(lp163
sS'total_cqs'
p164
I1
ssI20
(dp165
S'iters'
p166
I3
sS'meta'
p167
(lp168
(dp169
S'objective'
p170
I50
sS'query_time'
p171
F15.578935861587524
sS'comp_time'
p172
F0.7429778575897217
sS'exec_cq'
p173
I10
sS'total_cq'
p174
I12
sa(dp175
g170
I42
sg171
F0.3365919589996338
sg172
F1.0105044841766357
sg173
I9
sg174
I10
sa(dp176
g170
I33
sg171
F0.3337388038635254
sg172
F0.6974198818206787
sg173
I8
sg174
I8
sasS'total_cqs'
p177
I12
ssI21
(dp178
S'iters'
p179
I3
sS'meta'
p180
(lp181
(dp182
S'objective'
p183
I43
sS'query_time'
p184
F59.63999080657959
sS'comp_time'
p185
F0.9154906272888184
sS'exec_cq'
p186
I12
sS'total_cq'
p187
I14
sa(dp188
g183
I40
sg184
F0.09049105644226074
sg185
F0.056078195571899414
sg186
I8
sg187
I11
sa(dp189
g183
I33
sg184
F0.027518033981323242
sg185
F0.024124622344970703
sg186
I7
sg187
I9
sasS'total_cqs'
p190
I14
ssI22
(dp191
S'iters'
p192
I1
sS'meta'
p193
(lp194
(dp195
S'objective'
p196
I1
sS'query_time'
p197
F0.003184080123901367
sS'comp_time'
p198
F0.0010609626770019531
sS'exec_cq'
p199
I1
sS'total_cq'
p200
I2
sasS'total_cqs'
p201
I2
ssI23
(dp202
S'iters'
p203
I0
sS'meta'
p204
(lp205
sS'total_cqs'
p206
I1
ssI24
(dp207
S'iters'
p208
I0
sS'meta'
p209
(lp210
sS'total_cqs'
p211
I1
ssI25
(dp212
S'iters'
p213
I3
sS'meta'
p214
(lp215
(dp216
S'objective'
p217
I12
sS'query_time'
p218
F48.49406099319458
sS'comp_time'
p219
F2.1651570796966553
sS'exec_cq'
p220
I4
sS'total_cq'
p221
I7
sa(dp222
g217
I6
sg218
F4.5690531730651855
sg219
F0.019561052322387695
sg220
I2
sg221
I5
sa(dp223
g217
I1
sg218
F0.1891021728515625
sg219
F0.0006711483001708984
sg220
I3
sg221
I3
sasS'total_cqs'
p224
I7
ssI26
(dp225
S'iters'
p226
I3
sS'meta'
p227
(lp228
(dp229
S'objective'
p230
I51
sS'query_time'
p231
F0.2611880302429199
sS'comp_time'
p232
F0.015307188034057617
sS'exec_cq'
p233
I4
sS'total_cq'
p234
I13
sa(dp235
g230
I35
sg231
F22.542016983032227
sg232
F1.9019238948822021
sg233
I5
sg234
I11
sa(dp236
g230
I31
sg231
F0.8533980846405029
sg232
F3.824998140335083
sg233
I6
sg234
I9
sasS'total_cqs'
p237
I13
ssI27
(dp238
S'iters'
p239
I1
sS'meta'
p240
(lp241
(dp242
S'objective'
p243
I1
sS'query_time'
p244
F0.23591208457946777
sS'comp_time'
p245
F0.002104043960571289
sS'exec_cq'
p246
I1
sS'total_cq'
p247
I2
sasS'total_cqs'
p248
I2
ssI28
(dp249
S'iters'
p250
I4
sS'meta'
p251
(lp252
(dp253
S'objective'
p254
I59
sS'query_time'
p255
F1.4040188789367676
sS'comp_time'
p256
F0.08204340934753418
sS'exec_cq'
p257
I6
sS'total_cq'
p258
I14
sa(dp259
g254
I38
sg255
F0.002669095993041992
sg256
F0.0058629512786865234
sg257
I4
sg258
I12
sa(dp260
g254
I34
sg255
F0.02310323715209961
sg256
F0.00019311904907226562
sg257
I1
sg258
I9
sa(dp261
g254
I23
sg255
F0.0026841163635253906
sg256
F5.1975250244140625e-05
sg257
I1
sg258
I8
sasS'total_cqs'
p262
I14
ssI29
(dp263
S'iters'
p264
I1
sS'meta'
p265
(lp266
(dp267
S'objective'
p268
I1
sS'query_time'
p269
F0.009278059005737305
sS'comp_time'
p270
F0.0011553764343261719
sS'exec_cq'
p271
I2
sS'total_cq'
p272
I2
sasS'total_cqs'
p273
I2
ssI30
(dp274
S'iters'
p275
I1
sS'meta'
p276
(lp277
(dp278
S'objective'
p279
I1
sS'query_time'
p280
F0.4786548614501953
sS'comp_time'
p281
F0.0021469593048095703
sS'exec_cq'
p282
I2
sS'total_cq'
p283
I2
sasS'total_cqs'
p284
I2
ssI31
(dp285
S'iters'
p286
I2
sS'meta'
p287
(lp288
(dp289
S'objective'
p290
I5
sS'query_time'
p291
F1.624403953552246
sS'comp_time'
p292
F0.0315098762512207
sS'exec_cq'
p293
I5
sS'total_cq'
p294
I9
sa(dp295
g290
I4
sg291
F0.009326934814453125
sg292
F0.01186370849609375
sg293
I3
sg294
I3
sasS'total_cqs'
p296
I9
ssI32
(dp297
S'iters'
p298
I3
sS'meta'
p299
(lp300
(dp301
S'objective'
p302
I4
sS'query_time'
p303
F21.203041076660156
sS'comp_time'
p304
F2.769341230392456
sS'exec_cq'
p305
I4
sS'total_cq'
p306
I7
sa(dp307
g302
I0
sg303
F1.0927860736846924
sg304
F0.0028879642486572266
sg305
I2
sg306
I4
sa(dp308
g302
I6
sg303
F0.2465958595275879
sg304
F0.2315998077392578
sg305
I1
sg306
I2
sasS'total_cqs'
p309
I7
ssI33
(dp310
S'iters'
p311
I1
sS'meta'
p312
(lp313
(dp314
S'objective'
p315
I1
sS'query_time'
p316
F0.03893089294433594
sS'comp_time'
p317
F0.001953125
sS'exec_cq'
p318
I2
sS'total_cq'
p319
I2
sasS'total_cqs'
p320
I2
ssI34
(dp321
S'iters'
p322
I0
sS'meta'
p323
(lp324
sS'total_cqs'
p325
I1
ssI35
(dp326
S'iters'
p327
I2
sS'meta'
p328
(lp329
(dp330
S'objective'
p331
I1
sS'query_time'
p332
F13.929253816604614
sS'comp_time'
p333
F0.11732316017150879
sS'exec_cq'
p334
I4
sS'total_cq'
p335
I5
sa(dp336
g331
I2
sg332
F0.0007431507110595703
sg333
F0.00032782554626464844
sg334
I1
sg335
I2
sasS'total_cqs'
p337
I5
ssI37
(dp338
S'iters'
p339
I2
sS'meta'
p340
(lp341
(dp342
S'objective'
p343
I27
sS'query_time'
p344
F1.788038969039917
sS'comp_time'
p345
F0.09777522087097168
sS'exec_cq'
p346
I8
sS'total_cq'
p347
I10
sa(dp348
g343
I4
sg344
F0.004214048385620117
sg345
F0.11126184463500977
sg346
I2
sg347
I2
sasS'total_cqs'
p349
I10
ssI38
(dp350
S'iters'
p351
I0
sS'meta'
p352
(lp353
sS'total_cqs'
p354
I1
ssI39
(dp355
S'iters'
p356
I0
sS'meta'
p357
(lp358
sS'total_cqs'
p359
I1
ssI40
(dp360
S'iters'
p361
I1
sS'meta'
p362
(lp363
(dp364
S'objective'
p365
I1
sS'query_time'
p366
F0.003062009811401367
sS'comp_time'
p367
F0.0004982948303222656
sS'exec_cq'
p368
I1
sS'total_cq'
p369
I2
sasS'total_cqs'
p370
I2
ssI41
(dp371
S'iters'
p372
I2
sS'meta'
p373
(lp374
(dp375
S'objective'
p376
I5
sS'query_time'
p377
F10.885709047317505
sS'comp_time'
p378
F0.6881489753723145
sS'exec_cq'
p379
I5
sS'total_cq'
p380
I6
sa(dp381
g376
I4
sg377
F0.0008280277252197266
sg378
F0.0010218620300292969
sg379
I2
sg380
I2
sasS'total_cqs'
p382
I6
ssI42
(dp383
S'iters'
p384
I1
sS'meta'
p385
(lp386
(dp387
S'objective'
p388
I1
sS'query_time'
p389
F0.02634286880493164
sS'comp_time'
p390
F0.0016121864318847656
sS'exec_cq'
p391
I1
sS'total_cq'
p392
I2
sasS'total_cqs'
p393
I2
ssI43
(dp394
S'iters'
p395
I0
sS'meta'
p396
(lp397
sS'total_cqs'
p398
I1
ssI44
(dp399
S'iters'
p400
I2
sS'meta'
p401
(lp402
(dp403
S'objective'
p404
I1
sS'query_time'
p405
F0.3009028434753418
sS'comp_time'
p406
F0.17751193046569824
sS'exec_cq'
p407
I2
sS'total_cq'
p408
I5
sa(dp409
g404
I2
sg405
F1.3575530052185059
sg406
F0.027333974838256836
sg407
I3
sg408
I3
sasS'total_cqs'
p410
I5
ssI45
(dp411
S'iters'
p412
I2
sS'meta'
p413
(lp414
(dp415
S'objective'
p416
I1
sS'query_time'
p417
F0.032299041748046875
sS'comp_time'
p418
F0.0022995471954345703
sS'exec_cq'
p419
I3
sS'total_cq'
p420
I5
sa(dp421
g416
I2
sg417
F0.00017309188842773438
sg418
F0.0002288818359375
sg419
I2
sg420
I2
sasS'total_cqs'
p422
I5
ssI46
(dp423
S'iters'
p424
I0
sS'meta'
p425
(lp426
sS'total_cqs'
p427
I1
ssI47
(dp428
S'iters'
p429
I0
sS'meta'
p430
(lp431
sS'total_cqs'
p432
I1
ssI48
(dp433
S'iters'
p434
I1
sS'meta'
p435
(lp436
(dp437
S'objective'
p438
I1
sS'query_time'
p439
F0.1402299404144287
sS'comp_time'
p440
F0.0033812522888183594
sS'exec_cq'
p441
I2
sS'total_cq'
p442
I2
sasS'total_cqs'
p443
I2
ssI49
(dp444
S'iters'
p445
I2
sS'meta'
p446
(lp447
(dp448
S'objective'
p449
I1
sS'query_time'
p450
F0.22611689567565918
sS'comp_time'
p451
F0.0037190914154052734
sS'exec_cq'
p452
I4
sS'total_cq'
p453
I5
sa(dp454
g449
I2
sg450
F0.0004470348358154297
sg451
F0.0005402565002441406
sg452
I2
sg453
I2
sasS'total_cqs'
p455
I5
ssI50
(dp456
S'iters'
p457
I1
sS'meta'
p458
(lp459
(dp460
S'objective'
p461
I5
sS'query_time'
p462
F0.5551459789276123
sS'comp_time'
p463
F0.0028128623962402344
sS'exec_cq'
p464
I5
sS'total_cq'
p465
I5
sasS'total_cqs'
p466
I5
ssI51
(dp467
S'iters'
p468
I0
sS'meta'
p469
(lp470
sS'total_cqs'
p471
I1
ssI52
(dp472
S'iters'
p473
I0
sS'meta'
p474
(lp475
sS'total_cqs'
p476
I1
ssI53
(dp477
S'iters'
p478
I0
sS'meta'
p479
(lp480
sS'total_cqs'
p481
I1
ssI55
(dp482
S'iters'
p483
I1
sS'meta'
p484
(lp485
(dp486
S'objective'
p487
I1
sS'query_time'
p488
F24.442188024520874
sS'comp_time'
p489
F0.01744532585144043
sS'exec_cq'
p490
I2
sS'total_cq'
p491
I2
sasS'total_cqs'
p492
I2
ssI56
(dp493
S'iters'
p494
I0
sS'meta'
p495
(lp496
sS'total_cqs'
p497
I1
ssI57
(dp498
S'iters'
p499
I1
sS'meta'
p500
(lp501
(dp502
S'objective'
p503
I2
sS'query_time'
p504
F12.4878830909729
sS'comp_time'
p505
F1.2126822471618652
sS'exec_cq'
p506
I3
sS'total_cq'
p507
I3
sasS'total_cqs'
p508
I3
ssI108
(dp509
S'iters'
p510
I0
sS'meta'
p511
(lp512
sS'total_cqs'
p513
I1
ssI109
(dp514
S'iters'
p515
I0
sS'meta'
p516
(lp517
sS'total_cqs'
p518
I1
ssI116
(dp519
S'iters'
p520
I2
sS'meta'
p521
(lp522
(dp523
S'objective'
p524
I173
sS'query_time'
p525
F4.148755073547363
sS'comp_time'
p526
F0.21633076667785645
sS'exec_cq'
p527
I17
sS'total_cq'
p528
I21
sa(dp529
g524
I5
sg525
F0.0009989738464355469
sg526
F0.0009992122650146484
sg527
I2
sg528
I2
sasS'total_cqs'
p530
I21
ssI117
(dp531
S'iters'
p532
I1
sS'meta'
p533
(lp534
(dp535
S'objective'
p536
I5
sS'query_time'
p537
F0.014312982559204102
sS'comp_time'
p538
F0.0019443035125732422
sS'exec_cq'
p539
I4
sS'total_cq'
p540
I5
sasS'total_cqs'
p541
I5
ssI118
(dp542
S'iters'
p543
I0
sS'meta'
p544
(lp545
sS'total_cqs'
p546
I1
ssI122
(dp547
S'iters'
p548
I0
sS'meta'
p549
(lp550
sS'total_cqs'
p551
I1
ss.