(dp0
I1
(dp1
S'iters'
p2
I3
sS'meta'
p3
(lp4
(dp5
S'objective'
p6
I7
sS'query_time'
p7
F48.30760478973389
sS'comp_time'
p8
F0.7555279731750488
sS'exec_cq'
p9
I5
sS'total_cq'
p10
I6
sa(dp11
g6
I2
sg7
F26.121826887130737
sg8
F0.22447490692138672
sg9
I4
sg10
I4
sa(dp12
g6
I0
sg7
F0.0685880184173584
sg8
F0.33429813385009766
sg9
I3
sg10
I3
sasS'total_cqs'
p13
I6
ssI2
(dp14
S'iters'
p15
I1
sS'meta'
p16
(lp17
(dp18
S'objective'
p19
I13
sS'query_time'
p20
F0.9560000896453857
sS'comp_time'
p21
F0.05284404754638672
sS'exec_cq'
p22
I5
sS'total_cq'
p23
I6
sasS'total_cqs'
p24
I6
ssI3
(dp25
S'iters'
p26
I12
sS'meta'
p27
(lp28
(dp29
S'objective'
p30
I433
sS'query_time'
p31
F26.4879150390625
sS'comp_time'
p32
F0.23664307594299316
sS'exec_cq'
p33
I33
sS'total_cq'
p34
I33
sa(dp35
g30
I381
sg31
F0.011811971664428711
sg32
F0.0850820541381836
sg33
I30
sg34
I30
sa(dp36
g30
I337
sg31
F0.010252237319946289
sg32
F0.023322582244873047
sg33
I27
sg34
I27
sa(dp37
g30
I294
sg31
F0.010033130645751953
sg32
F0.08326363563537598
sg33
I24
sg34
I24
sa(dp38
g30
I249
sg31
F0.00918126106262207
sg32
F0.01680898666381836
sg33
I21
sg34
I21
sa(dp39
g30
I205
sg31
F0.009103059768676758
sg32
F0.019832134246826172
sg33
I19
sg34
I19
sa(dp40
g30
I188
sg31
F0.06610703468322754
sg32
F0.013535737991333008
sg33
I16
sg34
I16
sa(dp41
g30
I159
sg31
F0.0056040287017822266
sg32
F0.010962247848510742
sg33
I15
sg34
I15
sa(dp42
g30
I131
sg31
F0.004867076873779297
sg32
F0.012794256210327148
sg33
I14
sg34
I14
sa(dp43
g30
I108
sg31
F0.0052509307861328125
sg32
F0.07183575630187988
sg33
I12
sg34
I12
sa(dp44
g30
I84
sg31
F0.005964994430541992
sg32
F0.013068199157714844
sg33
I9
sg34
I9
sa(dp45
g30
I73
sg31
F0.005026102066040039
sg32
F0.011184453964233398
sg33
I8
sg34
I8
sasS'total_cqs'
p46
I33
ssI4
(dp47
S'iters'
p48
I0
sS'meta'
p49
(lp50
sS'total_cqs'
p51
I1
ssI5
(dp52
S'iters'
p53
I0
sS'meta'
p54
(lp55
sS'total_cqs'
p56
I1
ssI6
(dp57
S'iters'
p58
I2
sS'meta'
p59
(lp60
(dp61
S'objective'
p62
I1
sS'query_time'
p63
F15.723628044128418
sS'comp_time'
p64
F0.0038242340087890625
sS'exec_cq'
p65
I4
sS'total_cq'
p66
I5
sa(dp67
g62
I1
sg63
F0.0006589889526367188
sg64
F0.0013549327850341797
sg65
I3
sg66
I3
sasS'total_cqs'
p68
I5
ssI7
(dp69
S'iters'
p70
I0
sS'meta'
p71
(lp72
sS'total_cqs'
p73
I1
ssI8
(dp74
S'iters'
p75
I3
sS'meta'
p76
(lp77
(dp78
S'objective'
p79
I9
sS'query_time'
p80
F83.89027690887451
sS'comp_time'
p81
F0.17403292655944824
sS'exec_cq'
p82
I5
sS'total_cq'
p83
I6
sa(dp84
g79
I5
sg80
F2.4080276489257812e-05
sg81
F0.00013017654418945312
sg82
I4
sg83
I5
sa(dp85
g79
I2
sg80
F1.2159347534179688e-05
sg81
F7.176399230957031e-05
sg82
I3
sg83
I4
sasS'total_cqs'
p86
I6
ssI9
(dp87
S'iters'
p88
I2
sS'meta'
p89
(lp90
(dp91
S'objective'
p92
I5
sS'query_time'
p93
F12.399454116821289
sS'comp_time'
p94
F0.058084964752197266
sS'exec_cq'
p95
I3
sS'total_cq'
p96
I6
sa(dp97
g92
I0
sg93
F0.05740094184875488
sg94
F0.33468127250671387
sg95
I3
sg96
I3
sasS'total_cqs'
p98
I6
ssI10
(dp99
S'iters'
p100
I0
sS'meta'
p101
(lp102
sS'total_cqs'
p103
I1
ssI11
(dp104
S'iters'
p105
I0
sS'meta'
p106
(lp107
sS'total_cqs'
p108
I1
ssI12
(dp109
S'iters'
p110
I0
sS'meta'
p111
(lp112
sS'total_cqs'
p113
I1
ssI13
(dp114
S'iters'
p115
I1
sS'meta'
p116
(lp117
(dp118
S'objective'
p119
I26
sS'query_time'
p120
F0.009060859680175781
sS'comp_time'
p121
F0.007572174072265625
sS'exec_cq'
p122
I8
sS'total_cq'
p123
I8
sasS'total_cqs'
p124
I8
ssI14
(dp125
S'iters'
p126
I1
sS'meta'
p127
(lp128
(dp129
S'objective'
p130
I7
sS'query_time'
p131
F0.9160761833190918
sS'comp_time'
p132
F0.004123210906982422
sS'exec_cq'
p133
I5
sS'total_cq'
p134
I5
sasS'total_cqs'
p135
I5
ssI16
(dp136
S'iters'
p137
I2
sS'meta'
p138
(lp139
(dp140
S'objective'
p141
I1
sS'query_time'
p142
F1.382673978805542
sS'comp_time'
p143
F0.00652003288269043
sS'exec_cq'
p144
I4
sS'total_cq'
p145
I5
sa(dp146
g141
I1
sg142
F0.0015919208526611328
sg143
F0.0025641918182373047
sg144
I3
sg145
I3
sasS'total_cqs'
p147
I5
ssI17
(dp148
S'iters'
p149
I0
sS'meta'
p150
(lp151
sS'total_cqs'
p152
I1
ssI18
(dp153
S'iters'
p154
I3
sS'meta'
p155
(lp156
(dp157
S'objective'
p158
I1
sS'query_time'
p159
F0.15731191635131836
sS'comp_time'
p160
F0.004241943359375
sS'exec_cq'
p161
I4
sS'total_cq'
p162
I5
sa(dp163
g158
I2
sg159
F3.910064697265625e-05
sg160
F8.869171142578125e-05
sg161
I2
sg162
I3
sa(dp164
g158
I3
sg159
F2.5033950805664062e-05
sg160
F7.605552673339844e-05
sg161
I2
sg162
I2
sasS'total_cqs'
p165
I5
ssI19
(dp166
S'iters'
p167
I0
sS'meta'
p168
(lp169
sS'total_cqs'
p170
I1
ssI20
(dp171
S'iters'
p172
I4
sS'meta'
p173
(lp174
(dp175
S'objective'
p176
I48
sS'query_time'
p177
F14.690635204315186
sS'comp_time'
p178
F0.824082612991333
sS'exec_cq'
p179
I10
sS'total_cq'
p180
I12
sa(dp181
g176
I33
sg177
F0.27520203590393066
sg178
F0.6196191310882568
sg179
I8
sg180
I10
sa(dp182
g176
I32
sg177
F0.18629217147827148
sg178
F0.4206240177154541
sg179
I5
sg180
I8
sa(dp183
g176
I26
sg177
F0.1214449405670166
sg178
F0.02094101905822754
sg179
I5
sg180
I7
sasS'total_cqs'
p184
I12
ssI21
(dp185
S'iters'
p186
I7
sS'meta'
p187
(lp188
(dp189
S'objective'
p190
I63
sS'query_time'
p191
F124.27264404296875
sS'comp_time'
p192
F0.8019804954528809
sS'exec_cq'
p193
I12
sS'total_cq'
p194
I14
sa(dp195
g190
I48
sg191
F0.09008502960205078
sg192
F0.05322742462158203
sg193
I8
sg194
I11
sa(dp196
g190
I38
sg191
F0.008939027786254883
sg192
F0.08984208106994629
sg193
I6
sg194
I9
sa(dp197
g190
I26
sg191
F0.009313821792602539
sg192
F0.01532435417175293
sg193
I5
sg194
I8
sa(dp198
g190
I19
sg191
F0.26048779487609863
sg192
F0.019089221954345703
sg193
I5
sg194
I7
sa(dp199
g190
I11
sg191
F0.07701587677001953
sg192
F0.016044139862060547
sg193
I4
sg194
I6
sa(dp200
g190
I4
sg191
F0.020669937133789062
sg192
F0.021529197692871094
sg193
I4
sg194
I5
sasS'total_cqs'
p201
I14
ssI22
(dp202
S'iters'
p203
I1
sS'meta'
p204
(lp205
(dp206
S'objective'
p207
I1
sS'query_time'
p208
F0.0021829605102539062
sS'comp_time'
p209
F0.0010178089141845703
sS'exec_cq'
p210
I1
sS'total_cq'
p211
I2
sasS'total_cqs'
p212
I2
ssI23
(dp213
S'iters'
p214
I0
sS'meta'
p215
(lp216
sS'total_cqs'
p217
I1
ssI24
(dp218
S'iters'
p219
I0
sS'meta'
p220
(lp221
sS'total_cqs'
p222
I1
ssI25
(dp223
S'iters'
p224
I4
sS'meta'
p225
(lp226
(dp227
S'objective'
p228
I14
sS'query_time'
p229
F67.87283706665039
sS'comp_time'
p230
F2.0932631492614746
sS'exec_cq'
p231
I4
sS'total_cq'
p232
I7
sa(dp233
g228
I9
sg229
F0.6465790271759033
sg230
F1.8882455825805664
sg231
I3
sg232
I6
sa(dp234
g228
I5
sg229
F4.688469886779785
sg230
F0.014901399612426758
sg231
I2
sg232
I5
sa(dp235
g228
I0
sg229
F0.7452487945556641
sg230
F1.0945501327514648
sg231
I2
sg232
I3
sasS'total_cqs'
p236
I7
ssI26
(dp237
S'iters'
p238
I6
sS'meta'
p239
(lp240
(dp241
S'objective'
p242
I55
sS'query_time'
p243
F23.56826090812683
sS'comp_time'
p244
F0.01822042465209961
sS'exec_cq'
p245
I7
sS'total_cq'
p246
I13
sa(dp247
g242
I45
sg243
F3.815135955810547
sg244
F0.004276275634765625
sg245
I5
sg246
I11
sa(dp248
g242
I33
sg243
F0.011876106262207031
sg244
F0.0008451938629150391
sg245
I5
sg246
I9
sa(dp249
g242
I24
sg243
F0.02890610694885254
sg244
F0.0009908676147460938
sg245
I4
sg246
I7
sa(dp250
g242
I17
sg243
F0.0004558563232421875
sg244
F0.0008096694946289062
sg245
I3
sg246
I6
sa(dp251
g242
I10
sg243
F0.0031309127807617188
sg244
F0.001951456069946289
sg245
I5
sg246
I5
sasS'total_cqs'
p252
I13
ssI27
(dp253
S'iters'
p254
I1
sS'meta'
p255
(lp256
(dp257
S'objective'
p258
I1
sS'query_time'
p259
F0.30048704147338867
sS'comp_time'
p260
F0.0019948482513427734
sS'exec_cq'
p261
I1
sS'total_cq'
p262
I2
sasS'total_cqs'
p263
I2
ssI28
(dp264
S'iters'
p265
I7
sS'meta'
p266
(lp267
(dp268
S'objective'
p269
I73
sS'query_time'
p270
F1.5135369300842285
sS'comp_time'
p271
F0.10949325561523438
sS'exec_cq'
p272
I6
sS'total_cq'
p273
I14
sa(dp274
g269
I61
sg270
F0.01117706298828125
sg271
F0.004139900207519531
sg272
I5
sg273
I12
sa(dp275
g269
I49
sg270
F0.023751020431518555
sg271
F0.004637956619262695
sg272
I5
sg273
I11
sa(dp276
g269
I36
sg270
F0.002521038055419922
sg271
F0.005367755889892578
sg272
I4
sg273
I10
sa(dp277
g269
I25
sg270
F0.017462968826293945
sg271
F0.00012493133544921875
sg272
I1
sg273
I7
sa(dp278
g269
I15
sg270
F0.0014629364013671875
sg271
F4.601478576660156e-05
sg272
I1
sg273
I6
sa(dp279
g269
I10
sg270
F0.0034258365631103516
sg271
F0.00011420249938964844
sg272
I3
sg273
I5
sasS'total_cqs'
p280
I14
ssI29
(dp281
S'iters'
p282
I1
sS'meta'
p283
(lp284
(dp285
S'objective'
p286
I1
sS'query_time'
p287
F0.017945051193237305
sS'comp_time'
p288
F0.0015518665313720703
sS'exec_cq'
p289
I2
sS'total_cq'
p290
I2
sasS'total_cqs'
p291
I2
ssI30
(dp292
S'iters'
p293
I1
sS'meta'
p294
(lp295
(dp296
S'objective'
p297
I1
sS'query_time'
p298
F0.333568811416626
sS'comp_time'
p299
F0.002438068389892578
sS'exec_cq'
p300
I2
sS'total_cq'
p301
I2
sasS'total_cqs'
p302
I2
ssI31
(dp303
S'iters'
p304
I3
sS'meta'
p305
(lp306
(dp307
S'objective'
p308
I11
sS'query_time'
p309
F6.090399980545044
sS'comp_time'
p310
F0.12152695655822754
sS'exec_cq'
p311
I9
sS'total_cq'
p312
I9
sa(dp313
g308
I0
sg309
F0.021687984466552734
sg310
F0.030916929244995117
sg311
I5
sg312
I7
sa(dp314
g308
I2
sg309
F0.011399030685424805
sg310
F0.015505790710449219
sg311
I3
sg312
I3
sasS'total_cqs'
p315
I9
ssI32
(dp316
S'iters'
p317
I3
sS'meta'
p318
(lp319
(dp320
S'objective'
p321
I2
sS'query_time'
p322
F20.347105979919434
sS'comp_time'
p323
F1.8749549388885498
sS'exec_cq'
p324
I4
sS'total_cq'
p325
I7
sa(dp326
g321
I1
sg322
F0.2459859848022461
sg323
F0.22918009757995605
sg324
I1
sg325
I4
sa(dp327
g321
I2
sg322
F1.1700689792633057
sg323
F0.003706216812133789
sg324
I2
sg325
I3
sasS'total_cqs'
p328
I7
ssI33
(dp329
S'iters'
p330
I1
sS'meta'
p331
(lp332
(dp333
S'objective'
p334
I1
sS'query_time'
p335
F0.054064035415649414
sS'comp_time'
p336
F0.0026159286499023438
sS'exec_cq'
p337
I2
sS'total_cq'
p338
I2
sasS'total_cqs'
p339
I2
ssI34
(dp340
S'iters'
p341
I0
sS'meta'
p342
(lp343
sS'total_cqs'
p344
I1
ssI35
(dp345
S'iters'
p346
I2
sS'meta'
p347
(lp348
(dp349
S'objective'
p350
I1
sS'query_time'
p351
F13.769972085952759
sS'comp_time'
p352
F0.0793459415435791
sS'exec_cq'
p353
I4
sS'total_cq'
p354
I5
sa(dp355
g350
I1
sg351
F0.01212620735168457
sg352
F0.07918143272399902
sg353
I2
sg354
I3
sasS'total_cqs'
p356
I5
ssI37
(dp357
S'iters'
p358
I3
sS'meta'
p359
(lp360
(dp361
S'objective'
p362
I35
sS'query_time'
p363
F1.773564100265503
sS'comp_time'
p364
F0.19974207878112793
sS'exec_cq'
p365
I8
sS'total_cq'
p366
I10
sa(dp367
g362
I27
sg363
F0.016131162643432617
sg364
F0.02804255485534668
sg365
I7
sg366
I9
sa(dp368
g362
I3
sg363
F0.006546974182128906
sg364
F0.0055921077728271484
sg365
I2
sg366
I2
sasS'total_cqs'
p369
I10
ssI38
(dp370
S'iters'
p371
I0
sS'meta'
p372
(lp373
sS'total_cqs'
p374
I1
ssI39
(dp375
S'iters'
p376
I0
sS'meta'
p377
(lp378
sS'total_cqs'
p379
I1
ssI40
(dp380
S'iters'
p381
I1
sS'meta'
p382
(lp383
(dp384
S'objective'
p385
I1
sS'query_time'
p386
F0.002582073211669922
sS'comp_time'
p387
F0.0005021095275878906
sS'exec_cq'
p388
I1
sS'total_cq'
p389
I2
sasS'total_cqs'
p390
I2
ssI41
(dp391
S'iters'
p392
I2
sS'meta'
p393
(lp394
(dp395
S'objective'
p396
I9
sS'query_time'
p397
F10.955188989639282
sS'comp_time'
p398
F0.7100479602813721
sS'exec_cq'
p399
I5
sS'total_cq'
p400
I6
sa(dp401
g396
I2
sg397
F0.0008039474487304688
sg398
F0.0010120868682861328
sg399
I2
sg400
I2
sasS'total_cqs'
p402
I6
ssI42
(dp403
S'iters'
p404
I1
sS'meta'
p405
(lp406
(dp407
S'objective'
p408
I1
sS'query_time'
p409
F0.01682114601135254
sS'comp_time'
p410
F0.0010020732879638672
sS'exec_cq'
p411
I1
sS'total_cq'
p412
I2
sasS'total_cqs'
p413
I2
ssI43
(dp414
S'iters'
p415
I0
sS'meta'
p416
(lp417
sS'total_cqs'
p418
I1
ssI44
(dp419
S'iters'
p420
I3
sS'meta'
p421
(lp422
(dp423
S'objective'
p424
I5
sS'query_time'
p425
F1.7186310291290283
sS'comp_time'
p426
F0.03570985794067383
sS'exec_cq'
p427
I4
sS'total_cq'
p428
I5
sa(dp429
g424
I0
sg425
F0.1385209560394287
sg426
F0.02989053726196289
sg427
I2
sg428
I3
sa(dp430
g424
I3
sg425
F0.017798900604248047
sg426
F0.012527704238891602
sg427
I1
sg428
I2
sasS'total_cqs'
p431
I5
ssI45
(dp432
S'iters'
p433
I2
sS'meta'
p434
(lp435
(dp436
S'objective'
p437
I5
sS'query_time'
p438
F0.031045913696289062
sS'comp_time'
p439
F0.0020058155059814453
sS'exec_cq'
p440
I3
sS'total_cq'
p441
I5
sa(dp442
g437
I3
sg438
F0.00016999244689941406
sg439
F0.00023818016052246094
sg440
I2
sg441
I2
sasS'total_cqs'
p443
I5
ssI46
(dp444
S'iters'
p445
I0
sS'meta'
p446
(lp447
sS'total_cqs'
p448
I1
ssI47
(dp449
S'iters'
p450
I0
sS'meta'
p451
(lp452
sS'total_cqs'
p453
I1
ssI48
(dp454
S'iters'
p455
I1
sS'meta'
p456
(lp457
(dp458
S'objective'
p459
I1
sS'query_time'
p460
F0.13615679740905762
sS'comp_time'
p461
F0.0014581680297851562
sS'exec_cq'
p462
I2
sS'total_cq'
p463
I2
sasS'total_cqs'
p464
I2
ssI49
(dp465
S'iters'
p466
I2
sS'meta'
p467
(lp468
(dp469
S'objective'
p470
I1
sS'query_time'
p471
F0.241469144821167
sS'comp_time'
p472
F0.003465890884399414
sS'exec_cq'
p473
I4
sS'total_cq'
p474
I5
sa(dp475
g470
I1
sg471
F0.0002620220184326172
sg472
F0.0005021095275878906
sg473
I2
sg474
I2
sasS'total_cqs'
p476
I5
ssI50
(dp477
S'iters'
p478
I2
sS'meta'
p479
(lp480
(dp481
S'objective'
p482
I5
sS'query_time'
p483
F0.625377893447876
sS'comp_time'
p484
F0.0033190250396728516
sS'exec_cq'
p485
I5
sS'total_cq'
p486
I5
sa(dp487
g482
I2
sg483
F0.00020003318786621094
sg484
F0.00047850608825683594
sg485
I4
sg486
I4
sasS'total_cqs'
p488
I5
ssI51
(dp489
S'iters'
p490
I0
sS'meta'
p491
(lp492
sS'total_cqs'
p493
I1
ssI52
(dp494
S'iters'
p495
I0
sS'meta'
p496
(lp497
sS'total_cqs'
p498
I1
ssI53
(dp499
S'iters'
p500
I0
sS'meta'
p501
(lp502
sS'total_cqs'
p503
I1
ssI55
(dp504
S'iters'
p505
I1
sS'meta'
p506
(lp507
(dp508
S'objective'
p509
I1
sS'query_time'
p510
F24.247143030166626
sS'comp_time'
p511
F0.014736175537109375
sS'exec_cq'
p512
I2
sS'total_cq'
p513
I2
sasS'total_cqs'
p514
I2
ssI56
(dp515
S'iters'
p516
I0
sS'meta'
p517
(lp518
sS'total_cqs'
p519
I1
ssI57
(dp520
S'iters'
p521
I1
sS'meta'
p522
(lp523
(dp524
S'objective'
p525
I0
sS'query_time'
p526
F12.518457889556885
sS'comp_time'
p527
F1.3768270015716553
sS'exec_cq'
p528
I2
sS'total_cq'
p529
I3
sasS'total_cqs'
p530
I3
ssI108
(dp531
S'iters'
p532
I0
sS'meta'
p533
(lp534
sS'total_cqs'
p535
I1
ssI109
(dp536
S'iters'
p537
I0
sS'meta'
p538
(lp539
sS'total_cqs'
p540
I1
ssI116
(dp541
S'iters'
p542
I2
sS'meta'
p543
(lp544
(dp545
S'objective'
p546
I167
sS'query_time'
p547
F0.5896761417388916
sS'comp_time'
p548
F0.014011144638061523
sS'exec_cq'
p549
I14
sS'total_cq'
p550
I21
sa(dp551
g546
I8
sg547
F0.0007228851318359375
sg548
F0.0008969306945800781
sg549
I2
sg550
I2
sasS'total_cqs'
p552
I21
ssI117
(dp553
S'iters'
p554
I1
sS'meta'
p555
(lp556
(dp557
S'objective'
p558
I7
sS'query_time'
p559
F0.0048770904541015625
sS'comp_time'
p560
F0.0014519691467285156
sS'exec_cq'
p561
I4
sS'total_cq'
p562
I5
sasS'total_cqs'
p563
I5
ssI118
(dp564
S'iters'
p565
I0
sS'meta'
p566
(lp567
sS'total_cqs'
p568
I1
ssI122
(dp569
S'iters'
p570
I0
sS'meta'
p571
(lp572
sS'total_cqs'
p573
I1
ss.