(dp0
I1
(dp1
S'iters'
p2
I3
sS'meta'
p3
(lp4
(dp5
S'objective'
p6
I1
sS'query_time'
p7
F34.82650089263916
sS'comp_time'
p8
F3.3988711833953857
sS'exec_cq'
p9
I2
sS'total_cq'
p10
I6
sa(dp11
g6
I0
sg7
F12.774325132369995
sg8
F0.7403790950775146
sg9
I3
sg10
I4
sa(dp12
g6
I3
sg7
F0.17641186714172363
sg8
F0.6704847812652588
sg9
I2
sg10
I2
sasS'total_cqs'
p13
I6
ssI2
(dp14
S'iters'
p15
I1
sS'meta'
p16
(lp17
(dp18
S'objective'
p19
I13
sS'query_time'
p20
F1.0365159511566162
sS'comp_time'
p21
F0.2292160987854004
sS'exec_cq'
p22
I5
sS'total_cq'
p23
I6
sasS'total_cqs'
p24
I6
ssI3
(dp25
S'iters'
p26
I14
sS'meta'
p27
(lp28
(dp29
S'objective'
p30
I447
sS'query_time'
p31
F25.40374994277954
sS'comp_time'
p32
F0.30998682975769043
sS'exec_cq'
p33
I15
sS'total_cq'
p34
I33
sa(dp35
g30
I386
sg31
F0.3267221450805664
sg32
F0.021824121475219727
sg33
I13
sg34
I30
sa(dp36
g30
I343
sg31
F0.13663697242736816
sg32
F0.0837092399597168
sg33
I12
sg34
I27
sa(dp37
g30
I302
sg31
F0.004300832748413086
sg32
F0.14145445823669434
sg33
I10
sg34
I24
sa(dp38
g30
I266
sg31
F0.002505064010620117
sg32
F0.017475128173828125
sg33
I9
sg34
I22
sa(dp39
g30
I227
sg31
F0.005000114440917969
sg32
F0.021729707717895508
sg33
I8
sg34
I19
sa(dp40
g30
I241
sg31
F0.00019884109497070312
sg32
F0.0038759708404541016
sg33
I6
sg34
I16
sa(dp41
g30
I188
sg31
F0.19545412063598633
sg32
F0.021485090255737305
sg33
I5
sg34
I15
sa(dp42
g30
I215
sg31
F3.0040740966796875e-05
sg32
F0.002663135528564453
sg33
I5
sg34
I14
sa(dp43
g30
I74
sg31
F0.38484811782836914
sg32
F0.4194941520690918
sg33
I4
sg34
I13
sa(dp44
g30
I72
sg31
F0.006175041198730469
sg32
F0.016542673110961914
sg33
I5
sg34
I10
sa(dp45
g30
I63
sg31
F0.004075050354003906
sg32
F0.017150163650512695
sg33
I4
sg34
I7
sa(dp46
g30
I42
sg31
F0.00013518333435058594
sg32
F0.0010004043579101562
sg33
I3
sg34
I6
sa(dp47
g30
I28
sg31
F0.0042400360107421875
sg32
F0.14546608924865723
sg33
I2
sg34
I5
sasS'total_cqs'
p48
I33
ssI4
(dp49
S'iters'
p50
I0
sS'meta'
p51
(lp52
sS'total_cqs'
p53
I1
ssI5
(dp54
S'iters'
p55
I0
sS'meta'
p56
(lp57
sS'total_cqs'
p58
I1
ssI6
(dp59
S'iters'
p60
I2
sS'meta'
p61
(lp62
(dp63
S'objective'
p64
I1
sS'query_time'
p65
F14.442721843719482
sS'comp_time'
p66
F0.031984806060791016
sS'exec_cq'
p67
I4
sS'total_cq'
p68
I5
sa(dp69
g64
I1
sg65
F5.602836608886719e-05
sg66
F0.00047779083251953125
sg67
I1
sg68
I2
sasS'total_cqs'
p70
I5
ssI7
(dp71
S'iters'
p72
I0
sS'meta'
p73
(lp74
sS'total_cqs'
p75
I1
ssI8
(dp76
S'iters'
p77
I2
sS'meta'
p78
(lp79
(dp80
S'objective'
p81
I11
sS'query_time'
p82
F23.400590896606445
sS'comp_time'
p83
F0.292560338973999
sS'exec_cq'
p84
I5
sS'total_cq'
p85
I6
sa(dp86
g81
I8
sg82
F0.0939788818359375
sg83
F0.09055423736572266
sg84
I4
sg85
I5
sasS'total_cqs'
p87
I6
ssI9
(dp88
S'iters'
p89
I2
sS'meta'
p90
(lp91
(dp92
S'objective'
p93
I5
sS'query_time'
p94
F11.027833938598633
sS'comp_time'
p95
F0.5298712253570557
sS'exec_cq'
p96
I3
sS'total_cq'
p97
I6
sa(dp98
g93
I0
sg94
F0.057041168212890625
sg95
F0.5300090312957764
sg96
I3
sg97
I3
sasS'total_cqs'
p99
I6
ssI10
(dp100
S'iters'
p101
I0
sS'meta'
p102
(lp103
sS'total_cqs'
p104
I1
ssI11
(dp105
S'iters'
p106
I0
sS'meta'
p107
(lp108
sS'total_cqs'
p109
I1
ssI12
(dp110
S'iters'
p111
I0
sS'meta'
p112
(lp113
sS'total_cqs'
p114
I1
ssI13
(dp115
S'iters'
p116
I2
sS'meta'
p117
(lp118
(dp119
S'objective'
p120
I20
sS'query_time'
p121
F0.018265962600708008
sS'comp_time'
p122
F0.008350372314453125
sS'exec_cq'
p123
I6
sS'total_cq'
p124
I8
sa(dp125
g120
I18
sg121
F2.9087066650390625e-05
sg122
F0.00011539459228515625
sg123
I5
sg124
I7
sasS'total_cqs'
p126
I8
ssI14
(dp127
S'iters'
p128
I1
sS'meta'
p129
(lp130
(dp131
S'objective'
p132
I7
sS'query_time'
p133
F1.0161919593811035
sS'comp_time'
p134
F0.0200958251953125
sS'exec_cq'
p135
I5
sS'total_cq'
p136
I5
sasS'total_cqs'
p137
I5
ssI16
(dp138
S'iters'
p139
I2
sS'meta'
p140
(lp141
(dp142
S'objective'
p143
I1
sS'query_time'
p144
F1.3759520053863525
sS'comp_time'
p145
F0.023874998092651367
sS'exec_cq'
p146
I4
sS'total_cq'
p147
I5
sa(dp148
g143
I1
sg144
F0.0015101432800292969
sg145
F0.0076446533203125
sg146
I3
sg147
I3
sasS'total_cqs'
p149
I5
ssI17
(dp150
S'iters'
p151
I0
sS'meta'
p152
(lp153
sS'total_cqs'
p154
I1
ssI18
(dp155
S'iters'
p156
I3
sS'meta'
p157
(lp158
(dp159
S'objective'
p160
I1
sS'query_time'
p161
F0.14802908897399902
sS'comp_time'
p162
F0.003979206085205078
sS'exec_cq'
p163
I4
sS'total_cq'
p164
I5
sa(dp165
g160
I2
sg161
F4.00543212890625e-05
sg162
F0.0002701282501220703
sg163
I2
sg164
I3
sa(dp166
g160
I3
sg161
F0.015237808227539062
sg162
F0.00016880035400390625
sg163
I2
sg164
I2
sasS'total_cqs'
p167
I5
ssI19
(dp168
S'iters'
p169
I0
sS'meta'
p170
(lp171
sS'total_cqs'
p172
I1
ssI20
(dp173
S'iters'
p174
I6
sS'meta'
p175
(lp176
(dp177
S'objective'
p178
I50
sS'query_time'
p179
F8.981980085372925
sS'comp_time'
p180
F1.2924537658691406
sS'exec_cq'
p181
I6
sS'total_cq'
p182
I12
sa(dp183
g178
I36
sg179
F0.21705913543701172
sg180
F1.023535966873169
sg181
I4
sg182
I10
sa(dp184
g178
I26
sg179
F0.1940288543701172
sg180
F0.9034230709075928
sg181
I2
sg182
I8
sa(dp185
g178
I28
sg179
F3.9467849731445312
sg180
F0.42903709411621094
sg181
I4
sg182
I7
sa(dp186
g178
I31
sg179
F0.10907602310180664
sg180
F0.2595651149749756
sg181
I2
sg182
I5
sa(dp187
g178
I18
sg179
F0.09206914901733398
sg180
F0.004179477691650391
sg181
I3
sg182
I4
sasS'total_cqs'
p188
I12
ssI21
(dp189
S'iters'
p190
I5
sS'meta'
p191
(lp192
(dp193
S'objective'
p194
I49
sS'query_time'
p195
F29.03823208808899
sS'comp_time'
p196
F0.4261667728424072
sS'exec_cq'
p197
I8
sS'total_cq'
p198
I14
sa(dp199
g194
I29
sg195
F0.009881973266601562
sg196
F0.06830811500549316
sg197
I4
sg198
I10
sa(dp200
g194
I3
sg195
F30.473827123641968
sg196
F1.7317876815795898
sg197
I4
sg198
I8
sa(dp201
g194
I4
sg195
F0.2616429328918457
sg196
F0.026938676834106445
sg197
I1
sg198
I4
sa(dp202
g194
I0
sg195
F0.008127927780151367
sg196
F0.05327653884887695
sg197
I2
sg198
I3
sasS'total_cqs'
p203
I14
ssI22
(dp204
S'iters'
p205
I1
sS'meta'
p206
(lp207
(dp208
S'objective'
p209
I1
sS'query_time'
p210
F0.022291898727416992
sS'comp_time'
p211
F0.0019659996032714844
sS'exec_cq'
p212
I1
sS'total_cq'
p213
I2
sasS'total_cqs'
p214
I2
ssI23
(dp215
S'iters'
p216
I0
sS'meta'
p217
(lp218
sS'total_cqs'
p219
I1
ssI24
(dp220
S'iters'
p221
I0
sS'meta'
p222
(lp223
sS'total_cqs'
p224
I1
ssI25
(dp225
S'iters'
p226
I4
sS'meta'
p227
(lp228
(dp229
S'objective'
p230
I2
sS'query_time'
p231
F48.66454601287842
sS'comp_time'
p232
F6.150116920471191
sS'exec_cq'
p233
I4
sS'total_cq'
p234
I7
sa(dp235
g230
I3
sg231
F4.54660701751709
sg232
F0.3605000972747803
sg233
I2
sg234
I5
sa(dp236
g230
I3
sg231
F0.01369619369506836
sg232
F0.04626941680908203
sg233
I2
sg234
I3
sa(dp237
g230
I4
sg231
F0.0066699981689453125
sg232
F0.045490264892578125
sg233
I1
sg234
I2
sasS'total_cqs'
p238
I7
ssI26
(dp239
S'iters'
p240
I7
sS'meta'
p241
(lp242
(dp243
S'objective'
p244
I65
sS'query_time'
p245
F0.3048229217529297
sS'comp_time'
p246
F0.027338027954101562
sS'exec_cq'
p247
I4
sS'total_cq'
p248
I13
sa(dp249
g244
I56
sg245
F22.658313989639282
sg246
F0.007776021957397461
sg247
I3
sg248
I11
sa(dp250
g244
I29
sg245
F0.010921001434326172
sg246
F0.00017499923706054688
sg247
I2
sg248
I10
sa(dp251
g244
I24
sg245
F0.0014109611511230469
sg246
F0.007025241851806641
sg247
I2
sg248
I8
sa(dp252
g244
I12
sg245
F3.6662158966064453
sg246
F0.08293461799621582
sg247
I2
sg248
I7
sa(dp253
g244
I18
sg245
F0.0002639293670654297
sg246
F0.0035429000854492188
sg247
I2
sg248
I5
sa(dp254
g244
I5
sg245
F0.0031349658966064453
sg246
F9.274482727050781e-05
sg247
I1
sg248
I4
sasS'total_cqs'
p255
I13
ssI27
(dp256
S'iters'
p257
I1
sS'meta'
p258
(lp259
(dp260
S'objective'
p261
I1
sS'query_time'
p262
F0.15587997436523438
sS'comp_time'
p263
F0.008453130722045898
sS'exec_cq'
p264
I1
sS'total_cq'
p265
I2
sasS'total_cqs'
p266
I2
ssI28
(dp267
S'iters'
p268
I6
sS'meta'
p269
(lp270
(dp271
S'objective'
p272
I59
sS'query_time'
p273
F1.479241132736206
sS'comp_time'
p274
F0.11408019065856934
sS'exec_cq'
p275
I6
sS'total_cq'
p276
I14
sa(dp277
g272
I48
sg273
F0.006685972213745117
sg274
F0.03482866287231445
sg275
I4
sg276
I12
sa(dp278
g272
I39
sg273
F0.005728006362915039
sg274
F0.00016570091247558594
sg275
I2
sg276
I9
sa(dp279
g272
I24
sg273
F0.014605045318603516
sg274
F0.0008287429809570312
sg275
I1
sg276
I8
sa(dp280
g272
I20
sg273
F0.022839069366455078
sg274
F0.0006148815155029297
sg275
I1
sg276
I7
sa(dp281
g272
I13
sg273
F0.03126716613769531
sg274
F0.0001609325408935547
sg275
I1
sg276
I6
sasS'total_cqs'
p282
I14
ssI29
(dp283
S'iters'
p284
I1
sS'meta'
p285
(lp286
(dp287
S'objective'
p288
I1
sS'query_time'
p289
F0.006970882415771484
sS'comp_time'
p290
F0.0015058517456054688
sS'exec_cq'
p291
I2
sS'total_cq'
p292
I2
sasS'total_cqs'
p293
I2
ssI30
(dp294
S'iters'
p295
I1
sS'meta'
p296
(lp297
(dp298
S'objective'
p299
I1
sS'query_time'
p300
F0.3314480781555176
sS'comp_time'
p301
F0.004129171371459961
sS'exec_cq'
p302
I2
sS'total_cq'
p303
I2
sasS'total_cqs'
p304
I2
ssI31
(dp305
S'iters'
p306
I3
sS'meta'
p307
(lp308
(dp309
S'objective'
p310
I7
sS'query_time'
p311
F1.6233570575714111
sS'comp_time'
p312
F0.06744122505187988
sS'exec_cq'
p313
I5
sS'total_cq'
p314
I9
sa(dp315
g310
I3
sg311
F0.011314153671264648
sg312
F0.15972900390625
sg313
I3
sg314
I3
sa(dp316
g310
I1
sg311
F0.04032421112060547
sg312
F0.061424970626831055
sg313
I2
sg314
I2
sasS'total_cqs'
p317
I9
ssI32
(dp318
S'iters'
p319
I3
sS'meta'
p320
(lp321
(dp322
S'objective'
p323
I0
sS'query_time'
p324
F21.33499002456665
sS'comp_time'
p325
F5.8548667430877686
sS'exec_cq'
p326
I4
sS'total_cq'
p327
I7
sa(dp328
g323
I0
sg324
F1.0836000442504883
sg325
F0.020533323287963867
sg326
I2
sg327
I4
sa(dp329
g323
I3
sg324
F0.5166258811950684
sg325
F1.8130524158477783
sg326
I1
sg327
I2
sasS'total_cqs'
p330
I7
ssI33
(dp331
S'iters'
p332
I1
sS'meta'
p333
(lp334
(dp335
S'objective'
p336
I1
sS'query_time'
p337
F0.025660037994384766
sS'comp_time'
p338
F0.0019237995147705078
sS'exec_cq'
p339
I2
sS'total_cq'
p340
I2
sasS'total_cqs'
p341
I2
ssI34
(dp342
S'iters'
p343
I0
sS'meta'
p344
(lp345
sS'total_cqs'
p346
I1
ssI35
(dp347
S'iters'
p348
I2
sS'meta'
p349
(lp350
(dp351
S'objective'
p352
I1
sS'query_time'
p353
F14.39243197441101
sS'comp_time'
p354
F0.2659590244293213
sS'exec_cq'
p355
I4
sS'total_cq'
p356
I5
sa(dp357
g352
I1
sg353
F0.07853984832763672
sg354
F0.06199169158935547
sg355
I2
sg356
I2
sasS'total_cqs'
p358
I5
ssI37
(dp359
S'iters'
p360
I3
sS'meta'
p361
(lp362
(dp363
S'objective'
p364
I35
sS'query_time'
p365
F1.2428438663482666
sS'comp_time'
p366
F0.21851181983947754
sS'exec_cq'
p367
I4
sS'total_cq'
p368
I10
sa(dp369
g364
I17
sg365
F0.5236849784851074
sg366
F0.020081043243408203
sg367
I4
sg368
I9
sa(dp370
g364
I2
sg365
F0.0034241676330566406
sg366
F0.01816558837890625
sg367
I2
sg368
I2
sasS'total_cqs'
p371
I10
ssI38
(dp372
S'iters'
p373
I0
sS'meta'
p374
(lp375
sS'total_cqs'
p376
I1
ssI39
(dp377
S'iters'
p378
I0
sS'meta'
p379
(lp380
sS'total_cqs'
p381
I1
ssI40
(dp382
S'iters'
p383
I1
sS'meta'
p384
(lp385
(dp386
S'objective'
p387
I1
sS'query_time'
p388
F0.010951995849609375
sS'comp_time'
p389
F0.0011641979217529297
sS'exec_cq'
p390
I1
sS'total_cq'
p391
I2
sasS'total_cqs'
p392
I2
ssI41
(dp393
S'iters'
p394
I3
sS'meta'
p395
(lp396
(dp397
S'objective'
p398
I1
sS'query_time'
p399
F10.799289226531982
sS'comp_time'
p400
F1.8276770114898682
sS'exec_cq'
p401
I3
sS'total_cq'
p402
I6
sa(dp403
g398
I2
sg399
F0.747218132019043
sg400
F0.004468202590942383
sg401
I2
sg402
I4
sa(dp404
g398
I2
sg399
F0.0006470680236816406
sg400
F0.0037491321563720703
sg401
I2
sg402
I2
sasS'total_cqs'
p405
I6
ssI42
(dp406
S'iters'
p407
I1
sS'meta'
p408
(lp409
(dp410
S'objective'
p411
I1
sS'query_time'
p412
F0.010012149810791016
sS'comp_time'
p413
F0.0034248828887939453
sS'exec_cq'
p414
I1
sS'total_cq'
p415
I2
sasS'total_cqs'
p416
I2
ssI43
(dp417
S'iters'
p418
I0
sS'meta'
p419
(lp420
sS'total_cqs'
p421
I1
ssI44
(dp422
S'iters'
p423
I2
sS'meta'
p424
(lp425
(dp426
S'objective'
p427
I5
sS'query_time'
p428
F1.291459083557129
sS'comp_time'
p429
F0.1986851692199707
sS'exec_cq'
p430
I2
sS'total_cq'
p431
I5
sa(dp432
g427
I2
sg428
F0.0036039352416992188
sg429
F0.00011324882507324219
sg430
I1
sg431
I4
sasS'total_cqs'
p433
I5
ssI45
(dp434
S'iters'
p435
I2
sS'meta'
p436
(lp437
(dp438
S'objective'
p439
I3
sS'query_time'
p440
F0.03011608123779297
sS'comp_time'
p441
F0.0029709339141845703
sS'exec_cq'
p442
I3
sS'total_cq'
p443
I5
sa(dp444
g439
I2
sg440
F0.00016999244689941406
sg441
F0.059274911880493164
sg442
I2
sg443
I2
sasS'total_cqs'
p445
I5
ssI46
(dp446
S'iters'
p447
I0
sS'meta'
p448
(lp449
sS'total_cqs'
p450
I1
ssI47
(dp451
S'iters'
p452
I0
sS'meta'
p453
(lp454
sS'total_cqs'
p455
I1
ssI48
(dp456
S'iters'
p457
I1
sS'meta'
p458
(lp459
(dp460
S'objective'
p461
I1
sS'query_time'
p462
F0.09328579902648926
sS'comp_time'
p463
F0.007735013961791992
sS'exec_cq'
p464
I2
sS'total_cq'
p465
I2
sasS'total_cqs'
p466
I2
ssI49
(dp467
S'iters'
p468
I2
sS'meta'
p469
(lp470
(dp471
S'objective'
p472
I1
sS'query_time'
p473
F0.22923898696899414
sS'comp_time'
p474
F0.007195234298706055
sS'exec_cq'
p475
I4
sS'total_cq'
p476
I5
sa(dp477
g472
I1
sg473
F3.600120544433594e-05
sg474
F0.00024509429931640625
sg475
I2
sg476
I3
sasS'total_cqs'
p478
I5
ssI50
(dp479
S'iters'
p480
I2
sS'meta'
p481
(lp482
(dp483
S'objective'
p484
I5
sS'query_time'
p485
F0.7249259948730469
sS'comp_time'
p486
F0.004414796829223633
sS'exec_cq'
p487
I5
sS'total_cq'
p488
I5
sa(dp489
g484
I2
sg485
F0.00019288063049316406
sg486
F0.0012080669403076172
sg487
I4
sg488
I4
sasS'total_cqs'
p490
I5
ssI51
(dp491
S'iters'
p492
I0
sS'meta'
p493
(lp494
sS'total_cqs'
p495
I1
ssI52
(dp496
S'iters'
p497
I0
sS'meta'
p498
(lp499
sS'total_cqs'
p500
I1
ssI53
(dp501
S'iters'
p502
I0
sS'meta'
p503
(lp504
sS'total_cqs'
p505
I1
ssI55
(dp506
S'iters'
p507
I1
sS'meta'
p508
(lp509
(dp510
S'objective'
p511
I1
sS'query_time'
p512
F24.468637943267822
sS'comp_time'
p513
F3.296419858932495
sS'exec_cq'
p514
I2
sS'total_cq'
p515
I2
sasS'total_cqs'
p516
I2
ssI56
(dp517
S'iters'
p518
I0
sS'meta'
p519
(lp520
sS'total_cqs'
p521
I1
ssI57
(dp522
S'iters'
p523
I1
sS'meta'
p524
(lp525
(dp526
S'objective'
p527
I0
sS'query_time'
p528
F12.664539098739624
sS'comp_time'
p529
F2.3719120025634766
sS'exec_cq'
p530
I2
sS'total_cq'
p531
I3
sasS'total_cqs'
p532
I3
ssI108
(dp533
S'iters'
p534
I0
sS'meta'
p535
(lp536
sS'total_cqs'
p537
I1
ssI109
(dp538
S'iters'
p539
I0
sS'meta'
p540
(lp541
sS'total_cqs'
p542
I1
ssI116
(dp543
S'iters'
p544
I3
sS'meta'
p545
(lp546
(dp547
S'objective'
p548
I169
sS'query_time'
p549
F3.70687198638916
sS'comp_time'
p550
F0.541517972946167
sS'exec_cq'
p551
I9
sS'total_cq'
p552
I21
sa(dp553
g548
I148
sg549
F0.5328969955444336
sg550
F0.0038900375366210938
sg551
I14
sg552
I19
sa(dp554
g548
I2
sg549
F0.0006718635559082031
sg550
F0.003175020217895508
sg551
I2
sg552
I2
sasS'total_cqs'
p555
I21
ssI117
(dp556
S'iters'
p557
I2
sS'meta'
p558
(lp559
(dp560
S'objective'
p561
I9
sS'query_time'
p562
F0.006950855255126953
sS'comp_time'
p563
F0.0014920234680175781
sS'exec_cq'
p564
I3
sS'total_cq'
p565
I5
sa(dp566
g561
I4
sg562
F0.0019328594207763672
sg563
F8.392333984375e-05
sg564
I3
sg565
I4
sasS'total_cqs'
p567
I5
ssI118
(dp568
S'iters'
p569
I0
sS'meta'
p570
(lp571
sS'total_cqs'
p572
I1
ssI122
(dp573
S'iters'
p574
I0
sS'meta'
p575
(lp576
sS'total_cqs'
p577
I1
ss.