(dp0
I1
(dp1
S'iters'
p2
I2
sS'meta'
p3
(lp4
(dp5
S'objective'
p6
I1
sS'query_time'
p7
F71.83386707305908
sS'comp_time'
p8
F2.8050668239593506
sS'exec_cq'
p9
I6
sS'total_cq'
p10
I6
sa(dp11
g6
I1
sg7
F0.07403206825256348
sg8
F0.793928861618042
sg9
I2
sg10
I2
sasS'total_cqs'
p12
I6
ssI2
(dp13
S'iters'
p14
I1
sS'meta'
p15
(lp16
(dp17
S'objective'
p18
I9
sS'query_time'
p19
F0.8016681671142578
sS'comp_time'
p20
F0.1264650821685791
sS'exec_cq'
p21
I6
sS'total_cq'
p22
I6
sasS'total_cqs'
p23
I6
ssI3
(dp24
S'iters'
p25
I9
sS'meta'
p26
(lp27
(dp28
S'objective'
p29
I407
sS'query_time'
p30
F27.713381052017212
sS'comp_time'
p31
F0.3721036911010742
sS'exec_cq'
p32
I33
sS'total_cq'
p33
I33
sa(dp34
g29
I338
sg30
F0.03469085693359375
sg31
F0.4255988597869873
sg32
I30
sg33
I30
sa(dp35
g29
I295
sg30
F0.06457710266113281
sg31
F0.24328088760375977
sg32
I27
sg33
I27
sa(dp36
g29
I241
sg30
F0.02164602279663086
sg31
F0.25258803367614746
sg32
I24
sg33
I24
sa(dp37
g29
I191
sg30
F0.007785797119140625
sg31
F0.09021997451782227
sg32
I21
sg33
I21
sa(dp38
g29
I156
sg30
F0.006604909896850586
sg31
F0.07993412017822266
sg32
I18
sg33
I18
sa(dp39
g29
I140
sg30
F0.005218982696533203
sg31
F0.050279855728149414
sg32
I15
sg33
I15
sa(dp40
g29
I110
sg30
F0.005448818206787109
sg31
F0.07295703887939453
sg32
I13
sg33
I13
sa(dp41
g29
I88
sg30
F0.005276918411254883
sg31
F0.07175874710083008
sg32
I10
sg33
I10
sasS'total_cqs'
p42
I33
ssI4
(dp43
S'iters'
p44
I0
sS'meta'
p45
(lp46
sS'total_cqs'
p47
I1
ssI5
(dp48
S'iters'
p49
I0
sS'meta'
p50
(lp51
sS'total_cqs'
p52
I1
ssI6
(dp53
S'iters'
p54
I2
sS'meta'
p55
(lp56
(dp57
S'objective'
p58
I1
sS'query_time'
p59
F14.45936393737793
sS'comp_time'
p60
F0.0058650970458984375
sS'exec_cq'
p61
I5
sS'total_cq'
p62
I5
sa(dp63
g58
I3
sg59
F0.0003108978271484375
sg60
F0.0031862258911132812
sg61
I2
sg62
I2
sasS'total_cqs'
p64
I5
ssI7
(dp65
S'iters'
p66
I0
sS'meta'
p67
(lp68
sS'total_cqs'
p69
I1
ssI8
(dp70
S'iters'
p71
I1
sS'meta'
p72
(lp73
(dp74
S'objective'
p75
I9
sS'query_time'
p76
F102.79047298431396
sS'comp_time'
p77
F0.452455997467041
sS'exec_cq'
p78
I6
sS'total_cq'
p79
I6
sasS'total_cqs'
p80
I6
ssI9
(dp81
S'iters'
p82
I2
sS'meta'
p83
(lp84
(dp85
S'objective'
p86
I1
sS'query_time'
p87
F52.136236906051636
sS'comp_time'
p88
F6.896260976791382
sS'exec_cq'
p89
I6
sS'total_cq'
p90
I6
sa(dp91
g86
I1
sg87
F0.028768062591552734
sg88
F0.6907360553741455
sg89
I2
sg90
I2
sasS'total_cqs'
p92
I6
ssI10
(dp93
S'iters'
p94
I0
sS'meta'
p95
(lp96
sS'total_cqs'
p97
I1
ssI11
(dp98
S'iters'
p99
I0
sS'meta'
p100
(lp101
sS'total_cqs'
p102
I1
ssI12
(dp103
S'iters'
p104
I0
sS'meta'
p105
(lp106
sS'total_cqs'
p107
I1
ssI13
(dp108
S'iters'
p109
I1
sS'meta'
p110
(lp111
(dp112
S'objective'
p113
I22
sS'query_time'
p114
F0.02099895477294922
sS'comp_time'
p115
F0.00030803680419921875
sS'exec_cq'
p116
I8
sS'total_cq'
p117
I8
sasS'total_cqs'
p118
I8
ssI14
(dp119
S'iters'
p120
I1
sS'meta'
p121
(lp122
(dp123
S'objective'
p124
I5
sS'query_time'
p125
F1.061830997467041
sS'comp_time'
p126
F0.01030421257019043
sS'exec_cq'
p127
I5
sS'total_cq'
p128
I5
sasS'total_cqs'
p129
I5
ssI16
(dp130
S'iters'
p131
I2
sS'meta'
p132
(lp133
(dp134
S'objective'
p135
I1
sS'query_time'
p136
F2.3122761249542236
sS'comp_time'
p137
F0.0118408203125
sS'exec_cq'
p138
I5
sS'total_cq'
p139
I5
sa(dp140
g135
I2
sg136
F0.001622915267944336
sg137
F0.00858306884765625
sg138
I3
sg139
I3
sasS'total_cqs'
p141
I5
ssI17
(dp142
S'iters'
p143
I0
sS'meta'
p144
(lp145
sS'total_cqs'
p146
I1
ssI18
(dp147
S'iters'
p148
I2
sS'meta'
p149
(lp150
(dp151
S'objective'
p152
I1
sS'query_time'
p153
F0.302854061126709
sS'comp_time'
p154
F0.0004711151123046875
sS'exec_cq'
p155
I5
sS'total_cq'
p156
I5
sa(dp157
g152
I2
sg153
F3.4809112548828125e-05
sg154
F0.0001621246337890625
sg155
I2
sg156
I2
sasS'total_cqs'
p158
I5
ssI19
(dp159
S'iters'
p160
I0
sS'meta'
p161
(lp162
sS'total_cqs'
p163
I1
ssI20
(dp164
S'iters'
p165
I3
sS'meta'
p166
(lp167
(dp168
S'objective'
p169
I38
sS'query_time'
p170
F11.371674060821533
sS'comp_time'
p171
F1.700814962387085
sS'exec_cq'
p172
I12
sS'total_cq'
p173
I12
sa(dp174
g169
I18
sg170
F0.26860785484313965
sg171
F1.4482271671295166
sg172
I10
sg173
I10
sa(dp175
g169
I18
sg170
F0.23656606674194336
sg171
F1.3234162330627441
sg172
I8
sg173
I8
sasS'total_cqs'
p176
I12
ssI21
(dp177
S'iters'
p178
I2
sS'meta'
p179
(lp180
(dp181
S'objective'
p182
I53
sS'query_time'
p183
F124.48154401779175
sS'comp_time'
p184
F1.9746921062469482
sS'exec_cq'
p185
I14
sS'total_cq'
p186
I14
sa(dp187
g182
I2
sg183
F0.004515886306762695
sg184
F0.0334169864654541
sg185
I2
sg186
I2
sasS'total_cqs'
p188
I14
ssI22
(dp189
S'iters'
p190
I1
sS'meta'
p191
(lp192
(dp193
S'objective'
p194
I1
sS'query_time'
p195
F0.0040130615234375
sS'comp_time'
p196
F0.0001900196075439453
sS'exec_cq'
p197
I2
sS'total_cq'
p198
I2
sasS'total_cqs'
p199
I2
ssI23
(dp200
S'iters'
p201
I0
sS'meta'
p202
(lp203
sS'total_cqs'
p204
I1
ssI24
(dp205
S'iters'
p206
I0
sS'meta'
p207
(lp208
sS'total_cqs'
p209
I1
ssI25
(dp210
S'iters'
p211
I2
sS'meta'
p212
(lp213
(dp214
S'objective'
p215
I6
sS'query_time'
p216
F77.88644194602966
sS'comp_time'
p217
F5.767899036407471
sS'exec_cq'
p218
I7
sS'total_cq'
p219
I7
sa(dp220
g215
I3
sg216
F0.03703808784484863
sg217
F0.15503191947937012
sg218
I5
sg219
I5
sasS'total_cqs'
p221
I7
ssI26
(dp222
S'iters'
p223
I4
sS'meta'
p224
(lp225
(dp226
S'objective'
p227
I49
sS'query_time'
p228
F25.677388906478882
sS'comp_time'
p229
F5.027657747268677
sS'exec_cq'
p230
I13
sS'total_cq'
p231
I13
sa(dp232
g227
I40
sg228
F0.7991049289703369
sg229
F5.106076955795288
sg230
I11
sg231
I11
sa(dp233
g227
I33
sg228
F0.7708470821380615
sg229
F4.640904188156128
sg230
I9
sg231
I9
sa(dp234
g227
I22
sg228
F0.9380648136138916
sg229
F5.123526096343994
sg230
I7
sg231
I7
sasS'total_cqs'
p235
I13
ssI27
(dp236
S'iters'
p237
I1
sS'meta'
p238
(lp239
(dp240
S'objective'
p241
I1
sS'query_time'
p242
F0.22254204750061035
sS'comp_time'
p243
F0.007306814193725586
sS'exec_cq'
p244
I2
sS'total_cq'
p245
I2
sasS'total_cqs'
p246
I2
ssI28
(dp247
S'iters'
p248
I6
sS'meta'
p249
(lp250
(dp251
S'objective'
p252
I47
sS'query_time'
p253
F1.7625010013580322
sS'comp_time'
p254
F0.034120798110961914
sS'exec_cq'
p255
I14
sS'total_cq'
p256
I14
sa(dp257
g252
I48
sg253
F0.0026938915252685547
sg254
F0.04762005805969238
sg255
I10
sg256
I10
sa(dp258
g252
I36
sg253
F0.0031549930572509766
sg254
F0.02618575096130371
sg255
I9
sg256
I9
sa(dp259
g252
I23
sg253
F0.0024039745330810547
sg254
F0.024342060089111328
sg255
I8
sg256
I8
sa(dp260
g252
I10
sg253
F0.002167940139770508
sg254
F0.023660898208618164
sg255
I5
sg256
I5
sa(dp261
g252
I1
sg253
F0.0020270347595214844
sg254
F0.0208282470703125
sg255
I3
sg256
I3
sasS'total_cqs'
p262
I14
ssI29
(dp263
S'iters'
p264
I1
sS'meta'
p265
(lp266
(dp267
S'objective'
p268
I1
sS'query_time'
p269
F0.007336139678955078
sS'comp_time'
p270
F0.00014209747314453125
sS'exec_cq'
p271
I2
sS'total_cq'
p272
I2
sasS'total_cqs'
p273
I2
ssI30
(dp274
S'iters'
p275
I1
sS'meta'
p276
(lp277
(dp278
S'objective'
p279
I1
sS'query_time'
p280
F0.3906581401824951
sS'comp_time'
p281
F0.007575035095214844
sS'exec_cq'
p282
I2
sS'total_cq'
p283
I2
sasS'total_cqs'
p284
I2
ssI31
(dp285
S'iters'
p286
I3
sS'meta'
p287
(lp288
(dp289
S'objective'
p290
I1
sS'query_time'
p291
F6.22356915473938
sS'comp_time'
p292
F0.26125597953796387
sS'exec_cq'
p293
I9
sS'total_cq'
p294
I9
sa(dp295
g290
I4
sg291
F0.006783008575439453
sg292
F0.07077908515930176
sg293
I3
sg294
I3
sa(dp296
g290
I3
sg291
F0.002451181411743164
sg292
F0.022796154022216797
sg293
I2
sg294
I2
sasS'total_cqs'
p297
I9
ssI32
(dp298
S'iters'
p299
I2
sS'meta'
p300
(lp301
(dp302
S'objective'
p303
I2
sS'query_time'
p304
F19.98247504234314
sS'comp_time'
p305
F4.551898956298828
sS'exec_cq'
p306
I7
sS'total_cq'
p307
I7
sa(dp308
g303
I1
sg304
F0.13417315483093262
sg305
F1.9685649871826172
sg306
I4
sg307
I4
sasS'total_cqs'
p309
I7
ssI33
(dp310
S'iters'
p311
I1
sS'meta'
p312
(lp313
(dp314
S'objective'
p315
I1
sS'query_time'
p316
F0.07095503807067871
sS'comp_time'
p317
F0.0001709461212158203
sS'exec_cq'
p318
I2
sS'total_cq'
p319
I2
sasS'total_cqs'
p320
I2
ssI34
(dp321
S'iters'
p322
I0
sS'meta'
p323
(lp324
sS'total_cqs'
p325
I1
ssI35
(dp326
S'iters'
p327
I2
sS'meta'
p328
(lp329
(dp330
S'objective'
p331
I1
sS'query_time'
p332
F16.182147979736328
sS'comp_time'
p333
F0.45845699310302734
sS'exec_cq'
p334
I5
sS'total_cq'
p335
I5
sa(dp336
g331
I2
sg332
F0.03656506538391113
sg333
F0.2682921886444092
sg334
I3
sg335
I3
sasS'total_cqs'
p337
I5
ssI37
(dp338
S'iters'
p339
I2
sS'meta'
p340
(lp341
(dp342
S'objective'
p343
I17
sS'query_time'
p344
F2.5770950317382812
sS'comp_time'
p345
F0.1901719570159912
sS'exec_cq'
p346
I10
sS'total_cq'
p347
I10
sa(dp348
g343
I1
sg344
F0.006834983825683594
sg345
F0.05786609649658203
sg346
I3
sg347
I3
sasS'total_cqs'
p349
I10
ssI38
(dp350
S'iters'
p351
I0
sS'meta'
p352
(lp353
sS'total_cqs'
p354
I1
ssI39
(dp355
S'iters'
p356
I0
sS'meta'
p357
(lp358
sS'total_cqs'
p359
I1
ssI40
(dp360
S'iters'
p361
I1
sS'meta'
p362
(lp363
(dp364
S'objective'
p365
I1
sS'query_time'
p366
F17.542196035385132
sS'comp_time'
p367
F4.758728742599487
sS'exec_cq'
p368
I2
sS'total_cq'
p369
I2
sasS'total_cqs'
p370
I2
ssI41
(dp371
S'iters'
p372
I2
sS'meta'
p373
(lp374
(dp375
S'objective'
p376
I1
sS'query_time'
p377
F12.14881682395935
sS'comp_time'
p378
F2.2658979892730713
sS'exec_cq'
p379
I6
sS'total_cq'
p380
I6
sa(dp381
g376
I2
sg377
F0.0019428730010986328
sg378
F0.012239217758178711
sg379
I3
sg380
I3
sasS'total_cqs'
p382
I6
ssI42
(dp383
S'iters'
p384
I1
sS'meta'
p385
(lp386
(dp387
S'objective'
p388
I1
sS'query_time'
p389
F17.20332384109497
sS'comp_time'
p390
F4.045253038406372
sS'exec_cq'
p391
I2
sS'total_cq'
p392
I2
sasS'total_cqs'
p393
I2
ssI43
(dp394
S'iters'
p395
I0
sS'meta'
p396
(lp397
sS'total_cqs'
p398
I1
ssI44
(dp399
S'iters'
p400
I2
sS'meta'
p401
(lp402
(dp403
S'objective'
p404
I1
sS'query_time'
p405
F1.6122000217437744
sS'comp_time'
p406
F0.16872501373291016
sS'exec_cq'
p407
I5
sS'total_cq'
p408
I5
sa(dp409
g404
I2
sg405
F0.09045910835266113
sg406
F0.12990403175354004
sg407
I3
sg408
I3
sasS'total_cqs'
p410
I5
ssI45
(dp411
S'iters'
p412
I2
sS'meta'
p413
(lp414
(dp415
S'objective'
p416
I3
sS'query_time'
p417
F0.055171966552734375
sS'comp_time'
p418
F0.0013589859008789062
sS'exec_cq'
p419
I5
sS'total_cq'
p420
I5
sa(dp421
g416
I1
sg417
F0.00015807151794433594
sg418
F0.0008490085601806641
sg419
I2
sg420
I2
sasS'total_cqs'
p422
I5
ssI46
(dp423
S'iters'
p424
I0
sS'meta'
p425
(lp426
sS'total_cqs'
p427
I1
ssI47
(dp428
S'iters'
p429
I0
sS'meta'
p430
(lp431
sS'total_cqs'
p432
I1
ssI48
(dp433
S'iters'
p434
I1
sS'meta'
p435
(lp436
(dp437
S'objective'
p438
I1
sS'query_time'
p439
F0.1776750087738037
sS'comp_time'
p440
F0.008577108383178711
sS'exec_cq'
p441
I2
sS'total_cq'
p442
I2
sasS'total_cqs'
p443
I2
ssI49
(dp444
S'iters'
p445
I2
sS'meta'
p446
(lp447
(dp448
S'objective'
p449
I1
sS'query_time'
p450
F0.2689018249511719
sS'comp_time'
p451
F0.0049402713775634766
sS'exec_cq'
p452
I5
sS'total_cq'
p453
I5
sa(dp454
g449
I2
sg450
F0.0003209114074707031
sg451
F0.002874135971069336
sg452
I3
sg453
I3
sasS'total_cqs'
p455
I5
ssI50
(dp456
S'iters'
p457
I1
sS'meta'
p458
(lp459
(dp460
S'objective'
p461
I5
sS'query_time'
p462
F0.987217903137207
sS'comp_time'
p463
F0.002154827117919922
sS'exec_cq'
p464
I5
sS'total_cq'
p465
I5
sasS'total_cqs'
p466
I5
ssI51
(dp467
S'iters'
p468
I0
sS'meta'
p469
(lp470
sS'total_cqs'
p471
I1
ssI52
(dp472
S'iters'
p473
I0
sS'meta'
p474
(lp475
sS'total_cqs'
p476
I1
ssI53
(dp477
S'iters'
p478
I0
sS'meta'
p479
(lp480
sS'total_cqs'
p481
I1
ssI55
(dp482
S'iters'
p483
I1
sS'meta'
p484
(lp485
(dp486
S'objective'
p487
I1
sS'query_time'
p488
F26.32125496864319
sS'comp_time'
p489
F0.08501911163330078
sS'exec_cq'
p490
I2
sS'total_cq'
p491
I2
sasS'total_cqs'
p492
I2
ssI56
(dp493
S'iters'
p494
I0
sS'meta'
p495
(lp496
sS'total_cqs'
p497
I1
ssI57
(dp498
S'iters'
p499
I1
sS'meta'
p500
(lp501
(dp502
S'objective'
p503
I2
sS'query_time'
p504
F14.475669860839844
sS'comp_time'
p505
F2.7937209606170654
sS'exec_cq'
p506
I3
sS'total_cq'
p507
I3
sasS'total_cqs'
p508
I3
ssI108
(dp509
S'iters'
p510
I0
sS'meta'
p511
(lp512
sS'total_cqs'
p513
I1
ssI109
(dp514
S'iters'
p515
I0
sS'meta'
p516
(lp517
sS'total_cqs'
p518
I1
ssI116
(dp519
S'iters'
p520
I2
sS'meta'
p521
(lp522
(dp523
S'objective'
p524
I161
sS'query_time'
p525
F5.649250030517578
sS'comp_time'
p526
F0.44301891326904297
sS'exec_cq'
p527
I21
sS'total_cq'
p528
I21
sa(dp529
g524
I1
sg525
F0.0014629364013671875
sg526
F0.007426023483276367
sg527
I3
sg528
I3
sasS'total_cqs'
p530
I21
ssI117
(dp531
S'iters'
p532
I1
sS'meta'
p533
(lp534
(dp535
S'objective'
p536
I5
sS'query_time'
p537
F0.0077478885650634766
sS'comp_time'
p538
F0.00013303756713867188
sS'exec_cq'
p539
I5
sS'total_cq'
p540
I5
sasS'total_cqs'
p541
I5
ssI118
(dp542
S'iters'
p543
I0
sS'meta'
p544
(lp545
sS'total_cqs'
p546
I1
ssI122
(dp547
S'iters'
p548
I0
sS'meta'
p549
(lp550
sS'total_cqs'
p551
I1
ss.