(dp0
I1
(dp1
S'iters'
p2
I2
sS'meta'
p3
(lp4
(dp5
S'objective'
p6
I2
sS'query_time'
p7
F47.01157593727112
sS'comp_time'
p8
F1.4723119735717773
sS'exec_cq'
p9
I5
sS'total_cq'
p10
I6
sa(dp11
g6
I2
sg7
F0.29036378860473633
sg8
F0.7588927745819092
sg9
I3
sg10
I4
sasS'total_cqs'
p12
I6
ssI2
(dp13
S'iters'
p14
I1
sS'meta'
p15
(lp16
(dp17
S'objective'
p18
I4
sS'query_time'
p19
F1.053955078125
sS'comp_time'
p20
F0.1382429599761963
sS'exec_cq'
p21
I6
sS'total_cq'
p22
I6
sasS'total_cqs'
p23
I6
ssI3
(dp24
S'iters'
p25
I15
sS'meta'
p26
(lp27
(dp28
S'objective'
p29
I27
sS'query_time'
p30
F25.99585223197937
sS'comp_time'
p31
F0.39386796951293945
sS'exec_cq'
p32
I33
sS'total_cq'
p33
I33
sa(dp34
g29
I24
sg30
F0.02688288688659668
sg31
F0.23859524726867676
sg32
I30
sg33
I30
sa(dp35
g29
I21
sg30
F0.09541988372802734
sg31
F0.05550527572631836
sg32
I27
sg33
I27
sa(dp36
g29
I18
sg30
F0.019341230392456055
sg31
F0.11119222640991211
sg32
I24
sg33
I24
sa(dp37
g29
I15
sg30
F0.023331165313720703
sg31
F0.19465088844299316
sg32
I21
sg33
I21
sa(dp38
g29
I12
sg30
F0.00711369514465332
sg31
F0.01441502571105957
sg32
I18
sg33
I18
sa(dp39
g29
I9
sg30
F0.007225751876831055
sg31
F0.013332366943359375
sg32
I15
sg33
I15
sa(dp40
g29
I8
sg30
F0.0657188892364502
sg31
F0.01311802864074707
sg32
I12
sg33
I12
sa(dp41
g29
I8
sg30
F0.0052640438079833984
sg31
F0.01291203498840332
sg32
I10
sg33
I10
sa(dp42
g29
I7
sg30
F0.0049588680267333984
sg31
F0.012455224990844727
sg32
I9
sg33
I9
sa(dp43
g29
I6
sg30
F0.005202054977416992
sg31
F0.07435297966003418
sg32
I8
sg33
I8
sa(dp44
g29
I5
sg30
F0.0033431053161621094
sg31
F0.005851030349731445
sg32
I7
sg33
I7
sa(dp45
g29
I4
sg30
F0.0027222633361816406
sg31
F0.006669044494628906
sg32
I6
sg33
I6
sa(dp46
g29
I3
sg30
F0.002910137176513672
sg31
F0.004896640777587891
sg32
I5
sg33
I5
sa(dp47
g29
I2
sg30
F0.0022182464599609375
sg31
F0.005130767822265625
sg32
I4
sg33
I4
sasS'total_cqs'
p48
I33
ssI6
(dp49
S'iters'
p50
I2
sS'meta'
p51
(lp52
(dp53
S'objective'
p54
I1
sS'query_time'
p55
F14.366029024124146
sS'comp_time'
p56
F0.008022069931030273
sS'exec_cq'
p57
I4
sS'total_cq'
p58
I5
sa(dp59
g54
I0
sg55
F0.0002999305725097656
sg56
F0.0004360675811767578
sg57
I2
sg58
I2
sasS'total_cqs'
p60
I5
ssI8
(dp61
S'iters'
p62
I3
sS'meta'
p63
(lp64
(dp65
S'objective'
p66
I4
sS'query_time'
p67
F43.0845730304718
sS'comp_time'
p68
F0.09434175491333008
sS'exec_cq'
p69
I6
sS'total_cq'
p70
I6
sa(dp71
g66
I3
sg67
F41.66249203681946
sg68
F0.0001690387725830078
sg69
I5
sg70
I5
sa(dp72
g66
I2
sg67
F0.08259391784667969
sg68
F0.00015211105346679688
sg69
I4
sg70
I4
sasS'total_cqs'
p73
I6
ssI9
(dp74
S'iters'
p75
I3
sS'meta'
p76
(lp77
(dp78
S'objective'
p79
I0
sS'query_time'
p80
F10.862236976623535
sS'comp_time'
p81
F0.04764890670776367
sS'exec_cq'
p82
I3
sS'total_cq'
p83
I6
sa(dp84
g79
I1
sg80
F0.042424917221069336
sg81
F0.15775299072265625
sg82
I3
sg83
I3
sa(dp85
g79
I0
sg80
F0.008508920669555664
sg81
F0.013455867767333984
sg82
I2
sg83
I2
sasS'total_cqs'
p86
I6
ssI13
(dp87
S'iters'
p88
I1
sS'meta'
p89
(lp90
(dp91
S'objective'
p92
I6
sS'query_time'
p93
F0.018592119216918945
sS'comp_time'
p94
F0.007692098617553711
sS'exec_cq'
p95
I7
sS'total_cq'
p96
I8
sasS'total_cqs'
p97
I8
ssI14
(dp98
S'iters'
p99
I1
sS'meta'
p100
(lp101
(dp102
S'objective'
p103
I3
sS'query_time'
p104
F1.0923070907592773
sS'comp_time'
p105
F0.0039010047912597656
sS'exec_cq'
p106
I5
sS'total_cq'
p107
I5
sasS'total_cqs'
p108
I5
ssI16
(dp109
S'iters'
p110
I3
sS'meta'
p111
(lp112
(dp113
S'objective'
p114
I1
sS'query_time'
p115
F2.1418209075927734
sS'comp_time'
p116
F0.005441904067993164
sS'exec_cq'
p117
I4
sS'total_cq'
p118
I5
sa(dp119
g114
I1
sg115
F0.05186200141906738
sg116
F7.700920104980469e-05
sg117
I1
sg118
I3
sa(dp120
g114
I0
sg115
F5.316734313964844e-05
sg116
F9.298324584960938e-05
sg117
I2
sg118
I2
sasS'total_cqs'
p121
I5
ssI18
(dp122
S'iters'
p123
I3
sS'meta'
p124
(lp125
(dp126
S'objective'
p127
I1
sS'query_time'
p128
F0.3006279468536377
sS'comp_time'
p129
F0.0039212703704833984
sS'exec_cq'
p130
I4
sS'total_cq'
p131
I5
sa(dp132
g127
I1
sg128
F0.04896903038024902
sg129
F8.821487426757812e-05
sg130
I1
sg131
I3
sa(dp133
g127
I0
sg128
F4.696846008300781e-05
sg129
F0.00011420249938964844
sg130
I2
sg131
I2
sasS'total_cqs'
p134
I5
ssI20
(dp135
S'iters'
p136
I5
sS'meta'
p137
(lp138
(dp139
S'objective'
p140
I8
sS'query_time'
p141
F10.999747037887573
sS'comp_time'
p142
F0.6647570133209229
sS'exec_cq'
p143
I10
sS'total_cq'
p144
I12
sa(dp145
g140
I6
sg141
F0.23368597030639648
sg142
F0.49354982376098633
sg143
I8
sg144
I10
sa(dp146
g140
I4
sg141
F0.1445598602294922
sg142
F0.38595080375671387
sg143
I6
sg144
I8
sa(dp147
g140
I4
sg141
F0.1365070343017578
sg142
F0.33278393745422363
sg143
I5
sg144
I6
sa(dp148
g140
I3
sg141
F0.15795230865478516
sg142
F0.3453199863433838
sg143
I4
sg144
I5
sasS'total_cqs'
p149
I12
ssI21
(dp150
S'iters'
p151
I3
sS'meta'
p152
(lp153
(dp154
S'objective'
p155
I8
sS'query_time'
p156
F60.441604137420654
sS'comp_time'
p157
F0.7451200485229492
sS'exec_cq'
p158
I12
sS'total_cq'
p159
I14
sa(dp160
g155
I7
sg156
F0.09085798263549805
sg157
F0.05484580993652344
sg158
I8
sg159
I11
sa(dp161
g155
I7
sg156
F0.027227163314819336
sg157
F0.02184128761291504
sg158
I7
sg159
I9
sasS'total_cqs'
p162
I14
ssI22
(dp163
S'iters'
p164
I1
sS'meta'
p165
(lp166
(dp167
S'objective'
p168
I0
sS'query_time'
p169
F0.0039038658142089844
sS'comp_time'
p170
F0.0006837844848632812
sS'exec_cq'
p171
I1
sS'total_cq'
p172
I2
sasS'total_cqs'
p173
I2
ssI25
(dp174
S'iters'
p175
I3
sS'meta'
p176
(lp177
(dp178
S'objective'
p179
I3
sS'query_time'
p180
F50.29118514060974
sS'comp_time'
p181
F2.9075679779052734
sS'exec_cq'
p182
I6
sS'total_cq'
p183
I7
sa(dp184
g179
I1
sg180
F0.7128441333770752
sg181
F2.8643620014190674
sg182
I4
sg183
I5
sa(dp185
g179
I1
sg180
F0.3364400863647461
sg181
F0.0006210803985595703
sg182
I3
sg183
I3
sasS'total_cqs'
p186
I7
ssI26
(dp187
S'iters'
p188
I8
sS'meta'
p189
(lp190
(dp191
S'objective'
p192
I9
sS'query_time'
p193
F20.95737385749817
sS'comp_time'
p194
F2.4995779991149902
sS'exec_cq'
p195
I9
sS'total_cq'
p196
I13
sa(dp197
g192
I7
sg193
F4.567101955413818
sg194
F2.8053903579711914
sg195
I9
sg196
I11
sa(dp198
g192
I5
sg193
F0.8378241062164307
sg194
F2.144105911254883
sg195
I7
sg196
I9
sa(dp199
g192
I5
sg193
F0.7521600723266602
sg194
F2.5617716312408447
sg195
I6
sg196
I7
sa(dp200
g192
I4
sg193
F0.827599048614502
sg194
F2.36445689201355
sg195
I5
sg196
I6
sa(dp201
g192
I3
sg193
F0.742786169052124
sg194
F2.088073968887329
sg195
I4
sg196
I5
sa(dp202
g192
I2
sg193
F0.6984288692474365
sg194
F2.020827531814575
sg195
I3
sg196
I4
sa(dp203
g192
I1
sg193
F0.8126499652862549
sg194
F2.2108240127563477
sg195
I3
sg196
I3
sasS'total_cqs'
p204
I13
ssI27
(dp205
S'iters'
p206
I1
sS'meta'
p207
(lp208
(dp209
S'objective'
p210
I0
sS'query_time'
p211
F0.22483515739440918
sS'comp_time'
p212
F0.002067089080810547
sS'exec_cq'
p213
I1
sS'total_cq'
p214
I2
sasS'total_cqs'
p215
I2
ssI28
(dp216
S'iters'
p217
I3
sS'meta'
p218
(lp219
(dp220
S'objective'
p221
I8
sS'query_time'
p222
F1.5706350803375244
sS'comp_time'
p223
F0.07683777809143066
sS'exec_cq'
p224
I6
sS'total_cq'
p225
I14
sa(dp226
g221
I7
sg222
F0.010305643081665039
sg223
F0.00799107551574707
sg224
I5
sg225
I11
sa(dp227
g221
I7
sg222
F0.002758026123046875
sg223
F0.0001163482666015625
sg224
I3
sg225
I9
sasS'total_cqs'
p228
I14
ssI29
(dp229
S'iters'
p230
I1
sS'meta'
p231
(lp232
(dp233
S'objective'
p234
I0
sS'query_time'
p235
F0.007539987564086914
sS'comp_time'
p236
F0.0014221668243408203
sS'exec_cq'
p237
I2
sS'total_cq'
p238
I2
sasS'total_cqs'
p239
I2
ssI30
(dp240
S'iters'
p241
I1
sS'meta'
p242
(lp243
(dp244
S'objective'
p245
I0
sS'query_time'
p246
F0.4432199001312256
sS'comp_time'
p247
F0.0023126602172851562
sS'exec_cq'
p248
I2
sS'total_cq'
p249
I2
sasS'total_cqs'
p250
I2
ssI31
(dp251
S'iters'
p252
I3
sS'meta'
p253
(lp254
(dp255
S'objective'
p256
I3
sS'query_time'
p257
F5.339092969894409
sS'comp_time'
p258
F0.07228994369506836
sS'exec_cq'
p259
I9
sS'total_cq'
p260
I9
sa(dp261
g256
I1
sg257
F0.007216930389404297
sg258
F0.009068965911865234
sg259
I3
sg260
I3
sa(dp262
g256
I0
sg257
F0.0063629150390625
sg258
F0.009553909301757812
sg259
I2
sg260
I2
sasS'total_cqs'
p263
I9
ssI32
(dp264
S'iters'
p265
I3
sS'meta'
p266
(lp267
(dp268
S'objective'
p269
I1
sS'query_time'
p270
F17.80351495742798
sS'comp_time'
p271
F1.872135877609253
sS'exec_cq'
p272
I4
sS'total_cq'
p273
I7
sa(dp274
g269
I0
sg270
F1.1539738178253174
sg271
F0.003353118896484375
sg272
I2
sg273
I4
sa(dp275
g269
I0
sg270
F0.426616907119751
sg271
F0.4307849407196045
sg272
I1
sg273
I2
sasS'total_cqs'
p276
I7
ssI33
(dp277
S'iters'
p278
I1
sS'meta'
p279
(lp280
(dp281
S'objective'
p282
I0
sS'query_time'
p283
F0.02507615089416504
sS'comp_time'
p284
F0.0017750263214111328
sS'exec_cq'
p285
I2
sS'total_cq'
p286
I2
sasS'total_cqs'
p287
I2
ssI35
(dp288
S'iters'
p289
I2
sS'meta'
p290
(lp291
(dp292
S'objective'
p293
I1
sS'query_time'
p294
F15.895843029022217
sS'comp_time'
p295
F0.10386896133422852
sS'exec_cq'
p296
I4
sS'total_cq'
p297
I5
sa(dp298
g293
I0
sg294
F0.014501810073852539
sg295
F0.1422712802886963
sg296
I2
sg297
I2
sasS'total_cqs'
p299
I5
ssI37
(dp300
S'iters'
p301
I2
sS'meta'
p302
(lp303
(dp304
S'objective'
p305
I6
sS'query_time'
p306
F1.7565810680389404
sS'comp_time'
p307
F0.04550290107727051
sS'exec_cq'
p308
I8
sS'total_cq'
p309
I10
sa(dp310
g305
I0
sg306
F0.0044820308685302734
sg307
F0.16272258758544922
sg308
I2
sg309
I2
sasS'total_cqs'
p311
I10
ssI40
(dp312
S'iters'
p313
I1
sS'meta'
p314
(lp315
(dp316
S'objective'
p317
I0
sS'query_time'
p318
F0.009833812713623047
sS'comp_time'
p319
F0.0011615753173828125
sS'exec_cq'
p320
I1
sS'total_cq'
p321
I2
sasS'total_cqs'
p322
I2
ssI41
(dp323
S'iters'
p324
I2
sS'meta'
p325
(lp326
(dp327
S'objective'
p328
I2
sS'query_time'
p329
F11.910331010818481
sS'comp_time'
p330
F0.664208173751831
sS'exec_cq'
p331
I5
sS'total_cq'
p332
I6
sa(dp333
g328
I0
sg329
F0.0008199214935302734
sg330
F0.0010113716125488281
sg331
I2
sg332
I2
sasS'total_cqs'
p334
I6
ssI42
(dp335
S'iters'
p336
I1
sS'meta'
p337
(lp338
(dp339
S'objective'
p340
I0
sS'query_time'
p341
F0.01082301139831543
sS'comp_time'
p342
F0.0012860298156738281
sS'exec_cq'
p343
I1
sS'total_cq'
p344
I2
sasS'total_cqs'
p345
I2
ssI44
(dp346
S'iters'
p347
I2
sS'meta'
p348
(lp349
(dp350
S'objective'
p351
I1
sS'query_time'
p352
F1.6226439476013184
sS'comp_time'
p353
F0.034610748291015625
sS'exec_cq'
p354
I4
sS'total_cq'
p355
I5
sa(dp356
g351
I1
sg352
F0.08481407165527344
sg353
F0.026072978973388672
sg354
I3
sg355
I3
sasS'total_cqs'
p357
I5
ssI45
(dp358
S'iters'
p359
I2
sS'meta'
p360
(lp361
(dp362
S'objective'
p363
I1
sS'query_time'
p364
F0.04290294647216797
sS'comp_time'
p365
F0.0027501583099365234
sS'exec_cq'
p366
I3
sS'total_cq'
p367
I5
sa(dp368
g363
I0
sg364
F0.00019598007202148438
sg365
F0.0002410411834716797
sg366
I2
sg367
I2
sasS'total_cqs'
p369
I5
ssI48
(dp370
S'iters'
p371
I1
sS'meta'
p372
(lp373
(dp374
S'objective'
p375
I0
sS'query_time'
p376
F0.25574302673339844
sS'comp_time'
p377
F0.002151966094970703
sS'exec_cq'
p378
I2
sS'total_cq'
p379
I2
sasS'total_cqs'
p380
I2
ssI49
(dp381
S'iters'
p382
I3
sS'meta'
p383
(lp384
(dp385
S'objective'
p386
I1
sS'query_time'
p387
F0.2774970531463623
sS'comp_time'
p388
F0.004108905792236328
sS'exec_cq'
p389
I4
sS'total_cq'
p390
I5
sa(dp391
g386
I1
sg387
F0.04593324661254883
sg388
F0.00030803680419921875
sg389
I3
sg390
I3
sa(dp392
g386
I0
sg387
F3.600120544433594e-05
sg388
F8.392333984375e-05
sg389
I2
sg390
I2
sasS'total_cqs'
p393
I5
ssI50
(dp394
S'iters'
p395
I1
sS'meta'
p396
(lp397
(dp398
S'objective'
p399
I3
sS'query_time'
p400
F0.8470630645751953
sS'comp_time'
p401
F0.053735971450805664
sS'exec_cq'
p402
I5
sS'total_cq'
p403
I5
sasS'total_cqs'
p404
I5
ssI55
(dp405
S'iters'
p406
I1
sS'meta'
p407
(lp408
(dp409
S'objective'
p410
I0
sS'query_time'
p411
F24.975962162017822
sS'comp_time'
p412
F0.01794576644897461
sS'exec_cq'
p413
I2
sS'total_cq'
p414
I2
sasS'total_cqs'
p415
I2
ssI57
(dp416
S'iters'
p417
I2
sS'meta'
p418
(lp419
(dp420
S'objective'
p421
I1
sS'query_time'
p422
F12.82107925415039
sS'comp_time'
p423
F1.2390673160552979
sS'exec_cq'
p424
I3
sS'total_cq'
p425
I3
sa(dp426
g421
I0
sg422
F0.25861597061157227
sg423
F0.3925797939300537
sg424
I1
sg425
I2
sasS'total_cqs'
p427
I3
ssI116
(dp428
S'iters'
p429
I2
sS'meta'
p430
(lp431
(dp432
S'objective'
p433
I17
sS'query_time'
p434
F4.636415004730225
sS'comp_time'
p435
F0.17630982398986816
sS'exec_cq'
p436
I17
sS'total_cq'
p437
I21
sa(dp438
g433
I0
sg434
F0.0009350776672363281
sg435
F0.0009188652038574219
sg436
I2
sg437
I2
sasS'total_cqs'
p439
I21
ssI117
(dp440
S'iters'
p441
I1
sS'meta'
p442
(lp443
(dp444
S'objective'
p445
I3
sS'query_time'
p446
F0.013875961303710938
sS'comp_time'
p447
F0.0016951560974121094
sS'exec_cq'
p448
I5
sS'total_cq'
p449
I5
sasS'total_cqs'
p450
I5
ss.