(dp0
I1
(dp1
S'iters'
p2
I3
sS'meta'
p3
(lp4
(dp5
S'objective'
p6
I9
sS'query_time'
p7
F16.197253942489624
sS'comp_time'
p8
F0.00021076202392578125
sS'exec_cq'
p9
I1
sS'total_cq'
p10
I6
sa(dp11
g6
I5
sg7
F0.006181955337524414
sg8
F5.888938903808594e-05
sg9
I1
sg10
I5
sa(dp12
g6
I4
sg7
F25.50488305091858
sg8
F0.0006058216094970703
sg9
I2
sg10
I4
sasS'total_cqs'
p13
I6
ssI2
(dp14
S'iters'
p15
I1
sS'meta'
p16
(lp17
(dp18
S'objective'
p19
I15
sS'query_time'
p20
F0.8544528484344482
sS'comp_time'
p21
F7.700920104980469e-05
sS'exec_cq'
p22
I4
sS'total_cq'
p23
I6
sasS'total_cqs'
p24
I6
ssI3
(dp25
S'iters'
p26
I16
sS'meta'
p27
(lp28
(dp29
S'objective'
p30
I495
sS'query_time'
p31
F0.23456406593322754
sS'comp_time'
p32
F0.00011610984802246094
sS'exec_cq'
p33
I1
sS'total_cq'
p34
I33
sa(dp35
g30
I464
sg31
F0.004008054733276367
sg32
F7.581710815429688e-05
sg33
I1
sg34
I32
sa(dp36
g30
I346
sg31
F1.267509937286377
sg32
F0.00011301040649414062
sg33
I1
sg34
I31
sa(dp37
g30
I339
sg31
F0.014934062957763672
sg32
F8.106231689453125e-05
sg33
I1
sg34
I28
sa(dp38
g30
I282
sg31
F0.02278280258178711
sg32
F8.821487426757812e-05
sg33
I1
sg34
I26
sa(dp39
g30
I231
sg31
F0.10508394241333008
sg32
F0.00012803077697753906
sg33
I2
sg34
I24
sa(dp40
g30
I195
sg31
F0.04513287544250488
sg32
F0.0001068115234375
sg33
I2
sg34
I22
sa(dp41
g30
I192
sg31
F0.04315590858459473
sg32
F8.106231689453125e-05
sg33
I2
sg34
I19
sa(dp42
g30
I171
sg31
F0.126176118850708
sg32
F7.891654968261719e-05
sg33
I2
sg34
I18
sa(dp43
g30
I153
sg31
F6.2289879322052
sg32
F0.00015091896057128906
sg33
I2
sg34
I17
sa(dp44
g30
I133
sg31
F0.07353401184082031
sg32
F8.106231689453125e-05
sg33
I2
sg34
I16
sa(dp45
g30
I117
sg31
F0.004637002944946289
sg32
F4.673004150390625e-05
sg33
I2
sg34
I14
sa(dp46
g30
I101
sg31
F0.006501197814941406
sg32
F6.079673767089844e-05
sg33
I2
sg34
I13
sa(dp47
g30
I92
sg31
F0.03976702690124512
sg32
F8.296966552734375e-05
sg33
I3
sg34
I12
sa(dp48
g30
I81
sg31
F0.0015001296997070312
sg32
F5.507469177246094e-05
sg33
I3
sg34
I11
sa(dp49
g30
I73
sg31
F0.2053830623626709
sg32
F0.00036787986755371094
sg33
I3
sg34
I10
sasS'total_cqs'
p50
I33
ssI4
(dp51
S'iters'
p52
I0
sS'meta'
p53
(lp54
sS'total_cqs'
p55
I1
ssI5
(dp56
S'iters'
p57
I0
sS'meta'
p58
(lp59
sS'total_cqs'
p60
I1
ssI6
(dp61
S'iters'
p62
I4
sS'meta'
p63
(lp64
(dp65
S'objective'
p66
I5
sS'query_time'
p67
F8.421597003936768
sS'comp_time'
p68
F7.534027099609375e-05
sS'exec_cq'
p69
I1
sS'total_cq'
p70
I5
sa(dp71
g66
I2
sg67
F0.13686418533325195
sg68
F7.891654968261719e-05
sg69
I1
sg70
I4
sa(dp72
g66
I4
sg67
F0.4036738872528076
sg68
F9.226799011230469e-05
sg69
I1
sg70
I3
sa(dp73
g66
I1
sg67
F68.84872603416443
sg68
F0.00013399124145507812
sg69
I1
sg70
I2
sasS'total_cqs'
p74
I5
ssI7
(dp75
S'iters'
p76
I0
sS'meta'
p77
(lp78
sS'total_cqs'
p79
I1
ssI8
(dp80
S'iters'
p81
I4
sS'meta'
p82
(lp83
(dp84
S'objective'
p85
I13
sS'query_time'
p86
F22.289154052734375
sS'comp_time'
p87
F0.0003688335418701172
sS'exec_cq'
p88
I2
sS'total_cq'
p89
I6
sa(dp90
g85
I1
sg86
F0.2704639434814453
sg87
F8.988380432128906e-05
sg88
I1
sg89
I5
sa(dp91
g85
I1
sg86
F2.321397066116333
sg87
F0.00010013580322265625
sg88
I2
sg89
I3
sa(dp92
g85
I2
sg86
F0.0016560554504394531
sg87
F4.982948303222656e-05
sg88
I1
sg89
I2
sasS'total_cqs'
p93
I6
ssI9
(dp94
S'iters'
p95
I3
sS'meta'
p96
(lp97
(dp98
S'objective'
p99
I7
sS'query_time'
p100
F22.726996898651123
sS'comp_time'
p101
F8.893013000488281e-05
sS'exec_cq'
p102
I1
sS'total_cq'
p103
I6
sa(dp104
g99
I2
sg100
F9.602761030197144
sg101
F7.104873657226562e-05
sg102
I1
sg103
I4
sa(dp105
g99
I2
sg100
F0.15224099159240723
sg101
F0.00013780593872070312
sg102
I1
sg103
I2
sasS'total_cqs'
p106
I6
ssI10
(dp107
S'iters'
p108
I0
sS'meta'
p109
(lp110
sS'total_cqs'
p111
I1
ssI11
(dp112
S'iters'
p113
I0
sS'meta'
p114
(lp115
sS'total_cqs'
p116
I1
ssI12
(dp117
S'iters'
p118
I0
sS'meta'
p119
(lp120
sS'total_cqs'
p121
I1
ssI13
(dp122
S'iters'
p123
I1
sS'meta'
p124
(lp125
(dp126
S'objective'
p127
I30
sS'query_time'
p128
F0.1372520923614502
sS'comp_time'
p129
F0.00014209747314453125
sS'exec_cq'
p130
I6
sS'total_cq'
p131
I8
sasS'total_cqs'
p132
I8
ssI14
(dp133
S'iters'
p134
I2
sS'meta'
p135
(lp136
(dp137
S'objective'
p138
I7
sS'query_time'
p139
F0.2653160095214844
sS'comp_time'
p140
F8.320808410644531e-05
sS'exec_cq'
p141
I2
sS'total_cq'
p142
I5
sa(dp143
g138
I5
sg139
F1.1379749774932861
sg140
F8.702278137207031e-05
sg141
I2
sg142
I4
sasS'total_cqs'
p144
I5
ssI16
(dp145
S'iters'
p146
I3
sS'meta'
p147
(lp148
(dp149
S'objective'
p150
I5
sS'query_time'
p151
F1.664175033569336
sS'comp_time'
p152
F7.104873657226562e-05
sS'exec_cq'
p153
I1
sS'total_cq'
p154
I5
sa(dp155
g150
I2
sg151
F0.06296300888061523
sg152
F6.222724914550781e-05
sg153
I1
sg154
I4
sa(dp156
g150
I0
sg151
F0.05548906326293945
sg152
F6.580352783203125e-05
sg153
I1
sg154
I3
sasS'total_cqs'
p157
I5
ssI17
(dp158
S'iters'
p159
I0
sS'meta'
p160
(lp161
sS'total_cqs'
p162
I1
ssI18
(dp163
S'iters'
p164
I3
sS'meta'
p165
(lp166
(dp167
S'objective'
p168
I3
sS'query_time'
p169
F4.05641508102417
sS'comp_time'
p170
F0.00015997886657714844
sS'exec_cq'
p171
I1
sS'total_cq'
p172
I5
sa(dp173
g168
I4
sg169
F0.2598459720611572
sg170
F0.0001499652862548828
sg171
I1
sg172
I3
sa(dp174
g168
I1
sg169
F0.3059501647949219
sg170
F0.00013709068298339844
sg171
I2
sg172
I2
sasS'total_cqs'
p175
I5
ssI19
(dp176
S'iters'
p177
I0
sS'meta'
p178
(lp179
sS'total_cqs'
p180
I1
ssI20
(dp181
S'iters'
p182
I6
sS'meta'
p183
(lp184
(dp185
S'objective'
p186
I34
sS'query_time'
p187
F0.019813060760498047
sS'comp_time'
p188
F9.894371032714844e-05
sS'exec_cq'
p189
I1
sS'total_cq'
p190
I12
sa(dp191
g186
I38
sg187
F5.639451026916504
sg188
F0.00029206275939941406
sg189
I2
sg190
I10
sa(dp192
g186
I33
sg187
F4.8375208377838135
sg188
F0.00010085105895996094
sg189
I3
sg190
I9
sa(dp193
g186
I28
sg187
F1.0587399005889893
sg188
F8.296966552734375e-05
sg189
I3
sg190
I8
sa(dp194
g186
I24
sg187
F0.0030241012573242188
sg188
F4.8160552978515625e-05
sg189
I3
sg190
I7
sa(dp195
g186
I21
sg187
F0.0941309928894043
sg188
F7.700920104980469e-05
sg189
I3
sg190
I6
sasS'total_cqs'
p196
I12
ssI21
(dp197
S'iters'
p198
I5
sS'meta'
p199
(lp200
(dp201
S'objective'
p202
I13
sS'query_time'
p203
F4.578110933303833
sS'comp_time'
p204
F0.000102996826171875
sS'exec_cq'
p205
I1
sS'total_cq'
p206
I14
sa(dp207
g202
I35
sg203
F0.117279052734375
sg204
F9.012222290039062e-05
sg205
I1
sg206
I10
sa(dp208
g202
I9
sg203
F0.5368261337280273
sg204
F7.414817810058594e-05
sg205
I1
sg206
I8
sa(dp209
g202
I0
sg203
F0.6337039470672607
sg204
F7.796287536621094e-05
sg205
I1
sg206
I6
sa(dp210
g202
I4
sg203
F0.01321101188659668
sg204
F5.698204040527344e-05
sg205
I1
sg206
I4
sasS'total_cqs'
p211
I14
ssI22
(dp212
S'iters'
p213
I1
sS'meta'
p214
(lp215
(dp216
S'objective'
p217
I1
sS'query_time'
p218
F0.004330158233642578
sS'comp_time'
p219
F6.4849853515625e-05
sS'exec_cq'
p220
I1
sS'total_cq'
p221
I2
sasS'total_cqs'
p222
I2
ssI23
(dp223
S'iters'
p224
I0
sS'meta'
p225
(lp226
sS'total_cqs'
p227
I1
ssI24
(dp228
S'iters'
p229
I0
sS'meta'
p230
(lp231
sS'total_cqs'
p232
I1
ssI25
(dp233
S'iters'
p234
I4
sS'meta'
p235
(lp236
(dp237
S'objective'
p238
I10
sS'query_time'
p239
F6.922992944717407
sS'comp_time'
p240
F8.392333984375e-05
sS'exec_cq'
p241
I1
sS'total_cq'
p242
I7
sa(dp243
g238
I5
sg239
F9.811285972595215
sg240
F0.0007979869842529297
sg241
I1
sg242
I5
sa(dp244
g238
I2
sg239
F8.705479860305786
sg240
F0.0003330707550048828
sg241
I1
sg242
I3
sa(dp245
g238
I1
sg239
F25.325037002563477
sg240
F0.00033092498779296875
sg241
I2
sg242
I2
sasS'total_cqs'
p246
I7
ssI26
(dp247
S'iters'
p248
I9
sS'meta'
p249
(lp250
(dp251
S'objective'
p252
I65
sS'query_time'
p253
F20.1256320476532
sS'comp_time'
p254
F0.00013589859008789062
sS'exec_cq'
p255
I1
sS'total_cq'
p256
I13
sa(dp257
g252
I54
sg253
F0.03773784637451172
sg254
F7.128715515136719e-05
sg255
I1
sg256
I12
sa(dp258
g252
I44
sg253
F4.463666200637817
sg254
F0.0001609325408935547
sg255
I1
sg256
I11
sa(dp259
g252
I35
sg253
F0.033859968185424805
sg254
F5.793571472167969e-05
sg255
I1
sg256
I10
sa(dp260
g252
I27
sg253
F0.013424158096313477
sg254
F7.700920104980469e-05
sg255
I1
sg256
I9
sa(dp261
g252
I20
sg253
F0.0687110424041748
sg254
F6.29425048828125e-05
sg255
I1
sg256
I8
sa(dp262
g252
I14
sg253
F0.027421951293945312
sg254
F5.5789947509765625e-05
sg255
I1
sg256
I7
sa(dp263
g252
I9
sg253
F0.053694963455200195
sg254
F4.8160552978515625e-05
sg255
I1
sg256
I6
sa(dp264
g252
I5
sg253
F0.003339052200317383
sg254
F3.814697265625e-05
sg255
I1
sg256
I5
sasS'total_cqs'
p265
I13
ssI27
(dp266
S'iters'
p267
I1
sS'meta'
p268
(lp269
(dp270
S'objective'
p271
I1
sS'query_time'
p272
F0.39951610565185547
sS'comp_time'
p273
F0.00011014938354492188
sS'exec_cq'
p274
I1
sS'total_cq'
p275
I2
sasS'total_cqs'
p276
I2
ssI28
(dp277
S'iters'
p278
I5
sS'meta'
p279
(lp280
(dp281
S'objective'
p282
I41
sS'query_time'
p283
F1.960103988647461
sS'comp_time'
p284
F0.00011706352233886719
sS'exec_cq'
p285
I1
sS'total_cq'
p286
I14
sa(dp287
g282
I9
sg283
F1.2659249305725098
sg284
F0.00011897087097167969
sg285
I1
sg286
I11
sa(dp288
g282
I12
sg283
F0.5170950889587402
sg284
F8.58306884765625e-05
sg285
I1
sg286
I6
sa(dp289
g282
I6
sg283
F0.3816192150115967
sg284
F8.106231689453125e-05
sg285
I1
sg286
I5
sa(dp290
g282
I4
sg283
F0.26030898094177246
sg284
F0.00010013580322265625
sg285
I1
sg286
I4
sasS'total_cqs'
p291
I14
ssI29
(dp292
S'iters'
p293
I1
sS'meta'
p294
(lp295
(dp296
S'objective'
p297
I1
sS'query_time'
p298
F0.005475044250488281
sS'comp_time'
p299
F6.794929504394531e-05
sS'exec_cq'
p300
I1
sS'total_cq'
p301
I2
sasS'total_cqs'
p302
I2
ssI30
(dp303
S'iters'
p304
I1
sS'meta'
p305
(lp306
(dp307
S'objective'
p308
I1
sS'query_time'
p309
F0.4221608638763428
sS'comp_time'
p310
F6.318092346191406e-05
sS'exec_cq'
p311
I1
sS'total_cq'
p312
I2
sasS'total_cqs'
p313
I2
ssI31
(dp314
S'iters'
p315
I6
sS'meta'
p316
(lp317
(dp318
S'objective'
p319
I27
sS'query_time'
p320
F0.01106405258178711
sS'comp_time'
p321
F7.414817810058594e-05
sS'exec_cq'
p322
I1
sS'total_cq'
p323
I9
sa(dp324
g319
I20
sg320
F6.651843070983887
sg321
F8.273124694824219e-05
sg322
I1
sg323
I8
sa(dp325
g319
I8
sg320
F0.2157270908355713
sg321
F9.703636169433594e-05
sg322
I1
sg323
I7
sa(dp326
g319
I6
sg320
F20.62465500831604
sg321
F6.604194641113281e-05
sg322
I1
sg323
I5
sa(dp327
g319
I2
sg320
F0.4803199768066406
sg321
F7.581710815429688e-05
sg322
I1
sg323
I4
sa(dp328
g319
I3
sg320
F0.2413949966430664
sg321
F6.103515625e-05
sg322
I1
sg323
I2
sasS'total_cqs'
p329
I9
ssI32
(dp330
S'iters'
p331
I5
sS'meta'
p332
(lp333
(dp334
S'objective'
p335
I12
sS'query_time'
p336
F1.9153320789337158
sS'comp_time'
p337
F8.0108642578125e-05
sS'exec_cq'
p338
I1
sS'total_cq'
p339
I7
sa(dp340
g335
I8
sg336
F8.356313943862915
sg337
F0.00010919570922851562
sg338
I1
sg339
I5
sa(dp341
g335
I4
sg336
F1.5707828998565674
sg337
F0.00012230873107910156
sg338
I1
sg339
I4
sa(dp342
g335
I1
sg336
F5.95536208152771
sg337
F0.0003037452697753906
sg338
I1
sg339
I3
sa(dp343
g335
I1
sg336
F0.10225510597229004
sg337
F5.412101745605469e-05
sg338
I1
sg339
I2
sasS'total_cqs'
p344
I7
ssI33
(dp345
S'iters'
p346
I1
sS'meta'
p347
(lp348
(dp349
S'objective'
p350
I1
sS'query_time'
p351
F0.032852888107299805
sS'comp_time'
p352
F7.915496826171875e-05
sS'exec_cq'
p353
I1
sS'total_cq'
p354
I2
sasS'total_cqs'
p355
I2
ssI34
(dp356
S'iters'
p357
I0
sS'meta'
p358
(lp359
sS'total_cqs'
p360
I1
ssI35
(dp361
S'iters'
p362
I3
sS'meta'
p363
(lp364
(dp365
S'objective'
p366
I5
sS'query_time'
p367
F11.63825798034668
sS'comp_time'
p368
F0.00010228157043457031
sS'exec_cq'
p369
I1
sS'total_cq'
p370
I5
sa(dp371
g366
I2
sg367
F2.0354409217834473
sg368
F0.00033473968505859375
sg369
I1
sg370
I4
sa(dp372
g366
I0
sg367
F0.13651800155639648
sg368
F8.797645568847656e-05
sg369
I1
sg370
I3
sasS'total_cqs'
p373
I5
ssI37
(dp374
S'iters'
p375
I6
sS'meta'
p376
(lp377
(dp378
S'objective'
p379
I35
sS'query_time'
p380
F0.7110581398010254
sS'comp_time'
p381
F8.416175842285156e-05
sS'exec_cq'
p382
I1
sS'total_cq'
p383
I10
sa(dp384
g379
I29
sg380
F0.007302045822143555
sg381
F6.699562072753906e-05
sg382
I2
sg383
I9
sa(dp385
g379
I23
sg380
F0.005257129669189453
sg381
F6.175041198730469e-05
sg382
I2
sg383
I8
sa(dp386
g379
I18
sg380
F0.7850601673126221
sg381
F8.535385131835938e-05
sg382
I2
sg383
I7
sa(dp387
g379
I14
sg380
F0.3103950023651123
sg381
F7.009506225585938e-05
sg382
I2
sg383
I6
sa(dp388
g379
I11
sg380
F0.2509148120880127
sg381
F7.486343383789062e-05
sg382
I2
sg383
I5
sasS'total_cqs'
p389
I10
ssI38
(dp390
S'iters'
p391
I0
sS'meta'
p392
(lp393
sS'total_cqs'
p394
I1
ssI39
(dp395
S'iters'
p396
I0
sS'meta'
p397
(lp398
sS'total_cqs'
p399
I1
ssI40
(dp400
S'iters'
p401
I1
sS'meta'
p402
(lp403
(dp404
S'objective'
p405
I1
sS'query_time'
p406
F17.182082176208496
sS'comp_time'
p407
F0.018625736236572266
sS'exec_cq'
p408
I2
sS'total_cq'
p409
I2
sasS'total_cqs'
p410
I2
ssI41
(dp411
S'iters'
p412
I5
sS'meta'
p413
(lp414
(dp415
S'objective'
p416
I9
sS'query_time'
p417
F0.3044099807739258
sS'comp_time'
p418
F7.891654968261719e-05
sS'exec_cq'
p419
I1
sS'total_cq'
p420
I6
sa(dp421
g416
I5
sg417
F0.317410945892334
sg418
F7.987022399902344e-05
sg419
I1
sg420
I5
sa(dp422
g416
I2
sg417
F9.523145914077759
sg418
F0.00011515617370605469
sg419
I1
sg420
I4
sa(dp423
g416
I4
sg417
F4.012219190597534
sg418
F7.510185241699219e-05
sg419
I1
sg420
I3
sa(dp424
g416
I1
sg417
F58.59040284156799
sg418
F0.0001838207244873047
sg419
I2
sg420
I2
sasS'total_cqs'
p425
I6
ssI42
(dp426
S'iters'
p427
I1
sS'meta'
p428
(lp429
(dp430
S'objective'
p431
I1
sS'query_time'
p432
F0.01146697998046875
sS'comp_time'
p433
F8.296966552734375e-05
sS'exec_cq'
p434
I1
sS'total_cq'
p435
I2
sasS'total_cqs'
p436
I2
ssI43
(dp437
S'iters'
p438
I0
sS'meta'
p439
(lp440
sS'total_cqs'
p441
I1
ssI44
(dp442
S'iters'
p443
I3
sS'meta'
p444
(lp445
(dp446
S'objective'
p447
I5
sS'query_time'
p448
F0.016618967056274414
sS'comp_time'
p449
F7.915496826171875e-05
sS'exec_cq'
p450
I1
sS'total_cq'
p451
I5
sa(dp452
g447
I2
sg448
F1.4884300231933594
sg449
F0.00011920928955078125
sg450
I1
sg451
I4
sa(dp453
g447
I0
sg448
F0.0038001537322998047
sg449
F4.38690185546875e-05
sg450
I1
sg451
I3
sasS'total_cqs'
p454
I5
ssI45
(dp455
S'iters'
p456
I2
sS'meta'
p457
(lp458
(dp459
S'objective'
p460
I5
sS'query_time'
p461
F0.045722007751464844
sS'comp_time'
p462
F0.00011014938354492188
sS'exec_cq'
p463
I3
sS'total_cq'
p464
I5
sa(dp465
g460
I1
sg461
F0.6899850368499756
sg462
F0.00011420249938964844
sg463
I2
sg464
I2
sasS'total_cqs'
p466
I5
ssI46
(dp467
S'iters'
p468
I0
sS'meta'
p469
(lp470
sS'total_cqs'
p471
I1
ssI47
(dp472
S'iters'
p473
I0
sS'meta'
p474
(lp475
sS'total_cqs'
p476
I1
ssI48
(dp477
S'iters'
p478
I1
sS'meta'
p479
(lp480
(dp481
S'objective'
p482
I1
sS'query_time'
p483
F0.1338520050048828
sS'comp_time'
p484
F0.00010204315185546875
sS'exec_cq'
p485
I1
sS'total_cq'
p486
I2
sasS'total_cqs'
p487
I2
ssI49
(dp488
S'iters'
p489
I3
sS'meta'
p490
(lp491
(dp492
S'objective'
p493
I5
sS'query_time'
p494
F0.13086414337158203
sS'comp_time'
p495
F6.508827209472656e-05
sS'exec_cq'
p496
I1
sS'total_cq'
p497
I5
sa(dp498
g493
I2
sg494
F0.04629111289978027
sg495
F6.914138793945312e-05
sg496
I1
sg497
I4
sa(dp499
g493
I0
sg494
F0.03127789497375488
sg495
F6.866455078125e-05
sg496
I1
sg497
I3
sasS'total_cqs'
p500
I5
ssI50
(dp501
S'iters'
p502
I3
sS'meta'
p503
(lp504
(dp505
S'objective'
p506
I5
sS'query_time'
p507
F0.20810604095458984
sS'comp_time'
p508
F7.796287536621094e-05
sS'exec_cq'
p509
I1
sS'total_cq'
p510
I5
sa(dp511
g506
I2
sg507
F0.005042076110839844
sg508
F4.8160552978515625e-05
sg509
I1
sg510
I4
sa(dp512
g506
I0
sg507
F0.9935359954833984
sg508
F8.797645568847656e-05
sg509
I1
sg510
I3
sasS'total_cqs'
p513
I5
ssI51
(dp514
S'iters'
p515
I0
sS'meta'
p516
(lp517
sS'total_cqs'
p518
I1
ssI52
(dp519
S'iters'
p520
I0
sS'meta'
p521
(lp522
sS'total_cqs'
p523
I1
ssI53
(dp524
S'iters'
p525
I0
sS'meta'
p526
(lp527
sS'total_cqs'
p528
I1
ssI55
(dp529
S'iters'
p530
I1
sS'meta'
p531
(lp532
(dp533
S'objective'
p534
I1
sS'query_time'
p535
F44.13828706741333
sS'comp_time'
p536
F0.00016498565673828125
sS'exec_cq'
p537
I1
sS'total_cq'
p538
I2
sasS'total_cqs'
p539
I2
ssI56
(dp540
S'iters'
p541
I0
sS'meta'
p542
(lp543
sS'total_cqs'
p544
I1
ssI57
(dp545
S'iters'
p546
I2
sS'meta'
p547
(lp548
(dp549
S'objective'
p550
I0
sS'query_time'
p551
F2.2043159008026123
sS'comp_time'
p552
F0.0005981922149658203
sS'exec_cq'
p553
I1
sS'total_cq'
p554
I3
sa(dp555
g550
I1
sg551
F11.56172490119934
sg552
F0.00019311904907226562
sg553
I1
sg554
I2
sasS'total_cqs'
p556
I3
ssI108
(dp557
S'iters'
p558
I0
sS'meta'
p559
(lp560
sS'total_cqs'
p561
I1
ssI109
(dp562
S'iters'
p563
I0
sS'meta'
p564
(lp565
sS'total_cqs'
p566
I1
ssI116
(dp567
S'iters'
p568
I4
sS'meta'
p569
(lp570
(dp571
S'objective'
p572
I201
sS'query_time'
p573
F0.2013540267944336
sS'comp_time'
p574
F9.989738464355469e-05
sS'exec_cq'
p575
I7
sS'total_cq'
p576
I21
sa(dp577
g572
I190
sg573
F1.427008867263794
sg574
F0.00011014938354492188
sg575
I8
sg576
I20
sa(dp578
g572
I179
sg573
F0.13110780715942383
sg574
F9.608268737792969e-05
sg575
I8
sg576
I19
sa(dp579
g572
I177
sg573
F0.10264897346496582
sg574
F8.821487426757812e-05
sg575
I12
sg576
I18
sasS'total_cqs'
p580
I21
ssI117
(dp581
S'iters'
p582
I1
sS'meta'
p583
(lp584
(dp585
S'objective'
p586
I9
sS'query_time'
p587
F0.006818056106567383
sS'comp_time'
p588
F7.009506225585938e-05
sS'exec_cq'
p589
I3
sS'total_cq'
p590
I5
sasS'total_cqs'
p591
I5
ssI118
(dp592
S'iters'
p593
I0
sS'meta'
p594
(lp595
sS'total_cqs'
p596
I1
ssI122
(dp597
S'iters'
p598
I0
sS'meta'
p599
(lp600
sS'total_cqs'
p601
I1
ss.