(dp0
I1
(dp1
S'iters'
p2
I3
sS'meta'
p3
(lp4
(dp5
S'objective'
p6
I9
sS'query_time'
p7
F24.44256091117859
sS'comp_time'
p8
F0.0001251697540283203
sS'exec_cq'
p9
I1
sS'total_cq'
p10
I6
sa(dp11
g6
I3
sg7
F11.274322986602783
sg8
F0.002074003219604492
sg9
I1
sg10
I5
sa(dp12
g6
I4
sg7
F0.07073497772216797
sg8
F2.6226043701171875e-05
sg9
I1
sg10
I2
sasS'total_cqs'
p13
I6
ssI2
(dp14
S'iters'
p15
I1
sS'meta'
p16
(lp17
(dp18
S'objective'
p19
I19
sS'query_time'
p20
F0.8189139366149902
sS'comp_time'
p21
F8.606910705566406e-05
sS'exec_cq'
p22
I6
sS'total_cq'
p23
I6
sasS'total_cqs'
p24
I6
ssI3
(dp25
S'iters'
p26
I18
sS'meta'
p27
(lp28
(dp29
S'objective'
p30
I463
sS'query_time'
p31
F0.026764869689941406
sS'comp_time'
p32
F9.894371032714844e-05
sS'exec_cq'
p33
I1
sS'total_cq'
p34
I33
sa(dp35
g30
I388
sg31
F2.040832996368408
sg32
F0.00015687942504882812
sg33
I1
sg34
I30
sa(dp36
g30
I390
sg31
F0.004669904708862305
sg32
F4.100799560546875e-05
sg33
I2
sg34
I27
sa(dp37
g30
I302
sg31
F0.04622602462768555
sg32
F7.009506225585938e-05
sg33
I2
sg34
I26
sa(dp38
g30
I283
sg31
F0.011790037155151367
sg32
F4.7206878662109375e-05
sg33
I2
sg34
I23
sa(dp39
g30
I270
sg31
F7.370887994766235
sg32
F0.00043511390686035156
sg33
I2
sg34
I21
sa(dp40
g30
I210
sg31
F0.03908681869506836
sg32
F8.392333984375e-05
sg33
I2
sg34
I20
sa(dp41
g30
I197
sg31
F0.040663957595825195
sg32
F8.58306884765625e-05
sg33
I2
sg34
I17
sa(dp42
g30
I111
sg31
F0.010749101638793945
sg32
F4.506111145019531e-05
sg33
I2
sg34
I15
sa(dp43
g30
I108
sg31
F0.00537109375
sg32
F3.814697265625e-05
sg33
I2
sg34
I12
sa(dp44
g30
I98
sg31
F0.00238800048828125
sg32
F5.984306335449219e-05
sg33
I2
sg34
I10
sa(dp45
g30
I80
sg31
F0.0038080215454101562
sg32
F3.719329833984375e-05
sg33
I2
sg34
I9
sa(dp46
g30
I63
sg31
F0.003072977066040039
sg32
F4.00543212890625e-05
sg33
I2
sg34
I8
sa(dp47
g30
I47
sg31
F0.1896350383758545
sg32
F8.702278137207031e-05
sg33
I2
sg34
I7
sa(dp48
g30
I44
sg31
F0.0059130191802978516
sg32
F4.1961669921875e-05
sg33
I3
sg34
I6
sa(dp49
g30
I42
sg31
F0.02567291259765625
sg32
F5.602836608886719e-05
sg33
I3
sg34
I5
sa(dp50
g30
I38
sg31
F0.03749895095825195
sg32
F7.891654968261719e-05
sg33
I3
sg34
I4
sa(dp51
g30
I41
sg31
F0.22175383567810059
sg32
F0.00037479400634765625
sg33
I3
sg34
I3
sasS'total_cqs'
p52
I33
ssI4
(dp53
S'iters'
p54
I0
sS'meta'
p55
(lp56
sS'total_cqs'
p57
I1
ssI5
(dp58
S'iters'
p59
I0
sS'meta'
p60
(lp61
sS'total_cqs'
p62
I1
ssI6
(dp63
S'iters'
p64
I3
sS'meta'
p65
(lp66
(dp67
S'objective'
p68
I3
sS'query_time'
p69
F3.1453189849853516
sS'comp_time'
p70
F7.891654968261719e-05
sS'exec_cq'
p71
I1
sS'total_cq'
p72
I5
sa(dp73
g68
I0
sg69
F7.038136959075928
sg70
F8.20159912109375e-05
sg71
I1
sg72
I3
sa(dp74
g68
I1
sg69
F1.5535080432891846
sg70
F8.487701416015625e-05
sg71
I1
sg72
I2
sasS'total_cqs'
p75
I5
ssI7
(dp76
S'iters'
p77
I0
sS'meta'
p78
(lp79
sS'total_cqs'
p80
I1
ssI8
(dp81
S'iters'
p82
I5
sS'meta'
p83
(lp84
(dp85
S'objective'
p86
I9
sS'query_time'
p87
F21.869969129562378
sS'comp_time'
p88
F5.2928924560546875e-05
sS'exec_cq'
p89
I1
sS'total_cq'
p90
I6
sa(dp91
g86
I5
sg87
F20.017010927200317
sg88
F0.00010585784912109375
sg89
I1
sg90
I5
sa(dp92
g86
I2
sg87
F2.041407823562622
sg88
F0.0003941059112548828
sg89
I1
sg90
I4
sa(dp93
g86
I0
sg87
F20.052680015563965
sg88
F9.512901306152344e-05
sg89
I1
sg90
I3
sa(dp94
g86
I1
sg87
F21.894152879714966
sg88
F5.3882598876953125e-05
sg89
I1
sg90
I2
sasS'total_cqs'
p95
I6
ssI9
(dp96
S'iters'
p97
I5
sS'meta'
p98
(lp99
(dp100
S'objective'
p101
I9
sS'query_time'
p102
F20.016876935958862
sS'comp_time'
p103
F0.00010609626770019531
sS'exec_cq'
p104
I1
sS'total_cq'
p105
I6
sa(dp106
g101
I5
sg102
F1.0998480319976807
sg103
F8.082389831542969e-05
sg104
I1
sg105
I5
sa(dp107
g101
I2
sg102
F8.055150032043457
sg103
F0.0003960132598876953
sg104
I1
sg105
I4
sa(dp108
g101
I0
sg102
F17.61576199531555
sg103
F0.0002970695495605469
sg104
I1
sg105
I3
sa(dp109
g101
I1
sg102
F0.057505130767822266
sg103
F4.1961669921875e-05
sg104
I1
sg105
I2
sasS'total_cqs'
p110
I6
ssI10
(dp111
S'iters'
p112
I0
sS'meta'
p113
(lp114
sS'total_cqs'
p115
I1
ssI11
(dp116
S'iters'
p117
I0
sS'meta'
p118
(lp119
sS'total_cqs'
p120
I1
ssI12
(dp121
S'iters'
p122
I0
sS'meta'
p123
(lp124
sS'total_cqs'
p125
I1
ssI13
(dp126
S'iters'
p127
I2
sS'meta'
p128
(lp129
(dp130
S'objective'
p131
I32
sS'query_time'
p132
F9.550156831741333
sS'comp_time'
p133
F6.699562072753906e-05
sS'exec_cq'
p134
I7
sS'total_cq'
p135
I8
sa(dp136
g131
I32
sg132
F0.0015430450439453125
sg133
F3.695487976074219e-05
sg134
I7
sg135
I7
sasS'total_cqs'
p137
I8
ssI14
(dp138
S'iters'
p139
I3
sS'meta'
p140
(lp141
(dp142
S'objective'
p143
I7
sS'query_time'
p144
F0.2527329921722412
sS'comp_time'
p145
F7.486343383789062e-05
sS'exec_cq'
p146
I2
sS'total_cq'
p147
I5
sa(dp148
g143
I7
sg144
F0.022243022918701172
sg145
F5.1975250244140625e-05
sg146
I3
sg147
I4
sa(dp149
g143
I7
sg144
F1.0144248008728027
sg145
F6.985664367675781e-05
sg146
I3
sg147
I3
sasS'total_cqs'
p150
I5
ssI16
(dp151
S'iters'
p152
I4
sS'meta'
p153
(lp154
(dp155
S'objective'
p156
I7
sS'query_time'
p157
F1.8386509418487549
sS'comp_time'
p158
F7.510185241699219e-05
sS'exec_cq'
p159
I2
sS'total_cq'
p160
I5
sa(dp161
g156
I5
sg157
F0.0572659969329834
sg158
F8.702278137207031e-05
sg159
I2
sg160
I4
sa(dp162
g156
I4
sg157
F0.234450101852417
sg158
F9.799003601074219e-05
sg159
I2
sg160
I3
sa(dp163
g156
I4
sg157
F0.046868085861206055
sg158
F6.699562072753906e-05
sg159
I2
sg160
I2
sasS'total_cqs'
p164
I5
ssI17
(dp165
S'iters'
p166
I0
sS'meta'
p167
(lp168
sS'total_cqs'
p169
I1
ssI18
(dp170
S'iters'
p171
I3
sS'meta'
p172
(lp173
(dp174
S'objective'
p175
I3
sS'query_time'
p176
F2.4670939445495605
sS'comp_time'
p177
F6.604194641113281e-05
sS'exec_cq'
p178
I1
sS'total_cq'
p179
I5
sa(dp180
g175
I0
sg176
F0.07326698303222656
sg177
F6.699562072753906e-05
sg178
I1
sg179
I3
sa(dp181
g175
I1
sg176
F0.10251498222351074
sg177
F8.0108642578125e-05
sg178
I1
sg179
I2
sasS'total_cqs'
p182
I5
ssI19
(dp183
S'iters'
p184
I0
sS'meta'
p185
(lp186
sS'total_cqs'
p187
I1
ssI20
(dp188
S'iters'
p189
I7
sS'meta'
p190
(lp191
(dp192
S'objective'
p193
I42
sS'query_time'
p194
F0.03458595275878906
sS'comp_time'
p195
F5.602836608886719e-05
sS'exec_cq'
p196
I1
sS'total_cq'
p197
I12
sa(dp198
g193
I38
sg194
F11.859849214553833
sg195
F0.0004680156707763672
sg196
I1
sg197
I10
sa(dp199
g193
I31
sg194
F4.770758152008057
sg195
F0.00014019012451171875
sg196
I2
sg197
I9
sa(dp200
g193
I18
sg194
F0.007339954376220703
sg195
F5.2928924560546875e-05
sg196
I2
sg197
I8
sa(dp201
g193
I19
sg194
F3.6656839847564697
sg195
F0.00014495849609375
sg196
I3
sg197
I6
sa(dp202
g193
I20
sg194
F0.003912925720214844
sg195
F3.910064697265625e-05
sg196
I4
sg197
I5
sa(dp203
g193
I20
sg194
F0.10360002517700195
sg195
F0.00039196014404296875
sg196
I4
sg197
I4
sasS'total_cqs'
p204
I12
ssI21
(dp205
S'iters'
p206
I7
sS'meta'
p207
(lp208
(dp209
S'objective'
p210
I77
sS'query_time'
p211
F20.02885603904724
sS'comp_time'
p212
F7.486343383789062e-05
sS'exec_cq'
p213
I1
sS'total_cq'
p214
I14
sa(dp215
g210
I43
sg211
F0.10301709175109863
sg212
F7.605552673339844e-05
sg213
I1
sg214
I13
sa(dp216
g210
I13
sg211
F1.4363961219787598
sg212
F8.606910705566406e-05
sg213
I1
sg214
I11
sa(dp217
g210
I20
sg211
F0.4425489902496338
sg212
F7.891654968261719e-05
sg213
I1
sg214
I7
sa(dp218
g210
I8
sg211
F0.09643793106079102
sg212
F7.009506225585938e-05
sg213
I1
sg214
I6
sa(dp219
g210
I3
sg211
F0.2603919506072998
sg212
F7.390975952148438e-05
sg213
I1
sg214
I4
sa(dp220
g210
I9
sg211
F0.5146079063415527
sg212
F0.00039887428283691406
sg213
I1
sg214
I3
sasS'total_cqs'
p221
I14
ssI22
(dp222
S'iters'
p223
I1
sS'meta'
p224
(lp225
(dp226
S'objective'
p227
I1
sS'query_time'
p228
F0.006317853927612305
sS'comp_time'
p229
F6.008148193359375e-05
sS'exec_cq'
p230
I1
sS'total_cq'
p231
I2
sasS'total_cqs'
p232
I2
ssI23
(dp233
S'iters'
p234
I0
sS'meta'
p235
(lp236
sS'total_cqs'
p237
I1
ssI24
(dp238
S'iters'
p239
I0
sS'meta'
p240
(lp241
sS'total_cqs'
p242
I1
ssI25
(dp243
S'iters'
p244
I5
sS'meta'
p245
(lp246
(dp247
S'objective'
p248
I14
sS'query_time'
p249
F24.25750994682312
sS'comp_time'
p250
F0.00014901161193847656
sS'exec_cq'
p251
I1
sS'total_cq'
p252
I7
sa(dp253
g248
I9
sg249
F8.459167957305908
sg250
F0.00011110305786132812
sg251
I1
sg252
I6
sa(dp254
g248
I1
sg249
F3.4601120948791504
sg250
F7.200241088867188e-05
sg251
I1
sg252
I5
sa(dp255
g248
I0
sg249
F25.328542947769165
sg250
F0.00031280517578125
sg251
I1
sg252
I3
sa(dp256
g248
I2
sg249
F7.802175998687744
sg250
F0.0004608631134033203
sg251
I1
sg252
I2
sasS'total_cqs'
p257
I7
ssI26
(dp258
S'iters'
p259
I10
sS'meta'
p260
(lp261
(dp262
S'objective'
p263
I61
sS'query_time'
p264
F3.3194150924682617
sS'comp_time'
p265
F5.1021575927734375e-05
sS'exec_cq'
p266
I1
sS'total_cq'
p267
I13
sa(dp268
g263
I42
sg264
F1.3328189849853516
sg265
F8.20159912109375e-05
sg266
I1
sg267
I11
sa(dp269
g263
I37
sg264
F0.04289984703063965
sg265
F7.700920104980469e-05
sg266
I1
sg267
I9
sa(dp270
g263
I28
sg264
F0.08100008964538574
sg265
F6.890296936035156e-05
sg266
I1
sg267
I8
sa(dp271
g263
I20
sg264
F0.04145693778991699
sg265
F8.416175842285156e-05
sg266
I1
sg267
I7
sa(dp272
g263
I13
sg264
F20.135565042495728
sg265
F0.0004649162292480469
sg266
I1
sg267
I6
sa(dp273
g263
I7
sg264
F0.0515749454498291
sg265
F4.8160552978515625e-05
sg266
I1
sg267
I5
sa(dp274
g263
I2
sg264
F0.030349016189575195
sg265
F4.410743713378906e-05
sg266
I1
sg267
I4
sa(dp275
g263
I0
sg264
F0.020553112030029297
sg265
F4.982948303222656e-05
sg266
I1
sg267
I3
sa(dp276
g263
I2
sg264
F0.020195960998535156
sg265
F4.506111145019531e-05
sg266
I1
sg267
I2
sasS'total_cqs'
p277
I13
ssI27
(dp278
S'iters'
p279
I1
sS'meta'
p280
(lp281
(dp282
S'objective'
p283
I1
sS'query_time'
p284
F0.16813993453979492
sS'comp_time'
p285
F6.318092346191406e-05
sS'exec_cq'
p286
I2
sS'total_cq'
p287
I2
sasS'total_cqs'
p288
I2
ssI28
(dp289
S'iters'
p290
I8
sS'meta'
p291
(lp292
(dp293
S'objective'
p294
I77
sS'query_time'
p295
F1.5722930431365967
sS'comp_time'
p296
F6.389617919921875e-05
sS'exec_cq'
p297
I1
sS'total_cq'
p298
I14
sa(dp299
g294
I47
sg295
F1.633188009262085
sg296
F4.1961669921875e-05
sg297
I1
sg298
I13
sa(dp300
g294
I5
sg295
F1.2894060611724854
sg296
F3.695487976074219e-05
sg297
I1
sg298
I10
sa(dp301
g294
I17
sg295
F0.7425599098205566
sg296
F6.604194641113281e-05
sg297
I1
sg298
I7
sa(dp302
g294
I3
sg295
F0.531343936920166
sg296
F3.790855407714844e-05
sg297
I1
sg298
I6
sa(dp303
g294
I3
sg295
F0.4612457752227783
sg296
F8.893013000488281e-05
sg297
I1
sg298
I4
sa(dp304
g294
I1
sg295
F0.3052229881286621
sg296
F5.3882598876953125e-05
sg297
I1
sg298
I3
sa(dp305
g294
I2
sg295
F0.1401221752166748
sg296
F3.886222839355469e-05
sg297
I1
sg298
I2
sasS'total_cqs'
p306
I14
ssI29
(dp307
S'iters'
p308
I1
sS'meta'
p309
(lp310
(dp311
S'objective'
p312
I1
sS'query_time'
p313
F0.004091024398803711
sS'comp_time'
p314
F5.1975250244140625e-05
sS'exec_cq'
p315
I2
sS'total_cq'
p316
I2
sasS'total_cqs'
p317
I2
ssI30
(dp318
S'iters'
p319
I1
sS'meta'
p320
(lp321
(dp322
S'objective'
p323
I1
sS'query_time'
p324
F0.37782907485961914
sS'comp_time'
p325
F7.700920104980469e-05
sS'exec_cq'
p326
I2
sS'total_cq'
p327
I2
sasS'total_cqs'
p328
I2
ssI31
(dp329
S'iters'
p330
I6
sS'meta'
p331
(lp332
(dp333
S'objective'
p334
I15
sS'query_time'
p335
F24.594295978546143
sS'comp_time'
p336
F0.00011205673217773438
sS'exec_cq'
p337
I1
sS'total_cq'
p338
I9
sa(dp339
g334
I14
sg335
F2.0378849506378174
sg336
F7.510185241699219e-05
sg337
I1
sg338
I7
sa(dp340
g334
I0
sg335
F0.1921541690826416
sg336
F4.100799560546875e-05
sg337
I1
sg338
I6
sa(dp341
g334
I1
sg335
F0.06447887420654297
sg336
F3.3855438232421875e-05
sg337
I1
sg338
I4
sa(dp342
g334
I0
sg335
F0.002490997314453125
sg336
F3.981590270996094e-05
sg337
I1
sg338
I3
sa(dp343
g334
I1
sg335
F0.2544410228729248
sg336
F0.00030517578125
sg337
I1
sg338
I2
sasS'total_cqs'
p344
I9
ssI32
(dp345
S'iters'
p346
I5
sS'meta'
p347
(lp348
(dp349
S'objective'
p350
I6
sS'query_time'
p351
F1.6775801181793213
sS'comp_time'
p352
F6.914138793945312e-05
sS'exec_cq'
p353
I1
sS'total_cq'
p354
I7
sa(dp355
g350
I5
sg351
F9.968138933181763
sg352
F0.0001690387725830078
sg353
I1
sg354
I5
sa(dp356
g350
I1
sg351
F5.989192962646484
sg352
F0.00018405914306640625
sg353
I1
sg354
I4
sa(dp357
g350
I0
sg351
F1.4736409187316895
sg352
F0.000164031982421875
sg353
I1
sg354
I3
sa(dp358
g350
I1
sg351
F1.5369541645050049
sg352
F7.987022399902344e-05
sg353
I1
sg354
I2
sasS'total_cqs'
p359
I7
ssI33
(dp360
S'iters'
p361
I1
sS'meta'
p362
(lp363
(dp364
S'objective'
p365
I1
sS'query_time'
p366
F0.030994892120361328
sS'comp_time'
p367
F5.984306335449219e-05
sS'exec_cq'
p368
I2
sS'total_cq'
p369
I2
sasS'total_cqs'
p370
I2
ssI34
(dp371
S'iters'
p372
I0
sS'meta'
p373
(lp374
sS'total_cqs'
p375
I1
ssI35
(dp376
S'iters'
p377
I3
sS'meta'
p378
(lp379
(dp380
S'objective'
p381
I3
sS'query_time'
p382
F3.136151075363159
sS'comp_time'
p383
F7.009506225585938e-05
sS'exec_cq'
p384
I1
sS'total_cq'
p385
I5
sa(dp386
g381
I0
sg382
F7.3894360065460205
sg383
F0.00026106834411621094
sg384
I1
sg385
I3
sa(dp387
g381
I1
sg382
F1.9684369564056396
sg383
F7.200241088867188e-05
sg384
I1
sg385
I2
sasS'total_cqs'
p388
I5
ssI37
(dp389
S'iters'
p390
I7
sS'meta'
p391
(lp392
(dp393
S'objective'
p394
I35
sS'query_time'
p395
F0.010859966278076172
sS'comp_time'
p396
F4.1961669921875e-05
sS'exec_cq'
p397
I1
sS'total_cq'
p398
I10
sa(dp399
g394
I27
sg395
F0.5874121189117432
sg396
F8.20159912109375e-05
sg397
I1
sg398
I9
sa(dp400
g394
I20
sg395
F0.005499124526977539
sg396
F3.695487976074219e-05
sg397
I1
sg398
I8
sa(dp401
g394
I14
sg395
F0.004594087600708008
sg396
F3.409385681152344e-05
sg397
I1
sg398
I7
sa(dp402
g394
I9
sg395
F0.003898143768310547
sg396
F3.504753112792969e-05
sg397
I1
sg398
I6
sa(dp403
g394
I3
sg395
F10.982975959777832
sg396
F5.91278076171875e-05
sg397
I1
sg398
I5
sa(dp404
g394
I4
sg395
F0.0018069744110107422
sg396
F3.0994415283203125e-05
sg397
I1
sg398
I2
sasS'total_cqs'
p405
I10
ssI38
(dp406
S'iters'
p407
I0
sS'meta'
p408
(lp409
sS'total_cqs'
p410
I1
ssI39
(dp411
S'iters'
p412
I0
sS'meta'
p413
(lp414
sS'total_cqs'
p415
I1
ssI40
(dp416
S'iters'
p417
I1
sS'meta'
p418
(lp419
(dp420
S'objective'
p421
I1
sS'query_time'
p422
F19.058021068572998
sS'comp_time'
p423
F0.0003559589385986328
sS'exec_cq'
p424
I1
sS'total_cq'
p425
I2
sasS'total_cqs'
p426
I2
ssI41
(dp427
S'iters'
p428
I5
sS'meta'
p429
(lp430
(dp431
S'objective'
p432
I9
sS'query_time'
p433
F2.176391839981079
sS'comp_time'
p434
F0.00033211708068847656
sS'exec_cq'
p435
I1
sS'total_cq'
p436
I6
sa(dp437
g432
I5
sg433
F1.7084648609161377
sg434
F6.890296936035156e-05
sg435
I1
sg436
I5
sa(dp438
g432
I2
sg433
F0.22275710105895996
sg434
F7.605552673339844e-05
sg435
I1
sg436
I4
sa(dp439
g432
I0
sg433
F9.211112022399902
sg434
F0.0004980564117431641
sg435
I1
sg436
I3
sa(dp440
g432
I1
sg433
F0.17553210258483887
sg434
F4.696846008300781e-05
sg435
I1
sg436
I2
sasS'total_cqs'
p441
I6
ssI42
(dp442
S'iters'
p443
I1
sS'meta'
p444
(lp445
(dp446
S'objective'
p447
I1
sS'query_time'
p448
F18.363229990005493
sS'comp_time'
p449
F0.0001621246337890625
sS'exec_cq'
p450
I1
sS'total_cq'
p451
I2
sasS'total_cqs'
p452
I2
ssI43
(dp453
S'iters'
p454
I0
sS'meta'
p455
(lp456
sS'total_cqs'
p457
I1
ssI44
(dp458
S'iters'
p459
I4
sS'meta'
p460
(lp461
(dp462
S'objective'
p463
I5
sS'query_time'
p464
F0.9837851524353027
sS'comp_time'
p465
F6.818771362304688e-05
sS'exec_cq'
p466
I1
sS'total_cq'
p467
I5
sa(dp468
g463
I2
sg464
F0.011209964752197266
sg465
F8.487701416015625e-05
sg466
I1
sg467
I4
sa(dp469
g463
I0
sg464
F0.010982990264892578
sg465
F0.00032901763916015625
sg466
I1
sg467
I3
sa(dp470
g463
I1
sg464
F1.3412940502166748
sg465
F7.796287536621094e-05
sg466
I1
sg467
I2
sasS'total_cqs'
p471
I5
ssI45
(dp472
S'iters'
p473
I2
sS'meta'
p474
(lp475
(dp476
S'objective'
p477
I9
sS'query_time'
p478
F0.3969130516052246
sS'comp_time'
p479
F6.103515625e-05
sS'exec_cq'
p480
I4
sS'total_cq'
p481
I5
sa(dp482
g477
I1
sg478
F6.0080530643463135
sg479
F3.600120544433594e-05
sg480
I1
sg481
I2
sasS'total_cqs'
p483
I5
ssI46
(dp484
S'iters'
p485
I0
sS'meta'
p486
(lp487
sS'total_cqs'
p488
I1
ssI47
(dp489
S'iters'
p490
I0
sS'meta'
p491
(lp492
sS'total_cqs'
p493
I1
ssI48
(dp494
S'iters'
p495
I1
sS'meta'
p496
(lp497
(dp498
S'objective'
p499
I1
sS'query_time'
p500
F0.1174769401550293
sS'comp_time'
p501
F7.510185241699219e-05
sS'exec_cq'
p502
I2
sS'total_cq'
p503
I2
sasS'total_cqs'
p504
I2
ssI49
(dp505
S'iters'
p506
I3
sS'meta'
p507
(lp508
(dp509
S'objective'
p510
I1
sS'query_time'
p511
F4.407192945480347
sS'comp_time'
p512
F6.890296936035156e-05
sS'exec_cq'
p513
I1
sS'total_cq'
p514
I5
sa(dp515
g510
I2
sg511
F0.04677414894104004
sg512
F7.414817810058594e-05
sg513
I2
sg514
I3
sa(dp516
g510
I3
sg511
F0.008081912994384766
sg512
F4.100799560546875e-05
sg513
I2
sg514
I2
sasS'total_cqs'
p517
I5
ssI50
(dp518
S'iters'
p519
I4
sS'meta'
p520
(lp521
(dp522
S'objective'
p523
I5
sS'query_time'
p524
F0.015675783157348633
sS'comp_time'
p525
F5.1975250244140625e-05
sS'exec_cq'
p526
I1
sS'total_cq'
p527
I5
sa(dp528
g523
I2
sg524
F0.005579948425292969
sg525
F6.580352783203125e-05
sg526
I1
sg527
I4
sa(dp529
g523
I0
sg524
F0.21065998077392578
sg525
F8.797645568847656e-05
sg526
I1
sg527
I3
sa(dp530
g523
I1
sg524
F0.018579959869384766
sg525
F9.489059448242188e-05
sg526
I1
sg527
I2
sasS'total_cqs'
p531
I5
ssI51
(dp532
S'iters'
p533
I0
sS'meta'
p534
(lp535
sS'total_cqs'
p536
I1
ssI52
(dp537
S'iters'
p538
I0
sS'meta'
p539
(lp540
sS'total_cqs'
p541
I1
ssI53
(dp542
S'iters'
p543
I0
sS'meta'
p544
(lp545
sS'total_cqs'
p546
I1
ssI55
(dp547
S'iters'
p548
I1
sS'meta'
p549
(lp550
(dp551
S'objective'
p552
I1
sS'query_time'
p553
F24.167979955673218
sS'comp_time'
p554
F7.295608520507812e-05
sS'exec_cq'
p555
I2
sS'total_cq'
p556
I2
sasS'total_cqs'
p557
I2
ssI56
(dp558
S'iters'
p559
I0
sS'meta'
p560
(lp561
sS'total_cqs'
p562
I1
ssI57
(dp563
S'iters'
p564
I2
sS'meta'
p565
(lp566
(dp567
S'objective'
p568
I0
sS'query_time'
p569
F2.687494993209839
sS'comp_time'
p570
F0.0013051033020019531
sS'exec_cq'
p571
I1
sS'total_cq'
p572
I3
sa(dp573
g568
I1
sg569
F12.440787076950073
sg570
F0.00011301040649414062
sg571
I2
sg572
I2
sasS'total_cqs'
p574
I3
ssI108
(dp575
S'iters'
p576
I0
sS'meta'
p577
(lp578
sS'total_cqs'
p579
I1
ssI109
(dp580
S'iters'
p581
I0
sS'meta'
p582
(lp583
sS'total_cqs'
p584
I1
ssI116
(dp585
S'iters'
p586
I6
sS'meta'
p587
(lp588
(dp589
S'objective'
p590
I191
sS'query_time'
p591
F1.2844901084899902
sS'comp_time'
p592
F9.202957153320312e-05
sS'exec_cq'
p593
I2
sS'total_cq'
p594
I21
sa(dp595
g590
I179
sg591
F3.955386161804199
sg592
F0.0006091594696044922
sg593
I5
sg594
I20
sa(dp596
g590
I177
sg591
F0.13153290748596191
sg592
F0.00010704994201660156
sg593
I11
sg594
I19
sa(dp597
g590
I180
sg591
F1.1835801601409912
sg592
F0.0001010894775390625
sg593
I16
sg594
I18
sa(dp598
g590
I179
sg591
F0.11582612991333008
sg592
F9.608268737792969e-05
sg593
I16
sg594
I17
sa(dp599
g590
I179
sg591
F0.08271598815917969
sg592
F9.179115295410156e-05
sg593
I16
sg594
I16
sasS'total_cqs'
p600
I21
ssI117
(dp601
S'iters'
p602
I2
sS'meta'
p603
(lp604
(dp605
S'objective'
p606
I9
sS'query_time'
p607
F0.009081840515136719
sS'comp_time'
p608
F4.792213439941406e-05
sS'exec_cq'
p609
I3
sS'total_cq'
p610
I5
sa(dp611
g606
I10
sg607
F0.002702951431274414
sg608
F4.1961669921875e-05
sg609
I4
sg610
I4
sasS'total_cqs'
p612
I5
ssI118
(dp613
S'iters'
p614
I0
sS'meta'
p615
(lp616
sS'total_cqs'
p617
I1
ssI122
(dp618
S'iters'
p619
I0
sS'meta'
p620
(lp621
sS'total_cqs'
p622
I1
ss.