(dp0
I1
(dp1
S'iters'
p2
I4
sS'meta'
p3
(lp4
(dp5
S'objective'
p6
I9
sS'query_time'
p7
F69.60386419296265
sS'comp_time'
p8
F1.855100154876709
sS'exec_cq'
p9
I6
sS'total_cq'
p10
I6
sa(dp11
g6
I9
sg7
F0.19753694534301758
sg8
F0.8111178874969482
sg9
I3
sg10
I4
sa(dp12
g6
I0
sg7
F0.0027120113372802734
sg8
F5.2928924560546875e-05
sg9
I1
sg10
I3
sa(dp13
g6
I4
sg7
F0.0016040802001953125
sg8
F4.982948303222656e-05
sg9
I1
sg10
I2
sasS'total_cqs'
p14
I6
ssI2
(dp15
S'iters'
p16
I1
sS'meta'
p17
(lp18
(dp19
S'objective'
p20
I19
sS'query_time'
p21
F1.044538974761963
sS'comp_time'
p22
F0.1360929012298584
sS'exec_cq'
p23
I6
sS'total_cq'
p24
I6
sasS'total_cqs'
p25
I6
ssI3
(dp26
S'iters'
p27
I16
sS'meta'
p28
(lp29
(dp30
S'objective'
p31
I419
sS'query_time'
p32
F24.72539710998535
sS'comp_time'
p33
F0.33571696281433105
sS'exec_cq'
p34
I33
sS'total_cq'
p35
I33
sa(dp36
g31
I354
sg32
F0.09908699989318848
sg33
F0.0662539005279541
sg34
I30
sg35
I30
sa(dp37
g31
I300
sg32
F0.09206604957580566
sg33
F0.14220833778381348
sg34
I27
sg35
I27
sa(dp38
g31
I275
sg32
F0.026246070861816406
sg33
F0.1506199836730957
sg34
I24
sg35
I24
sa(dp39
g31
I252
sg32
F0.010590076446533203
sg33
F0.019672632217407227
sg34
I21
sg35
I21
sa(dp40
g31
I221
sg32
F0.06708288192749023
sg33
F0.014074087142944336
sg34
I18
sg35
I18
sa(dp41
g31
I191
sg32
F0.007397174835205078
sg33
F0.01253962516784668
sg34
I17
sg35
I17
sa(dp42
g31
I160
sg32
F0.005486965179443359
sg33
F0.012468576431274414
sg34
I14
sg35
I14
sa(dp43
g31
I135
sg32
F0.0682528018951416
sg33
F0.010976791381835938
sg34
I13
sg35
I13
sa(dp44
g31
I109
sg32
F0.006317138671875
sg33
F0.012291908264160156
sg34
I12
sg35
I12
sa(dp45
g31
I82
sg32
F0.005063056945800781
sg33
F0.012563705444335938
sg34
I11
sg35
I11
sa(dp46
g31
I59
sg32
F0.005459785461425781
sg33
F0.012433767318725586
sg34
I8
sg35
I8
sa(dp47
g31
I46
sg32
F0.06207394599914551
sg33
F0.0045320987701416016
sg34
I6
sg35
I7
sa(dp48
g31
I33
sg32
F0.002081155776977539
sg33
F0.004325389862060547
sg34
I5
sg35
I6
sa(dp49
g31
I19
sg32
F0.002324819564819336
sg33
F0.0013191699981689453
sg34
I2
sg35
I4
sa(dp50
g31
I32
sg32
F0.0021631717681884766
sg33
F0.004884243011474609
sg34
I3
sg35
I3
sasS'total_cqs'
p51
I33
ssI6
(dp52
S'iters'
p53
I3
sS'meta'
p54
(lp55
(dp56
S'objective'
p57
I1
sS'query_time'
p58
F13.142246961593628
sS'comp_time'
p59
F0.0034694671630859375
sS'exec_cq'
p60
I4
sS'total_cq'
p61
I5
sa(dp62
g57
I1
sg58
F0.0002541542053222656
sg59
F0.0003502368927001953
sg60
I2
sg61
I3
sa(dp63
g57
I1
sg58
F0.00024199485778808594
sg59
F0.0003459453582763672
sg60
I2
sg61
I2
sasS'total_cqs'
p64
I5
ssI8
(dp65
S'iters'
p66
I5
sS'meta'
p67
(lp68
(dp69
S'objective'
p70
I15
sS'query_time'
p71
F22.884593963623047
sS'comp_time'
p72
F0.09203290939331055
sS'exec_cq'
p73
I5
sS'total_cq'
p74
I6
sa(dp75
g70
I6
sg71
F1.5571019649505615
sg72
F0.00019216537475585938
sg73
I4
sg74
I5
sa(dp76
g70
I2
sg71
F21.712830066680908
sg72
F0.00017309188842773438
sg73
I3
sg74
I4
sa(dp77
g70
I1
sg71
F0.00391697883605957
sg72
F0.00013828277587890625
sg73
I2
sg74
I3
sa(dp78
g70
I1
sg71
F0.0013318061828613281
sg72
F4.172325134277344e-05
sg73
I1
sg74
I2
sasS'total_cqs'
p79
I6
ssI9
(dp80
S'iters'
p81
I3
sS'meta'
p82
(lp83
(dp84
S'objective'
p85
I1
sS'query_time'
p86
F10.550589084625244
sS'comp_time'
p87
F0.05653119087219238
sS'exec_cq'
p88
I3
sS'total_cq'
p89
I6
sa(dp90
g85
I1
sg86
F0.05073213577270508
sg87
F0.3197791576385498
sg88
I3
sg89
I3
sa(dp91
g85
I3
sg86
F0.12210512161254883
sg87
F0.11764407157897949
sg88
I2
sg89
I2
sasS'total_cqs'
p92
I6
ssI13
(dp93
S'iters'
p94
I2
sS'meta'
p95
(lp96
(dp97
S'objective'
p98
I24
sS'query_time'
p99
F0.026826143264770508
sS'comp_time'
p100
F0.007571220397949219
sS'exec_cq'
p101
I6
sS'total_cq'
p102
I8
sa(dp103
g98
I28
sg99
F0.0058040618896484375
sg100
F9.393692016601562e-05
sg101
I7
sg102
I7
sasS'total_cqs'
p104
I8
ssI14
(dp105
S'iters'
p106
I3
sS'meta'
p107
(lp108
(dp109
S'objective'
p110
I7
sS'query_time'
p111
F1.0194461345672607
sS'comp_time'
p112
F0.0040760040283203125
sS'exec_cq'
p113
I5
sS'total_cq'
p114
I5
sa(dp115
g110
I5
sg111
F0.0007891654968261719
sg112
F0.0010788440704345703
sg113
I4
sg114
I4
sa(dp116
g110
I6
sg111
F0.00047087669372558594
sg112
F0.000885009765625
sg113
I3
sg114
I3
sasS'total_cqs'
p117
I5
ssI16
(dp118
S'iters'
p119
I3
sS'meta'
p120
(lp121
(dp122
S'objective'
p123
I3
sS'query_time'
p124
F1.3316750526428223
sS'comp_time'
p125
F0.0068302154541015625
sS'exec_cq'
p126
I4
sS'total_cq'
p127
I5
sa(dp128
g123
I0
sg124
F0.035398006439208984
sg125
F0.00012922286987304688
sg126
I1
sg127
I3
sa(dp129
g123
I1
sg124
F5.507469177246094e-05
sg125
F9.298324584960938e-05
sg126
I2
sg127
I2
sasS'total_cqs'
p130
I5
ssI18
(dp131
S'iters'
p132
I3
sS'meta'
p133
(lp134
(dp135
S'objective'
p136
I1
sS'query_time'
p137
F0.23706412315368652
sS'comp_time'
p138
F0.003731250762939453
sS'exec_cq'
p139
I4
sS'total_cq'
p140
I5
sa(dp141
g136
I1
sg137
F5.602836608886719e-05
sg138
F0.00027179718017578125
sg139
I2
sg140
I3
sa(dp142
g136
I1
sg137
F0.04376101493835449
sg138
F5.221366882324219e-05
sg139
I1
sg140
I2
sasS'total_cqs'
p143
I5
ssI20
(dp144
S'iters'
p145
I6
sS'meta'
p146
(lp147
(dp148
S'objective'
p149
I32
sS'query_time'
p150
F10.93143606185913
sS'comp_time'
p151
F0.7596144676208496
sS'exec_cq'
p152
I10
sS'total_cq'
p153
I12
sa(dp154
g149
I29
sg150
F0.25998687744140625
sg151
F0.522697925567627
sg152
I8
sg153
I10
sa(dp155
g149
I20
sg150
F0.14757680892944336
sg151
F0.3803977966308594
sg152
I4
sg153
I8
sa(dp156
g149
I21
sg150
F0.06974315643310547
sg151
F0.46365904808044434
sg152
I5
sg153
I6
sa(dp157
g149
I18
sg150
F4.482269287109375e-05
sg151
F8.893013000488281e-05
sg152
I4
sg153
I5
sa(dp158
g149
I20
sg150
F0.14889287948608398
sg151
F0.00037288665771484375
sg152
I4
sg153
I4
sasS'total_cqs'
p159
I12
ssI21
(dp160
S'iters'
p161
I10
sS'meta'
p162
(lp163
(dp164
S'objective'
p165
I51
sS'query_time'
p166
F59.52164101600647
sS'comp_time'
p167
F0.7158703804016113
sS'exec_cq'
p168
I12
sS'total_cq'
p169
I14
sa(dp170
g165
I30
sg166
F0.08991384506225586
sg167
F0.0547175407409668
sg168
I8
sg169
I11
sa(dp171
g165
I30
sg166
F0.009835004806518555
sg167
F0.01714611053466797
sg168
I6
sg169
I9
sa(dp172
g165
I28
sg166
F0.07342028617858887
sg167
F0.020428895950317383
sg168
I6
sg169
I8
sa(dp173
g165
I15
sg166
F0.006333112716674805
sg167
F8.106231689453125e-05
sg168
I4
sg169
I7
sa(dp174
g165
I13
sg166
F0.002725839614868164
sg167
F7.987022399902344e-05
sg168
I4
sg169
I6
sa(dp175
g165
I1
sg166
F0.0012829303741455078
sg167
F3.814697265625e-05
sg168
I1
sg169
I5
sa(dp176
g165
I2
sg166
F0.0018019676208496094
sg167
F6.794929504394531e-05
sg168
I2
sg169
I4
sa(dp177
g165
I0
sg166
F0.0009639263153076172
sg167
F3.170967102050781e-05
sg168
I1
sg169
I3
sa(dp178
g165
I1
sg166
F0.01898193359375
sg167
F3.62396240234375e-05
sg168
I1
sg169
I2
sasS'total_cqs'
p179
I14
ssI22
(dp180
S'iters'
p181
I1
sS'meta'
p182
(lp183
(dp184
S'objective'
p185
I1
sS'query_time'
p186
F0.003364086151123047
sS'comp_time'
p187
F0.0010361671447753906
sS'exec_cq'
p188
I1
sS'total_cq'
p189
I2
sasS'total_cqs'
p190
I2
ssI25
(dp191
S'iters'
p192
I4
sS'meta'
p193
(lp194
(dp195
S'objective'
p196
I8
sS'query_time'
p197
F44.884217977523804
sS'comp_time'
p198
F2.1013951301574707
sS'exec_cq'
p199
I4
sS'total_cq'
p200
I7
sa(dp201
g196
I4
sg197
F4.785777807235718
sg198
F0.019787311553955078
sg199
I4
sg200
I5
sa(dp202
g196
I3
sg197
F2.5987625122070312e-05
sg198
F8.320808410644531e-05
sg199
I2
sg200
I3
sa(dp203
g196
I2
sg197
F0.011418819427490234
sg198
F2.193450927734375e-05
sg199
I1
sg200
I2
sasS'total_cqs'
p204
I7
ssI26
(dp205
S'iters'
p206
I9
sS'meta'
p207
(lp208
(dp209
S'objective'
p210
I53
sS'query_time'
p211
F21.187525987625122
sS'comp_time'
p212
F2.0794320106506348
sS'exec_cq'
p213
I7
sS'total_cq'
p214
I13
sa(dp215
g210
I38
sg211
F4.548938035964966
sg212
F2.4860446453094482
sg213
I5
sg214
I11
sa(dp216
g210
I29
sg211
F0.8647651672363281
sg212
F2.725663423538208
sg213
I5
sg214
I9
sa(dp217
g210
I18
sg211
F0.8009557723999023
sg212
F1.869629144668579
sg213
I4
sg214
I8
sa(dp218
g210
I12
sg211
F0.8353180885314941
sg212
F2.2767062187194824
sg213
I4
sg214
I7
sa(dp219
g210
I5
sg211
F0.6568760871887207
sg212
F2.0852601528167725
sg213
I2
sg214
I5
sa(dp220
g210
I3
sg211
F0.026646137237548828
sg212
F0.00017499923706054688
sg213
I1
sg214
I4
sa(dp221
g210
I0
sg211
F0.6588919162750244
sg212
F0.9043629169464111
sg213
I1
sg214
I3
sa(dp222
g210
I2
sg211
F0.00027108192443847656
sg212
F0.0001442432403564453
sg213
I1
sg214
I2
sasS'total_cqs'
p223
I13
ssI27
(dp224
S'iters'
p225
I1
sS'meta'
p226
(lp227
(dp228
S'objective'
p229
I1
sS'query_time'
p230
F0.2674560546875
sS'comp_time'
p231
F0.0023717880249023438
sS'exec_cq'
p232
I1
sS'total_cq'
p233
I2
sasS'total_cqs'
p234
I2
ssI28
(dp235
S'iters'
p236
I10
sS'meta'
p237
(lp238
(dp239
S'objective'
p240
I63
sS'query_time'
p241
F1.3421831130981445
sS'comp_time'
p242
F0.08461189270019531
sS'exec_cq'
p243
I6
sS'total_cq'
p244
I14
sa(dp245
g240
I50
sg241
F0.01104593276977539
sg242
F0.01100015640258789
sg243
I6
sg244
I12
sa(dp246
g240
I41
sg241
F0.014487028121948242
sg242
F0.0001952648162841797
sg243
I3
sg244
I9
sa(dp247
g240
I32
sg241
F2.47955322265625e-05
sg242
F0.00011920928955078125
sg243
I2
sg244
I8
sa(dp248
g240
I23
sg241
F0.018958091735839844
sg242
F0.00010585784912109375
sg243
I1
sg244
I7
sa(dp249
g240
I15
sg241
F0.008987188339233398
sg242
F6.794929504394531e-05
sg243
I1
sg244
I6
sa(dp250
g240
I8
sg241
F1.3113021850585938e-05
sg242
F3.0994415283203125e-05
sg243
I1
sg244
I5
sa(dp251
g240
I4
sg241
F0.0022568702697753906
sg242
F2.7894973754882812e-05
sg243
I1
sg244
I4
sa(dp252
g240
I0
sg241
F0.0037441253662109375
sg242
F0.0019826889038085938
sg243
I1
sg244
I3
sa(dp253
g240
I3
sg241
F0.0028128623962402344
sg242
F3.790855407714844e-05
sg243
I1
sg244
I2
sasS'total_cqs'
p254
I14
ssI29
(dp255
S'iters'
p256
I1
sS'meta'
p257
(lp258
(dp259
S'objective'
p260
I1
sS'query_time'
p261
F0.007061958312988281
sS'comp_time'
p262
F0.0012788772583007812
sS'exec_cq'
p263
I2
sS'total_cq'
p264
I2
sasS'total_cqs'
p265
I2
ssI30
(dp266
S'iters'
p267
I1
sS'meta'
p268
(lp269
(dp270
S'objective'
p271
I1
sS'query_time'
p272
F0.3986191749572754
sS'comp_time'
p273
F0.0022192001342773438
sS'exec_cq'
p274
I2
sS'total_cq'
p275
I2
sasS'total_cqs'
p276
I2
ssI31
(dp277
S'iters'
p278
I4
sS'meta'
p279
(lp280
(dp281
S'objective'
p282
I21
sS'query_time'
p283
F5.158707857131958
sS'comp_time'
p284
F0.1754908561706543
sS'exec_cq'
p285
I9
sS'total_cq'
p286
I9
sa(dp287
g282
I13
sg283
F0.0084991455078125
sg284
F0.014133930206298828
sg285
I5
sg286
I7
sa(dp288
g282
I0
sg283
F0.007868051528930664
sg284
F0.011155843734741211
sg285
I3
sg286
I3
sa(dp289
g282
I3
sg283
F0.0026841163635253906
sg284
F0.004082202911376953
sg285
I2
sg286
I2
sasS'total_cqs'
p290
I9
ssI32
(dp291
S'iters'
p292
I4
sS'meta'
p293
(lp294
(dp295
S'objective'
p296
I2
sS'query_time'
p297
F18.52675771713257
sS'comp_time'
p298
F1.6625306606292725
sS'exec_cq'
p299
I6
sS'total_cq'
p300
I7
sa(dp301
g296
I1
sg297
F0.5939419269561768
sg298
F2.7915849685668945
sg299
I4
sg300
I5
sa(dp302
g296
I1
sg297
F0.2641630172729492
sg298
F1.0277371406555176
sg299
I2
sg300
I3
sa(dp303
g296
I1
sg297
F0.1685810089111328
sg298
F0.03016805648803711
sg299
I1
sg300
I2
sasS'total_cqs'
p304
I7
ssI33
(dp305
S'iters'
p306
I1
sS'meta'
p307
(lp308
(dp309
S'objective'
p310
I1
sS'query_time'
p311
F0.024697065353393555
sS'comp_time'
p312
F0.001413106918334961
sS'exec_cq'
p313
I2
sS'total_cq'
p314
I2
sasS'total_cqs'
p315
I2
ssI35
(dp316
S'iters'
p317
I3
sS'meta'
p318
(lp319
(dp320
S'objective'
p321
I1
sS'query_time'
p322
F14.746630907058716
sS'comp_time'
p323
F0.09754467010498047
sS'exec_cq'
p324
I4
sS'total_cq'
p325
I5
sa(dp326
g321
I0
sg322
F0.018269062042236328
sg323
F0.19628405570983887
sg324
I2
sg325
I3
sa(dp327
g321
I2
sg322
F0.0008158683776855469
sg323
F0.00028014183044433594
sg324
I1
sg325
I2
sasS'total_cqs'
p328
I5
ssI37
(dp329
S'iters'
p330
I4
sS'meta'
p331
(lp332
(dp333
S'objective'
p334
I35
sS'query_time'
p335
F1.8300268650054932
sS'comp_time'
p336
F0.11181187629699707
sS'exec_cq'
p337
I8
sS'total_cq'
p338
I10
sa(dp339
g334
I27
sg335
F0.5834519863128662
sg336
F0.033536672592163086
sg337
I8
sg338
I9
sa(dp340
g334
I18
sg335
F0.015826940536499023
sg336
F0.12944793701171875
sg337
I7
sg338
I8
sa(dp341
g334
I7
sg335
F0.003339052200317383
sg336
F0.0038194656372070312
sg337
I2
sg338
I2
sasS'total_cqs'
p342
I10
ssI40
(dp343
S'iters'
p344
I1
sS'meta'
p345
(lp346
(dp347
S'objective'
p348
I1
sS'query_time'
p349
F0.005198001861572266
sS'comp_time'
p350
F0.0015709400177001953
sS'exec_cq'
p351
I1
sS'total_cq'
p352
I2
sasS'total_cqs'
p353
I2
ssI41
(dp354
S'iters'
p355
I4
sS'meta'
p356
(lp357
(dp358
S'objective'
p359
I5
sS'query_time'
p360
F10.395567893981934
sS'comp_time'
p361
F0.961158275604248
sS'exec_cq'
p362
I3
sS'total_cq'
p363
I6
sa(dp364
g359
I1
sg360
F0.0011701583862304688
sg361
F0.0004451274871826172
sg362
I1
sg363
I4
sa(dp365
g359
I1
sg360
F0.846189022064209
sg361
F0.0007021427154541016
sg362
I2
sg363
I3
sa(dp366
g359
I1
sg360
F0.0006890296936035156
sg361
F0.0009708404541015625
sg362
I2
sg363
I2
sasS'total_cqs'
p367
I6
ssI42
(dp368
S'iters'
p369
I1
sS'meta'
p370
(lp371
(dp372
S'objective'
p373
I1
sS'query_time'
p374
F0.011082887649536133
sS'comp_time'
p375
F0.0013458728790283203
sS'exec_cq'
p376
I1
sS'total_cq'
p377
I2
sasS'total_cqs'
p378
I2
ssI44
(dp379
S'iters'
p380
I3
sS'meta'
p381
(lp382
(dp383
S'objective'
p384
I3
sS'query_time'
p385
F1.5987818241119385
sS'comp_time'
p386
F0.028692007064819336
sS'exec_cq'
p387
I4
sS'total_cq'
p388
I5
sa(dp389
g384
I1
sg385
F0.07102179527282715
sg386
F0.029764175415039062
sg387
I2
sg388
I3
sa(dp390
g384
I2
sg385
F7.200241088867188e-05
sg386
F6.175041198730469e-05
sg387
I1
sg388
I2
sasS'total_cqs'
p391
I5
ssI45
(dp392
S'iters'
p393
I2
sS'meta'
p394
(lp395
(dp396
S'objective'
p397
I3
sS'query_time'
p398
F0.0394289493560791
sS'comp_time'
p399
F0.0023436546325683594
sS'exec_cq'
p400
I3
sS'total_cq'
p401
I5
sa(dp402
g397
I4
sg398
F0.00012803077697753906
sg399
F0.0001709461212158203
sg400
I2
sg401
I2
sasS'total_cqs'
p403
I5
ssI48
(dp404
S'iters'
p405
I1
sS'meta'
p406
(lp407
(dp408
S'objective'
p409
I1
sS'query_time'
p410
F0.16550493240356445
sS'comp_time'
p411
F0.0022640228271484375
sS'exec_cq'
p412
I2
sS'total_cq'
p413
I2
sasS'total_cqs'
p414
I2
ssI49
(dp415
S'iters'
p416
I3
sS'meta'
p417
(lp418
(dp419
S'objective'
p420
I1
sS'query_time'
p421
F0.24916291236877441
sS'comp_time'
p422
F0.004258632659912109
sS'exec_cq'
p423
I4
sS'total_cq'
p424
I5
sa(dp425
g420
I3
sg421
F0.0631258487701416
sg422
F0.0004279613494873047
sg423
I3
sg424
I3
sa(dp426
g420
I3
sg421
F4.506111145019531e-05
sg422
F0.00010538101196289062
sg423
I2
sg424
I2
sasS'total_cqs'
p427
I5
ssI50
(dp428
S'iters'
p429
I4
sS'meta'
p430
(lp431
(dp432
S'objective'
p433
I5
sS'query_time'
p434
F0.7710769176483154
sS'comp_time'
p435
F0.10274815559387207
sS'exec_cq'
p436
I5
sS'total_cq'
p437
I5
sa(dp438
g433
I2
sg434
F0.0003139972686767578
sg435
F0.00055694580078125
sg436
I4
sg437
I4
sa(dp439
g433
I0
sg434
F0.0002090930938720703
sg435
F0.0003941059112548828
sg436
I3
sg437
I3
sa(dp440
g433
I1
sg434
F0.00018596649169921875
sg435
F0.0003418922424316406
sg436
I2
sg437
I2
sasS'total_cqs'
p441
I5
ssI55
(dp442
S'iters'
p443
I1
sS'meta'
p444
(lp445
(dp446
S'objective'
p447
I1
sS'query_time'
p448
F24.38741397857666
sS'comp_time'
p449
F0.010284662246704102
sS'exec_cq'
p450
I2
sS'total_cq'
p451
I2
sasS'total_cqs'
p452
I2
ssI57
(dp453
S'iters'
p454
I2
sS'meta'
p455
(lp456
(dp457
S'objective'
p458
I2
sS'query_time'
p459
F12.424773931503296
sS'comp_time'
p460
F1.186171293258667
sS'exec_cq'
p461
I3
sS'total_cq'
p462
I3
sa(dp463
g458
I2
sg459
F0.2612907886505127
sg460
F0.3926668167114258
sg461
I1
sg462
I2
sasS'total_cqs'
p464
I3
ssI116
(dp465
S'iters'
p466
I2
sS'meta'
p467
(lp468
(dp469
S'objective'
p470
I193
sS'query_time'
p471
F4.270380973815918
sS'comp_time'
p472
F0.2596406936645508
sS'exec_cq'
p473
I18
sS'total_cq'
p474
I21
sa(dp475
g470
I17
sg471
F0.001068115234375
sg472
F0.0009648799896240234
sg473
I2
sg474
I2
sasS'total_cqs'
p476
I21
ssI117
(dp477
S'iters'
p478
I2
sS'meta'
p479
(lp480
(dp481
S'objective'
p482
I9
sS'query_time'
p483
F0.01092529296875
sS'comp_time'
p484
F0.0014882087707519531
sS'exec_cq'
p485
I4
sS'total_cq'
p486
I5
sa(dp487
g482
I10
sg483
F0.001863241195678711
sg484
F3.9577484130859375e-05
sg485
I4
sg486
I4
sasS'total_cqs'
p488
I5
ss.