(dp0
I1
(dp1
S'iters'
p2
I2
sS'meta'
p3
(lp4
(dp5
S'objective'
p6
I1
sS'query_time'
p7
F15.555056095123291
sS'comp_time'
p8
F0.31859612464904785
sS'exec_cq'
p9
I3
sS'total_cq'
p10
I6
sa(dp11
g6
I2
sg7
F0.08041191101074219
sg8
F0.25964856147766113
sg9
I2
sg10
I2
sasS'total_cqs'
p12
I6
ssI2
(dp13
S'iters'
p14
I1
sS'meta'
p15
(lp16
(dp17
S'objective'
p18
I9
sS'query_time'
p19
F0.8514368534088135
sS'comp_time'
p20
F0.10167527198791504
sS'exec_cq'
p21
I5
sS'total_cq'
p22
I6
sasS'total_cqs'
p23
I6
ssI3
(dp24
S'iters'
p25
I7
sS'meta'
p26
(lp27
(dp28
S'objective'
p29
I397
sS'query_time'
p30
F24.858821868896484
sS'comp_time'
p31
F0.21615386009216309
sS'exec_cq'
p32
I28
sS'total_cq'
p33
I33
sa(dp34
g29
I339
sg30
F0.36428165435791016
sg31
F0.12177109718322754
sg32
I30
sg33
I30
sa(dp35
g29
I291
sg30
F0.12630391120910645
sg31
F0.19624876976013184
sg32
I27
sg33
I27
sa(dp36
g29
I238
sg30
F0.028028011322021484
sg31
F0.20221328735351562
sg32
I24
sg33
I24
sa(dp37
g29
I212
sg30
F0.027511119842529297
sg31
F0.14709115028381348
sg32
I21
sg33
I21
sa(dp38
g29
I175
sg30
F0.0936579704284668
sg31
F0.055450439453125
sg32
I18
sg33
I18
sa(dp39
g29
I148
sg30
F0.0918726921081543
sg31
F0.048239946365356445
sg32
I15
sg33
I15
sasS'total_cqs'
p40
I33
ssI6
(dp41
S'iters'
p42
I2
sS'meta'
p43
(lp44
(dp45
S'objective'
p46
I1
sS'query_time'
p47
F13.591232061386108
sS'comp_time'
p48
F0.025693416595458984
sS'exec_cq'
p49
I4
sS'total_cq'
p50
I5
sa(dp51
g46
I2
sg47
F8.606910705566406e-05
sg48
F0.0002841949462890625
sg49
I1
sg50
I2
sasS'total_cqs'
p52
I5
ssI8
(dp53
S'iters'
p54
I2
sS'meta'
p55
(lp56
(dp57
S'objective'
p58
I17
sS'query_time'
p59
F42.778181076049805
sS'comp_time'
p60
F0.1234278678894043
sS'exec_cq'
p61
I6
sS'total_cq'
p62
I6
sa(dp63
g58
I7
sg59
F0.0891718864440918
sg60
F0.0001399517059326172
sg61
I4
sg62
I5
sasS'total_cqs'
p64
I6
ssI9
(dp65
S'iters'
p66
I2
sS'meta'
p67
(lp68
(dp69
S'objective'
p70
I3
sS'query_time'
p71
F10.561131954193115
sS'comp_time'
p72
F0.11088442802429199
sS'exec_cq'
p73
I3
sS'total_cq'
p74
I6
sa(dp75
g70
I3
sg71
F0.0452730655670166
sg72
F0.18148064613342285
sg73
I2
sg74
I2
sasS'total_cqs'
p76
I6
ssI13
(dp77
S'iters'
p78
I1
sS'meta'
p79
(lp80
(dp81
S'objective'
p82
I20
sS'query_time'
p83
F0.015319108963012695
sS'comp_time'
p84
F0.007427692413330078
sS'exec_cq'
p85
I6
sS'total_cq'
p86
I8
sasS'total_cqs'
p87
I8
ssI14
(dp88
S'iters'
p89
I1
sS'meta'
p90
(lp91
(dp92
S'objective'
p93
I5
sS'query_time'
p94
F0.9481151103973389
sS'comp_time'
p95
F0.0037086009979248047
sS'exec_cq'
p96
I5
sS'total_cq'
p97
I5
sasS'total_cqs'
p98
I5
ssI16
(dp99
S'iters'
p100
I2
sS'meta'
p101
(lp102
(dp103
S'objective'
p104
I3
sS'query_time'
p105
F1.2966887950897217
sS'comp_time'
p106
F0.006795167922973633
sS'exec_cq'
p107
I4
sS'total_cq'
p108
I5
sa(dp109
g104
I1
sg105
F4.887580871582031e-05
sg106
F0.0002129077911376953
sg107
I2
sg108
I3
sasS'total_cqs'
p110
I5
ssI18
(dp111
S'iters'
p112
I2
sS'meta'
p113
(lp114
(dp115
S'objective'
p116
I3
sS'query_time'
p117
F0.17546701431274414
sS'comp_time'
p118
F0.0038759708404541016
sS'exec_cq'
p119
I4
sS'total_cq'
p120
I5
sa(dp121
g116
I1
sg117
F0.0555109977722168
sg118
F0.00018310546875
sg119
I1
sg120
I2
sasS'total_cqs'
p122
I5
ssI20
(dp123
S'iters'
p124
I2
sS'meta'
p125
(lp126
(dp127
S'objective'
p128
I40
sS'query_time'
p129
F11.274390697479248
sS'comp_time'
p130
F0.554051399230957
sS'exec_cq'
p131
I10
sS'total_cq'
p132
I12
sa(dp133
g128
I35
sg129
F0.2606809139251709
sg130
F0.5343828201293945
sg131
I9
sg132
I10
sasS'total_cqs'
p134
I12
ssI21
(dp135
S'iters'
p136
I2
sS'meta'
p137
(lp138
(dp139
S'objective'
p140
I63
sS'query_time'
p141
F59.88195586204529
sS'comp_time'
p142
F1.4575200080871582
sS'exec_cq'
p143
I12
sS'total_cq'
p144
I14
sa(dp145
g140
I56
sg141
F0.037405967712402344
sg142
F0.05362105369567871
sg143
I9
sg144
I11
sasS'total_cqs'
p146
I14
ssI22
(dp147
S'iters'
p148
I1
sS'meta'
p149
(lp150
(dp151
S'objective'
p152
I1
sS'query_time'
p153
F0.004922151565551758
sS'comp_time'
p154
F0.0012090206146240234
sS'exec_cq'
p155
I1
sS'total_cq'
p156
I2
sasS'total_cqs'
p157
I2
ssI25
(dp158
S'iters'
p159
I2
sS'meta'
p160
(lp161
(dp162
S'objective'
p163
I12
sS'query_time'
p164
F50.259685754776
sS'comp_time'
p165
F2.007948875427246
sS'exec_cq'
p166
I6
sS'total_cq'
p167
I7
sa(dp168
g163
I6
sg164
F1.7895317077636719
sg165
F2.35988187789917
sg166
I5
sg167
I5
sasS'total_cqs'
p169
I7
ssI26
(dp170
S'iters'
p171
I2
sS'meta'
p172
(lp173
(dp174
S'objective'
p175
I49
sS'query_time'
p176
F19.97016215324402
sS'comp_time'
p177
F2.7667813301086426
sS'exec_cq'
p178
I9
sS'total_cq'
p179
I13
sa(dp180
g175
I44
sg176
F1.0910639762878418
sg177
F2.9898293018341064
sg178
I8
sg179
I11
sasS'total_cqs'
p181
I13
ssI27
(dp182
S'iters'
p183
I1
sS'meta'
p184
(lp185
(dp186
S'objective'
p187
I1
sS'query_time'
p188
F0.1941988468170166
sS'comp_time'
p189
F0.0017120838165283203
sS'exec_cq'
p190
I1
sS'total_cq'
p191
I2
sasS'total_cqs'
p192
I2
ssI28
(dp193
S'iters'
p194
I3
sS'meta'
p195
(lp196
(dp197
S'objective'
p198
I65
sS'query_time'
p199
F1.4816579818725586
sS'comp_time'
p200
F0.14803576469421387
sS'exec_cq'
p201
I6
sS'total_cq'
p202
I14
sa(dp203
g198
I51
sg199
F0.0022630691528320312
sg200
F0.0040721893310546875
sg201
I3
sg202
I11
sa(dp204
g198
I40
sg199
F0.002652883529663086
sg200
F4.100799560546875e-05
sg201
I1
sg202
I9
sasS'total_cqs'
p205
I14
ssI29
(dp206
S'iters'
p207
I1
sS'meta'
p208
(lp209
(dp210
S'objective'
p211
I1
sS'query_time'
p212
F0.0070569515228271484
sS'comp_time'
p213
F0.0014941692352294922
sS'exec_cq'
p214
I2
sS'total_cq'
p215
I2
sasS'total_cqs'
p216
I2
ssI30
(dp217
S'iters'
p218
I1
sS'meta'
p219
(lp220
(dp221
S'objective'
p222
I1
sS'query_time'
p223
F0.32396507263183594
sS'comp_time'
p224
F0.002399921417236328
sS'exec_cq'
p225
I2
sS'total_cq'
p226
I2
sasS'total_cqs'
p227
I2
ssI31
(dp228
S'iters'
p229
I2
sS'meta'
p230
(lp231
(dp232
S'objective'
p233
I9
sS'query_time'
p234
F4.976279258728027
sS'comp_time'
p235
F0.17914867401123047
sS'exec_cq'
p236
I9
sS'total_cq'
p237
I9
sa(dp238
g233
I0
sg234
F0.006649971008300781
sg235
F0.010526657104492188
sg236
I3
sg237
I3
sasS'total_cqs'
p239
I9
ssI32
(dp240
S'iters'
p241
I2
sS'meta'
p242
(lp243
(dp244
S'objective'
p245
I2
sS'query_time'
p246
F17.71699595451355
sS'comp_time'
p247
F1.942133903503418
sS'exec_cq'
p248
I4
sS'total_cq'
p249
I7
sa(dp250
g245
I1
sg246
F0.09610295295715332
sg247
F0.00022292137145996094
sg248
I1
sg249
I4
sasS'total_cqs'
p251
I7
ssI33
(dp252
S'iters'
p253
I1
sS'meta'
p254
(lp255
(dp256
S'objective'
p257
I1
sS'query_time'
p258
F0.05206894874572754
sS'comp_time'
p259
F0.0015590190887451172
sS'exec_cq'
p260
I2
sS'total_cq'
p261
I2
sasS'total_cqs'
p262
I2
ssI35
(dp263
S'iters'
p264
I2
sS'meta'
p265
(lp266
(dp267
S'objective'
p268
I1
sS'query_time'
p269
F14.549092054367065
sS'comp_time'
p270
F0.08107805252075195
sS'exec_cq'
p271
I4
sS'total_cq'
p272
I5
sa(dp273
g268
I2
sg269
F0.015311956405639648
sg270
F0.08787178993225098
sg271
I2
sg272
I3
sasS'total_cqs'
p274
I5
ssI37
(dp275
S'iters'
p276
I2
sS'meta'
p277
(lp278
(dp279
S'objective'
p280
I25
sS'query_time'
p281
F1.9622242450714111
sS'comp_time'
p282
F0.04118013381958008
sS'exec_cq'
p283
I8
sS'total_cq'
p284
I10
sa(dp285
g280
I5
sg281
F0.0033729076385498047
sg282
F0.0946657657623291
sg283
I2
sg284
I2
sasS'total_cqs'
p286
I10
ssI40
(dp287
S'iters'
p288
I1
sS'meta'
p289
(lp290
(dp291
S'objective'
p292
I1
sS'query_time'
p293
F0.003695964813232422
sS'comp_time'
p294
F0.001374959945678711
sS'exec_cq'
p295
I1
sS'total_cq'
p296
I2
sasS'total_cqs'
p297
I2
ssI41
(dp298
S'iters'
p299
I2
sS'meta'
p300
(lp301
(dp302
S'objective'
p303
I1
sS'query_time'
p304
F1.1476659774780273
sS'comp_time'
p305
F0.0042438507080078125
sS'exec_cq'
p306
I2
sS'total_cq'
p307
I6
sa(dp308
g303
I2
sg304
F0.0008409023284912109
sg305
F0.001287698745727539
sg306
I2
sg307
I2
sasS'total_cqs'
p309
I6
ssI42
(dp310
S'iters'
p311
I1
sS'meta'
p312
(lp313
(dp314
S'objective'
p315
I1
sS'query_time'
p316
F0.008905887603759766
sS'comp_time'
p317
F0.0009641647338867188
sS'exec_cq'
p318
I1
sS'total_cq'
p319
I2
sasS'total_cqs'
p320
I2
ssI44
(dp321
S'iters'
p322
I2
sS'meta'
p323
(lp324
(dp325
S'objective'
p326
I1
sS'query_time'
p327
F0.2700388431549072
sS'comp_time'
p328
F0.0026352405548095703
sS'exec_cq'
p329
I2
sS'total_cq'
p330
I5
sa(dp331
g326
I2
sg327
F1.222156047821045
sg328
F0.02651810646057129
sg329
I3
sg330
I3
sasS'total_cqs'
p332
I5
ssI45
(dp333
S'iters'
p334
I2
sS'meta'
p335
(lp336
(dp337
S'objective'
p338
I3
sS'query_time'
p339
F0.03650212287902832
sS'comp_time'
p340
F0.0024671554565429688
sS'exec_cq'
p341
I3
sS'total_cq'
p342
I5
sa(dp343
g338
I4
sg339
F0.00015091896057128906
sg340
F0.0002148151397705078
sg341
I2
sg342
I2
sasS'total_cqs'
p344
I5
ssI48
(dp345
S'iters'
p346
I1
sS'meta'
p347
(lp348
(dp349
S'objective'
p350
I1
sS'query_time'
p351
F0.19356107711791992
sS'comp_time'
p352
F0.002099752426147461
sS'exec_cq'
p353
I2
sS'total_cq'
p354
I2
sasS'total_cqs'
p355
I2
ssI49
(dp356
S'iters'
p357
I2
sS'meta'
p358
(lp359
(dp360
S'objective'
p361
I3
sS'query_time'
p362
F0.3216738700866699
sS'comp_time'
p363
F0.0034241676330566406
sS'exec_cq'
p364
I4
sS'total_cq'
p365
I5
sa(dp366
g361
I4
sg362
F0.0003058910369873047
sg363
F0.0005991458892822266
sg364
I2
sg365
I2
sasS'total_cqs'
p367
I5
ssI50
(dp368
S'iters'
p369
I1
sS'meta'
p370
(lp371
(dp372
S'objective'
p373
I5
sS'query_time'
p374
F0.7307989597320557
sS'comp_time'
p375
F0.05677390098571777
sS'exec_cq'
p376
I5
sS'total_cq'
p377
I5
sasS'total_cqs'
p378
I5
ssI55
(dp379
S'iters'
p380
I1
sS'meta'
p381
(lp382
(dp383
S'objective'
p384
I1
sS'query_time'
p385
F24.68999695777893
sS'comp_time'
p386
F0.015970706939697266
sS'exec_cq'
p387
I2
sS'total_cq'
p388
I2
sasS'total_cqs'
p389
I2
ssI57
(dp390
S'iters'
p391
I1
sS'meta'
p392
(lp393
(dp394
S'objective'
p395
I0
sS'query_time'
p396
F12.130612850189209
sS'comp_time'
p397
F0.8531532287597656
sS'exec_cq'
p398
I2
sS'total_cq'
p399
I3
sasS'total_cqs'
p400
I3
ssI116
(dp401
S'iters'
p402
I3
sS'meta'
p403
(lp404
(dp405
S'objective'
p406
I165
sS'query_time'
p407
F3.8717496395111084
sS'comp_time'
p408
F0.3187260627746582
sS'exec_cq'
p409
I15
sS'total_cq'
p410
I21
sa(dp411
g406
I150
sg407
F0.5332906246185303
sg408
F0.0007231235504150391
sg409
I14
sg410
I19
sa(dp412
g406
I18
sg407
F0.0014028549194335938
sg408
F0.0011408329010009766
sg409
I2
sg410
I2
sasS'total_cqs'
p413
I21
ssI117
(dp414
S'iters'
p415
I1
sS'meta'
p416
(lp417
(dp418
S'objective'
p419
I5
sS'query_time'
p420
F0.011438846588134766
sS'comp_time'
p421
F0.0015180110931396484
sS'exec_cq'
p422
I4
sS'total_cq'
p423
I5
sasS'total_cqs'
p424
I5
ss.