(dp0
I1
(dp1
S'iters'
p2
I1
sS'meta'
p3
(lp4
(dp5
S'objective'
p6
I9
sS'query_time'
p7
F25.850882053375244
sS'comp_time'
p8
F20.10499382019043
sS'exec_cq'
p9
I6
sS'total_cq'
p10
I6
sasS'total_cqs'
p11
I6
ssI2
(dp12
S'iters'
p13
I1
sS'meta'
p14
(lp15
(dp16
S'objective'
p17
I9
sS'query_time'
p18
F6.548413991928101
sS'comp_time'
p19
F0.07958197593688965
sS'exec_cq'
p20
I6
sS'total_cq'
p21
I6
sasS'total_cqs'
p22
I6
ssI3
(dp23
S'iters'
p24
I7
sS'meta'
p25
(lp26
(dp27
S'objective'
p28
I435
sS'query_time'
p29
F62.992758989334106
sS'comp_time'
p30
F0.1641550064086914
sS'exec_cq'
p31
I33
sS'total_cq'
p32
I33
sa(dp33
g28
I382
sg29
F0.0227811336517334
sg30
F0.14484405517578125
sg31
I30
sg32
I30
sa(dp34
g28
I334
sg29
F0.03601789474487305
sg30
F0.1123201847076416
sg31
I27
sg32
I27
sa(dp35
g28
I285
sg29
F0.01589488983154297
sg30
F0.11245298385620117
sg31
I24
sg32
I24
sa(dp36
g28
I244
sg29
F0.04094195365905762
sg30
F0.08313107490539551
sg31
I21
sg32
I21
sa(dp37
g28
I210
sg29
F0.006501197814941406
sg30
F0.036202192306518555
sg31
I18
sg32
I18
sa(dp38
g28
I184
sg29
F0.006707906723022461
sg30
F0.05923724174499512
sg31
I15
sg32
I15
sasS'total_cqs'
p39
I33
ssI4
(dp40
S'iters'
p41
I0
sS'meta'
p42
(lp43
sS'total_cqs'
p44
I1
ssI5
(dp45
S'iters'
p46
I0
sS'meta'
p47
(lp48
sS'total_cqs'
p49
I1
ssI6
(dp50
S'iters'
p51
I3
sS'meta'
p52
(lp53
(dp54
S'objective'
p55
I1
sS'query_time'
p56
F25.481483936309814
sS'comp_time'
p57
F25.743160724639893
sS'exec_cq'
p58
I5
sS'total_cq'
p59
I5
sa(dp60
g55
I6
sg56
F7.009506225585938e-05
sg57
F1.0667519569396973
sg58
I3
sg59
I3
sa(dp61
g55
I3
sg56
F9.489059448242188e-05
sg57
F52.65433406829834
sg58
I2
sg59
I2
sasS'total_cqs'
p62
I5
ssI7
(dp63
S'iters'
p64
I0
sS'meta'
p65
(lp66
sS'total_cqs'
p67
I1
ssI8
(dp68
S'iters'
p69
I1
sS'meta'
p70
(lp71
(dp72
S'objective'
p73
I9
sS'query_time'
p74
F40.32485890388489
sS'comp_time'
p75
F13.572829008102417
sS'exec_cq'
p76
I6
sS'total_cq'
p77
I6
sasS'total_cqs'
p78
I6
ssI9
(dp79
S'iters'
p80
I2
sS'meta'
p81
(lp82
(dp83
S'objective'
p84
I1
sS'query_time'
p85
F29.90812397003174
sS'comp_time'
p86
F20.235986948013306
sS'exec_cq'
p87
I6
sS'total_cq'
p88
I6
sa(dp89
g84
I1
sg85
F0.09337115287780762
sg86
F0.22284793853759766
sg87
I2
sg88
I2
sasS'total_cqs'
p90
I6
ssI10
(dp91
S'iters'
p92
I0
sS'meta'
p93
(lp94
sS'total_cqs'
p95
I1
ssI11
(dp96
S'iters'
p97
I0
sS'meta'
p98
(lp99
sS'total_cqs'
p100
I1
ssI12
(dp101
S'iters'
p102
I0
sS'meta'
p103
(lp104
sS'total_cqs'
p105
I1
ssI13
(dp106
S'iters'
p107
I1
sS'meta'
p108
(lp109
(dp110
S'objective'
p111
I20
sS'query_time'
p112
F0.42967700958251953
sS'comp_time'
p113
F0.00011086463928222656
sS'exec_cq'
p114
I8
sS'total_cq'
p115
I8
sasS'total_cqs'
p116
I8
ssI14
(dp117
S'iters'
p118
I3
sS'meta'
p119
(lp120
(dp121
S'objective'
p122
I11
sS'query_time'
p123
F44.84583902359009
sS'comp_time'
p124
F0.006888866424560547
sS'exec_cq'
p125
I5
sS'total_cq'
p126
I5
sa(dp127
g122
I11
sg123
F5.1975250244140625e-05
sg124
F0.0018200874328613281
sg125
I4
sg126
I4
sa(dp128
g122
I2
sg123
F0.004853248596191406
sg124
F0.1354961395263672
sg125
I3
sg126
I3
sasS'total_cqs'
p129
I5
ssI16
(dp130
S'iters'
p131
I2
sS'meta'
p132
(lp133
(dp134
S'objective'
p135
I3
sS'query_time'
p136
F27.15819811820984
sS'comp_time'
p137
F20.01384401321411
sS'exec_cq'
p138
I5
sS'total_cq'
p139
I5
sa(dp140
g135
I1
sg136
F0.00015306472778320312
sg137
F0.0006191730499267578
sg138
I2
sg139
I2
sasS'total_cqs'
p141
I5
ssI17
(dp142
S'iters'
p143
I0
sS'meta'
p144
(lp145
sS'total_cqs'
p146
I1
ssI18
(dp147
S'iters'
p148
I2
sS'meta'
p149
(lp150
(dp151
S'objective'
p152
I1
sS'query_time'
p153
F12.101852178573608
sS'comp_time'
p154
F0.0003952980041503906
sS'exec_cq'
p155
I5
sS'total_cq'
p156
I5
sa(dp157
g152
I2
sg153
F4.410743713378906e-05
sg154
F0.00015091896057128906
sg155
I2
sg156
I2
sasS'total_cqs'
p158
I5
ssI19
(dp159
S'iters'
p160
I0
sS'meta'
p161
(lp162
sS'total_cqs'
p163
I1
ssI20
(dp164
S'iters'
p165
I3
sS'meta'
p166
(lp167
(dp168
S'objective'
p169
I40
sS'query_time'
p170
F54.14722180366516
sS'comp_time'
p171
F1.1220970153808594
sS'exec_cq'
p172
I12
sS'total_cq'
p173
I12
sa(dp174
g169
I33
sg170
F0.24438214302062988
sg171
F0.9436912536621094
sg172
I10
sg173
I10
sa(dp175
g169
I22
sg170
F0.2022380828857422
sg171
F0.8899798393249512
sg172
I8
sg173
I8
sasS'total_cqs'
p176
I12
ssI21
(dp177
S'iters'
p178
I2
sS'meta'
p179
(lp180
(dp181
S'objective'
p182
I59
sS'query_time'
p183
F47.21899700164795
sS'comp_time'
p184
F0.22257399559020996
sS'exec_cq'
p185
I14
sS'total_cq'
p186
I14
sa(dp187
g182
I5
sg183
F0.004375934600830078
sg184
F0.023761987686157227
sg185
I2
sg186
I2
sasS'total_cqs'
p188
I14
ssI22
(dp189
S'iters'
p190
I1
sS'meta'
p191
(lp192
(dp193
S'objective'
p194
I1
sS'query_time'
p195
F0.01302194595336914
sS'comp_time'
p196
F0.00015783309936523438
sS'exec_cq'
p197
I2
sS'total_cq'
p198
I2
sasS'total_cqs'
p199
I2
ssI23
(dp200
S'iters'
p201
I0
sS'meta'
p202
(lp203
sS'total_cqs'
p204
I1
ssI24
(dp205
S'iters'
p206
I0
sS'meta'
p207
(lp208
sS'total_cqs'
p209
I1
ssI25
(dp210
S'iters'
p211
I1
sS'meta'
p212
(lp213
(dp214
S'objective'
p215
I14
sS'query_time'
p216
F27.933473110198975
sS'comp_time'
p217
F0.014653682708740234
sS'exec_cq'
p218
I7
sS'total_cq'
p219
I7
sasS'total_cqs'
p220
I7
ssI26
(dp221
S'iters'
p222
I3
sS'meta'
p223
(lp224
(dp225
S'objective'
p226
I53
sS'query_time'
p227
F28.65599012374878
sS'comp_time'
p228
F0.03771018981933594
sS'exec_cq'
p229
I13
sS'total_cq'
p230
I13
sa(dp231
g226
I44
sg227
F0.003319978713989258
sg228
F0.01738595962524414
sg229
I11
sg230
I11
sa(dp232
g226
I32
sg227
F0.002257823944091797
sg228
F0.013077020645141602
sg229
I9
sg230
I9
sasS'total_cqs'
p233
I13
ssI27
(dp234
S'iters'
p235
I1
sS'meta'
p236
(lp237
(dp238
S'objective'
p239
I1
sS'query_time'
p240
F13.819214820861816
sS'comp_time'
p241
F0.0036301612854003906
sS'exec_cq'
p242
I2
sS'total_cq'
p243
I2
sasS'total_cqs'
p244
I2
ssI28
(dp245
S'iters'
p246
I2
sS'meta'
p247
(lp248
(dp249
S'objective'
p250
I55
sS'query_time'
p251
F28.99832010269165
sS'comp_time'
p252
F1.6357967853546143
sS'exec_cq'
p253
I14
sS'total_cq'
p254
I14
sa(dp255
g250
I52
sg251
F0.0007119178771972656
sg252
F0.35933494567871094
sg253
I12
sg254
I12
sasS'total_cqs'
p256
I14
ssI29
(dp257
S'iters'
p258
I1
sS'meta'
p259
(lp260
(dp261
S'objective'
p262
I1
sS'query_time'
p263
F0.013604879379272461
sS'comp_time'
p264
F0.00015926361083984375
sS'exec_cq'
p265
I2
sS'total_cq'
p266
I2
sasS'total_cqs'
p267
I2
ssI30
(dp268
S'iters'
p269
I1
sS'meta'
p270
(lp271
(dp272
S'objective'
p273
I1
sS'query_time'
p274
F20.01721501350403
sS'comp_time'
p275
F0.007308006286621094
sS'exec_cq'
p276
I2
sS'total_cq'
p277
I2
sasS'total_cqs'
p278
I2
ssI31
(dp279
S'iters'
p280
I4
sS'meta'
p281
(lp282
(dp283
S'objective'
p284
I29
sS'query_time'
p285
F20.47048783302307
sS'comp_time'
p286
F0.008975982666015625
sS'exec_cq'
p287
I9
sS'total_cq'
p288
I9
sa(dp289
g284
I23
sg285
F4.601478576660156e-05
sg286
F0.0046350955963134766
sg287
I8
sg288
I8
sa(dp290
g284
I16
sg285
F4.291534423828125e-05
sg286
F0.004781007766723633
sg287
I7
sg288
I7
sa(dp291
g284
I5
sg285
F4.327306032180786
sg286
F20.985235691070557
sg287
I5
sg288
I5
sasS'total_cqs'
p292
I9
ssI32
(dp293
S'iters'
p294
I1
sS'meta'
p295
(lp296
(dp297
S'objective'
p298
I14
sS'query_time'
p299
F50.41742992401123
sS'comp_time'
p300
F0.6007571220397949
sS'exec_cq'
p301
I7
sS'total_cq'
p302
I7
sasS'total_cqs'
p303
I7
ssI33
(dp304
S'iters'
p305
I1
sS'meta'
p306
(lp307
(dp308
S'objective'
p309
I1
sS'query_time'
p310
F8.676795959472656
sS'comp_time'
p311
F0.00019311904907226562
sS'exec_cq'
p312
I2
sS'total_cq'
p313
I2
sasS'total_cqs'
p314
I2
ssI34
(dp315
S'iters'
p316
I0
sS'meta'
p317
(lp318
sS'total_cqs'
p319
I1
ssI35
(dp320
S'iters'
p321
I1
sS'meta'
p322
(lp323
(dp324
S'objective'
p325
I5
sS'query_time'
p326
F26.933372974395752
sS'comp_time'
p327
F24.942281007766724
sS'exec_cq'
p328
I5
sS'total_cq'
p329
I5
sasS'total_cqs'
p330
I5
ssI37
(dp331
S'iters'
p332
I5
sS'meta'
p333
(lp334
(dp335
S'objective'
p336
I41
sS'query_time'
p337
F21.08604598045349
sS'comp_time'
p338
F0.008682966232299805
sS'exec_cq'
p339
I10
sS'total_cq'
p340
I10
sa(dp341
g336
I38
sg337
F4.291534423828125e-05
sg338
F0.0034770965576171875
sg339
I9
sg340
I9
sa(dp342
g336
I35
sg337
F3.3855438232421875e-05
sg338
F0.0030062198638916016
sg339
I8
sg340
I8
sa(dp343
g336
I35
sg337
F3.0040740966796875e-05
sg338
F0.0028138160705566406
sg339
I7
sg340
I7
sa(dp344
g336
I17
sg337
F3.200317144393921
sg338
F21.32234787940979
sg339
I6
sg340
I6
sasS'total_cqs'
p345
I10
ssI38
(dp346
S'iters'
p347
I0
sS'meta'
p348
(lp349
sS'total_cqs'
p350
I1
ssI39
(dp351
S'iters'
p352
I0
sS'meta'
p353
(lp354
sS'total_cqs'
p355
I1
ssI40
(dp356
S'iters'
p357
I1
sS'meta'
p358
(lp359
(dp360
S'objective'
p361
I1
sS'query_time'
p362
F20.086292028427124
sS'comp_time'
p363
F1.1319587230682373
sS'exec_cq'
p364
I2
sS'total_cq'
p365
I2
sasS'total_cqs'
p366
I2
ssI41
(dp367
S'iters'
p368
I2
sS'meta'
p369
(lp370
(dp371
S'objective'
p372
I1
sS'query_time'
p373
F50.25723195075989
sS'comp_time'
p374
F20.20243501663208
sS'exec_cq'
p375
I6
sS'total_cq'
p376
I6
sa(dp377
g372
I2
sg373
F0.0007951259613037109
sg374
F0.0033969879150390625
sg375
I2
sg376
I2
sasS'total_cqs'
p378
I6
ssI42
(dp379
S'iters'
p380
I1
sS'meta'
p381
(lp382
(dp383
S'objective'
p384
I1
sS'query_time'
p385
F24.456845998764038
sS'comp_time'
p386
F0.004868984222412109
sS'exec_cq'
p387
I2
sS'total_cq'
p388
I2
sasS'total_cqs'
p389
I2
ssI43
(dp390
S'iters'
p391
I0
sS'meta'
p392
(lp393
sS'total_cqs'
p394
I1
ssI44
(dp395
S'iters'
p396
I2
sS'meta'
p397
(lp398
(dp399
S'objective'
p400
I5
sS'query_time'
p401
F10.915996074676514
sS'comp_time'
p402
F0.08211994171142578
sS'exec_cq'
p403
I5
sS'total_cq'
p404
I5
sa(dp405
g400
I0
sg401
F0.012724161148071289
sg402
F0.08145403861999512
sg403
I3
sg404
I3
sasS'total_cqs'
p406
I5
ssI45
(dp407
S'iters'
p408
I2
sS'meta'
p409
(lp410
(dp411
S'objective'
p412
I3
sS'query_time'
p413
F2.098273992538452
sS'comp_time'
p414
F0.0006620883941650391
sS'exec_cq'
p415
I5
sS'total_cq'
p416
I5
sa(dp417
g412
I4
sg413
F0.00010704994201660156
sg414
F0.00034809112548828125
sg415
I2
sg416
I2
sasS'total_cqs'
p418
I5
ssI46
(dp419
S'iters'
p420
I0
sS'meta'
p421
(lp422
sS'total_cqs'
p423
I1
ssI47
(dp424
S'iters'
p425
I0
sS'meta'
p426
(lp427
sS'total_cqs'
p428
I1
ssI48
(dp429
S'iters'
p430
I1
sS'meta'
p431
(lp432
(dp433
S'objective'
p434
I1
sS'query_time'
p435
F13.17123293876648
sS'comp_time'
p436
F0.0055310726165771484
sS'exec_cq'
p437
I2
sS'total_cq'
p438
I2
sasS'total_cqs'
p439
I2
ssI49
(dp440
S'iters'
p441
I2
sS'meta'
p442
(lp443
(dp444
S'objective'
p445
I1
sS'query_time'
p446
F7.954277992248535
sS'comp_time'
p447
F0.0022389888763427734
sS'exec_cq'
p448
I5
sS'total_cq'
p449
I5
sa(dp450
g445
I2
sg446
F2.5033950805664062e-05
sg447
F8.797645568847656e-05
sg448
I2
sg449
I2
sasS'total_cqs'
p451
I5
ssI50
(dp452
S'iters'
p453
I4
sS'meta'
p454
(lp455
(dp456
S'objective'
p457
I7
sS'query_time'
p458
F44.80036401748657
sS'comp_time'
p459
F0.0034530162811279297
sS'exec_cq'
p460
I5
sS'total_cq'
p461
I5
sa(dp462
g457
I5
sg458
F0.00010013580322265625
sg459
F0.0015058517456054688
sg460
I4
sg461
I4
sa(dp463
g457
I4
sg458
F7.414817810058594e-05
sg459
F0.0010540485382080078
sg460
I3
sg461
I3
sa(dp464
g457
I4
sg458
F6.699562072753906e-05
sg459
F0.0009827613830566406
sg460
I2
sg461
I2
sasS'total_cqs'
p465
I5
ssI51
(dp466
S'iters'
p467
I0
sS'meta'
p468
(lp469
sS'total_cqs'
p470
I1
ssI52
(dp471
S'iters'
p472
I0
sS'meta'
p473
(lp474
sS'total_cqs'
p475
I1
ssI53
(dp476
S'iters'
p477
I0
sS'meta'
p478
(lp479
sS'total_cqs'
p480
I1
ssI55
(dp481
S'iters'
p482
I1
sS'meta'
p483
(lp484
(dp485
S'objective'
p486
I1
sS'query_time'
p487
F53.76678395271301
sS'comp_time'
p488
F24.394903898239136
sS'exec_cq'
p489
I2
sS'total_cq'
p490
I2
sasS'total_cqs'
p491
I2
ssI56
(dp492
S'iters'
p493
I0
sS'meta'
p494
(lp495
sS'total_cqs'
p496
I1
ssI57
(dp497
S'iters'
p498
I1
sS'meta'
p499
(lp500
(dp501
S'objective'
p502
I0
sS'query_time'
p503
F21.413007020950317
sS'comp_time'
p504
F0.06348180770874023
sS'exec_cq'
p505
I3
sS'total_cq'
p506
I3
sasS'total_cqs'
p507
I3
ssI108
(dp508
S'iters'
p509
I0
sS'meta'
p510
(lp511
sS'total_cqs'
p512
I1
ssI109
(dp513
S'iters'
p514
I0
sS'meta'
p515
(lp516
sS'total_cqs'
p517
I1
ssI116
(dp518
S'iters'
p519
I2
sS'meta'
p520
(lp521
(dp522
S'objective'
p523
I139
sS'query_time'
p524
F44.520262002944946
sS'comp_time'
p525
F0.2814218997955322
sS'exec_cq'
p526
I21
sS'total_cq'
p527
I21
sa(dp528
g523
I4
sg524
F0.0013740062713623047
sg525
F0.003978729248046875
sg526
I3
sg527
I3
sasS'total_cqs'
p529
I21
ssI117
(dp530
S'iters'
p531
I1
sS'meta'
p532
(lp533
(dp534
S'objective'
p535
I5
sS'query_time'
p536
F1.5431079864501953
sS'comp_time'
p537
F0.00012612342834472656
sS'exec_cq'
p538
I5
sS'total_cq'
p539
I5
sasS'total_cqs'
p540
I5
ssI118
(dp541
S'iters'
p542
I0
sS'meta'
p543
(lp544
sS'total_cqs'
p545
I1
ssI122
(dp546
S'iters'
p547
I0
sS'meta'
p548
(lp549
sS'total_cqs'
p550
I1
ss.