(dp0
I1
(dp1
S'iters'
p2
I2
sS'meta'
p3
(lp4
(dp5
S'objective'
p6
I3
sS'query_time'
p7
F16.897650003433228
sS'comp_time'
p8
F0.321514368057251
sS'exec_cq'
p9
I3
sS'total_cq'
p10
I6
sa(dp11
g6
I1
sg7
F0.09409284591674805
sg8
F0.2538597583770752
sg9
I2
sg10
I2
sasS'total_cqs'
p12
I6
ssI2
(dp13
S'iters'
p14
I1
sS'meta'
p15
(lp16
(dp17
S'objective'
p18
I13
sS'query_time'
p19
F1.006376028060913
sS'comp_time'
p20
F0.1958630084991455
sS'exec_cq'
p21
I6
sS'total_cq'
p22
I6
sasS'total_cqs'
p23
I6
ssI3
(dp24
S'iters'
p25
I9
sS'meta'
p26
(lp27
(dp28
S'objective'
p29
I415
sS'query_time'
p30
F25.95234704017639
sS'comp_time'
p31
F0.27735090255737305
sS'exec_cq'
p32
I28
sS'total_cq'
p33
I33
sa(dp34
g29
I348
sg30
F0.0230710506439209
sg31
F0.04639601707458496
sg32
I25
sg33
I30
sa(dp35
g29
I278
sg30
F0.0789339542388916
sg31
F0.049453020095825195
sg32
I22
sg33
I27
sa(dp36
g29
I222
sg30
F0.08357787132263184
sg31
F0.049521684646606445
sg32
I19
sg33
I24
sa(dp37
g29
I179
sg30
F0.27460718154907227
sg31
F0.13468384742736816
sg32
I21
sg33
I21
sa(dp38
g29
I134
sg30
F0.028656959533691406
sg31
F0.13499045372009277
sg32
I18
sg33
I18
sa(dp39
g29
I97
sg30
F0.02409982681274414
sg31
F0.12921881675720215
sg32
I15
sg33
I15
sa(dp40
g29
I98
sg30
F0.0073320865631103516
sg31
F0.012780427932739258
sg32
I12
sg33
I12
sa(dp41
g29
I83
sg30
F0.006048917770385742
sg31
F0.07168173789978027
sg32
I11
sg33
I11
sasS'total_cqs'
p42
I33
ssI4
(dp43
S'iters'
p44
I0
sS'meta'
p45
(lp46
sS'total_cqs'
p47
I1
ssI5
(dp48
S'iters'
p49
I0
sS'meta'
p50
(lp51
sS'total_cqs'
p52
I1
ssI6
(dp53
S'iters'
p54
I2
sS'meta'
p55
(lp56
(dp57
S'objective'
p58
I1
sS'query_time'
p59
F14.61794900894165
sS'comp_time'
p60
F0.004189968109130859
sS'exec_cq'
p61
I4
sS'total_cq'
p62
I5
sa(dp63
g58
I1
sg59
F0.00040912628173828125
sg60
F0.00074005126953125
sg61
I2
sg62
I3
sasS'total_cqs'
p64
I5
ssI7
(dp65
S'iters'
p66
I0
sS'meta'
p67
(lp68
sS'total_cqs'
p69
I1
ssI8
(dp70
S'iters'
p71
I3
sS'meta'
p72
(lp73
(dp74
S'objective'
p75
I19
sS'query_time'
p76
F43.29819321632385
sS'comp_time'
p77
F0.13008522987365723
sS'exec_cq'
p78
I6
sS'total_cq'
p79
I6
sa(dp80
g75
I6
sg76
F0.17211079597473145
sg77
F0.00021028518676757812
sg78
I4
sg79
I5
sa(dp81
g75
I5
sg76
F0.0034651756286621094
sg77
F0.0001404285430908203
sg78
I3
sg79
I3
sasS'total_cqs'
p82
I6
ssI9
(dp83
S'iters'
p84
I2
sS'meta'
p85
(lp86
(dp87
S'objective'
p88
I7
sS'query_time'
p89
F51.71918487548828
sS'comp_time'
p90
F2.43324613571167
sS'exec_cq'
p91
I5
sS'total_cq'
p92
I6
sa(dp93
g88
I1
sg89
F0.04244685173034668
sg90
F0.14555001258850098
sg91
I3
sg92
I3
sasS'total_cqs'
p94
I6
ssI10
(dp95
S'iters'
p96
I0
sS'meta'
p97
(lp98
sS'total_cqs'
p99
I1
ssI11
(dp100
S'iters'
p101
I0
sS'meta'
p102
(lp103
sS'total_cqs'
p104
I1
ssI12
(dp105
S'iters'
p106
I0
sS'meta'
p107
(lp108
sS'total_cqs'
p109
I1
ssI13
(dp110
S'iters'
p111
I2
sS'meta'
p112
(lp113
(dp114
S'objective'
p115
I22
sS'query_time'
p116
F0.020930051803588867
sS'comp_time'
p117
F0.008885860443115234
sS'exec_cq'
p118
I6
sS'total_cq'
p119
I8
sa(dp120
g115
I19
sg116
F3.2901763916015625e-05
sg117
F8.96453857421875e-05
sg118
I5
sg119
I7
sasS'total_cqs'
p121
I8
ssI14
(dp122
S'iters'
p123
I1
sS'meta'
p124
(lp125
(dp126
S'objective'
p127
I7
sS'query_time'
p128
F1.0039138793945312
sS'comp_time'
p129
F0.005032062530517578
sS'exec_cq'
p130
I5
sS'total_cq'
p131
I5
sasS'total_cqs'
p132
I5
ssI16
(dp133
S'iters'
p134
I2
sS'meta'
p135
(lp136
(dp137
S'objective'
p138
I1
sS'query_time'
p139
F1.4360430240631104
sS'comp_time'
p140
F0.009929180145263672
sS'exec_cq'
p141
I4
sS'total_cq'
p142
I5
sa(dp143
g138
I1
sg139
F0.001689910888671875
sg140
F0.0069332122802734375
sg141
I3
sg142
I3
sasS'total_cqs'
p144
I5
ssI17
(dp145
S'iters'
p146
I0
sS'meta'
p147
(lp148
sS'total_cqs'
p149
I1
ssI18
(dp150
S'iters'
p151
I3
sS'meta'
p152
(lp153
(dp154
S'objective'
p155
I1
sS'query_time'
p156
F0.167388916015625
sS'comp_time'
p157
F0.004331827163696289
sS'exec_cq'
p158
I4
sS'total_cq'
p159
I5
sa(dp160
g155
I3
sg156
F4.291534423828125e-05
sg157
F0.0001652240753173828
sg158
I2
sg159
I3
sa(dp161
g155
I3
sg156
F0.016854047775268555
sg157
F0.0001423358917236328
sg158
I2
sg159
I2
sasS'total_cqs'
p162
I5
ssI19
(dp163
S'iters'
p164
I0
sS'meta'
p165
(lp166
sS'total_cqs'
p167
I1
ssI20
(dp168
S'iters'
p169
I4
sS'meta'
p170
(lp171
(dp172
S'objective'
p173
I44
sS'query_time'
p174
F14.623866319656372
sS'comp_time'
p175
F0.7072606086730957
sS'exec_cq'
p176
I10
sS'total_cq'
p177
I12
sa(dp178
g173
I29
sg174
F0.2663440704345703
sg175
F0.5166668891906738
sg176
I8
sg177
I10
sa(dp179
g173
I19
sg174
F0.19009113311767578
sg175
F0.4638228416442871
sg176
I4
sg177
I8
sa(dp180
g173
I18
sg174
F0.2147068977355957
sg175
F0.42923712730407715
sg176
I4
sg177
I6
sasS'total_cqs'
p181
I12
ssI21
(dp182
S'iters'
p183
I5
sS'meta'
p184
(lp185
(dp186
S'objective'
p187
I63
sS'query_time'
p188
F60.81327509880066
sS'comp_time'
p189
F0.9088115692138672
sS'exec_cq'
p190
I12
sS'total_cq'
p191
I14
sa(dp192
g187
I58
sg188
F0.12016510963439941
sg189
F0.0649564266204834
sg190
I8
sg191
I11
sa(dp193
g187
I49
sg188
F0.012928009033203125
sg189
F0.019526958465576172
sg190
I6
sg191
I9
sa(dp194
g187
I40
sg188
F0.387235164642334
sg189
F0.020778179168701172
sg190
I6
sg191
I8
sa(dp195
g187
I34
sg188
F0.024979829788208008
sg189
F0.02146768569946289
sg190
I6
sg191
I7
sasS'total_cqs'
p196
I14
ssI22
(dp197
S'iters'
p198
I1
sS'meta'
p199
(lp200
(dp201
S'objective'
p202
I1
sS'query_time'
p203
F0.004750967025756836
sS'comp_time'
p204
F0.00138092041015625
sS'exec_cq'
p205
I1
sS'total_cq'
p206
I2
sasS'total_cqs'
p207
I2
ssI23
(dp208
S'iters'
p209
I0
sS'meta'
p210
(lp211
sS'total_cqs'
p212
I1
ssI24
(dp213
S'iters'
p214
I0
sS'meta'
p215
(lp216
sS'total_cqs'
p217
I1
ssI25
(dp218
S'iters'
p219
I3
sS'meta'
p220
(lp221
(dp222
S'objective'
p223
I10
sS'query_time'
p224
F47.655766010284424
sS'comp_time'
p225
F2.1118862628936768
sS'exec_cq'
p226
I4
sS'total_cq'
p227
I7
sa(dp228
g223
I5
sg224
F0.015696048736572266
sg225
F0.0001201629638671875
sg226
I2
sg227
I5
sa(dp229
g223
I2
sg224
F0.16382813453674316
sg225
F0.0005128383636474609
sg226
I1
sg227
I4
sasS'total_cqs'
p230
I7
ssI26
(dp231
S'iters'
p232
I6
sS'meta'
p233
(lp234
(dp235
S'objective'
p236
I59
sS'query_time'
p237
F23.176504850387573
sS'comp_time'
p238
F0.016843080520629883
sS'exec_cq'
p239
I7
sS'total_cq'
p240
I13
sa(dp241
g236
I47
sg237
F3.8139960765838623
sg238
F0.0034809112548828125
sg239
I5
sg240
I11
sa(dp242
g236
I35
sg237
F0.000431060791015625
sg238
F0.0006639957427978516
sg239
I3
sg240
I9
sa(dp243
g236
I28
sg237
F0.027464866638183594
sg238
F0.00043702125549316406
sg239
I3
sg240
I8
sa(dp244
g236
I22
sg237
F0.010758161544799805
sg238
F0.0004405975341796875
sg239
I4
sg240
I7
sa(dp245
g236
I14
sg237
F0.0028162002563476562
sg238
F0.0006101131439208984
sg239
I3
sg240
I5
sasS'total_cqs'
p246
I13
ssI27
(dp247
S'iters'
p248
I1
sS'meta'
p249
(lp250
(dp251
S'objective'
p252
I1
sS'query_time'
p253
F0.21638083457946777
sS'comp_time'
p254
F0.002546072006225586
sS'exec_cq'
p255
I1
sS'total_cq'
p256
I2
sasS'total_cqs'
p257
I2
ssI28
(dp258
S'iters'
p259
I6
sS'meta'
p260
(lp261
(dp262
S'objective'
p263
I59
sS'query_time'
p264
F1.557607889175415
sS'comp_time'
p265
F0.1888580322265625
sS'exec_cq'
p266
I6
sS'total_cq'
p267
I14
sa(dp268
g263
I48
sg264
F0.0038530826568603516
sg265
F0.0061626434326171875
sg266
I4
sg267
I12
sa(dp269
g263
I37
sg264
F0.005819082260131836
sg265
F0.00019502639770507812
sg266
I2
sg267
I9
sa(dp270
g263
I27
sg264
F0.018043041229248047
sg265
F0.00013017654418945312
sg266
I1
sg267
I8
sa(dp271
g263
I17
sg264
F0.013176918029785156
sg265
F0.0002529621124267578
sg266
I1
sg267
I7
sa(dp272
g263
I12
sg264
F0.002619028091430664
sg265
F5.0067901611328125e-05
sg266
I1
sg267
I6
sasS'total_cqs'
p273
I14
ssI29
(dp274
S'iters'
p275
I1
sS'meta'
p276
(lp277
(dp278
S'objective'
p279
I1
sS'query_time'
p280
F0.007545948028564453
sS'comp_time'
p281
F0.0019211769104003906
sS'exec_cq'
p282
I2
sS'total_cq'
p283
I2
sasS'total_cqs'
p284
I2
ssI30
(dp285
S'iters'
p286
I1
sS'meta'
p287
(lp288
(dp289
S'objective'
p290
I1
sS'query_time'
p291
F0.39063096046447754
sS'comp_time'
p292
F0.005156993865966797
sS'exec_cq'
p293
I2
sS'total_cq'
p294
I2
sasS'total_cqs'
p295
I2
ssI31
(dp296
S'iters'
p297
I4
sS'meta'
p298
(lp299
(dp300
S'objective'
p301
I17
sS'query_time'
p302
F5.9089860916137695
sS'comp_time'
p303
F0.10165214538574219
sS'exec_cq'
p304
I9
sS'total_cq'
p305
I9
sa(dp306
g301
I9
sg302
F0.010827064514160156
sg303
F0.014103889465332031
sg304
I7
sg305
I7
sa(dp307
g301
I0
sg302
F0.009418964385986328
sg303
F0.0186007022857666
sg304
I5
sg305
I5
sa(dp308
g301
I2
sg302
F0.07628011703491211
sg303
F0.013438224792480469
sg304
I2
sg305
I2
sasS'total_cqs'
p309
I9
ssI32
(dp310
S'iters'
p311
I3
sS'meta'
p312
(lp313
(dp314
S'objective'
p315
I8
sS'query_time'
p316
F22.23703908920288
sS'comp_time'
p317
F1.9413273334503174
sS'exec_cq'
p318
I4
sS'total_cq'
p319
I7
sa(dp320
g315
I4
sg316
F1.1956491470336914
sg317
F0.0029015541076660156
sg318
I2
sg319
I4
sa(dp321
g315
I1
sg316
F0.24695611000061035
sg317
F0.23702096939086914
sg318
I1
sg319
I2
sasS'total_cqs'
p322
I7
ssI33
(dp323
S'iters'
p324
I1
sS'meta'
p325
(lp326
(dp327
S'objective'
p328
I1
sS'query_time'
p329
F0.029597043991088867
sS'comp_time'
p330
F0.0017871856689453125
sS'exec_cq'
p331
I2
sS'total_cq'
p332
I2
sasS'total_cqs'
p333
I2
ssI34
(dp334
S'iters'
p335
I0
sS'meta'
p336
(lp337
sS'total_cqs'
p338
I1
ssI35
(dp339
S'iters'
p340
I2
sS'meta'
p341
(lp342
(dp343
S'objective'
p344
I1
sS'query_time'
p345
F13.57564902305603
sS'comp_time'
p346
F0.10164499282836914
sS'exec_cq'
p347
I4
sS'total_cq'
p348
I5
sa(dp349
g344
I1
sg345
F0.012857913970947266
sg346
F0.08614253997802734
sg347
I2
sg348
I3
sasS'total_cqs'
p350
I5
ssI37
(dp351
S'iters'
p352
I2
sS'meta'
p353
(lp354
(dp355
S'objective'
p356
I23
sS'query_time'
p357
F1.6542341709136963
sS'comp_time'
p358
F0.08581924438476562
sS'exec_cq'
p359
I8
sS'total_cq'
p360
I10
sa(dp361
g356
I4
sg357
F0.003278017044067383
sg358
F0.06510472297668457
sg359
I2
sg360
I2
sasS'total_cqs'
p362
I10
ssI38
(dp363
S'iters'
p364
I0
sS'meta'
p365
(lp366
sS'total_cqs'
p367
I1
ssI39
(dp368
S'iters'
p369
I0
sS'meta'
p370
(lp371
sS'total_cqs'
p372
I1
ssI40
(dp373
S'iters'
p374
I1
sS'meta'
p375
(lp376
(dp377
S'objective'
p378
I1
sS'query_time'
p379
F0.0034890174865722656
sS'comp_time'
p380
F0.0014522075653076172
sS'exec_cq'
p381
I1
sS'total_cq'
p382
I2
sasS'total_cqs'
p383
I2
ssI41
(dp384
S'iters'
p385
I2
sS'meta'
p386
(lp387
(dp388
S'objective'
p389
I3
sS'query_time'
p390
F10.8818199634552
sS'comp_time'
p391
F0.6615886688232422
sS'exec_cq'
p392
I5
sS'total_cq'
p393
I6
sa(dp394
g389
I1
sg390
F0.0008909702301025391
sg391
F0.001065969467163086
sg392
I2
sg393
I2
sasS'total_cqs'
p395
I6
ssI42
(dp396
S'iters'
p397
I1
sS'meta'
p398
(lp399
(dp400
S'objective'
p401
I1
sS'query_time'
p402
F0.009368896484375
sS'comp_time'
p403
F0.0012760162353515625
sS'exec_cq'
p404
I1
sS'total_cq'
p405
I2
sasS'total_cqs'
p406
I2
ssI43
(dp407
S'iters'
p408
I0
sS'meta'
p409
(lp410
sS'total_cqs'
p411
I1
ssI44
(dp412
S'iters'
p413
I2
sS'meta'
p414
(lp415
(dp416
S'objective'
p417
I1
sS'query_time'
p418
F0.3727858066558838
sS'comp_time'
p419
F0.0033409595489501953
sS'exec_cq'
p420
I2
sS'total_cq'
p421
I5
sa(dp422
g417
I1
sg418
F1.3145160675048828
sg419
F0.03295493125915527
sg420
I3
sg421
I3
sasS'total_cqs'
p423
I5
ssI45
(dp424
S'iters'
p425
I2
sS'meta'
p426
(lp427
(dp428
S'objective'
p429
I5
sS'query_time'
p430
F0.02933788299560547
sS'comp_time'
p431
F0.004765987396240234
sS'exec_cq'
p432
I3
sS'total_cq'
p433
I5
sa(dp434
g429
I3
sg430
F0.0001430511474609375
sg431
F0.00020170211791992188
sg432
I2
sg433
I2
sasS'total_cqs'
p435
I5
ssI46
(dp436
S'iters'
p437
I0
sS'meta'
p438
(lp439
sS'total_cqs'
p440
I1
ssI47
(dp441
S'iters'
p442
I0
sS'meta'
p443
(lp444
sS'total_cqs'
p445
I1
ssI48
(dp446
S'iters'
p447
I1
sS'meta'
p448
(lp449
(dp450
S'objective'
p451
I1
sS'query_time'
p452
F0.08700180053710938
sS'comp_time'
p453
F0.0050029754638671875
sS'exec_cq'
p454
I2
sS'total_cq'
p455
I2
sasS'total_cqs'
p456
I2
ssI49
(dp457
S'iters'
p458
I2
sS'meta'
p459
(lp460
(dp461
S'objective'
p462
I1
sS'query_time'
p463
F0.17142200469970703
sS'comp_time'
p464
F0.0036242008209228516
sS'exec_cq'
p465
I4
sS'total_cq'
p466
I5
sa(dp467
g462
I0
sg463
F3.600120544433594e-05
sg464
F0.00010585784912109375
sg465
I2
sg466
I3
sasS'total_cqs'
p468
I5
ssI50
(dp469
S'iters'
p470
I2
sS'meta'
p471
(lp472
(dp473
S'objective'
p474
I5
sS'query_time'
p475
F0.5361940860748291
sS'comp_time'
p476
F0.0019369125366210938
sS'exec_cq'
p477
I5
sS'total_cq'
p478
I5
sa(dp479
g474
I2
sg475
F0.00018787384033203125
sg476
F0.0004439353942871094
sg477
I4
sg478
I4
sasS'total_cqs'
p480
I5
ssI51
(dp481
S'iters'
p482
I0
sS'meta'
p483
(lp484
sS'total_cqs'
p485
I1
ssI52
(dp486
S'iters'
p487
I0
sS'meta'
p488
(lp489
sS'total_cqs'
p490
I1
ssI53
(dp491
S'iters'
p492
I0
sS'meta'
p493
(lp494
sS'total_cqs'
p495
I1
ssI55
(dp496
S'iters'
p497
I1
sS'meta'
p498
(lp499
(dp500
S'objective'
p501
I1
sS'query_time'
p502
F23.961631059646606
sS'comp_time'
p503
F0.016117095947265625
sS'exec_cq'
p504
I2
sS'total_cq'
p505
I2
sasS'total_cqs'
p506
I2
ssI56
(dp507
S'iters'
p508
I0
sS'meta'
p509
(lp510
sS'total_cqs'
p511
I1
ssI57
(dp512
S'iters'
p513
I1
sS'meta'
p514
(lp515
(dp516
S'objective'
p517
I0
sS'query_time'
p518
F12.40304708480835
sS'comp_time'
p519
F0.8243539333343506
sS'exec_cq'
p520
I2
sS'total_cq'
p521
I3
sasS'total_cqs'
p522
I3
ssI108
(dp523
S'iters'
p524
I0
sS'meta'
p525
(lp526
sS'total_cqs'
p527
I1
ssI109
(dp528
S'iters'
p529
I0
sS'meta'
p530
(lp531
sS'total_cqs'
p532
I1
ssI116
(dp533
S'iters'
p534
I3
sS'meta'
p535
(lp536
(dp537
S'objective'
p538
I171
sS'query_time'
p539
F3.63643217086792
sS'comp_time'
p540
F0.20033717155456543
sS'exec_cq'
p541
I15
sS'total_cq'
p542
I21
sa(dp543
g538
I155
sg539
F0.5580217838287354
sg540
F0.0006434917449951172
sg541
I14
sg542
I19
sa(dp544
g538
I1
sg539
F0.0007081031799316406
sg540
F0.0008647441864013672
sg541
I2
sg542
I2
sasS'total_cqs'
p545
I21
ssI117
(dp546
S'iters'
p547
I1
sS'meta'
p548
(lp549
(dp550
S'objective'
p551
I7
sS'query_time'
p552
F0.010039806365966797
sS'comp_time'
p553
F0.0015287399291992188
sS'exec_cq'
p554
I4
sS'total_cq'
p555
I5
sasS'total_cqs'
p556
I5
ssI118
(dp557
S'iters'
p558
I0
sS'meta'
p559
(lp560
sS'total_cqs'
p561
I1
ssI122
(dp562
S'iters'
p563
I0
sS'meta'
p564
(lp565
sS'total_cqs'
p566
I1
ss.