(dp0
I1
(dp1
S'iters'
p2
I2
sS'meta'
p3
(lp4
(dp5
S'objective'
p6
I5
sS'query_time'
p7
F48.03403902053833
sS'comp_time'
p8
F1.2649118900299072
sS'exec_cq'
p9
I5
sS'total_cq'
p10
I6
sa(dp11
g6
I2
sg7
F0.07260894775390625
sg8
F0.24793410301208496
sg9
I2
sg10
I2
sasS'total_cqs'
p12
I6
ssI2
(dp13
S'iters'
p14
I1
sS'meta'
p15
(lp16
(dp17
S'objective'
p18
I15
sS'query_time'
p19
F0.9959089756011963
sS'comp_time'
p20
F0.15171027183532715
sS'exec_cq'
p21
I6
sS'total_cq'
p22
I6
sasS'total_cqs'
p23
I6
ssI3
(dp24
S'iters'
p25
I14
sS'meta'
p26
(lp27
(dp28
S'objective'
p29
I449
sS'query_time'
p30
F26.625993967056274
sS'comp_time'
p31
F0.3749837875366211
sS'exec_cq'
p32
I33
sS'total_cq'
p33
I33
sa(dp34
g29
I395
sg30
F0.14332294464111328
sg31
F0.21191716194152832
sg32
I30
sg33
I30
sa(dp35
g29
I340
sg30
F0.15991806983947754
sg31
F0.22463011741638184
sg32
I27
sg33
I27
sa(dp36
g29
I305
sg30
F0.04781389236450195
sg31
F0.34346985816955566
sg32
I24
sg33
I24
sa(dp37
g29
I260
sg30
F0.043627023696899414
sg31
F0.21364045143127441
sg32
I21
sg33
I21
sa(dp38
g29
I217
sg30
F0.05354499816894531
sg31
F0.3875410556793213
sg32
I19
sg33
I19
sa(dp39
g29
I177
sg30
F0.01771688461303711
sg31
F0.10615110397338867
sg32
I16
sg33
I16
sa(dp40
g29
I145
sg30
F0.012415170669555664
sg31
F0.03159189224243164
sg32
I11
sg33
I13
sa(dp41
g29
I118
sg30
F0.0032858848571777344
sg31
F0.007234096527099609
sg32
I8
sg33
I10
sa(dp42
g29
I88
sg30
F0.002215862274169922
sg31
F0.0056459903717041016
sg32
I7
sg33
I9
sa(dp43
g29
I59
sg30
F0.002602815628051758
sg31
F0.005269527435302734
sg32
I6
sg33
I8
sa(dp44
g29
I35
sg30
F0.0001678466796875
sg31
F0.0002961158752441406
sg32
I3
sg33
I7
sa(dp45
g29
I22
sg30
F0.060083866119384766
sg31
F0.0036613941192626953
sg32
I4
sg33
I6
sa(dp46
g29
I22
sg30
F0.0021409988403320312
sg31
F0.005276203155517578
sg32
I4
sg33
I5
sasS'total_cqs'
p47
I33
ssI4
(dp48
S'iters'
p49
I0
sS'meta'
p50
(lp51
sS'total_cqs'
p52
I1
ssI5
(dp53
S'iters'
p54
I0
sS'meta'
p55
(lp56
sS'total_cqs'
p57
I1
ssI6
(dp58
S'iters'
p59
I2
sS'meta'
p60
(lp61
(dp62
S'objective'
p63
I1
sS'query_time'
p64
F14.235274076461792
sS'comp_time'
p65
F0.0037033557891845703
sS'exec_cq'
p66
I4
sS'total_cq'
p67
I5
sa(dp68
g63
I2
sg64
F0.00011086463928222656
sg65
F0.0002598762512207031
sg66
I1
sg67
I2
sasS'total_cqs'
p69
I5
ssI7
(dp70
S'iters'
p71
I0
sS'meta'
p72
(lp73
sS'total_cqs'
p74
I1
ssI8
(dp75
S'iters'
p76
I4
sS'meta'
p77
(lp78
(dp79
S'objective'
p80
I19
sS'query_time'
p81
F43.393742084503174
sS'comp_time'
p82
F0.09428858757019043
sS'exec_cq'
p83
I6
sS'total_cq'
p84
I6
sa(dp85
g80
I8
sg81
F1.2551069259643555
sg82
F0.0001609325408935547
sg83
I4
sg84
I5
sa(dp86
g80
I6
sg81
F0.004111289978027344
sg82
F0.0001270771026611328
sg83
I4
sg84
I4
sa(dp87
g80
I4
sg81
F0.002716064453125
sg82
F7.82012939453125e-05
sg83
I3
sg84
I3
sasS'total_cqs'
p88
I6
ssI9
(dp89
S'iters'
p90
I3
sS'meta'
p91
(lp92
(dp93
S'objective'
p94
I1
sS'query_time'
p95
F13.216134071350098
sS'comp_time'
p96
F0.07252287864685059
sS'exec_cq'
p97
I3
sS'total_cq'
p98
I6
sa(dp99
g94
I0
sg95
F0.06515312194824219
sg96
F0.2268974781036377
sg97
I3
sg98
I3
sa(dp100
g94
I1
sg95
F0.13148713111877441
sg96
F0.10920310020446777
sg97
I2
sg98
I2
sasS'total_cqs'
p101
I6
ssI10
(dp102
S'iters'
p103
I0
sS'meta'
p104
(lp105
sS'total_cqs'
p106
I1
ssI11
(dp107
S'iters'
p108
I0
sS'meta'
p109
(lp110
sS'total_cqs'
p111
I1
ssI12
(dp112
S'iters'
p113
I0
sS'meta'
p114
(lp115
sS'total_cqs'
p116
I1
ssI13
(dp117
S'iters'
p118
I2
sS'meta'
p119
(lp120
(dp121
S'objective'
p122
I22
sS'query_time'
p123
F0.01873493194580078
sS'comp_time'
p124
F0.007266044616699219
sS'exec_cq'
p125
I7
sS'total_cq'
p126
I8
sa(dp127
g122
I23
sg123
F0.003223896026611328
sg124
F0.00011706352233886719
sg125
I7
sg126
I7
sasS'total_cqs'
p128
I8
ssI14
(dp129
S'iters'
p130
I3
sS'meta'
p131
(lp132
(dp133
S'objective'
p134
I5
sS'query_time'
p135
F0.9478919506072998
sS'comp_time'
p136
F0.004385948181152344
sS'exec_cq'
p137
I5
sS'total_cq'
p138
I5
sa(dp139
g134
I2
sg135
F0.0005369186401367188
sg136
F0.0009899139404296875
sg137
I4
sg138
I4
sa(dp140
g134
I0
sg135
F0.0005178451538085938
sg136
F0.0009739398956298828
sg137
I3
sg138
I3
sasS'total_cqs'
p141
I5
ssI16
(dp142
S'iters'
p143
I2
sS'meta'
p144
(lp145
(dp146
S'objective'
p147
I1
sS'query_time'
p148
F1.2927989959716797
sS'comp_time'
p149
F0.0061779022216796875
sS'exec_cq'
p150
I4
sS'total_cq'
p151
I5
sa(dp152
g147
I1
sg148
F0.0012090206146240234
sg149
F0.0014758110046386719
sg150
I2
sg151
I2
sasS'total_cqs'
p153
I5
ssI17
(dp154
S'iters'
p155
I0
sS'meta'
p156
(lp157
sS'total_cqs'
p158
I1
ssI18
(dp159
S'iters'
p160
I3
sS'meta'
p161
(lp162
(dp163
S'objective'
p164
I3
sS'query_time'
p165
F0.20461320877075195
sS'comp_time'
p166
F0.0041506290435791016
sS'exec_cq'
p167
I4
sS'total_cq'
p168
I5
sa(dp169
g164
I1
sg165
F4.1961669921875e-05
sg166
F0.0001800060272216797
sg167
I2
sg168
I3
sa(dp170
g164
I1
sg165
F0.04774188995361328
sg166
F3.600120544433594e-05
sg167
I1
sg168
I2
sasS'total_cqs'
p171
I5
ssI19
(dp172
S'iters'
p173
I0
sS'meta'
p174
(lp175
sS'total_cqs'
p176
I1
ssI20
(dp177
S'iters'
p178
I5
sS'meta'
p179
(lp180
(dp181
S'objective'
p182
I36
sS'query_time'
p183
F14.118054151535034
sS'comp_time'
p184
F0.7355496883392334
sS'exec_cq'
p185
I10
sS'total_cq'
p186
I12
sa(dp187
g182
I33
sg183
F0.2832167148590088
sg184
F0.6934385299682617
sg185
I9
sg186
I10
sa(dp188
g182
I21
sg183
F0.11907434463500977
sg184
F0.18551397323608398
sg185
I5
sg186
I8
sa(dp189
g182
I17
sg183
F3.123283386230469e-05
sg184
F9.608268737792969e-05
sg185
I3
sg186
I6
sa(dp190
g182
I17
sg183
F0.1366419792175293
sg184
F0.0004210472106933594
sg185
I3
sg186
I5
sasS'total_cqs'
p191
I12
ssI21
(dp192
S'iters'
p193
I9
sS'meta'
p194
(lp195
(dp196
S'objective'
p197
I57
sS'query_time'
p198
F59.68352007865906
sS'comp_time'
p199
F1.0352847576141357
sS'exec_cq'
p200
I12
sS'total_cq'
p201
I14
sa(dp202
g197
I55
sg198
F0.09227705001831055
sg199
F0.06192517280578613
sg200
I9
sg201
I11
sa(dp203
g197
I46
sg198
F0.010505914688110352
sg199
F0.026829004287719727
sg200
I8
sg201
I10
sa(dp204
g197
I43
sg198
F0.0010671615600585938
sg199
F0.0018036365509033203
sg200
I6
sg201
I8
sa(dp205
g197
I30
sg198
F0.006566286087036133
sg199
F7.724761962890625e-05
sg200
I5
sg201
I7
sa(dp206
g197
I22
sg198
F0.0029251575469970703
sg199
F7.510185241699219e-05
sg200
I4
sg201
I6
sa(dp207
g197
I3
sg198
F0.0009679794311523438
sg199
F3.075599670410156e-05
sg200
I1
sg201
I5
sa(dp208
g197
I5
sg198
F0.0017418861389160156
sg199
F6.318092346191406e-05
sg200
I2
sg201
I4
sa(dp209
g197
I1
sg198
F0.011372089385986328
sg199
F3.719329833984375e-05
sg200
I1
sg201
I3
sasS'total_cqs'
p210
I14
ssI22
(dp211
S'iters'
p212
I1
sS'meta'
p213
(lp214
(dp215
S'objective'
p216
I1
sS'query_time'
p217
F0.004296064376831055
sS'comp_time'
p218
F0.0010852813720703125
sS'exec_cq'
p219
I1
sS'total_cq'
p220
I2
sasS'total_cqs'
p221
I2
ssI23
(dp222
S'iters'
p223
I0
sS'meta'
p224
(lp225
sS'total_cqs'
p226
I1
ssI24
(dp227
S'iters'
p228
I0
sS'meta'
p229
(lp230
sS'total_cqs'
p231
I1
ssI25
(dp232
S'iters'
p233
I4
sS'meta'
p234
(lp235
(dp236
S'objective'
p237
I10
sS'query_time'
p238
F48.613595962524414
sS'comp_time'
p239
F2.1421194076538086
sS'exec_cq'
p240
I4
sS'total_cq'
p241
I7
sa(dp242
g237
I5
sg238
F0.06885600090026855
sg239
F0.00016927719116210938
sg240
I2
sg241
I5
sa(dp243
g237
I0
sg238
F0.0067288875579833984
sg239
F5.817413330078125e-05
sg240
I1
sg241
I4
sa(dp244
g237
I0
sg238
F4.569850921630859
sg239
F0.016529083251953125
sg240
I2
sg241
I3
sasS'total_cqs'
p245
I7
ssI26
(dp246
S'iters'
p247
I7
sS'meta'
p248
(lp249
(dp250
S'objective'
p251
I47
sS'query_time'
p252
F5.381966829299927
sS'comp_time'
p253
F0.01950669288635254
sS'exec_cq'
p254
I6
sS'total_cq'
p255
I13
sa(dp256
g251
I27
sg252
F0.002914905548095703
sg253
F0.0039272308349609375
sg254
I4
sg255
I11
sa(dp257
g251
I26
sg252
F20.984349012374878
sg253
F2.8135251998901367
sg254
I4
sg255
I9
sa(dp258
g251
I17
sg252
F0.689579963684082
sg253
F2.139760732650757
sg254
I5
sg255
I8
sa(dp259
g251
I13
sg252
F0.7023439407348633
sg253
F2.552687883377075
sg254
I5
sg255
I6
sa(dp260
g251
I8
sg252
F0.0009279251098632812
sg253
F0.0010280609130859375
sg254
I2
sg255
I5
sa(dp261
g251
I4
sg252
F0.7861731052398682
sg253
F1.9528756141662598
sg254
I3
sg255
I4
sasS'total_cqs'
p262
I13
ssI27
(dp263
S'iters'
p264
I1
sS'meta'
p265
(lp266
(dp267
S'objective'
p268
I1
sS'query_time'
p269
F0.23293709754943848
sS'comp_time'
p270
F0.0020399093627929688
sS'exec_cq'
p271
I1
sS'total_cq'
p272
I2
sasS'total_cqs'
p273
I2
ssI28
(dp274
S'iters'
p275
I8
sS'meta'
p276
(lp277
(dp278
S'objective'
p279
I65
sS'query_time'
p280
F1.496108055114746
sS'comp_time'
p281
F0.07789802551269531
sS'exec_cq'
p282
I6
sS'total_cq'
p283
I14
sa(dp284
g279
I47
sg280
F0.008859872817993164
sg281
F0.0074310302734375
sg282
I5
sg283
I11
sa(dp285
g279
I38
sg280
F0.0026750564575195312
sg281
F0.0001232624053955078
sg282
I3
sg283
I9
sa(dp286
g279
I26
sg280
F1.71661376953125e-05
sg281
F9.584426879882812e-05
sg282
I2
sg283
I8
sa(dp287
g279
I15
sg280
F0.00935506820678711
sg281
F7.700920104980469e-05
sg282
I1
sg283
I7
sa(dp288
g279
I11
sg280
F0.003317117691040039
sg281
F0.001870870590209961
sg282
I1
sg283
I6
sa(dp289
g279
I7
sg280
F1.4066696166992188e-05
sg281
F3.4809112548828125e-05
sg282
I1
sg283
I5
sa(dp290
g279
I3
sg280
F0.002847909927368164
sg281
F3.0040740966796875e-05
sg282
I1
sg283
I4
sasS'total_cqs'
p291
I14
ssI29
(dp292
S'iters'
p293
I1
sS'meta'
p294
(lp295
(dp296
S'objective'
p297
I1
sS'query_time'
p298
F0.007414817810058594
sS'comp_time'
p299
F0.0014863014221191406
sS'exec_cq'
p300
I2
sS'total_cq'
p301
I2
sasS'total_cqs'
p302
I2
ssI30
(dp303
S'iters'
p304
I1
sS'meta'
p305
(lp306
(dp307
S'objective'
p308
I1
sS'query_time'
p309
F0.3534059524536133
sS'comp_time'
p310
F0.0021209716796875
sS'exec_cq'
p311
I2
sS'total_cq'
p312
I2
sasS'total_cqs'
p313
I2
ssI31
(dp314
S'iters'
p315
I4
sS'meta'
p316
(lp317
(dp318
S'objective'
p319
I11
sS'query_time'
p320
F6.355865001678467
sS'comp_time'
p321
F0.1526191234588623
sS'exec_cq'
p322
I9
sS'total_cq'
p323
I9
sa(dp324
g319
I4
sg320
F0.024935007095336914
sg321
F0.05569267272949219
sg322
I5
sg323
I7
sa(dp325
g319
I2
sg320
F0.033686161041259766
sg321
F0.014301776885986328
sg322
I3
sg323
I3
sa(dp326
g319
I1
sg320
F0.011640071868896484
sg321
F0.08489131927490234
sg322
I2
sg323
I2
sasS'total_cqs'
p327
I9
ssI32
(dp328
S'iters'
p329
I4
sS'meta'
p330
(lp331
(dp332
S'objective'
p333
I4
sS'query_time'
p334
F21.352050065994263
sS'comp_time'
p335
F2.481659412384033
sS'exec_cq'
p336
I4
sS'total_cq'
p337
I7
sa(dp338
g333
I2
sg334
F1.1767020225524902
sg335
F0.004908084869384766
sg336
I2
sg337
I4
sa(dp339
g333
I1
sg334
F0.0019271373748779297
sg335
F0.001149892807006836
sg336
I1
sg337
I3
sa(dp340
g333
I1
sg334
F0.2703430652618408
sg335
F0.2569258213043213
sg336
I1
sg337
I2
sasS'total_cqs'
p341
I7
ssI33
(dp342
S'iters'
p343
I1
sS'meta'
p344
(lp345
(dp346
S'objective'
p347
I1
sS'query_time'
p348
F0.02844381332397461
sS'comp_time'
p349
F0.0015971660614013672
sS'exec_cq'
p350
I2
sS'total_cq'
p351
I2
sasS'total_cqs'
p352
I2
ssI34
(dp353
S'iters'
p354
I0
sS'meta'
p355
(lp356
sS'total_cqs'
p357
I1
ssI35
(dp358
S'iters'
p359
I2
sS'meta'
p360
(lp361
(dp362
S'objective'
p363
I1
sS'query_time'
p364
F13.903506994247437
sS'comp_time'
p365
F0.08304858207702637
sS'exec_cq'
p366
I4
sS'total_cq'
p367
I5
sa(dp368
g363
I2
sg364
F0.011619091033935547
sg365
F0.08195018768310547
sg366
I2
sg367
I2
sasS'total_cqs'
p369
I5
ssI37
(dp370
S'iters'
p371
I3
sS'meta'
p372
(lp373
(dp374
S'objective'
p375
I35
sS'query_time'
p376
F1.8249657154083252
sS'comp_time'
p377
F0.49468469619750977
sS'exec_cq'
p378
I8
sS'total_cq'
p379
I10
sa(dp380
g375
I27
sg376
F0.02131199836730957
sg377
F0.039212942123413086
sg378
I7
sg379
I9
sa(dp381
g375
I1
sg376
F0.004664182662963867
sg377
F0.006117105484008789
sg378
I2
sg379
I2
sasS'total_cqs'
p382
I10
ssI38
(dp383
S'iters'
p384
I0
sS'meta'
p385
(lp386
sS'total_cqs'
p387
I1
ssI39
(dp388
S'iters'
p389
I0
sS'meta'
p390
(lp391
sS'total_cqs'
p392
I1
ssI40
(dp393
S'iters'
p394
I1
sS'meta'
p395
(lp396
(dp397
S'objective'
p398
I1
sS'query_time'
p399
F0.0031049251556396484
sS'comp_time'
p400
F0.0010368824005126953
sS'exec_cq'
p401
I1
sS'total_cq'
p402
I2
sasS'total_cqs'
p403
I2
ssI41
(dp404
S'iters'
p405
I4
sS'meta'
p406
(lp407
(dp408
S'objective'
p409
I3
sS'query_time'
p410
F10.1463041305542
sS'comp_time'
p411
F0.7646183967590332
sS'exec_cq'
p412
I3
sS'total_cq'
p413
I6
sa(dp414
g409
I0
sg410
F0.0009839534759521484
sg411
F0.0003941059112548828
sg412
I1
sg413
I4
sa(dp415
g409
I2
sg410
F0.7596800327301025
sg411
F0.0009646415710449219
sg412
I2
sg413
I3
sa(dp416
g409
I2
sg410
F2.5033950805664062e-05
sg411
F3.600120544433594e-05
sg412
I1
sg413
I2
sasS'total_cqs'
p417
I6
ssI42
(dp418
S'iters'
p419
I1
sS'meta'
p420
(lp421
(dp422
S'objective'
p423
I1
sS'query_time'
p424
F0.019104957580566406
sS'comp_time'
p425
F0.0005097389221191406
sS'exec_cq'
p426
I1
sS'total_cq'
p427
I2
sasS'total_cqs'
p428
I2
ssI43
(dp429
S'iters'
p430
I0
sS'meta'
p431
(lp432
sS'total_cqs'
p433
I1
ssI44
(dp434
S'iters'
p435
I3
sS'meta'
p436
(lp437
(dp438
S'objective'
p439
I3
sS'query_time'
p440
F1.587876796722412
sS'comp_time'
p441
F0.03596687316894531
sS'exec_cq'
p442
I4
sS'total_cq'
p443
I5
sa(dp444
g439
I1
sg440
F0.11998701095581055
sg441
F0.03656721115112305
sg442
I2
sg443
I3
sa(dp445
g439
I2
sg440
F9.894371032714844e-05
sg441
F8.20159912109375e-05
sg442
I1
sg443
I2
sasS'total_cqs'
p446
I5
ssI45
(dp447
S'iters'
p448
I2
sS'meta'
p449
(lp450
(dp451
S'objective'
p452
I5
sS'query_time'
p453
F0.039189815521240234
sS'comp_time'
p454
F0.002065896987915039
sS'exec_cq'
p455
I4
sS'total_cq'
p456
I5
sa(dp457
g452
I1
sg453
F0.00016880035400390625
sg454
F0.0002110004425048828
sg455
I2
sg456
I2
sasS'total_cqs'
p458
I5
ssI46
(dp459
S'iters'
p460
I0
sS'meta'
p461
(lp462
sS'total_cqs'
p463
I1
ssI47
(dp464
S'iters'
p465
I0
sS'meta'
p466
(lp467
sS'total_cqs'
p468
I1
ssI48
(dp469
S'iters'
p470
I1
sS'meta'
p471
(lp472
(dp473
S'objective'
p474
I1
sS'query_time'
p475
F0.1340019702911377
sS'comp_time'
p476
F0.001486063003540039
sS'exec_cq'
p477
I2
sS'total_cq'
p478
I2
sasS'total_cqs'
p479
I2
ssI49
(dp480
S'iters'
p481
I2
sS'meta'
p482
(lp483
(dp484
S'objective'
p485
I1
sS'query_time'
p486
F0.18673110008239746
sS'comp_time'
p487
F0.0039234161376953125
sS'exec_cq'
p488
I4
sS'total_cq'
p489
I5
sa(dp490
g485
I2
sg486
F4.100799560546875e-05
sg487
F0.00011801719665527344
sg488
I2
sg489
I3
sasS'total_cqs'
p491
I5
ssI50
(dp492
S'iters'
p493
I3
sS'meta'
p494
(lp495
(dp496
S'objective'
p497
I5
sS'query_time'
p498
F0.8042929172515869
sS'comp_time'
p499
F0.002442598342895508
sS'exec_cq'
p500
I5
sS'total_cq'
p501
I5
sa(dp502
g497
I2
sg498
F0.00012993812561035156
sg499
F0.0002970695495605469
sg500
I4
sg501
I4
sa(dp503
g497
I0
sg498
F0.00011396408081054688
sg499
F0.0002639293670654297
sg500
I3
sg501
I3
sasS'total_cqs'
p504
I5
ssI51
(dp505
S'iters'
p506
I0
sS'meta'
p507
(lp508
sS'total_cqs'
p509
I1
ssI52
(dp510
S'iters'
p511
I0
sS'meta'
p512
(lp513
sS'total_cqs'
p514
I1
ssI53
(dp515
S'iters'
p516
I0
sS'meta'
p517
(lp518
sS'total_cqs'
p519
I1
ssI55
(dp520
S'iters'
p521
I1
sS'meta'
p522
(lp523
(dp524
S'objective'
p525
I1
sS'query_time'
p526
F24.542032957077026
sS'comp_time'
p527
F0.014106988906860352
sS'exec_cq'
p528
I2
sS'total_cq'
p529
I2
sasS'total_cqs'
p530
I2
ssI56
(dp531
S'iters'
p532
I0
sS'meta'
p533
(lp534
sS'total_cqs'
p535
I1
ssI57
(dp536
S'iters'
p537
I1
sS'meta'
p538
(lp539
(dp540
S'objective'
p541
I2
sS'query_time'
p542
F12.798576831817627
sS'comp_time'
p543
F1.3103561401367188
sS'exec_cq'
p544
I3
sS'total_cq'
p545
I3
sasS'total_cqs'
p546
I3
ssI108
(dp547
S'iters'
p548
I0
sS'meta'
p549
(lp550
sS'total_cqs'
p551
I1
ssI109
(dp552
S'iters'
p553
I0
sS'meta'
p554
(lp555
sS'total_cqs'
p556
I1
ssI116
(dp557
S'iters'
p558
I3
sS'meta'
p559
(lp560
(dp561
S'objective'
p562
I165
sS'query_time'
p563
F3.6811931133270264
sS'comp_time'
p564
F0.20117592811584473
sS'exec_cq'
p565
I15
sS'total_cq'
p566
I21
sa(dp567
g562
I162
sg563
F0.5229446887969971
sg564
F0.0006532669067382812
sg565
I14
sg566
I19
sa(dp568
g562
I4
sg563
F0.0006699562072753906
sg564
F0.0008866786956787109
sg565
I2
sg566
I2
sasS'total_cqs'
p569
I21
ssI117
(dp570
S'iters'
p571
I2
sS'meta'
p572
(lp573
(dp574
S'objective'
p575
I7
sS'query_time'
p576
F0.006765842437744141
sS'comp_time'
p577
F0.001528024673461914
sS'exec_cq'
p578
I3
sS'total_cq'
p579
I5
sa(dp580
g575
I5
sg576
F0.002775907516479492
sg577
F3.075599670410156e-05
sg578
I3
sg579
I4
sasS'total_cqs'
p581
I5
ssI118
(dp582
S'iters'
p583
I0
sS'meta'
p584
(lp585
sS'total_cqs'
p586
I1
ssI122
(dp587
S'iters'
p588
I0
sS'meta'
p589
(lp590
sS'total_cqs'
p591
I1
ss.