(dp0
I1
(dp1
S'iters'
p2
I3
sS'meta'
p3
(lp4
(dp5
S'objective'
p6
I9
sS'query_time'
p7
F25.036076068878174
sS'comp_time'
p8
F0.08111405372619629
sS'exec_cq'
p9
I6
sS'total_cq'
p10
I6
sa(dp11
g6
I1
sg7
F0.009896039962768555
sg8
F1.4097929000854492
sg9
I5
sg10
I5
sa(dp12
g6
I2
sg7
F0.009795188903808594
sg8
F262.09273195266724
sg9
I2
sg10
I2
sasS'total_cqs'
p13
I6
ssI2
(dp14
S'iters'
p15
I1
sS'meta'
p16
(lp17
(dp18
S'objective'
p19
I15
sS'query_time'
p20
F0.8615782260894775
sS'comp_time'
p21
F0.1103670597076416
sS'exec_cq'
p22
I6
sS'total_cq'
p23
I6
sasS'total_cqs'
p24
I6
ssI3
(dp25
S'iters'
p26
I15
sS'meta'
p27
(lp28
(dp29
S'objective'
p30
I407
sS'query_time'
p31
F27.23202109336853
sS'comp_time'
p32
F0.26171112060546875
sS'exec_cq'
p33
I33
sS'total_cq'
p34
I33
sa(dp35
g30
I364
sg31
F0.03291893005371094
sg32
F0.26488709449768066
sg33
I30
sg34
I30
sa(dp36
g30
I320
sg31
F0.07714080810546875
sg32
F0.20249295234680176
sg33
I27
sg34
I27
sa(dp37
g30
I276
sg31
F0.08027100563049316
sg32
F0.20718073844909668
sg33
I24
sg34
I24
sa(dp38
g30
I232
sg31
F0.009567975997924805
sg32
F0.07958793640136719
sg33
I21
sg34
I21
sa(dp39
g30
I210
sg31
F0.0066509246826171875
sg32
F0.0386199951171875
sg33
I18
sg34
I18
sa(dp40
g30
I178
sg31
F0.03354191780090332
sg32
F0.03202319145202637
sg33
I15
sg34
I15
sa(dp41
g30
I153
sg31
F0.007607936859130859
sg32
F0.0312502384185791
sg33
I12
sg34
I12
sa(dp42
g30
I128
sg31
F0.0064849853515625
sg32
F0.030408859252929688
sg33
I11
sg34
I11
sa(dp43
g30
I105
sg31
F0.004873991012573242
sg32
F0.03051018714904785
sg33
I10
sg34
I10
sa(dp44
g30
I82
sg31
F0.0032529830932617188
sg32
F0.014316320419311523
sg33
I9
sg34
I9
sa(dp45
g30
I60
sg31
F0.0024399757385253906
sg32
F0.014512062072753906
sg33
I7
sg34
I7
sa(dp46
g30
I55
sg31
F0.0024280548095703125
sg32
F0.01505589485168457
sg33
I6
sg34
I6
sa(dp47
g30
I43
sg31
F0.0025670528411865234
sg32
F0.0142669677734375
sg33
I5
sg34
I5
sa(dp48
g30
I36
sg31
F0.002310037612915039
sg32
F0.03887200355529785
sg33
I4
sg34
I4
sasS'total_cqs'
p49
I33
ssI4
(dp50
S'iters'
p51
I0
sS'meta'
p52
(lp53
sS'total_cqs'
p54
I1
ssI5
(dp55
S'iters'
p56
I0
sS'meta'
p57
(lp58
sS'total_cqs'
p59
I1
ssI6
(dp60
S'iters'
p61
I3
sS'meta'
p62
(lp63
(dp64
S'objective'
p65
I1
sS'query_time'
p66
F15.274121046066284
sS'comp_time'
p67
F0.0029909610748291016
sS'exec_cq'
p68
I5
sS'total_cq'
p69
I5
sa(dp70
g65
I0
sg66
F0.0005450248718261719
sg67
F0.002123117446899414
sg68
I3
sg69
I3
sa(dp71
g65
I2
sg66
F0.00018095970153808594
sg67
F0.0008549690246582031
sg68
I2
sg69
I2
sasS'total_cqs'
p72
I5
ssI7
(dp73
S'iters'
p74
I0
sS'meta'
p75
(lp76
sS'total_cqs'
p77
I1
ssI8
(dp78
S'iters'
p79
I4
sS'meta'
p80
(lp81
(dp82
S'objective'
p83
I11
sS'query_time'
p84
F23.006305932998657
sS'comp_time'
p85
F0.2924380302429199
sS'exec_cq'
p86
I6
sS'total_cq'
p87
I6
sa(dp88
g83
I4
sg84
F41.87602996826172
sg85
F41.919861793518066
sg86
I5
sg87
I5
sa(dp89
g83
I2
sg84
F1.5536160469055176
sg85
F1.5448920726776123
sg86
I4
sg87
I4
sa(dp90
g83
I2
sg84
F0.04009413719177246
sg85
F0.03736686706542969
sg86
I2
sg87
I2
sasS'total_cqs'
p91
I6
ssI9
(dp92
S'iters'
p93
I3
sS'meta'
p94
(lp95
(dp96
S'objective'
p97
I1
sS'query_time'
p98
F54.166548013687134
sS'comp_time'
p99
F4.292994976043701
sS'exec_cq'
p100
I6
sS'total_cq'
p101
I6
sa(dp102
g97
I2
sg98
F0.8705921173095703
sg99
F3.4459660053253174
sg100
I4
sg101
I4
sa(dp103
g97
I0
sg98
F0.91805100440979
sg99
F3.245572090148926
sg100
I3
sg101
I3
sasS'total_cqs'
p104
I6
ssI10
(dp105
S'iters'
p106
I0
sS'meta'
p107
(lp108
sS'total_cqs'
p109
I1
ssI11
(dp110
S'iters'
p111
I0
sS'meta'
p112
(lp113
sS'total_cqs'
p114
I1
ssI12
(dp115
S'iters'
p116
I0
sS'meta'
p117
(lp118
sS'total_cqs'
p119
I1
ssI13
(dp120
S'iters'
p121
I2
sS'meta'
p122
(lp123
(dp124
S'objective'
p125
I24
sS'query_time'
p126
F0.018383026123046875
sS'comp_time'
p127
F0.0001399517059326172
sS'exec_cq'
p128
I8
sS'total_cq'
p129
I8
sa(dp130
g125
I24
sg126
F3.504753112792969e-05
sg127
F5.91278076171875e-05
sg128
I7
sg129
I7
sasS'total_cqs'
p131
I8
ssI14
(dp132
S'iters'
p133
I1
sS'meta'
p134
(lp135
(dp136
S'objective'
p137
I9
sS'query_time'
p138
F1.0476818084716797
sS'comp_time'
p139
F0.007209062576293945
sS'exec_cq'
p140
I5
sS'total_cq'
p141
I5
sasS'total_cqs'
p142
I5
ssI16
(dp143
S'iters'
p144
I3
sS'meta'
p145
(lp146
(dp147
S'objective'
p148
I1
sS'query_time'
p149
F1.5576660633087158
sS'comp_time'
p150
F0.006417989730834961
sS'exec_cq'
p151
I5
sS'total_cq'
p152
I5
sa(dp153
g148
I0
sg149
F0.00021791458129882812
sg150
F0.0011820793151855469
sg151
I3
sg152
I3
sa(dp154
g148
I2
sg149
F3.814697265625e-05
sg150
F0.0001850128173828125
sg151
I2
sg152
I2
sasS'total_cqs'
p155
I5
ssI17
(dp156
S'iters'
p157
I0
sS'meta'
p158
(lp159
sS'total_cqs'
p160
I1
ssI18
(dp161
S'iters'
p162
I2
sS'meta'
p163
(lp164
(dp165
S'objective'
p166
I1
sS'query_time'
p167
F0.3070368766784668
sS'comp_time'
p168
F0.0003330707550048828
sS'exec_cq'
p169
I5
sS'total_cq'
p170
I5
sa(dp171
g166
I2
sg167
F3.910064697265625e-05
sg168
F0.0001461505889892578
sg169
I2
sg170
I2
sasS'total_cqs'
p172
I5
ssI19
(dp173
S'iters'
p174
I0
sS'meta'
p175
(lp176
sS'total_cqs'
p177
I1
ssI20
(dp178
S'iters'
p179
I5
sS'meta'
p180
(lp181
(dp182
S'objective'
p183
I38
sS'query_time'
p184
F11.279366970062256
sS'comp_time'
p185
F1.128221035003662
sS'exec_cq'
p186
I12
sS'total_cq'
p187
I12
sa(dp188
g183
I22
sg184
F0.2374739646911621
sg185
F1.1138651371002197
sg186
I10
sg187
I10
sa(dp189
g183
I6
sg184
F0.16310811042785645
sg185
F0.6119818687438965
sg186
I8
sg187
I8
sa(dp190
g183
I9
sg184
F0.13635516166687012
sg185
F0.4498119354248047
sg186
I6
sg187
I6
sa(dp191
g183
I8
sg184
F0.0008330345153808594
sg185
F0.003144979476928711
sg186
I5
sg187
I5
sasS'total_cqs'
p192
I12
ssI21
(dp193
S'iters'
p194
I3
sS'meta'
p195
(lp196
(dp197
S'objective'
p198
I41
sS'query_time'
p199
F28.61627697944641
sS'comp_time'
p200
F0.2649509906768799
sS'exec_cq'
p201
I14
sS'total_cq'
p202
I14
sa(dp203
g198
I45
sg199
F0.020610809326171875
sg200
F0.14339923858642578
sg201
I10
sg202
I10
sa(dp204
g198
I4
sg199
F0.005017995834350586
sg200
F0.022248029708862305
sg201
I2
sg202
I2
sasS'total_cqs'
p205
I14
ssI22
(dp206
S'iters'
p207
I1
sS'meta'
p208
(lp209
(dp210
S'objective'
p211
I1
sS'query_time'
p212
F0.009517908096313477
sS'comp_time'
p213
F0.00014019012451171875
sS'exec_cq'
p214
I2
sS'total_cq'
p215
I2
sasS'total_cqs'
p216
I2
ssI23
(dp217
S'iters'
p218
I0
sS'meta'
p219
(lp220
sS'total_cqs'
p221
I1
ssI24
(dp222
S'iters'
p223
I0
sS'meta'
p224
(lp225
sS'total_cqs'
p226
I1
ssI25
(dp227
S'iters'
p228
I3
sS'meta'
p229
(lp230
(dp231
S'objective'
p232
I0
sS'query_time'
p233
F88.34239411354065
sS'comp_time'
p234
F10.312014818191528
sS'exec_cq'
p235
I7
sS'total_cq'
p236
I7
sa(dp237
g232
I2
sg233
F0.2252960205078125
sg234
F2.439035177230835
sg235
I4
sg236
I4
sa(dp238
g232
I2
sg233
F0.49185800552368164
sg234
F1.6981821060180664
sg235
I2
sg236
I2
sasS'total_cqs'
p239
I7
ssI26
(dp240
S'iters'
p241
I6
sS'meta'
p242
(lp243
(dp244
S'objective'
p245
I43
sS'query_time'
p246
F24.571110010147095
sS'comp_time'
p247
F3.465634822845459
sS'exec_cq'
p248
I13
sS'total_cq'
p249
I13
sa(dp250
g245
I35
sg246
F0.7566590309143066
sg247
F3.1367878913879395
sg248
I11
sg249
I11
sa(dp251
g245
I19
sg246
F0.7620959281921387
sg247
F3.1443848609924316
sg248
I9
sg249
I9
sa(dp252
g245
I11
sg246
F0.7586770057678223
sg247
F2.9318912029266357
sg248
I7
sg249
I7
sa(dp253
g245
I7
sg246
F0.8516669273376465
sg247
F2.8829469680786133
sg248
I6
sg249
I6
sa(dp254
g245
I5
sg246
F0.827049970626831
sg247
F2.9684998989105225
sg248
I5
sg249
I5
sasS'total_cqs'
p255
I13
ssI27
(dp256
S'iters'
p257
I1
sS'meta'
p258
(lp259
(dp260
S'objective'
p261
I1
sS'query_time'
p262
F0.14011883735656738
sS'comp_time'
p263
F0.00422215461730957
sS'exec_cq'
p264
I2
sS'total_cq'
p265
I2
sasS'total_cqs'
p266
I2
ssI28
(dp267
S'iters'
p268
I6
sS'meta'
p269
(lp270
(dp271
S'objective'
p272
I33
sS'query_time'
p273
F1.5393810272216797
sS'comp_time'
p274
F0.019901037216186523
sS'exec_cq'
p275
I14
sS'total_cq'
p276
I14
sa(dp277
g272
I17
sg273
F0.002557992935180664
sg274
F0.014679908752441406
sg275
I10
sg276
I10
sa(dp278
g272
I15
sg273
F0.002399921417236328
sg274
F0.029758930206298828
sg275
I7
sg276
I7
sa(dp279
g272
I7
sg273
F0.002529144287109375
sg274
F0.012208938598632812
sg275
I5
sg276
I5
sa(dp280
g272
I0
sg273
F0.0019338130950927734
sg274
F0.01137089729309082
sg275
I4
sg276
I4
sa(dp281
g272
I1
sg273
F2.8848648071289062e-05
sg274
F7.796287536621094e-05
sg275
I3
sg276
I3
sasS'total_cqs'
p282
I14
ssI29
(dp283
S'iters'
p284
I1
sS'meta'
p285
(lp286
(dp287
S'objective'
p288
I1
sS'query_time'
p289
F0.008816957473754883
sS'comp_time'
p290
F0.00012111663818359375
sS'exec_cq'
p291
I2
sS'total_cq'
p292
I2
sasS'total_cqs'
p293
I2
ssI30
(dp294
S'iters'
p295
I1
sS'meta'
p296
(lp297
(dp298
S'objective'
p299
I1
sS'query_time'
p300
F0.31434202194213867
sS'comp_time'
p301
F0.0052051544189453125
sS'exec_cq'
p302
I2
sS'total_cq'
p303
I2
sasS'total_cqs'
p304
I2
ssI31
(dp305
S'iters'
p306
I4
sS'meta'
p307
(lp308
(dp309
S'objective'
p310
I19
sS'query_time'
p311
F5.774173021316528
sS'comp_time'
p312
F0.14635682106018066
sS'exec_cq'
p313
I9
sS'total_cq'
p314
I9
sa(dp315
g310
I6
sg311
F0.03023695945739746
sg312
F0.14888310432434082
sg313
I7
sg314
I7
sa(dp316
g310
I1
sg311
F0.006891965866088867
sg312
F0.025695085525512695
sg313
I3
sg314
I3
sa(dp317
g310
I2
sg311
F0.00292205810546875
sg312
F0.012660026550292969
sg313
I2
sg314
I2
sasS'total_cqs'
p318
I9
ssI32
(dp319
S'iters'
p320
I3
sS'meta'
p321
(lp322
(dp323
S'objective'
p324
I4
sS'query_time'
p325
F19.511475086212158
sS'comp_time'
p326
F3.4657769203186035
sS'exec_cq'
p327
I7
sS'total_cq'
p328
I7
sa(dp329
g324
I2
sg325
F0.29595279693603516
sg326
F1.0052449703216553
sg327
I4
sg328
I4
sa(dp330
g324
I1
sg325
F0.28298401832580566
sg326
F1.021841049194336
sg327
I2
sg328
I2
sasS'total_cqs'
p331
I7
ssI33
(dp332
S'iters'
p333
I1
sS'meta'
p334
(lp335
(dp336
S'objective'
p337
I1
sS'query_time'
p338
F0.022375822067260742
sS'comp_time'
p339
F0.00012493133544921875
sS'exec_cq'
p340
I2
sS'total_cq'
p341
I2
sasS'total_cqs'
p342
I2
ssI34
(dp343
S'iters'
p344
I0
sS'meta'
p345
(lp346
sS'total_cqs'
p347
I1
ssI35
(dp348
S'iters'
p349
I2
sS'meta'
p350
(lp351
(dp352
S'objective'
p353
I1
sS'query_time'
p354
F16.92318296432495
sS'comp_time'
p355
F0.26427197456359863
sS'exec_cq'
p356
I5
sS'total_cq'
p357
I5
sa(dp358
g353
I1
sg354
F0.013007879257202148
sg355
F0.05479001998901367
sg356
I2
sg357
I2
sasS'total_cqs'
p359
I5
ssI37
(dp360
S'iters'
p361
I3
sS'meta'
p362
(lp363
(dp364
S'objective'
p365
I33
sS'query_time'
p366
F2.5532140731811523
sS'comp_time'
p367
F0.10933804512023926
sS'exec_cq'
p368
I10
sS'total_cq'
p369
I10
sa(dp370
g365
I1
sg366
F0.026725053787231445
sg367
F0.036469221115112305
sg368
I3
sg369
I3
sa(dp371
g365
I2
sg366
F0.0028040409088134766
sg367
F0.011414289474487305
sg368
I2
sg369
I2
sasS'total_cqs'
p372
I10
ssI38
(dp373
S'iters'
p374
I0
sS'meta'
p375
(lp376
sS'total_cqs'
p377
I1
ssI39
(dp378
S'iters'
p379
I0
sS'meta'
p380
(lp381
sS'total_cqs'
p382
I1
ssI40
(dp383
S'iters'
p384
I1
sS'meta'
p385
(lp386
(dp387
S'objective'
p388
I1
sS'query_time'
p389
F17.389997959136963
sS'comp_time'
p390
F3.2540481090545654
sS'exec_cq'
p391
I2
sS'total_cq'
p392
I2
sasS'total_cqs'
p393
I2
ssI41
(dp394
S'iters'
p395
I3
sS'meta'
p396
(lp397
(dp398
S'objective'
p399
I3
sS'query_time'
p400
F12.10128402709961
sS'comp_time'
p401
F1.313966989517212
sS'exec_cq'
p402
I6
sS'total_cq'
p403
I6
sa(dp404
g399
I0
sg400
F0.25437498092651367
sg401
F1.3269641399383545
sg402
I4
sg403
I4
sa(dp405
g399
I0
sg400
F0.22275900840759277
sg401
F0.9388949871063232
sg402
I3
sg403
I3
sasS'total_cqs'
p406
I6
ssI42
(dp407
S'iters'
p408
I1
sS'meta'
p409
(lp410
(dp411
S'objective'
p412
I1
sS'query_time'
p413
F17.579061031341553
sS'comp_time'
p414
F3.0502729415893555
sS'exec_cq'
p415
I2
sS'total_cq'
p416
I2
sasS'total_cqs'
p417
I2
ssI43
(dp418
S'iters'
p419
I0
sS'meta'
p420
(lp421
sS'total_cqs'
p422
I1
ssI44
(dp423
S'iters'
p424
I3
sS'meta'
p425
(lp426
(dp427
S'objective'
p428
I3
sS'query_time'
p429
F1.6286380290985107
sS'comp_time'
p430
F0.09742093086242676
sS'exec_cq'
p431
I5
sS'total_cq'
p432
I5
sa(dp433
g428
I1
sg429
F0.01726984977722168
sg430
F0.14438390731811523
sg431
I3
sg432
I3
sa(dp434
g428
I1
sg429
F8.797645568847656e-05
sg430
F0.0003147125244140625
sg431
I2
sg432
I2
sasS'total_cqs'
p435
I5
ssI45
(dp436
S'iters'
p437
I2
sS'meta'
p438
(lp439
(dp440
S'objective'
p441
I7
sS'query_time'
p442
F0.049269914627075195
sS'comp_time'
p443
F0.0008890628814697266
sS'exec_cq'
p444
I5
sS'total_cq'
p445
I5
sa(dp446
g441
I2
sg442
F0.00014710426330566406
sg443
F0.0004899501800537109
sg444
I2
sg445
I2
sasS'total_cqs'
p447
I5
ssI46
(dp448
S'iters'
p449
I0
sS'meta'
p450
(lp451
sS'total_cqs'
p452
I1
ssI47
(dp453
S'iters'
p454
I0
sS'meta'
p455
(lp456
sS'total_cqs'
p457
I1
ssI48
(dp458
S'iters'
p459
I1
sS'meta'
p460
(lp461
(dp462
S'objective'
p463
I1
sS'query_time'
p464
F0.11313796043395996
sS'comp_time'
p465
F0.0068073272705078125
sS'exec_cq'
p466
I2
sS'total_cq'
p467
I2
sasS'total_cqs'
p468
I2
ssI49
(dp469
S'iters'
p470
I2
sS'meta'
p471
(lp472
(dp473
S'objective'
p474
I1
sS'query_time'
p475
F0.2388319969177246
sS'comp_time'
p476
F0.002705097198486328
sS'exec_cq'
p477
I5
sS'total_cq'
p478
I5
sa(dp479
g474
I1
sg475
F0.0002808570861816406
sg476
F0.0012438297271728516
sg477
I2
sg478
I2
sasS'total_cqs'
p480
I5
ssI50
(dp481
S'iters'
p482
I3
sS'meta'
p483
(lp484
(dp485
S'objective'
p486
I5
sS'query_time'
p487
F0.8753631114959717
sS'comp_time'
p488
F0.0014028549194335938
sS'exec_cq'
p489
I5
sS'total_cq'
p490
I5
sa(dp491
g486
I2
sg487
F0.000125885009765625
sg488
F0.0006892681121826172
sg489
I4
sg490
I4
sa(dp492
g486
I0
sg487
F0.00010800361633300781
sg488
F0.0006811618804931641
sg489
I3
sg490
I3
sasS'total_cqs'
p493
I5
ssI51
(dp494
S'iters'
p495
I0
sS'meta'
p496
(lp497
sS'total_cqs'
p498
I1
ssI52
(dp499
S'iters'
p500
I0
sS'meta'
p501
(lp502
sS'total_cqs'
p503
I1
ssI53
(dp504
S'iters'
p505
I0
sS'meta'
p506
(lp507
sS'total_cqs'
p508
I1
ssI55
(dp509
S'iters'
p510
I1
sS'meta'
p511
(lp512
(dp513
S'objective'
p514
I1
sS'query_time'
p515
F26.769757986068726
sS'comp_time'
p516
F3.776370048522949
sS'exec_cq'
p517
I2
sS'total_cq'
p518
I2
sasS'total_cqs'
p519
I2
ssI56
(dp520
S'iters'
p521
I0
sS'meta'
p522
(lp523
sS'total_cqs'
p524
I1
ssI57
(dp525
S'iters'
p526
I1
sS'meta'
p527
(lp528
(dp529
S'objective'
p530
I2
sS'query_time'
p531
F14.074692964553833
sS'comp_time'
p532
F1.766618251800537
sS'exec_cq'
p533
I3
sS'total_cq'
p534
I3
sasS'total_cqs'
p535
I3
ssI108
(dp536
S'iters'
p537
I0
sS'meta'
p538
(lp539
sS'total_cqs'
p540
I1
ssI109
(dp541
S'iters'
p542
I0
sS'meta'
p543
(lp544
sS'total_cqs'
p545
I1
ssI116
(dp546
S'iters'
p547
I4
sS'meta'
p548
(lp549
(dp550
S'objective'
p551
I161
sS'query_time'
p552
F5.509147882461548
sS'comp_time'
p553
F0.2929551601409912
sS'exec_cq'
p554
I21
sS'total_cq'
p555
I21
sa(dp556
g551
I140
sg552
F0.00185394287109375
sg553
F0.006344795227050781
sg554
I19
sg555
I19
sa(dp557
g551
I6
sg552
F0.0009667873382568359
sg553
F0.004513978958129883
sg554
I3
sg555
I3
sa(dp558
g551
I3
sg552
F0.00038886070251464844
sg553
F0.0023040771484375
sg554
I2
sg555
I2
sasS'total_cqs'
p559
I21
ssI117
(dp560
S'iters'
p561
I1
sS'meta'
p562
(lp563
(dp564
S'objective'
p565
I9
sS'query_time'
p566
F0.013818025588989258
sS'comp_time'
p567
F9.799003601074219e-05
sS'exec_cq'
p568
I5
sS'total_cq'
p569
I5
sasS'total_cqs'
p570
I5
ssI118
(dp571
S'iters'
p572
I0
sS'meta'
p573
(lp574
sS'total_cqs'
p575
I1
ssI122
(dp576
S'iters'
p577
I0
sS'meta'
p578
(lp579
sS'total_cqs'
p580
I1
ss.