(dp0
I1
(dp1
S'iters'
p2
I2
sS'meta'
p3
(lp4
(dp5
S'objective'
p6
I2
sS'query_time'
p7
F47.269877910614014
sS'comp_time'
p8
F1.8055636882781982
sS'exec_cq'
p9
I5
sS'total_cq'
p10
I6
sa(dp11
g6
I2
sg7
F0.3254249095916748
sg8
F0.9710826873779297
sg9
I3
sg10
I4
sasS'total_cqs'
p12
I6
ssI2
(dp13
S'iters'
p14
I1
sS'meta'
p15
(lp16
(dp17
S'objective'
p18
I4
sS'query_time'
p19
F1.087583065032959
sS'comp_time'
p20
F0.16069626808166504
sS'exec_cq'
p21
I6
sS'total_cq'
p22
I6
sasS'total_cqs'
p23
I6
ssI3
(dp24
S'iters'
p25
I15
sS'meta'
p26
(lp27
(dp28
S'objective'
p29
I27
sS'query_time'
p30
F25.672576189041138
sS'comp_time'
p31
F0.41721653938293457
sS'exec_cq'
p32
I33
sS'total_cq'
p33
I33
sa(dp34
g29
I24
sg30
F0.030809879302978516
sg31
F0.2576019763946533
sg32
I30
sg33
I30
sa(dp35
g29
I21
sg30
F0.09017181396484375
sg31
F0.05482840538024902
sg32
I27
sg33
I27
sa(dp36
g29
I18
sg30
F0.01865220069885254
sg31
F0.11254620552062988
sg32
I24
sg33
I24
sa(dp37
g29
I15
sg30
F0.018423080444335938
sg31
F0.18134403228759766
sg32
I21
sg33
I21
sa(dp38
g29
I12
sg30
F0.007004737854003906
sg31
F0.014621973037719727
sg32
I18
sg33
I18
sa(dp39
g29
I9
sg30
F0.006972074508666992
sg31
F0.013639688491821289
sg32
I15
sg33
I15
sa(dp40
g29
I8
sg30
F0.06231284141540527
sg31
F0.013674020767211914
sg32
I12
sg33
I12
sa(dp41
g29
I8
sg30
F0.005042076110839844
sg31
F0.013294696807861328
sg32
I10
sg33
I10
sa(dp42
g29
I7
sg30
F0.0048847198486328125
sg31
F0.012912273406982422
sg32
I9
sg33
I9
sa(dp43
g29
I6
sg30
F0.005013227462768555
sg31
F0.07137775421142578
sg32
I8
sg33
I8
sa(dp44
g29
I5
sg30
F0.0032148361206054688
sg31
F0.006049156188964844
sg32
I7
sg33
I7
sa(dp45
g29
I4
sg30
F0.002644062042236328
sg31
F0.006781816482543945
sg32
I6
sg33
I6
sa(dp46
g29
I3
sg30
F0.0029478073120117188
sg31
F0.005033016204833984
sg32
I5
sg33
I5
sa(dp47
g29
I2
sg30
F0.002178192138671875
sg31
F0.00516200065612793
sg32
I4
sg33
I4
sasS'total_cqs'
p48
I33
ssI6
(dp49
S'iters'
p50
I2
sS'meta'
p51
(lp52
(dp53
S'objective'
p54
I1
sS'query_time'
p55
F13.840025901794434
sS'comp_time'
p56
F0.0034868717193603516
sS'exec_cq'
p57
I4
sS'total_cq'
p58
I5
sa(dp59
g54
I0
sg55
F0.000202178955078125
sg56
F0.0003268718719482422
sg57
I2
sg58
I2
sasS'total_cqs'
p60
I5
ssI8
(dp61
S'iters'
p62
I3
sS'meta'
p63
(lp64
(dp65
S'objective'
p66
I4
sS'query_time'
p67
F43.14112305641174
sS'comp_time'
p68
F0.1279599666595459
sS'exec_cq'
p69
I6
sS'total_cq'
p70
I6
sa(dp71
g66
I3
sg67
F41.62795805931091
sg68
F0.0005640983581542969
sg69
I5
sg70
I5
sa(dp72
g66
I2
sg67
F0.09031915664672852
sg68
F0.00017833709716796875
sg69
I4
sg70
I4
sasS'total_cqs'
p73
I6
ssI9
(dp74
S'iters'
p75
I3
sS'meta'
p76
(lp77
(dp78
S'objective'
p79
I0
sS'query_time'
p80
F10.961623907089233
sS'comp_time'
p81
F0.05288195610046387
sS'exec_cq'
p82
I3
sS'total_cq'
p83
I6
sa(dp84
g79
I1
sg80
F0.04646801948547363
sg81
F0.1721951961517334
sg82
I3
sg83
I3
sa(dp85
g79
I0
sg80
F0.008953094482421875
sg81
F0.013416051864624023
sg82
I2
sg83
I2
sasS'total_cqs'
p86
I6
ssI13
(dp87
S'iters'
p88
I1
sS'meta'
p89
(lp90
(dp91
S'objective'
p92
I6
sS'query_time'
p93
F0.020193099975585938
sS'comp_time'
p94
F0.01121830940246582
sS'exec_cq'
p95
I7
sS'total_cq'
p96
I8
sasS'total_cqs'
p97
I8
ssI14
(dp98
S'iters'
p99
I1
sS'meta'
p100
(lp101
(dp102
S'objective'
p103
I3
sS'query_time'
p104
F1.0361659526824951
sS'comp_time'
p105
F0.0037605762481689453
sS'exec_cq'
p106
I5
sS'total_cq'
p107
I5
sasS'total_cqs'
p108
I5
ssI16
(dp109
S'iters'
p110
I3
sS'meta'
p111
(lp112
(dp113
S'objective'
p114
I1
sS'query_time'
p115
F1.6064438819885254
sS'comp_time'
p116
F0.005144834518432617
sS'exec_cq'
p117
I4
sS'total_cq'
p118
I5
sa(dp119
g114
I1
sg115
F0.04228711128234863
sg116
F0.0001537799835205078
sg117
I1
sg118
I3
sa(dp120
g114
I0
sg115
F6.103515625e-05
sg116
F0.00011229515075683594
sg117
I2
sg118
I2
sasS'total_cqs'
p121
I5
ssI18
(dp122
S'iters'
p123
I3
sS'meta'
p124
(lp125
(dp126
S'objective'
p127
I1
sS'query_time'
p128
F0.19061899185180664
sS'comp_time'
p129
F0.003898143768310547
sS'exec_cq'
p130
I4
sS'total_cq'
p131
I5
sa(dp132
g127
I1
sg128
F0.045912981033325195
sg129
F0.00012087821960449219
sg130
I1
sg131
I3
sa(dp133
g127
I0
sg128
F5.1021575927734375e-05
sg129
F9.679794311523438e-05
sg130
I2
sg131
I2
sasS'total_cqs'
p134
I5
ssI20
(dp135
S'iters'
p136
I5
sS'meta'
p137
(lp138
(dp139
S'objective'
p140
I8
sS'query_time'
p141
F11.376554012298584
sS'comp_time'
p142
F0.6789276599884033
sS'exec_cq'
p143
I10
sS'total_cq'
p144
I12
sa(dp145
g140
I6
sg141
F0.24437785148620605
sg142
F0.5063159465789795
sg143
I8
sg144
I10
sa(dp146
g140
I4
sg141
F0.14290904998779297
sg142
F0.3938255310058594
sg143
I6
sg144
I8
sa(dp147
g140
I4
sg141
F0.13892793655395508
sg142
F0.4535031318664551
sg143
I5
sg144
I6
sa(dp148
g140
I3
sg141
F0.15665292739868164
sg142
F0.35359787940979004
sg143
I4
sg144
I5
sasS'total_cqs'
p149
I12
ssI21
(dp150
S'iters'
p151
I3
sS'meta'
p152
(lp153
(dp154
S'objective'
p155
I8
sS'query_time'
p156
F60.81491017341614
sS'comp_time'
p157
F1.1194069385528564
sS'exec_cq'
p158
I12
sS'total_cq'
p159
I14
sa(dp160
g155
I7
sg156
F0.022487878799438477
sg157
F0.05596733093261719
sg158
I8
sg159
I11
sa(dp161
g155
I7
sg156
F0.03059220314025879
sg157
F0.12231016159057617
sg158
I7
sg159
I9
sasS'total_cqs'
p162
I14
ssI22
(dp163
S'iters'
p164
I1
sS'meta'
p165
(lp166
(dp167
S'objective'
p168
I0
sS'query_time'
p169
F0.0035631656646728516
sS'comp_time'
p170
F0.0010578632354736328
sS'exec_cq'
p171
I1
sS'total_cq'
p172
I2
sasS'total_cqs'
p173
I2
ssI25
(dp174
S'iters'
p175
I3
sS'meta'
p176
(lp177
(dp178
S'objective'
p179
I3
sS'query_time'
p180
F50.241284132003784
sS'comp_time'
p181
F2.896829128265381
sS'exec_cq'
p182
I6
sS'total_cq'
p183
I7
sa(dp184
g179
I1
sg180
F0.6978001594543457
sg181
F2.3337738513946533
sg182
I4
sg183
I5
sa(dp185
g179
I1
sg180
F0.3174262046813965
sg181
F0.0006072521209716797
sg182
I3
sg183
I3
sasS'total_cqs'
p186
I7
ssI26
(dp187
S'iters'
p188
I8
sS'meta'
p189
(lp190
(dp191
S'objective'
p192
I9
sS'query_time'
p193
F19.563488960266113
sS'comp_time'
p194
F1.8533315658569336
sS'exec_cq'
p195
I9
sS'total_cq'
p196
I13
sa(dp197
g192
I7
sg193
F4.36968207359314
sg194
F2.2674217224121094
sg195
I9
sg196
I11
sa(dp198
g192
I5
sg193
F0.6544299125671387
sg194
F2.0673537254333496
sg195
I7
sg196
I9
sa(dp199
g192
I5
sg193
F0.7274279594421387
sg194
F2.5377960205078125
sg195
I6
sg196
I7
sa(dp200
g192
I4
sg193
F0.8254761695861816
sg194
F2.351546049118042
sg195
I5
sg196
I6
sa(dp201
g192
I3
sg193
F0.7346658706665039
sg194
F2.0586471557617188
sg195
I4
sg196
I5
sa(dp202
g192
I2
sg193
F0.6836228370666504
sg194
F2.0153398513793945
sg195
I3
sg196
I4
sa(dp203
g192
I1
sg193
F0.7919330596923828
sg194
F2.5172789096832275
sg195
I3
sg196
I3
sasS'total_cqs'
p204
I13
ssI27
(dp205
S'iters'
p206
I1
sS'meta'
p207
(lp208
(dp209
S'objective'
p210
I0
sS'query_time'
p211
F0.18015289306640625
sS'comp_time'
p212
F0.0016222000122070312
sS'exec_cq'
p213
I1
sS'total_cq'
p214
I2
sasS'total_cqs'
p215
I2
ssI28
(dp216
S'iters'
p217
I3
sS'meta'
p218
(lp219
(dp220
S'objective'
p221
I8
sS'query_time'
p222
F1.5046310424804688
sS'comp_time'
p223
F0.10720086097717285
sS'exec_cq'
p224
I6
sS'total_cq'
p225
I14
sa(dp226
g221
I7
sg222
F0.009737014770507812
sg223
F0.007545948028564453
sg224
I5
sg225
I11
sa(dp227
g221
I7
sg222
F0.0026102066040039062
sg223
F0.0001239776611328125
sg224
I3
sg225
I9
sasS'total_cqs'
p228
I14
ssI29
(dp229
S'iters'
p230
I1
sS'meta'
p231
(lp232
(dp233
S'objective'
p234
I0
sS'query_time'
p235
F0.008260011672973633
sS'comp_time'
p236
F0.0013887882232666016
sS'exec_cq'
p237
I2
sS'total_cq'
p238
I2
sasS'total_cqs'
p239
I2
ssI30
(dp240
S'iters'
p241
I1
sS'meta'
p242
(lp243
(dp244
S'objective'
p245
I0
sS'query_time'
p246
F0.3647589683532715
sS'comp_time'
p247
F0.0021784305572509766
sS'exec_cq'
p248
I2
sS'total_cq'
p249
I2
sasS'total_cqs'
p250
I2
ssI31
(dp251
S'iters'
p252
I3
sS'meta'
p253
(lp254
(dp255
S'objective'
p256
I3
sS'query_time'
p257
F5.363890171051025
sS'comp_time'
p258
F0.06977272033691406
sS'exec_cq'
p259
I9
sS'total_cq'
p260
I9
sa(dp261
g256
I1
sg257
F0.007133960723876953
sg258
F0.00899505615234375
sg259
I3
sg260
I3
sa(dp262
g256
I0
sg257
F0.006475925445556641
sg258
F0.009546756744384766
sg259
I2
sg260
I2
sasS'total_cqs'
p263
I9
ssI32
(dp264
S'iters'
p265
I3
sS'meta'
p266
(lp267
(dp268
S'objective'
p269
I1
sS'query_time'
p270
F18.038961172103882
sS'comp_time'
p271
F2.421478033065796
sS'exec_cq'
p272
I4
sS'total_cq'
p273
I7
sa(dp274
g269
I0
sg270
F1.1698870658874512
sg271
F0.003591299057006836
sg272
I2
sg273
I4
sa(dp275
g269
I0
sg270
F0.4111900329589844
sg271
F0.3877689838409424
sg272
I1
sg273
I2
sasS'total_cqs'
p276
I7
ssI33
(dp277
S'iters'
p278
I1
sS'meta'
p279
(lp280
(dp281
S'objective'
p282
I0
sS'query_time'
p283
F0.036398887634277344
sS'comp_time'
p284
F0.0018274784088134766
sS'exec_cq'
p285
I2
sS'total_cq'
p286
I2
sasS'total_cqs'
p287
I2
ssI35
(dp288
S'iters'
p289
I2
sS'meta'
p290
(lp291
(dp292
S'objective'
p293
I1
sS'query_time'
p294
F15.588858127593994
sS'comp_time'
p295
F0.07672786712646484
sS'exec_cq'
p296
I4
sS'total_cq'
p297
I5
sa(dp298
g293
I0
sg294
F0.0123138427734375
sg295
F0.08216285705566406
sg296
I2
sg297
I2
sasS'total_cqs'
p299
I5
ssI37
(dp300
S'iters'
p301
I2
sS'meta'
p302
(lp303
(dp304
S'objective'
p305
I6
sS'query_time'
p306
F1.6935560703277588
sS'comp_time'
p307
F0.03769207000732422
sS'exec_cq'
p308
I8
sS'total_cq'
p309
I10
sa(dp310
g305
I0
sg306
F0.0029549598693847656
sg307
F0.06100010871887207
sg308
I2
sg309
I2
sasS'total_cqs'
p311
I10
ssI40
(dp312
S'iters'
p313
I1
sS'meta'
p314
(lp315
(dp316
S'objective'
p317
I0
sS'query_time'
p318
F0.0032558441162109375
sS'comp_time'
p319
F0.0010349750518798828
sS'exec_cq'
p320
I1
sS'total_cq'
p321
I2
sasS'total_cqs'
p322
I2
ssI41
(dp323
S'iters'
p324
I2
sS'meta'
p325
(lp326
(dp327
S'objective'
p328
I2
sS'query_time'
p329
F11.668260335922241
sS'comp_time'
p330
F0.9252862930297852
sS'exec_cq'
p331
I5
sS'total_cq'
p332
I6
sa(dp333
g328
I0
sg329
F0.0008668899536132812
sg330
F0.0010688304901123047
sg331
I2
sg332
I2
sasS'total_cqs'
p334
I6
ssI42
(dp335
S'iters'
p336
I1
sS'meta'
p337
(lp338
(dp339
S'objective'
p340
I0
sS'query_time'
p341
F0.011870861053466797
sS'comp_time'
p342
F0.0012519359588623047
sS'exec_cq'
p343
I1
sS'total_cq'
p344
I2
sasS'total_cqs'
p345
I2
ssI44
(dp346
S'iters'
p347
I2
sS'meta'
p348
(lp349
(dp350
S'objective'
p351
I1
sS'query_time'
p352
F1.5413050651550293
sS'comp_time'
p353
F0.033364057540893555
sS'exec_cq'
p354
I4
sS'total_cq'
p355
I5
sa(dp356
g351
I1
sg352
F0.08154582977294922
sg353
F0.03079700469970703
sg354
I3
sg355
I3
sasS'total_cqs'
p357
I5
ssI45
(dp358
S'iters'
p359
I2
sS'meta'
p360
(lp361
(dp362
S'objective'
p363
I1
sS'query_time'
p364
F0.03705000877380371
sS'comp_time'
p365
F0.0027828216552734375
sS'exec_cq'
p366
I3
sS'total_cq'
p367
I5
sa(dp368
g363
I0
sg364
F0.00016999244689941406
sg365
F0.00021600723266601562
sg366
I2
sg367
I2
sasS'total_cqs'
p369
I5
ssI48
(dp370
S'iters'
p371
I1
sS'meta'
p372
(lp373
(dp374
S'objective'
p375
I0
sS'query_time'
p376
F0.24799299240112305
sS'comp_time'
p377
F0.004583835601806641
sS'exec_cq'
p378
I2
sS'total_cq'
p379
I2
sasS'total_cqs'
p380
I2
ssI49
(dp381
S'iters'
p382
I3
sS'meta'
p383
(lp384
(dp385
S'objective'
p386
I1
sS'query_time'
p387
F0.23322606086730957
sS'comp_time'
p388
F0.003905057907104492
sS'exec_cq'
p389
I4
sS'total_cq'
p390
I5
sa(dp391
g386
I1
sg387
F0.0457148551940918
sg388
F0.00036072731018066406
sg389
I3
sg390
I3
sa(dp392
g386
I0
sg387
F3.3855438232421875e-05
sg388
F7.796287536621094e-05
sg389
I2
sg390
I2
sasS'total_cqs'
p393
I5
ssI50
(dp394
S'iters'
p395
I1
sS'meta'
p396
(lp397
(dp398
S'objective'
p399
I3
sS'query_time'
p400
F0.7923130989074707
sS'comp_time'
p401
F0.002247333526611328
sS'exec_cq'
p402
I5
sS'total_cq'
p403
I5
sasS'total_cqs'
p404
I5
ssI55
(dp405
S'iters'
p406
I1
sS'meta'
p407
(lp408
(dp409
S'objective'
p410
I0
sS'query_time'
p411
F24.775911808013916
sS'comp_time'
p412
F0.017557859420776367
sS'exec_cq'
p413
I2
sS'total_cq'
p414
I2
sasS'total_cqs'
p415
I2
ssI57
(dp416
S'iters'
p417
I2
sS'meta'
p418
(lp419
(dp420
S'objective'
p421
I1
sS'query_time'
p422
F12.922125816345215
sS'comp_time'
p423
F1.4805266857147217
sS'exec_cq'
p424
I3
sS'total_cq'
p425
I3
sa(dp426
g421
I0
sg422
F0.25980401039123535
sg423
F0.39066576957702637
sg424
I1
sg425
I2
sasS'total_cqs'
p427
I3
ssI116
(dp428
S'iters'
p429
I2
sS'meta'
p430
(lp431
(dp432
S'objective'
p433
I17
sS'query_time'
p434
F4.486884832382202
sS'comp_time'
p435
F0.2359449863433838
sS'exec_cq'
p436
I17
sS'total_cq'
p437
I21
sa(dp438
g433
I0
sg434
F0.0009829998016357422
sg435
F0.0009126663208007812
sg436
I2
sg437
I2
sasS'total_cqs'
p439
I21
ssI117
(dp440
S'iters'
p441
I1
sS'meta'
p442
(lp443
(dp444
S'objective'
p445
I3
sS'query_time'
p446
F0.013945817947387695
sS'comp_time'
p447
F0.0017299652099609375
sS'exec_cq'
p448
I5
sS'total_cq'
p449
I5
sasS'total_cqs'
p450
I5
ss.