(dp0
I1
(dp1
S'iters'
p2
I2
sS'meta'
p3
(lp4
(dp5
S'objective'
p6
I1
sS'query_time'
p7
F7.3734190464019775
sS'comp_time'
p8
F7.605552673339844e-05
sS'exec_cq'
p9
I1
sS'total_cq'
p10
I6
sa(dp11
g6
I2
sg7
F165.25976014137268
sg8
F5.91278076171875e-05
sg9
I1
sg10
I2
sasS'total_cqs'
p12
I6
ssI2
(dp13
S'iters'
p14
I1
sS'meta'
p15
(lp16
(dp17
S'objective'
p18
I9
sS'query_time'
p19
F0.7278740406036377
sS'comp_time'
p20
F8.177757263183594e-05
sS'exec_cq'
p21
I1
sS'total_cq'
p22
I6
sasS'total_cqs'
p23
I6
ssI3
(dp24
S'iters'
p25
I5
sS'meta'
p26
(lp27
(dp28
S'objective'
p29
I421
sS'query_time'
p30
F0.06165504455566406
sS'comp_time'
p31
F7.605552673339844e-05
sS'exec_cq'
p32
I1
sS'total_cq'
p33
I33
sa(dp34
g29
I427
sg30
F0.00803518295288086
sg31
F5.0067901611328125e-05
sg32
I1
sg33
I30
sa(dp35
g29
I359
sg30
F0.018781185150146484
sg31
F4.601478576660156e-05
sg32
I1
sg33
I29
sa(dp36
g29
I319
sg30
F0.01532602310180664
sg31
F4.982948303222656e-05
sg32
I2
sg33
I26
sa(dp37
g29
I312
sg30
F0.21120810508728027
sg31
F9.799003601074219e-05
sg32
I3
sg33
I24
sasS'total_cqs'
p38
I33
ssI4
(dp39
S'iters'
p40
I0
sS'meta'
p41
(lp42
sS'total_cqs'
p43
I1
ssI5
(dp44
S'iters'
p45
I0
sS'meta'
p46
(lp47
sS'total_cqs'
p48
I1
ssI6
(dp49
S'iters'
p50
I3
sS'meta'
p51
(lp52
(dp53
S'objective'
p54
I3
sS'query_time'
p55
F1.1091220378875732
sS'comp_time'
p56
F6.794929504394531e-05
sS'exec_cq'
p57
I1
sS'total_cq'
p58
I5
sa(dp59
g54
I3
sg55
F17.350926160812378
sg56
F5.888938903808594e-05
sg57
I1
sg58
I3
sa(dp60
g54
I4
sg55
F4.544497966766357
sg56
F7.200241088867188e-05
sg57
I2
sg58
I2
sasS'total_cqs'
p61
I5
ssI7
(dp62
S'iters'
p63
I0
sS'meta'
p64
(lp65
sS'total_cqs'
p66
I1
ssI8
(dp67
S'iters'
p68
I1
sS'meta'
p69
(lp70
(dp71
S'objective'
p72
I9
sS'query_time'
p73
F31.426719903945923
sS'comp_time'
p74
F0.0002498626708984375
sS'exec_cq'
p75
I1
sS'total_cq'
p76
I6
sasS'total_cqs'
p77
I6
ssI9
(dp78
S'iters'
p79
I2
sS'meta'
p80
(lp81
(dp82
S'objective'
p83
I5
sS'query_time'
p84
F1.906390905380249
sS'comp_time'
p85
F6.29425048828125e-05
sS'exec_cq'
p86
I1
sS'total_cq'
p87
I6
sa(dp88
g83
I4
sg84
F4.381617069244385
sg85
F4.00543212890625e-05
sg86
I1
sg87
I2
sasS'total_cqs'
p89
I6
ssI10
(dp90
S'iters'
p91
I0
sS'meta'
p92
(lp93
sS'total_cqs'
p94
I1
ssI11
(dp95
S'iters'
p96
I0
sS'meta'
p97
(lp98
sS'total_cqs'
p99
I1
ssI12
(dp100
S'iters'
p101
I0
sS'meta'
p102
(lp103
sS'total_cqs'
p104
I1
ssI13
(dp105
S'iters'
p106
I1
sS'meta'
p107
(lp108
(dp109
S'objective'
p110
I22
sS'query_time'
p111
F0.2688179016113281
sS'comp_time'
p112
F6.198883056640625e-05
sS'exec_cq'
p113
I2
sS'total_cq'
p114
I8
sasS'total_cqs'
p115
I8
ssI14
(dp116
S'iters'
p117
I1
sS'meta'
p118
(lp119
(dp120
S'objective'
p121
I5
sS'query_time'
p122
F0.9299781322479248
sS'comp_time'
p123
F6.818771362304688e-05
sS'exec_cq'
p124
I1
sS'total_cq'
p125
I5
sasS'total_cqs'
p126
I5
ssI16
(dp127
S'iters'
p128
I2
sS'meta'
p129
(lp130
(dp131
S'objective'
p132
I3
sS'query_time'
p133
F7.137768030166626
sS'comp_time'
p134
F7.581710815429688e-05
sS'exec_cq'
p135
I1
sS'total_cq'
p136
I5
sa(dp137
g132
I1
sg133
F110.34133911132812
sg134
F6.699562072753906e-05
sg135
I2
sg136
I2
sasS'total_cqs'
p138
I5
ssI17
(dp139
S'iters'
p140
I0
sS'meta'
p141
(lp142
sS'total_cqs'
p143
I1
ssI18
(dp144
S'iters'
p145
I2
sS'meta'
p146
(lp147
(dp148
S'objective'
p149
I3
sS'query_time'
p150
F0.40225982666015625
sS'comp_time'
p151
F6.008148193359375e-05
sS'exec_cq'
p152
I1
sS'total_cq'
p153
I5
sa(dp154
g149
I1
sg150
F0.2888309955596924
sg151
F8.20159912109375e-05
sg152
I2
sg153
I2
sasS'total_cqs'
p155
I5
ssI19
(dp156
S'iters'
p157
I0
sS'meta'
p158
(lp159
sS'total_cqs'
p160
I1
ssI20
(dp161
S'iters'
p162
I2
sS'meta'
p163
(lp164
(dp165
S'objective'
p166
I56
sS'query_time'
p167
F6.950778961181641
sS'comp_time'
p168
F0.0009629726409912109
sS'exec_cq'
p169
I2
sS'total_cq'
p170
I12
sa(dp171
g166
I47
sg167
F0.10910201072692871
sg168
F8.797645568847656e-05
sg169
I2
sg170
I11
sasS'total_cqs'
p172
I12
ssI21
(dp173
S'iters'
p174
I3
sS'meta'
p175
(lp176
(dp177
S'objective'
p178
I77
sS'query_time'
p179
F20.02534008026123
sS'comp_time'
p180
F0.00010704994201660156
sS'exec_cq'
p181
I1
sS'total_cq'
p182
I14
sa(dp183
g178
I65
sg179
F0.26813197135925293
sg180
F7.414817810058594e-05
sg181
I1
sg182
I13
sa(dp184
g178
I54
sg179
F0.021851062774658203
sg180
F0.00012612342834472656
sg181
I1
sg182
I12
sasS'total_cqs'
p185
I14
ssI22
(dp186
S'iters'
p187
I1
sS'meta'
p188
(lp189
(dp190
S'objective'
p191
I1
sS'query_time'
p192
F0.004544973373413086
sS'comp_time'
p193
F5.412101745605469e-05
sS'exec_cq'
p194
I1
sS'total_cq'
p195
I2
sasS'total_cqs'
p196
I2
ssI23
(dp197
S'iters'
p198
I0
sS'meta'
p199
(lp200
sS'total_cqs'
p201
I1
ssI24
(dp202
S'iters'
p203
I0
sS'meta'
p204
(lp205
sS'total_cqs'
p206
I1
ssI25
(dp207
S'iters'
p208
I1
sS'meta'
p209
(lp210
(dp211
S'objective'
p212
I14
sS'query_time'
p213
F0.35265493392944336
sS'comp_time'
p214
F5.888938903808594e-05
sS'exec_cq'
p215
I1
sS'total_cq'
p216
I7
sasS'total_cqs'
p217
I7
ssI26
(dp218
S'iters'
p219
I3
sS'meta'
p220
(lp221
(dp222
S'objective'
p223
I53
sS'query_time'
p224
F2.009424924850464
sS'comp_time'
p225
F9.489059448242188e-05
sS'exec_cq'
p226
I1
sS'total_cq'
p227
I13
sa(dp228
g223
I48
sg224
F0.06883502006530762
sg225
F7.295608520507812e-05
sg226
I1
sg227
I11
sa(dp229
g223
I38
sg224
F0.005918979644775391
sg225
F3.0040740966796875e-05
sg226
I1
sg227
I10
sasS'total_cqs'
p230
I13
ssI27
(dp231
S'iters'
p232
I1
sS'meta'
p233
(lp234
(dp235
S'objective'
p236
I1
sS'query_time'
p237
F0.3451399803161621
sS'comp_time'
p238
F6.508827209472656e-05
sS'exec_cq'
p239
I1
sS'total_cq'
p240
I2
sasS'total_cqs'
p241
I2
ssI28
(dp242
S'iters'
p243
I2
sS'meta'
p244
(lp245
(dp246
S'objective'
p247
I43
sS'query_time'
p248
F1.6763560771942139
sS'comp_time'
p249
F4.00543212890625e-05
sS'exec_cq'
p250
I1
sS'total_cq'
p251
I14
sa(dp252
g247
I50
sg248
F0.9452359676361084
sg249
F3.910064697265625e-05
sg250
I1
sg251
I11
sasS'total_cqs'
p253
I14
ssI29
(dp254
S'iters'
p255
I1
sS'meta'
p256
(lp257
(dp258
S'objective'
p259
I1
sS'query_time'
p260
F0.0053179264068603516
sS'comp_time'
p261
F6.103515625e-05
sS'exec_cq'
p262
I1
sS'total_cq'
p263
I2
sasS'total_cqs'
p264
I2
ssI30
(dp265
S'iters'
p266
I1
sS'meta'
p267
(lp268
(dp269
S'objective'
p270
I1
sS'query_time'
p271
F0.4210929870605469
sS'comp_time'
p272
F6.508827209472656e-05
sS'exec_cq'
p273
I1
sS'total_cq'
p274
I2
sasS'total_cqs'
p275
I2
ssI31
(dp276
S'iters'
p277
I2
sS'meta'
p278
(lp279
(dp280
S'objective'
p281
I17
sS'query_time'
p282
F1.3212008476257324
sS'comp_time'
p283
F8.106231689453125e-05
sS'exec_cq'
p284
I1
sS'total_cq'
p285
I9
sa(dp286
g281
I15
sg282
F0.42167210578918457
sg283
F7.605552673339844e-05
sg284
I1
sg285
I7
sasS'total_cqs'
p287
I9
ssI32
(dp288
S'iters'
p289
I1
sS'meta'
p290
(lp291
(dp292
S'objective'
p293
I14
sS'query_time'
p294
F0.18326282501220703
sS'comp_time'
p295
F6.604194641113281e-05
sS'exec_cq'
p296
I1
sS'total_cq'
p297
I7
sasS'total_cqs'
p298
I7
ssI33
(dp299
S'iters'
p300
I1
sS'meta'
p301
(lp302
(dp303
S'objective'
p304
I1
sS'query_time'
p305
F0.03069901466369629
sS'comp_time'
p306
F6.4849853515625e-05
sS'exec_cq'
p307
I1
sS'total_cq'
p308
I2
sasS'total_cqs'
p309
I2
ssI34
(dp310
S'iters'
p311
I0
sS'meta'
p312
(lp313
sS'total_cqs'
p314
I1
ssI35
(dp315
S'iters'
p316
I2
sS'meta'
p317
(lp318
(dp319
S'objective'
p320
I1
sS'query_time'
p321
F2.559767961502075
sS'comp_time'
p322
F8.392333984375e-05
sS'exec_cq'
p323
I1
sS'total_cq'
p324
I5
sa(dp325
g320
I2
sg321
F0.12945294380187988
sg322
F3.814697265625e-05
sg323
I1
sg324
I2
sasS'total_cqs'
p326
I5
ssI37
(dp327
S'iters'
p328
I2
sS'meta'
p329
(lp330
(dp331
S'objective'
p332
I35
sS'query_time'
p333
F0.747575044631958
sS'comp_time'
p334
F8.177757263183594e-05
sS'exec_cq'
p335
I1
sS'total_cq'
p336
I10
sa(dp337
g332
I27
sg333
F0.39610791206359863
sg334
F8.893013000488281e-05
sg335
I1
sg336
I9
sasS'total_cqs'
p338
I10
ssI38
(dp339
S'iters'
p340
I0
sS'meta'
p341
(lp342
sS'total_cqs'
p343
I1
ssI39
(dp344
S'iters'
p345
I0
sS'meta'
p346
(lp347
sS'total_cqs'
p348
I1
ssI40
(dp349
S'iters'
p350
I1
sS'meta'
p351
(lp352
(dp353
S'objective'
p354
I1
sS'query_time'
p355
F16.1089129447937
sS'comp_time'
p356
F0.00014090538024902344
sS'exec_cq'
p357
I2
sS'total_cq'
p358
I2
sasS'total_cqs'
p359
I2
ssI41
(dp360
S'iters'
p361
I2
sS'meta'
p362
(lp363
(dp364
S'objective'
p365
I1
sS'query_time'
p366
F7.366679906845093
sS'comp_time'
p367
F7.009506225585938e-05
sS'exec_cq'
p368
I1
sS'total_cq'
p369
I6
sa(dp370
g365
I2
sg366
F72.08837294578552
sg367
F7.700920104980469e-05
sg368
I2
sg369
I2
sasS'total_cqs'
p371
I6
ssI42
(dp372
S'iters'
p373
I1
sS'meta'
p374
(lp375
(dp376
S'objective'
p377
I1
sS'query_time'
p378
F0.012286186218261719
sS'comp_time'
p379
F7.390975952148438e-05
sS'exec_cq'
p380
I1
sS'total_cq'
p381
I2
sasS'total_cqs'
p382
I2
ssI43
(dp383
S'iters'
p384
I0
sS'meta'
p385
(lp386
sS'total_cqs'
p387
I1
ssI44
(dp388
S'iters'
p389
I1
sS'meta'
p390
(lp391
(dp392
S'objective'
p393
I5
sS'query_time'
p394
F0.013649940490722656
sS'comp_time'
p395
F6.699562072753906e-05
sS'exec_cq'
p396
I1
sS'total_cq'
p397
I5
sasS'total_cqs'
p398
I5
ssI45
(dp399
S'iters'
p400
I2
sS'meta'
p401
(lp402
(dp403
S'objective'
p404
I1
sS'query_time'
p405
F0.056326866149902344
sS'comp_time'
p406
F7.295608520507812e-05
sS'exec_cq'
p407
I1
sS'total_cq'
p408
I5
sa(dp409
g404
I2
sg405
F0.6937520503997803
sg406
F5.1021575927734375e-05
sg407
I2
sg408
I2
sasS'total_cqs'
p410
I5
ssI46
(dp411
S'iters'
p412
I0
sS'meta'
p413
(lp414
sS'total_cqs'
p415
I1
ssI47
(dp416
S'iters'
p417
I0
sS'meta'
p418
(lp419
sS'total_cqs'
p420
I1
ssI48
(dp421
S'iters'
p422
I1
sS'meta'
p423
(lp424
(dp425
S'objective'
p426
I1
sS'query_time'
p427
F0.12043404579162598
sS'comp_time'
p428
F7.796287536621094e-05
sS'exec_cq'
p429
I1
sS'total_cq'
p430
I2
sasS'total_cqs'
p431
I2
ssI49
(dp432
S'iters'
p433
I2
sS'meta'
p434
(lp435
(dp436
S'objective'
p437
I1
sS'query_time'
p438
F0.052452802658081055
sS'comp_time'
p439
F6.413459777832031e-05
sS'exec_cq'
p440
I1
sS'total_cq'
p441
I5
sa(dp442
g437
I3
sg438
F0.1723620891571045
sg439
F3.0040740966796875e-05
sg440
I1
sg441
I2
sasS'total_cqs'
p443
I5
ssI50
(dp444
S'iters'
p445
I1
sS'meta'
p446
(lp447
(dp448
S'objective'
p449
I5
sS'query_time'
p450
F0.7518150806427002
sS'comp_time'
p451
F7.486343383789062e-05
sS'exec_cq'
p452
I1
sS'total_cq'
p453
I5
sasS'total_cqs'
p454
I5
ssI51
(dp455
S'iters'
p456
I0
sS'meta'
p457
(lp458
sS'total_cqs'
p459
I1
ssI52
(dp460
S'iters'
p461
I0
sS'meta'
p462
(lp463
sS'total_cqs'
p464
I1
ssI53
(dp465
S'iters'
p466
I0
sS'meta'
p467
(lp468
sS'total_cqs'
p469
I1
ssI55
(dp470
S'iters'
p471
I1
sS'meta'
p472
(lp473
(dp474
S'objective'
p475
I1
sS'query_time'
p476
F14.898026943206787
sS'comp_time'
p477
F3.0040740966796875e-05
sS'exec_cq'
p478
I1
sS'total_cq'
p479
I2
sasS'total_cqs'
p480
I2
ssI56
(dp481
S'iters'
p482
I0
sS'meta'
p483
(lp484
sS'total_cqs'
p485
I1
ssI57
(dp486
S'iters'
p487
I1
sS'meta'
p488
(lp489
(dp490
S'objective'
p491
I2
sS'query_time'
p492
F11.447805881500244
sS'comp_time'
p493
F0.00015282630920410156
sS'exec_cq'
p494
I2
sS'total_cq'
p495
I3
sasS'total_cqs'
p496
I3
ssI108
(dp497
S'iters'
p498
I0
sS'meta'
p499
(lp500
sS'total_cqs'
p501
I1
ssI109
(dp502
S'iters'
p503
I0
sS'meta'
p504
(lp505
sS'total_cqs'
p506
I1
ssI116
(dp507
S'iters'
p508
I3
sS'meta'
p509
(lp510
(dp511
S'objective'
p512
I189
sS'query_time'
p513
F1.0239930152893066
sS'comp_time'
p514
F9.393692016601562e-05
sS'exec_cq'
p515
I1
sS'total_cq'
p516
I21
sa(dp517
g512
I164
sg513
F4.025441884994507
sg514
F9.298324584960938e-05
sg515
I4
sg516
I20
sa(dp518
g512
I11
sg513
F15.00006890296936
sg514
F3.910064697265625e-05
sg515
I1
sg516
I2
sasS'total_cqs'
p519
I21
ssI117
(dp520
S'iters'
p521
I1
sS'meta'
p522
(lp523
(dp524
S'objective'
p525
I5
sS'query_time'
p526
F0.0053920745849609375
sS'comp_time'
p527
F0.00043201446533203125
sS'exec_cq'
p528
I1
sS'total_cq'
p529
I5
sasS'total_cqs'
p530
I5
ssI118
(dp531
S'iters'
p532
I0
sS'meta'
p533
(lp534
sS'total_cqs'
p535
I1
ssI122
(dp536
S'iters'
p537
I0
sS'meta'
p538
(lp539
sS'total_cqs'
p540
I1
ss.