(dp0
I1
(dp1
S'iters'
p2
I2
sS'meta'
p3
(lp4
(dp5
S'objective'
p6
I1
sS'query_time'
p7
F4.57337498664856
sS'comp_time'
p8
F8.416175842285156e-05
sS'exec_cq'
p9
I1
sS'total_cq'
p10
I6
sa(dp11
g6
I2
sg7
F82.50579500198364
sg8
F0.0001010894775390625
sg9
I1
sg10
I2
sasS'total_cqs'
p12
I6
ssI2
(dp13
S'iters'
p14
I1
sS'meta'
p15
(lp16
(dp17
S'objective'
p18
I9
sS'query_time'
p19
F0.6914920806884766
sS'comp_time'
p20
F6.699562072753906e-05
sS'exec_cq'
p21
I1
sS'total_cq'
p22
I6
sasS'total_cqs'
p23
I6
ssI3
(dp24
S'iters'
p25
I1
sS'meta'
p26
(lp27
(dp28
S'objective'
p29
I495
sS'query_time'
p30
F0.30620694160461426
sS'comp_time'
p31
F0.0001239776611328125
sS'exec_cq'
p32
I1
sS'total_cq'
p33
I33
sasS'total_cqs'
p34
I33
ssI4
(dp35
S'iters'
p36
I0
sS'meta'
p37
(lp38
sS'total_cqs'
p39
I1
ssI5
(dp40
S'iters'
p41
I0
sS'meta'
p42
(lp43
sS'total_cqs'
p44
I1
ssI6
(dp45
S'iters'
p46
I2
sS'meta'
p47
(lp48
(dp49
S'objective'
p50
I1
sS'query_time'
p51
F20.05881404876709
sS'comp_time'
p52
F0.0001430511474609375
sS'exec_cq'
p53
I1
sS'total_cq'
p54
I5
sa(dp55
g50
I2
sg51
F0.26370906829833984
sg52
F9.799003601074219e-05
sg53
I1
sg54
I2
sasS'total_cqs'
p56
I5
ssI7
(dp57
S'iters'
p58
I0
sS'meta'
p59
(lp60
sS'total_cqs'
p61
I1
ssI8
(dp62
S'iters'
p63
I2
sS'meta'
p64
(lp65
(dp66
S'objective'
p67
I13
sS'query_time'
p68
F42.42752480506897
sS'comp_time'
p69
F6.699562072753906e-05
sS'exec_cq'
p70
I3
sS'total_cq'
p71
I6
sa(dp72
g67
I5
sg68
F0.09778189659118652
sg69
F7.700920104980469e-05
sg70
I2
sg71
I5
sasS'total_cqs'
p73
I6
ssI9
(dp74
S'iters'
p75
I2
sS'meta'
p76
(lp77
(dp78
S'objective'
p79
I3
sS'query_time'
p80
F2.6658780574798584
sS'comp_time'
p81
F8.702278137207031e-05
sS'exec_cq'
p82
I1
sS'total_cq'
p83
I6
sa(dp84
g79
I3
sg80
F4.083554983139038
sg81
F0.0001628398895263672
sg82
I1
sg83
I2
sasS'total_cqs'
p85
I6
ssI10
(dp86
S'iters'
p87
I0
sS'meta'
p88
(lp89
sS'total_cqs'
p90
I1
ssI11
(dp91
S'iters'
p92
I0
sS'meta'
p93
(lp94
sS'total_cqs'
p95
I1
ssI12
(dp96
S'iters'
p97
I0
sS'meta'
p98
(lp99
sS'total_cqs'
p100
I1
ssI13
(dp101
S'iters'
p102
I1
sS'meta'
p103
(lp104
(dp105
S'objective'
p106
I20
sS'query_time'
p107
F0.25023508071899414
sS'comp_time'
p108
F8.7738037109375e-05
sS'exec_cq'
p109
I1
sS'total_cq'
p110
I8
sasS'total_cqs'
p111
I8
ssI14
(dp112
S'iters'
p113
I1
sS'meta'
p114
(lp115
(dp116
S'objective'
p117
I5
sS'query_time'
p118
F0.8996279239654541
sS'comp_time'
p119
F6.890296936035156e-05
sS'exec_cq'
p120
I1
sS'total_cq'
p121
I5
sasS'total_cqs'
p122
I5
ssI16
(dp123
S'iters'
p124
I2
sS'meta'
p125
(lp126
(dp127
S'objective'
p128
I3
sS'query_time'
p129
F3.075688123703003
sS'comp_time'
p130
F7.987022399902344e-05
sS'exec_cq'
p131
I1
sS'total_cq'
p132
I5
sa(dp133
g128
I1
sg129
F101.72386598587036
sg130
F8.606910705566406e-05
sg131
I2
sg132
I2
sasS'total_cqs'
p134
I5
ssI17
(dp135
S'iters'
p136
I0
sS'meta'
p137
(lp138
sS'total_cqs'
p139
I1
ssI18
(dp140
S'iters'
p141
I2
sS'meta'
p142
(lp143
(dp144
S'objective'
p145
I3
sS'query_time'
p146
F0.3496420383453369
sS'comp_time'
p147
F8.20159912109375e-05
sS'exec_cq'
p148
I1
sS'total_cq'
p149
I5
sa(dp150
g145
I4
sg146
F0.30359888076782227
sg147
F8.797645568847656e-05
sg148
I2
sg149
I2
sasS'total_cqs'
p151
I5
ssI19
(dp152
S'iters'
p153
I0
sS'meta'
p154
(lp155
sS'total_cqs'
p156
I1
ssI20
(dp157
S'iters'
p158
I1
sS'meta'
p159
(lp160
(dp161
S'objective'
p162
I54
sS'query_time'
p163
F0.1400458812713623
sS'comp_time'
p164
F7.772445678710938e-05
sS'exec_cq'
p165
I1
sS'total_cq'
p166
I12
sasS'total_cqs'
p167
I12
ssI21
(dp168
S'iters'
p169
I1
sS'meta'
p170
(lp171
(dp172
S'objective'
p173
I77
sS'query_time'
p174
F0.03084588050842285
sS'comp_time'
p175
F9.012222290039062e-05
sS'exec_cq'
p176
I1
sS'total_cq'
p177
I14
sasS'total_cqs'
p178
I14
ssI22
(dp179
S'iters'
p180
I1
sS'meta'
p181
(lp182
(dp183
S'objective'
p184
I1
sS'query_time'
p185
F0.00480198860168457
sS'comp_time'
p186
F6.794929504394531e-05
sS'exec_cq'
p187
I1
sS'total_cq'
p188
I2
sasS'total_cqs'
p189
I2
ssI23
(dp190
S'iters'
p191
I0
sS'meta'
p192
(lp193
sS'total_cqs'
p194
I1
ssI24
(dp195
S'iters'
p196
I0
sS'meta'
p197
(lp198
sS'total_cqs'
p199
I1
ssI25
(dp200
S'iters'
p201
I1
sS'meta'
p202
(lp203
(dp204
S'objective'
p205
I14
sS'query_time'
p206
F0.35161709785461426
sS'comp_time'
p207
F7.581710815429688e-05
sS'exec_cq'
p208
I1
sS'total_cq'
p209
I7
sasS'total_cqs'
p210
I7
ssI26
(dp211
S'iters'
p212
I1
sS'meta'
p213
(lp214
(dp215
S'objective'
p216
I65
sS'query_time'
p217
F0.014648914337158203
sS'comp_time'
p218
F9.72747802734375e-05
sS'exec_cq'
p219
I1
sS'total_cq'
p220
I13
sasS'total_cqs'
p221
I13
ssI27
(dp222
S'iters'
p223
I1
sS'meta'
p224
(lp225
(dp226
S'objective'
p227
I1
sS'query_time'
p228
F0.3364841938018799
sS'comp_time'
p229
F8.702278137207031e-05
sS'exec_cq'
p230
I1
sS'total_cq'
p231
I2
sasS'total_cqs'
p232
I2
ssI28
(dp233
S'iters'
p234
I1
sS'meta'
p235
(lp236
(dp237
S'objective'
p238
I77
sS'query_time'
p239
F1.2445979118347168
sS'comp_time'
p240
F0.00010895729064941406
sS'exec_cq'
p241
I1
sS'total_cq'
p242
I14
sasS'total_cqs'
p243
I14
ssI29
(dp244
S'iters'
p245
I1
sS'meta'
p246
(lp247
(dp248
S'objective'
p249
I1
sS'query_time'
p250
F0.005304098129272461
sS'comp_time'
p251
F6.318092346191406e-05
sS'exec_cq'
p252
I1
sS'total_cq'
p253
I2
sasS'total_cqs'
p254
I2
ssI30
(dp255
S'iters'
p256
I1
sS'meta'
p257
(lp258
(dp259
S'objective'
p260
I1
sS'query_time'
p261
F0.35026001930236816
sS'comp_time'
p262
F6.699562072753906e-05
sS'exec_cq'
p263
I1
sS'total_cq'
p264
I2
sasS'total_cqs'
p265
I2
ssI31
(dp266
S'iters'
p267
I1
sS'meta'
p268
(lp269
(dp270
S'objective'
p271
I27
sS'query_time'
p272
F0.6185910701751709
sS'comp_time'
p273
F7.605552673339844e-05
sS'exec_cq'
p274
I1
sS'total_cq'
p275
I9
sasS'total_cqs'
p276
I9
ssI32
(dp277
S'iters'
p278
I1
sS'meta'
p279
(lp280
(dp281
S'objective'
p282
I14
sS'query_time'
p283
F0.17064309120178223
sS'comp_time'
p284
F8.58306884765625e-05
sS'exec_cq'
p285
I1
sS'total_cq'
p286
I7
sasS'total_cqs'
p287
I7
ssI33
(dp288
S'iters'
p289
I1
sS'meta'
p290
(lp291
(dp292
S'objective'
p293
I1
sS'query_time'
p294
F0.031103134155273438
sS'comp_time'
p295
F7.677078247070312e-05
sS'exec_cq'
p296
I1
sS'total_cq'
p297
I2
sasS'total_cqs'
p298
I2
ssI34
(dp299
S'iters'
p300
I0
sS'meta'
p301
(lp302
sS'total_cqs'
p303
I1
ssI35
(dp304
S'iters'
p305
I2
sS'meta'
p306
(lp307
(dp308
S'objective'
p309
I1
sS'query_time'
p310
F1.9895589351654053
sS'comp_time'
p311
F0.00011706352233886719
sS'exec_cq'
p312
I1
sS'total_cq'
p313
I5
sa(dp314
g309
I3
sg310
F0.11388993263244629
sg311
F0.00010704994201660156
sg312
I1
sg313
I2
sasS'total_cqs'
p315
I5
ssI37
(dp316
S'iters'
p317
I1
sS'meta'
p318
(lp319
(dp320
S'objective'
p321
I35
sS'query_time'
p322
F0.42954206466674805
sS'comp_time'
p323
F8.7738037109375e-05
sS'exec_cq'
p324
I1
sS'total_cq'
p325
I10
sasS'total_cqs'
p326
I10
ssI38
(dp327
S'iters'
p328
I0
sS'meta'
p329
(lp330
sS'total_cqs'
p331
I1
ssI39
(dp332
S'iters'
p333
I0
sS'meta'
p334
(lp335
sS'total_cqs'
p336
I1
ssI40
(dp337
S'iters'
p338
I1
sS'meta'
p339
(lp340
(dp341
S'objective'
p342
I1
sS'query_time'
p343
F15.491084814071655
sS'comp_time'
p344
F0.000186920166015625
sS'exec_cq'
p345
I2
sS'total_cq'
p346
I2
sasS'total_cqs'
p347
I2
ssI41
(dp348
S'iters'
p349
I2
sS'meta'
p350
(lp351
(dp352
S'objective'
p353
I1
sS'query_time'
p354
F7.114001989364624
sS'comp_time'
p355
F9.822845458984375e-05
sS'exec_cq'
p356
I1
sS'total_cq'
p357
I6
sa(dp358
g353
I1
sg354
F64.4676468372345
sg355
F8.106231689453125e-05
sg356
I2
sg357
I2
sasS'total_cqs'
p359
I6
ssI42
(dp360
S'iters'
p361
I1
sS'meta'
p362
(lp363
(dp364
S'objective'
p365
I1
sS'query_time'
p366
F0.011874914169311523
sS'comp_time'
p367
F8.106231689453125e-05
sS'exec_cq'
p368
I1
sS'total_cq'
p369
I2
sasS'total_cqs'
p370
I2
ssI43
(dp371
S'iters'
p372
I0
sS'meta'
p373
(lp374
sS'total_cqs'
p375
I1
ssI44
(dp376
S'iters'
p377
I1
sS'meta'
p378
(lp379
(dp380
S'objective'
p381
I5
sS'query_time'
p382
F0.010565996170043945
sS'comp_time'
p383
F9.989738464355469e-05
sS'exec_cq'
p384
I1
sS'total_cq'
p385
I5
sasS'total_cqs'
p386
I5
ssI45
(dp387
S'iters'
p388
I2
sS'meta'
p389
(lp390
(dp391
S'objective'
p392
I3
sS'query_time'
p393
F0.044870853424072266
sS'comp_time'
p394
F9.775161743164062e-05
sS'exec_cq'
p395
I1
sS'total_cq'
p396
I5
sa(dp397
g392
I4
sg393
F0.628411054611206
sg394
F8.416175842285156e-05
sg395
I2
sg396
I2
sasS'total_cqs'
p398
I5
ssI46
(dp399
S'iters'
p400
I0
sS'meta'
p401
(lp402
sS'total_cqs'
p403
I1
ssI47
(dp404
S'iters'
p405
I0
sS'meta'
p406
(lp407
sS'total_cqs'
p408
I1
ssI48
(dp409
S'iters'
p410
I1
sS'meta'
p411
(lp412
(dp413
S'objective'
p414
I1
sS'query_time'
p415
F0.11560201644897461
sS'comp_time'
p416
F8.20159912109375e-05
sS'exec_cq'
p417
I1
sS'total_cq'
p418
I2
sasS'total_cqs'
p419
I2
ssI49
(dp420
S'iters'
p421
I1
sS'meta'
p422
(lp423
(dp424
S'objective'
p425
I5
sS'query_time'
p426
F0.10544800758361816
sS'comp_time'
p427
F9.512901306152344e-05
sS'exec_cq'
p428
I1
sS'total_cq'
p429
I5
sasS'total_cqs'
p430
I5
ssI50
(dp431
S'iters'
p432
I1
sS'meta'
p433
(lp434
(dp435
S'objective'
p436
I5
sS'query_time'
p437
F0.7351529598236084
sS'comp_time'
p438
F7.891654968261719e-05
sS'exec_cq'
p439
I1
sS'total_cq'
p440
I5
sasS'total_cqs'
p441
I5
ssI51
(dp442
S'iters'
p443
I0
sS'meta'
p444
(lp445
sS'total_cqs'
p446
I1
ssI52
(dp447
S'iters'
p448
I0
sS'meta'
p449
(lp450
sS'total_cqs'
p451
I1
ssI53
(dp452
S'iters'
p453
I0
sS'meta'
p454
(lp455
sS'total_cqs'
p456
I1
ssI55
(dp457
S'iters'
p458
I1
sS'meta'
p459
(lp460
(dp461
S'objective'
p462
I1
sS'query_time'
p463
F37.74325489997864
sS'comp_time'
p464
F0.000148773193359375
sS'exec_cq'
p465
I1
sS'total_cq'
p466
I2
sasS'total_cqs'
p467
I2
ssI56
(dp468
S'iters'
p469
I0
sS'meta'
p470
(lp471
sS'total_cqs'
p472
I1
ssI57
(dp473
S'iters'
p474
I1
sS'meta'
p475
(lp476
(dp477
S'objective'
p478
I0
sS'query_time'
p479
F10.548074007034302
sS'comp_time'
p480
F0.000118255615234375
sS'exec_cq'
p481
I1
sS'total_cq'
p482
I3
sasS'total_cqs'
p483
I3
ssI108
(dp484
S'iters'
p485
I0
sS'meta'
p486
(lp487
sS'total_cqs'
p488
I1
ssI109
(dp489
S'iters'
p490
I0
sS'meta'
p491
(lp492
sS'total_cqs'
p493
I1
ssI116
(dp494
S'iters'
p495
I2
sS'meta'
p496
(lp497
(dp498
S'objective'
p499
I181
sS'query_time'
p500
F2.4188199043273926
sS'comp_time'
p501
F0.00011396408081054688
sS'exec_cq'
p502
I1
sS'total_cq'
p503
I21
sa(dp504
g499
I17
sg500
F5.8065149784088135
sg501
F8.893013000488281e-05
sg502
I1
sg503
I2
sasS'total_cqs'
p505
I21
ssI117
(dp506
S'iters'
p507
I1
sS'meta'
p508
(lp509
(dp510
S'objective'
p511
I5
sS'query_time'
p512
F0.006346940994262695
sS'comp_time'
p513
F8.392333984375e-05
sS'exec_cq'
p514
I1
sS'total_cq'
p515
I5
sasS'total_cqs'
p516
I5
ssI118
(dp517
S'iters'
p518
I0
sS'meta'
p519
(lp520
sS'total_cqs'
p521
I1
ssI122
(dp522
S'iters'
p523
I0
sS'meta'
p524
(lp525
sS'total_cqs'
p526
I1
ss.