(dp0
I1
(dp1
S'iters'
p2
I2
sS'meta'
p3
(lp4
(dp5
S'objective'
p6
I3
sS'query_time'
p7
F16.981271982192993
sS'comp_time'
p8
F0.739830732345581
sS'exec_cq'
p9
I3
sS'total_cq'
p10
I6
sa(dp11
g6
I3
sg7
F0.1602630615234375
sg8
F0.6556601524353027
sg9
I2
sg10
I2
sasS'total_cqs'
p12
I6
ssI2
(dp13
S'iters'
p14
I1
sS'meta'
p15
(lp16
(dp17
S'objective'
p18
I9
sS'query_time'
p19
F0.8505640029907227
sS'comp_time'
p20
F0.21164917945861816
sS'exec_cq'
p21
I2
sS'total_cq'
p22
I6
sasS'total_cqs'
p23
I6
ssI3
(dp24
S'iters'
p25
I13
sS'meta'
p26
(lp27
(dp28
S'objective'
p29
I415
sS'query_time'
p30
F25.345144987106323
sS'comp_time'
p31
F0.29833245277404785
sS'exec_cq'
p32
I15
sS'total_cq'
p33
I33
sa(dp34
g29
I390
sg30
F0.31798291206359863
sg31
F0.03786301612854004
sg32
I13
sg33
I30
sa(dp35
g29
I321
sg30
F0.01304316520690918
sg31
F0.18423008918762207
sg32
I12
sg33
I27
sa(dp36
g29
I286
sg30
F0.004359006881713867
sg31
F0.022389888763427734
sg32
I10
sg33
I24
sa(dp37
g29
I243
sg30
F0.00888514518737793
sg31
F0.12303352355957031
sg32
I9
sg33
I22
sa(dp38
g29
I196
sg30
F0.004212141036987305
sg31
F0.021239757537841797
sg32
I8
sg33
I19
sa(dp39
g29
I208
sg30
F0.0001919269561767578
sg31
F0.0031709671020507812
sg32
I6
sg33
I16
sa(dp40
g29
I215
sg30
F1.811981201171875e-05
sg31
F0.0015981197357177734
sg32
I5
sg33
I15
sa(dp41
g29
I170
sg30
F27.15858221054077
sg31
F22.74997615814209
sg32
I4
sg33
I14
sa(dp42
g29
I115
sg30
F0.004021883010864258
sg31
F0.01636505126953125
sg32
I5
sg33
I13
sa(dp43
g29
I93
sg30
F0.2517521381378174
sg31
F0.020122289657592773
sg32
I5
sg33
I10
sa(dp44
g29
I58
sg30
F0.04388093948364258
sg31
F0.02947545051574707
sg32
I3
sg33
I9
sa(dp45
g29
I25
sg30
F0.005755186080932617
sg31
F0.018083810806274414
sg32
I2
sg33
I7
sasS'total_cqs'
p46
I33
ssI4
(dp47
S'iters'
p48
I0
sS'meta'
p49
(lp50
sS'total_cqs'
p51
I1
ssI5
(dp52
S'iters'
p53
I0
sS'meta'
p54
(lp55
sS'total_cqs'
p56
I1
ssI6
(dp57
S'iters'
p58
I2
sS'meta'
p59
(lp60
(dp61
S'objective'
p62
I1
sS'query_time'
p63
F15.222743034362793
sS'comp_time'
p64
F0.0069811344146728516
sS'exec_cq'
p65
I4
sS'total_cq'
p66
I5
sa(dp67
g62
I2
sg63
F0.0004069805145263672
sg64
F0.002665996551513672
sg65
I2
sg66
I3
sasS'total_cqs'
p68
I5
ssI7
(dp69
S'iters'
p70
I0
sS'meta'
p71
(lp72
sS'total_cqs'
p73
I1
ssI8
(dp74
S'iters'
p75
I2
sS'meta'
p76
(lp77
(dp78
S'objective'
p79
I17
sS'query_time'
p80
F23.449204206466675
sS'comp_time'
p81
F0.4476478099822998
sS'exec_cq'
p82
I5
sS'total_cq'
p83
I6
sa(dp84
g79
I7
sg80
F0.11277508735656738
sg81
F0.09699630737304688
sg82
I4
sg83
I5
sasS'total_cqs'
p85
I6
ssI9
(dp86
S'iters'
p87
I2
sS'meta'
p88
(lp89
(dp90
S'objective'
p91
I5
sS'query_time'
p92
F12.535807132720947
sS'comp_time'
p93
F0.5415198802947998
sS'exec_cq'
p94
I3
sS'total_cq'
p95
I6
sa(dp96
g91
I4
sg92
F0.0592799186706543
sg93
F0.4632260799407959
sg94
I2
sg95
I2
sasS'total_cqs'
p97
I6
ssI10
(dp98
S'iters'
p99
I0
sS'meta'
p100
(lp101
sS'total_cqs'
p102
I1
ssI11
(dp103
S'iters'
p104
I0
sS'meta'
p105
(lp106
sS'total_cqs'
p107
I1
ssI12
(dp108
S'iters'
p109
I0
sS'meta'
p110
(lp111
sS'total_cqs'
p112
I1
ssI13
(dp113
S'iters'
p114
I1
sS'meta'
p115
(lp116
(dp117
S'objective'
p118
I20
sS'query_time'
p119
F0.030438899993896484
sS'comp_time'
p120
F0.01041865348815918
sS'exec_cq'
p121
I6
sS'total_cq'
p122
I8
sasS'total_cqs'
p123
I8
ssI14
(dp124
S'iters'
p125
I1
sS'meta'
p126
(lp127
(dp128
S'objective'
p129
I5
sS'query_time'
p130
F1.0206530094146729
sS'comp_time'
p131
F0.009137630462646484
sS'exec_cq'
p132
I5
sS'total_cq'
p133
I5
sasS'total_cqs'
p134
I5
ssI16
(dp135
S'iters'
p136
I2
sS'meta'
p137
(lp138
(dp139
S'objective'
p140
I3
sS'query_time'
p141
F1.27783203125
sS'comp_time'
p142
F0.014159917831420898
sS'exec_cq'
p143
I4
sS'total_cq'
p144
I5
sa(dp145
g140
I1
sg141
F0.0013318061828613281
sg142
F0.01952981948852539
sg143
I2
sg144
I2
sasS'total_cqs'
p146
I5
ssI17
(dp147
S'iters'
p148
I0
sS'meta'
p149
(lp150
sS'total_cqs'
p151
I1
ssI18
(dp152
S'iters'
p153
I2
sS'meta'
p154
(lp155
(dp156
S'objective'
p157
I1
sS'query_time'
p158
F0.15825986862182617
sS'comp_time'
p159
F0.004523277282714844
sS'exec_cq'
p160
I4
sS'total_cq'
p161
I5
sa(dp162
g157
I2
sg158
F0.03637385368347168
sg159
F0.00027823448181152344
sg160
I1
sg161
I2
sasS'total_cqs'
p163
I5
ssI19
(dp164
S'iters'
p165
I0
sS'meta'
p166
(lp167
sS'total_cqs'
p168
I1
ssI20
(dp169
S'iters'
p170
I4
sS'meta'
p171
(lp172
(dp173
S'objective'
p174
I42
sS'query_time'
p175
F9.78560996055603
sS'comp_time'
p176
F1.3345310688018799
sS'exec_cq'
p177
I6
sS'total_cq'
p178
I12
sa(dp179
g174
I36
sg175
F0.2177751064300537
sg176
F1.0218329429626465
sg177
I4
sg178
I10
sa(dp180
g174
I32
sg175
F3.868795156478882
sg176
F0.3182194232940674
sg177
I4
sg178
I8
sa(dp181
g174
I16
sg175
F0.10024905204772949
sg176
F0.004788875579833984
sg177
I1
sg178
I6
sasS'total_cqs'
p182
I12
ssI21
(dp183
S'iters'
p184
I4
sS'meta'
p185
(lp186
(dp187
S'objective'
p188
I57
sS'query_time'
p189
F30.18531608581543
sS'comp_time'
p190
F0.2506520748138428
sS'exec_cq'
p191
I8
sS'total_cq'
p192
I14
sa(dp193
g188
I19
sg189
F30.38906717300415
sg190
F2.2740728855133057
sg191
I4
sg192
I10
sa(dp194
g188
I26
sg189
F0.009602069854736328
sg190
F0.0681917667388916
sg191
I4
sg192
I6
sa(dp195
g188
I10
sg189
F0.014944076538085938
sg190
F0.00017690658569335938
sg191
I1
sg192
I4
sasS'total_cqs'
p196
I14
ssI22
(dp197
S'iters'
p198
I1
sS'meta'
p199
(lp200
(dp201
S'objective'
p202
I1
sS'query_time'
p203
F0.005393028259277344
sS'comp_time'
p204
F0.0014150142669677734
sS'exec_cq'
p205
I1
sS'total_cq'
p206
I2
sasS'total_cqs'
p207
I2
ssI23
(dp208
S'iters'
p209
I0
sS'meta'
p210
(lp211
sS'total_cqs'
p212
I1
ssI24
(dp213
S'iters'
p214
I0
sS'meta'
p215
(lp216
sS'total_cqs'
p217
I1
ssI25
(dp218
S'iters'
p219
I4
sS'meta'
p220
(lp221
(dp222
S'objective'
p223
I16
sS'query_time'
p224
F47.696322202682495
sS'comp_time'
p225
F4.935984134674072
sS'exec_cq'
p226
I4
sS'total_cq'
p227
I7
sa(dp228
g223
I6
sg224
F4.761162042617798
sg225
F0.3388650417327881
sg226
I2
sg227
I5
sa(dp229
g223
I6
sg224
F0.0770869255065918
sg225
F0.12702417373657227
sg226
I2
sg227
I3
sa(dp230
g223
I4
sg224
F0.008548974990844727
sg225
F0.05028796195983887
sg226
I1
sg227
I2
sasS'total_cqs'
p231
I7
ssI26
(dp232
S'iters'
p233
I5
sS'meta'
p234
(lp235
(dp236
S'objective'
p237
I61
sS'query_time'
p238
F0.277695894241333
sS'comp_time'
p239
F0.02725386619567871
sS'exec_cq'
p240
I4
sS'total_cq'
p241
I13
sa(dp242
g237
I54
sg238
F23.547629833221436
sg239
F6.24674916267395
sg240
I3
sg241
I11
sa(dp243
g237
I49
sg238
F0.0011010169982910156
sg239
F0.005906820297241211
sg240
I2
sg241
I10
sa(dp244
g237
I29
sg238
F3.4365808963775635
sg239
F0.014494180679321289
sg240
I2
sg241
I9
sa(dp245
g237
I17
sg238
F0.004597902297973633
sg239
F0.00017690658569335938
sg240
I1
sg241
I7
sasS'total_cqs'
p246
I13
ssI27
(dp247
S'iters'
p248
I1
sS'meta'
p249
(lp250
(dp251
S'objective'
p252
I1
sS'query_time'
p253
F0.1937849521636963
sS'comp_time'
p254
F0.008181095123291016
sS'exec_cq'
p255
I1
sS'total_cq'
p256
I2
sasS'total_cqs'
p257
I2
ssI28
(dp258
S'iters'
p259
I2
sS'meta'
p260
(lp261
(dp262
S'objective'
p263
I61
sS'query_time'
p264
F1.5856549739837646
sS'comp_time'
p265
F0.11222290992736816
sS'exec_cq'
p266
I6
sS'total_cq'
p267
I14
sa(dp268
g263
I55
sg264
F0.014118194580078125
sg265
F0.0002837181091308594
sg266
I1
sg267
I11
sasS'total_cqs'
p269
I14
ssI29
(dp270
S'iters'
p271
I1
sS'meta'
p272
(lp273
(dp274
S'objective'
p275
I1
sS'query_time'
p276
F0.012433052062988281
sS'comp_time'
p277
F0.0025293827056884766
sS'exec_cq'
p278
I2
sS'total_cq'
p279
I2
sasS'total_cqs'
p280
I2
ssI30
(dp281
S'iters'
p282
I1
sS'meta'
p283
(lp284
(dp285
S'objective'
p286
I1
sS'query_time'
p287
F0.3408620357513428
sS'comp_time'
p288
F0.005087852478027344
sS'exec_cq'
p289
I2
sS'total_cq'
p290
I2
sasS'total_cqs'
p291
I2
ssI31
(dp292
S'iters'
p293
I2
sS'meta'
p294
(lp295
(dp296
S'objective'
p297
I9
sS'query_time'
p298
F1.6891350746154785
sS'comp_time'
p299
F0.06262040138244629
sS'exec_cq'
p300
I5
sS'total_cq'
p301
I9
sa(dp302
g297
I0
sg298
F0.009631156921386719
sg299
F0.11117982864379883
sg300
I3
sg301
I3
sasS'total_cqs'
p303
I9
ssI32
(dp304
S'iters'
p305
I2
sS'meta'
p306
(lp307
(dp308
S'objective'
p309
I4
sS'query_time'
p310
F21.40170693397522
sS'comp_time'
p311
F5.88337516784668
sS'exec_cq'
p312
I4
sS'total_cq'
p313
I7
sa(dp314
g309
I2
sg310
F0.09114503860473633
sg311
F0.0022580623626708984
sg312
I1
sg313
I4
sasS'total_cqs'
p315
I7
ssI33
(dp316
S'iters'
p317
I1
sS'meta'
p318
(lp319
(dp320
S'objective'
p321
I1
sS'query_time'
p322
F0.022060155868530273
sS'comp_time'
p323
F0.0017688274383544922
sS'exec_cq'
p324
I2
sS'total_cq'
p325
I2
sasS'total_cqs'
p326
I2
ssI34
(dp327
S'iters'
p328
I0
sS'meta'
p329
(lp330
sS'total_cqs'
p331
I1
ssI35
(dp332
S'iters'
p333
I2
sS'meta'
p334
(lp335
(dp336
S'objective'
p337
I1
sS'query_time'
p338
F13.068030834197998
sS'comp_time'
p339
F0.3191249370574951
sS'exec_cq'
p340
I4
sS'total_cq'
p341
I5
sa(dp342
g337
I2
sg338
F0.10921096801757812
sg339
F0.09177350997924805
sg340
I2
sg341
I3
sasS'total_cqs'
p343
I5
ssI37
(dp344
S'iters'
p345
I2
sS'meta'
p346
(lp347
(dp348
S'objective'
p349
I29
sS'query_time'
p350
F0.5732450485229492
sS'comp_time'
p351
F0.07693600654602051
sS'exec_cq'
p352
I4
sS'total_cq'
p353
I10
sa(dp354
g349
I7
sg350
F0.003226041793823242
sg351
F0.014111995697021484
sg352
I2
sg353
I2
sasS'total_cqs'
p355
I10
ssI38
(dp356
S'iters'
p357
I0
sS'meta'
p358
(lp359
sS'total_cqs'
p360
I1
ssI39
(dp361
S'iters'
p362
I0
sS'meta'
p363
(lp364
sS'total_cqs'
p365
I1
ssI40
(dp366
S'iters'
p367
I1
sS'meta'
p368
(lp369
(dp370
S'objective'
p371
I1
sS'query_time'
p372
F0.0028679370880126953
sS'comp_time'
p373
F0.0005791187286376953
sS'exec_cq'
p374
I1
sS'total_cq'
p375
I2
sasS'total_cqs'
p376
I2
ssI41
(dp377
S'iters'
p378
I2
sS'meta'
p379
(lp380
(dp381
S'objective'
p382
I1
sS'query_time'
p383
F1.0325069427490234
sS'comp_time'
p384
F0.007629871368408203
sS'exec_cq'
p385
I2
sS'total_cq'
p386
I6
sa(dp387
g382
I2
sg383
F0.0009160041809082031
sg384
F0.0051441192626953125
sg385
I2
sg386
I2
sasS'total_cqs'
p388
I6
ssI42
(dp389
S'iters'
p390
I1
sS'meta'
p391
(lp392
(dp393
S'objective'
p394
I1
sS'query_time'
p395
F0.007893085479736328
sS'comp_time'
p396
F0.0013890266418457031
sS'exec_cq'
p397
I1
sS'total_cq'
p398
I2
sasS'total_cqs'
p399
I2
ssI43
(dp400
S'iters'
p401
I0
sS'meta'
p402
(lp403
sS'total_cqs'
p404
I1
ssI44
(dp405
S'iters'
p406
I3
sS'meta'
p407
(lp408
(dp409
S'objective'
p410
I1
sS'query_time'
p411
F0.27437901496887207
sS'comp_time'
p412
F0.019640207290649414
sS'exec_cq'
p413
I2
sS'total_cq'
p414
I5
sa(dp415
g410
I4
sg411
F1.3289921283721924
sg412
F0.18628287315368652
sg413
I2
sg414
I3
sa(dp416
g410
I4
sg411
F9.298324584960938e-05
sg412
F0.00055694580078125
sg413
I1
sg414
I2
sasS'total_cqs'
p417
I5
ssI45
(dp418
S'iters'
p419
I2
sS'meta'
p420
(lp421
(dp422
S'objective'
p423
I1
sS'query_time'
p424
F0.029720067977905273
sS'comp_time'
p425
F0.0024559497833251953
sS'exec_cq'
p426
I3
sS'total_cq'
p427
I5
sa(dp428
g423
I2
sg424
F0.0001659393310546875
sg425
F0.003679037094116211
sg426
I2
sg427
I2
sasS'total_cqs'
p429
I5
ssI46
(dp430
S'iters'
p431
I0
sS'meta'
p432
(lp433
sS'total_cqs'
p434
I1
ssI47
(dp435
S'iters'
p436
I0
sS'meta'
p437
(lp438
sS'total_cqs'
p439
I1
ssI48
(dp440
S'iters'
p441
I1
sS'meta'
p442
(lp443
(dp444
S'objective'
p445
I1
sS'query_time'
p446
F0.14313483238220215
sS'comp_time'
p447
F0.0059888362884521484
sS'exec_cq'
p448
I2
sS'total_cq'
p449
I2
sasS'total_cqs'
p450
I2
ssI49
(dp451
S'iters'
p452
I2
sS'meta'
p453
(lp454
(dp455
S'objective'
p456
I1
sS'query_time'
p457
F0.17037415504455566
sS'comp_time'
p458
F0.005009889602661133
sS'exec_cq'
p459
I4
sS'total_cq'
p460
I5
sa(dp461
g456
I3
sg457
F0.00023794174194335938
sg458
F0.0013358592987060547
sg459
I2
sg460
I2
sasS'total_cqs'
p462
I5
ssI50
(dp463
S'iters'
p464
I1
sS'meta'
p465
(lp466
(dp467
S'objective'
p468
I5
sS'query_time'
p469
F0.7242870330810547
sS'comp_time'
p470
F0.0030291080474853516
sS'exec_cq'
p471
I5
sS'total_cq'
p472
I5
sasS'total_cqs'
p473
I5
ssI51
(dp474
S'iters'
p475
I0
sS'meta'
p476
(lp477
sS'total_cqs'
p478
I1
ssI52
(dp479
S'iters'
p480
I0
sS'meta'
p481
(lp482
sS'total_cqs'
p483
I1
ssI53
(dp484
S'iters'
p485
I0
sS'meta'
p486
(lp487
sS'total_cqs'
p488
I1
ssI55
(dp489
S'iters'
p490
I1
sS'meta'
p491
(lp492
(dp493
S'objective'
p494
I1
sS'query_time'
p495
F24.287537097930908
sS'comp_time'
p496
F3.379775047302246
sS'exec_cq'
p497
I2
sS'total_cq'
p498
I2
sasS'total_cqs'
p499
I2
ssI56
(dp500
S'iters'
p501
I0
sS'meta'
p502
(lp503
sS'total_cqs'
p504
I1
ssI57
(dp505
S'iters'
p506
I1
sS'meta'
p507
(lp508
(dp509
S'objective'
p510
I0
sS'query_time'
p511
F12.682323932647705
sS'comp_time'
p512
F2.495809555053711
sS'exec_cq'
p513
I2
sS'total_cq'
p514
I3
sasS'total_cqs'
p515
I3
ssI108
(dp516
S'iters'
p517
I0
sS'meta'
p518
(lp519
sS'total_cqs'
p520
I1
ssI109
(dp521
S'iters'
p522
I0
sS'meta'
p523
(lp524
sS'total_cqs'
p525
I1
ssI116
(dp526
S'iters'
p527
I3
sS'meta'
p528
(lp529
(dp530
S'objective'
p531
I177
sS'query_time'
p532
F3.454190969467163
sS'comp_time'
p533
F0.5274889469146729
sS'exec_cq'
p534
I15
sS'total_cq'
p535
I21
sa(dp536
g531
I144
sg532
F0.4795262813568115
sg533
F0.004045963287353516
sg534
I14
sg535
I19
sa(dp537
g531
I12
sg532
F0.0006718635559082031
sg533
F0.0031807422637939453
sg534
I2
sg535
I2
sasS'total_cqs'
p538
I21
ssI117
(dp539
S'iters'
p540
I2
sS'meta'
p541
(lp542
(dp543
S'objective'
p544
I9
sS'query_time'
p545
F0.008294105529785156
sS'comp_time'
p546
F0.0022559165954589844
sS'exec_cq'
p547
I3
sS'total_cq'
p548
I5
sa(dp549
g544
I2
sg545
F0.0023250579833984375
sg546
F9.250640869140625e-05
sg547
I3
sg548
I4
sasS'total_cqs'
p550
I5
ssI118
(dp551
S'iters'
p552
I0
sS'meta'
p553
(lp554
sS'total_cqs'
p555
I1
ssI122
(dp556
S'iters'
p557
I0
sS'meta'
p558
(lp559
sS'total_cqs'
p560
I1
ss.