(dp0
I1
(dp1
S'iters'
p2
I3
sS'meta'
p3
(lp4
(dp5
S'objective'
p6
I3
sS'query_time'
p7
F16.417001008987427
sS'comp_time'
p8
F0.45546793937683105
sS'exec_cq'
p9
I3
sS'total_cq'
p10
I6
sa(dp11
g6
I0
sg7
F24.26668119430542
sg8
F8.678436279296875e-05
sg9
I1
sg10
I4
sa(dp12
g6
I0
sg7
F29.97035002708435
sg8
F0.2727928161621094
sg9
I2
sg10
I3
sasS'total_cqs'
p13
I6
ssI2
(dp14
S'iters'
p15
I1
sS'meta'
p16
(lp17
(dp18
S'objective'
p19
I15
sS'query_time'
p20
F1.0726490020751953
sS'comp_time'
p21
F0.16820120811462402
sS'exec_cq'
p22
I6
sS'total_cq'
p23
I6
sasS'total_cqs'
p24
I6
ssI3
(dp25
S'iters'
p26
I17
sS'meta'
p27
(lp28
(dp29
S'objective'
p30
I401
sS'query_time'
p31
F26.58700704574585
sS'comp_time'
p32
F0.3671443462371826
sS'exec_cq'
p33
I33
sS'total_cq'
p34
I33
sa(dp35
g30
I351
sg31
F0.029368162155151367
sg32
F0.23531794548034668
sg33
I30
sg34
I30
sa(dp36
g30
I300
sg31
F0.026407957077026367
sg32
F0.32976794242858887
sg33
I28
sg34
I28
sa(dp37
g30
I268
sg31
F0.02243804931640625
sg32
F0.14959716796875
sg33
I25
sg34
I25
sa(dp38
g30
I233
sg31
F0.019524097442626953
sg32
F0.2097477912902832
sg33
I22
sg34
I22
sa(dp39
g30
I211
sg31
F0.007425069808959961
sg32
F0.01617288589477539
sg33
I19
sg34
I19
sa(dp40
g30
I190
sg31
F0.006941080093383789
sg32
F0.07656621932983398
sg33
I18
sg34
I18
sa(dp41
g30
I168
sg31
F0.0072329044342041016
sg32
F0.013321876525878906
sg33
I17
sg34
I17
sa(dp42
g30
I144
sg31
F0.0047609806060791016
sg32
F0.012984991073608398
sg33
I14
sg34
I14
sa(dp43
g30
I120
sg31
F0.0023298263549804688
sg32
F0.0650477409362793
sg33
I13
sg34
I13
sa(dp44
g30
I98
sg31
F0.002559661865234375
sg32
F0.005781888961791992
sg33
I10
sg34
I10
sa(dp45
g30
I89
sg31
F0.0021822452545166016
sg32
F0.006635189056396484
sg33
I9
sg34
I9
sa(dp46
g30
I75
sg31
F0.002608776092529297
sg32
F0.004628181457519531
sg33
I7
sg34
I8
sa(dp47
g30
I60
sg31
F0.0024995803833007812
sg32
F0.0038928985595703125
sg33
I6
sg34
I6
sa(dp48
g30
I47
sg31
F0.002216815948486328
sg32
F0.004451274871826172
sg33
I5
sg34
I5
sa(dp49
g30
I35
sg31
F0.0020377635955810547
sg32
F0.0055141448974609375
sg33
I4
sg34
I4
sa(dp50
g30
I28
sg31
F0.0019919872283935547
sg32
F0.0055179595947265625
sg33
I3
sg34
I3
sasS'total_cqs'
p51
I33
ssI4
(dp52
S'iters'
p53
I0
sS'meta'
p54
(lp55
sS'total_cqs'
p56
I1
ssI5
(dp57
S'iters'
p58
I0
sS'meta'
p59
(lp60
sS'total_cqs'
p61
I1
ssI6
(dp62
S'iters'
p63
I3
sS'meta'
p64
(lp65
(dp66
S'objective'
p67
I1
sS'query_time'
p68
F14.99939513206482
sS'comp_time'
p69
F0.01994609832763672
sS'exec_cq'
p70
I4
sS'total_cq'
p71
I5
sa(dp72
g67
I0
sg68
F0.0004038810729980469
sg69
F0.00029015541076660156
sg70
I2
sg71
I3
sa(dp73
g67
I2
sg68
F0.00020503997802734375
sg69
F0.0003249645233154297
sg70
I2
sg71
I2
sasS'total_cqs'
p74
I5
ssI7
(dp75
S'iters'
p76
I0
sS'meta'
p77
(lp78
sS'total_cqs'
p79
I1
ssI8
(dp80
S'iters'
p81
I4
sS'meta'
p82
(lp83
(dp84
S'objective'
p85
I9
sS'query_time'
p86
F84.07537603378296
sS'comp_time'
p87
F0.16790986061096191
sS'exec_cq'
p88
I5
sS'total_cq'
p89
I6
sa(dp90
g85
I5
sg86
F2.5033950805664062e-05
sg87
F0.00013399124145507812
sg88
I4
sg89
I5
sa(dp91
g85
I2
sg86
F20.044554233551025
sg87
F8.988380432128906e-05
sg88
I4
sg89
I4
sa(dp92
g85
I0
sg86
F3.314018249511719e-05
sg87
F0.00017499923706054688
sg88
I3
sg89
I3
sasS'total_cqs'
p93
I6
ssI9
(dp94
S'iters'
p95
I3
sS'meta'
p96
(lp97
(dp98
S'objective'
p99
I3
sS'query_time'
p100
F11.701416969299316
sS'comp_time'
p101
F0.05883598327636719
sS'exec_cq'
p102
I3
sS'total_cq'
p103
I6
sa(dp104
g99
I2
sg100
F0.05717802047729492
sg101
F0.20479702949523926
sg102
I3
sg103
I3
sa(dp105
g99
I1
sg100
F0.16196012496948242
sg101
F0.10391521453857422
sg102
I2
sg103
I2
sasS'total_cqs'
p106
I6
ssI10
(dp107
S'iters'
p108
I0
sS'meta'
p109
(lp110
sS'total_cqs'
p111
I1
ssI11
(dp112
S'iters'
p113
I0
sS'meta'
p114
(lp115
sS'total_cqs'
p116
I1
ssI12
(dp117
S'iters'
p118
I0
sS'meta'
p119
(lp120
sS'total_cqs'
p121
I1
ssI13
(dp122
S'iters'
p123
I2
sS'meta'
p124
(lp125
(dp126
S'objective'
p127
I22
sS'query_time'
p128
F0.011137008666992188
sS'comp_time'
p129
F0.00939488410949707
sS'exec_cq'
p130
I6
sS'total_cq'
p131
I8
sa(dp132
g127
I23
sg128
F0.001791238784790039
sg129
F0.00010609626770019531
sg130
I6
sg131
I7
sasS'total_cqs'
p133
I8
ssI14
(dp134
S'iters'
p135
I2
sS'meta'
p136
(lp137
(dp138
S'objective'
p139
I5
sS'query_time'
p140
F1.0070600509643555
sS'comp_time'
p141
F0.008029699325561523
sS'exec_cq'
p142
I5
sS'total_cq'
p143
I5
sa(dp144
g139
I4
sg140
F0.0006937980651855469
sg141
F0.0012590885162353516
sg142
I4
sg143
I4
sasS'total_cqs'
p145
I5
ssI16
(dp146
S'iters'
p147
I2
sS'meta'
p148
(lp149
(dp150
S'objective'
p151
I1
sS'query_time'
p152
F1.306046962738037
sS'comp_time'
p153
F0.006004810333251953
sS'exec_cq'
p154
I4
sS'total_cq'
p155
I5
sa(dp156
g151
I1
sg152
F0.0012848377227783203
sg153
F0.0019121170043945312
sg154
I2
sg155
I2
sasS'total_cqs'
p157
I5
ssI17
(dp158
S'iters'
p159
I0
sS'meta'
p160
(lp161
sS'total_cqs'
p162
I1
ssI18
(dp163
S'iters'
p164
I3
sS'meta'
p165
(lp166
(dp167
S'objective'
p168
I1
sS'query_time'
p169
F0.17548012733459473
sS'comp_time'
p170
F0.00452733039855957
sS'exec_cq'
p171
I4
sS'total_cq'
p172
I5
sa(dp173
g168
I0
sg169
F4.38690185546875e-05
sg170
F0.0001430511474609375
sg171
I2
sg172
I3
sa(dp174
g168
I2
sg169
F0.04827117919921875
sg170
F4.00543212890625e-05
sg171
I1
sg172
I2
sasS'total_cqs'
p175
I5
ssI19
(dp176
S'iters'
p177
I0
sS'meta'
p178
(lp179
sS'total_cqs'
p180
I1
ssI20
(dp181
S'iters'
p182
I6
sS'meta'
p183
(lp184
(dp185
S'objective'
p186
I48
sS'query_time'
p187
F13.78495717048645
sS'comp_time'
p188
F1.1411268711090088
sS'exec_cq'
p189
I10
sS'total_cq'
p190
I12
sa(dp191
g186
I43
sg187
F0.2644529342651367
sg188
F0.6559493541717529
sg189
I7
sg190
I10
sa(dp192
g186
I33
sg187
F0.1536870002746582
sg188
F0.06250500679016113
sg189
I6
sg190
I9
sa(dp193
g186
I27
sg187
F0.010390758514404297
sg188
F0.16149377822875977
sg189
I6
sg190
I7
sa(dp194
g186
I23
sg187
F2.9802322387695312e-05
sg188
F8.153915405273438e-05
sg189
I4
sg190
I5
sa(dp195
g186
I21
sg187
F0.08999776840209961
sg188
F0.00033020973205566406
sg189
I3
sg190
I4
sasS'total_cqs'
p196
I12
ssI21
(dp197
S'iters'
p198
I8
sS'meta'
p199
(lp200
(dp201
S'objective'
p202
I61
sS'query_time'
p203
F124.9335150718689
sS'comp_time'
p204
F0.9790468215942383
sS'exec_cq'
p205
I12
sS'total_cq'
p206
I14
sa(dp207
g202
I53
sg203
F0.1072080135345459
sg204
F0.0661165714263916
sg205
I8
sg206
I12
sa(dp208
g202
I40
sg203
F0.00937795639038086
sg204
F0.10414409637451172
sg205
I6
sg206
I10
sa(dp209
g202
I30
sg203
F0.00804901123046875
sg204
F0.01658797264099121
sg205
I5
sg206
I9
sa(dp210
g202
I20
sg203
F0.0019121170043945312
sg204
F0.0012478828430175781
sg205
I6
sg206
I8
sa(dp211
g202
I9
sg203
F1.5020370483398438e-05
sg204
F0.000102996826171875
sg205
I4
sg206
I6
sa(dp212
g202
I8
sg203
F0.2581520080566406
sg204
F0.003231048583984375
sg205
I4
sg206
I5
sa(dp213
g202
I4
sg203
F0.01275014877319336
sg204
F0.00010585784912109375
sg205
I4
sg206
I4
sasS'total_cqs'
p214
I14
ssI22
(dp215
S'iters'
p216
I1
sS'meta'
p217
(lp218
(dp219
S'objective'
p220
I1
sS'query_time'
p221
F0.0041561126708984375
sS'comp_time'
p222
F0.0011279582977294922
sS'exec_cq'
p223
I1
sS'total_cq'
p224
I2
sasS'total_cqs'
p225
I2
ssI23
(dp226
S'iters'
p227
I0
sS'meta'
p228
(lp229
sS'total_cqs'
p230
I1
ssI24
(dp231
S'iters'
p232
I0
sS'meta'
p233
(lp234
sS'total_cqs'
p235
I1
ssI25
(dp236
S'iters'
p237
I4
sS'meta'
p238
(lp239
(dp240
S'objective'
p241
I10
sS'query_time'
p242
F66.81375694274902
sS'comp_time'
p243
F2.3353044986724854
sS'exec_cq'
p244
I4
sS'total_cq'
p245
I7
sa(dp246
g241
I5
sg242
F4.659642934799194
sg243
F0.014926671981811523
sg244
I4
sg245
I5
sa(dp247
g241
I2
sg242
F1.811981201171875e-05
sg243
F8.988380432128906e-05
sg244
I2
sg245
I3
sa(dp248
g241
I1
sg242
F5.9604644775390625e-06
sg243
F2.002716064453125e-05
sg244
I1
sg245
I2
sasS'total_cqs'
p249
I7
ssI26
(dp250
S'iters'
p251
I8
sS'meta'
p252
(lp253
(dp254
S'objective'
p255
I49
sS'query_time'
p256
F26.63216805458069
sS'comp_time'
p257
F0.013691186904907227
sS'exec_cq'
p258
I5
sS'total_cq'
p259
I13
sa(dp260
g255
I44
sg256
F0.21235203742980957
sg257
F0.005251169204711914
sg258
I8
sg259
I11
sa(dp261
g255
I35
sg256
F0.0039331912994384766
sg257
F0.004128694534301758
sg258
I7
sg259
I10
sa(dp262
g255
I26
sg256
F0.0021750926971435547
sg257
F0.0035126209259033203
sg258
I6
sg259
I9
sa(dp263
g255
I18
sg256
F0.016370773315429688
sg257
F0.0028238296508789062
sg258
I6
sg259
I8
sa(dp264
g255
I9
sg256
F0.22495007514953613
sg257
F0.0038001537322998047
sg258
I4
sg259
I6
sa(dp265
g255
I6
sg256
F0.0006849765777587891
sg257
F0.0011050701141357422
sg258
I2
sg259
I4
sa(dp266
g255
I2
sg256
F0.001705169677734375
sg257
F2.193450927734375e-05
sg258
I1
sg259
I3
sasS'total_cqs'
p267
I13
ssI27
(dp268
S'iters'
p269
I1
sS'meta'
p270
(lp271
(dp272
S'objective'
p273
I1
sS'query_time'
p274
F0.1893620491027832
sS'comp_time'
p275
F0.0015211105346679688
sS'exec_cq'
p276
I1
sS'total_cq'
p277
I2
sasS'total_cqs'
p278
I2
ssI28
(dp279
S'iters'
p280
I7
sS'meta'
p281
(lp282
(dp283
S'objective'
p284
I57
sS'query_time'
p285
F1.526576042175293
sS'comp_time'
p286
F0.07439923286437988
sS'exec_cq'
p287
I6
sS'total_cq'
p288
I14
sa(dp289
g284
I33
sg285
F0.007111072540283203
sg286
F0.008903980255126953
sg287
I4
sg288
I12
sa(dp290
g284
I31
sg285
F0.027325868606567383
sg286
F0.00022459030151367188
sg287
I3
sg288
I9
sa(dp291
g284
I20
sg285
F1.5020370483398438e-05
sg286
F0.00010323524475097656
sg287
I2
sg288
I8
sa(dp292
g284
I14
sg285
F0.00853109359741211
sg286
F7.700920104980469e-05
sg287
I1
sg288
I7
sa(dp293
g284
I7
sg285
F0.0011191368103027344
sg286
F3.981590270996094e-05
sg287
I1
sg288
I6
sa(dp294
g284
I5
sg285
F0.0013320446014404297
sg286
F3.409385681152344e-05
sg287
I1
sg288
I5
sasS'total_cqs'
p295
I14
ssI29
(dp296
S'iters'
p297
I1
sS'meta'
p298
(lp299
(dp300
S'objective'
p301
I1
sS'query_time'
p302
F0.004866123199462891
sS'comp_time'
p303
F0.001689910888671875
sS'exec_cq'
p304
I2
sS'total_cq'
p305
I2
sasS'total_cqs'
p306
I2
ssI30
(dp307
S'iters'
p308
I1
sS'meta'
p309
(lp310
(dp311
S'objective'
p312
I1
sS'query_time'
p313
F0.3409759998321533
sS'comp_time'
p314
F0.002231597900390625
sS'exec_cq'
p315
I2
sS'total_cq'
p316
I2
sasS'total_cqs'
p317
I2
ssI31
(dp318
S'iters'
p319
I3
sS'meta'
p320
(lp321
(dp322
S'objective'
p323
I13
sS'query_time'
p324
F6.0175700187683105
sS'comp_time'
p325
F0.2815377712249756
sS'exec_cq'
p326
I9
sS'total_cq'
p327
I9
sa(dp328
g323
I2
sg324
F0.01137089729309082
sg325
F0.018067121505737305
sg326
I3
sg327
I3
sa(dp329
g323
I1
sg324
F0.003922939300537109
sg325
F0.005517721176147461
sg326
I2
sg327
I2
sasS'total_cqs'
p330
I9
ssI32
(dp331
S'iters'
p332
I3
sS'meta'
p333
(lp334
(dp335
S'objective'
p336
I2
sS'query_time'
p337
F22.228195905685425
sS'comp_time'
p338
F2.023677349090576
sS'exec_cq'
p339
I4
sS'total_cq'
p340
I7
sa(dp341
g336
I3
sg337
F1.2610228061676025
sg338
F0.003637075424194336
sg339
I2
sg340
I4
sa(dp342
g336
I3
sg337
F0.03769207000732422
sg338
F0.03325080871582031
sg339
I1
sg340
I2
sasS'total_cqs'
p343
I7
ssI33
(dp344
S'iters'
p345
I1
sS'meta'
p346
(lp347
(dp348
S'objective'
p349
I1
sS'query_time'
p350
F0.03938484191894531
sS'comp_time'
p351
F0.001672983169555664
sS'exec_cq'
p352
I2
sS'total_cq'
p353
I2
sasS'total_cqs'
p354
I2
ssI34
(dp355
S'iters'
p356
I0
sS'meta'
p357
(lp358
sS'total_cqs'
p359
I1
ssI35
(dp360
S'iters'
p361
I2
sS'meta'
p362
(lp363
(dp364
S'objective'
p365
I1
sS'query_time'
p366
F14.707584857940674
sS'comp_time'
p367
F0.10491204261779785
sS'exec_cq'
p368
I4
sS'total_cq'
p369
I5
sa(dp370
g365
I2
sg366
F0.0007710456848144531
sg367
F0.0003159046173095703
sg368
I1
sg369
I2
sasS'total_cqs'
p371
I5
ssI37
(dp372
S'iters'
p373
I2
sS'meta'
p374
(lp375
(dp376
S'objective'
p377
I31
sS'query_time'
p378
F1.8318138122558594
sS'comp_time'
p379
F0.09420084953308105
sS'exec_cq'
p380
I8
sS'total_cq'
p381
I10
sa(dp382
g377
I4
sg378
F0.004214048385620117
sg379
F0.07015800476074219
sg380
I2
sg381
I2
sasS'total_cqs'
p383
I10
ssI38
(dp384
S'iters'
p385
I0
sS'meta'
p386
(lp387
sS'total_cqs'
p388
I1
ssI39
(dp389
S'iters'
p390
I0
sS'meta'
p391
(lp392
sS'total_cqs'
p393
I1
ssI40
(dp394
S'iters'
p395
I1
sS'meta'
p396
(lp397
(dp398
S'objective'
p399
I1
sS'query_time'
p400
F0.0021500587463378906
sS'comp_time'
p401
F0.0004787445068359375
sS'exec_cq'
p402
I1
sS'total_cq'
p403
I2
sasS'total_cqs'
p404
I2
ssI41
(dp405
S'iters'
p406
I2
sS'meta'
p407
(lp408
(dp409
S'objective'
p410
I7
sS'query_time'
p411
F10.740479946136475
sS'comp_time'
p412
F0.7046682834625244
sS'exec_cq'
p413
I5
sS'total_cq'
p414
I6
sa(dp415
g410
I1
sg411
F0.0008242130279541016
sg412
F0.000993967056274414
sg413
I2
sg414
I2
sasS'total_cqs'
p416
I6
ssI42
(dp417
S'iters'
p418
I1
sS'meta'
p419
(lp420
(dp421
S'objective'
p422
I1
sS'query_time'
p423
F0.006536960601806641
sS'comp_time'
p424
F0.00042510032653808594
sS'exec_cq'
p425
I1
sS'total_cq'
p426
I2
sasS'total_cqs'
p427
I2
ssI43
(dp428
S'iters'
p429
I0
sS'meta'
p430
(lp431
sS'total_cqs'
p432
I1
ssI44
(dp433
S'iters'
p434
I3
sS'meta'
p435
(lp436
(dp437
S'objective'
p438
I5
sS'query_time'
p439
F1.5753779411315918
sS'comp_time'
p440
F0.03450727462768555
sS'exec_cq'
p441
I4
sS'total_cq'
p442
I5
sa(dp443
g438
I0
sg439
F0.10939788818359375
sg440
F0.03677010536193848
sg441
I2
sg442
I3
sa(dp444
g438
I1
sg439
F0.019866943359375
sg440
F0.014884710311889648
sg441
I1
sg442
I2
sasS'total_cqs'
p445
I5
ssI45
(dp446
S'iters'
p447
I2
sS'meta'
p448
(lp449
(dp450
S'objective'
p451
I7
sS'query_time'
p452
F0.052941322326660156
sS'comp_time'
p453
F0.0029571056365966797
sS'exec_cq'
p454
I5
sS'total_cq'
p455
I5
sa(dp456
g451
I2
sg452
F0.00018286705017089844
sg453
F0.0002300739288330078
sg454
I2
sg455
I2
sasS'total_cqs'
p457
I5
ssI46
(dp458
S'iters'
p459
I0
sS'meta'
p460
(lp461
sS'total_cqs'
p462
I1
ssI47
(dp463
S'iters'
p464
I0
sS'meta'
p465
(lp466
sS'total_cqs'
p467
I1
ssI48
(dp468
S'iters'
p469
I1
sS'meta'
p470
(lp471
(dp472
S'objective'
p473
I1
sS'query_time'
p474
F0.15794682502746582
sS'comp_time'
p475
F0.0034689903259277344
sS'exec_cq'
p476
I2
sS'total_cq'
p477
I2
sasS'total_cqs'
p478
I2
ssI49
(dp479
S'iters'
p480
I2
sS'meta'
p481
(lp482
(dp483
S'objective'
p484
I3
sS'query_time'
p485
F0.14827609062194824
sS'comp_time'
p486
F0.0031418800354003906
sS'exec_cq'
p487
I4
sS'total_cq'
p488
I5
sa(dp489
g484
I0
sg485
F0.0011429786682128906
sg486
F0.0013132095336914062
sg487
I3
sg488
I3
sasS'total_cqs'
p490
I5
ssI50
(dp491
S'iters'
p492
I3
sS'meta'
p493
(lp494
(dp495
S'objective'
p496
I5
sS'query_time'
p497
F0.7193210124969482
sS'comp_time'
p498
F0.0015521049499511719
sS'exec_cq'
p499
I5
sS'total_cq'
p500
I5
sa(dp501
g496
I2
sg497
F0.0001499652862548828
sg498
F0.00032401084899902344
sg499
I4
sg500
I4
sa(dp502
g496
I0
sg497
F9.584426879882812e-05
sg498
F0.00028204917907714844
sg499
I3
sg500
I3
sasS'total_cqs'
p503
I5
ssI51
(dp504
S'iters'
p505
I0
sS'meta'
p506
(lp507
sS'total_cqs'
p508
I1
ssI52
(dp509
S'iters'
p510
I0
sS'meta'
p511
(lp512
sS'total_cqs'
p513
I1
ssI53
(dp514
S'iters'
p515
I0
sS'meta'
p516
(lp517
sS'total_cqs'
p518
I1
ssI55
(dp519
S'iters'
p520
I1
sS'meta'
p521
(lp522
(dp523
S'objective'
p524
I1
sS'query_time'
p525
F24.234305143356323
sS'comp_time'
p526
F0.018177509307861328
sS'exec_cq'
p527
I2
sS'total_cq'
p528
I2
sasS'total_cqs'
p529
I2
ssI56
(dp530
S'iters'
p531
I0
sS'meta'
p532
(lp533
sS'total_cqs'
p534
I1
ssI57
(dp535
S'iters'
p536
I1
sS'meta'
p537
(lp538
(dp539
S'objective'
p540
I2
sS'query_time'
p541
F12.29938793182373
sS'comp_time'
p542
F1.2555010318756104
sS'exec_cq'
p543
I3
sS'total_cq'
p544
I3
sasS'total_cqs'
p545
I3
ssI108
(dp546
S'iters'
p547
I0
sS'meta'
p548
(lp549
sS'total_cqs'
p550
I1
ssI109
(dp551
S'iters'
p552
I0
sS'meta'
p553
(lp554
sS'total_cqs'
p555
I1
ssI116
(dp556
S'iters'
p557
I4
sS'meta'
p558
(lp559
(dp560
S'objective'
p561
I169
sS'query_time'
p562
F3.7749829292297363
sS'comp_time'
p563
F0.3062460422515869
sS'exec_cq'
p564
I15
sS'total_cq'
p565
I21
sa(dp566
g561
I172
sg562
F0.062896728515625
sg563
F0.0002620220184326172
sg564
I15
sg565
I19
sa(dp567
g561
I164
sg562
F0.47824597358703613
sg563
F0.0006101131439208984
sg564
I16
sg565
I18
sa(dp568
g561
I3
sg562
F0.0010991096496582031
sg563
F0.0008931159973144531
sg564
I2
sg565
I2
sasS'total_cqs'
p569
I21
ssI117
(dp570
S'iters'
p571
I1
sS'meta'
p572
(lp573
(dp574
S'objective'
p575
I9
sS'query_time'
p576
F0.005753993988037109
sS'comp_time'
p577
F0.0026149749755859375
sS'exec_cq'
p578
I4
sS'total_cq'
p579
I5
sasS'total_cqs'
p580
I5
ssI118
(dp581
S'iters'
p582
I0
sS'meta'
p583
(lp584
sS'total_cqs'
p585
I1
ssI122
(dp586
S'iters'
p587
I0
sS'meta'
p588
(lp589
sS'total_cqs'
p590
I1
ss.