(dp0
I1
(dp1
S'iters'
p2
I4
sS'meta'
p3
(lp4
(dp5
S'objective'
p6
I9
sS'query_time'
p7
F17.085081100463867
sS'comp_time'
p8
F0.00014090538024902344
sS'exec_cq'
p9
I1
sS'total_cq'
p10
I6
sa(dp11
g6
I5
sg7
F0.004675149917602539
sg8
F5.5789947509765625e-05
sg9
I1
sg10
I5
sa(dp12
g6
I2
sg7
F11.44478988647461
sg8
F0.00024199485778808594
sg9
I1
sg10
I4
sa(dp13
g6
I4
sg7
F46.94208002090454
sg8
F0.00014400482177734375
sg9
I3
sg10
I3
sasS'total_cqs'
p14
I6
ssI2
(dp15
S'iters'
p16
I1
sS'meta'
p17
(lp18
(dp19
S'objective'
p20
I19
sS'query_time'
p21
F0.8747971057891846
sS'comp_time'
p22
F9.083747863769531e-05
sS'exec_cq'
p23
I6
sS'total_cq'
p24
I6
sasS'total_cqs'
p25
I6
ssI3
(dp26
S'iters'
p27
I16
sS'meta'
p28
(lp29
(dp30
S'objective'
p31
I495
sS'query_time'
p32
F0.04822897911071777
sS'comp_time'
p33
F8.797645568847656e-05
sS'exec_cq'
p34
I1
sS'total_cq'
p35
I33
sa(dp36
g31
I366
sg32
F0.0698251724243164
sg33
F0.00011515617370605469
sg34
I1
sg35
I32
sa(dp37
g31
I325
sg32
F20.021043062210083
sg33
F0.00010418891906738281
sg34
I2
sg35
I29
sa(dp38
g31
I328
sg32
F0.009531974792480469
sg33
F6.890296936035156e-05
sg34
I2
sg35
I26
sa(dp39
g31
I265
sg32
F0.01964092254638672
sg33
F8.0108642578125e-05
sg34
I2
sg35
I25
sa(dp40
g31
I215
sg32
F0.07440996170043945
sg33
F8.106231689453125e-05
sg34
I2
sg35
I22
sa(dp41
g31
I211
sg32
F3.4091789722442627
sg33
F9.584426879882812e-05
sg34
I2
sg35
I19
sa(dp42
g31
I155
sg32
F0.0377500057220459
sg33
F8.511543273925781e-05
sg34
I2
sg35
I18
sa(dp43
g31
I154
sg32
F0.01391291618347168
sg33
F6.318092346191406e-05
sg34
I3
sg35
I16
sa(dp44
g31
I135
sg32
F0.030091047286987305
sg33
F7.295608520507812e-05
sg34
I3
sg35
I15
sa(dp45
g31
I117
sg32
F0.14774012565612793
sg33
F6.103515625e-05
sg34
I3
sg35
I14
sa(dp46
g31
I80
sg32
F0.012746095657348633
sg33
F7.390975952148438e-05
sg34
I4
sg35
I13
sa(dp47
g31
I90
sg32
F0.005110979080200195
sg33
F6.198883056640625e-05
sg34
I4
sg35
I10
sa(dp48
g31
I79
sg32
F0.0056018829345703125
sg33
F5.125999450683594e-05
sg34
I4
sg35
I9
sa(dp49
g31
I83
sg32
F0.0034830570220947266
sg33
F4.8160552978515625e-05
sg34
I4
sg35
I7
sa(dp50
g31
I84
sg32
F0.16282415390014648
sg33
F6.008148193359375e-05
sg34
I4
sg35
I6
sasS'total_cqs'
p51
I33
ssI4
(dp52
S'iters'
p53
I0
sS'meta'
p54
(lp55
sS'total_cqs'
p56
I1
ssI5
(dp57
S'iters'
p58
I0
sS'meta'
p59
(lp60
sS'total_cqs'
p61
I1
ssI6
(dp62
S'iters'
p63
I4
sS'meta'
p64
(lp65
(dp66
S'objective'
p67
I5
sS'query_time'
p68
F5.120028018951416
sS'comp_time'
p69
F0.00015020370483398438
sS'exec_cq'
p70
I1
sS'total_cq'
p71
I5
sa(dp72
g67
I2
sg68
F7.24934196472168
sg69
F6.794929504394531e-05
sg70
I1
sg71
I4
sa(dp73
g67
I2
sg68
F4.742279052734375
sg69
F6.079673767089844e-05
sg70
I1
sg71
I3
sa(dp74
g67
I2
sg68
F0.005847930908203125
sg69
F4.696846008300781e-05
sg70
I1
sg71
I2
sasS'total_cqs'
p75
I5
ssI7
(dp76
S'iters'
p77
I0
sS'meta'
p78
(lp79
sS'total_cqs'
p80
I1
ssI8
(dp81
S'iters'
p82
I4
sS'meta'
p83
(lp84
(dp85
S'objective'
p86
I15
sS'query_time'
p87
F22.25439691543579
sS'comp_time'
p88
F0.0001800060272216797
sS'exec_cq'
p89
I2
sS'total_cq'
p90
I6
sa(dp91
g86
I2
sg87
F0.2220609188079834
sg88
F0.00010395050048828125
sg89
I1
sg90
I5
sa(dp92
g86
I2
sg87
F0.0028488636016845703
sg88
F4.792213439941406e-05
sg89
I2
sg90
I3
sa(dp93
g86
I1
sg87
F1.8151109218597412
sg88
F9.012222290039062e-05
sg89
I2
sg90
I2
sasS'total_cqs'
p94
I6
ssI9
(dp95
S'iters'
p96
I4
sS'meta'
p97
(lp98
(dp99
S'objective'
p100
I9
sS'query_time'
p101
F14.234911918640137
sS'comp_time'
p102
F0.0003342628479003906
sS'exec_cq'
p103
I1
sS'total_cq'
p104
I6
sa(dp105
g100
I5
sg101
F1.218127965927124
sg102
F5.984306335449219e-05
sg103
I1
sg104
I5
sa(dp106
g100
I4
sg101
F37.48703193664551
sg102
F0.0007128715515136719
sg103
I2
sg104
I4
sa(dp107
g100
I1
sg101
F0.10841798782348633
sg102
F9.489059448242188e-05
sg103
I1
sg104
I2
sasS'total_cqs'
p108
I6
ssI10
(dp109
S'iters'
p110
I0
sS'meta'
p111
(lp112
sS'total_cqs'
p113
I1
ssI11
(dp114
S'iters'
p115
I0
sS'meta'
p116
(lp117
sS'total_cqs'
p118
I1
ssI12
(dp119
S'iters'
p120
I0
sS'meta'
p121
(lp122
sS'total_cqs'
p123
I1
ssI13
(dp124
S'iters'
p125
I2
sS'meta'
p126
(lp127
(dp128
S'objective'
p129
I32
sS'query_time'
p130
F9.277290105819702
sS'comp_time'
p131
F0.00011706352233886719
sS'exec_cq'
p132
I7
sS'total_cq'
p133
I8
sa(dp134
g129
I32
sg130
F0.0013759136199951172
sg131
F4.601478576660156e-05
sg132
I7
sg133
I7
sasS'total_cqs'
p135
I8
ssI14
(dp136
S'iters'
p137
I3
sS'meta'
p138
(lp139
(dp140
S'objective'
p141
I7
sS'query_time'
p142
F0.3075408935546875
sS'comp_time'
p143
F7.987022399902344e-05
sS'exec_cq'
p144
I2
sS'total_cq'
p145
I5
sa(dp146
g141
I7
sg142
F0.024339914321899414
sg143
F8.797645568847656e-05
sg144
I3
sg145
I4
sa(dp147
g141
I7
sg142
F1.1171579360961914
sg143
F9.512901306152344e-05
sg144
I3
sg145
I3
sasS'total_cqs'
p148
I5
ssI16
(dp149
S'iters'
p150
I3
sS'meta'
p151
(lp152
(dp153
S'objective'
p154
I3
sS'query_time'
p155
F4.563977956771851
sS'comp_time'
p156
F8.0108642578125e-05
sS'exec_cq'
p157
I1
sS'total_cq'
p158
I5
sa(dp159
g154
I0
sg155
F0.28194212913513184
sg156
F6.699562072753906e-05
sg157
I1
sg158
I3
sa(dp160
g154
I1
sg155
F0.056137800216674805
sg156
F8.678436279296875e-05
sg157
I2
sg158
I2
sasS'total_cqs'
p161
I5
ssI17
(dp162
S'iters'
p163
I0
sS'meta'
p164
(lp165
sS'total_cqs'
p166
I1
ssI18
(dp167
S'iters'
p168
I4
sS'meta'
p169
(lp170
(dp171
S'objective'
p172
I5
sS'query_time'
p173
F0.1291658878326416
sS'comp_time'
p174
F8.20159912109375e-05
sS'exec_cq'
p175
I1
sS'total_cq'
p176
I5
sa(dp177
g172
I2
sg173
F0.12330889701843262
sg174
F7.319450378417969e-05
sg175
I1
sg176
I4
sa(dp178
g172
I0
sg173
F0.09947705268859863
sg174
F7.200241088867188e-05
sg175
I1
sg176
I3
sa(dp179
g172
I1
sg173
F0.07410311698913574
sg174
F9.202957153320312e-05
sg175
I1
sg176
I2
sasS'total_cqs'
p180
I5
ssI19
(dp181
S'iters'
p182
I0
sS'meta'
p183
(lp184
sS'total_cqs'
p185
I1
ssI20
(dp186
S'iters'
p187
I8
sS'meta'
p188
(lp189
(dp190
S'objective'
p191
I56
sS'query_time'
p192
F5.407351970672607
sS'comp_time'
p193
F0.00019693374633789062
sS'exec_cq'
p194
I2
sS'total_cq'
p195
I12
sa(dp196
g191
I49
sg192
F9.061118125915527
sg193
F9.489059448242188e-05
sg194
I3
sg195
I11
sa(dp197
g191
I42
sg192
F0.9732019901275635
sg193
F0.0003380775451660156
sg194
I3
sg195
I10
sa(dp198
g191
I36
sg192
F0.005446910858154297
sg193
F6.413459777832031e-05
sg194
I3
sg195
I9
sa(dp199
g191
I27
sg192
F0.007968902587890625
sg193
F7.081031799316406e-05
sg194
I4
sg195
I8
sa(dp200
g191
I27
sg192
F3.5122430324554443
sg193
F0.0001652240753173828
sg194
I4
sg195
I6
sa(dp201
g191
I27
sg192
F0.003320932388305664
sg193
F0.00011014938354492188
sg194
I4
sg195
I5
sa(dp202
g191
I27
sg192
F0.09948396682739258
sg193
F8.392333984375e-05
sg194
I4
sg195
I4
sasS'total_cqs'
p203
I12
ssI21
(dp204
S'iters'
p205
I6
sS'meta'
p206
(lp207
(dp208
S'objective'
p209
I71
sS'query_time'
p210
F0.8119809627532959
sS'comp_time'
p211
F8.392333984375e-05
sS'exec_cq'
p212
I1
sS'total_cq'
p213
I14
sa(dp214
g209
I46
sg210
F0.10985302925109863
sg211
F0.00010395050048828125
sg212
I1
sg213
I12
sa(dp215
g209
I11
sg210
F2.555565118789673
sg211
F0.00012302398681640625
sg212
I1
sg213
I10
sa(dp216
g209
I0
sg210
F0.6343691349029541
sg211
F0.00033473968505859375
sg212
I1
sg213
I6
sa(dp217
g209
I8
sg210
F0.12410998344421387
sg211
F9.202957153320312e-05
sg212
I1
sg213
I4
sa(dp218
g209
I1
sg210
F0.3102729320526123
sg211
F7.867813110351562e-05
sg212
I1
sg213
I2
sasS'total_cqs'
p219
I14
ssI22
(dp220
S'iters'
p221
I1
sS'meta'
p222
(lp223
(dp224
S'objective'
p225
I1
sS'query_time'
p226
F0.004308938980102539
sS'comp_time'
p227
F6.198883056640625e-05
sS'exec_cq'
p228
I1
sS'total_cq'
p229
I2
sasS'total_cqs'
p230
I2
ssI23
(dp231
S'iters'
p232
I0
sS'meta'
p233
(lp234
sS'total_cqs'
p235
I1
ssI24
(dp236
S'iters'
p237
I0
sS'meta'
p238
(lp239
sS'total_cqs'
p240
I1
ssI25
(dp241
S'iters'
p242
I5
sS'meta'
p243
(lp244
(dp245
S'objective'
p246
I14
sS'query_time'
p247
F8.30833387374878
sS'comp_time'
p248
F0.00010275840759277344
sS'exec_cq'
p249
I1
sS'total_cq'
p250
I7
sa(dp251
g246
I1
sg247
F9.785337924957275
sg248
F0.0005650520324707031
sg249
I1
sg250
I6
sa(dp252
g246
I5
sg247
F32.969988107681274
sg248
F0.00019121170043945312
sg249
I2
sg250
I4
sa(dp253
g246
I4
sg247
F1.315276861190796
sg248
F0.00020313262939453125
sg249
I2
sg250
I3
sa(dp254
g246
I4
sg247
F0.18498802185058594
sg248
F0.00015616416931152344
sg249
I2
sg250
I2
sasS'total_cqs'
p255
I7
ssI26
(dp256
S'iters'
p257
I11
sS'meta'
p258
(lp259
(dp260
S'objective'
p261
I65
sS'query_time'
p262
F0.08364701271057129
sS'comp_time'
p263
F0.00010895729064941406
sS'exec_cq'
p264
I1
sS'total_cq'
p265
I13
sa(dp266
g261
I54
sg262
F0.04559683799743652
sg263
F0.0001068115234375
sg264
I1
sg265
I12
sa(dp267
g261
I44
sg262
F21.288536071777344
sg263
F0.0005388259887695312
sg264
I1
sg265
I11
sa(dp268
g261
I35
sg262
F0.03436398506164551
sg263
F8.106231689453125e-05
sg264
I1
sg265
I10
sa(dp269
g261
I27
sg262
F0.027711153030395508
sg263
F4.792213439941406e-05
sg264
I1
sg265
I9
sa(dp270
g261
I20
sg262
F3.660099983215332
sg263
F0.0001430511474609375
sg264
I1
sg265
I8
sa(dp271
g261
I14
sg262
F0.03735089302062988
sg263
F0.00010228157043457031
sg264
I1
sg265
I7
sa(dp272
g261
I3
sg262
F0.4021129608154297
sg263
F8.225440979003906e-05
sg264
I1
sg265
I6
sa(dp273
g261
I2
sg262
F0.02472400665283203
sg263
F4.601478576660156e-05
sg264
I1
sg265
I4
sa(dp274
g261
I1
sg262
F0.04868793487548828
sg263
F7.081031799316406e-05
sg264
I1
sg265
I3
sa(dp275
g261
I1
sg262
F0.021378040313720703
sg263
F4.315376281738281e-05
sg264
I1
sg265
I2
sasS'total_cqs'
p276
I13
ssI27
(dp277
S'iters'
p278
I1
sS'meta'
p279
(lp280
(dp281
S'objective'
p282
I1
sS'query_time'
p283
F0.15067505836486816
sS'comp_time'
p284
F9.608268737792969e-05
sS'exec_cq'
p285
I2
sS'total_cq'
p286
I2
sasS'total_cqs'
p287
I2
ssI28
(dp288
S'iters'
p289
I9
sS'meta'
p290
(lp291
(dp292
S'objective'
p293
I77
sS'query_time'
p294
F1.5389339923858643
sS'comp_time'
p295
F0.00010800361633300781
sS'exec_cq'
p296
I1
sS'total_cq'
p297
I14
sa(dp298
g293
I35
sg294
F1.6514768600463867
sg295
F0.00011181831359863281
sg296
I1
sg297
I13
sa(dp299
g293
I39
sg294
F1.0140130519866943
sg295
F0.000102996826171875
sg296
I1
sg297
I10
sa(dp300
g293
I29
sg294
F1.0096051692962646
sg295
F0.00010704994201660156
sg296
I1
sg297
I9
sa(dp301
g293
I14
sg294
F1.933790922164917
sg295
F9.799003601074219e-05
sg296
I1
sg297
I8
sa(dp302
g293
I9
sg294
F0.5568990707397461
sg295
F9.202957153320312e-05
sg296
I1
sg297
I6
sa(dp303
g293
I6
sg294
F0.39726996421813965
sg295
F9.512901306152344e-05
sg296
I1
sg297
I5
sa(dp304
g293
I2
sg294
F0.26610398292541504
sg295
F9.202957153320312e-05
sg296
I1
sg297
I4
sa(dp305
g293
I5
sg294
F0.10348200798034668
sg295
F9.202957153320312e-05
sg296
I1
sg297
I3
sasS'total_cqs'
p306
I14
ssI29
(dp307
S'iters'
p308
I1
sS'meta'
p309
(lp310
(dp311
S'objective'
p312
I1
sS'query_time'
p313
F0.004804849624633789
sS'comp_time'
p314
F6.29425048828125e-05
sS'exec_cq'
p315
I2
sS'total_cq'
p316
I2
sasS'total_cqs'
p317
I2
ssI30
(dp318
S'iters'
p319
I1
sS'meta'
p320
(lp321
(dp322
S'objective'
p323
I1
sS'query_time'
p324
F0.39846301078796387
sS'comp_time'
p325
F9.131431579589844e-05
sS'exec_cq'
p326
I2
sS'total_cq'
p327
I2
sasS'total_cqs'
p328
I2
ssI31
(dp329
S'iters'
p330
I7
sS'meta'
p331
(lp332
(dp333
S'objective'
p334
I15
sS'query_time'
p335
F5.084551811218262
sS'comp_time'
p336
F0.00013208389282226562
sS'exec_cq'
p337
I1
sS'total_cq'
p338
I9
sa(dp339
g334
I14
sg335
F0.1341099739074707
sg336
F8.296966552734375e-05
sg337
I1
sg338
I7
sa(dp340
g334
I8
sg335
F0.35927700996398926
sg336
F7.796287536621094e-05
sg337
I1
sg338
I6
sa(dp341
g334
I5
sg335
F0.5016148090362549
sg336
F9.107589721679688e-05
sg337
I1
sg338
I5
sa(dp342
g334
I2
sg335
F0.003298044204711914
sg336
F5.602836608886719e-05
sg337
I1
sg338
I4
sa(dp343
g334
I0
sg335
F4.083775997161865
sg336
F0.0003139972686767578
sg337
I1
sg338
I3
sa(dp344
g334
I1
sg335
F2.521376132965088
sg336
F9.298324584960938e-05
sg337
I1
sg338
I2
sasS'total_cqs'
p345
I9
ssI32
(dp346
S'iters'
p347
I5
sS'meta'
p348
(lp349
(dp350
S'objective'
p351
I14
sS'query_time'
p352
F2.629354953765869
sS'comp_time'
p353
F0.0008471012115478516
sS'exec_cq'
p354
I1
sS'total_cq'
p355
I7
sa(dp356
g351
I9
sg352
F2.057323932647705
sg353
F8.511543273925781e-05
sg354
I1
sg355
I6
sa(dp357
g351
I1
sg352
F1.76344895362854
sg353
F7.700920104980469e-05
sg354
I1
sg355
I5
sa(dp358
g351
I0
sg352
F6.483150959014893
sg353
F0.0002579689025878906
sg354
I1
sg355
I3
sa(dp359
g351
I2
sg352
F6.971281051635742
sg353
F0.00021886825561523438
sg354
I1
sg355
I2
sasS'total_cqs'
p360
I7
ssI33
(dp361
S'iters'
p362
I1
sS'meta'
p363
(lp364
(dp365
S'objective'
p366
I1
sS'query_time'
p367
F0.03778409957885742
sS'comp_time'
p368
F8.797645568847656e-05
sS'exec_cq'
p369
I2
sS'total_cq'
p370
I2
sasS'total_cqs'
p371
I2
ssI34
(dp372
S'iters'
p373
I0
sS'meta'
p374
(lp375
sS'total_cqs'
p376
I1
ssI35
(dp377
S'iters'
p378
I3
sS'meta'
p379
(lp380
(dp381
S'objective'
p382
I1
sS'query_time'
p383
F5.303409099578857
sS'comp_time'
p384
F0.00010895729064941406
sS'exec_cq'
p385
I1
sS'total_cq'
p386
I5
sa(dp387
g382
I0
sg383
F2.9595799446105957
sg384
F0.00020599365234375
sg385
I1
sg386
I3
sa(dp388
g382
I2
sg383
F5.6765429973602295
sg384
F9.703636169433594e-05
sg385
I1
sg386
I2
sasS'total_cqs'
p389
I5
ssI37
(dp390
S'iters'
p391
I3
sS'meta'
p392
(lp393
(dp394
S'objective'
p395
I37
sS'query_time'
p396
F0.011028051376342773
sS'comp_time'
p397
F8.296966552734375e-05
sS'exec_cq'
p398
I2
sS'total_cq'
p399
I10
sa(dp400
g395
I28
sg396
F0.74527907371521
sg397
F0.00013709068298339844
sg398
I2
sg399
I9
sa(dp401
g395
I7
sg396
F0.0024728775024414062
sg397
F5.4836273193359375e-05
sg398
I1
sg399
I2
sasS'total_cqs'
p402
I10
ssI38
(dp403
S'iters'
p404
I0
sS'meta'
p405
(lp406
sS'total_cqs'
p407
I1
ssI39
(dp408
S'iters'
p409
I0
sS'meta'
p410
(lp411
sS'total_cqs'
p412
I1
ssI40
(dp413
S'iters'
p414
I1
sS'meta'
p415
(lp416
(dp417
S'objective'
p418
I1
sS'query_time'
p419
F18.21517014503479
sS'comp_time'
p420
F8.20159912109375e-05
sS'exec_cq'
p421
I1
sS'total_cq'
p422
I2
sasS'total_cqs'
p423
I2
ssI41
(dp424
S'iters'
p425
I5
sS'meta'
p426
(lp427
(dp428
S'objective'
p429
I9
sS'query_time'
p430
F0.33242201805114746
sS'comp_time'
p431
F7.82012939453125e-05
sS'exec_cq'
p432
I1
sS'total_cq'
p433
I6
sa(dp434
g429
I5
sg430
F1.7991700172424316
sg431
F8.678436279296875e-05
sg432
I1
sg433
I5
sa(dp435
g429
I2
sg430
F9.509861946105957
sg431
F0.00035881996154785156
sg432
I1
sg433
I4
sa(dp436
g429
I0
sg430
F0.20444393157958984
sg431
F6.29425048828125e-05
sg432
I1
sg433
I3
sa(dp437
g429
I1
sg430
F1.545170783996582
sg431
F6.628036499023438e-05
sg432
I1
sg433
I2
sasS'total_cqs'
p438
I6
ssI42
(dp439
S'iters'
p440
I1
sS'meta'
p441
(lp442
(dp443
S'objective'
p444
I1
sS'query_time'
p445
F18.08741807937622
sS'comp_time'
p446
F0.00010395050048828125
sS'exec_cq'
p447
I1
sS'total_cq'
p448
I2
sasS'total_cqs'
p449
I2
ssI43
(dp450
S'iters'
p451
I0
sS'meta'
p452
(lp453
sS'total_cqs'
p454
I1
ssI44
(dp455
S'iters'
p456
I4
sS'meta'
p457
(lp458
(dp459
S'objective'
p460
I5
sS'query_time'
p461
F1.2559349536895752
sS'comp_time'
p462
F6.413459777832031e-05
sS'exec_cq'
p463
I1
sS'total_cq'
p464
I5
sa(dp465
g460
I2
sg461
F0.8559119701385498
sg462
F0.00011301040649414062
sg463
I1
sg464
I4
sa(dp466
g460
I0
sg461
F0.008321046829223633
sg462
F6.699562072753906e-05
sg463
I1
sg464
I3
sa(dp467
g460
I1
sg461
F0.009521961212158203
sg462
F5.4836273193359375e-05
sg463
I1
sg464
I2
sasS'total_cqs'
p468
I5
ssI45
(dp469
S'iters'
p470
I2
sS'meta'
p471
(lp472
(dp473
S'objective'
p474
I11
sS'query_time'
p475
F5.867751121520996
sS'comp_time'
p476
F0.00011396408081054688
sS'exec_cq'
p477
I4
sS'total_cq'
p478
I5
sa(dp479
g474
I11
sg475
F0.006246805191040039
sg476
F4.792213439941406e-05
sg477
I4
sg478
I4
sasS'total_cqs'
p480
I5
ssI46
(dp481
S'iters'
p482
I0
sS'meta'
p483
(lp484
sS'total_cqs'
p485
I1
ssI47
(dp486
S'iters'
p487
I0
sS'meta'
p488
(lp489
sS'total_cqs'
p490
I1
ssI48
(dp491
S'iters'
p492
I1
sS'meta'
p493
(lp494
(dp495
S'objective'
p496
I1
sS'query_time'
p497
F0.11796379089355469
sS'comp_time'
p498
F9.298324584960938e-05
sS'exec_cq'
p499
I2
sS'total_cq'
p500
I2
sasS'total_cqs'
p501
I2
ssI49
(dp502
S'iters'
p503
I3
sS'meta'
p504
(lp505
(dp506
S'objective'
p507
I1
sS'query_time'
p508
F4.164108991622925
sS'comp_time'
p509
F0.00010395050048828125
sS'exec_cq'
p510
I1
sS'total_cq'
p511
I5
sa(dp512
g507
I3
sg508
F0.046504974365234375
sg509
F7.987022399902344e-05
sg510
I2
sg511
I3
sa(dp513
g507
I3
sg508
F0.012317895889282227
sg509
F6.914138793945312e-05
sg510
I2
sg511
I2
sasS'total_cqs'
p514
I5
ssI50
(dp515
S'iters'
p516
I4
sS'meta'
p517
(lp518
(dp519
S'objective'
p520
I5
sS'query_time'
p521
F0.20388507843017578
sS'comp_time'
p522
F8.106231689453125e-05
sS'exec_cq'
p523
I1
sS'total_cq'
p524
I5
sa(dp525
g520
I2
sg521
F0.0034530162811279297
sg522
F4.887580871582031e-05
sg523
I1
sg524
I4
sa(dp526
g520
I0
sg521
F0.004561185836791992
sg522
F4.792213439941406e-05
sg523
I1
sg524
I3
sa(dp527
g520
I1
sg521
F0.018782854080200195
sg522
F6.127357482910156e-05
sg523
I1
sg524
I2
sasS'total_cqs'
p528
I5
ssI51
(dp529
S'iters'
p530
I0
sS'meta'
p531
(lp532
sS'total_cqs'
p533
I1
ssI52
(dp534
S'iters'
p535
I0
sS'meta'
p536
(lp537
sS'total_cqs'
p538
I1
ssI53
(dp539
S'iters'
p540
I0
sS'meta'
p541
(lp542
sS'total_cqs'
p543
I1
ssI55
(dp544
S'iters'
p545
I1
sS'meta'
p546
(lp547
(dp548
S'objective'
p549
I1
sS'query_time'
p550
F26.092664003372192
sS'comp_time'
p551
F9.775161743164062e-05
sS'exec_cq'
p552
I2
sS'total_cq'
p553
I2
sasS'total_cqs'
p554
I2
ssI56
(dp555
S'iters'
p556
I0
sS'meta'
p557
(lp558
sS'total_cqs'
p559
I1
ssI57
(dp560
S'iters'
p561
I2
sS'meta'
p562
(lp563
(dp564
S'objective'
p565
I0
sS'query_time'
p566
F2.6314780712127686
sS'comp_time'
p567
F0.00023412704467773438
sS'exec_cq'
p568
I1
sS'total_cq'
p569
I3
sa(dp570
g565
I1
sg566
F12.396816968917847
sg567
F0.0001590251922607422
sg568
I2
sg569
I2
sasS'total_cqs'
p571
I3
ssI108
(dp572
S'iters'
p573
I0
sS'meta'
p574
(lp575
sS'total_cqs'
p576
I1
ssI109
(dp577
S'iters'
p578
I0
sS'meta'
p579
(lp580
sS'total_cqs'
p581
I1
ssI116
(dp582
S'iters'
p583
I6
sS'meta'
p584
(lp585
(dp586
S'objective'
p587
I211
sS'query_time'
p588
F4.381138801574707
sS'comp_time'
p589
F0.0002789497375488281
sS'exec_cq'
p590
I12
sS'total_cq'
p591
I21
sa(dp592
g587
I203
sg588
F0.8808519840240479
sg589
F9.989738464355469e-05
sg590
I12
sg591
I20
sa(dp593
g587
I198
sg588
F0.9865460395812988
sg589
F0.00010895729064941406
sg590
I13
sg591
I19
sa(dp594
g587
I195
sg588
F0.12104511260986328
sg589
F7.033348083496094e-05
sg590
I14
sg591
I18
sa(dp595
g587
I192
sg588
F0.25102996826171875
sg589
F0.0001049041748046875
sg590
I14
sg591
I17
sa(dp596
g587
I194
sg588
F0.08329582214355469
sg589
F8.511543273925781e-05
sg590
I16
sg591
I16
sasS'total_cqs'
p597
I21
ssI117
(dp598
S'iters'
p599
I2
sS'meta'
p600
(lp601
(dp602
S'objective'
p603
I5
sS'query_time'
p604
F0.007504940032958984
sS'comp_time'
p605
F6.794929504394531e-05
sS'exec_cq'
p606
I1
sS'total_cq'
p607
I5
sa(dp608
g603
I8
sg604
F0.005541801452636719
sg605
F5.4836273193359375e-05
sg606
I4
sg607
I4
sasS'total_cqs'
p609
I5
ssI118
(dp610
S'iters'
p611
I0
sS'meta'
p612
(lp613
sS'total_cqs'
p614
I1
ssI122
(dp615
S'iters'
p616
I0
sS'meta'
p617
(lp618
sS'total_cqs'
p619
I1
ss.