(dp0
I1
(dp1
S'iters'
p2
I2
sS'meta'
p3
(lp4
(dp5
S'objective'
p6
I9
sS'query_time'
p7
F25.66166400909424
sS'comp_time'
p8
F0.0001842975616455078
sS'exec_cq'
p9
I2
sS'total_cq'
p10
I6
sa(dp11
g6
I13
sg7
F0.5014519691467285
sg8
F0.0001239776611328125
sg9
I2
sg10
I4
sasS'total_cqs'
p12
I6
ssI2
(dp13
S'iters'
p14
I1
sS'meta'
p15
(lp16
(dp17
S'objective'
p18
I19
sS'query_time'
p19
F1.1512529850006104
sS'comp_time'
p20
F0.00011610984802246094
sS'exec_cq'
p21
I6
sS'total_cq'
p22
I6
sasS'total_cqs'
p23
I6
ssI3
(dp24
S'iters'
p25
I19
sS'meta'
p26
(lp27
(dp28
S'objective'
p29
I437
sS'query_time'
p30
F0.02352619171142578
sS'comp_time'
p31
F9.703636169433594e-05
sS'exec_cq'
p32
I2
sS'total_cq'
p33
I33
sa(dp34
g29
I385
sg30
F0.12152409553527832
sg31
F9.989738464355469e-05
sg32
I2
sg33
I31
sa(dp35
g29
I332
sg30
F0.02108907699584961
sg31
F8.511543273925781e-05
sg32
I2
sg33
I29
sa(dp36
g29
I285
sg30
F0.7223000526428223
sg31
F0.000102996826171875
sg32
I2
sg33
I26
sa(dp37
g29
I282
sg30
F0.1720418930053711
sg31
F8.296966552734375e-05
sg32
I2
sg33
I23
sa(dp38
g29
I215
sg30
F0.021249055862426758
sg31
F8.106231689453125e-05
sg32
I2
sg33
I22
sa(dp39
g29
I216
sg30
F0.5131680965423584
sg31
F8.606910705566406e-05
sg32
I2
sg33
I20
sa(dp40
g29
I187
sg30
F0.010165929794311523
sg31
F7.319450378417969e-05
sg32
I2
sg33
I19
sa(dp41
g29
I173
sg30
F0.038053035736083984
sg31
F5.984306335449219e-05
sg32
I2
sg33
I17
sa(dp42
g29
I149
sg30
F0.014455795288085938
sg31
F0.00011277198791503906
sg32
I2
sg33
I16
sa(dp43
g29
I135
sg30
F0.0353550910949707
sg31
F7.104873657226562e-05
sg32
I2
sg33
I14
sa(dp44
g29
I121
sg30
F20.010133981704712
sg31
F7.486343383789062e-05
sg32
I3
sg33
I13
sa(dp45
g29
I107
sg30
F0.002805948257446289
sg31
F5.1975250244140625e-05
sg32
I3
sg33
I12
sa(dp46
g29
I96
sg30
F0.02997612953186035
sg31
F7.414817810058594e-05
sg32
I3
sg33
I11
sa(dp47
g29
I85
sg30
F0.007188081741333008
sg31
F5.698204040527344e-05
sg32
I3
sg33
I10
sa(dp48
g29
I81
sg30
F0.013286828994750977
sg31
F6.580352783203125e-05
sg32
I3
sg33
I9
sa(dp49
g29
I75
sg30
F0.007050991058349609
sg31
F5.2928924560546875e-05
sg32
I3
sg33
I8
sa(dp50
g29
I74
sg30
F0.007550954818725586
sg31
F5.1975250244140625e-05
sg32
I4
sg33
I7
sa(dp51
g29
I76
sg30
F0.17000722885131836
sg31
F6.914138793945312e-05
sg32
I4
sg33
I6
sasS'total_cqs'
p52
I33
ssI4
(dp53
S'iters'
p54
I0
sS'meta'
p55
(lp56
sS'total_cqs'
p57
I1
ssI5
(dp58
S'iters'
p59
I0
sS'meta'
p60
(lp61
sS'total_cqs'
p62
I1
ssI6
(dp63
S'iters'
p64
I2
sS'meta'
p65
(lp66
(dp67
S'objective'
p68
I3
sS'query_time'
p69
F10.607173919677734
sS'comp_time'
p70
F0.000102996826171875
sS'exec_cq'
p71
I1
sS'total_cq'
p72
I5
sa(dp73
g68
I4
sg69
F0.01111292839050293
sg70
F5.0067901611328125e-05
sg71
I1
sg72
I2
sasS'total_cqs'
p74
I5
ssI7
(dp75
S'iters'
p76
I0
sS'meta'
p77
(lp78
sS'total_cqs'
p79
I1
ssI8
(dp80
S'iters'
p81
I4
sS'meta'
p82
(lp83
(dp84
S'objective'
p85
I17
sS'query_time'
p86
F62.093827962875366
sS'comp_time'
p87
F0.0001049041748046875
sS'exec_cq'
p88
I4
sS'total_cq'
p89
I6
sa(dp90
g85
I7
sg86
F41.331809997558594
sg87
F0.00013017654418945312
sg88
I3
sg89
I5
sa(dp91
g85
I3
sg86
F1.1735451221466064
sg87
F0.000141143798828125
sg88
I2
sg89
I4
sa(dp92
g85
I3
sg86
F0.00308990478515625
sg87
F8.797645568847656e-05
sg88
I1
sg89
I2
sasS'total_cqs'
p93
I6
ssI9
(dp94
S'iters'
p95
I3
sS'meta'
p96
(lp97
(dp98
S'objective'
p99
I11
sS'query_time'
p100
F38.51623010635376
sS'comp_time'
p101
F0.00035691261291503906
sS'exec_cq'
p102
I2
sS'total_cq'
p103
I6
sa(dp104
g99
I6
sg100
F3.188055992126465
sg101
F0.00013113021850585938
sg102
I2
sg103
I5
sa(dp105
g99
I3
sg100
F0.01709890365600586
sg101
F0.00012993812561035156
sg102
I1
sg103
I2
sasS'total_cqs'
p106
I6
ssI10
(dp107
S'iters'
p108
I0
sS'meta'
p109
(lp110
sS'total_cqs'
p111
I1
ssI11
(dp112
S'iters'
p113
I0
sS'meta'
p114
(lp115
sS'total_cqs'
p116
I1
ssI12
(dp117
S'iters'
p118
I0
sS'meta'
p119
(lp120
sS'total_cqs'
p121
I1
ssI13
(dp122
S'iters'
p123
I2
sS'meta'
p124
(lp125
(dp126
S'objective'
p127
I20
sS'query_time'
p128
F10.09859299659729
sS'comp_time'
p129
F8.916854858398438e-05
sS'exec_cq'
p130
I1
sS'total_cq'
p131
I8
sa(dp132
g127
I26
sg128
F0.005760908126831055
sg129
F5.269050598144531e-05
sg130
I7
sg131
I7
sasS'total_cqs'
p133
I8
ssI14
(dp134
S'iters'
p135
I3
sS'meta'
p136
(lp137
(dp138
S'objective'
p139
I5
sS'query_time'
p140
F0.02101302146911621
sS'comp_time'
p141
F6.794929504394531e-05
sS'exec_cq'
p142
I1
sS'total_cq'
p143
I5
sa(dp144
g139
I4
sg140
F0.2162189483642578
sg141
F8.702278137207031e-05
sg142
I2
sg143
I4
sa(dp145
g139
I5
sg140
F0.994232177734375
sg141
F7.414817810058594e-05
sg142
I3
sg143
I3
sasS'total_cqs'
p146
I5
ssI16
(dp147
S'iters'
p148
I4
sS'meta'
p149
(lp150
(dp151
S'objective'
p152
I7
sS'query_time'
p153
F1.6638140678405762
sS'comp_time'
p154
F6.198883056640625e-05
sS'exec_cq'
p155
I2
sS'total_cq'
p156
I5
sa(dp157
g152
I5
sg153
F0.2179710865020752
sg154
F6.508827209472656e-05
sg155
I2
sg156
I4
sa(dp158
g152
I2
sg153
F0.11556005477905273
sg154
F9.369850158691406e-05
sg155
I2
sg156
I3
sa(dp159
g152
I1
sg153
F0.0013260841369628906
sg154
F4.1961669921875e-05
sg155
I1
sg156
I2
sasS'total_cqs'
p160
I5
ssI17
(dp161
S'iters'
p162
I0
sS'meta'
p163
(lp164
sS'total_cqs'
p165
I1
ssI18
(dp166
S'iters'
p167
I3
sS'meta'
p168
(lp169
(dp170
S'objective'
p171
I3
sS'query_time'
p172
F4.787061929702759
sS'comp_time'
p173
F0.00010800361633300781
sS'exec_cq'
p174
I1
sS'total_cq'
p175
I5
sa(dp176
g171
I0
sg172
F0.07846188545227051
sg173
F7.414817810058594e-05
sg174
I1
sg175
I3
sa(dp177
g171
I1
sg172
F0.1141970157623291
sg173
F9.393692016601562e-05
sg174
I1
sg175
I2
sasS'total_cqs'
p178
I5
ssI19
(dp179
S'iters'
p180
I0
sS'meta'
p181
(lp182
sS'total_cqs'
p183
I1
ssI20
(dp184
S'iters'
p185
I6
sS'meta'
p186
(lp187
(dp188
S'objective'
p189
I36
sS'query_time'
p190
F0.01892685890197754
sS'comp_time'
p191
F9.679794311523438e-05
sS'exec_cq'
p192
I1
sS'total_cq'
p193
I12
sa(dp194
g189
I29
sg190
F0.02252817153930664
sg191
F8.702278137207031e-05
sg192
I2
sg193
I10
sa(dp195
g189
I15
sg190
F6.5502049922943115
sg191
F0.00010991096496582031
sg192
I2
sg193
I8
sa(dp196
g189
I23
sg190
F5.4776599407196045
sg191
F0.00011086463928222656
sg192
I4
sg193
I6
sa(dp197
g189
I22
sg190
F0.001775979995727539
sg191
F4.792213439941406e-05
sg192
I4
sg193
I5
sa(dp198
g189
I22
sg190
F0.0947871208190918
sg191
F8.0108642578125e-05
sg192
I4
sg193
I4
sasS'total_cqs'
p199
I12
ssI21
(dp200
S'iters'
p201
I8
sS'meta'
p202
(lp203
(dp204
S'objective'
p205
I73
sS'query_time'
p206
F0.13844895362854004
sS'comp_time'
p207
F7.390975952148438e-05
sS'exec_cq'
p208
I1
sS'total_cq'
p209
I14
sa(dp210
g205
I63
sg206
F0.33354687690734863
sg207
F8.392333984375e-05
sg208
I1
sg209
I12
sa(dp211
g205
I38
sg206
F48.581063985824585
sg207
F0.00020503997802734375
sg208
I3
sg209
I11
sa(dp212
g205
I35
sg206
F0.43954014778137207
sg207
F0.00012683868408203125
sg208
I3
sg209
I9
sa(dp213
g205
I10
sg206
F0.09454488754272461
sg207
F7.510185241699219e-05
sg208
I3
sg209
I7
sa(dp214
g205
I16
sg206
F9.43426513671875
sg207
F0.0006010532379150391
sg208
I2
sg209
I5
sa(dp215
g205
I12
sg206
F0.5001049041748047
sg207
F0.00012803077697753906
sg208
I2
sg209
I4
sa(dp216
g205
I3
sg206
F0.04306817054748535
sg207
F6.723403930664062e-05
sg208
I1
sg209
I2
sasS'total_cqs'
p217
I14
ssI22
(dp218
S'iters'
p219
I1
sS'meta'
p220
(lp221
(dp222
S'objective'
p223
I1
sS'query_time'
p224
F0.004106998443603516
sS'comp_time'
p225
F6.389617919921875e-05
sS'exec_cq'
p226
I1
sS'total_cq'
p227
I2
sasS'total_cqs'
p228
I2
ssI23
(dp229
S'iters'
p230
I0
sS'meta'
p231
(lp232
sS'total_cqs'
p233
I1
ssI24
(dp234
S'iters'
p235
I0
sS'meta'
p236
(lp237
sS'total_cqs'
p238
I1
ssI25
(dp239
S'iters'
p240
I4
sS'meta'
p241
(lp242
(dp243
S'objective'
p244
I14
sS'query_time'
p245
F12.918757200241089
sS'comp_time'
p246
F0.0001289844512939453
sS'exec_cq'
p247
I1
sS'total_cq'
p248
I7
sa(dp249
g244
I1
sg245
F4.514007091522217
sg246
F0.00010585784912109375
sg247
I1
sg248
I6
sa(dp250
g244
I7
sg245
F32.83797216415405
sg246
F0.00025916099548339844
sg247
I2
sg248
I4
sa(dp251
g244
I7
sg245
F0.2020862102508545
sg246
F6.103515625e-05
sg247
I2
sg248
I3
sasS'total_cqs'
p252
I7
ssI26
(dp253
S'iters'
p254
I10
sS'meta'
p255
(lp256
(dp257
S'objective'
p258
I55
sS'query_time'
p259
F0.044779062271118164
sS'comp_time'
p260
F8.487701416015625e-05
sS'exec_cq'
p261
I1
sS'total_cq'
p262
I13
sa(dp263
g258
I49
sg259
F0.06352591514587402
sg260
F7.700920104980469e-05
sg261
I1
sg262
I11
sa(dp264
g258
I39
sg259
F0.04020881652832031
sg260
F7.510185241699219e-05
sg261
I1
sg262
I10
sa(dp265
g258
I30
sg259
F0.03345608711242676
sg260
F7.295608520507812e-05
sg261
I1
sg262
I9
sa(dp266
g258
I22
sg259
F0.08560895919799805
sg260
F8.511543273925781e-05
sg261
I1
sg262
I8
sa(dp267
g258
I15
sg259
F0.026370763778686523
sg260
F6.318092346191406e-05
sg261
I1
sg262
I7
sa(dp268
g258
I9
sg259
F0.03339409828186035
sg260
F5.888938903808594e-05
sg261
I1
sg262
I6
sa(dp269
g258
I4
sg259
F22.138325214385986
sg260
F0.0001049041748046875
sg261
I1
sg262
I5
sa(dp270
g258
I2
sg259
F0.5953109264373779
sg260
F9.226799011230469e-05
sg261
I1
sg262
I4
sa(dp271
g258
I2
sg259
F0.021697044372558594
sg260
F5.3882598876953125e-05
sg261
I1
sg262
I2
sasS'total_cqs'
p272
I13
ssI27
(dp273
S'iters'
p274
I1
sS'meta'
p275
(lp276
(dp277
S'objective'
p278
I1
sS'query_time'
p279
F0.15149593353271484
sS'comp_time'
p280
F0.00010514259338378906
sS'exec_cq'
p281
I2
sS'total_cq'
p282
I2
sasS'total_cqs'
p283
I2
ssI28
(dp284
S'iters'
p285
I9
sS'meta'
p286
(lp287
(dp288
S'objective'
p289
I77
sS'query_time'
p290
F2.0538151264190674
sS'comp_time'
p291
F8.082389831542969e-05
sS'exec_cq'
p292
I1
sS'total_cq'
p293
I14
sa(dp294
g289
I23
sg290
F1.935798168182373
sg291
F8.392333984375e-05
sg292
I1
sg293
I13
sa(dp295
g289
I33
sg290
F1.1857500076293945
sg291
F8.893013000488281e-05
sg292
I1
sg293
I9
sa(dp296
g289
I23
sg290
F1.1521508693695068
sg291
F9.393692016601562e-05
sg292
I1
sg293
I8
sa(dp297
g289
I2
sg290
F1.0550439357757568
sg291
F0.00010204315185546875
sg292
I1
sg293
I7
sa(dp298
g289
I4
sg290
F0.5698502063751221
sg291
F9.012222290039062e-05
sg292
I1
sg293
I5
sa(dp299
g289
I2
sg290
F0.37265706062316895
sg291
F0.00010013580322265625
sg292
I1
sg293
I4
sa(dp300
g289
I0
sg290
F0.2673771381378174
sg291
F0.0001571178436279297
sg292
I1
sg293
I3
sa(dp301
g289
I1
sg290
F0.18246197700500488
sg291
F9.489059448242188e-05
sg292
I1
sg293
I2
sasS'total_cqs'
p302
I14
ssI29
(dp303
S'iters'
p304
I1
sS'meta'
p305
(lp306
(dp307
S'objective'
p308
I1
sS'query_time'
p309
F0.003145933151245117
sS'comp_time'
p310
F5.0067901611328125e-05
sS'exec_cq'
p311
I2
sS'total_cq'
p312
I2
sasS'total_cqs'
p313
I2
ssI30
(dp314
S'iters'
p315
I1
sS'meta'
p316
(lp317
(dp318
S'objective'
p319
I1
sS'query_time'
p320
F0.3977649211883545
sS'comp_time'
p321
F9.179115295410156e-05
sS'exec_cq'
p322
I2
sS'total_cq'
p323
I2
sasS'total_cqs'
p324
I2
ssI31
(dp325
S'iters'
p326
I6
sS'meta'
p327
(lp328
(dp329
S'objective'
p330
I27
sS'query_time'
p331
F0.011317014694213867
sS'comp_time'
p332
F8.511543273925781e-05
sS'exec_cq'
p333
I1
sS'total_cq'
p334
I9
sa(dp335
g330
I16
sg331
F6.943818092346191
sg332
F9.202957153320312e-05
sg333
I1
sg334
I8
sa(dp336
g330
I12
sg331
F5.506300210952759
sg332
F9.608268737792969e-05
sg333
I1
sg334
I6
sa(dp337
g330
I1
sg331
F0.22954893112182617
sg332
F0.00011134147644042969
sg333
I1
sg334
I5
sa(dp338
g330
I0
sg331
F0.3092200756072998
sg332
F7.700920104980469e-05
sg333
I1
sg334
I3
sa(dp339
g330
I3
sg331
F0.02308201789855957
sg332
F0.00032591819763183594
sg333
I1
sg334
I2
sasS'total_cqs'
p340
I9
ssI32
(dp341
S'iters'
p342
I5
sS'meta'
p343
(lp344
(dp345
S'objective'
p346
I14
sS'query_time'
p347
F1.9415431022644043
sS'comp_time'
p348
F0.0006127357482910156
sS'exec_cq'
p349
I1
sS'total_cq'
p350
I7
sa(dp351
g346
I5
sg347
F1.7161998748779297
sg348
F8.20159912109375e-05
sg349
I1
sg350
I6
sa(dp352
g346
I3
sg347
F2.0105979442596436
sg348
F6.723403930664062e-05
sg349
I1
sg350
I4
sa(dp353
g346
I0
sg347
F8.320933103561401
sg348
F0.00019025802612304688
sg349
I1
sg350
I3
sa(dp354
g346
I2
sg347
F5.968156814575195
sg348
F9.226799011230469e-05
sg349
I1
sg350
I2
sasS'total_cqs'
p355
I7
ssI33
(dp356
S'iters'
p357
I1
sS'meta'
p358
(lp359
(dp360
S'objective'
p361
I1
sS'query_time'
p362
F0.02908492088317871
sS'comp_time'
p363
F8.893013000488281e-05
sS'exec_cq'
p364
I2
sS'total_cq'
p365
I2
sasS'total_cqs'
p366
I2
ssI34
(dp367
S'iters'
p368
I0
sS'meta'
p369
(lp370
sS'total_cqs'
p371
I1
ssI35
(dp372
S'iters'
p373
I3
sS'meta'
p374
(lp375
(dp376
S'objective'
p377
I1
sS'query_time'
p378
F9.156544923782349
sS'comp_time'
p379
F0.00010609626770019531
sS'exec_cq'
p380
I1
sS'total_cq'
p381
I5
sa(dp382
g377
I0
sg378
F0.9980499744415283
sg379
F0.00023794174194335938
sg380
I1
sg381
I3
sa(dp383
g377
I2
sg378
F2.1442010402679443
sg379
F8.0108642578125e-05
sg380
I1
sg381
I2
sasS'total_cqs'
p384
I5
ssI37
(dp385
S'iters'
p386
I6
sS'meta'
p387
(lp388
(dp389
S'objective'
p390
I35
sS'query_time'
p391
F0.010111093521118164
sS'comp_time'
p392
F7.486343383789062e-05
sS'exec_cq'
p393
I1
sS'total_cq'
p394
I10
sa(dp395
g390
I27
sg391
F0.6975510120391846
sg392
F8.916854858398438e-05
sg393
I1
sg394
I9
sa(dp396
g390
I20
sg391
F0.006956815719604492
sg392
F9.107589721679688e-05
sg393
I1
sg394
I8
sa(dp397
g390
I16
sg391
F0.5318729877471924
sg392
F8.20159912109375e-05
sg393
I2
sg394
I7
sa(dp398
g390
I10
sg391
F8.963949203491211
sg392
F0.00011587142944335938
sg393
I2
sg394
I6
sa(dp399
g390
I4
sg391
F0.0020339488983154297
sg392
F5.1021575927734375e-05
sg393
I1
sg394
I2
sasS'total_cqs'
p400
I10
ssI38
(dp401
S'iters'
p402
I0
sS'meta'
p403
(lp404
sS'total_cqs'
p405
I1
ssI39
(dp406
S'iters'
p407
I0
sS'meta'
p408
(lp409
sS'total_cqs'
p410
I1
ssI40
(dp411
S'iters'
p412
I1
sS'meta'
p413
(lp414
(dp415
S'objective'
p416
I1
sS'query_time'
p417
F18.93280601501465
sS'comp_time'
p418
F0.00033926963806152344
sS'exec_cq'
p419
I1
sS'total_cq'
p420
I2
sasS'total_cqs'
p421
I2
ssI41
(dp422
S'iters'
p423
I5
sS'meta'
p424
(lp425
(dp426
S'objective'
p427
I9
sS'query_time'
p428
F0.3508780002593994
sS'comp_time'
p429
F7.414817810058594e-05
sS'exec_cq'
p430
I1
sS'total_cq'
p431
I6
sa(dp432
g427
I5
sg428
F1.7007489204406738
sg429
F0.00010013580322265625
sg430
I1
sg431
I5
sa(dp433
g427
I2
sg428
F0.2587549686431885
sg429
F9.322166442871094e-05
sg430
I1
sg431
I4
sa(dp434
g427
I0
sg428
F2.09837007522583
sg429
F0.0002701282501220703
sg430
I1
sg431
I3
sa(dp435
g427
I1
sg428
F9.055753946304321
sg429
F0.0006690025329589844
sg430
I1
sg431
I2
sasS'total_cqs'
p436
I6
ssI42
(dp437
S'iters'
p438
I1
sS'meta'
p439
(lp440
(dp441
S'objective'
p442
I1
sS'query_time'
p443
F18.68555521965027
sS'comp_time'
p444
F0.00012612342834472656
sS'exec_cq'
p445
I1
sS'total_cq'
p446
I2
sasS'total_cqs'
p447
I2
ssI43
(dp448
S'iters'
p449
I0
sS'meta'
p450
(lp451
sS'total_cqs'
p452
I1
ssI44
(dp453
S'iters'
p454
I3
sS'meta'
p455
(lp456
(dp457
S'objective'
p458
I1
sS'query_time'
p459
F4.080802917480469
sS'comp_time'
p460
F9.679794311523438e-05
sS'exec_cq'
p461
I1
sS'total_cq'
p462
I5
sa(dp463
g458
I0
sg459
F1.3189518451690674
sg460
F6.818771362304688e-05
sg461
I1
sg462
I3
sa(dp464
g458
I2
sg459
F0.009273052215576172
sg460
F5.698204040527344e-05
sg461
I1
sg462
I2
sasS'total_cqs'
p465
I5
ssI45
(dp466
S'iters'
p467
I2
sS'meta'
p468
(lp469
(dp470
S'objective'
p471
I11
sS'query_time'
p472
F5.95304799079895
sS'comp_time'
p473
F0.00012183189392089844
sS'exec_cq'
p474
I4
sS'total_cq'
p475
I5
sa(dp476
g471
I11
sg472
F0.005062103271484375
sg473
F5.53131103515625e-05
sg474
I4
sg475
I4
sasS'total_cqs'
p477
I5
ssI46
(dp478
S'iters'
p479
I0
sS'meta'
p480
(lp481
sS'total_cqs'
p482
I1
ssI47
(dp483
S'iters'
p484
I0
sS'meta'
p485
(lp486
sS'total_cqs'
p487
I1
ssI48
(dp488
S'iters'
p489
I1
sS'meta'
p490
(lp491
(dp492
S'objective'
p493
I1
sS'query_time'
p494
F0.12110710144042969
sS'comp_time'
p495
F8.916854858398438e-05
sS'exec_cq'
p496
I2
sS'total_cq'
p497
I2
sasS'total_cqs'
p498
I2
ssI49
(dp499
S'iters'
p500
I3
sS'meta'
p501
(lp502
(dp503
S'objective'
p504
I1
sS'query_time'
p505
F1.7311220169067383
sS'comp_time'
p506
F0.00011396408081054688
sS'exec_cq'
p507
I1
sS'total_cq'
p508
I5
sa(dp509
g504
I0
sg505
F3.9501500129699707
sg506
F0.00012493133544921875
sg507
I1
sg508
I3
sa(dp510
g504
I2
sg505
F0.011362075805664062
sg506
F6.222724914550781e-05
sg507
I2
sg508
I2
sasS'total_cqs'
p511
I5
ssI50
(dp512
S'iters'
p513
I4
sS'meta'
p514
(lp515
(dp516
S'objective'
p517
I5
sS'query_time'
p518
F0.007321834564208984
sS'comp_time'
p519
F8.273124694824219e-05
sS'exec_cq'
p520
I1
sS'total_cq'
p521
I5
sa(dp522
g517
I2
sg518
F0.1792140007019043
sg519
F8.392333984375e-05
sg520
I1
sg521
I4
sa(dp523
g517
I0
sg518
F0.01935601234436035
sg519
F7.796287536621094e-05
sg520
I1
sg521
I3
sa(dp524
g517
I1
sg518
F0.004030942916870117
sg519
F6.103515625e-05
sg520
I1
sg521
I2
sasS'total_cqs'
p525
I5
ssI51
(dp526
S'iters'
p527
I0
sS'meta'
p528
(lp529
sS'total_cqs'
p530
I1
ssI52
(dp531
S'iters'
p532
I0
sS'meta'
p533
(lp534
sS'total_cqs'
p535
I1
ssI53
(dp536
S'iters'
p537
I0
sS'meta'
p538
(lp539
sS'total_cqs'
p540
I1
ssI55
(dp541
S'iters'
p542
I1
sS'meta'
p543
(lp544
(dp545
S'objective'
p546
I1
sS'query_time'
p547
F28.010283946990967
sS'comp_time'
p548
F0.000164031982421875
sS'exec_cq'
p549
I2
sS'total_cq'
p550
I2
sasS'total_cqs'
p551
I2
ssI56
(dp552
S'iters'
p553
I0
sS'meta'
p554
(lp555
sS'total_cqs'
p556
I1
ssI57
(dp557
S'iters'
p558
I2
sS'meta'
p559
(lp560
(dp561
S'objective'
p562
I0
sS'query_time'
p563
F2.37693190574646
sS'comp_time'
p564
F0.00022482872009277344
sS'exec_cq'
p565
I1
sS'total_cq'
p566
I3
sa(dp567
g562
I1
sg563
F12.47001600265503
sg564
F0.00014710426330566406
sg565
I2
sg566
I2
sasS'total_cqs'
p568
I3
ssI108
(dp569
S'iters'
p570
I0
sS'meta'
p571
(lp572
sS'total_cqs'
p573
I1
ssI109
(dp574
S'iters'
p575
I0
sS'meta'
p576
(lp577
sS'total_cqs'
p578
I1
ssI116
(dp579
S'iters'
p580
I2
sS'meta'
p581
(lp582
(dp583
S'objective'
p584
I195
sS'query_time'
p585
F1.4948530197143555
sS'comp_time'
p586
F0.00011205673217773438
sS'exec_cq'
p587
I5
sS'total_cq'
p588
I21
sa(dp589
g584
I16
sg585
F0.12964391708374023
sg586
F0.00011587142944335938
sg587
I1
sg588
I2
sasS'total_cqs'
p590
I21
ssI117
(dp591
S'iters'
p592
I2
sS'meta'
p593
(lp594
(dp595
S'objective'
p596
I7
sS'query_time'
p597
F0.00782918930053711
sS'comp_time'
p598
F6.508827209472656e-05
sS'exec_cq'
p599
I2
sS'total_cq'
p600
I5
sa(dp601
g596
I9
sg597
F0.004144906997680664
sg598
F6.198883056640625e-05
sg599
I4
sg600
I4
sasS'total_cqs'
p602
I5
ssI118
(dp603
S'iters'
p604
I0
sS'meta'
p605
(lp606
sS'total_cqs'
p607
I1
ssI122
(dp608
S'iters'
p609
I0
sS'meta'
p610
(lp611
sS'total_cqs'
p612
I1
ss.