(dp0
I1
(dp1
S'iters'
p2
I3
sS'meta'
p3
(lp4
(dp5
S'objective'
p6
I11
sS'query_time'
p7
F25.277687072753906
sS'comp_time'
p8
F0.0795900821685791
sS'exec_cq'
p9
I6
sS'total_cq'
p10
I6
sa(dp11
g6
I10
sg7
F0.010363101959228516
sg8
F1.401374101638794
sg9
I5
sg10
I5
sa(dp12
g6
I1
sg7
F0.01407003402709961
sg8
F240.68097710609436
sg9
I2
sg10
I2
sasS'total_cqs'
p13
I6
ssI2
(dp14
S'iters'
p15
I1
sS'meta'
p16
(lp17
(dp18
S'objective'
p19
I19
sS'query_time'
p20
F0.7746329307556152
sS'comp_time'
p21
F0.08022212982177734
sS'exec_cq'
p22
I6
sS'total_cq'
p23
I6
sasS'total_cqs'
p24
I6
ssI3
(dp25
S'iters'
p26
I16
sS'meta'
p27
(lp28
(dp29
S'objective'
p30
I409
sS'query_time'
p31
F26.434273958206177
sS'comp_time'
p32
F0.233259916305542
sS'exec_cq'
p33
I33
sS'total_cq'
p34
I33
sa(dp35
g30
I353
sg31
F0.024757862091064453
sg32
F0.15180087089538574
sg33
I30
sg34
I30
sa(dp36
g30
I303
sg31
F0.022691965103149414
sg32
F0.14671993255615234
sg33
I27
sg34
I27
sa(dp37
g30
I253
sg31
F0.03687310218811035
sg32
F0.11626195907592773
sg33
I24
sg34
I24
sa(dp38
g30
I235
sg31
F0.016358137130737305
sg32
F0.1127920150756836
sg33
I21
sg34
I21
sa(dp39
g30
I203
sg31
F0.0458219051361084
sg32
F0.08347201347351074
sg33
I18
sg34
I18
sa(dp40
g30
I177
sg31
F0.016408920288085938
sg32
F0.11617398262023926
sg33
I16
sg34
I16
sa(dp41
g30
I151
sg31
F0.014790058135986328
sg32
F0.10805416107177734
sg33
I15
sg34
I15
sa(dp42
g30
I123
sg31
F0.014570951461791992
sg32
F0.11058878898620605
sg33
I14
sg34
I14
sa(dp43
g30
I103
sg31
F0.01360011100769043
sg32
F0.10309314727783203
sg33
I11
sg34
I11
sa(dp44
g30
I85
sg31
F0.0135650634765625
sg32
F0.09689807891845703
sg33
I10
sg34
I10
sa(dp45
g30
I64
sg31
F0.03225398063659668
sg32
F0.06938600540161133
sg33
I9
sg34
I9
sa(dp46
g30
I47
sg31
F0.0052340030670166016
sg32
F0.025548934936523438
sg33
I6
sg34
I6
sa(dp47
g30
I30
sg31
F0.004784107208251953
sg32
F0.0519101619720459
sg33
I5
sg34
I5
sa(dp48
g30
I22
sg31
F0.00504302978515625
sg32
F0.025177001953125
sg33
I4
sg34
I4
sa(dp49
g30
I33
sg31
F0.00203704833984375
sg32
F0.011204004287719727
sg33
I3
sg34
I3
sasS'total_cqs'
p50
I33
ssI4
(dp51
S'iters'
p52
I0
sS'meta'
p53
(lp54
sS'total_cqs'
p55
I1
ssI5
(dp56
S'iters'
p57
I0
sS'meta'
p58
(lp59
sS'total_cqs'
p60
I1
ssI6
(dp61
S'iters'
p62
I3
sS'meta'
p63
(lp64
(dp65
S'objective'
p66
I1
sS'query_time'
p67
F14.732950210571289
sS'comp_time'
p68
F0.003013134002685547
sS'exec_cq'
p69
I5
sS'total_cq'
p70
I5
sa(dp71
g66
I0
sg67
F0.0005309581756591797
sg68
F0.0017871856689453125
sg69
I3
sg70
I3
sa(dp72
g66
I2
sg67
F0.0002529621124267578
sg68
F0.001461029052734375
sg69
I2
sg70
I2
sasS'total_cqs'
p73
I5
ssI7
(dp74
S'iters'
p75
I0
sS'meta'
p76
(lp77
sS'total_cqs'
p78
I1
ssI8
(dp79
S'iters'
p80
I4
sS'meta'
p81
(lp82
(dp83
S'objective'
p84
I11
sS'query_time'
p85
F22.869949102401733
sS'comp_time'
p86
F0.2131671905517578
sS'exec_cq'
p87
I6
sS'total_cq'
p88
I6
sa(dp89
g84
I0
sg85
F2.1252498626708984
sg86
F2.198884963989258
sg87
I5
sg88
I5
sa(dp90
g84
I0
sg85
F0.0035762786865234375
sg86
F0.0023698806762695312
sg87
I3
sg88
I3
sa(dp91
g84
I2
sg85
F1.9487688541412354
sg86
F1.8632938861846924
sg87
I2
sg88
I2
sasS'total_cqs'
p92
I6
ssI9
(dp93
S'iters'
p94
I3
sS'meta'
p95
(lp96
(dp97
S'objective'
p98
I3
sS'query_time'
p99
F52.86657094955444
sS'comp_time'
p100
F4.612659931182861
sS'exec_cq'
p101
I6
sS'total_cq'
p102
I6
sa(dp103
g98
I2
sg99
F0.846081018447876
sg100
F3.365112066268921
sg101
I3
sg102
I3
sa(dp104
g98
I5
sg99
F0.00751495361328125
sg100
F0.2185380458831787
sg101
I2
sg102
I2
sasS'total_cqs'
p105
I6
ssI10
(dp106
S'iters'
p107
I0
sS'meta'
p108
(lp109
sS'total_cqs'
p110
I1
ssI11
(dp111
S'iters'
p112
I0
sS'meta'
p113
(lp114
sS'total_cqs'
p115
I1
ssI12
(dp116
S'iters'
p117
I0
sS'meta'
p118
(lp119
sS'total_cqs'
p120
I1
ssI13
(dp121
S'iters'
p122
I2
sS'meta'
p123
(lp124
(dp125
S'objective'
p126
I30
sS'query_time'
p127
F0.044137001037597656
sS'comp_time'
p128
F0.0001659393310546875
sS'exec_cq'
p129
I8
sS'total_cq'
p130
I8
sa(dp131
g126
I31
sg127
F4.00543212890625e-05
sg128
F6.222724914550781e-05
sg129
I7
sg130
I7
sasS'total_cqs'
p132
I8
ssI14
(dp133
S'iters'
p134
I3
sS'meta'
p135
(lp136
(dp137
S'objective'
p138
I5
sS'query_time'
p139
F1.0723741054534912
sS'comp_time'
p140
F0.006762027740478516
sS'exec_cq'
p141
I5
sS'total_cq'
p142
I5
sa(dp143
g138
I6
sg139
F0.000370025634765625
sg140
F0.0022652149200439453
sg141
I4
sg142
I4
sa(dp144
g138
I6
sg139
F0.0003731250762939453
sg140
F0.0025360584259033203
sg141
I3
sg142
I3
sasS'total_cqs'
p145
I5
ssI16
(dp146
S'iters'
p147
I3
sS'meta'
p148
(lp149
(dp150
S'objective'
p151
I1
sS'query_time'
p152
F1.47511887550354
sS'comp_time'
p153
F0.005379915237426758
sS'exec_cq'
p154
I5
sS'total_cq'
p155
I5
sa(dp156
g151
I2
sg152
F0.00018477439880371094
sg153
F0.0010030269622802734
sg154
I3
sg155
I3
sa(dp157
g151
I1
sg152
F3.0040740966796875e-05
sg153
F0.0001442432403564453
sg154
I2
sg155
I2
sasS'total_cqs'
p158
I5
ssI17
(dp159
S'iters'
p160
I0
sS'meta'
p161
(lp162
sS'total_cqs'
p163
I1
ssI18
(dp164
S'iters'
p165
I3
sS'meta'
p166
(lp167
(dp168
S'objective'
p169
I1
sS'query_time'
p170
F0.30071282386779785
sS'comp_time'
p171
F0.0002689361572265625
sS'exec_cq'
p172
I5
sS'total_cq'
p173
I5
sa(dp174
g169
I0
sg170
F4.1961669921875e-05
sg171
F9.298324584960938e-05
sg172
I3
sg173
I3
sa(dp175
g169
I2
sg170
F1.9073486328125e-05
sg171
F7.605552673339844e-05
sg172
I2
sg173
I2
sasS'total_cqs'
p176
I5
ssI19
(dp177
S'iters'
p178
I0
sS'meta'
p179
(lp180
sS'total_cqs'
p181
I1
ssI20
(dp182
S'iters'
p183
I6
sS'meta'
p184
(lp185
(dp186
S'objective'
p187
I32
sS'query_time'
p188
F11.60670804977417
sS'comp_time'
p189
F1.2305469512939453
sS'exec_cq'
p190
I12
sS'total_cq'
p191
I12
sa(dp192
g187
I29
sg188
F0.24181079864501953
sg189
F1.0092461109161377
sg190
I10
sg191
I10
sa(dp193
g187
I18
sg188
F0.21739983558654785
sg189
F0.9450008869171143
sg190
I8
sg191
I8
sa(dp194
g187
I14
sg188
F0.19365286827087402
sg189
F0.7274041175842285
sg190
I6
sg191
I6
sa(dp195
g187
I10
sg188
F0.13769888877868652
sg189
F0.44478797912597656
sg190
I5
sg191
I5
sa(dp196
g187
I14
sg188
F0.0008478164672851562
sg189
F0.003242969512939453
sg190
I4
sg191
I4
sasS'total_cqs'
p197
I12
ssI21
(dp198
S'iters'
p199
I5
sS'meta'
p200
(lp201
(dp202
S'objective'
p203
I21
sS'query_time'
p204
F31.564340114593506
sS'comp_time'
p205
F0.5164299011230469
sS'exec_cq'
p206
I14
sS'total_cq'
p207
I14
sa(dp208
g203
I13
sg204
F0.06531906127929688
sg205
F0.1830592155456543
sg206
I10
sg207
I10
sa(dp209
g203
I8
sg204
F0.015569925308227539
sg205
F0.10753893852233887
sg206
I6
sg207
I6
sa(dp210
g203
I1
sg204
F0.02479386329650879
sg205
F0.027676105499267578
sg206
I4
sg207
I4
sa(dp211
g203
I9
sg204
F0.001230001449584961
sg205
F0.0058820247650146484
sg206
I3
sg207
I3
sasS'total_cqs'
p212
I14
ssI22
(dp213
S'iters'
p214
I1
sS'meta'
p215
(lp216
(dp217
S'objective'
p218
I1
sS'query_time'
p219
F0.012205123901367188
sS'comp_time'
p220
F0.00013184547424316406
sS'exec_cq'
p221
I2
sS'total_cq'
p222
I2
sasS'total_cqs'
p223
I2
ssI23
(dp224
S'iters'
p225
I0
sS'meta'
p226
(lp227
sS'total_cqs'
p228
I1
ssI24
(dp229
S'iters'
p230
I0
sS'meta'
p231
(lp232
sS'total_cqs'
p233
I1
ssI25
(dp234
S'iters'
p235
I4
sS'meta'
p236
(lp237
(dp238
S'objective'
p239
I6
sS'query_time'
p240
F86.25436496734619
sS'comp_time'
p241
F9.937918901443481
sS'exec_cq'
p242
I7
sS'total_cq'
p243
I7
sa(dp244
g239
I1
sg240
F2.2692160606384277
sg241
F6.218329906463623
sg242
I5
sg243
I5
sa(dp245
g239
I0
sg240
F1.9861509799957275
sg241
F6.2428200244903564
sg242
I3
sg243
I3
sa(dp246
g239
I2
sg240
F0.0010979175567626953
sg241
F0.006227016448974609
sg242
I2
sg243
I2
sasS'total_cqs'
p247
I7
ssI26
(dp248
S'iters'
p249
I9
sS'meta'
p250
(lp251
(dp252
S'objective'
p253
I45
sS'query_time'
p254
F24.515114068984985
sS'comp_time'
p255
F3.6102449893951416
sS'exec_cq'
p256
I13
sS'total_cq'
p257
I13
sa(dp258
g253
I40
sg254
F0.7653229236602783
sg255
F3.1614527702331543
sg256
I11
sg257
I11
sa(dp259
g253
I28
sg254
F0.7353219985961914
sg255
F3.1091017723083496
sg256
I9
sg257
I9
sa(dp260
g253
I23
sg254
F0.7385299205780029
sg255
F3.104783058166504
sg256
I8
sg257
I8
sa(dp261
g253
I16
sg254
F0.7274799346923828
sg255
F3.107264995574951
sg256
I7
sg257
I7
sa(dp262
g253
I8
sg254
F0.7705609798431396
sg255
F2.9125261306762695
sg256
I6
sg257
I6
sa(dp263
g253
I2
sg254
F0.7154278755187988
sg255
F3.044114112854004
sg256
I4
sg257
I4
sa(dp264
g253
I3
sg254
F0.0008800029754638672
sg255
F0.003615856170654297
sg256
I3
sg257
I3
sa(dp265
g253
I1
sg254
F0.0005099773406982422
sg255
F0.0023860931396484375
sg256
I2
sg257
I2
sasS'total_cqs'
p266
I13
ssI27
(dp267
S'iters'
p268
I1
sS'meta'
p269
(lp270
(dp271
S'objective'
p272
I1
sS'query_time'
p273
F0.17512893676757812
sS'comp_time'
p274
F0.005110979080200195
sS'exec_cq'
p275
I2
sS'total_cq'
p276
I2
sasS'total_cqs'
p277
I2
ssI28
(dp278
S'iters'
p279
I7
sS'meta'
p280
(lp281
(dp282
S'objective'
p283
I51
sS'query_time'
p284
F1.568100929260254
sS'comp_time'
p285
F0.020077943801879883
sS'exec_cq'
p286
I14
sS'total_cq'
p287
I14
sa(dp288
g283
I28
sg284
F0.0026929378509521484
sg285
F0.014501810073852539
sg286
I10
sg287
I10
sa(dp289
g283
I11
sg284
F0.0003719329833984375
sg285
F0.002177000045776367
sg286
I8
sg287
I8
sa(dp290
g283
I6
sg284
F0.00014400482177734375
sg285
F0.0007810592651367188
sg286
I6
sg287
I6
sa(dp291
g283
I3
sg284
F0.00014400482177734375
sg285
F0.0009529590606689453
sg286
I5
sg287
I5
sa(dp292
g283
I3
sg284
F8.606910705566406e-05
sg285
F0.0004520416259765625
sg286
I4
sg287
I4
sa(dp293
g283
I2
sg284
F1.5020370483398438e-05
sg285
F5.507469177246094e-05
sg286
I2
sg287
I2
sasS'total_cqs'
p294
I14
ssI29
(dp295
S'iters'
p296
I1
sS'meta'
p297
(lp298
(dp299
S'objective'
p300
I1
sS'query_time'
p301
F0.006780862808227539
sS'comp_time'
p302
F0.00011205673217773438
sS'exec_cq'
p303
I2
sS'total_cq'
p304
I2
sasS'total_cqs'
p305
I2
ssI30
(dp306
S'iters'
p307
I1
sS'meta'
p308
(lp309
(dp310
S'objective'
p311
I1
sS'query_time'
p312
F0.3766021728515625
sS'comp_time'
p313
F0.0057811737060546875
sS'exec_cq'
p314
I2
sS'total_cq'
p315
I2
sasS'total_cqs'
p316
I2
ssI31
(dp317
S'iters'
p318
I5
sS'meta'
p319
(lp320
(dp321
S'objective'
p322
I13
sS'query_time'
p323
F6.112453937530518
sS'comp_time'
p324
F0.15234112739562988
sS'exec_cq'
p325
I9
sS'total_cq'
p326
I9
sa(dp327
g322
I9
sg323
F0.007242918014526367
sg324
F0.02791595458984375
sg325
I7
sg326
I7
sa(dp328
g322
I1
sg323
F0.005775928497314453
sg324
F0.051757097244262695
sg325
I5
sg326
I5
sa(dp329
g322
I2
sg323
F0.002538919448852539
sg324
F0.012772083282470703
sg325
I3
sg326
I3
sa(dp330
g322
I2
sg323
F0.0027968883514404297
sg324
F0.012696027755737305
sg325
I2
sg326
I2
sasS'total_cqs'
p331
I9
ssI32
(dp332
S'iters'
p333
I3
sS'meta'
p334
(lp335
(dp336
S'objective'
p337
I0
sS'query_time'
p338
F19.246958017349243
sS'comp_time'
p339
F2.879528760910034
sS'exec_cq'
p340
I7
sS'total_cq'
p341
I7
sa(dp342
g337
I0
sg338
F0.03917813301086426
sg339
F0.38689303398132324
sg340
I4
sg341
I4
sa(dp343
g337
I5
sg338
F0.027966022491455078
sg339
F0.2620110511779785
sg340
I2
sg341
I2
sasS'total_cqs'
p344
I7
ssI33
(dp345
S'iters'
p346
I1
sS'meta'
p347
(lp348
(dp349
S'objective'
p350
I1
sS'query_time'
p351
F0.04672694206237793
sS'comp_time'
p352
F0.0001418590545654297
sS'exec_cq'
p353
I2
sS'total_cq'
p354
I2
sasS'total_cqs'
p355
I2
ssI34
(dp356
S'iters'
p357
I0
sS'meta'
p358
(lp359
sS'total_cqs'
p360
I1
ssI35
(dp361
S'iters'
p362
I3
sS'meta'
p363
(lp364
(dp365
S'objective'
p366
I1
sS'query_time'
p367
F16.277021169662476
sS'comp_time'
p368
F0.20781397819519043
sS'exec_cq'
p369
I5
sS'total_cq'
p370
I5
sa(dp371
g366
I0
sg367
F0.029577970504760742
sg368
F0.15747809410095215
sg369
I3
sg370
I3
sa(dp372
g366
I2
sg367
F0.011310100555419922
sg368
F0.0858759880065918
sg369
I2
sg370
I2
sasS'total_cqs'
p373
I5
ssI37
(dp374
S'iters'
p375
I3
sS'meta'
p376
(lp377
(dp378
S'objective'
p379
I31
sS'query_time'
p380
F2.405082941055298
sS'comp_time'
p381
F0.12071490287780762
sS'exec_cq'
p382
I10
sS'total_cq'
p383
I10
sa(dp384
g379
I0
sg380
F0.02866816520690918
sg381
F0.03625321388244629
sg382
I3
sg383
I3
sa(dp385
g379
I4
sg380
F0.006651878356933594
sg381
F0.028900861740112305
sg382
I2
sg383
I2
sasS'total_cqs'
p386
I10
ssI38
(dp387
S'iters'
p388
I0
sS'meta'
p389
(lp390
sS'total_cqs'
p391
I1
ssI39
(dp392
S'iters'
p393
I0
sS'meta'
p394
(lp395
sS'total_cqs'
p396
I1
ssI40
(dp397
S'iters'
p398
I1
sS'meta'
p399
(lp400
(dp401
S'objective'
p402
I1
sS'query_time'
p403
F17.023519039154053
sS'comp_time'
p404
F2.497070789337158
sS'exec_cq'
p405
I2
sS'total_cq'
p406
I2
sasS'total_cqs'
p407
I2
ssI41
(dp408
S'iters'
p409
I3
sS'meta'
p410
(lp411
(dp412
S'objective'
p413
I3
sS'query_time'
p414
F12.348603010177612
sS'comp_time'
p415
F1.2779672145843506
sS'exec_cq'
p416
I6
sS'total_cq'
p417
I6
sa(dp418
g413
I3
sg414
F0.0019271373748779297
sg415
F0.0071430206298828125
sg416
I3
sg417
I3
sa(dp419
g413
I1
sg414
F0.0006709098815917969
sg415
F0.003409862518310547
sg416
I2
sg417
I2
sasS'total_cqs'
p420
I6
ssI42
(dp421
S'iters'
p422
I1
sS'meta'
p423
(lp424
(dp425
S'objective'
p426
I1
sS'query_time'
p427
F17.44270396232605
sS'comp_time'
p428
F2.5174262523651123
sS'exec_cq'
p429
I2
sS'total_cq'
p430
I2
sasS'total_cqs'
p431
I2
ssI43
(dp432
S'iters'
p433
I0
sS'meta'
p434
(lp435
sS'total_cqs'
p436
I1
ssI44
(dp437
S'iters'
p438
I3
sS'meta'
p439
(lp440
(dp441
S'objective'
p442
I5
sS'query_time'
p443
F1.589066982269287
sS'comp_time'
p444
F0.12144994735717773
sS'exec_cq'
p445
I5
sS'total_cq'
p446
I5
sa(dp447
g442
I0
sg443
F0.017910003662109375
sg444
F0.158890962600708
sg445
I3
sg446
I3
sa(dp448
g442
I3
sg443
F0.014733076095581055
sg444
F0.09184789657592773
sg445
I2
sg446
I2
sasS'total_cqs'
p449
I5
ssI45
(dp450
S'iters'
p451
I2
sS'meta'
p452
(lp453
(dp454
S'objective'
p455
I3
sS'query_time'
p456
F0.040780067443847656
sS'comp_time'
p457
F0.0008866786956787109
sS'exec_cq'
p458
I5
sS'total_cq'
p459
I5
sa(dp460
g455
I4
sg456
F0.00014090538024902344
sg457
F0.0004780292510986328
sg458
I2
sg459
I2
sasS'total_cqs'
p461
I5
ssI46
(dp462
S'iters'
p463
I0
sS'meta'
p464
(lp465
sS'total_cqs'
p466
I1
ssI47
(dp467
S'iters'
p468
I0
sS'meta'
p469
(lp470
sS'total_cqs'
p471
I1
ssI48
(dp472
S'iters'
p473
I1
sS'meta'
p474
(lp475
(dp476
S'objective'
p477
I1
sS'query_time'
p478
F0.12758493423461914
sS'comp_time'
p479
F0.007049083709716797
sS'exec_cq'
p480
I2
sS'total_cq'
p481
I2
sasS'total_cqs'
p482
I2
ssI49
(dp483
S'iters'
p484
I3
sS'meta'
p485
(lp486
(dp487
S'objective'
p488
I1
sS'query_time'
p489
F0.2436840534210205
sS'comp_time'
p490
F0.002753019332885742
sS'exec_cq'
p491
I5
sS'total_cq'
p492
I5
sa(dp493
g488
I4
sg489
F0.0002989768981933594
sg490
F0.0017518997192382812
sg491
I3
sg492
I3
sa(dp494
g488
I4
sg489
F3.0994415283203125e-05
sg490
F0.00010013580322265625
sg491
I2
sg492
I2
sasS'total_cqs'
p495
I5
ssI50
(dp496
S'iters'
p497
I4
sS'meta'
p498
(lp499
(dp500
S'objective'
p501
I5
sS'query_time'
p502
F0.8515028953552246
sS'comp_time'
p503
F0.0010209083557128906
sS'exec_cq'
p504
I5
sS'total_cq'
p505
I5
sa(dp506
g501
I2
sg502
F0.00012087821960449219
sg503
F0.0007159709930419922
sg504
I4
sg505
I4
sa(dp507
g501
I0
sg502
F8.20159912109375e-05
sg503
F0.00047588348388671875
sg504
I3
sg505
I3
sa(dp508
g501
I1
sg502
F8.106231689453125e-05
sg503
F0.00045299530029296875
sg504
I2
sg505
I2
sasS'total_cqs'
p509
I5
ssI51
(dp510
S'iters'
p511
I0
sS'meta'
p512
(lp513
sS'total_cqs'
p514
I1
ssI52
(dp515
S'iters'
p516
I0
sS'meta'
p517
(lp518
sS'total_cqs'
p519
I1
ssI53
(dp520
S'iters'
p521
I0
sS'meta'
p522
(lp523
sS'total_cqs'
p524
I1
ssI55
(dp525
S'iters'
p526
I1
sS'meta'
p527
(lp528
(dp529
S'objective'
p530
I1
sS'query_time'
p531
F26.423669815063477
sS'comp_time'
p532
F3.8011879920959473
sS'exec_cq'
p533
I2
sS'total_cq'
p534
I2
sasS'total_cqs'
p535
I2
ssI56
(dp536
S'iters'
p537
I0
sS'meta'
p538
(lp539
sS'total_cqs'
p540
I1
ssI57
(dp541
S'iters'
p542
I2
sS'meta'
p543
(lp544
(dp545
S'objective'
p546
I0
sS'query_time'
p547
F14.360021829605103
sS'comp_time'
p548
F1.4825220108032227
sS'exec_cq'
p549
I3
sS'total_cq'
p550
I3
sa(dp551
g546
I1
sg547
F0.35657691955566406
sg548
F1.3621151447296143
sg549
I2
sg550
I2
sasS'total_cqs'
p552
I3
ssI108
(dp553
S'iters'
p554
I0
sS'meta'
p555
(lp556
sS'total_cqs'
p557
I1
ssI109
(dp558
S'iters'
p559
I0
sS'meta'
p560
(lp561
sS'total_cqs'
p562
I1
ssI116
(dp563
S'iters'
p564
I3
sS'meta'
p565
(lp566
(dp567
S'objective'
p568
I179
sS'query_time'
p569
F5.148386001586914
sS'comp_time'
p570
F0.29027509689331055
sS'exec_cq'
p571
I21
sS'total_cq'
p572
I21
sa(dp573
g568
I4
sg569
F0.0012509822845458984
sg570
F0.004268169403076172
sg571
I3
sg572
I3
sa(dp574
g568
I9
sg569
F0.0006971359252929688
sg570
F0.0027840137481689453
sg571
I2
sg572
I2
sasS'total_cqs'
p575
I21
ssI117
(dp576
S'iters'
p577
I2
sS'meta'
p578
(lp579
(dp580
S'objective'
p581
I11
sS'query_time'
p582
F0.015578031539916992
sS'comp_time'
p583
F0.00010395050048828125
sS'exec_cq'
p584
I5
sS'total_cq'
p585
I5
sa(dp586
g581
I11
sg582
F2.5987625122070312e-05
sg583
F5.1021575927734375e-05
sg584
I4
sg585
I4
sasS'total_cqs'
p587
I5
ssI118
(dp588
S'iters'
p589
I0
sS'meta'
p590
(lp591
sS'total_cqs'
p592
I1
ssI122
(dp593
S'iters'
p594
I0
sS'meta'
p595
(lp596
sS'total_cqs'
p597
I1
ss.