(dp0
I1
(dp1
S'iters'
p2
I2
sS'meta'
p3
(lp4
(dp5
S'objective'
p6
I1
sS'query_time'
p7
F17.56147599220276
sS'comp_time'
p8
F1.2897729873657227
sS'exec_cq'
p9
I3
sS'total_cq'
p10
I6
sa(dp11
g6
I1
sg7
F0.25986504554748535
sg8
F1.313889980316162
sg9
I2
sg10
I2
sasS'total_cqs'
p12
I6
ssI2
(dp13
S'iters'
p14
I1
sS'meta'
p15
(lp16
(dp17
S'objective'
p18
I9
sS'query_time'
p19
F0.866400957107544
sS'comp_time'
p20
F0.25612401962280273
sS'exec_cq'
p21
I5
sS'total_cq'
p22
I6
sasS'total_cqs'
p23
I6
ssI3
(dp24
S'iters'
p25
I8
sS'meta'
p26
(lp27
(dp28
S'objective'
p29
I449
sS'query_time'
p30
F26.062949895858765
sS'comp_time'
p31
F0.4654572010040283
sS'exec_cq'
p32
I15
sS'total_cq'
p33
I33
sa(dp34
g29
I387
sg30
F0.2914621829986572
sg31
F0.0320591926574707
sg32
I13
sg33
I30
sa(dp35
g29
I336
sg30
F0.09763312339782715
sg31
F0.24522137641906738
sg32
I12
sg33
I27
sa(dp36
g29
I297
sg30
F0.004319906234741211
sg31
F0.031013965606689453
sg32
I10
sg33
I24
sa(dp37
g29
I238
sg30
F0.08575081825256348
sg31
F0.22990798950195312
sg32
I9
sg33
I21
sa(dp38
g29
I211
sg30
F0.0025968551635742188
sg31
F0.024381160736083984
sg32
I7
sg33
I18
sa(dp39
g29
I185
sg30
F0.08242011070251465
sg31
F0.19175195693969727
sg32
I6
sg33
I16
sa(dp40
g29
I152
sg30
F0.0025908946990966797
sg31
F0.024580001831054688
sg32
I5
sg33
I13
sasS'total_cqs'
p41
I33
ssI4
(dp42
S'iters'
p43
I0
sS'meta'
p44
(lp45
sS'total_cqs'
p46
I1
ssI5
(dp47
S'iters'
p48
I0
sS'meta'
p49
(lp50
sS'total_cqs'
p51
I1
ssI6
(dp52
S'iters'
p53
I2
sS'meta'
p54
(lp55
(dp56
S'objective'
p57
I1
sS'query_time'
p58
F15.232506036758423
sS'comp_time'
p59
F0.005352020263671875
sS'exec_cq'
p60
I4
sS'total_cq'
p61
I5
sa(dp62
g57
I3
sg58
F4.792213439941406e-05
sg59
F0.00045561790466308594
sg60
I1
sg61
I2
sasS'total_cqs'
p63
I5
ssI7
(dp64
S'iters'
p65
I0
sS'meta'
p66
(lp67
sS'total_cqs'
p68
I1
ssI8
(dp69
S'iters'
p70
I1
sS'meta'
p71
(lp72
(dp73
S'objective'
p74
I9
sS'query_time'
p75
F83.89623785018921
sS'comp_time'
p76
F0.8242878913879395
sS'exec_cq'
p77
I5
sS'total_cq'
p78
I6
sasS'total_cqs'
p79
I6
ssI9
(dp80
S'iters'
p81
I2
sS'meta'
p82
(lp83
(dp84
S'objective'
p85
I5
sS'query_time'
p86
F11.152714967727661
sS'comp_time'
p87
F0.707251787185669
sS'exec_cq'
p88
I3
sS'total_cq'
p89
I6
sa(dp90
g85
I4
sg86
F0.06332802772521973
sg87
F0.845801830291748
sg88
I2
sg89
I2
sasS'total_cqs'
p91
I6
ssI10
(dp92
S'iters'
p93
I0
sS'meta'
p94
(lp95
sS'total_cqs'
p96
I1
ssI11
(dp97
S'iters'
p98
I0
sS'meta'
p99
(lp100
sS'total_cqs'
p101
I1
ssI12
(dp102
S'iters'
p103
I0
sS'meta'
p104
(lp105
sS'total_cqs'
p106
I1
ssI13
(dp107
S'iters'
p108
I1
sS'meta'
p109
(lp110
(dp111
S'objective'
p112
I20
sS'query_time'
p113
F0.00767207145690918
sS'comp_time'
p114
F0.0005993843078613281
sS'exec_cq'
p115
I6
sS'total_cq'
p116
I8
sasS'total_cqs'
p117
I8
ssI14
(dp118
S'iters'
p119
I1
sS'meta'
p120
(lp121
(dp122
S'objective'
p123
I5
sS'query_time'
p124
F0.8594670295715332
sS'comp_time'
p125
F0.013733863830566406
sS'exec_cq'
p126
I5
sS'total_cq'
p127
I5
sasS'total_cqs'
p128
I5
ssI16
(dp129
S'iters'
p130
I2
sS'meta'
p131
(lp132
(dp133
S'objective'
p134
I1
sS'query_time'
p135
F1.3070769309997559
sS'comp_time'
p136
F0.013429880142211914
sS'exec_cq'
p137
I4
sS'total_cq'
p138
I5
sa(dp139
g134
I2
sg135
F0.0013380050659179688
sg136
F0.012399911880493164
sg137
I2
sg138
I2
sasS'total_cqs'
p140
I5
ssI17
(dp141
S'iters'
p142
I0
sS'meta'
p143
(lp144
sS'total_cqs'
p145
I1
ssI18
(dp146
S'iters'
p147
I3
sS'meta'
p148
(lp149
(dp150
S'objective'
p151
I1
sS'query_time'
p152
F0.14381098747253418
sS'comp_time'
p153
F0.0006062984466552734
sS'exec_cq'
p154
I4
sS'total_cq'
p155
I5
sa(dp156
g151
I4
sg152
F5.221366882324219e-05
sg153
F0.0002872943878173828
sg154
I2
sg155
I3
sa(dp157
g151
I4
sg152
F3.0994415283203125e-05
sg153
F0.0002639293670654297
sg154
I2
sg155
I2
sasS'total_cqs'
p158
I5
ssI19
(dp159
S'iters'
p160
I0
sS'meta'
p161
(lp162
sS'total_cqs'
p163
I1
ssI20
(dp164
S'iters'
p165
I6
sS'meta'
p166
(lp167
(dp168
S'objective'
p169
I56
sS'query_time'
p170
F9.43809986114502
sS'comp_time'
p171
F2.2584259510040283
sS'exec_cq'
p172
I6
sS'total_cq'
p173
I12
sa(dp174
g169
I45
sg170
F0.32976412773132324
sg171
F2.2807576656341553
sg172
I4
sg173
I10
sa(dp175
g169
I34
sg170
F4.08634614944458
sg171
F0.7285120487213135
sg172
I4
sg173
I8
sa(dp176
g169
I25
sg170
F0.2553229331970215
sg171
F1.5934467315673828
sg172
I2
sg173
I6
sa(dp177
g169
I33
sg170
F0.03625798225402832
sg171
F0.7701199054718018
sg172
I2
sg173
I5
sa(dp178
g169
I10
sg170
F0.13353800773620605
sg171
F0.008212804794311523
sg172
I1
sg173
I4
sasS'total_cqs'
p179
I12
ssI21
(dp180
S'iters'
p181
I5
sS'meta'
p182
(lp183
(dp184
S'objective'
p185
I59
sS'query_time'
p186
F94.09433388710022
sS'comp_time'
p187
F0.43701791763305664
sS'exec_cq'
p188
I8
sS'total_cq'
p189
I14
sa(dp190
g185
I12
sg186
F29.20285987854004
sg187
F2.442314863204956
sg188
I4
sg189
I10
sa(dp191
g185
I19
sg186
F0.009451150894165039
sg187
F0.2554647922515869
sg188
I4
sg189
I6
sa(dp192
g185
I17
sg186
F0.00799107551574707
sg187
F0.16608810424804688
sg188
I2
sg189
I4
sa(dp193
g185
I3
sg186
F0.008112192153930664
sg187
F0.0001556873321533203
sg188
I1
sg189
I3
sasS'total_cqs'
p194
I14
ssI22
(dp195
S'iters'
p196
I1
sS'meta'
p197
(lp198
(dp199
S'objective'
p200
I1
sS'query_time'
p201
F0.026546001434326172
sS'comp_time'
p202
F0.00029921531677246094
sS'exec_cq'
p203
I1
sS'total_cq'
p204
I2
sasS'total_cqs'
p205
I2
ssI23
(dp206
S'iters'
p207
I0
sS'meta'
p208
(lp209
sS'total_cqs'
p210
I1
ssI24
(dp211
S'iters'
p212
I0
sS'meta'
p213
(lp214
sS'total_cqs'
p215
I1
ssI25
(dp216
S'iters'
p217
I4
sS'meta'
p218
(lp219
(dp220
S'objective'
p221
I16
sS'query_time'
p222
F68.02389883995056
sS'comp_time'
p223
F6.806297063827515
sS'exec_cq'
p224
I4
sS'total_cq'
p225
I7
sa(dp226
g221
I6
sg222
F4.466843843460083
sg223
F0.8524532318115234
sg224
I2
sg225
I5
sa(dp227
g221
I6
sg222
F1.811981201171875e-05
sg223
F0.03469395637512207
sg224
I2
sg225
I3
sa(dp228
g221
I4
sg222
F1.1920928955078125e-05
sg223
F0.03450298309326172
sg224
I1
sg225
I2
sasS'total_cqs'
p229
I7
ssI26
(dp230
S'iters'
p231
I6
sS'meta'
p232
(lp233
(dp234
S'objective'
p235
I71
sS'query_time'
p236
F22.703544855117798
sS'comp_time'
p237
F0.011663198471069336
sS'exec_cq'
p238
I3
sS'total_cq'
p239
I13
sa(dp240
g235
I55
sg236
F0.1539919376373291
sg237
F0.273967981338501
sg238
I4
sg239
I12
sa(dp241
g235
I50
sg236
F0.0008831024169921875
sg237
F0.005017995834350586
sg238
I2
sg239
I10
sa(dp242
g235
I31
sg236
F3.6828689575195312
sg237
F0.03304624557495117
sg238
I2
sg239
I9
sa(dp243
g235
I19
sg236
F0.012192010879516602
sg237
F0.00019407272338867188
sg238
I2
sg239
I7
sa(dp244
g235
I6
sg236
F0.0010180473327636719
sg237
F7.581710815429688e-05
sg238
I1
sg239
I5
sasS'total_cqs'
p245
I13
ssI27
(dp246
S'iters'
p247
I1
sS'meta'
p248
(lp249
(dp250
S'objective'
p251
I1
sS'query_time'
p252
F0.1802668571472168
sS'comp_time'
p253
F0.009706735610961914
sS'exec_cq'
p254
I1
sS'total_cq'
p255
I2
sasS'total_cqs'
p256
I2
ssI28
(dp257
S'iters'
p258
I2
sS'meta'
p259
(lp260
(dp261
S'objective'
p262
I63
sS'query_time'
p263
F1.355341911315918
sS'comp_time'
p264
F0.0519258975982666
sS'exec_cq'
p265
I6
sS'total_cq'
p266
I14
sa(dp267
g262
I56
sg263
F0.001920938491821289
sg264
F0.0001571178436279297
sg265
I1
sg266
I11
sasS'total_cqs'
p268
I14
ssI29
(dp269
S'iters'
p270
I1
sS'meta'
p271
(lp272
(dp273
S'objective'
p274
I1
sS'query_time'
p275
F0.014070987701416016
sS'comp_time'
p276
F0.0003619194030761719
sS'exec_cq'
p277
I2
sS'total_cq'
p278
I2
sasS'total_cqs'
p279
I2
ssI30
(dp280
S'iters'
p281
I1
sS'meta'
p282
(lp283
(dp284
S'objective'
p285
I1
sS'query_time'
p286
F0.296248197555542
sS'comp_time'
p287
F0.0052797794342041016
sS'exec_cq'
p288
I2
sS'total_cq'
p289
I2
sasS'total_cqs'
p290
I2
ssI31
(dp291
S'iters'
p292
I2
sS'meta'
p293
(lp294
(dp295
S'objective'
p296
I11
sS'query_time'
p297
F1.5747320652008057
sS'comp_time'
p298
F0.08031606674194336
sS'exec_cq'
p299
I5
sS'total_cq'
p300
I9
sa(dp301
g296
I1
sg297
F0.07592511177062988
sg298
F0.07014203071594238
sg299
I3
sg300
I3
sasS'total_cqs'
p302
I9
ssI32
(dp303
S'iters'
p304
I2
sS'meta'
p305
(lp306
(dp307
S'objective'
p308
I4
sS'query_time'
p309
F20.90061902999878
sS'comp_time'
p310
F6.535006761550903
sS'exec_cq'
p311
I4
sS'total_cq'
p312
I7
sa(dp313
g308
I2
sg309
F0.0823051929473877
sg310
F0.0032362937927246094
sg311
I1
sg312
I4
sasS'total_cqs'
p314
I7
ssI33
(dp315
S'iters'
p316
I1
sS'meta'
p317
(lp318
(dp319
S'objective'
p320
I1
sS'query_time'
p321
F0.025571107864379883
sS'comp_time'
p322
F0.0003056526184082031
sS'exec_cq'
p323
I2
sS'total_cq'
p324
I2
sasS'total_cqs'
p325
I2
ssI34
(dp326
S'iters'
p327
I0
sS'meta'
p328
(lp329
sS'total_cqs'
p330
I1
ssI35
(dp331
S'iters'
p332
I2
sS'meta'
p333
(lp334
(dp335
S'objective'
p336
I1
sS'query_time'
p337
F13.447350978851318
sS'comp_time'
p338
F0.4407837390899658
sS'exec_cq'
p339
I4
sS'total_cq'
p340
I5
sa(dp341
g336
I3
sg337
F0.012063980102539062
sg338
F0.17699813842773438
sg339
I2
sg340
I2
sasS'total_cqs'
p342
I5
ssI37
(dp343
S'iters'
p344
I2
sS'meta'
p345
(lp346
(dp347
S'objective'
p348
I17
sS'query_time'
p349
F0.5433721542358398
sS'comp_time'
p350
F0.03291511535644531
sS'exec_cq'
p351
I4
sS'total_cq'
p352
I10
sa(dp353
g348
I1
sg349
F0.003532886505126953
sg350
F0.0279541015625
sg351
I2
sg352
I2
sasS'total_cqs'
p354
I10
ssI38
(dp355
S'iters'
p356
I0
sS'meta'
p357
(lp358
sS'total_cqs'
p359
I1
ssI39
(dp360
S'iters'
p361
I0
sS'meta'
p362
(lp363
sS'total_cqs'
p364
I1
ssI40
(dp365
S'iters'
p366
I1
sS'meta'
p367
(lp368
(dp369
S'objective'
p370
I1
sS'query_time'
p371
F0.011872053146362305
sS'comp_time'
p372
F0.0001628398895263672
sS'exec_cq'
p373
I1
sS'total_cq'
p374
I2
sasS'total_cqs'
p375
I2
ssI41
(dp376
S'iters'
p377
I2
sS'meta'
p378
(lp379
(dp380
S'objective'
p381
I1
sS'query_time'
p382
F0.919152021408081
sS'comp_time'
p383
F0.009440898895263672
sS'exec_cq'
p384
I2
sS'total_cq'
p385
I6
sa(dp386
g381
I1
sg382
F0.0009181499481201172
sg383
F0.00857400894165039
sg384
I2
sg385
I2
sasS'total_cqs'
p387
I6
ssI42
(dp388
S'iters'
p389
I1
sS'meta'
p390
(lp391
(dp392
S'objective'
p393
I1
sS'query_time'
p394
F0.008960962295532227
sS'comp_time'
p395
F0.0003077983856201172
sS'exec_cq'
p396
I1
sS'total_cq'
p397
I2
sasS'total_cqs'
p398
I2
ssI43
(dp399
S'iters'
p400
I0
sS'meta'
p401
(lp402
sS'total_cqs'
p403
I1
ssI44
(dp404
S'iters'
p405
I2
sS'meta'
p406
(lp407
(dp408
S'objective'
p409
I7
sS'query_time'
p410
F1.401292085647583
sS'comp_time'
p411
F0.245574951171875
sS'exec_cq'
p412
I2
sS'total_cq'
p413
I5
sa(dp414
g409
I1
sg410
F0.0020368099212646484
sg411
F9.608268737792969e-05
sg412
I1
sg413
I4
sasS'total_cqs'
p415
I5
ssI45
(dp416
S'iters'
p417
I2
sS'meta'
p418
(lp419
(dp420
S'objective'
p421
I1
sS'query_time'
p422
F0.0339818000793457
sS'comp_time'
p423
F0.0017018318176269531
sS'exec_cq'
p424
I3
sS'total_cq'
p425
I5
sa(dp426
g421
I2
sg422
F0.0001690387725830078
sg423
F0.0025870800018310547
sg424
I2
sg425
I2
sasS'total_cqs'
p427
I5
ssI46
(dp428
S'iters'
p429
I0
sS'meta'
p430
(lp431
sS'total_cqs'
p432
I1
ssI47
(dp433
S'iters'
p434
I0
sS'meta'
p435
(lp436
sS'total_cqs'
p437
I1
ssI48
(dp438
S'iters'
p439
I1
sS'meta'
p440
(lp441
(dp442
S'objective'
p443
I1
sS'query_time'
p444
F0.11215400695800781
sS'comp_time'
p445
F0.005998134613037109
sS'exec_cq'
p446
I2
sS'total_cq'
p447
I2
sasS'total_cqs'
p448
I2
ssI49
(dp449
S'iters'
p450
I2
sS'meta'
p451
(lp452
(dp453
S'objective'
p454
I1
sS'query_time'
p455
F0.21607303619384766
sS'comp_time'
p456
F0.005876064300537109
sS'exec_cq'
p457
I4
sS'total_cq'
p458
I5
sa(dp459
g454
I2
sg455
F0.00032401084899902344
sg456
F0.0031042098999023438
sg457
I2
sg458
I2
sasS'total_cqs'
p460
I5
ssI50
(dp461
S'iters'
p462
I1
sS'meta'
p463
(lp464
(dp465
S'objective'
p466
I5
sS'query_time'
p467
F0.6424369812011719
sS'comp_time'
p468
F0.0024001598358154297
sS'exec_cq'
p469
I5
sS'total_cq'
p470
I5
sasS'total_cqs'
p471
I5
ssI51
(dp472
S'iters'
p473
I0
sS'meta'
p474
(lp475
sS'total_cqs'
p476
I1
ssI52
(dp477
S'iters'
p478
I0
sS'meta'
p479
(lp480
sS'total_cqs'
p481
I1
ssI53
(dp482
S'iters'
p483
I0
sS'meta'
p484
(lp485
sS'total_cqs'
p486
I1
ssI55
(dp487
S'iters'
p488
I1
sS'meta'
p489
(lp490
(dp491
S'objective'
p492
I1
sS'query_time'
p493
F24.174547910690308
sS'comp_time'
p494
F0.08372092247009277
sS'exec_cq'
p495
I2
sS'total_cq'
p496
I2
sasS'total_cqs'
p497
I2
ssI56
(dp498
S'iters'
p499
I0
sS'meta'
p500
(lp501
sS'total_cqs'
p502
I1
ssI57
(dp503
S'iters'
p504
I1
sS'meta'
p505
(lp506
(dp507
S'objective'
p508
I0
sS'query_time'
p509
F12.961015939712524
sS'comp_time'
p510
F3.5705740451812744
sS'exec_cq'
p511
I2
sS'total_cq'
p512
I3
sasS'total_cqs'
p513
I3
ssI108
(dp514
S'iters'
p515
I0
sS'meta'
p516
(lp517
sS'total_cqs'
p518
I1
ssI109
(dp519
S'iters'
p520
I0
sS'meta'
p521
(lp522
sS'total_cqs'
p523
I1
ssI116
(dp524
S'iters'
p525
I3
sS'meta'
p526
(lp527
(dp528
S'objective'
p529
I161
sS'query_time'
p530
F3.5919158458709717
sS'comp_time'
p531
F0.7098720073699951
sS'exec_cq'
p532
I15
sS'total_cq'
p533
I21
sa(dp534
g529
I146
sg530
F0.510986328125
sg531
F0.005961179733276367
sg532
I14
sg533
I19
sa(dp535
g529
I17
sg530
F0.0006740093231201172
sg531
F0.005043983459472656
sg532
I2
sg533
I2
sasS'total_cqs'
p536
I21
ssI117
(dp537
S'iters'
p538
I2
sS'meta'
p539
(lp540
(dp541
S'objective'
p542
I7
sS'query_time'
p543
F0.0050201416015625
sS'comp_time'
p544
F0.0001308917999267578
sS'exec_cq'
p545
I3
sS'total_cq'
p546
I5
sa(dp547
g542
I1
sg543
F0.0011229515075683594
sg544
F8.487701416015625e-05
sg545
I1
sg546
I4
sasS'total_cqs'
p548
I5
ssI118
(dp549
S'iters'
p550
I0
sS'meta'
p551
(lp552
sS'total_cqs'
p553
I1
ssI122
(dp554
S'iters'
p555
I0
sS'meta'
p556
(lp557
sS'total_cqs'
p558
I1
ss.