(dp0
I1
(dp1
S'iters'
p2
I4
sS'meta'
p3
(lp4
(dp5
S'objective'
p6
I9
sS'query_time'
p7
F24.87343406677246
sS'comp_time'
p8
F0.00013709068298339844
sS'exec_cq'
p9
I1
sS'total_cq'
p10
I6
sa(dp11
g6
I5
sg7
F0.0051500797271728516
sg8
F4.1961669921875e-05
sg9
I1
sg10
I5
sa(dp12
g6
I2
sg7
F4.5655999183654785
sg8
F7.295608520507812e-05
sg9
I1
sg10
I4
sa(dp13
g6
I2
sg7
F45.11521100997925
sg8
F5.1021575927734375e-05
sg9
I1
sg10
I2
sasS'total_cqs'
p14
I6
ssI2
(dp15
S'iters'
p16
I1
sS'meta'
p17
(lp18
(dp19
S'objective'
p20
I13
sS'query_time'
p21
F0.7173628807067871
sS'comp_time'
p22
F8.106231689453125e-05
sS'exec_cq'
p23
I3
sS'total_cq'
p24
I6
sasS'total_cqs'
p25
I6
ssI3
(dp26
S'iters'
p27
I12
sS'meta'
p28
(lp29
(dp30
S'objective'
p31
I489
sS'query_time'
p32
F0.12224483489990234
sS'comp_time'
p33
F6.604194641113281e-05
sS'exec_cq'
p34
I1
sS'total_cq'
p35
I33
sa(dp36
g31
I403
sg32
F0.7390902042388916
sg33
F0.000102996826171875
sg34
I1
sg35
I31
sa(dp37
g31
I358
sg32
F0.015360116958618164
sg33
F5.698204040527344e-05
sg34
I1
sg35
I28
sa(dp38
g31
I267
sg32
F0.03397011756896973
sg33
F4.887580871582031e-05
sg34
I1
sg35
I25
sa(dp39
g31
I283
sg32
F0.0046160221099853516
sg33
F4.792213439941406e-05
sg34
I1
sg35
I22
sa(dp40
g31
I257
sg32
F0.04028606414794922
sg33
F8.416175842285156e-05
sg34
I1
sg35
I21
sa(dp41
g31
I180
sg32
F0.012857913970947266
sg33
F4.601478576660156e-05
sg34
I1
sg35
I20
sa(dp42
g31
I120
sg32
F1.3802268505096436
sg33
F8.702278137207031e-05
sg34
I1
sg35
I17
sa(dp43
g31
I128
sg32
F0.007583141326904297
sg33
F4.38690185546875e-05
sg34
I1
sg35
I14
sa(dp44
g31
I94
sg32
F0.010656118392944336
sg33
F3.814697265625e-05
sg34
I1
sg35
I13
sa(dp45
g31
I81
sg32
F0.005780935287475586
sg33
F3.790855407714844e-05
sg34
I1
sg35
I11
sa(dp46
g31
I66
sg32
F0.22806096076965332
sg33
F8.20159912109375e-05
sg34
I1
sg35
I9
sasS'total_cqs'
p47
I33
ssI4
(dp48
S'iters'
p49
I0
sS'meta'
p50
(lp51
sS'total_cqs'
p52
I1
ssI5
(dp53
S'iters'
p54
I0
sS'meta'
p55
(lp56
sS'total_cqs'
p57
I1
ssI6
(dp58
S'iters'
p59
I2
sS'meta'
p60
(lp61
(dp62
S'objective'
p63
I1
sS'query_time'
p64
F10.964827060699463
sS'comp_time'
p65
F6.914138793945312e-05
sS'exec_cq'
p66
I1
sS'total_cq'
p67
I5
sa(dp68
g63
I1
sg64
F0.009930849075317383
sg65
F4.9114227294921875e-05
sg66
I1
sg67
I2
sasS'total_cqs'
p69
I5
ssI7
(dp70
S'iters'
p71
I0
sS'meta'
p72
(lp73
sS'total_cqs'
p74
I1
ssI8
(dp75
S'iters'
p76
I3
sS'meta'
p77
(lp78
(dp79
S'objective'
p80
I3
sS'query_time'
p81
F20.222867965698242
sS'comp_time'
p82
F0.00010395050048828125
sS'exec_cq'
p83
I1
sS'total_cq'
p84
I6
sa(dp85
g80
I2
sg81
F41.84460186958313
sg82
F7.390975952148438e-05
sg83
I1
sg84
I4
sa(dp86
g80
I1
sg81
F29.19628095626831
sg82
F0.00021696090698242188
sg83
I1
sg84
I3
sasS'total_cqs'
p87
I6
ssI9
(dp88
S'iters'
p89
I3
sS'meta'
p90
(lp91
(dp92
S'objective'
p93
I9
sS'query_time'
p94
F22.506603002548218
sS'comp_time'
p95
F0.02350306510925293
sS'exec_cq'
p96
I1
sS'total_cq'
p97
I6
sa(dp98
g93
I1
sg94
F0.8370740413665771
sg95
F4.8160552978515625e-05
sg96
I1
sg97
I5
sa(dp99
g93
I0
sg94
F0.5910499095916748
sg95
F7.200241088867188e-05
sg96
I1
sg97
I3
sasS'total_cqs'
p100
I6
ssI10
(dp101
S'iters'
p102
I0
sS'meta'
p103
(lp104
sS'total_cqs'
p105
I1
ssI11
(dp106
S'iters'
p107
I0
sS'meta'
p108
(lp109
sS'total_cqs'
p110
I1
ssI12
(dp111
S'iters'
p112
I0
sS'meta'
p113
(lp114
sS'total_cqs'
p115
I1
ssI13
(dp116
S'iters'
p117
I2
sS'meta'
p118
(lp119
(dp120
S'objective'
p121
I24
sS'query_time'
p122
F8.581187963485718
sS'comp_time'
p123
F6.318092346191406e-05
sS'exec_cq'
p124
I3
sS'total_cq'
p125
I8
sa(dp126
g121
I20
sg122
F0.1313469409942627
sg123
F4.482269287109375e-05
sg124
I3
sg125
I7
sasS'total_cqs'
p127
I8
ssI14
(dp128
S'iters'
p129
I1
sS'meta'
p130
(lp131
(dp132
S'objective'
p133
I7
sS'query_time'
p134
F0.9916150569915771
sS'comp_time'
p135
F7.295608520507812e-05
sS'exec_cq'
p136
I2
sS'total_cq'
p137
I5
sasS'total_cqs'
p138
I5
ssI16
(dp139
S'iters'
p140
I2
sS'meta'
p141
(lp142
(dp143
S'objective'
p144
I3
sS'query_time'
p145
F3.8988850116729736
sS'comp_time'
p146
F7.796287536621094e-05
sS'exec_cq'
p147
I2
sS'total_cq'
p148
I5
sa(dp149
g144
I2
sg145
F99.5578339099884
sg146
F6.079673767089844e-05
sg147
I2
sg148
I2
sasS'total_cqs'
p150
I5
ssI17
(dp151
S'iters'
p152
I0
sS'meta'
p153
(lp154
sS'total_cqs'
p155
I1
ssI18
(dp156
S'iters'
p157
I2
sS'meta'
p158
(lp159
(dp160
S'objective'
p161
I1
sS'query_time'
p162
F2.2304060459136963
sS'comp_time'
p163
F6.4849853515625e-05
sS'exec_cq'
p164
I1
sS'total_cq'
p165
I5
sa(dp166
g161
I1
sg162
F0.02193593978881836
sg163
F5.221366882324219e-05
sg164
I1
sg165
I3
sasS'total_cqs'
p167
I5
ssI19
(dp168
S'iters'
p169
I0
sS'meta'
p170
(lp171
sS'total_cqs'
p172
I1
ssI20
(dp173
S'iters'
p174
I4
sS'meta'
p175
(lp176
(dp177
S'objective'
p178
I54
sS'query_time'
p179
F1.305901050567627
sS'comp_time'
p180
F8.606910705566406e-05
sS'exec_cq'
p181
I1
sS'total_cq'
p182
I12
sa(dp183
g178
I46
sg179
F4.924821853637695
sg180
F0.00029015541076660156
sg181
I2
sg182
I11
sa(dp184
g178
I40
sg179
F0.8620181083679199
sg180
F8.20159912109375e-05
sg181
I3
sg182
I10
sa(dp185
g178
I34
sg179
F0.10468292236328125
sg180
F7.700920104980469e-05
sg181
I3
sg182
I9
sasS'total_cqs'
p186
I12
ssI21
(dp187
S'iters'
p188
I6
sS'meta'
p189
(lp190
(dp191
S'objective'
p192
I57
sS'query_time'
p193
F0.8214051723480225
sS'comp_time'
p194
F8.392333984375e-05
sS'exec_cq'
p195
I1
sS'total_cq'
p196
I14
sa(dp197
g192
I55
sg193
F24.69135093688965
sg194
F0.00023698806762695312
sg195
I1
sg196
I12
sa(dp198
g192
I44
sg193
F25.78623104095459
sg194
F0.00016307830810546875
sg195
I1
sg196
I11
sa(dp199
g192
I34
sg193
F0.1259629726409912
sg194
F7.295608520507812e-05
sg195
I1
sg196
I10
sa(dp200
g192
I21
sg193
F9.96943211555481
sg194
F0.0001239776611328125
sg195
I1
sg196
I9
sa(dp201
g192
I17
sg193
F0.014358997344970703
sg194
F4.506111145019531e-05
sg195
I1
sg196
I7
sasS'total_cqs'
p202
I14
ssI22
(dp203
S'iters'
p204
I1
sS'meta'
p205
(lp206
(dp207
S'objective'
p208
I1
sS'query_time'
p209
F0.004934072494506836
sS'comp_time'
p210
F5.888938903808594e-05
sS'exec_cq'
p211
I1
sS'total_cq'
p212
I2
sasS'total_cqs'
p213
I2
ssI23
(dp214
S'iters'
p215
I0
sS'meta'
p216
(lp217
sS'total_cqs'
p218
I1
ssI24
(dp219
S'iters'
p220
I0
sS'meta'
p221
(lp222
sS'total_cqs'
p223
I1
ssI25
(dp224
S'iters'
p225
I3
sS'meta'
p226
(lp227
(dp228
S'objective'
p229
I14
sS'query_time'
p230
F11.203577041625977
sS'comp_time'
p231
F0.0005400180816650391
sS'exec_cq'
p232
I1
sS'total_cq'
p233
I7
sa(dp234
g229
I9
sg230
F25.741496801376343
sg231
F0.0001628398895263672
sg232
I1
sg233
I6
sa(dp235
g229
I5
sg230
F0.17017292976379395
sg231
F0.00010991096496582031
sg232
I1
sg233
I5
sasS'total_cqs'
p236
I7
ssI26
(dp237
S'iters'
p238
I6
sS'meta'
p239
(lp240
(dp241
S'objective'
p242
I65
sS'query_time'
p243
F0.040368080139160156
sS'comp_time'
p244
F8.0108642578125e-05
sS'exec_cq'
p245
I1
sS'total_cq'
p246
I13
sa(dp247
g242
I54
sg243
F0.0375518798828125
sg244
F5.698204040527344e-05
sg245
I1
sg246
I12
sa(dp248
g242
I44
sg243
F0.04285097122192383
sg244
F6.580352783203125e-05
sg245
I1
sg246
I11
sa(dp249
g242
I35
sg243
F0.03843379020690918
sg244
F7.390975952148438e-05
sg245
I1
sg246
I10
sa(dp250
g242
I17
sg243
F0.5863339900970459
sg244
F5.1975250244140625e-05
sg245
I1
sg246
I9
sa(dp251
g242
I15
sg243
F0.006610870361328125
sg244
F4.601478576660156e-05
sg245
I1
sg246
I7
sasS'total_cqs'
p252
I13
ssI27
(dp253
S'iters'
p254
I1
sS'meta'
p255
(lp256
(dp257
S'objective'
p258
I1
sS'query_time'
p259
F0.1492469310760498
sS'comp_time'
p260
F4.792213439941406e-05
sS'exec_cq'
p261
I1
sS'total_cq'
p262
I2
sasS'total_cqs'
p263
I2
ssI28
(dp264
S'iters'
p265
I7
sS'meta'
p266
(lp267
(dp268
S'objective'
p269
I77
sS'query_time'
p270
F1.4914460182189941
sS'comp_time'
p271
F5.316734313964844e-05
sS'exec_cq'
p272
I1
sS'total_cq'
p273
I14
sa(dp274
g269
I65
sg270
F1.2030911445617676
sg271
F4.601478576660156e-05
sg272
I1
sg273
I13
sa(dp275
g269
I54
sg270
F1.033229112625122
sg271
F5.2928924560546875e-05
sg272
I1
sg273
I12
sa(dp276
g269
I32
sg270
F1.1456129550933838
sg271
F3.910064697265625e-05
sg272
I1
sg273
I11
sa(dp277
g269
I1
sg270
F0.7887859344482422
sg271
F4.291534423828125e-05
sg272
I1
sg273
I8
sa(dp278
g269
I7
sg270
F0.238739013671875
sg271
F4.291534423828125e-05
sg272
I1
sg273
I4
sa(dp279
g269
I0
sg270
F0.1706249713897705
sg271
F3.314018249511719e-05
sg272
I1
sg273
I3
sasS'total_cqs'
p280
I14
ssI29
(dp281
S'iters'
p282
I1
sS'meta'
p283
(lp284
(dp285
S'objective'
p286
I1
sS'query_time'
p287
F0.009604930877685547
sS'comp_time'
p288
F5.0067901611328125e-05
sS'exec_cq'
p289
I1
sS'total_cq'
p290
I2
sasS'total_cqs'
p291
I2
ssI30
(dp292
S'iters'
p293
I1
sS'meta'
p294
(lp295
(dp296
S'objective'
p297
I1
sS'query_time'
p298
F0.39748311042785645
sS'comp_time'
p299
F7.796287536621094e-05
sS'exec_cq'
p300
I1
sS'total_cq'
p301
I2
sasS'total_cqs'
p302
I2
ssI31
(dp303
S'iters'
p304
I4
sS'meta'
p305
(lp306
(dp307
S'objective'
p308
I27
sS'query_time'
p309
F0.20783209800720215
sS'comp_time'
p310
F4.696846008300781e-05
sS'exec_cq'
p311
I1
sS'total_cq'
p312
I9
sa(dp313
g308
I20
sg309
F0.00669407844543457
sg310
F4.506111145019531e-05
sg311
I1
sg312
I8
sa(dp314
g308
I4
sg309
F0.5453779697418213
sg310
F3.910064697265625e-05
sg311
I1
sg312
I7
sa(dp315
g308
I4
sg309
F0.5013890266418457
sg310
F8.511543273925781e-05
sg311
I1
sg312
I5
sasS'total_cqs'
p316
I9
ssI32
(dp317
S'iters'
p318
I3
sS'meta'
p319
(lp320
(dp321
S'objective'
p322
I14
sS'query_time'
p323
F7.025359869003296
sS'comp_time'
p324
F0.00014901161193847656
sS'exec_cq'
p325
I1
sS'total_cq'
p326
I7
sa(dp327
g322
I3
sg323
F3.4963250160217285
sg324
F6.413459777832031e-05
sg325
I1
sg326
I6
sa(dp328
g322
I2
sg323
F0.08873295783996582
sg324
F7.390975952148438e-05
sg325
I1
sg326
I4
sasS'total_cqs'
p329
I7
ssI33
(dp330
S'iters'
p331
I1
sS'meta'
p332
(lp333
(dp334
S'objective'
p335
I1
sS'query_time'
p336
F0.03950619697570801
sS'comp_time'
p337
F6.389617919921875e-05
sS'exec_cq'
p338
I1
sS'total_cq'
p339
I2
sasS'total_cqs'
p340
I2
ssI34
(dp341
S'iters'
p342
I0
sS'meta'
p343
(lp344
sS'total_cqs'
p345
I1
ssI35
(dp346
S'iters'
p347
I3
sS'meta'
p348
(lp349
(dp350
S'objective'
p351
I5
sS'query_time'
p352
F9.505554914474487
sS'comp_time'
p353
F8.20159912109375e-05
sS'exec_cq'
p354
I1
sS'total_cq'
p355
I5
sa(dp356
g351
I2
sg352
F1.3266420364379883
sg353
F7.390975952148438e-05
sg354
I1
sg355
I4
sa(dp357
g351
I2
sg352
F0.07685089111328125
sg353
F3.0040740966796875e-05
sg354
I1
sg355
I2
sasS'total_cqs'
p358
I5
ssI37
(dp359
S'iters'
p360
I4
sS'meta'
p361
(lp362
(dp363
S'objective'
p364
I35
sS'query_time'
p365
F0.8163290023803711
sS'comp_time'
p366
F8.177757263183594e-05
sS'exec_cq'
p367
I1
sS'total_cq'
p368
I10
sa(dp369
g364
I27
sg365
F0.0069580078125
sg366
F5.1021575927734375e-05
sg367
I1
sg368
I9
sa(dp370
g364
I22
sg365
F0.006042003631591797
sg366
F5.1021575927734375e-05
sg367
I2
sg368
I8
sa(dp371
g364
I17
sg365
F0.396212100982666
sg366
F7.605552673339844e-05
sg367
I2
sg368
I7
sasS'total_cqs'
p372
I10
ssI38
(dp373
S'iters'
p374
I0
sS'meta'
p375
(lp376
sS'total_cqs'
p377
I1
ssI39
(dp378
S'iters'
p379
I0
sS'meta'
p380
(lp381
sS'total_cqs'
p382
I1
ssI40
(dp383
S'iters'
p384
I1
sS'meta'
p385
(lp386
(dp387
S'objective'
p388
I1
sS'query_time'
p389
F16.913026809692383
sS'comp_time'
p390
F0.0001850128173828125
sS'exec_cq'
p391
I2
sS'total_cq'
p392
I2
sasS'total_cqs'
p393
I2
ssI41
(dp394
S'iters'
p395
I3
sS'meta'
p396
(lp397
(dp398
S'objective'
p399
I9
sS'query_time'
p400
F1.4967031478881836
sS'comp_time'
p401
F7.009506225585938e-05
sS'exec_cq'
p402
I1
sS'total_cq'
p403
I6
sa(dp404
g399
I5
sg400
F0.2861039638519287
sg401
F8.893013000488281e-05
sg402
I1
sg403
I5
sa(dp405
g399
I2
sg400
F0.08477282524108887
sg401
F7.200241088867188e-05
sg402
I1
sg403
I4
sasS'total_cqs'
p406
I6
ssI42
(dp407
S'iters'
p408
I1
sS'meta'
p409
(lp410
(dp411
S'objective'
p412
I1
sS'query_time'
p413
F0.012328863143920898
sS'comp_time'
p414
F5.2928924560546875e-05
sS'exec_cq'
p415
I1
sS'total_cq'
p416
I2
sasS'total_cqs'
p417
I2
ssI43
(dp418
S'iters'
p419
I0
sS'meta'
p420
(lp421
sS'total_cqs'
p422
I1
ssI44
(dp423
S'iters'
p424
I2
sS'meta'
p425
(lp426
(dp427
S'objective'
p428
I5
sS'query_time'
p429
F0.9533970355987549
sS'comp_time'
p430
F7.987022399902344e-05
sS'exec_cq'
p431
I1
sS'total_cq'
p432
I5
sa(dp433
g428
I2
sg429
F0.004801034927368164
sg430
F4.291534423828125e-05
sg431
I1
sg432
I4
sasS'total_cqs'
p434
I5
ssI45
(dp435
S'iters'
p436
I2
sS'meta'
p437
(lp438
(dp439
S'objective'
p440
I3
sS'query_time'
p441
F0.046443939208984375
sS'comp_time'
p442
F5.793571472167969e-05
sS'exec_cq'
p443
I2
sS'total_cq'
p444
I5
sa(dp445
g440
I2
sg441
F0.7296371459960938
sg442
F8.082389831542969e-05
sg443
I2
sg444
I2
sasS'total_cqs'
p446
I5
ssI46
(dp447
S'iters'
p448
I0
sS'meta'
p449
(lp450
sS'total_cqs'
p451
I1
ssI47
(dp452
S'iters'
p453
I0
sS'meta'
p454
(lp455
sS'total_cqs'
p456
I1
ssI48
(dp457
S'iters'
p458
I1
sS'meta'
p459
(lp460
(dp461
S'objective'
p462
I1
sS'query_time'
p463
F0.17618298530578613
sS'comp_time'
p464
F6.794929504394531e-05
sS'exec_cq'
p465
I1
sS'total_cq'
p466
I2
sasS'total_cqs'
p467
I2
ssI49
(dp468
S'iters'
p469
I2
sS'meta'
p470
(lp471
(dp472
S'objective'
p473
I1
sS'query_time'
p474
F0.0829610824584961
sS'comp_time'
p475
F7.200241088867188e-05
sS'exec_cq'
p476
I2
sS'total_cq'
p477
I5
sa(dp478
g473
I1
sg474
F0.10501599311828613
sg475
F3.695487976074219e-05
sg476
I1
sg477
I2
sasS'total_cqs'
p479
I5
ssI50
(dp480
S'iters'
p481
I2
sS'meta'
p482
(lp483
(dp484
S'objective'
p485
I5
sS'query_time'
p486
F0.024693965911865234
sS'comp_time'
p487
F7.390975952148438e-05
sS'exec_cq'
p488
I1
sS'total_cq'
p489
I5
sa(dp490
g485
I2
sg486
F0.8603801727294922
sg487
F9.489059448242188e-05
sg488
I1
sg489
I4
sasS'total_cqs'
p491
I5
ssI51
(dp492
S'iters'
p493
I0
sS'meta'
p494
(lp495
sS'total_cqs'
p496
I1
ssI52
(dp497
S'iters'
p498
I0
sS'meta'
p499
(lp500
sS'total_cqs'
p501
I1
ssI53
(dp502
S'iters'
p503
I0
sS'meta'
p504
(lp505
sS'total_cqs'
p506
I1
ssI55
(dp507
S'iters'
p508
I1
sS'meta'
p509
(lp510
(dp511
S'objective'
p512
I1
sS'query_time'
p513
F20.089462995529175
sS'comp_time'
p514
F5.817413330078125e-05
sS'exec_cq'
p515
I1
sS'total_cq'
p516
I2
sasS'total_cqs'
p517
I2
ssI56
(dp518
S'iters'
p519
I0
sS'meta'
p520
(lp521
sS'total_cqs'
p522
I1
ssI57
(dp523
S'iters'
p524
I1
sS'meta'
p525
(lp526
(dp527
S'objective'
p528
I0
sS'query_time'
p529
F11.464061975479126
sS'comp_time'
p530
F0.00015687942504882812
sS'exec_cq'
p531
I1
sS'total_cq'
p532
I3
sasS'total_cqs'
p533
I3
ssI108
(dp534
S'iters'
p535
I0
sS'meta'
p536
(lp537
sS'total_cqs'
p538
I1
ssI109
(dp539
S'iters'
p540
I0
sS'meta'
p541
(lp542
sS'total_cqs'
p543
I1
ssI116
(dp544
S'iters'
p545
I5
sS'meta'
p546
(lp547
(dp548
S'objective'
p549
I191
sS'query_time'
p550
F0.18870115280151367
sS'comp_time'
p551
F5.91278076171875e-05
sS'exec_cq'
p552
I2
sS'total_cq'
p553
I21
sa(dp554
g549
I181
sg550
F1.0653071403503418
sg551
F9.202957153320312e-05
sg552
I6
sg553
I20
sa(dp555
g549
I168
sg550
F3.527400016784668
sg551
F0.0006668567657470703
sg552
I6
sg553
I19
sa(dp556
g549
I154
sg550
F3.3276259899139404
sg551
F0.000102996826171875
sg552
I7
sg553
I18
sa(dp557
g549
I10
sg550
F3.631275177001953
sg551
F2.9087066650390625e-05
sg552
I1
sg553
I2
sasS'total_cqs'
p558
I21
ssI117
(dp559
S'iters'
p560
I2
sS'meta'
p561
(lp562
(dp563
S'objective'
p564
I5
sS'query_time'
p565
F0.005997896194458008
sS'comp_time'
p566
F4.1961669921875e-05
sS'exec_cq'
p567
I1
sS'total_cq'
p568
I5
sa(dp569
g564
I2
sg565
F0.00333404541015625
sg566
F3.504753112792969e-05
sg567
I1
sg568
I4
sasS'total_cqs'
p570
I5
ssI118
(dp571
S'iters'
p572
I0
sS'meta'
p573
(lp574
sS'total_cqs'
p575
I1
ssI122
(dp576
S'iters'
p577
I0
sS'meta'
p578
(lp579
sS'total_cqs'
p580
I1
ss.