(dp0
I1
(dp1
S'iters'
p2
I3
sS'meta'
p3
(lp4
(dp5
S'objective'
p6
I3
sS'query_time'
p7
F15.186074018478394
sS'comp_time'
p8
F0.36740922927856445
sS'exec_cq'
p9
I3
sS'total_cq'
p10
I6
sa(dp11
g6
I0
sg7
F30.86975598335266
sg8
F0.8218541145324707
sg9
I2
sg10
I4
sa(dp12
g6
I0
sg7
F0.010376930236816406
sg8
F0.10354280471801758
sg9
I1
sg10
I3
sasS'total_cqs'
p13
I6
ssI2
(dp14
S'iters'
p15
I1
sS'meta'
p16
(lp17
(dp18
S'objective'
p19
I15
sS'query_time'
p20
F1.005925178527832
sS'comp_time'
p21
F0.03972792625427246
sS'exec_cq'
p22
I5
sS'total_cq'
p23
I6
sasS'total_cqs'
p24
I6
ssI3
(dp25
S'iters'
p26
I12
sS'meta'
p27
(lp28
(dp29
S'objective'
p30
I415
sS'query_time'
p31
F24.65900731086731
sS'comp_time'
p32
F0.21240711212158203
sS'exec_cq'
p33
I28
sS'total_cq'
p34
I33
sa(dp35
g30
I356
sg31
F0.09794497489929199
sg32
F0.19057512283325195
sg33
I25
sg34
I30
sa(dp36
g30
I296
sg31
F0.11618208885192871
sg32
F0.07786679267883301
sg33
I22
sg34
I27
sa(dp37
g30
I253
sg31
F0.31038689613342285
sg32
F0.22494888305664062
sg33
I24
sg34
I24
sa(dp38
g30
I204
sg31
F0.08676838874816895
sg32
F0.044268131256103516
sg33
I21
sg34
I21
sa(dp39
g30
I179
sg31
F0.0846109390258789
sg32
F0.05246901512145996
sg33
I18
sg34
I18
sa(dp40
g30
I149
sg31
F0.016503095626831055
sg32
F0.10145378112792969
sg33
I15
sg34
I15
sa(dp41
g30
I117
sg31
F0.01591014862060547
sg32
F0.10770893096923828
sg33
I13
sg34
I13
sa(dp42
g30
I96
sg31
F0.006258964538574219
sg32
F0.013236045837402344
sg33
I10
sg34
I10
sa(dp43
g30
I73
sg31
F0.006398200988769531
sg32
F0.010342121124267578
sg33
I9
sg34
I9
sa(dp44
g30
I66
sg31
F0.005612850189208984
sg32
F0.013651132583618164
sg33
I8
sg34
I8
sa(dp45
g30
I62
sg31
F0.061834096908569336
sg32
F0.012660026550292969
sg33
I7
sg34
I7
sasS'total_cqs'
p46
I33
ssI6
(dp47
S'iters'
p48
I2
sS'meta'
p49
(lp50
(dp51
S'objective'
p52
I1
sS'query_time'
p53
F13.864829063415527
sS'comp_time'
p54
F0.0037810802459716797
sS'exec_cq'
p55
I4
sS'total_cq'
p56
I5
sa(dp57
g52
I2
sg53
F0.00011491775512695312
sg54
F0.00021600723266601562
sg55
I1
sg56
I2
sasS'total_cqs'
p58
I5
ssI8
(dp59
S'iters'
p60
I3
sS'meta'
p61
(lp62
(dp63
S'objective'
p64
I9
sS'query_time'
p65
F22.942721128463745
sS'comp_time'
p66
F0.08867454528808594
sS'exec_cq'
p67
I5
sS'total_cq'
p68
I6
sa(dp69
g64
I7
sg65
F21.482858657836914
sg66
F0.0002548694610595703
sg67
I5
sg68
I5
sa(dp70
g64
I5
sg65
F0.04595518112182617
sg66
F0.00019502639770507812
sg67
I4
sg68
I4
sasS'total_cqs'
p71
I6
ssI9
(dp72
S'iters'
p73
I3
sS'meta'
p74
(lp75
(dp76
S'objective'
p77
I1
sS'query_time'
p78
F10.285435914993286
sS'comp_time'
p79
F0.04967212677001953
sS'exec_cq'
p80
I3
sS'total_cq'
p81
I6
sa(dp82
g77
I2
sg78
F0.04583096504211426
sg79
F0.25774550437927246
sg80
I3
sg81
I3
sa(dp83
g77
I2
sg78
F0.23520302772521973
sg79
F0.11922907829284668
sg80
I2
sg81
I2
sasS'total_cqs'
p84
I6
ssI13
(dp85
S'iters'
p86
I2
sS'meta'
p87
(lp88
(dp89
S'objective'
p90
I22
sS'query_time'
p91
F0.02178502082824707
sS'comp_time'
p92
F0.007840871810913086
sS'exec_cq'
p93
I6
sS'total_cq'
p94
I8
sa(dp95
g90
I23
sg91
F0.004472017288208008
sg92
F9.226799011230469e-05
sg93
I7
sg94
I7
sasS'total_cqs'
p96
I8
ssI14
(dp97
S'iters'
p98
I2
sS'meta'
p99
(lp100
(dp101
S'objective'
p102
I5
sS'query_time'
p103
F1.094149112701416
sS'comp_time'
p104
F0.003746509552001953
sS'exec_cq'
p105
I5
sS'total_cq'
p106
I5
sa(dp107
g102
I4
sg103
F0.00039196014404296875
sg104
F0.0008060932159423828
sg105
I4
sg106
I4
sasS'total_cqs'
p108
I5
ssI16
(dp109
S'iters'
p110
I2
sS'meta'
p111
(lp112
(dp113
S'objective'
p114
I1
sS'query_time'
p115
F1.2944869995117188
sS'comp_time'
p116
F0.005656719207763672
sS'exec_cq'
p117
I4
sS'total_cq'
p118
I5
sa(dp119
g114
I2
sg115
F0.0010781288146972656
sg116
F0.001705169677734375
sg117
I2
sg118
I2
sasS'total_cqs'
p120
I5
ssI18
(dp121
S'iters'
p122
I3
sS'meta'
p123
(lp124
(dp125
S'objective'
p126
I1
sS'query_time'
p127
F0.21302413940429688
sS'comp_time'
p128
F0.004425764083862305
sS'exec_cq'
p129
I4
sS'total_cq'
p130
I5
sa(dp131
g126
I0
sg127
F4.9114227294921875e-05
sg128
F0.00014209747314453125
sg129
I2
sg130
I3
sa(dp132
g126
I2
sg127
F0.04258298873901367
sg128
F3.814697265625e-05
sg129
I1
sg130
I2
sasS'total_cqs'
p133
I5
ssI20
(dp134
S'iters'
p135
I6
sS'meta'
p136
(lp137
(dp138
S'objective'
p139
I38
sS'query_time'
p140
F11.18678331375122
sS'comp_time'
p141
F0.6996300220489502
sS'exec_cq'
p142
I10
sS'total_cq'
p143
I12
sa(dp144
g139
I28
sg140
F0.178725004196167
sg141
F0.29654502868652344
sg142
I6
sg143
I10
sa(dp145
g139
I23
sg140
F0.14641427993774414
sg141
F0.41488027572631836
sg142
I6
sg143
I8
sa(dp146
g139
I17
sg140
F0.009215116500854492
sg141
F0.02457261085510254
sg142
I5
sg143
I7
sa(dp147
g139
I15
sg140
F3.0279159545898438e-05
sg141
F7.700920104980469e-05
sg142
I3
sg143
I5
sa(dp148
g139
I12
sg140
F0.10012292861938477
sg141
F0.0003819465637207031
sg142
I3
sg143
I4
sasS'total_cqs'
p149
I12
ssI21
(dp150
S'iters'
p151
I8
sS'meta'
p152
(lp153
(dp154
S'objective'
p155
I47
sS'query_time'
p156
F60.12052893638611
sS'comp_time'
p157
F0.8701374530792236
sS'exec_cq'
p158
I12
sS'total_cq'
p159
I14
sa(dp160
g155
I44
sg156
F0.02125406265258789
sg157
F0.05530428886413574
sg158
I8
sg159
I11
sa(dp161
g155
I32
sg156
F0.3418700695037842
sg157
F0.02024388313293457
sg158
I7
sg159
I9
sa(dp162
g155
I24
sg156
F0.009449958801269531
sg157
F0.019095897674560547
sg158
I6
sg159
I8
sa(dp163
g155
I21
sg156
F0.0010807514190673828
sg157
F0.0017142295837402344
sg158
I6
sg159
I7
sa(dp164
g155
I10
sg156
F0.009261608123779297
sg157
F0.00011968612670898438
sg158
I4
sg159
I6
sa(dp165
g155
I3
sg156
F0.00138092041015625
sg157
F6.604194641113281e-05
sg158
I1
sg159
I5
sa(dp166
g155
I1
sg156
F0.015176057815551758
sg157
F8.320808410644531e-05
sg158
I4
sg159
I4
sasS'total_cqs'
p167
I14
ssI22
(dp168
S'iters'
p169
I1
sS'meta'
p170
(lp171
(dp172
S'objective'
p173
I1
sS'query_time'
p174
F0.004315853118896484
sS'comp_time'
p175
F0.0014069080352783203
sS'exec_cq'
p176
I1
sS'total_cq'
p177
I2
sasS'total_cqs'
p178
I2
ssI25
(dp179
S'iters'
p180
I4
sS'meta'
p181
(lp182
(dp183
S'objective'
p184
I6
sS'query_time'
p185
F44.36029100418091
sS'comp_time'
p186
F2.109606981277466
sS'exec_cq'
p187
I4
sS'total_cq'
p188
I7
sa(dp189
g184
I3
sg185
F4.527091979980469
sg186
F0.023319005966186523
sg187
I2
sg188
I5
sa(dp190
g184
I2
sg185
F0.0762779712677002
sg186
F0.00014710426330566406
sg187
I2
sg188
I3
sa(dp191
g184
I2
sg185
F0.007658958435058594
sg186
F4.57763671875e-05
sg187
I1
sg188
I2
sasS'total_cqs'
p192
I7
ssI26
(dp193
S'iters'
p194
I8
sS'meta'
p195
(lp196
(dp197
S'objective'
p198
I41
sS'query_time'
p199
F0.24045991897583008
sS'comp_time'
p200
F0.013270378112792969
sS'exec_cq'
p201
I4
sS'total_cq'
p202
I13
sa(dp203
g198
I44
sg199
F19.9052152633667
sg200
F2.6626992225646973
sg201
I6
sg202
I11
sa(dp204
g198
I35
sg199
F0.7102408409118652
sg200
F2.6468589305877686
sg201
I5
sg202
I10
sa(dp205
g198
I25
sg199
F4.457044839859009
sg200
F2.0119194984436035
sg201
I6
sg202
I9
sa(dp206
g198
I17
sg199
F0.8004918098449707
sg200
F1.8438918590545654
sg201
I4
sg202
I7
sa(dp207
g198
I10
sg199
F0.8079419136047363
sg200
F1.8487598896026611
sg201
I2
sg202
I6
sa(dp208
g198
I4
sg199
F0.014927864074707031
sg200
F9.226799011230469e-05
sg201
I2
sg202
I5
sa(dp209
g198
I1
sg199
F0.002635955810546875
sg200
F3.5762786865234375e-05
sg201
I1
sg202
I3
sasS'total_cqs'
p210
I13
ssI27
(dp211
S'iters'
p212
I1
sS'meta'
p213
(lp214
(dp215
S'objective'
p216
I1
sS'query_time'
p217
F0.26598191261291504
sS'comp_time'
p218
F0.0018489360809326172
sS'exec_cq'
p219
I1
sS'total_cq'
p220
I2
sasS'total_cqs'
p221
I2
ssI28
(dp222
S'iters'
p223
I9
sS'meta'
p224
(lp225
(dp226
S'objective'
p227
I65
sS'query_time'
p228
F1.453296184539795
sS'comp_time'
p229
F0.07652735710144043
sS'exec_cq'
p230
I6
sS'total_cq'
p231
I14
sa(dp232
g227
I55
sg228
F0.009586095809936523
sg229
F0.005979299545288086
sg230
I5
sg231
I11
sa(dp233
g227
I42
sg228
F0.014178037643432617
sg229
F0.00018405914306640625
sg230
I3
sg231
I9
sa(dp234
g227
I32
sg228
F0.0029151439666748047
sg229
F0.00012111663818359375
sg230
I3
sg231
I8
sa(dp235
g227
I22
sg228
F0.00978994369506836
sg229
F0.00015234947204589844
sg230
I3
sg231
I7
sa(dp236
g227
I13
sg228
F2.5033950805664062e-05
sg229
F0.00011110305786132812
sg230
I2
sg231
I6
sa(dp237
g227
I7
sg228
F1.0967254638671875e-05
sg229
F3.3855438232421875e-05
sg230
I1
sg231
I5
sa(dp238
g227
I3
sg228
F0.02132892608642578
sg229
F0.00013709068298339844
sg230
I1
sg231
I4
sa(dp239
g227
I1
sg228
F0.0031728744506835938
sg229
F4.696846008300781e-05
sg230
I1
sg231
I3
sasS'total_cqs'
p240
I14
ssI29
(dp241
S'iters'
p242
I1
sS'meta'
p243
(lp244
(dp245
S'objective'
p246
I1
sS'query_time'
p247
F0.00973200798034668
sS'comp_time'
p248
F0.0018000602722167969
sS'exec_cq'
p249
I2
sS'total_cq'
p250
I2
sasS'total_cqs'
p251
I2
ssI30
(dp252
S'iters'
p253
I1
sS'meta'
p254
(lp255
(dp256
S'objective'
p257
I1
sS'query_time'
p258
F0.34326696395874023
sS'comp_time'
p259
F0.0023887157440185547
sS'exec_cq'
p260
I2
sS'total_cq'
p261
I2
sasS'total_cqs'
p262
I2
ssI31
(dp263
S'iters'
p264
I3
sS'meta'
p265
(lp266
(dp267
S'objective'
p268
I9
sS'query_time'
p269
F1.6500470638275146
sS'comp_time'
p270
F0.0220181941986084
sS'exec_cq'
p271
I5
sS'total_cq'
p272
I9
sa(dp273
g268
I2
sg269
F0.00666499137878418
sg270
F0.011118888854980469
sg271
I3
sg272
I3
sa(dp274
g268
I2
sg269
F0.00872802734375
sg270
F0.011350870132446289
sg271
I2
sg272
I2
sasS'total_cqs'
p275
I9
ssI32
(dp276
S'iters'
p277
I4
sS'meta'
p278
(lp279
(dp280
S'objective'
p281
I2
sS'query_time'
p282
F18.007539987564087
sS'comp_time'
p283
F2.71382212638855
sS'exec_cq'
p284
I4
sS'total_cq'
p285
I7
sa(dp286
g281
I1
sg282
F0.3222348690032959
sg283
F0.31801390647888184
sg284
I1
sg285
I4
sa(dp287
g281
I0
sg282
F1.1102080345153809
sg283
F0.005185842514038086
sg284
I2
sg285
I3
sa(dp288
g281
I2
sg282
F0.002126932144165039
sg283
F0.001180887222290039
sg284
I1
sg285
I2
sasS'total_cqs'
p289
I7
ssI33
(dp290
S'iters'
p291
I1
sS'meta'
p292
(lp293
(dp294
S'objective'
p295
I1
sS'query_time'
p296
F0.03618311882019043
sS'comp_time'
p297
F0.0013949871063232422
sS'exec_cq'
p298
I2
sS'total_cq'
p299
I2
sasS'total_cqs'
p300
I2
ssI35
(dp301
S'iters'
p302
I3
sS'meta'
p303
(lp304
(dp305
S'objective'
p306
I1
sS'query_time'
p307
F15.136181831359863
sS'comp_time'
p308
F0.2380387783050537
sS'exec_cq'
p309
I4
sS'total_cq'
p310
I5
sa(dp311
g306
I0
sg307
F0.011948108673095703
sg308
F0.020985841751098633
sg309
I2
sg310
I3
sa(dp312
g306
I2
sg307
F0.0006930828094482422
sg308
F0.0002961158752441406
sg309
I1
sg310
I2
sasS'total_cqs'
p313
I5
ssI37
(dp314
S'iters'
p315
I6
sS'meta'
p316
(lp317
(dp318
S'objective'
p319
I35
sS'query_time'
p320
F1.8095297813415527
sS'comp_time'
p321
F0.10353994369506836
sS'exec_cq'
p322
I8
sS'total_cq'
p323
I10
sa(dp324
g319
I27
sg320
F0.007781028747558594
sg321
F0.014731645584106445
sg322
I7
sg323
I9
sa(dp325
g319
I20
sg320
F0.008432865142822266
sg321
F0.011991500854492188
sg322
I6
sg323
I8
sa(dp326
g319
I14
sg320
F0.5264809131622314
sg321
F0.007071971893310547
sg322
I5
sg323
I7
sa(dp327
g319
I7
sg320
F0.0030508041381835938
sg321
F0.004920244216918945
sg322
I4
sg323
I6
sa(dp328
g319
I1
sg320
F0.0025680065155029297
sg321
F0.05992293357849121
sg322
I2
sg323
I2
sasS'total_cqs'
p329
I10
ssI40
(dp330
S'iters'
p331
I1
sS'meta'
p332
(lp333
(dp334
S'objective'
p335
I1
sS'query_time'
p336
F0.01725292205810547
sS'comp_time'
p337
F0.005919933319091797
sS'exec_cq'
p338
I1
sS'total_cq'
p339
I2
sasS'total_cqs'
p340
I2
ssI41
(dp341
S'iters'
p342
I2
sS'meta'
p343
(lp344
(dp345
S'objective'
p346
I5
sS'query_time'
p347
F10.936294078826904
sS'comp_time'
p348
F0.6652159690856934
sS'exec_cq'
p349
I5
sS'total_cq'
p350
I6
sa(dp351
g346
I2
sg347
F0.0008099079132080078
sg348
F0.0009810924530029297
sg349
I2
sg350
I2
sasS'total_cqs'
p352
I6
ssI42
(dp353
S'iters'
p354
I1
sS'meta'
p355
(lp356
(dp357
S'objective'
p358
I1
sS'query_time'
p359
F0.01081991195678711
sS'comp_time'
p360
F0.0016372203826904297
sS'exec_cq'
p361
I1
sS'total_cq'
p362
I2
sasS'total_cqs'
p363
I2
ssI44
(dp364
S'iters'
p365
I3
sS'meta'
p366
(lp367
(dp368
S'objective'
p369
I5
sS'query_time'
p370
F1.410578966140747
sS'comp_time'
p371
F0.03444719314575195
sS'exec_cq'
p372
I2
sS'total_cq'
p373
I5
sa(dp374
g369
I2
sg370
F7.414817810058594e-05
sg371
F0.00013494491577148438
sg372
I1
sg373
I4
sa(dp375
g369
I0
sg370
F0.0030260086059570312
sg371
F1.9073486328125e-05
sg372
I1
sg373
I3
sasS'total_cqs'
p376
I5
ssI45
(dp377
S'iters'
p378
I2
sS'meta'
p379
(lp380
(dp381
S'objective'
p382
I1
sS'query_time'
p383
F0.044571876525878906
sS'comp_time'
p384
F0.0026712417602539062
sS'exec_cq'
p385
I3
sS'total_cq'
p386
I5
sa(dp387
g382
I2
sg383
F0.00023794174194335938
sg384
F0.0002942085266113281
sg385
I2
sg386
I2
sasS'total_cqs'
p388
I5
ssI48
(dp389
S'iters'
p390
I1
sS'meta'
p391
(lp392
(dp393
S'objective'
p394
I1
sS'query_time'
p395
F0.1974501609802246
sS'comp_time'
p396
F0.0024809837341308594
sS'exec_cq'
p397
I2
sS'total_cq'
p398
I2
sasS'total_cqs'
p399
I2
ssI49
(dp400
S'iters'
p401
I2
sS'meta'
p402
(lp403
(dp404
S'objective'
p405
I1
sS'query_time'
p406
F0.31541895866394043
sS'comp_time'
p407
F0.004495143890380859
sS'exec_cq'
p408
I4
sS'total_cq'
p409
I5
sa(dp410
g405
I1
sg406
F0.0004169940948486328
sg407
F0.0007648468017578125
sg408
I2
sg409
I2
sasS'total_cqs'
p411
I5
ssI50
(dp412
S'iters'
p413
I3
sS'meta'
p414
(lp415
(dp416
S'objective'
p417
I5
sS'query_time'
p418
F0.7910819053649902
sS'comp_time'
p419
F0.05681490898132324
sS'exec_cq'
p420
I5
sS'total_cq'
p421
I5
sa(dp422
g417
I2
sg418
F0.00021409988403320312
sg419
F0.00046706199645996094
sg420
I4
sg421
I4
sa(dp423
g417
I0
sg418
F0.00011205673217773438
sg419
F0.0002751350402832031
sg420
I3
sg421
I3
sasS'total_cqs'
p424
I5
ssI55
(dp425
S'iters'
p426
I1
sS'meta'
p427
(lp428
(dp429
S'objective'
p430
I1
sS'query_time'
p431
F24.596374034881592
sS'comp_time'
p432
F0.010129928588867188
sS'exec_cq'
p433
I2
sS'total_cq'
p434
I2
sasS'total_cqs'
p435
I2
ssI57
(dp436
S'iters'
p437
I1
sS'meta'
p438
(lp439
(dp440
S'objective'
p441
I2
sS'query_time'
p442
F12.58325982093811
sS'comp_time'
p443
F1.6597769260406494
sS'exec_cq'
p444
I3
sS'total_cq'
p445
I3
sasS'total_cqs'
p446
I3
ssI116
(dp447
S'iters'
p448
I5
sS'meta'
p449
(lp450
(dp451
S'objective'
p452
I165
sS'query_time'
p453
F3.8347280025482178
sS'comp_time'
p454
F0.20510077476501465
sS'exec_cq'
p455
I15
sS'total_cq'
p456
I21
sa(dp457
g452
I168
sg453
F0.08408498764038086
sg454
F0.0002570152282714844
sg455
I14
sg456
I19
sa(dp458
g452
I159
sg453
F0.0030481815338134766
sg454
F0.0002238750457763672
sg455
I15
sg456
I18
sa(dp459
g452
I155
sg453
F0.545241117477417
sg454
F0.0006051063537597656
sg455
I16
sg456
I17
sa(dp460
g452
I6
sg453
F0.0007920265197753906
sg454
F0.0008327960968017578
sg455
I2
sg456
I2
sasS'total_cqs'
p461
I21
ssI117
(dp462
S'iters'
p463
I1
sS'meta'
p464
(lp465
(dp466
S'objective'
p467
I9
sS'query_time'
p468
F0.009582757949829102
sS'comp_time'
p469
F0.0015168190002441406
sS'exec_cq'
p470
I4
sS'total_cq'
p471
I5
sasS'total_cqs'
p472
I5
ss.