(dp0
I1
(dp1
S'iters'
p2
I2
sS'meta'
p3
(lp4
(dp5
S'objective'
p6
I3
sS'query_time'
p7
F27.300430059432983
sS'comp_time'
p8
F0.00015497207641601562
sS'exec_cq'
p9
I2
sS'total_cq'
p10
I6
sa(dp11
g6
I10
sg7
F0.4996809959411621
sg8
F6.103515625e-05
sg9
I2
sg10
I4
sasS'total_cqs'
p12
I6
ssI2
(dp13
S'iters'
p14
I1
sS'meta'
p15
(lp16
(dp17
S'objective'
p18
I19
sS'query_time'
p19
F0.7924621105194092
sS'comp_time'
p20
F9.322166442871094e-05
sS'exec_cq'
p21
I6
sS'total_cq'
p22
I6
sasS'total_cqs'
p23
I6
ssI3
(dp24
S'iters'
p25
I20
sS'meta'
p26
(lp27
(dp28
S'objective'
p29
I495
sS'query_time'
p30
F0.12138009071350098
sS'comp_time'
p31
F0.00011491775512695312
sS'exec_cq'
p32
I1
sS'total_cq'
p33
I33
sa(dp34
g29
I464
sg30
F7.564347982406616
sg31
F9.012222290039062e-05
sg32
I1
sg33
I32
sa(dp35
g29
I398
sg30
F0.020468950271606445
sg31
F0.00010514259338378906
sg32
I1
sg33
I31
sa(dp36
g29
I359
sg30
F0.04293513298034668
sg31
F0.0001010894775390625
sg32
I1
sg33
I28
sa(dp37
g29
I275
sg30
F0.02257704734802246
sg31
F7.796287536621094e-05
sg32
I2
sg33
I25
sa(dp38
g29
I285
sg30
F0.03494715690612793
sg31
F6.508827209472656e-05
sg32
I2
sg33
I22
sa(dp39
g29
I260
sg30
F0.07894301414489746
sg31
F8.20159912109375e-05
sg32
I2
sg33
I21
sa(dp40
g29
I234
sg30
F0.009753942489624023
sg31
F7.009506225585938e-05
sg32
I2
sg33
I20
sa(dp41
g29
I184
sg30
F0.008476018905639648
sg31
F6.723403930664062e-05
sg32
I2
sg33
I18
sa(dp42
g29
I178
sg30
F0.003111124038696289
sg31
F5.91278076171875e-05
sg32
I2
sg33
I16
sa(dp43
g29
I158
sg30
F18.546262979507446
sg31
F0.0005800724029541016
sg32
I2
sg33
I15
sa(dp44
g29
I107
sg30
F0.008155107498168945
sg31
F5.698204040527344e-05
sg32
I2
sg33
I14
sa(dp45
g29
I97
sg30
F0.3337068557739258
sg31
F0.00014019012451171875
sg32
I2
sg33
I12
sa(dp46
g29
I84
sg30
F0.009128093719482422
sg31
F7.987022399902344e-05
sg32
I2
sg33
I10
sa(dp47
g29
I44
sg30
F0.03510403633117676
sg31
F0.00012803077697753906
sg32
I2
sg33
I9
sa(dp48
g29
I45
sg30
F0.002062082290649414
sg31
F8.726119995117188e-05
sg32
I2
sg33
I7
sa(dp49
g29
I33
sg30
F0.004052877426147461
sg31
F8.392333984375e-05
sg32
I2
sg33
I6
sa(dp50
g29
I32
sg30
F0.13777780532836914
sg31
F5.316734313964844e-05
sg32
I2
sg33
I5
sa(dp51
g29
I33
sg30
F0.0020759105682373047
sg31
F4.38690185546875e-05
sg32
I3
sg33
I4
sa(dp52
g29
I34
sg30
F0.15595102310180664
sg31
F6.222724914550781e-05
sg32
I3
sg33
I3
sasS'total_cqs'
p53
I33
ssI6
(dp54
S'iters'
p55
I4
sS'meta'
p56
(lp57
(dp58
S'objective'
p59
I5
sS'query_time'
p60
F7.112009048461914
sS'comp_time'
p61
F0.00011610984802246094
sS'exec_cq'
p62
I1
sS'total_cq'
p63
I5
sa(dp64
g59
I2
sg60
F2.3529741764068604
sg61
F9.393692016601562e-05
sg62
I1
sg63
I4
sa(dp65
g59
I0
sg60
F5.498330116271973
sg61
F7.796287536621094e-05
sg62
I1
sg63
I3
sa(dp66
g59
I1
sg60
F4.595638990402222
sg61
F6.890296936035156e-05
sg62
I1
sg63
I2
sasS'total_cqs'
p67
I5
ssI8
(dp68
S'iters'
p69
I2
sS'meta'
p70
(lp71
(dp72
S'objective'
p73
I11
sS'query_time'
p74
F22.38865613937378
sS'comp_time'
p75
F0.0002827644348144531
sS'exec_cq'
p76
I2
sS'total_cq'
p77
I6
sa(dp78
g73
I3
sg74
F0.02158212661743164
sg75
F6.29425048828125e-05
sg76
I1
sg77
I2
sasS'total_cqs'
p79
I6
ssI9
(dp80
S'iters'
p81
I5
sS'meta'
p82
(lp83
(dp84
S'objective'
p85
I9
sS'query_time'
p86
F24.061159133911133
sS'comp_time'
p87
F0.00024700164794921875
sS'exec_cq'
p88
I1
sS'total_cq'
p89
I6
sa(dp90
g85
I5
sg86
F1.077355146408081
sg87
F0.0004630088806152344
sg88
I1
sg89
I5
sa(dp91
g85
I2
sg86
F7.043097972869873
sg87
F0.00023984909057617188
sg88
I1
sg89
I4
sa(dp92
g85
I2
sg86
F20.076952934265137
sg87
F0.00011897087097167969
sg88
I2
sg89
I3
sa(dp93
g85
I2
sg86
F0.5938868522644043
sg87
F0.00017786026000976562
sg88
I2
sg89
I2
sasS'total_cqs'
p94
I6
ssI13
(dp95
S'iters'
p96
I2
sS'meta'
p97
(lp98
(dp99
S'objective'
p100
I28
sS'query_time'
p101
F9.202749967575073
sS'comp_time'
p102
F0.00012493133544921875
sS'exec_cq'
p103
I5
sS'total_cq'
p104
I8
sa(dp105
g100
I30
sg101
F0.0026330947875976562
sg102
F4.7206878662109375e-05
sg103
I7
sg104
I7
sasS'total_cqs'
p106
I8
ssI14
(dp107
S'iters'
p108
I3
sS'meta'
p109
(lp110
(dp111
S'objective'
p112
I7
sS'query_time'
p113
F0.03672504425048828
sS'comp_time'
p114
F7.009506225585938e-05
sS'exec_cq'
p115
I2
sS'total_cq'
p116
I5
sa(dp117
g112
I7
sg113
F0.31035494804382324
sg114
F8.702278137207031e-05
sg115
I3
sg116
I4
sa(dp118
g112
I7
sg113
F1.3667190074920654
sg114
F9.417533874511719e-05
sg115
I3
sg116
I3
sasS'total_cqs'
p119
I5
ssI16
(dp120
S'iters'
p121
I4
sS'meta'
p122
(lp123
(dp124
S'objective'
p125
I5
sS'query_time'
p126
F1.7707250118255615
sS'comp_time'
p127
F9.202957153320312e-05
sS'exec_cq'
p128
I1
sS'total_cq'
p129
I5
sa(dp130
g125
I4
sg126
F0.2697408199310303
sg127
F8.296966552734375e-05
sg128
I2
sg129
I4
sa(dp131
g125
I3
sg126
F0.06090712547302246
sg127
F8.702278137207031e-05
sg128
I2
sg129
I3
sa(dp132
g125
I3
sg126
F0.05874800682067871
sg127
F0.00010776519775390625
sg128
I2
sg129
I2
sasS'total_cqs'
p133
I5
ssI18
(dp134
S'iters'
p135
I4
sS'meta'
p136
(lp137
(dp138
S'objective'
p139
I5
sS'query_time'
p140
F5.724064111709595
sS'comp_time'
p141
F0.0001201629638671875
sS'exec_cq'
p142
I1
sS'total_cq'
p143
I5
sa(dp144
g139
I2
sg140
F1.6210730075836182
sg141
F0.00010776519775390625
sg142
I1
sg143
I4
sa(dp145
g139
I0
sg140
F0.05680418014526367
sg141
F6.771087646484375e-05
sg142
I1
sg143
I3
sa(dp146
g139
I1
sg140
F0.052609920501708984
sg141
F9.703636169433594e-05
sg142
I1
sg143
I2
sasS'total_cqs'
p147
I5
ssI20
(dp148
S'iters'
p149
I7
sS'meta'
p150
(lp151
(dp152
S'objective'
p153
I40
sS'query_time'
p154
F0.023710966110229492
sS'comp_time'
p155
F8.988380432128906e-05
sS'exec_cq'
p156
I1
sS'total_cq'
p157
I12
sa(dp158
g153
I37
sg154
F5.904744863510132
sg155
F0.0002930164337158203
sg156
I1
sg157
I10
sa(dp159
g153
I28
sg154
F7.240806818008423
sg155
F0.00011467933654785156
sg156
I1
sg157
I9
sa(dp160
g153
I20
sg154
F3.4942779541015625
sg155
F9.608268737792969e-05
sg156
I1
sg157
I8
sa(dp161
g153
I5
sg154
F0.007321834564208984
sg155
F6.604194641113281e-05
sg156
I1
sg157
I7
sa(dp162
g153
I13
sg154
F0.005045175552368164
sg155
F6.508827209472656e-05
sg156
I4
sg157
I5
sa(dp163
g153
I13
sg154
F0.09606218338012695
sg155
F8.606910705566406e-05
sg156
I4
sg157
I4
sasS'total_cqs'
p164
I12
ssI21
(dp165
S'iters'
p166
I6
sS'meta'
p167
(lp168
(dp169
S'objective'
p170
I21
sS'query_time'
p171
F4.062360048294067
sS'comp_time'
p172
F0.00010704994201660156
sS'exec_cq'
p173
I1
sS'total_cq'
p174
I14
sa(dp175
g170
I19
sg171
F0.6462600231170654
sg172
F9.202957153320312e-05
sg173
I1
sg174
I10
sa(dp176
g170
I13
sg171
F0.7597019672393799
sg172
F7.891654968261719e-05
sg173
I1
sg174
I8
sa(dp177
g170
I7
sg171
F0.11147093772888184
sg172
F0.00038123130798339844
sg173
I1
sg174
I6
sa(dp178
g170
I3
sg171
F0.3680241107940674
sg172
F8.511543273925781e-05
sg173
I1
sg174
I4
sa(dp179
g170
I8
sg171
F0.10957980155944824
sg172
F7.009506225585938e-05
sg173
I1
sg174
I3
sasS'total_cqs'
p180
I14
ssI22
(dp181
S'iters'
p182
I1
sS'meta'
p183
(lp184
(dp185
S'objective'
p186
I1
sS'query_time'
p187
F0.0049970149993896484
sS'comp_time'
p188
F6.318092346191406e-05
sS'exec_cq'
p189
I1
sS'total_cq'
p190
I2
sasS'total_cqs'
p191
I2
ssI25
(dp192
S'iters'
p193
I4
sS'meta'
p194
(lp195
(dp196
S'objective'
p197
I4
sS'query_time'
p198
F12.405263900756836
sS'comp_time'
p199
F9.632110595703125e-05
sS'exec_cq'
p200
I1
sS'total_cq'
p201
I7
sa(dp202
g197
I8
sg198
F32.92666220664978
sg199
F0.0007321834564208984
sg200
I2
sg201
I5
sa(dp203
g197
I2
sg198
F2.2137670516967773
sg199
F0.00015497207641601562
sg200
I2
sg201
I4
sa(dp204
g197
I5
sg198
F0.15271806716918945
sg199
F7.390975952148438e-05
sg200
I2
sg201
I2
sasS'total_cqs'
p205
I7
ssI26
(dp206
S'iters'
p207
I10
sS'meta'
p208
(lp209
(dp210
S'objective'
p211
I49
sS'query_time'
p212
F1.899303913116455
sS'comp_time'
p213
F0.00010013580322265625
sS'exec_cq'
p214
I1
sS'total_cq'
p215
I13
sa(dp216
g211
I46
sg212
F0.037384986877441406
sg213
F9.417533874511719e-05
sg214
I1
sg215
I11
sa(dp217
g211
I32
sg212
F1.2260959148406982
sg213
F9.393692016601562e-05
sg214
I1
sg215
I10
sa(dp218
g211
I25
sg212
F20.158308029174805
sg213
F0.00021910667419433594
sg214
I1
sg215
I8
sa(dp219
g211
I17
sg212
F0.03431391716003418
sg213
F5.698204040527344e-05
sg214
I1
sg215
I7
sa(dp220
g211
I12
sg212
F0.05635809898376465
sg213
F6.914138793945312e-05
sg214
I1
sg215
I6
sa(dp221
g211
I7
sg212
F0.025617122650146484
sg213
F4.8160552978515625e-05
sg214
I1
sg215
I5
sa(dp222
g211
I3
sg212
F0.023869991302490234
sg213
F4.8160552978515625e-05
sg214
I1
sg215
I4
sa(dp223
g211
I0
sg212
F0.045066118240356445
sg213
F4.57763671875e-05
sg214
I1
sg215
I3
sa(dp224
g211
I2
sg212
F0.025881052017211914
sg213
F4.792213439941406e-05
sg214
I1
sg215
I2
sasS'total_cqs'
p225
I13
ssI27
(dp226
S'iters'
p227
I1
sS'meta'
p228
(lp229
(dp230
S'objective'
p231
I1
sS'query_time'
p232
F0.16621804237365723
sS'comp_time'
p233
F8.988380432128906e-05
sS'exec_cq'
p234
I2
sS'total_cq'
p235
I2
sasS'total_cqs'
p236
I2
ssI28
(dp237
S'iters'
p238
I7
sS'meta'
p239
(lp240
(dp241
S'objective'
p242
I39
sS'query_time'
p243
F2.115684986114502
sS'comp_time'
p244
F0.00010514259338378906
sS'exec_cq'
p245
I1
sS'total_cq'
p246
I14
sa(dp247
g242
I10
sg243
F1.4309730529785156
sg244
F0.00011706352233886719
sg245
I1
sg246
I11
sa(dp248
g242
I17
sg243
F0.6131458282470703
sg244
F0.0001652240753173828
sg245
I1
sg246
I6
sa(dp249
g242
I7
sg243
F0.5725018978118896
sg244
F9.703636169433594e-05
sg245
I1
sg246
I5
sa(dp250
g242
I2
sg243
F0.4410560131072998
sg244
F0.00012087821960449219
sg245
I1
sg246
I4
sa(dp251
g242
I0
sg243
F0.2708280086517334
sg244
F0.00024008750915527344
sg245
I1
sg246
I3
sa(dp252
g242
I3
sg243
F0.12143611907958984
sg244
F0.00012803077697753906
sg245
I1
sg246
I2
sasS'total_cqs'
p253
I14
ssI29
(dp254
S'iters'
p255
I1
sS'meta'
p256
(lp257
(dp258
S'objective'
p259
I1
sS'query_time'
p260
F0.004575967788696289
sS'comp_time'
p261
F6.985664367675781e-05
sS'exec_cq'
p262
I2
sS'total_cq'
p263
I2
sasS'total_cqs'
p264
I2
ssI30
(dp265
S'iters'
p266
I1
sS'meta'
p267
(lp268
(dp269
S'objective'
p270
I1
sS'query_time'
p271
F0.4375309944152832
sS'comp_time'
p272
F6.604194641113281e-05
sS'exec_cq'
p273
I2
sS'total_cq'
p274
I2
sasS'total_cqs'
p275
I2
ssI31
(dp276
S'iters'
p277
I3
sS'meta'
p278
(lp279
(dp280
S'objective'
p281
I21
sS'query_time'
p282
F0.9653520584106445
sS'comp_time'
p283
F8.96453857421875e-05
sS'exec_cq'
p284
I1
sS'total_cq'
p285
I9
sa(dp286
g281
I15
sg282
F6.458323955535889
sg283
F9.512901306152344e-05
sg284
I1
sg285
I7
sa(dp287
g281
I7
sg282
F0.0029408931732177734
sg283
F4.887580871582031e-05
sg284
I1
sg285
I2
sasS'total_cqs'
p288
I9
ssI32
(dp289
S'iters'
p290
I5
sS'meta'
p291
(lp292
(dp293
S'objective'
p294
I2
sS'query_time'
p295
F1.3366718292236328
sS'comp_time'
p296
F9.894371032714844e-05
sS'exec_cq'
p297
I1
sS'total_cq'
p298
I7
sa(dp299
g294
I5
sg295
F2.1378750801086426
sg296
F0.00026106834411621094
sg297
I1
sg298
I5
sa(dp300
g294
I2
sg295
F7.092690944671631
sg296
F9.202957153320312e-05
sg297
I1
sg298
I4
sa(dp301
g294
I0
sg295
F7.401420831680298
sg296
F8.606910705566406e-05
sg297
I1
sg298
I3
sa(dp302
g294
I1
sg295
F1.5077149868011475
sg296
F8.392333984375e-05
sg297
I1
sg298
I2
sasS'total_cqs'
p303
I7
ssI33
(dp304
S'iters'
p305
I1
sS'meta'
p306
(lp307
(dp308
S'objective'
p309
I1
sS'query_time'
p310
F0.03990888595581055
sS'comp_time'
p311
F8.296966552734375e-05
sS'exec_cq'
p312
I2
sS'total_cq'
p313
I2
sasS'total_cqs'
p314
I2
ssI35
(dp315
S'iters'
p316
I4
sS'meta'
p317
(lp318
(dp319
S'objective'
p320
I5
sS'query_time'
p321
F10.598330020904541
sS'comp_time'
p322
F0.00011992454528808594
sS'exec_cq'
p323
I1
sS'total_cq'
p324
I5
sa(dp325
g320
I2
sg321
F5.700433969497681
sg322
F0.00022101402282714844
sg323
I1
sg324
I4
sa(dp326
g320
I0
sg321
F1.879939079284668
sg322
F8.20159912109375e-05
sg323
I1
sg324
I3
sa(dp327
g320
I1
sg321
F0.861814022064209
sg322
F6.580352783203125e-05
sg323
I1
sg324
I2
sasS'total_cqs'
p328
I5
ssI37
(dp329
S'iters'
p330
I9
sS'meta'
p331
(lp332
(dp333
S'objective'
p334
I35
sS'query_time'
p335
F0.01036381721496582
sS'comp_time'
p336
F7.605552673339844e-05
sS'exec_cq'
p337
I1
sS'total_cq'
p338
I10
sa(dp339
g334
I27
sg335
F0.006203889846801758
sg336
F6.604194641113281e-05
sg337
I1
sg338
I9
sa(dp340
g334
I20
sg335
F0.8141300678253174
sg336
F7.009506225585938e-05
sg337
I1
sg338
I8
sa(dp341
g334
I14
sg335
F0.5346360206604004
sg336
F6.985664367675781e-05
sg337
I1
sg338
I7
sa(dp342
g334
I9
sg335
F0.7311129570007324
sg336
F0.00012683868408203125
sg337
I1
sg338
I6
sa(dp343
g334
I5
sg335
F0.3329930305480957
sg336
F7.295608520507812e-05
sg337
I1
sg338
I5
sa(dp344
g334
I2
sg335
F0.0036420822143554688
sg336
F5.4836273193359375e-05
sg337
I1
sg338
I4
sa(dp345
g334
I2
sg335
F0.003098011016845703
sg336
F4.887580871582031e-05
sg337
I2
sg338
I3
sa(dp346
g334
I2
sg335
F0.2915349006652832
sg336
F7.677078247070312e-05
sg337
I2
sg338
I2
sasS'total_cqs'
p347
I10
ssI40
(dp348
S'iters'
p349
I1
sS'meta'
p350
(lp351
(dp352
S'objective'
p353
I1
sS'query_time'
p354
F18.1296169757843
sS'comp_time'
p355
F0.00011515617370605469
sS'exec_cq'
p356
I1
sS'total_cq'
p357
I2
sasS'total_cqs'
p358
I2
ssI41
(dp359
S'iters'
p360
I5
sS'meta'
p361
(lp362
(dp363
S'objective'
p364
I9
sS'query_time'
p365
F1.9405648708343506
sS'comp_time'
p366
F9.202957153320312e-05
sS'exec_cq'
p367
I1
sS'total_cq'
p368
I6
sa(dp369
g364
I5
sg365
F0.33431220054626465
sg366
F7.700920104980469e-05
sg367
I1
sg368
I5
sa(dp370
g364
I2
sg365
F0.2517280578613281
sg366
F9.083747863769531e-05
sg367
I1
sg368
I4
sa(dp371
g364
I0
sg365
F9.25688910484314
sg366
F0.00010919570922851562
sg367
I1
sg368
I3
sa(dp372
g364
I1
sg365
F1.5142130851745605
sg366
F0.0004429817199707031
sg367
I1
sg368
I2
sasS'total_cqs'
p373
I6
ssI42
(dp374
S'iters'
p375
I1
sS'meta'
p376
(lp377
(dp378
S'objective'
p379
I1
sS'query_time'
p380
F18.397908926010132
sS'comp_time'
p381
F0.00020503997802734375
sS'exec_cq'
p382
I1
sS'total_cq'
p383
I2
sasS'total_cqs'
p384
I2
ssI44
(dp385
S'iters'
p386
I4
sS'meta'
p387
(lp388
(dp389
S'objective'
p390
I5
sS'query_time'
p391
F1.796968936920166
sS'comp_time'
p392
F0.00013399124145507812
sS'exec_cq'
p393
I1
sS'total_cq'
p394
I5
sa(dp395
g390
I2
sg391
F0.011465072631835938
sg392
F6.699562072753906e-05
sg393
I1
sg394
I4
sa(dp396
g390
I0
sg391
F1.488921880722046
sg392
F0.0004658699035644531
sg393
I1
sg394
I3
sa(dp397
g390
I1
sg391
F0.010365009307861328
sg392
F6.794929504394531e-05
sg393
I1
sg394
I2
sasS'total_cqs'
p398
I5
ssI45
(dp399
S'iters'
p400
I2
sS'meta'
p401
(lp402
(dp403
S'objective'
p404
I11
sS'query_time'
p405
F5.906239986419678
sS'comp_time'
p406
F9.799003601074219e-05
sS'exec_cq'
p407
I4
sS'total_cq'
p408
I5
sa(dp409
g404
I11
sg405
F0.005146980285644531
sg406
F9.918212890625e-05
sg407
I4
sg408
I4
sasS'total_cqs'
p410
I5
ssI48
(dp411
S'iters'
p412
I1
sS'meta'
p413
(lp414
(dp415
S'objective'
p416
I1
sS'query_time'
p417
F0.12014913558959961
sS'comp_time'
p418
F9.012222290039062e-05
sS'exec_cq'
p419
I2
sS'total_cq'
p420
I2
sasS'total_cqs'
p421
I2
ssI49
(dp422
S'iters'
p423
I3
sS'meta'
p424
(lp425
(dp426
S'objective'
p427
I3
sS'query_time'
p428
F2.0500328540802
sS'comp_time'
p429
F0.0001251697540283203
sS'exec_cq'
p430
I2
sS'total_cq'
p431
I5
sa(dp432
g427
I3
sg428
F4.011123180389404
sg429
F9.584426879882812e-05
sg430
I2
sg431
I3
sa(dp433
g427
I4
sg428
F0.009011983871459961
sg429
F9.608268737792969e-05
sg430
I2
sg431
I2
sasS'total_cqs'
p434
I5
ssI50
(dp435
S'iters'
p436
I4
sS'meta'
p437
(lp438
(dp439
S'objective'
p440
I5
sS'query_time'
p441
F0.010671854019165039
sS'comp_time'
p442
F6.699562072753906e-05
sS'exec_cq'
p443
I1
sS'total_cq'
p444
I5
sa(dp445
g440
I2
sg441
F0.024410009384155273
sg442
F8.106231689453125e-05
sg443
I1
sg444
I4
sa(dp446
g440
I0
sg441
F0.002789020538330078
sg442
F5.1975250244140625e-05
sg443
I1
sg444
I3
sa(dp447
g440
I1
sg441
F0.2027120590209961
sg442
F7.486343383789062e-05
sg443
I1
sg444
I2
sasS'total_cqs'
p448
I5
ssI55
(dp449
S'iters'
p450
I1
sS'meta'
p451
(lp452
(dp453
S'objective'
p454
I1
sS'query_time'
p455
F33.41825890541077
sS'comp_time'
p456
F0.00015497207641601562
sS'exec_cq'
p457
I2
sS'total_cq'
p458
I2
sasS'total_cqs'
p459
I2
ssI57
(dp460
S'iters'
p461
I2
sS'meta'
p462
(lp463
(dp464
S'objective'
p465
I2
sS'query_time'
p466
F2.5710740089416504
sS'comp_time'
p467
F0.0007119178771972656
sS'exec_cq'
p468
I2
sS'total_cq'
p469
I3
sa(dp470
g465
I2
sg466
F12.147928953170776
sg467
F0.00013327598571777344
sg468
I2
sg469
I2
sasS'total_cqs'
p471
I3
ssI116
(dp472
S'iters'
p473
I6
sS'meta'
p474
(lp475
(dp476
S'objective'
p477
I189
sS'query_time'
p478
F1.6580281257629395
sS'comp_time'
p479
F0.00010204315185546875
sS'exec_cq'
p480
I1
sS'total_cq'
p481
I21
sa(dp482
g477
I170
sg478
F0.24316096305847168
sg479
F0.00010704994201660156
sg480
I1
sg481
I20
sa(dp483
g477
I180
sg478
F4.275376081466675
sg479
F0.0005059242248535156
sg480
I15
sg481
I19
sa(dp484
g477
I177
sg478
F0.12816810607910156
sg479
F9.584426879882812e-05
sg480
I15
sg481
I18
sa(dp485
g477
I177
sg478
F1.0528578758239746
sg479
F8.20159912109375e-05
sg480
I16
sg481
I17
sa(dp486
g477
I177
sg478
F0.06658291816711426
sg479
F0.00010776519775390625
sg480
I16
sg481
I16
sasS'total_cqs'
p487
I21
ssI117
(dp488
S'iters'
p489
I2
sS'meta'
p490
(lp491
(dp492
S'objective'
p493
I7
sS'query_time'
p494
F0.007797956466674805
sS'comp_time'
p495
F6.437301635742188e-05
sS'exec_cq'
p496
I2
sS'total_cq'
p497
I5
sa(dp498
g493
I9
sg494
F0.0040209293365478516
sg495
F5.412101745605469e-05
sg496
I4
sg497
I4
sasS'total_cqs'
p499
I5
ss.