(dp0
I1
(dp1
S'iters'
p2
I2
sS'meta'
p3
(lp4
(dp5
S'objective'
p6
I5
sS'query_time'
p7
F17.022549152374268
sS'comp_time'
p8
F0.6820440292358398
sS'exec_cq'
p9
I3
sS'total_cq'
p10
I6
sa(dp11
g6
I4
sg7
F0.16318202018737793
sg8
F0.6470367908477783
sg9
I2
sg10
I2
sasS'total_cqs'
p12
I6
ssI2
(dp13
S'iters'
p14
I1
sS'meta'
p15
(lp16
(dp17
S'objective'
p18
I9
sS'query_time'
p19
F0.8653080463409424
sS'comp_time'
p20
F0.24828481674194336
sS'exec_cq'
p21
I2
sS'total_cq'
p22
I6
sasS'total_cqs'
p23
I6
ssI3
(dp24
S'iters'
p25
I7
sS'meta'
p26
(lp27
(dp28
S'objective'
p29
I423
sS'query_time'
p30
F0.45559000968933105
sS'comp_time'
p31
F0.13905620574951172
sS'exec_cq'
p32
I13
sS'total_cq'
p33
I33
sa(dp34
g29
I346
sg30
F25.502580881118774
sg31
F0.09165287017822266
sg32
I15
sg33
I30
sa(dp35
g29
I327
sg30
F0.003270864486694336
sg31
F0.07967281341552734
sg32
I10
sg33
I27
sa(dp36
g29
I279
sg30
F0.009989023208618164
sg31
F0.07370638847351074
sg32
I12
sg33
I24
sa(dp37
g29
I244
sg30
F0.0036919116973876953
sg31
F0.0172579288482666
sg32
I7
sg33
I21
sa(dp38
g29
I225
sg30
F0.1295299530029297
sg31
F0.060337066650390625
sg32
I9
sg33
I19
sa(dp39
g29
I189
sg30
F0.0035500526428222656
sg31
F0.016451120376586914
sg32
I5
sg33
I16
sasS'total_cqs'
p40
I33
ssI4
(dp41
S'iters'
p42
I0
sS'meta'
p43
(lp44
sS'total_cqs'
p45
I1
ssI5
(dp46
S'iters'
p47
I0
sS'meta'
p48
(lp49
sS'total_cqs'
p50
I1
ssI6
(dp51
S'iters'
p52
I3
sS'meta'
p53
(lp54
(dp55
S'objective'
p56
I1
sS'query_time'
p57
F15.05024003982544
sS'comp_time'
p58
F0.005851268768310547
sS'exec_cq'
p59
I4
sS'total_cq'
p60
I5
sa(dp61
g56
I4
sg57
F0.00038814544677734375
sg58
F0.0018680095672607422
sg59
I2
sg60
I3
sa(dp62
g56
I4
sg57
F3.886222839355469e-05
sg58
F0.0003066062927246094
sg59
I1
sg60
I2
sasS'total_cqs'
p63
I5
ssI7
(dp64
S'iters'
p65
I0
sS'meta'
p66
(lp67
sS'total_cqs'
p68
I1
ssI8
(dp69
S'iters'
p70
I2
sS'meta'
p71
(lp72
(dp73
S'objective'
p74
I11
sS'query_time'
p75
F23.290966033935547
sS'comp_time'
p76
F0.35144615173339844
sS'exec_cq'
p77
I5
sS'total_cq'
p78
I6
sa(dp79
g74
I4
sg75
F0.09045100212097168
sg76
F0.08669543266296387
sg77
I4
sg78
I5
sasS'total_cqs'
p80
I6
ssI9
(dp81
S'iters'
p82
I2
sS'meta'
p83
(lp84
(dp85
S'objective'
p86
I1
sS'query_time'
p87
F11.454071998596191
sS'comp_time'
p88
F0.4367678165435791
sS'exec_cq'
p89
I3
sS'total_cq'
p90
I6
sa(dp91
g86
I2
sg87
F0.05598902702331543
sg88
F0.47194981575012207
sg89
I3
sg90
I3
sasS'total_cqs'
p92
I6
ssI10
(dp93
S'iters'
p94
I0
sS'meta'
p95
(lp96
sS'total_cqs'
p97
I1
ssI11
(dp98
S'iters'
p99
I0
sS'meta'
p100
(lp101
sS'total_cqs'
p102
I1
ssI12
(dp103
S'iters'
p104
I0
sS'meta'
p105
(lp106
sS'total_cqs'
p107
I1
ssI13
(dp108
S'iters'
p109
I1
sS'meta'
p110
(lp111
(dp112
S'objective'
p113
I20
sS'query_time'
p114
F0.016505002975463867
sS'comp_time'
p115
F0.010259151458740234
sS'exec_cq'
p116
I6
sS'total_cq'
p117
I8
sasS'total_cqs'
p118
I8
ssI14
(dp119
S'iters'
p120
I1
sS'meta'
p121
(lp122
(dp123
S'objective'
p124
I5
sS'query_time'
p125
F0.9321730136871338
sS'comp_time'
p126
F0.008745908737182617
sS'exec_cq'
p127
I5
sS'total_cq'
p128
I5
sasS'total_cqs'
p129
I5
ssI16
(dp130
S'iters'
p131
I2
sS'meta'
p132
(lp133
(dp134
S'objective'
p135
I3
sS'query_time'
p136
F1.239382028579712
sS'comp_time'
p137
F0.011385202407836914
sS'exec_cq'
p138
I4
sS'total_cq'
p139
I5
sa(dp140
g135
I1
sg136
F0.001065969467163086
sg137
F0.006471157073974609
sg138
I2
sg139
I2
sasS'total_cqs'
p141
I5
ssI17
(dp142
S'iters'
p143
I0
sS'meta'
p144
(lp145
sS'total_cqs'
p146
I1
ssI18
(dp147
S'iters'
p148
I3
sS'meta'
p149
(lp150
(dp151
S'objective'
p152
I1
sS'query_time'
p153
F0.1980149745941162
sS'comp_time'
p154
F0.0049266815185546875
sS'exec_cq'
p155
I4
sS'total_cq'
p156
I5
sa(dp157
g152
I4
sg153
F4.696846008300781e-05
sg154
F0.00030350685119628906
sg155
I2
sg156
I3
sa(dp158
g152
I4
sg153
F0.024290084838867188
sg154
F0.0002732276916503906
sg155
I2
sg156
I2
sasS'total_cqs'
p159
I5
ssI19
(dp160
S'iters'
p161
I0
sS'meta'
p162
(lp163
sS'total_cqs'
p164
I1
ssI20
(dp165
S'iters'
p166
I6
sS'meta'
p167
(lp168
(dp169
S'objective'
p170
I58
sS'query_time'
p171
F9.49445104598999
sS'comp_time'
p172
F1.3760669231414795
sS'exec_cq'
p173
I6
sS'total_cq'
p174
I12
sa(dp175
g170
I44
sg171
F4.161473989486694
sg172
F0.535412073135376
sg173
I4
sg174
I10
sa(dp176
g170
I38
sg171
F0.1622469425201416
sg172
F0.9808981418609619
sg173
I4
sg174
I8
sa(dp177
g170
I27
sg171
F2.2172927856445312e-05
sg172
F0.0001556873321533203
sg173
I2
sg174
I6
sa(dp178
g170
I27
sg171
F0.17492103576660156
sg172
F0.7509539127349854
sg173
I2
sg174
I5
sa(dp179
g170
I8
sg171
F0.0897071361541748
sg172
F0.004521846771240234
sg173
I1
sg174
I4
sasS'total_cqs'
p180
I12
ssI21
(dp181
S'iters'
p182
I4
sS'meta'
p183
(lp184
(dp185
S'objective'
p186
I37
sS'query_time'
p187
F30.93893599510193
sS'comp_time'
p188
F0.4650449752807617
sS'exec_cq'
p189
I8
sS'total_cq'
p190
I14
sa(dp191
g186
I9
sg187
F30.11792302131653
sg188
F1.8378562927246094
sg189
I4
sg190
I10
sa(dp192
g186
I2
sg187
F0.009540081024169922
sg188
F0.06944084167480469
sg189
I4
sg190
I6
sa(dp193
g186
I7
sg187
F0.015552997589111328
sg188
F0.00025153160095214844
sg189
I1
sg190
I4
sasS'total_cqs'
p194
I14
ssI22
(dp195
S'iters'
p196
I1
sS'meta'
p197
(lp198
(dp199
S'objective'
p200
I1
sS'query_time'
p201
F0.004314899444580078
sS'comp_time'
p202
F0.0009341239929199219
sS'exec_cq'
p203
I1
sS'total_cq'
p204
I2
sasS'total_cqs'
p205
I2
ssI23
(dp206
S'iters'
p207
I0
sS'meta'
p208
(lp209
sS'total_cqs'
p210
I1
ssI24
(dp211
S'iters'
p212
I0
sS'meta'
p213
(lp214
sS'total_cqs'
p215
I1
ssI25
(dp216
S'iters'
p217
I4
sS'meta'
p218
(lp219
(dp220
S'objective'
p221
I6
sS'query_time'
p222
F8.001267910003662
sS'comp_time'
p223
F0.48099613189697266
sS'exec_cq'
p224
I2
sS'total_cq'
p225
I7
sa(dp226
g221
I7
sg222
F82.83917713165283
sg223
F14.690624713897705
sg224
I4
sg225
I5
sa(dp227
g221
I10
sg222
F2.3402819633483887
sg223
F9.256099700927734
sg224
I2
sg225
I3
sa(dp228
g221
I3
sg222
F0.011934041976928711
sg223
F0.060311079025268555
sg224
I1
sg225
I2
sasS'total_cqs'
p229
I7
ssI26
(dp230
S'iters'
p231
I4
sS'meta'
p232
(lp233
(dp234
S'objective'
p235
I71
sS'query_time'
p236
F0.2583799362182617
sS'comp_time'
p237
F0.03304100036621094
sS'exec_cq'
p238
I4
sS'total_cq'
p239
I13
sa(dp240
g235
I57
sg236
F23.077396154403687
sg237
F4.740050792694092
sg238
I3
sg239
I12
sa(dp241
g235
I37
sg236
F3.3402700424194336
sg237
F0.01481771469116211
sg238
I2
sg239
I11
sa(dp242
g235
I27
sg236
F0.0040721893310546875
sg237
F0.00016617774963378906
sg238
I1
sg239
I9
sasS'total_cqs'
p243
I13
ssI27
(dp244
S'iters'
p245
I1
sS'meta'
p246
(lp247
(dp248
S'objective'
p249
I1
sS'query_time'
p250
F0.1967010498046875
sS'comp_time'
p251
F0.007529735565185547
sS'exec_cq'
p252
I1
sS'total_cq'
p253
I2
sasS'total_cqs'
p254
I2
ssI28
(dp255
S'iters'
p256
I3
sS'meta'
p257
(lp258
(dp259
S'objective'
p260
I79
sS'query_time'
p261
F1.3721990585327148
sS'comp_time'
p262
F0.15635943412780762
sS'exec_cq'
p263
I6
sS'total_cq'
p264
I14
sa(dp265
g260
I70
sg261
F0.04844403266906738
sg262
F0.012753963470458984
sg263
I2
sg264
I12
sa(dp266
g260
I53
sg261
F0.01899099349975586
sg262
F0.00015282630920410156
sg263
I1
sg264
I11
sasS'total_cqs'
p267
I14
ssI29
(dp268
S'iters'
p269
I1
sS'meta'
p270
(lp271
(dp272
S'objective'
p273
I1
sS'query_time'
p274
F0.018881797790527344
sS'comp_time'
p275
F0.0016629695892333984
sS'exec_cq'
p276
I2
sS'total_cq'
p277
I2
sasS'total_cqs'
p278
I2
ssI30
(dp279
S'iters'
p280
I1
sS'meta'
p281
(lp282
(dp283
S'objective'
p284
I1
sS'query_time'
p285
F0.3434789180755615
sS'comp_time'
p286
F0.004351377487182617
sS'exec_cq'
p287
I2
sS'total_cq'
p288
I2
sasS'total_cqs'
p289
I2
ssI31
(dp290
S'iters'
p291
I2
sS'meta'
p292
(lp293
(dp294
S'objective'
p295
I1
sS'query_time'
p296
F1.522907018661499
sS'comp_time'
p297
F0.06249690055847168
sS'exec_cq'
p298
I5
sS'total_cq'
p299
I9
sa(dp300
g295
I5
sg296
F0.010776042938232422
sg297
F0.11431026458740234
sg298
I3
sg299
I3
sasS'total_cqs'
p301
I9
ssI32
(dp302
S'iters'
p303
I3
sS'meta'
p304
(lp305
(dp306
S'objective'
p307
I10
sS'query_time'
p308
F20.485536098480225
sS'comp_time'
p309
F4.30851411819458
sS'exec_cq'
p310
I4
sS'total_cq'
p311
I7
sa(dp312
g307
I1
sg308
F0.9952099323272705
sg309
F0.021915197372436523
sg310
I2
sg311
I4
sa(dp313
g307
I4
sg308
F0.23543715476989746
sg309
F0.2708611488342285
sg310
I1
sg311
I2
sasS'total_cqs'
p314
I7
ssI33
(dp315
S'iters'
p316
I1
sS'meta'
p317
(lp318
(dp319
S'objective'
p320
I1
sS'query_time'
p321
F0.022528886795043945
sS'comp_time'
p322
F0.0025589466094970703
sS'exec_cq'
p323
I2
sS'total_cq'
p324
I2
sasS'total_cqs'
p325
I2
ssI34
(dp326
S'iters'
p327
I0
sS'meta'
p328
(lp329
sS'total_cqs'
p330
I1
ssI35
(dp331
S'iters'
p332
I2
sS'meta'
p333
(lp334
(dp335
S'objective'
p336
I1
sS'query_time'
p337
F13.048055171966553
sS'comp_time'
p338
F0.2640857696533203
sS'exec_cq'
p339
I4
sS'total_cq'
p340
I5
sa(dp341
g336
I2
sg337
F0.077239990234375
sg338
F0.06573677062988281
sg339
I2
sg340
I3
sasS'total_cqs'
p342
I5
ssI37
(dp343
S'iters'
p344
I3
sS'meta'
p345
(lp346
(dp347
S'objective'
p348
I39
sS'query_time'
p349
F1.2726030349731445
sS'comp_time'
p350
F0.18953299522399902
sS'exec_cq'
p351
I4
sS'total_cq'
p352
I10
sa(dp353
g348
I15
sg349
F0.4192991256713867
sg350
F0.01670384407043457
sg351
I4
sg352
I9
sa(dp354
g348
I4
sg349
F0.002746105194091797
sg350
F0.014440774917602539
sg351
I2
sg352
I2
sasS'total_cqs'
p355
I10
ssI38
(dp356
S'iters'
p357
I0
sS'meta'
p358
(lp359
sS'total_cqs'
p360
I1
ssI39
(dp361
S'iters'
p362
I0
sS'meta'
p363
(lp364
sS'total_cqs'
p365
I1
ssI40
(dp366
S'iters'
p367
I1
sS'meta'
p368
(lp369
(dp370
S'objective'
p371
I1
sS'query_time'
p372
F0.002546072006225586
sS'comp_time'
p373
F0.001007080078125
sS'exec_cq'
p374
I1
sS'total_cq'
p375
I2
sasS'total_cqs'
p376
I2
ssI41
(dp377
S'iters'
p378
I2
sS'meta'
p379
(lp380
(dp381
S'objective'
p382
I1
sS'query_time'
p383
F1.1350209712982178
sS'comp_time'
p384
F0.007972002029418945
sS'exec_cq'
p385
I2
sS'total_cq'
p386
I6
sa(dp387
g382
I2
sg383
F0.0006539821624755859
sg384
F0.0039010047912597656
sg385
I2
sg386
I2
sasS'total_cqs'
p388
I6
ssI42
(dp389
S'iters'
p390
I1
sS'meta'
p391
(lp392
(dp393
S'objective'
p394
I1
sS'query_time'
p395
F0.013622045516967773
sS'comp_time'
p396
F0.0006768703460693359
sS'exec_cq'
p397
I1
sS'total_cq'
p398
I2
sasS'total_cqs'
p399
I2
ssI43
(dp400
S'iters'
p401
I0
sS'meta'
p402
(lp403
sS'total_cqs'
p404
I1
ssI44
(dp405
S'iters'
p406
I3
sS'meta'
p407
(lp408
(dp409
S'objective'
p410
I3
sS'query_time'
p411
F0.3107118606567383
sS'comp_time'
p412
F0.004335165023803711
sS'exec_cq'
p413
I2
sS'total_cq'
p414
I5
sa(dp415
g410
I3
sg411
F1.058210849761963
sg412
F0.15509295463562012
sg413
I2
sg414
I3
sa(dp416
g410
I4
sg411
F7.295608520507812e-05
sg412
F0.00044989585876464844
sg413
I1
sg414
I2
sasS'total_cqs'
p417
I5
ssI45
(dp418
S'iters'
p419
I2
sS'meta'
p420
(lp421
(dp422
S'objective'
p423
I1
sS'query_time'
p424
F0.04831099510192871
sS'comp_time'
p425
F0.0028123855590820312
sS'exec_cq'
p426
I3
sS'total_cq'
p427
I5
sa(dp428
g423
I3
sg424
F0.00015783309936523438
sg425
F0.0006682872772216797
sg426
I2
sg427
I2
sasS'total_cqs'
p429
I5
ssI46
(dp430
S'iters'
p431
I0
sS'meta'
p432
(lp433
sS'total_cqs'
p434
I1
ssI47
(dp435
S'iters'
p436
I0
sS'meta'
p437
(lp438
sS'total_cqs'
p439
I1
ssI48
(dp440
S'iters'
p441
I1
sS'meta'
p442
(lp443
(dp444
S'objective'
p445
I1
sS'query_time'
p446
F0.1437690258026123
sS'comp_time'
p447
F0.0052030086517333984
sS'exec_cq'
p448
I2
sS'total_cq'
p449
I2
sasS'total_cqs'
p450
I2
ssI49
(dp451
S'iters'
p452
I2
sS'meta'
p453
(lp454
(dp455
S'objective'
p456
I3
sS'query_time'
p457
F0.24043512344360352
sS'comp_time'
p458
F0.007176876068115234
sS'exec_cq'
p459
I4
sS'total_cq'
p460
I5
sa(dp461
g456
I4
sg457
F0.00030303001403808594
sg458
F0.0017349720001220703
sg459
I2
sg460
I2
sasS'total_cqs'
p462
I5
ssI50
(dp463
S'iters'
p464
I1
sS'meta'
p465
(lp466
(dp467
S'objective'
p468
I5
sS'query_time'
p469
F0.5619189739227295
sS'comp_time'
p470
F0.00463104248046875
sS'exec_cq'
p471
I5
sS'total_cq'
p472
I5
sasS'total_cqs'
p473
I5
ssI51
(dp474
S'iters'
p475
I0
sS'meta'
p476
(lp477
sS'total_cqs'
p478
I1
ssI52
(dp479
S'iters'
p480
I0
sS'meta'
p481
(lp482
sS'total_cqs'
p483
I1
ssI53
(dp484
S'iters'
p485
I0
sS'meta'
p486
(lp487
sS'total_cqs'
p488
I1
ssI55
(dp489
S'iters'
p490
I1
sS'meta'
p491
(lp492
(dp493
S'objective'
p494
I1
sS'query_time'
p495
F23.926403999328613
sS'comp_time'
p496
F2.671700954437256
sS'exec_cq'
p497
I2
sS'total_cq'
p498
I2
sasS'total_cqs'
p499
I2
ssI56
(dp500
S'iters'
p501
I0
sS'meta'
p502
(lp503
sS'total_cqs'
p504
I1
ssI57
(dp505
S'iters'
p506
I1
sS'meta'
p507
(lp508
(dp509
S'objective'
p510
I0
sS'query_time'
p511
F12.765403032302856
sS'comp_time'
p512
F2.790308952331543
sS'exec_cq'
p513
I2
sS'total_cq'
p514
I3
sasS'total_cqs'
p515
I3
ssI108
(dp516
S'iters'
p517
I0
sS'meta'
p518
(lp519
sS'total_cqs'
p520
I1
ssI109
(dp521
S'iters'
p522
I0
sS'meta'
p523
(lp524
sS'total_cqs'
p525
I1
ssI116
(dp526
S'iters'
p527
I2
sS'meta'
p528
(lp529
(dp530
S'objective'
p531
I183
sS'query_time'
p532
F0.539139986038208
sS'comp_time'
p533
F0.02041482925415039
sS'exec_cq'
p534
I14
sS'total_cq'
p535
I21
sa(dp536
g531
I18
sg532
F0.0015130043029785156
sg533
F0.012817859649658203
sg534
I2
sg535
I2
sasS'total_cqs'
p537
I21
ssI117
(dp538
S'iters'
p539
I2
sS'meta'
p540
(lp541
(dp542
S'objective'
p543
I11
sS'query_time'
p544
F0.012835025787353516
sS'comp_time'
p545
F0.0016400814056396484
sS'exec_cq'
p546
I3
sS'total_cq'
p547
I5
sa(dp548
g543
I3
sg544
F0.002637147903442383
sg545
F0.00020360946655273438
sg546
I1
sg547
I4
sasS'total_cqs'
p549
I5
ssI118
(dp550
S'iters'
p551
I0
sS'meta'
p552
(lp553
sS'total_cqs'
p554
I1
ssI122
(dp555
S'iters'
p556
I0
sS'meta'
p557
(lp558
sS'total_cqs'
p559
I1
ss.