(dp0
I1
(dp1
S'iters'
p2
I2
sS'meta'
p3
(lp4
(dp5
S'objective'
p6
I5
sS'query_time'
p7
F16.89394783973694
sS'comp_time'
p8
F1.1568760871887207
sS'exec_cq'
p9
I3
sS'total_cq'
p10
I6
sa(dp11
g6
I4
sg7
F0.2104640007019043
sg8
F0.8205549716949463
sg9
I2
sg10
I2
sasS'total_cqs'
p12
I6
ssI2
(dp13
S'iters'
p14
I1
sS'meta'
p15
(lp16
(dp17
S'objective'
p18
I9
sS'query_time'
p19
F0.9247782230377197
sS'comp_time'
p20
F0.1862936019897461
sS'exec_cq'
p21
I2
sS'total_cq'
p22
I6
sasS'total_cqs'
p23
I6
ssI3
(dp24
S'iters'
p25
I8
sS'meta'
p26
(lp27
(dp28
S'objective'
p29
I415
sS'query_time'
p30
F26.117629051208496
sS'comp_time'
p31
F0.4602677822113037
sS'exec_cq'
p32
I15
sS'total_cq'
p33
I33
sa(dp34
g29
I374
sg30
F0.4306650161743164
sg31
F0.020326852798461914
sg32
I13
sg33
I30
sa(dp35
g29
I323
sg30
F0.0034160614013671875
sg31
F0.02105569839477539
sg32
I10
sg33
I27
sa(dp36
g29
I235
sg30
F0.02690601348876953
sg31
F0.4819319248199463
sg32
I12
sg33
I24
sa(dp37
g29
I208
sg30
F0.0032618045806884766
sg31
F0.016093015670776367
sg32
I7
sg33
I21
sa(dp38
g29
I201
sg30
F0.011059999465942383
sg31
F0.1937708854675293
sg32
I9
sg33
I18
sa(dp39
g29
I189
sg30
F0.009678125381469727
sg31
F0.06196451187133789
sg32
I8
sg33
I17
sa(dp40
g29
I157
sg30
F0.002827882766723633
sg31
F0.016697168350219727
sg32
I4
sg33
I16
sasS'total_cqs'
p41
I33
ssI4
(dp42
S'iters'
p43
I0
sS'meta'
p44
(lp45
sS'total_cqs'
p46
I1
ssI5
(dp47
S'iters'
p48
I0
sS'meta'
p49
(lp50
sS'total_cqs'
p51
I1
ssI6
(dp52
S'iters'
p53
I2
sS'meta'
p54
(lp55
(dp56
S'objective'
p57
I1
sS'query_time'
p58
F15.303009033203125
sS'comp_time'
p59
F0.006950855255126953
sS'exec_cq'
p60
I4
sS'total_cq'
p61
I5
sa(dp62
g57
I2
sg58
F0.0006961822509765625
sg59
F0.004076957702636719
sg60
I2
sg61
I3
sasS'total_cqs'
p63
I5
ssI7
(dp64
S'iters'
p65
I0
sS'meta'
p66
(lp67
sS'total_cqs'
p68
I1
ssI8
(dp69
S'iters'
p70
I2
sS'meta'
p71
(lp72
(dp73
S'objective'
p74
I13
sS'query_time'
p75
F23.413015842437744
sS'comp_time'
p76
F0.28632593154907227
sS'exec_cq'
p77
I5
sS'total_cq'
p78
I6
sa(dp79
g74
I5
sg75
F0.09212493896484375
sg76
F0.09036517143249512
sg77
I4
sg78
I5
sasS'total_cqs'
p80
I6
ssI9
(dp81
S'iters'
p82
I2
sS'meta'
p83
(lp84
(dp85
S'objective'
p86
I3
sS'query_time'
p87
F11.269103050231934
sS'comp_time'
p88
F0.5482432842254639
sS'exec_cq'
p89
I3
sS'total_cq'
p90
I6
sa(dp91
g86
I3
sg87
F0.05674099922180176
sg88
F0.5106077194213867
sg89
I2
sg90
I2
sasS'total_cqs'
p92
I6
ssI10
(dp93
S'iters'
p94
I0
sS'meta'
p95
(lp96
sS'total_cqs'
p97
I1
ssI11
(dp98
S'iters'
p99
I0
sS'meta'
p100
(lp101
sS'total_cqs'
p102
I1
ssI12
(dp103
S'iters'
p104
I0
sS'meta'
p105
(lp106
sS'total_cqs'
p107
I1
ssI13
(dp108
S'iters'
p109
I2
sS'meta'
p110
(lp111
(dp112
S'objective'
p113
I20
sS'query_time'
p114
F0.019090890884399414
sS'comp_time'
p115
F0.008650779724121094
sS'exec_cq'
p116
I6
sS'total_cq'
p117
I8
sa(dp118
g113
I14
sg114
F2.7179718017578125e-05
sg115
F0.00010776519775390625
sg116
I5
sg117
I7
sasS'total_cqs'
p119
I8
ssI14
(dp120
S'iters'
p121
I1
sS'meta'
p122
(lp123
(dp124
S'objective'
p125
I5
sS'query_time'
p126
F1.0028679370880127
sS'comp_time'
p127
F0.008829832077026367
sS'exec_cq'
p128
I5
sS'total_cq'
p129
I5
sasS'total_cqs'
p130
I5
ssI16
(dp131
S'iters'
p132
I2
sS'meta'
p133
(lp134
(dp135
S'objective'
p136
I3
sS'query_time'
p137
F1.164989948272705
sS'comp_time'
p138
F0.01208806037902832
sS'exec_cq'
p139
I4
sS'total_cq'
p140
I5
sa(dp141
g136
I4
sg137
F0.0011758804321289062
sg138
F0.0073757171630859375
sg139
I2
sg140
I2
sasS'total_cqs'
p142
I5
ssI17
(dp143
S'iters'
p144
I0
sS'meta'
p145
(lp146
sS'total_cqs'
p147
I1
ssI18
(dp148
S'iters'
p149
I3
sS'meta'
p150
(lp151
(dp152
S'objective'
p153
I1
sS'query_time'
p154
F0.21994519233703613
sS'comp_time'
p155
F0.004404306411743164
sS'exec_cq'
p156
I4
sS'total_cq'
p157
I5
sa(dp158
g153
I4
sg154
F4.00543212890625e-05
sg155
F0.0002810955047607422
sg156
I2
sg157
I3
sa(dp159
g153
I4
sg154
F0.04168987274169922
sg155
F0.0002052783966064453
sg156
I1
sg157
I2
sasS'total_cqs'
p160
I5
ssI19
(dp161
S'iters'
p162
I0
sS'meta'
p163
(lp164
sS'total_cqs'
p165
I1
ssI20
(dp166
S'iters'
p167
I5
sS'meta'
p168
(lp169
(dp170
S'objective'
p171
I48
sS'query_time'
p172
F9.226423978805542
sS'comp_time'
p173
F1.3604059219360352
sS'exec_cq'
p174
I6
sS'total_cq'
p175
I12
sa(dp176
g171
I47
sg172
F0.22432398796081543
sg173
F1.104956865310669
sg174
I4
sg175
I10
sa(dp177
g171
I31
sg172
F4.5337748527526855
sg173
F0.3944878578186035
sg174
I4
sg175
I8
sa(dp178
g171
I35
sg172
F0.08188486099243164
sg173
F0.8591451644897461
sg174
I2
sg175
I6
sa(dp179
g171
I19
sg172
F0.0965278148651123
sg173
F0.004318952560424805
sg174
I2
sg175
I5
sasS'total_cqs'
p180
I12
ssI21
(dp181
S'iters'
p182
I5
sS'meta'
p183
(lp184
(dp185
S'objective'
p186
I35
sS'query_time'
p187
F29.49651312828064
sS'comp_time'
p188
F0.280775785446167
sS'exec_cq'
p189
I8
sS'total_cq'
p190
I14
sa(dp191
g186
I8
sg187
F29.672471046447754
sg188
F1.898942232131958
sg189
I4
sg190
I10
sa(dp192
g186
I23
sg187
F0.00922703742980957
sg188
F0.06301403045654297
sg189
I4
sg190
I6
sa(dp193
g186
I5
sg187
F0.0013120174407958984
sg188
F0.009065389633178711
sg189
I2
sg190
I4
sa(dp194
g186
I11
sg187
F0.012920856475830078
sg188
F0.00021004676818847656
sg189
I1
sg190
I2
sasS'total_cqs'
p195
I14
ssI22
(dp196
S'iters'
p197
I1
sS'meta'
p198
(lp199
(dp200
S'objective'
p201
I1
sS'query_time'
p202
F0.00848698616027832
sS'comp_time'
p203
F0.0017514228820800781
sS'exec_cq'
p204
I1
sS'total_cq'
p205
I2
sasS'total_cqs'
p206
I2
ssI23
(dp207
S'iters'
p208
I0
sS'meta'
p209
(lp210
sS'total_cqs'
p211
I1
ssI24
(dp212
S'iters'
p213
I0
sS'meta'
p214
(lp215
sS'total_cqs'
p216
I1
ssI25
(dp217
S'iters'
p218
I4
sS'meta'
p219
(lp220
(dp221
S'objective'
p222
I16
sS'query_time'
p223
F47.59736704826355
sS'comp_time'
p224
F4.982748508453369
sS'exec_cq'
p225
I4
sS'total_cq'
p226
I7
sa(dp227
g222
I6
sg223
F4.537879943847656
sg224
F0.3079829216003418
sg225
I2
sg226
I5
sa(dp228
g222
I2
sg223
F0.07450366020202637
sg224
F0.11597728729248047
sg225
I2
sg226
I3
sa(dp229
g222
I6
sg223
F0.008707046508789062
sg224
F0.046364784240722656
sg225
I1
sg226
I2
sasS'total_cqs'
p230
I7
ssI26
(dp231
S'iters'
p232
I6
sS'meta'
p233
(lp234
(dp235
S'objective'
p236
I67
sS'query_time'
p237
F0.2691628932952881
sS'comp_time'
p238
F0.026943683624267578
sS'exec_cq'
p239
I4
sS'total_cq'
p240
I13
sa(dp241
g236
I33
sg237
F0.015099048614501953
sg238
F0.00023984909057617188
sg239
I2
sg240
I12
sa(dp242
g236
I42
sg237
F23.504119873046875
sg238
F4.738831281661987
sg239
I3
sg240
I10
sa(dp243
g236
I21
sg237
F3.2133259773254395
sg238
F0.014020204544067383
sg239
I2
sg240
I9
sa(dp244
g236
I13
sg237
F0.0012860298156738281
sg238
F0.005898475646972656
sg239
I3
sg240
I7
sa(dp245
g236
I2
sg237
F0.0035529136657714844
sg238
F9.083747863769531e-05
sg239
I1
sg240
I5
sasS'total_cqs'
p246
I13
ssI27
(dp247
S'iters'
p248
I1
sS'meta'
p249
(lp250
(dp251
S'objective'
p252
I1
sS'query_time'
p253
F0.20275402069091797
sS'comp_time'
p254
F0.007581949234008789
sS'exec_cq'
p255
I1
sS'total_cq'
p256
I2
sasS'total_cqs'
p257
I2
ssI28
(dp258
S'iters'
p259
I4
sS'meta'
p260
(lp261
(dp262
S'objective'
p263
I43
sS'query_time'
p264
F1.4667751789093018
sS'comp_time'
p265
F0.22764086723327637
sS'exec_cq'
p266
I6
sS'total_cq'
p267
I14
sa(dp268
g263
I38
sg264
F0.004687070846557617
sg265
F0.026470422744750977
sg266
I3
sg267
I11
sa(dp269
g263
I28
sg264
F0.005722999572753906
sg265
F0.0001506805419921875
sg266
I2
sg267
I9
sa(dp270
g263
I18
sg264
F0.0024259090423583984
sg265
F0.00013756752014160156
sg266
I1
sg267
I8
sasS'total_cqs'
p271
I14
ssI29
(dp272
S'iters'
p273
I1
sS'meta'
p274
(lp275
(dp276
S'objective'
p277
I1
sS'query_time'
p278
F0.007505893707275391
sS'comp_time'
p279
F0.0018768310546875
sS'exec_cq'
p280
I2
sS'total_cq'
p281
I2
sasS'total_cqs'
p282
I2
ssI30
(dp283
S'iters'
p284
I1
sS'meta'
p285
(lp286
(dp287
S'objective'
p288
I1
sS'query_time'
p289
F0.3442850112915039
sS'comp_time'
p290
F0.004278898239135742
sS'exec_cq'
p291
I2
sS'total_cq'
p292
I2
sasS'total_cqs'
p293
I2
ssI31
(dp294
S'iters'
p295
I2
sS'meta'
p296
(lp297
(dp298
S'objective'
p299
I5
sS'query_time'
p300
F1.580960988998413
sS'comp_time'
p301
F0.06113886833190918
sS'exec_cq'
p302
I5
sS'total_cq'
p303
I9
sa(dp304
g299
I4
sg300
F0.011022090911865234
sg301
F0.13703632354736328
sg302
I3
sg303
I3
sasS'total_cqs'
p305
I9
ssI32
(dp306
S'iters'
p307
I3
sS'meta'
p308
(lp309
(dp310
S'objective'
p311
I10
sS'query_time'
p312
F20.597898960113525
sS'comp_time'
p313
F4.473423957824707
sS'exec_cq'
p314
I4
sS'total_cq'
p315
I7
sa(dp316
g311
I1
sg312
F0.9729609489440918
sg313
F0.02086782455444336
sg314
I2
sg315
I4
sa(dp317
g311
I5
sg312
F0.43413400650024414
sg313
F1.5935511589050293
sg314
I1
sg315
I2
sasS'total_cqs'
p318
I7
ssI33
(dp319
S'iters'
p320
I1
sS'meta'
p321
(lp322
(dp323
S'objective'
p324
I1
sS'query_time'
p325
F0.02178812026977539
sS'comp_time'
p326
F0.0025529861450195312
sS'exec_cq'
p327
I2
sS'total_cq'
p328
I2
sasS'total_cqs'
p329
I2
ssI34
(dp330
S'iters'
p331
I0
sS'meta'
p332
(lp333
sS'total_cqs'
p334
I1
ssI35
(dp335
S'iters'
p336
I2
sS'meta'
p337
(lp338
(dp339
S'objective'
p340
I1
sS'query_time'
p341
F13.779737949371338
sS'comp_time'
p342
F0.25829505920410156
sS'exec_cq'
p343
I4
sS'total_cq'
p344
I5
sa(dp345
g340
I3
sg341
F0.0753030776977539
sg342
F0.06159353256225586
sg343
I2
sg344
I2
sasS'total_cqs'
p346
I5
ssI37
(dp347
S'iters'
p348
I3
sS'meta'
p349
(lp350
(dp351
S'objective'
p352
I35
sS'query_time'
p353
F1.3661141395568848
sS'comp_time'
p354
F0.24838614463806152
sS'exec_cq'
p355
I4
sS'total_cq'
p356
I10
sa(dp357
g352
I17
sg353
F0.4794020652770996
sg354
F0.02193427085876465
sg355
I4
sg356
I9
sa(dp358
g352
I4
sg353
F0.00372314453125
sg354
F0.01978302001953125
sg355
I2
sg356
I2
sasS'total_cqs'
p359
I10
ssI38
(dp360
S'iters'
p361
I0
sS'meta'
p362
(lp363
sS'total_cqs'
p364
I1
ssI39
(dp365
S'iters'
p366
I0
sS'meta'
p367
(lp368
sS'total_cqs'
p369
I1
ssI40
(dp370
S'iters'
p371
I1
sS'meta'
p372
(lp373
(dp374
S'objective'
p375
I1
sS'query_time'
p376
F0.0026581287384033203
sS'comp_time'
p377
F0.0005402565002441406
sS'exec_cq'
p378
I1
sS'total_cq'
p379
I2
sasS'total_cqs'
p380
I2
ssI41
(dp381
S'iters'
p382
I2
sS'meta'
p383
(lp384
(dp385
S'objective'
p386
I5
sS'query_time'
p387
F0.9138569831848145
sS'comp_time'
p388
F0.007269859313964844
sS'exec_cq'
p389
I2
sS'total_cq'
p390
I6
sa(dp391
g386
I4
sg387
F0.0006480216979980469
sg388
F0.0037081241607666016
sg389
I2
sg390
I2
sasS'total_cqs'
p392
I6
ssI42
(dp393
S'iters'
p394
I1
sS'meta'
p395
(lp396
(dp397
S'objective'
p398
I1
sS'query_time'
p399
F0.00840902328491211
sS'comp_time'
p400
F0.0013208389282226562
sS'exec_cq'
p401
I1
sS'total_cq'
p402
I2
sasS'total_cqs'
p403
I2
ssI43
(dp404
S'iters'
p405
I0
sS'meta'
p406
(lp407
sS'total_cqs'
p408
I1
ssI44
(dp409
S'iters'
p410
I3
sS'meta'
p411
(lp412
(dp413
S'objective'
p414
I3
sS'query_time'
p415
F0.19557905197143555
sS'comp_time'
p416
F0.06065487861633301
sS'exec_cq'
p417
I2
sS'total_cq'
p418
I5
sa(dp419
g414
I3
sg415
F1.1178419589996338
sg416
F0.24008727073669434
sg417
I2
sg418
I3
sa(dp420
g414
I4
sg415
F0.018468856811523438
sg416
F0.20254302024841309
sg417
I1
sg418
I2
sasS'total_cqs'
p421
I5
ssI45
(dp422
S'iters'
p423
I2
sS'meta'
p424
(lp425
(dp426
S'objective'
p427
I1
sS'query_time'
p428
F0.03960704803466797
sS'comp_time'
p429
F0.003715991973876953
sS'exec_cq'
p430
I3
sS'total_cq'
p431
I5
sa(dp432
g427
I2
sg428
F0.000202178955078125
sg429
F0.06333804130554199
sg430
I2
sg431
I2
sasS'total_cqs'
p433
I5
ssI46
(dp434
S'iters'
p435
I0
sS'meta'
p436
(lp437
sS'total_cqs'
p438
I1
ssI47
(dp439
S'iters'
p440
I0
sS'meta'
p441
(lp442
sS'total_cqs'
p443
I1
ssI48
(dp444
S'iters'
p445
I1
sS'meta'
p446
(lp447
(dp448
S'objective'
p449
I1
sS'query_time'
p450
F0.09047794342041016
sS'comp_time'
p451
F0.006548166275024414
sS'exec_cq'
p452
I2
sS'total_cq'
p453
I2
sasS'total_cqs'
p454
I2
ssI49
(dp455
S'iters'
p456
I2
sS'meta'
p457
(lp458
(dp459
S'objective'
p460
I1
sS'query_time'
p461
F0.2554748058319092
sS'comp_time'
p462
F0.006437778472900391
sS'exec_cq'
p463
I4
sS'total_cq'
p464
I5
sa(dp465
g460
I2
sg461
F0.0012581348419189453
sg462
F0.003335237503051758
sg463
I3
sg464
I3
sasS'total_cqs'
p466
I5
ssI50
(dp467
S'iters'
p468
I1
sS'meta'
p469
(lp470
(dp471
S'objective'
p472
I5
sS'query_time'
p473
F0.7955269813537598
sS'comp_time'
p474
F0.015878915786743164
sS'exec_cq'
p475
I5
sS'total_cq'
p476
I5
sasS'total_cqs'
p477
I5
ssI51
(dp478
S'iters'
p479
I0
sS'meta'
p480
(lp481
sS'total_cqs'
p482
I1
ssI52
(dp483
S'iters'
p484
I0
sS'meta'
p485
(lp486
sS'total_cqs'
p487
I1
ssI53
(dp488
S'iters'
p489
I0
sS'meta'
p490
(lp491
sS'total_cqs'
p492
I1
ssI55
(dp493
S'iters'
p494
I1
sS'meta'
p495
(lp496
(dp497
S'objective'
p498
I1
sS'query_time'
p499
F24.097811937332153
sS'comp_time'
p500
F2.9208507537841797
sS'exec_cq'
p501
I2
sS'total_cq'
p502
I2
sasS'total_cqs'
p503
I2
ssI56
(dp504
S'iters'
p505
I0
sS'meta'
p506
(lp507
sS'total_cqs'
p508
I1
ssI57
(dp509
S'iters'
p510
I1
sS'meta'
p511
(lp512
(dp513
S'objective'
p514
I2
sS'query_time'
p515
F12.26833987236023
sS'comp_time'
p516
F2.5684618949890137
sS'exec_cq'
p517
I2
sS'total_cq'
p518
I3
sasS'total_cqs'
p519
I3
ssI108
(dp520
S'iters'
p521
I0
sS'meta'
p522
(lp523
sS'total_cqs'
p524
I1
ssI109
(dp525
S'iters'
p526
I0
sS'meta'
p527
(lp528
sS'total_cqs'
p529
I1
ssI116
(dp530
S'iters'
p531
I2
sS'meta'
p532
(lp533
(dp534
S'objective'
p535
I181
sS'query_time'
p536
F0.5804829597473145
sS'comp_time'
p537
F0.0191648006439209
sS'exec_cq'
p538
I14
sS'total_cq'
p539
I21
sa(dp540
g535
I9
sg536
F0.0006930828094482422
sg537
F0.007266998291015625
sg538
I2
sg539
I2
sasS'total_cqs'
p541
I21
ssI117
(dp542
S'iters'
p543
I2
sS'meta'
p544
(lp545
(dp546
S'objective'
p547
I13
sS'query_time'
p548
F0.0070569515228271484
sS'comp_time'
p549
F0.0019359588623046875
sS'exec_cq'
p550
I3
sS'total_cq'
p551
I5
sa(dp552
g547
I4
sg548
F0.0031080245971679688
sg549
F0.00010991096496582031
sg550
I3
sg551
I4
sasS'total_cqs'
p553
I5
ssI118
(dp554
S'iters'
p555
I0
sS'meta'
p556
(lp557
sS'total_cqs'
p558
I1
ssI122
(dp559
S'iters'
p560
I0
sS'meta'
p561
(lp562
sS'total_cqs'
p563
I1
ss.