(dp0
I1
(dp1
S'iters'
p2
I2
sS'meta'
p3
(lp4
(dp5
S'objective'
p6
I2
sS'query_time'
p7
F7.729724884033203
sS'comp_time'
p8
F7.104873657226562e-05
sS'exec_cq'
p9
I1
sS'total_cq'
p10
I6
sa(dp11
g6
I0
sg7
F11.383361101150513
sg8
F0.00011205673217773438
sg9
I1
sg10
I2
sasS'total_cqs'
p12
I6
ssI2
(dp13
S'iters'
p14
I1
sS'meta'
p15
(lp16
(dp17
S'objective'
p18
I4
sS'query_time'
p19
F0.8872342109680176
sS'comp_time'
p20
F6.818771362304688e-05
sS'exec_cq'
p21
I5
sS'total_cq'
p22
I6
sasS'total_cqs'
p23
I6
ssI3
(dp24
S'iters'
p25
I9
sS'meta'
p26
(lp27
(dp28
S'objective'
p29
I29
sS'query_time'
p30
F0.033747196197509766
sS'comp_time'
p31
F0.00010180473327636719
sS'exec_cq'
p32
I2
sS'total_cq'
p33
I33
sa(dp34
g29
I29
sg30
F6.321567058563232
sg31
F0.00010585784912109375
sg32
I1
sg33
I31
sa(dp35
g29
I24
sg30
F0.0171811580657959
sg31
F7.581710815429688e-05
sg32
I1
sg33
I30
sa(dp36
g29
I25
sg30
F0.07532501220703125
sg31
F9.298324584960938e-05
sg32
I1
sg33
I27
sa(dp37
g29
I24
sg30
F0.006083011627197266
sg31
F5.698204040527344e-05
sg32
I1
sg33
I26
sa(dp38
g29
I23
sg30
F0.03534293174743652
sg31
F6.914138793945312e-05
sg32
I1
sg33
I25
sa(dp39
g29
I18
sg30
F0.03890585899353027
sg31
F9.584426879882812e-05
sg32
I1
sg33
I24
sa(dp40
g29
I15
sg30
F0.01397705078125
sg31
F7.295608520507812e-05
sg32
I1
sg33
I21
sa(dp41
g29
I16
sg30
F0.18118000030517578
sg31
F7.82012939453125e-05
sg32
I1
sg33
I18
sasS'total_cqs'
p42
I33
ssI6
(dp43
S'iters'
p44
I3
sS'meta'
p45
(lp46
(dp47
S'objective'
p48
I1
sS'query_time'
p49
F2.545236110687256
sS'comp_time'
p50
F0.00010204315185546875
sS'exec_cq'
p51
I1
sS'total_cq'
p52
I5
sa(dp53
g48
I1
sg49
F0.8208708763122559
sg50
F0.0001220703125
sg51
I1
sg52
I3
sa(dp54
g48
I0
sg49
F6.381760835647583
sg50
F7.796287536621094e-05
sg51
I1
sg52
I2
sasS'total_cqs'
p55
I5
ssI8
(dp56
S'iters'
p57
I4
sS'meta'
p58
(lp59
(dp60
S'objective'
p61
I4
sS'query_time'
p62
F3.015087127685547
sS'comp_time'
p63
F0.00020265579223632812
sS'exec_cq'
p64
I1
sS'total_cq'
p65
I6
sa(dp66
g61
I1
sg62
F41.79685187339783
sg63
F0.000186920166015625
sg64
I2
sg65
I5
sa(dp67
g61
I1
sg62
F21.451555967330933
sg63
F0.00012302398681640625
sg64
I3
sg65
I3
sa(dp68
g61
I0
sg62
F0.038474082946777344
sg63
F0.00014734268188476562
sg64
I2
sg65
I2
sasS'total_cqs'
p69
I6
ssI9
(dp70
S'iters'
p71
I2
sS'meta'
p72
(lp73
(dp74
S'objective'
p75
I0
sS'query_time'
p76
F5.071074962615967
sS'comp_time'
p77
F9.179115295410156e-05
sS'exec_cq'
p78
I1
sS'total_cq'
p79
I6
sa(dp80
g75
I1
sg76
F1.6421639919281006
sg77
F9.703636169433594e-05
sg78
I1
sg79
I3
sasS'total_cqs'
p81
I6
ssI13
(dp82
S'iters'
p83
I1
sS'meta'
p84
(lp85
(dp86
S'objective'
p87
I6
sS'query_time'
p88
F0.4109811782836914
sS'comp_time'
p89
F9.179115295410156e-05
sS'exec_cq'
p90
I1
sS'total_cq'
p91
I8
sasS'total_cqs'
p92
I8
ssI14
(dp93
S'iters'
p94
I2
sS'meta'
p95
(lp96
(dp97
S'objective'
p98
I3
sS'query_time'
p99
F0.024491071701049805
sS'comp_time'
p100
F7.200241088867188e-05
sS'exec_cq'
p101
I1
sS'total_cq'
p102
I5
sa(dp103
g98
I2
sg99
F1.1044859886169434
sg100
F6.914138793945312e-05
sg101
I2
sg102
I4
sasS'total_cqs'
p104
I5
ssI16
(dp105
S'iters'
p106
I2
sS'meta'
p107
(lp108
(dp109
S'objective'
p110
I1
sS'query_time'
p111
F7.478555917739868
sS'comp_time'
p112
F0.00013399124145507812
sS'exec_cq'
p113
I1
sS'total_cq'
p114
I5
sa(dp115
g110
I1
sg111
F0.04153895378112793
sg112
F0.00011897087097167969
sg113
I1
sg114
I3
sasS'total_cqs'
p116
I5
ssI18
(dp117
S'iters'
p118
I2
sS'meta'
p119
(lp120
(dp121
S'objective'
p122
I1
sS'query_time'
p123
F0.4704279899597168
sS'comp_time'
p124
F0.00010800361633300781
sS'exec_cq'
p125
I1
sS'total_cq'
p126
I5
sa(dp127
g122
I0
sg123
F0.10176396369934082
sg124
F0.00011396408081054688
sg125
I1
sg126
I2
sasS'total_cqs'
p128
I5
ssI20
(dp129
S'iters'
p130
I2
sS'meta'
p131
(lp132
(dp133
S'objective'
p134
I8
sS'query_time'
p135
F5.741235971450806
sS'comp_time'
p136
F0.0001049041748046875
sS'exec_cq'
p137
I1
sS'total_cq'
p138
I12
sa(dp139
g134
I8
sg135
F0.12202095985412598
sg136
F7.605552673339844e-05
sg137
I1
sg138
I10
sasS'total_cqs'
p140
I12
ssI21
(dp141
S'iters'
p142
I2
sS'meta'
p143
(lp144
(dp145
S'objective'
p146
I12
sS'query_time'
p147
F0.3516561985015869
sS'comp_time'
p148
F8.511543273925781e-05
sS'exec_cq'
p149
I1
sS'total_cq'
p150
I14
sa(dp151
g146
I11
sg147
F0.02929091453552246
sg148
F8.893013000488281e-05
sg149
I1
sg150
I13
sasS'total_cqs'
p152
I14
ssI22
(dp153
S'iters'
p154
I1
sS'meta'
p155
(lp156
(dp157
S'objective'
p158
I0
sS'query_time'
p159
F0.005786895751953125
sS'comp_time'
p160
F8.7738037109375e-05
sS'exec_cq'
p161
I1
sS'total_cq'
p162
I2
sasS'total_cqs'
p163
I2
ssI25
(dp164
S'iters'
p165
I2
sS'meta'
p166
(lp167
(dp168
S'objective'
p169
I3
sS'query_time'
p170
F11.599987983703613
sS'comp_time'
p171
F0.00018310546875
sS'exec_cq'
p172
I1
sS'total_cq'
p173
I7
sa(dp174
g169
I3
sg170
F0.23213410377502441
sg171
F8.106231689453125e-05
sg172
I1
sg173
I5
sasS'total_cqs'
p175
I7
ssI26
(dp176
S'iters'
p177
I7
sS'meta'
p178
(lp179
(dp180
S'objective'
p181
I11
sS'query_time'
p182
F0.08641195297241211
sS'comp_time'
p183
F8.511543273925781e-05
sS'exec_cq'
p184
I1
sS'total_cq'
p185
I13
sa(dp186
g181
I10
sg182
F0.04421520233154297
sg183
F8.797645568847656e-05
sg184
I1
sg185
I12
sa(dp187
g181
I9
sg182
F19.655461072921753
sg183
F0.00012302398681640625
sg184
I1
sg185
I11
sa(dp188
g181
I8
sg182
F0.03669404983520508
sg183
F7.700920104980469e-05
sg184
I1
sg185
I10
sa(dp189
g181
I7
sg182
F0.023973941802978516
sg183
F6.389617919921875e-05
sg184
I1
sg185
I9
sa(dp190
g181
I4
sg182
F0.5733890533447266
sg183
F0.00011110305786132812
sg184
I1
sg185
I8
sa(dp191
g181
I4
sg182
F0.008293867111206055
sg183
F6.29425048828125e-05
sg184
I1
sg185
I6
sasS'total_cqs'
p192
I13
ssI27
(dp193
S'iters'
p194
I1
sS'meta'
p195
(lp196
(dp197
S'objective'
p198
I0
sS'query_time'
p199
F0.1353909969329834
sS'comp_time'
p200
F9.322166442871094e-05
sS'exec_cq'
p201
I2
sS'total_cq'
p202
I2
sasS'total_cqs'
p203
I2
ssI28
(dp204
S'iters'
p205
I7
sS'meta'
p206
(lp207
(dp208
S'objective'
p209
I4
sS'query_time'
p210
F2.0275719165802
sS'comp_time'
p211
F8.296966552734375e-05
sS'exec_cq'
p212
I1
sS'total_cq'
p213
I14
sa(dp214
g209
I7
sg210
F0.9417271614074707
sg211
F8.296966552734375e-05
sg212
I1
sg213
I9
sa(dp215
g209
I6
sg210
F0.9867751598358154
sg211
F8.106231689453125e-05
sg212
I1
sg213
I8
sa(dp216
g209
I1
sg210
F1.205744981765747
sg211
F0.0001239776611328125
sg212
I1
sg213
I7
sa(dp217
g209
I2
sg210
F0.5104739665985107
sg211
F0.0001049041748046875
sg212
I1
sg213
I4
sa(dp218
g209
I1
sg210
F0.30576205253601074
sg211
F9.107589721679688e-05
sg212
I1
sg213
I3
sa(dp219
g209
I0
sg210
F0.13617801666259766
sg211
F9.584426879882812e-05
sg212
I1
sg213
I2
sasS'total_cqs'
p220
I14
ssI29
(dp221
S'iters'
p222
I1
sS'meta'
p223
(lp224
(dp225
S'objective'
p226
I0
sS'query_time'
p227
F0.00549006462097168
sS'comp_time'
p228
F7.104873657226562e-05
sS'exec_cq'
p229
I1
sS'total_cq'
p230
I2
sasS'total_cqs'
p231
I2
ssI30
(dp232
S'iters'
p233
I1
sS'meta'
p234
(lp235
(dp236
S'objective'
p237
I0
sS'query_time'
p238
F0.4099700450897217
sS'comp_time'
p239
F9.012222290039062e-05
sS'exec_cq'
p240
I2
sS'total_cq'
p241
I2
sasS'total_cqs'
p242
I2
ssI31
(dp243
S'iters'
p244
I6
sS'meta'
p245
(lp246
(dp247
S'objective'
p248
I7
sS'query_time'
p249
F0.46309900283813477
sS'comp_time'
p250
F8.58306884765625e-05
sS'exec_cq'
p251
I1
sS'total_cq'
p252
I9
sa(dp253
g248
I6
sg249
F0.17136001586914062
sg250
F8.416175842285156e-05
sg251
I1
sg252
I8
sa(dp254
g248
I5
sg249
F0.006465911865234375
sg250
F7.724761962890625e-05
sg251
I1
sg252
I7
sa(dp255
g248
I2
sg249
F0.466508150100708
sg250
F0.0001270771026611328
sg251
I1
sg252
I6
sa(dp256
g248
I2
sg249
F6.14880895614624
sg250
F0.00015091896057128906
sg251
I1
sg252
I4
sa(dp257
g248
I1
sg249
F0.5115468502044678
sg250
F8.320808410644531e-05
sg251
I1
sg252
I3
sasS'total_cqs'
p258
I9
ssI32
(dp259
S'iters'
p260
I4
sS'meta'
p261
(lp262
(dp263
S'objective'
p264
I3
sS'query_time'
p265
F0.9557077884674072
sS'comp_time'
p266
F9.870529174804688e-05
sS'exec_cq'
p267
I1
sS'total_cq'
p268
I7
sa(dp269
g264
I1
sg265
F8.869517087936401
sg266
F0.0001308917999267578
sg267
I1
sg268
I5
sa(dp270
g264
I1
sg265
F1.4550929069519043
sg266
F7.915496826171875e-05
sg267
I1
sg268
I3
sa(dp271
g264
I0
sg265
F0.10634183883666992
sg266
F9.608268737792969e-05
sg267
I1
sg268
I2
sasS'total_cqs'
p272
I7
ssI33
(dp273
S'iters'
p274
I1
sS'meta'
p275
(lp276
(dp277
S'objective'
p278
I0
sS'query_time'
p279
F0.02853989601135254
sS'comp_time'
p280
F7.700920104980469e-05
sS'exec_cq'
p281
I2
sS'total_cq'
p282
I2
sasS'total_cqs'
p283
I2
ssI35
(dp284
S'iters'
p285
I3
sS'meta'
p286
(lp287
(dp288
S'objective'
p289
I1
sS'query_time'
p290
F9.515336036682129
sS'comp_time'
p291
F0.00010561943054199219
sS'exec_cq'
p292
I1
sS'total_cq'
p293
I5
sa(dp294
g289
I1
sg290
F2.090970039367676
sg291
F0.0006308555603027344
sg292
I1
sg293
I3
sa(dp295
g289
I0
sg290
F0.910897970199585
sg291
F9.083747863769531e-05
sg292
I1
sg293
I2
sasS'total_cqs'
p296
I5
ssI37
(dp297
S'iters'
p298
I8
sS'meta'
p299
(lp300
(dp301
S'objective'
p302
I8
sS'query_time'
p303
F0.017940044403076172
sS'comp_time'
p304
F8.893013000488281e-05
sS'exec_cq'
p305
I1
sS'total_cq'
p306
I10
sa(dp307
g302
I7
sg303
F0.598639965057373
sg304
F7.891654968261719e-05
sg305
I1
sg306
I9
sa(dp308
g302
I6
sg303
F0.005856037139892578
sg304
F5.7697296142578125e-05
sg305
I1
sg306
I8
sa(dp309
g302
I5
sg303
F0.004987001419067383
sg304
F6.222724914550781e-05
sg305
I1
sg306
I7
sa(dp310
g302
I4
sg303
F0.0040781497955322266
sg304
F6.008148193359375e-05
sg305
I1
sg306
I6
sa(dp311
g302
I3
sg303
F0.6454010009765625
sg304
F7.82012939453125e-05
sg305
I1
sg306
I5
sa(dp312
g302
I2
sg303
F0.6198959350585938
sg304
F7.486343383789062e-05
sg305
I1
sg306
I4
sa(dp313
g302
I1
sg303
F0.4011991024017334
sg304
F0.0009837150573730469
sg305
I1
sg306
I3
sasS'total_cqs'
p314
I10
ssI40
(dp315
S'iters'
p316
I1
sS'meta'
p317
(lp318
(dp319
S'objective'
p320
I0
sS'query_time'
p321
F16.895848035812378
sS'comp_time'
p322
F0.00018906593322753906
sS'exec_cq'
p323
I1
sS'total_cq'
p324
I2
sasS'total_cqs'
p325
I2
ssI41
(dp326
S'iters'
p327
I4
sS'meta'
p328
(lp329
(dp330
S'objective'
p331
I4
sS'query_time'
p332
F1.5195109844207764
sS'comp_time'
p333
F8.726119995117188e-05
sS'exec_cq'
p334
I1
sS'total_cq'
p335
I6
sa(dp336
g331
I3
sg332
F0.24756383895874023
sg333
F6.914138793945312e-05
sg334
I1
sg335
I5
sa(dp337
g331
I2
sg332
F9.049860000610352
sg333
F0.0001201629638671875
sg334
I1
sg335
I4
sa(dp338
g331
I1
sg332
F0.07742595672607422
sg333
F0.00011682510375976562
sg334
I1
sg335
I3
sasS'total_cqs'
p339
I6
ssI42
(dp340
S'iters'
p341
I1
sS'meta'
p342
(lp343
(dp344
S'objective'
p345
I0
sS'query_time'
p346
F0.012044191360473633
sS'comp_time'
p347
F6.985664367675781e-05
sS'exec_cq'
p348
I1
sS'total_cq'
p349
I2
sasS'total_cqs'
p350
I2
ssI44
(dp351
S'iters'
p352
I1
sS'meta'
p353
(lp354
(dp355
S'objective'
p356
I3
sS'query_time'
p357
F0.009183883666992188
sS'comp_time'
p358
F6.413459777832031e-05
sS'exec_cq'
p359
I1
sS'total_cq'
p360
I5
sasS'total_cqs'
p361
I5
ssI45
(dp362
S'iters'
p363
I2
sS'meta'
p364
(lp365
(dp366
S'objective'
p367
I1
sS'query_time'
p368
F0.03068685531616211
sS'comp_time'
p369
F8.893013000488281e-05
sS'exec_cq'
p370
I1
sS'total_cq'
p371
I5
sa(dp372
g367
I0
sg368
F0.6213068962097168
sg369
F8.797645568847656e-05
sg370
I2
sg371
I2
sasS'total_cqs'
p373
I5
ssI48
(dp374
S'iters'
p375
I1
sS'meta'
p376
(lp377
(dp378
S'objective'
p379
I0
sS'query_time'
p380
F0.12004804611206055
sS'comp_time'
p381
F6.4849853515625e-05
sS'exec_cq'
p382
I1
sS'total_cq'
p383
I2
sasS'total_cqs'
p384
I2
ssI49
(dp385
S'iters'
p386
I2
sS'meta'
p387
(lp388
(dp389
S'objective'
p390
I1
sS'query_time'
p391
F2.200050115585327
sS'comp_time'
p392
F0.0001308917999267578
sS'exec_cq'
p393
I1
sS'total_cq'
p394
I5
sa(dp395
g390
I1
sg391
F0.022433996200561523
sg392
F6.67572021484375e-05
sg393
I1
sg394
I3
sasS'total_cqs'
p396
I5
ssI50
(dp397
S'iters'
p398
I3
sS'meta'
p399
(lp400
(dp401
S'objective'
p402
I3
sS'query_time'
p403
F0.054986000061035156
sS'comp_time'
p404
F7.700920104980469e-05
sS'exec_cq'
p405
I1
sS'total_cq'
p406
I5
sa(dp407
g402
I2
sg403
F0.17976903915405273
sg404
F8.916854858398438e-05
sg405
I1
sg406
I4
sa(dp408
g402
I1
sg403
F0.7912631034851074
sg404
F0.00011014938354492188
sg405
I1
sg406
I3
sasS'total_cqs'
p409
I5
ssI55
(dp410
S'iters'
p411
I1
sS'meta'
p412
(lp413
(dp414
S'objective'
p415
I0
sS'query_time'
p416
F11.78867793083191
sS'comp_time'
p417
F0.00011992454528808594
sS'exec_cq'
p418
I1
sS'total_cq'
p419
I2
sasS'total_cqs'
p420
I2
ssI57
(dp421
S'iters'
p422
I2
sS'meta'
p423
(lp424
(dp425
S'objective'
p426
I1
sS'query_time'
p427
F2.3710899353027344
sS'comp_time'
p428
F0.000244140625
sS'exec_cq'
p429
I2
sS'total_cq'
p430
I3
sa(dp431
g426
I0
sg427
F11.273998022079468
sg428
F0.00012493133544921875
sg429
I2
sg430
I2
sasS'total_cqs'
p432
I3
ssI116
(dp433
S'iters'
p434
I3
sS'meta'
p435
(lp436
(dp437
S'objective'
p438
I19
sS'query_time'
p439
F1.5508451461791992
sS'comp_time'
p440
F9.679794311523438e-05
sS'exec_cq'
p441
I1
sS'total_cq'
p442
I21
sa(dp443
g438
I18
sg439
F0.1559450626373291
sg440
F9.298324584960938e-05
sg441
I4
sg442
I20
sa(dp444
g438
I17
sg439
F0.2305450439453125
sg440
F0.00037288665771484375
sg441
I1
sg442
I19
sasS'total_cqs'
p445
I21
ssI117
(dp446
S'iters'
p447
I2
sS'meta'
p448
(lp449
(dp450
S'objective'
p451
I3
sS'query_time'
p452
F0.0056459903717041016
sS'comp_time'
p453
F8.20159912109375e-05
sS'exec_cq'
p454
I2
sS'total_cq'
p455
I5
sa(dp456
g451
I2
sg452
F0.004221916198730469
sg453
F7.891654968261719e-05
sg454
I1
sg455
I4
sasS'total_cqs'
p457
I5
ss.