(dp0
I1
(dp1
S'iters'
p2
I2
sS'meta'
p3
(lp4
(dp5
S'objective'
p6
I5
sS'query_time'
p7
F17.715789079666138
sS'comp_time'
p8
F0.7382609844207764
sS'exec_cq'
p9
I3
sS'total_cq'
p10
I6
sa(dp11
g6
I4
sg7
F0.1577751636505127
sg8
F0.6385030746459961
sg9
I2
sg10
I2
sasS'total_cqs'
p12
I6
ssI2
(dp13
S'iters'
p14
I1
sS'meta'
p15
(lp16
(dp17
S'objective'
p18
I9
sS'query_time'
p19
F1.0230538845062256
sS'comp_time'
p20
F0.31012845039367676
sS'exec_cq'
p21
I5
sS'total_cq'
p22
I6
sasS'total_cqs'
p23
I6
ssI3
(dp24
S'iters'
p25
I10
sS'meta'
p26
(lp27
(dp28
S'objective'
p29
I409
sS'query_time'
p30
F25.067142009735107
sS'comp_time'
p31
F0.3290867805480957
sS'exec_cq'
p32
I15
sS'total_cq'
p33
I33
sa(dp34
g29
I363
sg30
F0.30234408378601074
sg31
F0.03265213966369629
sg32
I13
sg33
I30
sa(dp35
g29
I344
sg30
F0.012137174606323242
sg31
F0.17613697052001953
sg32
I12
sg33
I27
sa(dp36
g29
I266
sg30
F0.005339145660400391
sg31
F0.02142024040222168
sg32
I10
sg33
I24
sa(dp37
g29
I245
sg30
F0.010187149047851562
sg31
F0.1706383228302002
sg32
I9
sg33
I21
sa(dp38
g29
I221
sg30
F0.0003380775451660156
sg31
F0.00390625
sg32
I6
sg33
I18
sa(dp39
g29
I175
sg30
F0.004567861557006836
sg31
F0.02121734619140625
sg32
I7
sg33
I17
sa(dp40
g29
I178
sg30
F2.4080276489257812e-05
sg31
F0.0028448104858398438
sg32
I5
sg33
I14
sa(dp41
g29
I138
sg30
F26.72747802734375
sg31
F23.209967136383057
sg32
I4
sg33
I13
sa(dp42
g29
I115
sg30
F0.0059320926666259766
sg31
F0.021147727966308594
sg32
I4
sg33
I12
sasS'total_cqs'
p43
I33
ssI4
(dp44
S'iters'
p45
I0
sS'meta'
p46
(lp47
sS'total_cqs'
p48
I1
ssI5
(dp49
S'iters'
p50
I0
sS'meta'
p51
(lp52
sS'total_cqs'
p53
I1
ssI6
(dp54
S'iters'
p55
I2
sS'meta'
p56
(lp57
(dp58
S'objective'
p59
I1
sS'query_time'
p60
F14.308129072189331
sS'comp_time'
p61
F0.006439924240112305
sS'exec_cq'
p62
I4
sS'total_cq'
p63
I5
sa(dp64
g59
I2
sg60
F0.000102996826171875
sg61
F0.0006761550903320312
sg62
I1
sg63
I2
sasS'total_cqs'
p65
I5
ssI7
(dp66
S'iters'
p67
I0
sS'meta'
p68
(lp69
sS'total_cqs'
p70
I1
ssI8
(dp71
S'iters'
p72
I2
sS'meta'
p73
(lp74
(dp75
S'objective'
p76
I17
sS'query_time'
p77
F23.258182048797607
sS'comp_time'
p78
F0.28856325149536133
sS'exec_cq'
p79
I5
sS'total_cq'
p80
I6
sa(dp81
g76
I7
sg77
F0.09258794784545898
sg78
F0.10085701942443848
sg79
I4
sg80
I5
sasS'total_cqs'
p82
I6
ssI9
(dp83
S'iters'
p84
I2
sS'meta'
p85
(lp86
(dp87
S'objective'
p88
I1
sS'query_time'
p89
F10.948534965515137
sS'comp_time'
p90
F0.5620169639587402
sS'exec_cq'
p91
I3
sS'total_cq'
p92
I6
sa(dp93
g88
I1
sg89
F0.06319999694824219
sg90
F0.5988140106201172
sg91
I2
sg92
I2
sasS'total_cqs'
p94
I6
ssI10
(dp95
S'iters'
p96
I0
sS'meta'
p97
(lp98
sS'total_cqs'
p99
I1
ssI11
(dp100
S'iters'
p101
I0
sS'meta'
p102
(lp103
sS'total_cqs'
p104
I1
ssI12
(dp105
S'iters'
p106
I0
sS'meta'
p107
(lp108
sS'total_cqs'
p109
I1
ssI13
(dp110
S'iters'
p111
I1
sS'meta'
p112
(lp113
(dp114
S'objective'
p115
I22
sS'query_time'
p116
F0.025339841842651367
sS'comp_time'
p117
F0.010426759719848633
sS'exec_cq'
p118
I6
sS'total_cq'
p119
I8
sasS'total_cqs'
p120
I8
ssI14
(dp121
S'iters'
p122
I1
sS'meta'
p123
(lp124
(dp125
S'objective'
p126
I5
sS'query_time'
p127
F0.9788908958435059
sS'comp_time'
p128
F0.008243083953857422
sS'exec_cq'
p129
I5
sS'total_cq'
p130
I5
sasS'total_cqs'
p131
I5
ssI16
(dp132
S'iters'
p133
I2
sS'meta'
p134
(lp135
(dp136
S'objective'
p137
I1
sS'query_time'
p138
F1.2798759937286377
sS'comp_time'
p139
F0.011776924133300781
sS'exec_cq'
p140
I4
sS'total_cq'
p141
I5
sa(dp142
g137
I2
sg138
F4.887580871582031e-05
sg139
F0.0004582405090332031
sg140
I2
sg141
I3
sasS'total_cqs'
p143
I5
ssI17
(dp144
S'iters'
p145
I0
sS'meta'
p146
(lp147
sS'total_cqs'
p148
I1
ssI18
(dp149
S'iters'
p150
I3
sS'meta'
p151
(lp152
(dp153
S'objective'
p154
I1
sS'query_time'
p155
F0.158585786819458
sS'comp_time'
p156
F0.003910064697265625
sS'exec_cq'
p157
I4
sS'total_cq'
p158
I5
sa(dp159
g154
I4
sg155
F3.695487976074219e-05
sg156
F0.00028896331787109375
sg157
I2
sg158
I3
sa(dp160
g154
I4
sg155
F0.018516063690185547
sg156
F0.0002334117889404297
sg157
I2
sg158
I2
sasS'total_cqs'
p161
I5
ssI19
(dp162
S'iters'
p163
I0
sS'meta'
p164
(lp165
sS'total_cqs'
p166
I1
ssI20
(dp167
S'iters'
p168
I5
sS'meta'
p169
(lp170
(dp171
S'objective'
p172
I50
sS'query_time'
p173
F9.263714075088501
sS'comp_time'
p174
F1.3503108024597168
sS'exec_cq'
p175
I6
sS'total_cq'
p176
I12
sa(dp177
g172
I22
sg173
F4.263418912887573
sg174
F0.44900012016296387
sg175
I4
sg176
I10
sa(dp178
g172
I17
sg173
F0.16525912284851074
sg174
F0.9747419357299805
sg175
I4
sg176
I8
sa(dp179
g172
I14
sg173
F2.3126602172851562e-05
sg174
F0.00015544891357421875
sg175
I2
sg176
I6
sa(dp180
g172
I2
sg173
F0.09219503402709961
sg174
F0.004360198974609375
sg175
I1
sg176
I5
sasS'total_cqs'
p181
I12
ssI21
(dp182
S'iters'
p183
I4
sS'meta'
p184
(lp185
(dp186
S'objective'
p187
I35
sS'query_time'
p188
F28.736931800842285
sS'comp_time'
p189
F0.48032426834106445
sS'exec_cq'
p190
I8
sS'total_cq'
p191
I14
sa(dp192
g187
I36
sg188
F0.008919954299926758
sg189
F0.06896829605102539
sg190
I4
sg191
I10
sa(dp193
g187
I3
sg188
F30.41639494895935
sg189
F1.9297723770141602
sg190
I4
sg191
I8
sa(dp194
g187
I4
sg188
F0.01580500602722168
sg189
F0.00029087066650390625
sg190
I1
sg191
I4
sasS'total_cqs'
p195
I14
ssI22
(dp196
S'iters'
p197
I1
sS'meta'
p198
(lp199
(dp200
S'objective'
p201
I1
sS'query_time'
p202
F0.004008054733276367
sS'comp_time'
p203
F0.0013782978057861328
sS'exec_cq'
p204
I1
sS'total_cq'
p205
I2
sasS'total_cqs'
p206
I2
ssI23
(dp207
S'iters'
p208
I0
sS'meta'
p209
(lp210
sS'total_cqs'
p211
I1
ssI24
(dp212
S'iters'
p213
I0
sS'meta'
p214
(lp215
sS'total_cqs'
p216
I1
ssI25
(dp217
S'iters'
p218
I4
sS'meta'
p219
(lp220
(dp221
S'objective'
p222
I6
sS'query_time'
p223
F46.74778604507446
sS'comp_time'
p224
F4.867674112319946
sS'exec_cq'
p225
I4
sS'total_cq'
p226
I7
sa(dp227
g222
I3
sg223
F4.709280967712402
sg224
F0.4836461544036865
sg225
I2
sg226
I5
sa(dp228
g222
I6
sg223
F0.01422429084777832
sg224
F0.053175926208496094
sg225
I2
sg226
I3
sa(dp229
g222
I6
sg223
F0.0077056884765625
sg224
F0.05238485336303711
sg225
I1
sg226
I2
sasS'total_cqs'
p230
I7
ssI26
(dp231
S'iters'
p232
I4
sS'meta'
p233
(lp234
(dp235
S'objective'
p236
I53
sS'query_time'
p237
F0.3193800449371338
sS'comp_time'
p238
F0.03173828125
sS'exec_cq'
p239
I4
sS'total_cq'
p240
I13
sa(dp241
g236
I46
sg237
F21.907602071762085
sg238
F0.008238077163696289
sg239
I3
sg240
I11
sa(dp242
g236
I19
sg237
F3.596471071243286
sg238
F0.23378324508666992
sg239
I2
sg240
I10
sa(dp243
g236
I17
sg237
F0.002927064895629883
sg238
F0.00010919570922851562
sg239
I1
sg240
I8
sasS'total_cqs'
p244
I13
ssI27
(dp245
S'iters'
p246
I1
sS'meta'
p247
(lp248
(dp249
S'objective'
p250
I1
sS'query_time'
p251
F0.2844879627227783
sS'comp_time'
p252
F0.007768869400024414
sS'exec_cq'
p253
I1
sS'total_cq'
p254
I2
sasS'total_cqs'
p255
I2
ssI28
(dp256
S'iters'
p257
I5
sS'meta'
p258
(lp259
(dp260
S'objective'
p261
I63
sS'query_time'
p262
F1.3082029819488525
sS'comp_time'
p263
F0.10726165771484375
sS'exec_cq'
p264
I6
sS'total_cq'
p265
I14
sa(dp266
g261
I50
sg262
F0.006908893585205078
sg263
F0.03417181968688965
sg264
I4
sg265
I12
sa(dp267
g261
I45
sg262
F0.0058748722076416016
sg263
F0.00016689300537109375
sg264
I2
sg265
I9
sa(dp268
g261
I30
sg262
F0.002505064010620117
sg263
F0.00010251998901367188
sg264
I1
sg265
I8
sa(dp269
g261
I19
sg262
F0.0024530887603759766
sg263
F0.0001289844512939453
sg264
I1
sg265
I7
sasS'total_cqs'
p270
I14
ssI29
(dp271
S'iters'
p272
I1
sS'meta'
p273
(lp274
(dp275
S'objective'
p276
I1
sS'query_time'
p277
F0.009833812713623047
sS'comp_time'
p278
F0.0026154518127441406
sS'exec_cq'
p279
I2
sS'total_cq'
p280
I2
sasS'total_cqs'
p281
I2
ssI30
(dp282
S'iters'
p283
I1
sS'meta'
p284
(lp285
(dp286
S'objective'
p287
I1
sS'query_time'
p288
F0.3228631019592285
sS'comp_time'
p289
F0.0045261383056640625
sS'exec_cq'
p290
I2
sS'total_cq'
p291
I2
sasS'total_cqs'
p292
I2
ssI31
(dp293
S'iters'
p294
I3
sS'meta'
p295
(lp296
(dp297
S'objective'
p298
I19
sS'query_time'
p299
F4.073190927505493
sS'comp_time'
p300
F0.2397782802581787
sS'exec_cq'
p301
I4
sS'total_cq'
p302
I9
sa(dp303
g298
I6
sg299
F1.3830978870391846
sg300
F0.17022943496704102
sg301
I5
sg302
I7
sa(dp304
g298
I3
sg299
F0.010165929794311523
sg300
F0.048947811126708984
sg301
I3
sg302
I3
sasS'total_cqs'
p305
I9
ssI32
(dp306
S'iters'
p307
I2
sS'meta'
p308
(lp309
(dp310
S'objective'
p311
I0
sS'query_time'
p312
F21.364094018936157
sS'comp_time'
p313
F5.7859766483306885
sS'exec_cq'
p314
I4
sS'total_cq'
p315
I7
sa(dp316
g311
I0
sg312
F0.10264301300048828
sg313
F0.002273082733154297
sg314
I1
sg315
I4
sasS'total_cqs'
p317
I7
ssI33
(dp318
S'iters'
p319
I1
sS'meta'
p320
(lp321
(dp322
S'objective'
p323
I1
sS'query_time'
p324
F0.03055286407470703
sS'comp_time'
p325
F0.0018792152404785156
sS'exec_cq'
p326
I2
sS'total_cq'
p327
I2
sasS'total_cqs'
p328
I2
ssI34
(dp329
S'iters'
p330
I0
sS'meta'
p331
(lp332
sS'total_cqs'
p333
I1
ssI35
(dp334
S'iters'
p335
I2
sS'meta'
p336
(lp337
(dp338
S'objective'
p339
I1
sS'query_time'
p340
F13.475498914718628
sS'comp_time'
p341
F0.3106069564819336
sS'exec_cq'
p342
I4
sS'total_cq'
p343
I5
sa(dp344
g339
I2
sg340
F0.1106410026550293
sg341
F0.06853413581848145
sg342
I2
sg343
I3
sasS'total_cqs'
p345
I5
ssI37
(dp346
S'iters'
p347
I3
sS'meta'
p348
(lp349
(dp350
S'objective'
p351
I39
sS'query_time'
p352
F1.1906981468200684
sS'comp_time'
p353
F0.2269730567932129
sS'exec_cq'
p354
I4
sS'total_cq'
p355
I10
sa(dp356
g351
I21
sg352
F0.47530603408813477
sg353
F0.01968097686767578
sg354
I4
sg355
I9
sa(dp357
g351
I5
sg352
F0.003423929214477539
sg353
F0.017894744873046875
sg354
I2
sg355
I2
sasS'total_cqs'
p358
I10
ssI38
(dp359
S'iters'
p360
I0
sS'meta'
p361
(lp362
sS'total_cqs'
p363
I1
ssI39
(dp364
S'iters'
p365
I0
sS'meta'
p366
(lp367
sS'total_cqs'
p368
I1
ssI40
(dp369
S'iters'
p370
I1
sS'meta'
p371
(lp372
(dp373
S'objective'
p374
I1
sS'query_time'
p375
F0.0027730464935302734
sS'comp_time'
p376
F0.0011310577392578125
sS'exec_cq'
p377
I1
sS'total_cq'
p378
I2
sasS'total_cqs'
p379
I2
ssI41
(dp380
S'iters'
p381
I2
sS'meta'
p382
(lp383
(dp384
S'objective'
p385
I1
sS'query_time'
p386
F1.034348964691162
sS'comp_time'
p387
F0.008687257766723633
sS'exec_cq'
p388
I2
sS'total_cq'
p389
I6
sa(dp390
g385
I2
sg386
F0.0014181137084960938
sg387
F0.0055501461029052734
sg388
I2
sg389
I2
sasS'total_cqs'
p391
I6
ssI42
(dp392
S'iters'
p393
I1
sS'meta'
p394
(lp395
(dp396
S'objective'
p397
I1
sS'query_time'
p398
F0.012639999389648438
sS'comp_time'
p399
F0.0006008148193359375
sS'exec_cq'
p400
I1
sS'total_cq'
p401
I2
sasS'total_cqs'
p402
I2
ssI43
(dp403
S'iters'
p404
I0
sS'meta'
p405
(lp406
sS'total_cqs'
p407
I1
ssI44
(dp408
S'iters'
p409
I2
sS'meta'
p410
(lp411
(dp412
S'objective'
p413
I7
sS'query_time'
p414
F1.4096190929412842
sS'comp_time'
p415
F0.20315194129943848
sS'exec_cq'
p416
I2
sS'total_cq'
p417
I5
sa(dp418
g413
I1
sg414
F0.003386974334716797
sg415
F0.00011682510375976562
sg416
I1
sg417
I4
sasS'total_cqs'
p419
I5
ssI45
(dp420
S'iters'
p421
I2
sS'meta'
p422
(lp423
(dp424
S'objective'
p425
I3
sS'query_time'
p426
F0.05102896690368652
sS'comp_time'
p427
F0.002973794937133789
sS'exec_cq'
p428
I3
sS'total_cq'
p429
I5
sa(dp430
g425
I1
sg426
F0.0001590251922607422
sg427
F0.05293130874633789
sg428
I2
sg429
I2
sasS'total_cqs'
p431
I5
ssI46
(dp432
S'iters'
p433
I0
sS'meta'
p434
(lp435
sS'total_cqs'
p436
I1
ssI47
(dp437
S'iters'
p438
I0
sS'meta'
p439
(lp440
sS'total_cqs'
p441
I1
ssI48
(dp442
S'iters'
p443
I1
sS'meta'
p444
(lp445
(dp446
S'objective'
p447
I1
sS'query_time'
p448
F0.20974206924438477
sS'comp_time'
p449
F0.004056215286254883
sS'exec_cq'
p450
I2
sS'total_cq'
p451
I2
sasS'total_cqs'
p452
I2
ssI49
(dp453
S'iters'
p454
I2
sS'meta'
p455
(lp456
(dp457
S'objective'
p458
I1
sS'query_time'
p459
F0.29997801780700684
sS'comp_time'
p460
F0.00793766975402832
sS'exec_cq'
p461
I4
sS'total_cq'
p462
I5
sa(dp463
g458
I2
sg459
F0.00043511390686035156
sg460
F0.002162456512451172
sg461
I2
sg462
I2
sasS'total_cqs'
p464
I5
ssI50
(dp465
S'iters'
p466
I1
sS'meta'
p467
(lp468
(dp469
S'objective'
p470
I5
sS'query_time'
p471
F0.5566239356994629
sS'comp_time'
p472
F0.003197908401489258
sS'exec_cq'
p473
I5
sS'total_cq'
p474
I5
sasS'total_cqs'
p475
I5
ssI51
(dp476
S'iters'
p477
I0
sS'meta'
p478
(lp479
sS'total_cqs'
p480
I1
ssI52
(dp481
S'iters'
p482
I0
sS'meta'
p483
(lp484
sS'total_cqs'
p485
I1
ssI53
(dp486
S'iters'
p487
I0
sS'meta'
p488
(lp489
sS'total_cqs'
p490
I1
ssI55
(dp491
S'iters'
p492
I1
sS'meta'
p493
(lp494
(dp495
S'objective'
p496
I1
sS'query_time'
p497
F24.096747159957886
sS'comp_time'
p498
F3.3827812671661377
sS'exec_cq'
p499
I2
sS'total_cq'
p500
I2
sasS'total_cqs'
p501
I2
ssI56
(dp502
S'iters'
p503
I0
sS'meta'
p504
(lp505
sS'total_cqs'
p506
I1
ssI57
(dp507
S'iters'
p508
I1
sS'meta'
p509
(lp510
(dp511
S'objective'
p512
I2
sS'query_time'
p513
F12.368810892105103
sS'comp_time'
p514
F2.3876938819885254
sS'exec_cq'
p515
I2
sS'total_cq'
p516
I3
sasS'total_cqs'
p517
I3
ssI108
(dp518
S'iters'
p519
I0
sS'meta'
p520
(lp521
sS'total_cqs'
p522
I1
ssI109
(dp523
S'iters'
p524
I0
sS'meta'
p525
(lp526
sS'total_cqs'
p527
I1
ssI116
(dp528
S'iters'
p529
I3
sS'meta'
p530
(lp531
(dp532
S'objective'
p533
I191
sS'query_time'
p534
F0.1100468635559082
sS'comp_time'
p535
F0.020068645477294922
sS'exec_cq'
p536
I14
sS'total_cq'
p537
I21
sa(dp538
g533
I171
sg534
F0.5013058185577393
sg535
F0.007177829742431641
sg536
I15
sg537
I20
sa(dp539
g533
I14
sg534
F0.0007379055023193359
sg535
F0.0033791065216064453
sg536
I2
sg537
I2
sasS'total_cqs'
p540
I21
ssI117
(dp541
S'iters'
p542
I2
sS'meta'
p543
(lp544
(dp545
S'objective'
p546
I11
sS'query_time'
p547
F0.010078907012939453
sS'comp_time'
p548
F0.0015478134155273438
sS'exec_cq'
p549
I3
sS'total_cq'
p550
I5
sa(dp551
g546
I3
sg547
F0.002437114715576172
sg548
F9.822845458984375e-05
sg549
I1
sg550
I4
sasS'total_cqs'
p552
I5
ssI118
(dp553
S'iters'
p554
I0
sS'meta'
p555
(lp556
sS'total_cqs'
p557
I1
ssI122
(dp558
S'iters'
p559
I0
sS'meta'
p560
(lp561
sS'total_cqs'
p562
I1
ss.