(dp0
I1
(dp1
S'iters'
p2
I2
sS'meta'
p3
(lp4
(dp5
S'objective'
p6
I2
sS'query_time'
p7
F25.284748077392578
sS'comp_time'
p8
F1.4816992282867432
sS'exec_cq'
p9
I6
sS'total_cq'
p10
I6
sa(dp11
g6
I0
sg7
F0.009786128997802734
sg8
F260.2486340999603
sg9
I2
sg10
I2
sasS'total_cqs'
p12
I6
ssI2
(dp13
S'iters'
p14
I1
sS'meta'
p15
(lp16
(dp17
S'objective'
p18
I4
sS'query_time'
p19
F0.9113950729370117
sS'comp_time'
p20
F0.11017084121704102
sS'exec_cq'
p21
I6
sS'total_cq'
p22
I6
sasS'total_cqs'
p23
I6
ssI3
(dp24
S'iters'
p25
I10
sS'meta'
p26
(lp27
(dp28
S'objective'
p29
I27
sS'query_time'
p30
F27.157279014587402
sS'comp_time'
p31
F0.25067901611328125
sS'exec_cq'
p32
I33
sS'total_cq'
p33
I33
sa(dp34
g29
I24
sg30
F0.0920419692993164
sg31
F0.24248600006103516
sg32
I30
sg33
I30
sa(dp35
g29
I21
sg30
F0.037175893783569336
sg31
F0.36257410049438477
sg32
I27
sg33
I27
sa(dp36
g29
I18
sg30
F0.07002806663513184
sg31
F0.2078390121459961
sg32
I24
sg33
I24
sa(dp37
g29
I15
sg30
F0.021010160446166992
sg31
F0.14098095893859863
sg32
I21
sg33
I21
sa(dp38
g29
I12
sg30
F0.00946187973022461
sg31
F0.043302059173583984
sg32
I18
sg33
I18
sa(dp39
g29
I9
sg30
F0.0058917999267578125
sg31
F0.05971479415893555
sg32
I15
sg33
I15
sa(dp40
g29
I8
sg30
F0.0061321258544921875
sg31
F0.029684066772460938
sg32
I12
sg33
I12
sa(dp41
g29
I8
sg30
F0.027544021606445312
sg31
F0.029881954193115234
sg32
I10
sg33
I10
sa(dp42
g29
I7
sg30
F0.003011941909790039
sg31
F0.016340255737304688
sg32
I9
sg33
I9
sasS'total_cqs'
p43
I33
ssI6
(dp44
S'iters'
p45
I2
sS'meta'
p46
(lp47
(dp48
S'objective'
p49
I1
sS'query_time'
p50
F15.256210803985596
sS'comp_time'
p51
F0.0028460025787353516
sS'exec_cq'
p52
I5
sS'total_cq'
p53
I5
sa(dp54
g49
I0
sg50
F0.00026297569274902344
sg51
F0.002032041549682617
sg52
I2
sg53
I2
sasS'total_cqs'
p55
I5
ssI8
(dp56
S'iters'
p57
I4
sS'meta'
p58
(lp59
(dp60
S'objective'
p61
I4
sS'query_time'
p62
F22.725712060928345
sS'comp_time'
p63
F0.23293423652648926
sS'exec_cq'
p64
I6
sS'total_cq'
p65
I6
sa(dp66
g61
I1
sg62
F1.8213868141174316
sg63
F2.073162078857422
sg64
I5
sg65
I5
sa(dp67
g61
I1
sg62
F21.940627098083496
sg63
F21.712051153182983
sg64
I3
sg65
I3
sa(dp68
g61
I0
sg62
F0.06032872200012207
sg63
F0.04184889793395996
sg64
I2
sg65
I2
sasS'total_cqs'
p69
I6
ssI9
(dp70
S'iters'
p71
I3
sS'meta'
p72
(lp73
(dp74
S'objective'
p75
I0
sS'query_time'
p76
F53.41156506538391
sS'comp_time'
p77
F4.230283975601196
sS'exec_cq'
p78
I6
sS'total_cq'
p79
I6
sa(dp80
g75
I1
sg76
F0.06349897384643555
sg77
F0.5498850345611572
sg78
I3
sg79
I3
sa(dp81
g75
I0
sg76
F0.039035797119140625
sg77
F0.31986498832702637
sg78
I2
sg79
I2
sasS'total_cqs'
p82
I6
ssI13
(dp83
S'iters'
p84
I2
sS'meta'
p85
(lp86
(dp87
S'objective'
p88
I6
sS'query_time'
p89
F0.020421981811523438
sS'comp_time'
p90
F0.00012969970703125
sS'exec_cq'
p91
I8
sS'total_cq'
p92
I8
sa(dp93
g88
I5
sg89
F3.0040740966796875e-05
sg90
F5.1975250244140625e-05
sg91
I7
sg92
I7
sasS'total_cqs'
p94
I8
ssI14
(dp95
S'iters'
p96
I1
sS'meta'
p97
(lp98
(dp99
S'objective'
p100
I3
sS'query_time'
p101
F1.0799288749694824
sS'comp_time'
p102
F0.007841110229492188
sS'exec_cq'
p103
I5
sS'total_cq'
p104
I5
sasS'total_cqs'
p105
I5
ssI16
(dp106
S'iters'
p107
I3
sS'meta'
p108
(lp109
(dp110
S'objective'
p111
I1
sS'query_time'
p112
F1.6951508522033691
sS'comp_time'
p113
F0.005583286285400391
sS'exec_cq'
p114
I5
sS'total_cq'
p115
I5
sa(dp116
g111
I1
sg112
F8.392333984375e-05
sg113
F0.00036215782165527344
sg114
I3
sg115
I3
sa(dp117
g111
I0
sg112
F3.0994415283203125e-05
sg113
F0.00015115737915039062
sg114
I2
sg115
I2
sasS'total_cqs'
p118
I5
ssI18
(dp119
S'iters'
p120
I2
sS'meta'
p121
(lp122
(dp123
S'objective'
p124
I1
sS'query_time'
p125
F0.3331339359283447
sS'comp_time'
p126
F0.0005300045013427734
sS'exec_cq'
p127
I5
sS'total_cq'
p128
I5
sa(dp129
g124
I0
sg125
F6.103515625e-05
sg126
F0.00026988983154296875
sg127
I2
sg128
I2
sasS'total_cqs'
p130
I5
ssI20
(dp131
S'iters'
p132
I5
sS'meta'
p133
(lp134
(dp135
S'objective'
p136
I8
sS'query_time'
p137
F11.72485089302063
sS'comp_time'
p138
F1.1414949893951416
sS'exec_cq'
p139
I12
sS'total_cq'
p140
I12
sa(dp141
g136
I6
sg137
F0.18173503875732422
sg138
F0.6737120151519775
sg139
I10
sg140
I10
sa(dp142
g136
I4
sg137
F0.15086984634399414
sg138
F0.600959062576294
sg139
I8
sg140
I8
sa(dp143
g136
I4
sg137
F0.1352071762084961
sg138
F0.4652988910675049
sg139
I6
sg140
I6
sa(dp144
g136
I3
sg137
F0.0007870197296142578
sg138
F0.0033600330352783203
sg139
I5
sg140
I5
sasS'total_cqs'
p145
I12
ssI21
(dp146
S'iters'
p147
I4
sS'meta'
p148
(lp149
(dp150
S'objective'
p151
I6
sS'query_time'
p152
F31.00782608985901
sS'comp_time'
p153
F0.2317650318145752
sS'exec_cq'
p154
I14
sS'total_cq'
p155
I14
sa(dp156
g151
I2
sg152
F0.026015043258666992
sg153
F0.25166988372802734
sg154
I10
sg155
I10
sa(dp157
g151
I2
sg152
F0.016769886016845703
sg153
F0.1277940273284912
sg154
I6
sg155
I6
sa(dp158
g151
I0
sg152
F0.008157014846801758
sg153
F0.0205991268157959
sg154
I2
sg155
I2
sasS'total_cqs'
p159
I14
ssI22
(dp160
S'iters'
p161
I1
sS'meta'
p162
(lp163
(dp164
S'objective'
p165
I0
sS'query_time'
p166
F0.00844717025756836
sS'comp_time'
p167
F0.0001270771026611328
sS'exec_cq'
p168
I2
sS'total_cq'
p169
I2
sasS'total_cqs'
p170
I2
ssI25
(dp171
S'iters'
p172
I4
sS'meta'
p173
(lp174
(dp175
S'objective'
p176
I3
sS'query_time'
p177
F86.397047996521
sS'comp_time'
p178
F9.947580099105835
sS'exec_cq'
p179
I7
sS'total_cq'
p180
I7
sa(dp181
g176
I1
sg177
F3.06614089012146
sg178
F9.941417217254639
sg179
I5
sg180
I5
sa(dp182
g176
I1
sg177
F1.7666049003601074
sg178
F6.440071105957031
sg179
I3
sg180
I3
sa(dp183
g176
I0
sg177
F0.0010819435119628906
sg178
F0.006904125213623047
sg179
I2
sg180
I2
sasS'total_cqs'
p184
I7
ssI26
(dp185
S'iters'
p186
I9
sS'meta'
p187
(lp188
(dp189
S'objective'
p190
I9
sS'query_time'
p191
F24.373600006103516
sS'comp_time'
p192
F4.078743934631348
sS'exec_cq'
p193
I13
sS'total_cq'
p194
I13
sa(dp195
g190
I7
sg191
F0.9502561092376709
sg192
F3.814739942550659
sg193
I11
sg194
I11
sa(dp196
g190
I5
sg191
F0.9461140632629395
sg192
F3.534990072250366
sg193
I9
sg194
I9
sa(dp197
g190
I5
sg191
F1.1396129131317139
sg192
F3.206441879272461
sg193
I7
sg194
I7
sa(dp198
g190
I4
sg191
F0.0020439624786376953
sg192
F0.006715059280395508
sg193
I6
sg194
I6
sa(dp199
g190
I3
sg191
F0.0011229515075683594
sg192
F0.005365133285522461
sg193
I5
sg194
I5
sa(dp200
g190
I2
sg191
F0.0009069442749023438
sg192
F0.005393028259277344
sg193
I4
sg194
I4
sa(dp201
g190
I1
sg191
F0.00034689903259277344
sg192
F0.001984834671020508
sg193
I3
sg194
I3
sa(dp202
g190
I0
sg191
F0.0001850128173828125
sg192
F0.0009698867797851562
sg193
I2
sg194
I2
sasS'total_cqs'
p203
I13
ssI27
(dp204
S'iters'
p205
I1
sS'meta'
p206
(lp207
(dp208
S'objective'
p209
I0
sS'query_time'
p210
F0.1497490406036377
sS'comp_time'
p211
F0.0041828155517578125
sS'exec_cq'
p212
I2
sS'total_cq'
p213
I2
sasS'total_cqs'
p214
I2
ssI28
(dp215
S'iters'
p216
I6
sS'meta'
p217
(lp218
(dp219
S'objective'
p220
I6
sS'query_time'
p221
F1.7587859630584717
sS'comp_time'
p222
F0.02975296974182129
sS'exec_cq'
p223
I14
sS'total_cq'
p224
I14
sa(dp225
g220
I4
sg221
F0.002825021743774414
sg222
F0.014631032943725586
sg223
I10
sg224
I10
sa(dp226
g220
I3
sg221
F0.002246856689453125
sg222
F0.030031204223632812
sg223
I7
sg224
I7
sa(dp227
g220
I3
sg221
F0.002500772476196289
sg222
F0.012299060821533203
sg223
I5
sg224
I5
sa(dp228
g220
I2
sg221
F0.0019838809967041016
sg222
F0.011510848999023438
sg223
I4
sg224
I4
sa(dp229
g220
I1
sg221
F2.5987625122070312e-05
sg222
F7.605552673339844e-05
sg223
I3
sg224
I3
sasS'total_cqs'
p230
I14
ssI29
(dp231
S'iters'
p232
I1
sS'meta'
p233
(lp234
(dp235
S'objective'
p236
I0
sS'query_time'
p237
F0.006417036056518555
sS'comp_time'
p238
F0.00010824203491210938
sS'exec_cq'
p239
I2
sS'total_cq'
p240
I2
sasS'total_cqs'
p241
I2
ssI30
(dp242
S'iters'
p243
I1
sS'meta'
p244
(lp245
(dp246
S'objective'
p247
I0
sS'query_time'
p248
F0.348081111907959
sS'comp_time'
p249
F0.00636601448059082
sS'exec_cq'
p250
I2
sS'total_cq'
p251
I2
sasS'total_cqs'
p252
I2
ssI31
(dp253
S'iters'
p254
I3
sS'meta'
p255
(lp256
(dp257
S'objective'
p258
I3
sS'query_time'
p259
F6.31122899055481
sS'comp_time'
p260
F0.1576087474822998
sS'exec_cq'
p261
I9
sS'total_cq'
p262
I9
sa(dp263
g258
I1
sg259
F0.007158041000366211
sg260
F0.02701711654663086
sg261
I3
sg262
I3
sa(dp264
g258
I0
sg259
F0.002479076385498047
sg260
F0.012796878814697266
sg261
I2
sg262
I2
sasS'total_cqs'
p265
I9
ssI32
(dp266
S'iters'
p267
I3
sS'meta'
p268
(lp269
(dp270
S'objective'
p271
I1
sS'query_time'
p272
F19.79017186164856
sS'comp_time'
p273
F2.952035903930664
sS'exec_cq'
p274
I7
sS'total_cq'
p275
I7
sa(dp276
g271
I0
sg272
F0.045835018157958984
sg273
F0.5919280052185059
sg274
I4
sg275
I4
sa(dp277
g271
I0
sg272
F0.13813495635986328
sg273
F0.27043581008911133
sg274
I2
sg275
I2
sasS'total_cqs'
p278
I7
ssI33
(dp279
S'iters'
p280
I1
sS'meta'
p281
(lp282
(dp283
S'objective'
p284
I0
sS'query_time'
p285
F0.034218788146972656
sS'comp_time'
p286
F0.00014400482177734375
sS'exec_cq'
p287
I2
sS'total_cq'
p288
I2
sasS'total_cqs'
p289
I2
ssI35
(dp290
S'iters'
p291
I3
sS'meta'
p292
(lp293
(dp294
S'objective'
p295
I1
sS'query_time'
p296
F17.27320098876953
sS'comp_time'
p297
F0.24012112617492676
sS'exec_cq'
p298
I5
sS'total_cq'
p299
I5
sa(dp300
g295
I1
sg296
F0.032553911209106445
sg297
F0.16622662544250488
sg298
I3
sg299
I3
sa(dp301
g295
I0
sg296
F0.012464046478271484
sg297
F0.06398987770080566
sg298
I2
sg299
I2
sasS'total_cqs'
p302
I5
ssI37
(dp303
S'iters'
p304
I3
sS'meta'
p305
(lp306
(dp307
S'objective'
p308
I4
sS'query_time'
p309
F2.369636058807373
sS'comp_time'
p310
F0.170029878616333
sS'exec_cq'
p311
I10
sS'total_cq'
p312
I10
sa(dp313
g308
I1
sg309
F0.029829025268554688
sg310
F0.043520212173461914
sg311
I3
sg312
I3
sa(dp314
g308
I0
sg309
F0.0035750865936279297
sg310
F0.014070987701416016
sg311
I2
sg312
I2
sasS'total_cqs'
p315
I10
ssI40
(dp316
S'iters'
p317
I1
sS'meta'
p318
(lp319
(dp320
S'objective'
p321
I0
sS'query_time'
p322
F16.988786935806274
sS'comp_time'
p323
F2.500231981277466
sS'exec_cq'
p324
I2
sS'total_cq'
p325
I2
sasS'total_cqs'
p326
I2
ssI41
(dp327
S'iters'
p328
I3
sS'meta'
p329
(lp330
(dp331
S'objective'
p332
I0
sS'query_time'
p333
F12.746352195739746
sS'comp_time'
p334
F1.2431330680847168
sS'exec_cq'
p335
I6
sS'total_cq'
p336
I6
sa(dp337
g332
I1
sg333
F0.0019538402557373047
sg334
F0.006808042526245117
sg335
I3
sg336
I3
sa(dp338
g332
I0
sg333
F0.0006890296936035156
sg334
F0.003329038619995117
sg335
I2
sg336
I2
sasS'total_cqs'
p339
I6
ssI42
(dp340
S'iters'
p341
I1
sS'meta'
p342
(lp343
(dp344
S'objective'
p345
I0
sS'query_time'
p346
F17.636752128601074
sS'comp_time'
p347
F2.5012412071228027
sS'exec_cq'
p348
I2
sS'total_cq'
p349
I2
sasS'total_cqs'
p350
I2
ssI44
(dp351
S'iters'
p352
I3
sS'meta'
p353
(lp354
(dp355
S'objective'
p356
I1
sS'query_time'
p357
F1.4730958938598633
sS'comp_time'
p358
F0.08673787117004395
sS'exec_cq'
p359
I5
sS'total_cq'
p360
I5
sa(dp361
g356
I1
sg357
F0.014736175537109375
sg358
F0.17960119247436523
sg359
I3
sg360
I3
sa(dp362
g356
I0
sg357
F9.298324584960938e-05
sg358
F0.00030493736267089844
sg359
I2
sg360
I2
sasS'total_cqs'
p363
I5
ssI45
(dp364
S'iters'
p365
I2
sS'meta'
p366
(lp367
(dp368
S'objective'
p369
I1
sS'query_time'
p370
F0.038297176361083984
sS'comp_time'
p371
F0.0006279945373535156
sS'exec_cq'
p372
I5
sS'total_cq'
p373
I5
sa(dp374
g369
I0
sg370
F0.00014591217041015625
sg371
F0.0006270408630371094
sg372
I2
sg373
I2
sasS'total_cqs'
p375
I5
ssI48
(dp376
S'iters'
p377
I1
sS'meta'
p378
(lp379
(dp380
S'objective'
p381
I0
sS'query_time'
p382
F0.13982009887695312
sS'comp_time'
p383
F0.006352901458740234
sS'exec_cq'
p384
I2
sS'total_cq'
p385
I2
sasS'total_cqs'
p386
I2
ssI49
(dp387
S'iters'
p388
I3
sS'meta'
p389
(lp390
(dp391
S'objective'
p392
I1
sS'query_time'
p393
F0.24430489540100098
sS'comp_time'
p394
F0.0058062076568603516
sS'exec_cq'
p395
I5
sS'total_cq'
p396
I5
sa(dp397
g392
I1
sg393
F0.00024199485778808594
sg394
F0.0010597705841064453
sg395
I3
sg396
I3
sa(dp398
g392
I0
sg393
F2.002716064453125e-05
sg394
F8.392333984375e-05
sg395
I2
sg396
I2
sasS'total_cqs'
p399
I5
ssI50
(dp400
S'iters'
p401
I2
sS'meta'
p402
(lp403
(dp404
S'objective'
p405
I3
sS'query_time'
p406
F0.9434030055999756
sS'comp_time'
p407
F0.0012619495391845703
sS'exec_cq'
p408
I5
sS'total_cq'
p409
I5
sa(dp410
g405
I2
sg406
F0.0001399517059326172
sg407
F0.0008852481842041016
sg408
I4
sg409
I4
sasS'total_cqs'
p411
I5
ssI55
(dp412
S'iters'
p413
I1
sS'meta'
p414
(lp415
(dp416
S'objective'
p417
I0
sS'query_time'
p418
F26.55616021156311
sS'comp_time'
p419
F3.7611918449401855
sS'exec_cq'
p420
I2
sS'total_cq'
p421
I2
sasS'total_cqs'
p422
I2
ssI57
(dp423
S'iters'
p424
I1
sS'meta'
p425
(lp426
(dp427
S'objective'
p428
I1
sS'query_time'
p429
F13.834236860275269
sS'comp_time'
p430
F1.9460220336914062
sS'exec_cq'
p431
I3
sS'total_cq'
p432
I3
sasS'total_cqs'
p433
I3
ssI116
(dp434
S'iters'
p435
I3
sS'meta'
p436
(lp437
(dp438
S'objective'
p439
I15
sS'query_time'
p440
F5.692734956741333
sS'comp_time'
p441
F0.28943514823913574
sS'exec_cq'
p442
I21
sS'total_cq'
p443
I21
sa(dp444
g439
I1
sg440
F0.0014221668243408203
sg441
F0.004029035568237305
sg442
I3
sg443
I3
sa(dp445
g439
I0
sg440
F0.0006661415100097656
sg441
F0.0027480125427246094
sg442
I2
sg443
I2
sasS'total_cqs'
p446
I21
ssI117
(dp447
S'iters'
p448
I1
sS'meta'
p449
(lp450
(dp451
S'objective'
p452
I3
sS'query_time'
p453
F0.014234066009521484
sS'comp_time'
p454
F0.00011801719665527344
sS'exec_cq'
p455
I5
sS'total_cq'
p456
I5
sasS'total_cqs'
p457
I5
ss.