(dp0
I1
(dp1
S'iters'
p2
I8
sS'meta'
p3
(lp4
(dp5
S'objective'
p6
I2
sS'query_time'
p7
F20.00487494468689
sS'total_cq'
p8
I6
sS'comp_time'
p9
F0.24452471733093262
sa(dp10
g6
I2
sg7
F0.0030281543731689453
sg8
I4
sg9
F0.0032813549041748047
sa(dp11
g6
I1
sg7
F26.17056703567505
sg8
I3
sg9
F0.0028200149536132812
sa(dp12
g6
I2
sg7
F0.4839468002319336
sg8
I2
sg9
F2.8470449447631836
sa(dp13
g6
I2
sg7
F0.0010259151458740234
sg8
I2
sg9
F2.529635190963745
sa(dp14
g6
I2
sg7
F0.0010159015655517578
sg8
I2
sg9
F1.990912914276123
sa(dp15
g6
I2
sg7
F0.001024007797241211
sg8
I2
sg9
F1.6727850437164307
sa(dp16
g6
I0
sg7
F9.96756386756897
sg8
I2
sg9
F0.029679059982299805
sasS'total_cqs'
p17
I6
ssI2
(dp18
g2
I1
sg3
(lp19
(dp20
g6
I4
sg7
F0.5462889671325684
sg8
I6
sg9
F0.0016338825225830078
sasg17
I6
ssI3
(dp21
g2
I18
sg3
(lp22
(dp23
g6
I31
sg7
F0.032540082931518555
sg8
I33
sg9
F0.018596887588500977
sa(dp24
g6
I28
sg7
F0.005368947982788086
sg8
I32
sg9
F0.019363880157470703
sa(dp25
g6
I24
sg7
F0.001528024673461914
sg8
I30
sg9
F0.019021987915039062
sa(dp26
g6
I23
sg7
F0.039021968841552734
sg8
I27
sg9
F0.01673293113708496
sa(dp27
g6
I23
sg7
F0.0050470829010009766
sg8
I25
sg9
F0.016253232955932617
sa(dp28
g6
I22
sg7
F0.001093149185180664
sg8
I24
sg9
F0.014272689819335938
sa(dp29
g6
I21
sg7
F0.019975900650024414
sg8
I23
sg9
F0.013592958450317383
sa(dp30
g6
I20
sg7
F2.431929111480713
sg8
I22
sg9
F0.031054973602294922
sa(dp31
g6
I17
sg7
F0.0009708404541015625
sg8
I21
sg9
F0.013285160064697266
sa(dp32
g6
I13
sg7
F0.1972370147705078
sg8
I19
sg9
F0.3103480339050293
sa(dp33
g6
I14
sg7
F0.001486063003540039
sg8
I16
sg9
F0.5544459819793701
sa(dp34
g6
I13
sg7
F0.03641796112060547
sg8
I15
sg9
F1.0868380069732666
sa(dp35
g6
I12
sg7
F0.23169302940368652
sg8
I14
sg9
F0.010543107986450195
sa(dp36
g6
I11
sg7
F0.0015017986297607422
sg8
I13
sg9
F0.007237672805786133
sa(dp37
g6
I8
sg7
F0.0035910606384277344
sg8
I12
sg9
F0.007779836654663086
sa(dp38
g6
I4
sg7
F0.0012750625610351562
sg8
I10
sg9
F0.006136894226074219
sa(dp39
g6
I3
sg7
F0.01728510856628418
sg8
I7
sg9
F0.0034170150756835938
sa(dp40
g6
I3
sg7
F0.15659093856811523
sg8
I5
sg9
F0.0028188228607177734
sasg17
I33
ssI4
(dp41
g2
I0
sg3
(lp42
sg17
I1
ssI5
(dp43
g2
I0
sg3
(lp44
sg17
I1
ssI6
(dp45
g2
I4
sg3
(lp46
(dp47
g6
I1
sg7
F0.010390996932983398
sg8
I5
sg9
F0.2787950038909912
sa(dp48
g6
I3
sg7
F5.602836608886719e-05
sg8
I3
sg9
F0.26014184951782227
sa(dp49
g6
I1
sg7
F3.5252511501312256
sg8
I3
sg9
F0.03954291343688965
sa(dp50
g6
I0
sg7
F3.7553818225860596
sg8
I2
sg9
F0.0011568069458007812
sasg17
I5
ssI7
(dp51
g2
I0
sg3
(lp52
sg17
I1
ssI8
(dp53
g2
I1
sg3
(lp54
(dp55
g6
I4
sg7
F20.851217031478882
sg8
I6
sg9
F6.940591096878052
sasg17
I6
ssI9
(dp56
g2
I4
sg3
(lp57
(dp58
g6
I4
sg7
F20.007773876190186
sg8
I6
sg9
F0.007228851318359375
sa(dp59
g6
I3
sg7
F16.52212619781494
sg8
I5
sg9
F0.004751920700073242
sa(dp60
g6
I0
sg7
F0.004724979400634766
sg8
I4
sg9
F0.32491183280944824
sa(dp61
g6
I0
sg7
F0.994236946105957
sg8
I2
sg9
F0.030292987823486328
sasg17
I6
ssI10
(dp62
g2
I0
sg3
(lp63
sg17
I1
ssI11
(dp64
g2
I0
sg3
(lp65
sg17
I1
ssI12
(dp66
g2
I0
sg3
(lp67
sg17
I1
ssI13
(dp68
g2
I1
sg3
(lp69
(dp70
g6
I6
sg7
F0.0065898895263671875
sg8
I8
sg9
F0.06433606147766113
sasg17
I8
ssI14
(dp71
g2
I1
sg3
(lp72
(dp73
g6
I3
sg7
F0.3388960361480713
sg8
I5
sg9
F0.003599882125854492
sasg17
I5
ssI16
(dp74
g2
I2
sg3
(lp75
(dp76
g6
I1
sg7
F0.020214080810546875
sg8
I5
sg9
F1.1375811100006104
sa(dp77
g6
I0
sg7
F0.4775660037994385
sg8
I2
sg9
F0.00164031982421875
sasg17
I5
ssI17
(dp78
g2
I0
sg3
(lp79
sg17
I1
ssI18
(dp80
g2
I6
sg3
(lp81
(dp82
g6
I1
sg7
F0.020322799682617188
sg8
I5
sg9
F0.533289909362793
sa(dp83
g6
I1
sg7
F0.022459983825683594
sg8
I3
sg9
F1.0486018657684326
sa(dp84
g6
I2
sg7
F0.012964963912963867
sg8
I2
sg9
F0.05894637107849121
sa(dp85
g6
I2
sg7
F2.9087066650390625e-05
sg8
I2
sg9
F0.05749917030334473
sa(dp86
g6
I2
sg7
F0.00019097328186035156
sg8
I2
sg9
F0.06283402442932129
sa(dp87
g6
I0
sg7
F0.02503800392150879
sg8
I2
sg9
F0.008476018905639648
sasg17
I5
ssI19
(dp88
g2
I0
sg3
(lp89
sg17
I1
ssI20
(dp90
g2
I2
sg3
(lp91
(dp92
g6
I8
sg7
F0.004622936248779297
sg8
I12
sg9
F0.016952991485595703
sa(dp93
g6
I8
sg7
F0.08794903755187988
sg8
I10
sg9
F0.01063227653503418
sasg17
I12
ssI21
(dp94
g2
I2
sg3
(lp95
(dp96
g6
I12
sg7
F0.25156307220458984
sg8
I14
sg9
F0.011154890060424805
sa(dp97
g6
I11
sg7
F0.0077860355377197266
sg8
I13
sg9
F0.009610176086425781
sasg17
I14
ssI22
(dp98
g2
I1
sg3
(lp99
(dp100
g6
I0
sg7
F0.0013210773468017578
sg8
I2
sg9
F0.0009186267852783203
sasg17
I2
ssI23
(dp101
g2
I0
sg3
(lp102
sg17
I1
ssI24
(dp103
g2
I0
sg3
(lp104
sg17
I1
ssI25
(dp105
g2
I2
sg3
(lp106
(dp107
g6
I5
sg7
F30.425031185150146
sg8
I7
sg9
F0.03933095932006836
sa(dp108
g6
I4
sg7
F0.13167691230773926
sg8
I6
sg9
F0.005152702331542969
sasg17
I7
ssI26
(dp109
g2
I11
sg3
(lp110
(dp111
g6
I9
sg7
F0.003381013870239258
sg8
I13
sg9
F0.7911701202392578
sa(dp112
g6
I9
sg7
F0.0314488410949707
sg8
I11
sg9
F0.0068798065185546875
sa(dp113
g6
I8
sg7
F2.874361038208008
sg8
I10
sg9
F0.12311887741088867
sa(dp114
g6
I7
sg7
F0.024039030075073242
sg8
I9
sg9
F0.004633903503417969
sa(dp115
g6
I6
sg7
F0.017718791961669922
sg8
I8
sg9
F0.0042629241943359375
sa(dp116
g6
I5
sg7
F0.018862009048461914
sg8
I7
sg9
F0.0034520626068115234
sa(dp117
g6
I4
sg7
F16.376304149627686
sg8
I6
sg9
F0.003751993179321289
sa(dp118
g6
I3
sg7
F0.04552412033081055
sg8
I5
sg9
F0.0038607120513916016
sa(dp119
g6
I2
sg7
F0.0197751522064209
sg8
I4
sg9
F0.0020117759704589844
sa(dp120
g6
I1
sg7
F0.04312705993652344
sg8
I3
sg9
F0.0012640953063964844
sa(dp121
g6
I0
sg7
F0.0008020401000976562
sg8
I2
sg9
F0.0006928443908691406
sasg17
I13
ssI27
(dp122
g2
I1
sg3
(lp123
(dp124
g6
I0
sg7
F0.08870816230773926
sg8
I2
sg9
F0.0001087188720703125
sasg17
I2
ssI28
(dp125
g2
I5
sg3
(lp126
(dp127
g6
I12
sg7
F0.0014140605926513672
sg8
I14
sg9
F0.37364768981933594
sa(dp128
g6
I3
sg7
F0.002686023712158203
sg8
I13
sg9
F0.4041430950164795
sa(dp129
g6
I6
sg7
F0.01273488998413086
sg8
I8
sg9
F0.23149800300598145
sa(dp130
g6
I5
sg7
F0.0019080638885498047
sg8
I7
sg9
F0.18915414810180664
sa(dp131
g6
I4
sg7
F0.0019609928131103516
sg8
I6
sg9
F0.14401578903198242
sasg17
I14
ssI29
(dp132
g2
I1
sg3
(lp133
(dp134
g6
I0
sg7
F0.002660989761352539
sg8
I2
sg9
F9.512901306152344e-05
sasg17
I2
ssI30
(dp135
g2
I1
sg3
(lp136
(dp137
g6
I0
sg7
F0.11908102035522461
sg8
I2
sg9
F0.0014939308166503906
sasg17
I2
ssI31
(dp138
g2
I8
sg3
(lp139
(dp140
g6
I7
sg7
F0.0010960102081298828
sg8
I9
sg9
F0.0489501953125
sa(dp141
g6
I6
sg7
F1.9914941787719727
sg8
I8
sg9
F0.7052991390228271
sa(dp142
g6
I5
sg7
F0.001249074935913086
sg8
I7
sg9
F0.006390810012817383
sa(dp143
g6
I2
sg7
F0.001068115234375
sg8
I6
sg9
F1.0768496990203857
sa(dp144
g6
I2
sg7
F0.22583603858947754
sg8
I4
sg9
F0.0041637420654296875
sa(dp145
g6
I1
sg7
F0.28175806999206543
sg8
I3
sg9
F0.003050088882446289
sa(dp146
g6
I2
sg7
F0.3371100425720215
sg8
I2
sg9
F0.9348130226135254
sa(dp147
g6
I0
sg7
F0.00018215179443359375
sg8
I2
sg9
F2.9449849128723145
sasg17
I9
ssI32
(dp148
g2
I4
sg3
(lp149
(dp150
g6
I3
sg7
F0.5774099826812744
sg8
I7
sg9
F0.07584309577941895
sa(dp151
g6
I3
sg7
F5.910294055938721
sg8
I5
sg9
F0.004424095153808594
sa(dp152
g6
I2
sg7
F1.317176103591919
sg8
I4
sg9
F0.03873395919799805
sa(dp153
g6
I1
sg7
F0.06369280815124512
sg8
I3
sg9
F0.001516103744506836
sasg17
I7
ssI33
(dp154
g2
I1
sg3
(lp155
(dp156
g6
I0
sg7
F0.009227991104125977
sg8
I2
sg9
F0.0007941722869873047
sasg17
I2
ssI34
(dp157
g2
I0
sg3
(lp158
sg17
I1
ssI35
(dp159
g2
I3
sg3
(lp160
(dp161
g6
I1
sg7
F0.8090660572052002
sg8
I5
sg9
F0.6149671077728271
sa(dp162
g6
I1
sg7
F4.058084011077881
sg8
I3
sg9
F0.008074283599853516
sa(dp163
g6
I0
sg7
F0.047770023345947266
sg8
I2
sg9
F0.0006999969482421875
sasg17
I5
ssI37
(dp164
g2
I2
sg3
(lp165
(dp166
g6
I6
sg7
F0.1653280258178711
sg8
I10
sg9
F3.3056228160858154
sa(dp167
g6
I0
sg7
F0.1851339340209961
sg8
I2
sg9
F0.03622293472290039
sasg17
I10
ssI38
(dp168
g2
I0
sg3
(lp169
sg17
I1
ssI39
(dp170
g2
I0
sg3
(lp171
sg17
I1
ssI40
(dp172
g2
I1
sg3
(lp173
(dp174
g6
I0
sg7
F13.465791940689087
sg8
I2
sg9
F0.0011248588562011719
sasg17
I2
ssI41
(dp175
g2
I2
sg3
(lp176
(dp177
g6
I2
sg7
F0.03245997428894043
sg8
I6
sg9
F2.7906558513641357
sa(dp178
g6
I0
sg7
F0.4332549571990967
sg8
I2
sg9
F0.03306913375854492
sasg17
I6
ssI42
(dp179
g2
I1
sg3
(lp180
(dp181
g6
I0
sg7
F13.389001846313477
sg8
I2
sg9
F0.03476262092590332
sasg17
I2
ssI43
(dp182
g2
I0
sg3
(lp183
sg17
I1
ssI44
(dp184
g2
I3
sg3
(lp185
(dp186
g6
I3
sg7
F0.8376960754394531
sg8
I5
sg9
F0.004826068878173828
sa(dp187
g6
I2
sg7
F0.14957499504089355
sg8
I4
sg9
F0.19632625579833984
sa(dp188
g6
I1
sg7
F0.0021839141845703125
sg8
I3
sg9
F0.002499818801879883
sasg17
I5
ssI45
(dp189
g2
I2
sg3
(lp190
(dp191
g6
I1
sg7
F0.005525827407836914
sg8
I5
sg9
F0.008989095687866211
sa(dp192
g6
I0
sg7
F0.021828889846801758
sg8
I2
sg9
F1.8071999549865723
sasg17
I5
ssI46
(dp193
g2
I0
sg3
(lp194
sg17
I1
ssI47
(dp195
g2
I0
sg3
(lp196
sg17
I1
ssI48
(dp197
g2
I1
sg3
(lp198
(dp199
g6
I0
sg7
F0.06520485877990723
sg8
I2
sg9
F0.023895740509033203
sasg17
I2
ssI49
(dp200
g2
I3
sg3
(lp201
(dp202
g6
I1
sg7
F0.03150510787963867
sg8
I5
sg9
F0.3310568332672119
sa(dp203
g6
I1
sg7
F0.04225778579711914
sg8
I3
sg9
F0.0017490386962890625
sa(dp204
g6
I0
sg7
F0.004271984100341797
sg8
I2
sg9
F0.007766008377075195
sasg17
I5
ssI50
(dp205
g2
I1
sg3
(lp206
(dp207
g6
I3
sg7
F0.267841100692749
sg8
I5
sg9
F0.002393960952758789
sasg17
I5
ssI51
(dp208
g2
I0
sg3
(lp209
sg17
I1
ssI52
(dp210
g2
I0
sg3
(lp211
sg17
I1
ssI53
(dp212
g2
I0
sg3
(lp213
sg17
I1
ssI55
(dp214
g2
I59
sg3
(lp215
(dp216
g6
I2
sg7
F20.0036039352417
sg8
I2
sg9
F0.40645790100097656
sa(dp217
g6
I2
sg7
F2.6636600494384766
sg8
I2
sg9
F0.020183086395263672
sa(dp218
g6
I2
sg7
F0.00045108795166015625
sg8
I2
sg9
F0.6198351383209229
sa(dp219
g6
I2
sg7
F2.193450927734375e-05
sg8
I2
sg9
F0.36392998695373535
sa(dp220
g6
I2
sg7
F0.0005331039428710938
sg8
I2
sg9
F0.7696900367736816
sa(dp221
g6
I2
sg7
F3.910064697265625e-05
sg8
I2
sg9
F0.3560209274291992
sa(dp222
g6
I2
sg7
F5.4836273193359375e-05
sg8
I2
sg9
F0.3618741035461426
sa(dp223
g6
I2
sg7
F2.2172927856445312e-05
sg8
I2
sg9
F0.3578071594238281
sa(dp224
g6
I2
sg7
F0.0005500316619873047
sg8
I2
sg9
F0.011532783508300781
sa(dp225
g6
I2
sg7
F0.0007150173187255859
sg8
I2
sg9
F0.062304019927978516
sa(dp226
g6
I2
sg7
F0.0007660388946533203
sg8
I2
sg9
F0.10657501220703125
sa(dp227
g6
I2
sg7
F0.0001049041748046875
sg8
I2
sg9
F0.3574240207672119
sa(dp228
g6
I2
sg7
F0.0008318424224853516
sg8
I2
sg9
F0.27869296073913574
sa(dp229
g6
I2
sg7
F0.0008230209350585938
sg8
I2
sg9
F0.10111212730407715
sa(dp230
g6
I2
sg7
F2.5987625122070312e-05
sg8
I2
sg9
F0.372546911239624
sa(dp231
g6
I2
sg7
F0.00086212158203125
sg8
I2
sg9
F0.04228377342224121
sa(dp232
g6
I2
sg7
F3.695487976074219e-05
sg8
I2
sg9
F0.36149096488952637
sa(dp233
g6
I2
sg7
F7.700920104980469e-05
sg8
I2
sg9
F0.36110496520996094
sa(dp234
g6
I2
sg7
F0.0005099773406982422
sg8
I2
sg9
F0.022732257843017578
sa(dp235
g6
I2
sg7
F0.0008530616760253906
sg8
I2
sg9
F0.13843894004821777
sa(dp236
g6
I2
sg7
F5.1975250244140625e-05
sg8
I2
sg9
F0.3585221767425537
sa(dp237
g6
I2
sg7
F0.0008349418640136719
sg8
I2
sg9
F0.03395223617553711
sa(dp238
g6
I2
sg7
F0.0008180141448974609
sg8
I2
sg9
F0.3030409812927246
sa(dp239
g6
I2
sg7
F9.799003601074219e-05
sg8
I2
sg9
F0.35566091537475586
sa(dp240
g6
I2
sg7
F0.0004940032958984375
sg8
I2
sg9
F0.5882759094238281
sa(dp241
g6
I2
sg7
F2.6941299438476562e-05
sg8
I2
sg9
F0.3583800792694092
sa(dp242
g6
I2
sg7
F0.0008819103240966797
sg8
I2
sg9
F0.12298893928527832
sa(dp243
g6
I2
sg7
F4.982948303222656e-05
sg8
I2
sg9
F0.3565092086791992
sa(dp244
g6
I2
sg7
F0.0008828639984130859
sg8
I2
sg9
F0.010959863662719727
sa(dp245
g6
I2
sg7
F0.0005061626434326172
sg8
I2
sg9
F0.3849811553955078
sa(dp246
g6
I2
sg7
F4.792213439941406e-05
sg8
I2
sg9
F0.35851597785949707
sa(dp247
g6
I2
sg7
F0.0001308917999267578
sg8
I2
sg9
F0.35883164405822754
sa(dp248
g6
I2
sg7
F2.3126602172851562e-05
sg8
I2
sg9
F0.35906028747558594
sa(dp249
g6
I2
sg7
F4.696846008300781e-05
sg8
I2
sg9
F0.3607630729675293
sa(dp250
g6
I2
sg7
F0.0008859634399414062
sg8
I2
sg9
F0.036572933197021484
sa(dp251
g6
I2
sg7
F0.0008151531219482422
sg8
I2
sg9
F0.12510204315185547
sa(dp252
g6
I2
sg7
F0.0009691715240478516
sg8
I2
sg9
F0.021698951721191406
sa(dp253
g6
I2
sg7
F5.0067901611328125e-05
sg8
I2
sg9
F0.36354994773864746
sa(dp254
g6
I2
sg7
F0.0005109310150146484
sg8
I2
sg9
F0.32691097259521484
sa(dp255
g6
I2
sg7
F0.0008189678192138672
sg8
I2
sg9
F0.2498769760131836
sa(dp256
g6
I2
sg7
F0.0008108615875244141
sg8
I2
sg9
F0.566317081451416
sa(dp257
g6
I2
sg7
F0.0008280277252197266
sg8
I2
sg9
F0.06675601005554199
sa(dp258
g6
I2
sg7
F0.0009009838104248047
sg8
I2
sg9
F0.022735118865966797
sa(dp259
g6
I2
sg7
F4.9114227294921875e-05
sg8
I2
sg9
F0.35852479934692383
sa(dp260
g6
I2
sg7
F0.0008821487426757812
sg8
I2
sg9
F0.047316789627075195
sa(dp261
g6
I2
sg7
F0.0009548664093017578
sg8
I2
sg9
F0.023601055145263672
sa(dp262
g6
I2
sg7
F0.0007030963897705078
sg8
I2
sg9
F0.4338200092315674
sa(dp263
g6
I2
sg7
F0.0008211135864257812
sg8
I2
sg9
F0.35311317443847656
sa(dp264
g6
I2
sg7
F4.8160552978515625e-05
sg8
I2
sg9
F0.3631930351257324
sa(dp265
g6
I2
sg7
F0.0008289813995361328
sg8
I2
sg9
F0.05339312553405762
sa(dp266
g6
I2
sg7
F4.601478576660156e-05
sg8
I2
sg9
F0.3610529899597168
sa(dp267
g6
I2
sg7
F0.0008139610290527344
sg8
I2
sg9
F0.058770179748535156
sa(dp268
g6
I2
sg7
F4.506111145019531e-05
sg8
I2
sg9
F0.3604729175567627
sa(dp269
g6
I2
sg7
F0.0008220672607421875
sg8
I2
sg9
F0.04941987991333008
sa(dp270
g6
I2
sg7
F5.0067901611328125e-05
sg8
I2
sg9
F0.3613619804382324
sa(dp271
g6
I2
sg7
F0.0008218288421630859
sg8
I2
sg9
F0.024866819381713867
sa(dp272
g6
I2
sg7
F0.0008018016815185547
sg8
I2
sg9
F0.02478814125061035
sa(dp273
g6
I2
sg7
F0.0008680820465087891
sg8
I2
sg9
F0.01283884048461914
sa(dp274
g6
I0
sg7
F0.0007259845733642578
sg8
I2
sg9
F0.37142109870910645
sasg17
I2
ssI56
(dp275
g2
I0
sg3
(lp276
sg17
I1
ssI57
(dp277
g2
I1
sg3
(lp278
(dp279
g6
I1
sg7
F8.808719158172607
sg8
I3
sg9
F0.01261591911315918
sasg17
I3
ssI108
(dp280
g2
I0
sg3
(lp281
sg17
I1
ssI109
(dp282
g2
I0
sg3
(lp283
sg17
I1
ssI116
(dp284
g2
I3
sg3
(lp285
(dp286
g6
I17
sg7
F0.04839611053466797
sg8
I21
sg9
F0.6981339454650879
sa(dp287
g6
I2
sg7
F7.891654968261719e-05
sg8
I2
sg9
F0.23424696922302246
sa(dp288
g6
I0
sg7
F0.32349705696105957
sg8
I2
sg9
F0.03376913070678711
sasg17
I21
ssI117
(dp289
g2
I2
sg3
(lp290
(dp291
g6
I3
sg7
F0.002507925033569336
sg8
I5
sg9
F0.0018336772918701172
sa(dp292
g6
I2
sg7
F0.003242015838623047
sg8
I4
sg9
F9.012222290039062e-05
sasg17
I5
ssI118
(dp293
g2
I0
sg3
(lp294
sg17
I1
ssI122
(dp295
g2
I0
sg3
(lp296
sg17
I1
ss.