(dp0
I1
(dp1
S'iters'
p2
I3
sS'meta'
p3
(lp4
(dp5
S'objective'
p6
I2
sS'query_time'
p7
F40.620254039764404
sS'total_cq'
p8
I6
sS'comp_time'
p9
F0.6408541202545166
sa(dp10
g6
I0
sg7
F0.19928812980651855
sg8
I4
sg9
F0.23829150199890137
sa(dp11
g6
I0
sg7
F0.016093015670776367
sg8
I2
sg9
F0.0091400146484375
sasS'total_cqs'
p12
I6
ssI2
(dp13
g2
I1
sg3
(lp14
(dp15
g6
I4
sg7
F0.759099006652832
sg8
I6
sg9
F0.04001808166503906
sasg12
I6
ssI3
(dp16
g2
I15
sg3
(lp17
(dp18
g6
I27
sg7
F16.874917030334473
sg8
I33
sg9
F0.27375102043151855
sa(dp19
g6
I24
sg7
F0.0938119888305664
sg8
I30
sg9
F0.05803990364074707
sa(dp20
g6
I21
sg7
F0.10701608657836914
sg8
I27
sg9
F0.06454849243164062
sa(dp21
g6
I18
sg7
F0.08248186111450195
sg8
I24
sg9
F0.04081583023071289
sa(dp22
g6
I15
sg7
F0.028441905975341797
sg8
I21
sg9
F0.11435961723327637
sa(dp23
g6
I12
sg7
F0.015045642852783203
sg8
I18
sg9
F0.020798206329345703
sa(dp24
g6
I9
sg7
F0.0787661075592041
sg8
I15
sg9
F0.02089524269104004
sa(dp25
g6
I8
sg7
F0.013149023056030273
sg8
I12
sg9
F0.016489744186401367
sa(dp26
g6
I8
sg7
F0.00909113883972168
sg8
I10
sg9
F0.015488147735595703
sa(dp27
g6
I7
sg7
F0.008700847625732422
sg8
I9
sg9
F0.0718393325805664
sa(dp28
g6
I6
sg7
F0.013025045394897461
sg8
I8
sg9
F0.016550779342651367
sa(dp29
g6
I5
sg7
F0.0061070919036865234
sg8
I7
sg9
F0.007652759552001953
sa(dp30
g6
I4
sg7
F0.0059909820556640625
sg8
I6
sg9
F0.008175849914550781
sa(dp31
g6
I3
sg7
F0.006090879440307617
sg8
I5
sg9
F0.007230997085571289
sa(dp32
g6
I2
sg7
F0.005122184753417969
sg8
I4
sg9
F0.006177663803100586
sasg12
I33
ssI4
(dp33
g2
I0
sg3
(lp34
sg12
I1
ssI5
(dp35
g2
I0
sg3
(lp36
sg12
I1
ssI6
(dp37
g2
I2
sg3
(lp38
(dp39
g6
I1
sg7
F8.942370891571045
sg8
I5
sg9
F0.0034532546997070312
sa(dp40
g6
I0
sg7
F0.0011379718780517578
sg8
I2
sg9
F0.0007457733154296875
sasg12
I5
ssI7
(dp41
g2
I0
sg3
(lp42
sg12
I1
ssI8
(dp43
g2
I3
sg3
(lp44
(dp45
g6
I4
sg7
F103.34126901626587
sg8
I6
sg9
F0.19162702560424805
sa(dp46
g6
I3
sg7
F0.03215193748474121
sg8
I5
sg9
F0.12966609001159668
sa(dp47
g6
I2
sg7
F0.03277993202209473
sg8
I4
sg9
F0.1321868896484375
sasg12
I6
ssI9
(dp48
g2
I3
sg3
(lp49
(dp50
g6
I0
sg7
F6.640316963195801
sg8
I6
sg9
F0.06396913528442383
sa(dp51
g6
I1
sg7
F0.0643320083618164
sg8
I3
sg9
F0.15546917915344238
sa(dp52
g6
I0
sg7
F0.017116069793701172
sg8
I2
sg9
F0.016944169998168945
sasg12
I6
ssI10
(dp53
g2
I0
sg3
(lp54
sg12
I1
ssI11
(dp55
g2
I0
sg3
(lp56
sg12
I1
ssI12
(dp57
g2
I0
sg3
(lp58
sg12
I1
ssI13
(dp59
g2
I1
sg3
(lp60
(dp61
g6
I6
sg7
F0.01941394805908203
sg8
I8
sg9
F0.0034089088439941406
sasg12
I8
ssI14
(dp62
g2
I1
sg3
(lp63
(dp64
g6
I3
sg7
F0.4657320976257324
sg8
I5
sg9
F0.004443168640136719
sasg12
I5
ssI16
(dp65
g2
I3
sg3
(lp66
(dp67
g6
I1
sg7
F0.6161298751831055
sg8
I5
sg9
F0.004208564758300781
sa(dp68
g6
I1
sg7
F0.03194093704223633
sg8
I3
sg9
F0.00010585784912109375
sa(dp69
g6
I0
sg7
F0.0004451274871826172
sg8
I2
sg9
F0.00015807151794433594
sasg12
I5
ssI17
(dp70
g2
I0
sg3
(lp71
sg12
I1
ssI18
(dp72
g2
I3
sg3
(lp73
(dp74
g6
I1
sg7
F0.11446785926818848
sg8
I5
sg9
F0.004794120788574219
sa(dp75
g6
I1
sg7
F0.03193306922912598
sg8
I3
sg9
F9.298324584960938e-05
sa(dp76
g6
I0
sg7
F0.0012371540069580078
sg8
I2
sg9
F0.0001614093780517578
sasg12
I5
ssI19
(dp77
g2
I0
sg3
(lp78
sg12
I1
ssI20
(dp79
g2
I5
sg3
(lp80
(dp81
g6
I8
sg7
F9.557093143463135
sg8
I12
sg9
F0.8028233051300049
sa(dp82
g6
I6
sg7
F0.26079392433166504
sg8
I10
sg9
F0.47827863693237305
sa(dp83
g6
I4
sg7
F0.178361177444458
sg8
I8
sg9
F0.391481876373291
sa(dp84
g6
I4
sg7
F0.18171024322509766
sg8
I6
sg9
F0.4805467128753662
sa(dp85
g6
I3
sg7
F0.3018660545349121
sg8
I5
sg9
F0.34546446800231934
sasg12
I12
ssI21
(dp86
g2
I4
sg3
(lp87
(dp88
g6
I8
sg7
F132.6895797252655
sg8
I14
sg9
F11.311943292617798
sa(dp89
g6
I5
sg7
F2.3500351905822754
sg8
I11
sg9
F6.167264461517334
sa(dp90
g6
I4
sg7
F2.825917959213257
sg8
I8
sg9
F4.431509971618652
sa(dp91
g6
I4
sg7
F0.049592018127441406
sg8
I6
sg9
F0.024704933166503906
sasg12
I14
ssI22
(dp92
g2
I1
sg3
(lp93
(dp94
g6
I0
sg7
F0.0036661624908447266
sg8
I2
sg9
F0.000476837158203125
sasg12
I2
ssI23
(dp95
g2
I0
sg3
(lp96
sg12
I1
ssI24
(dp97
g2
I0
sg3
(lp98
sg12
I1
ssI25
(dp99
g2
I3
sg3
(lp100
(dp101
g6
I3
sg7
F85.04091191291809
sg8
I7
sg9
F5.131198406219482
sa(dp102
g6
I1
sg7
F2.807884931564331
sg8
I5
sg9
F6.1650450229644775
sa(dp103
g6
I1
sg7
F2.2716097831726074
sg8
I3
sg9
F5.66919732093811
sasg12
I7
ssI26
(dp104
g2
I8
sg3
(lp105
(dp106
g6
I9
sg7
F17.83119297027588
sg8
I13
sg9
F3.4407284259796143
sa(dp107
g6
I7
sg7
F4.086605787277222
sg8
I11
sg9
F1.9967565536499023
sa(dp108
g6
I5
sg7
F0.8922522068023682
sg8
I9
sg9
F1.888300895690918
sa(dp109
g6
I5
sg7
F1.0304710865020752
sg8
I7
sg9
F2.9383511543273926
sa(dp110
g6
I4
sg7
F1.4167799949645996
sg8
I6
sg9
F3.613661527633667
sa(dp111
g6
I3
sg7
F0.8428637981414795
sg8
I5
sg9
F1.9353408813476562
sa(dp112
g6
I2
sg7
F0.9371728897094727
sg8
I4
sg9
F1.7873883247375488
sa(dp113
g6
I1
sg7
F0.6939432621002197
sg8
I3
sg9
F3.080033779144287
sasg12
I13
ssI27
(dp114
g2
I1
sg3
(lp115
(dp116
g6
I0
sg7
F0.11437201499938965
sg8
I2
sg9
F0.0009140968322753906
sasg12
I2
ssI28
(dp117
g2
I3
sg3
(lp118
(dp119
g6
I8
sg7
F0.8174400329589844
sg8
I14
sg9
F0.016438961029052734
sa(dp120
g6
I7
sg7
F0.011416912078857422
sg8
I11
sg9
F0.008791923522949219
sa(dp121
g6
I7
sg7
F0.005180835723876953
sg8
I9
sg9
F0.0001728534698486328
sasg12
I14
ssI29
(dp122
g2
I1
sg3
(lp123
(dp124
g6
I0
sg7
F0.007508039474487305
sg8
I2
sg9
F0.0009610652923583984
sasg12
I2
ssI30
(dp125
g2
I1
sg3
(lp126
(dp127
g6
I0
sg7
F0.16457605361938477
sg8
I2
sg9
F0.0010137557983398438
sasg12
I2
ssI31
(dp128
g2
I3
sg3
(lp129
(dp130
g6
I3
sg7
F3.241032123565674
sg8
I9
sg9
F0.08225297927856445
sa(dp131
g6
I1
sg7
F0.015810012817382812
sg8
I3
sg9
F0.009418964385986328
sa(dp132
g6
I0
sg7
F0.008857965469360352
sg8
I2
sg9
F0.009778976440429688
sasg12
I9
ssI32
(dp133
g2
I3
sg3
(lp134
(dp135
g6
I1
sg7
F15.907999992370605
sg8
I7
sg9
F1.887073040008545
sa(dp136
g6
I0
sg7
F0.9172420501708984
sg8
I4
sg9
F0.003184080123901367
sa(dp137
g6
I0
sg7
F0.30719518661499023
sg8
I2
sg9
F0.23833680152893066
sasg12
I7
ssI33
(dp138
g2
I1
sg3
(lp139
(dp140
g6
I0
sg7
F0.03214693069458008
sg8
I2
sg9
F0.0007040500640869141
sasg12
I2
ssI34
(dp141
g2
I0
sg3
(lp142
sg12
I1
ssI35
(dp143
g2
I2
sg3
(lp144
(dp145
g6
I1
sg7
F10.773179054260254
sg8
I5
sg9
F0.18487882614135742
sa(dp146
g6
I0
sg7
F0.016236066818237305
sg8
I2
sg9
F0.023615121841430664
sasg12
I5
ssI37
(dp147
g2
I2
sg3
(lp148
(dp149
g6
I6
sg7
F1.3082709312438965
sg8
I10
sg9
F0.02785944938659668
sa(dp150
g6
I0
sg7
F0.0037298202514648438
sg8
I2
sg9
F0.003782033920288086
sasg12
I10
ssI38
(dp151
g2
I0
sg3
(lp152
sg12
I1
ssI39
(dp153
g2
I0
sg3
(lp154
sg12
I1
ssI40
(dp155
g2
I1
sg3
(lp156
(dp157
g6
I0
sg7
F0.003618955612182617
sg8
I2
sg9
F0.0004353523254394531
sasg12
I2
ssI41
(dp158
g2
I2
sg3
(lp159
(dp160
g6
I2
sg7
F8.893647909164429
sg8
I6
sg9
F0.6760120391845703
sa(dp161
g6
I0
sg7
F0.0014629364013671875
sg8
I2
sg9
F0.0010521411895751953
sasg12
I6
ssI42
(dp162
g2
I1
sg3
(lp163
(dp164
g6
I0
sg7
F0.007688999176025391
sg8
I2
sg9
F0.0004801750183105469
sasg12
I2
ssI43
(dp165
g2
I0
sg3
(lp166
sg12
I1
ssI44
(dp167
g2
I2
sg3
(lp168
(dp169
g6
I1
sg7
F1.133415937423706
sg8
I5
sg9
F0.027456283569335938
sa(dp170
g6
I1
sg7
F0.0195157527923584
sg8
I3
sg9
F0.1549360752105713
sasg12
I5
ssI45
(dp171
g2
I2
sg3
(lp172
(dp173
g6
I1
sg7
F0.06580209732055664
sg8
I5
sg9
F0.003081798553466797
sa(dp174
g6
I0
sg7
F0.0011410713195800781
sg8
I2
sg9
F0.0003600120544433594
sasg12
I5
ssI46
(dp175
g2
I0
sg3
(lp176
sg12
I1
ssI47
(dp177
g2
I0
sg3
(lp178
sg12
I1
ssI48
(dp179
g2
I1
sg3
(lp180
(dp181
g6
I0
sg7
F0.06444382667541504
sg8
I2
sg9
F0.0012385845184326172
sasg12
I2
ssI49
(dp182
g2
I3
sg3
(lp183
(dp184
g6
I1
sg7
F0.16492700576782227
sg8
I5
sg9
F0.003707408905029297
sa(dp185
g6
I1
sg7
F0.06607294082641602
sg8
I3
sg9
F0.00032973289489746094
sa(dp186
g6
I0
sg7
F0.0012860298156738281
sg8
I2
sg9
F0.00011491775512695312
sasg12
I5
ssI50
(dp187
g2
I1
sg3
(lp188
(dp189
g6
I3
sg7
F0.3652009963989258
sg8
I5
sg9
F0.0016140937805175781
sasg12
I5
ssI51
(dp190
g2
I0
sg3
(lp191
sg12
I1
ssI52
(dp192
g2
I0
sg3
(lp193
sg12
I1
ssI53
(dp194
g2
I0
sg3
(lp195
sg12
I1
ssI55
(dp196
g2
I1
sg3
(lp197
(dp198
g6
I0
sg7
F22.723122119903564
sg8
I2
sg9
F0.015032768249511719
sasg12
I2
ssI56
(dp199
g2
I0
sg3
(lp200
sg12
I1
ssI57
(dp201
g2
I2
sg3
(lp202
(dp203
g6
I1
sg7
F11.448379039764404
sg8
I3
sg9
F1.383622407913208
sa(dp204
g6
I0
sg7
F0.37231898307800293
sg8
I2
sg9
F0.252166748046875
sasg12
I3
ssI108
(dp205
g2
I0
sg3
(lp206
sg12
I1
ssI109
(dp207
g2
I0
sg3
(lp208
sg12
I1
ssI116
(dp209
g2
I2
sg3
(lp210
(dp211
g6
I17
sg7
F3.564197540283203
sg8
I21
sg9
F0.1699516773223877
sa(dp212
g6
I0
sg7
F0.001580953598022461
sg8
I2
sg9
F0.001062154769897461
sasg12
I21
ssI117
(dp213
g2
I1
sg3
(lp214
(dp215
g6
I3
sg7
F0.0131072998046875
sg8
I5
sg9
F0.0015819072723388672
sasg12
I5
ssI118
(dp216
g2
I0
sg3
(lp217
sg12
I1
ssI122
(dp218
g2
I0
sg3
(lp219
sg12
I1
ss.