(dp0
I1
(dp1
S'iters'
p2
I2
sS'meta'
p3
(lp4
(dp5
S'objective'
p6
I3
sS'query_time'
p7
F25.58660888671875
sS'comp_time'
p8
F1.3148479461669922
sS'exec_cq'
p9
I6
sS'total_cq'
p10
I6
sa(dp11
g6
I3
sg7
F0.011661767959594727
sg8
F233.8925998210907
sg9
I2
sg10
I2
sasS'total_cqs'
p12
I6
ssI2
(dp13
S'iters'
p14
I1
sS'meta'
p15
(lp16
(dp17
S'objective'
p18
I15
sS'query_time'
p19
F0.8602931499481201
sS'comp_time'
p20
F0.09635686874389648
sS'exec_cq'
p21
I6
sS'total_cq'
p22
I6
sasS'total_cqs'
p23
I6
ssI3
(dp24
S'iters'
p25
I14
sS'meta'
p26
(lp27
(dp28
S'objective'
p29
I425
sS'query_time'
p30
F25.315510034561157
sS'comp_time'
p31
F0.25736093521118164
sS'exec_cq'
p32
I33
sS'total_cq'
p33
I33
sa(dp34
g29
I359
sg30
F0.09285712242126465
sg31
F0.25213003158569336
sg32
I30
sg33
I30
sa(dp35
g29
I294
sg30
F0.03792214393615723
sg31
F0.31679773330688477
sg32
I27
sg33
I27
sa(dp36
g29
I258
sg30
F0.07834792137145996
sg31
F0.21478009223937988
sg32
I24
sg33
I24
sa(dp37
g29
I209
sg30
F0.09163212776184082
sg31
F0.23083186149597168
sg32
I21
sg33
I21
sa(dp38
g29
I169
sg30
F0.04954695701599121
sg31
F0.0807349681854248
sg32
I18
sg33
I18
sa(dp39
g29
I134
sg30
F0.007192850112915039
sg31
F0.034655094146728516
sg32
I15
sg33
I15
sa(dp40
g29
I114
sg30
F0.006818056106567383
sg31
F0.06407499313354492
sg32
I13
sg33
I13
sa(dp41
g29
I92
sg30
F0.007188081741333008
sg31
F0.03561687469482422
sg32
I12
sg33
I12
sa(dp42
g29
I76
sg30
F0.006417036056518555
sg31
F0.03411293029785156
sg32
I11
sg33
I11
sa(dp43
g29
I57
sg30
F0.006973981857299805
sg31
F0.06362390518188477
sg32
I10
sg33
I10
sa(dp44
g29
I47
sg30
F0.005716085433959961
sg31
F0.028742074966430664
sg32
I7
sg33
I7
sa(dp45
g29
I36
sg30
F0.006398200988769531
sg31
F0.0556640625
sg32
I6
sg33
I6
sa(dp46
g29
I29
sg30
F0.003120899200439453
sg31
F0.01411294937133789
sg32
I5
sg33
I5
sasS'total_cqs'
p47
I33
ssI4
(dp48
S'iters'
p49
I0
sS'meta'
p50
(lp51
sS'total_cqs'
p52
I1
ssI5
(dp53
S'iters'
p54
I0
sS'meta'
p55
(lp56
sS'total_cqs'
p57
I1
ssI6
(dp58
S'iters'
p59
I3
sS'meta'
p60
(lp61
(dp62
S'objective'
p63
I1
sS'query_time'
p64
F14.995429039001465
sS'comp_time'
p65
F0.003545045852661133
sS'exec_cq'
p66
I5
sS'total_cq'
p67
I5
sa(dp68
g63
I0
sg64
F0.0011248588562011719
sg65
F0.004093170166015625
sg66
I3
sg67
I3
sa(dp69
g63
I2
sg64
F0.0005319118499755859
sg65
F0.003022909164428711
sg66
I2
sg67
I2
sasS'total_cqs'
p70
I5
ssI7
(dp71
S'iters'
p72
I0
sS'meta'
p73
(lp74
sS'total_cqs'
p75
I1
ssI8
(dp76
S'iters'
p77
I4
sS'meta'
p78
(lp79
(dp80
S'objective'
p81
I11
sS'query_time'
p82
F22.858001947402954
sS'comp_time'
p83
F0.2583200931549072
sS'exec_cq'
p84
I6
sS'total_cq'
p85
I6
sa(dp86
g81
I2
sg82
F0.1778109073638916
sg83
F0.17711591720581055
sg84
I5
sg85
I5
sa(dp87
g81
I1
sg82
F0.0024170875549316406
sg83
F0.0011088848114013672
sg84
I3
sg85
I3
sa(dp88
g81
I1
sg82
F0.0014278888702392578
sg83
F0.0016198158264160156
sg84
I2
sg85
I2
sasS'total_cqs'
p89
I6
ssI9
(dp90
S'iters'
p91
I3
sS'meta'
p92
(lp93
(dp94
S'objective'
p95
I1
sS'query_time'
p96
F52.216618061065674
sS'comp_time'
p97
F4.166858911514282
sS'exec_cq'
p98
I6
sS'total_cq'
p99
I6
sa(dp100
g95
I1
sg96
F0.06133079528808594
sg97
F0.5534758567810059
sg98
I3
sg99
I3
sa(dp101
g95
I1
sg96
F0.038751840591430664
sg97
F0.31605100631713867
sg98
I2
sg99
I2
sasS'total_cqs'
p102
I6
ssI10
(dp103
S'iters'
p104
I0
sS'meta'
p105
(lp106
sS'total_cqs'
p107
I1
ssI11
(dp108
S'iters'
p109
I0
sS'meta'
p110
(lp111
sS'total_cqs'
p112
I1
ssI12
(dp113
S'iters'
p114
I0
sS'meta'
p115
(lp116
sS'total_cqs'
p117
I1
ssI13
(dp118
S'iters'
p119
I2
sS'meta'
p120
(lp121
(dp122
S'objective'
p123
I20
sS'query_time'
p124
F0.020328044891357422
sS'comp_time'
p125
F0.00015306472778320312
sS'exec_cq'
p126
I8
sS'total_cq'
p127
I8
sa(dp128
g123
I22
sg124
F3.0994415283203125e-05
sg125
F4.9114227294921875e-05
sg126
I7
sg127
I7
sasS'total_cqs'
p129
I8
ssI14
(dp130
S'iters'
p131
I2
sS'meta'
p132
(lp133
(dp134
S'objective'
p135
I7
sS'query_time'
p136
F1.0561010837554932
sS'comp_time'
p137
F0.00742793083190918
sS'exec_cq'
p138
I5
sS'total_cq'
p139
I5
sa(dp140
g135
I5
sg136
F0.0006940364837646484
sg137
F0.0035500526428222656
sg138
I4
sg139
I4
sasS'total_cqs'
p141
I5
ssI16
(dp142
S'iters'
p143
I2
sS'meta'
p144
(lp145
(dp146
S'objective'
p147
I1
sS'query_time'
p148
F1.640455961227417
sS'comp_time'
p149
F0.006437063217163086
sS'exec_cq'
p150
I5
sS'total_cq'
p151
I5
sa(dp152
g147
I1
sg148
F0.001094818115234375
sg149
F0.005038738250732422
sg150
I2
sg151
I2
sasS'total_cqs'
p153
I5
ssI17
(dp154
S'iters'
p155
I0
sS'meta'
p156
(lp157
sS'total_cqs'
p158
I1
ssI18
(dp159
S'iters'
p160
I2
sS'meta'
p161
(lp162
(dp163
S'objective'
p164
I1
sS'query_time'
p165
F0.33567285537719727
sS'comp_time'
p166
F0.0003528594970703125
sS'exec_cq'
p167
I5
sS'total_cq'
p168
I5
sa(dp169
g164
I2
sg165
F3.314018249511719e-05
sg166
F0.00010180473327636719
sg167
I2
sg168
I2
sasS'total_cqs'
p170
I5
ssI19
(dp171
S'iters'
p172
I0
sS'meta'
p173
(lp174
sS'total_cqs'
p175
I1
ssI20
(dp176
S'iters'
p177
I5
sS'meta'
p178
(lp179
(dp180
S'objective'
p181
I44
sS'query_time'
p182
F11.137803077697754
sS'comp_time'
p183
F1.2284338474273682
sS'exec_cq'
p184
I12
sS'total_cq'
p185
I12
sa(dp186
g181
I35
sg182
F0.22677278518676758
sg183
F0.9915220737457275
sg184
I10
sg185
I10
sa(dp187
g181
I26
sg182
F0.20633697509765625
sg183
F0.9175658226013184
sg184
I8
sg185
I8
sa(dp188
g181
I23
sg182
F0.03829598426818848
sg183
F0.3666541576385498
sg184
I7
sg185
I7
sa(dp189
g181
I22
sg182
F0.07737588882446289
sg183
F0.19717097282409668
sg184
I5
sg185
I5
sasS'total_cqs'
p190
I12
ssI21
(dp191
S'iters'
p192
I5
sS'meta'
p193
(lp194
(dp195
S'objective'
p196
I63
sS'query_time'
p197
F27.642568111419678
sS'comp_time'
p198
F0.5412442684173584
sS'exec_cq'
p199
I14
sS'total_cq'
p200
I14
sa(dp201
g196
I34
sg197
F0.07262706756591797
sg198
F0.1879730224609375
sg199
I10
sg200
I10
sa(dp202
g196
I1
sg197
F0.015122175216674805
sg198
F0.12424302101135254
sg199
I8
sg200
I8
sa(dp203
g196
I16
sg197
F0.006412029266357422
sg198
F0.029332876205444336
sg199
I4
sg200
I4
sa(dp204
g196
I3
sg197
F0.0035469532012939453
sg198
F0.019587278366088867
sg199
I2
sg200
I2
sasS'total_cqs'
p205
I14
ssI22
(dp206
S'iters'
p207
I1
sS'meta'
p208
(lp209
(dp210
S'objective'
p211
I1
sS'query_time'
p212
F0.007285118103027344
sS'comp_time'
p213
F0.00013208389282226562
sS'exec_cq'
p214
I2
sS'total_cq'
p215
I2
sasS'total_cqs'
p216
I2
ssI23
(dp217
S'iters'
p218
I0
sS'meta'
p219
(lp220
sS'total_cqs'
p221
I1
ssI24
(dp222
S'iters'
p223
I0
sS'meta'
p224
(lp225
sS'total_cqs'
p226
I1
ssI25
(dp227
S'iters'
p228
I3
sS'meta'
p229
(lp230
(dp231
S'objective'
p232
I0
sS'query_time'
p233
F85.11296916007996
sS'comp_time'
p234
F9.904652118682861
sS'exec_cq'
p235
I7
sS'total_cq'
p236
I7
sa(dp237
g232
I0
sg233
F0.21772098541259766
sg234
F2.4407248497009277
sg235
I4
sg236
I4
sa(dp238
g232
I1
sg233
F0.49138402938842773
sg234
F1.6980700492858887
sg235
I2
sg236
I2
sasS'total_cqs'
p239
I7
ssI26
(dp240
S'iters'
p241
I9
sS'meta'
p242
(lp243
(dp244
S'objective'
p245
I61
sS'query_time'
p246
F24.665658950805664
sS'comp_time'
p247
F3.045274019241333
sS'exec_cq'
p248
I13
sS'total_cq'
p249
I13
sa(dp250
g245
I50
sg246
F0.754518985748291
sg247
F3.1656389236450195
sg248
I11
sg249
I11
sa(dp251
g245
I37
sg246
F0.7524740695953369
sg247
F2.905858039855957
sg248
I10
sg249
I10
sa(dp252
g245
I26
sg246
F0.8305699825286865
sg247
F2.9439921379089355
sg248
I8
sg249
I8
sa(dp253
g245
I16
sg246
F0.7697358131408691
sg247
F2.915350914001465
sg248
I7
sg249
I7
sa(dp254
g245
I9
sg246
F0.0012879371643066406
sg247
F0.004889965057373047
sg248
I6
sg249
I6
sa(dp255
g245
I6
sg246
F0.0007350444793701172
sg247
F0.0037839412689208984
sg248
I5
sg249
I5
sa(dp256
g245
I2
sg246
F0.000186920166015625
sg247
F0.001039266586303711
sg248
I4
sg249
I4
sa(dp257
g245
I3
sg246
F0.00017189979553222656
sg247
F0.0011050701141357422
sg248
I2
sg249
I2
sasS'total_cqs'
p258
I13
ssI27
(dp259
S'iters'
p260
I1
sS'meta'
p261
(lp262
(dp263
S'objective'
p264
I1
sS'query_time'
p265
F0.1653430461883545
sS'comp_time'
p266
F0.00427699089050293
sS'exec_cq'
p267
I2
sS'total_cq'
p268
I2
sasS'total_cqs'
p269
I2
ssI28
(dp270
S'iters'
p271
I7
sS'meta'
p272
(lp273
(dp274
S'objective'
p275
I23
sS'query_time'
p276
F1.674057960510254
sS'comp_time'
p277
F0.025493860244750977
sS'exec_cq'
p278
I14
sS'total_cq'
p279
I14
sa(dp280
g275
I30
sg276
F0.0032830238342285156
sg277
F0.022587060928344727
sg278
I10
sg279
I10
sa(dp281
g275
I17
sg276
F0.003170013427734375
sg277
F0.0374758243560791
sg278
I7
sg279
I7
sa(dp282
g275
I14
sg276
F0.003175020217895508
sg277
F0.015423059463500977
sg278
I5
sg279
I5
sa(dp283
g275
I7
sg276
F0.002477884292602539
sg277
F0.014174222946166992
sg278
I4
sg279
I4
sa(dp284
g275
I1
sg276
F0.0028781890869140625
sg277
F0.014394044876098633
sg278
I3
sg279
I3
sa(dp285
g275
I2
sg276
F3.0994415283203125e-05
sg277
F9.202957153320312e-05
sg278
I2
sg279
I2
sasS'total_cqs'
p286
I14
ssI29
(dp287
S'iters'
p288
I1
sS'meta'
p289
(lp290
(dp291
S'objective'
p292
I1
sS'query_time'
p293
F0.007910013198852539
sS'comp_time'
p294
F0.00011420249938964844
sS'exec_cq'
p295
I2
sS'total_cq'
p296
I2
sasS'total_cqs'
p297
I2
ssI30
(dp298
S'iters'
p299
I1
sS'meta'
p300
(lp301
(dp302
S'objective'
p303
I1
sS'query_time'
p304
F0.3799459934234619
sS'comp_time'
p305
F0.005836009979248047
sS'exec_cq'
p306
I2
sS'total_cq'
p307
I2
sasS'total_cqs'
p308
I2
ssI31
(dp309
S'iters'
p310
I3
sS'meta'
p311
(lp312
(dp313
S'objective'
p314
I15
sS'query_time'
p315
F5.659832954406738
sS'comp_time'
p316
F0.15244078636169434
sS'exec_cq'
p317
I9
sS'total_cq'
p318
I9
sa(dp319
g314
I1
sg315
F0.008519887924194336
sg316
F0.03352093696594238
sg317
I3
sg318
I3
sa(dp320
g314
I1
sg315
F0.006877899169921875
sg316
F0.059468984603881836
sg317
I2
sg318
I2
sasS'total_cqs'
p321
I9
ssI32
(dp322
S'iters'
p323
I3
sS'meta'
p324
(lp325
(dp326
S'objective'
p327
I2
sS'query_time'
p328
F18.98337697982788
sS'comp_time'
p329
F2.8282811641693115
sS'exec_cq'
p330
I7
sS'total_cq'
p331
I7
sa(dp332
g327
I1
sg328
F0.03729701042175293
sg329
F0.38328099250793457
sg330
I4
sg331
I4
sa(dp333
g327
I1
sg328
F0.028303861618041992
sg329
F0.26428890228271484
sg330
I2
sg331
I2
sasS'total_cqs'
p334
I7
ssI33
(dp335
S'iters'
p336
I1
sS'meta'
p337
(lp338
(dp339
S'objective'
p340
I1
sS'query_time'
p341
F0.04502606391906738
sS'comp_time'
p342
F0.0001361370086669922
sS'exec_cq'
p343
I2
sS'total_cq'
p344
I2
sasS'total_cqs'
p345
I2
ssI34
(dp346
S'iters'
p347
I0
sS'meta'
p348
(lp349
sS'total_cqs'
p350
I1
ssI35
(dp351
S'iters'
p352
I3
sS'meta'
p353
(lp354
(dp355
S'objective'
p356
I1
sS'query_time'
p357
F16.120517015457153
sS'comp_time'
p358
F0.24901413917541504
sS'exec_cq'
p359
I5
sS'total_cq'
p360
I5
sa(dp361
g356
I0
sg357
F0.027128934860229492
sg358
F0.1321868896484375
sg359
I3
sg360
I3
sa(dp362
g356
I2
sg357
F0.009723186492919922
sg358
F0.07320022583007812
sg359
I2
sg360
I2
sasS'total_cqs'
p363
I5
ssI37
(dp364
S'iters'
p365
I3
sS'meta'
p366
(lp367
(dp368
S'objective'
p369
I29
sS'query_time'
p370
F2.410264015197754
sS'comp_time'
p371
F0.1195063591003418
sS'exec_cq'
p372
I10
sS'total_cq'
p373
I10
sa(dp374
g369
I3
sg370
F0.03226208686828613
sg371
F0.03725790977478027
sg372
I3
sg373
I3
sa(dp375
g369
I3
sg370
F0.0031261444091796875
sg371
F0.011693000793457031
sg372
I2
sg373
I2
sasS'total_cqs'
p376
I10
ssI38
(dp377
S'iters'
p378
I0
sS'meta'
p379
(lp380
sS'total_cqs'
p381
I1
ssI39
(dp382
S'iters'
p383
I0
sS'meta'
p384
(lp385
sS'total_cqs'
p386
I1
ssI40
(dp387
S'iters'
p388
I1
sS'meta'
p389
(lp390
(dp391
S'objective'
p392
I1
sS'query_time'
p393
F17.49439001083374
sS'comp_time'
p394
F2.445402145385742
sS'exec_cq'
p395
I2
sS'total_cq'
p396
I2
sasS'total_cqs'
p397
I2
ssI41
(dp398
S'iters'
p399
I3
sS'meta'
p400
(lp401
(dp402
S'objective'
p403
I1
sS'query_time'
p404
F12.06584620475769
sS'comp_time'
p405
F1.1302399635314941
sS'exec_cq'
p406
I6
sS'total_cq'
p407
I6
sa(dp408
g403
I1
sg404
F0.24195599555969238
sg405
F1.1652519702911377
sg406
I4
sg407
I4
sa(dp409
g403
I0
sg404
F0.24150705337524414
sg405
F1.165832281112671
sg406
I3
sg407
I3
sasS'total_cqs'
p410
I6
ssI42
(dp411
S'iters'
p412
I1
sS'meta'
p413
(lp414
(dp415
S'objective'
p416
I1
sS'query_time'
p417
F17.11766505241394
sS'comp_time'
p418
F2.5354678630828857
sS'exec_cq'
p419
I2
sS'total_cq'
p420
I2
sasS'total_cqs'
p421
I2
ssI43
(dp422
S'iters'
p423
I0
sS'meta'
p424
(lp425
sS'total_cqs'
p426
I1
ssI44
(dp427
S'iters'
p428
I3
sS'meta'
p429
(lp430
(dp431
S'objective'
p432
I1
sS'query_time'
p433
F1.549144983291626
sS'comp_time'
p434
F0.08997297286987305
sS'exec_cq'
p435
I5
sS'total_cq'
p436
I5
sa(dp437
g432
I0
sg433
F0.019617080688476562
sg434
F0.13508391380310059
sg435
I3
sg436
I3
sa(dp438
g432
I2
sg433
F0.012081146240234375
sg434
F0.07856893539428711
sg435
I2
sg436
I2
sasS'total_cqs'
p439
I5
ssI45
(dp440
S'iters'
p441
I2
sS'meta'
p442
(lp443
(dp444
S'objective'
p445
I1
sS'query_time'
p446
F0.03850293159484863
sS'comp_time'
p447
F0.0008409023284912109
sS'exec_cq'
p448
I5
sS'total_cq'
p449
I5
sa(dp450
g445
I2
sg446
F0.00011515617370605469
sg447
F0.0004439353942871094
sg448
I2
sg449
I2
sasS'total_cqs'
p451
I5
ssI46
(dp452
S'iters'
p453
I0
sS'meta'
p454
(lp455
sS'total_cqs'
p456
I1
ssI47
(dp457
S'iters'
p458
I0
sS'meta'
p459
(lp460
sS'total_cqs'
p461
I1
ssI48
(dp462
S'iters'
p463
I1
sS'meta'
p464
(lp465
(dp466
S'objective'
p467
I1
sS'query_time'
p468
F0.11991190910339355
sS'comp_time'
p469
F0.006163358688354492
sS'exec_cq'
p470
I2
sS'total_cq'
p471
I2
sasS'total_cqs'
p472
I2
ssI49
(dp473
S'iters'
p474
I3
sS'meta'
p475
(lp476
(dp477
S'objective'
p478
I1
sS'query_time'
p479
F0.24586105346679688
sS'comp_time'
p480
F0.0030012130737304688
sS'exec_cq'
p481
I5
sS'total_cq'
p482
I5
sa(dp483
g478
I0
sg479
F0.00026488304138183594
sg480
F0.0016970634460449219
sg481
I3
sg482
I3
sa(dp484
g478
I2
sg479
F2.6941299438476562e-05
sg480
F0.00011587142944335938
sg481
I2
sg482
I2
sasS'total_cqs'
p485
I5
ssI50
(dp486
S'iters'
p487
I3
sS'meta'
p488
(lp489
(dp490
S'objective'
p491
I5
sS'query_time'
p492
F0.87642502784729
sS'comp_time'
p493
F0.0010669231414794922
sS'exec_cq'
p494
I5
sS'total_cq'
p495
I5
sa(dp496
g491
I2
sg492
F0.00014090538024902344
sg493
F0.0007939338684082031
sg494
I4
sg495
I4
sa(dp497
g491
I0
sg492
F0.00010013580322265625
sg493
F0.0005702972412109375
sg494
I3
sg495
I3
sasS'total_cqs'
p498
I5
ssI51
(dp499
S'iters'
p500
I0
sS'meta'
p501
(lp502
sS'total_cqs'
p503
I1
ssI52
(dp504
S'iters'
p505
I0
sS'meta'
p506
(lp507
sS'total_cqs'
p508
I1
ssI53
(dp509
S'iters'
p510
I0
sS'meta'
p511
(lp512
sS'total_cqs'
p513
I1
ssI55
(dp514
S'iters'
p515
I1
sS'meta'
p516
(lp517
(dp518
S'objective'
p519
I1
sS'query_time'
p520
F26.697988033294678
sS'comp_time'
p521
F3.5237278938293457
sS'exec_cq'
p522
I2
sS'total_cq'
p523
I2
sasS'total_cqs'
p524
I2
ssI56
(dp525
S'iters'
p526
I0
sS'meta'
p527
(lp528
sS'total_cqs'
p529
I1
ssI57
(dp530
S'iters'
p531
I1
sS'meta'
p532
(lp533
(dp534
S'objective'
p535
I2
sS'query_time'
p536
F14.16385006904602
sS'comp_time'
p537
F1.5167739391326904
sS'exec_cq'
p538
I3
sS'total_cq'
p539
I3
sasS'total_cqs'
p540
I3
ssI108
(dp541
S'iters'
p542
I0
sS'meta'
p543
(lp544
sS'total_cqs'
p545
I1
ssI109
(dp546
S'iters'
p547
I0
sS'meta'
p548
(lp549
sS'total_cqs'
p550
I1
ssI116
(dp551
S'iters'
p552
I4
sS'meta'
p553
(lp554
(dp555
S'objective'
p556
I155
sS'query_time'
p557
F5.341939926147461
sS'comp_time'
p558
F0.333892822265625
sS'exec_cq'
p559
I21
sS'total_cq'
p560
I21
sa(dp561
g556
I137
sg557
F0.009552001953125
sg558
F0.08584427833557129
sg559
I19
sg560
I19
sa(dp562
g556
I12
sg557
F0.0012331008911132812
sg558
F0.004533052444458008
sg559
I3
sg560
I3
sa(dp563
g556
I6
sg557
F0.0003960132598876953
sg558
F0.0024461746215820312
sg559
I2
sg560
I2
sasS'total_cqs'
p564
I21
ssI117
(dp565
S'iters'
p566
I1
sS'meta'
p567
(lp568
(dp569
S'objective'
p570
I9
sS'query_time'
p571
F0.02595210075378418
sS'comp_time'
p572
F0.00013494491577148438
sS'exec_cq'
p573
I5
sS'total_cq'
p574
I5
sasS'total_cqs'
p575
I5
ssI118
(dp576
S'iters'
p577
I0
sS'meta'
p578
(lp579
sS'total_cqs'
p580
I1
ssI122
(dp581
S'iters'
p582
I0
sS'meta'
p583
(lp584
sS'total_cqs'
p585
I1
ss.