(dp0
I1
(dp1
S'iters'
p2
I4
sS'meta'
p3
(lp4
(dp5
S'objective'
p6
I9
sS'query_time'
p7
F25.139732122421265
sS'comp_time'
p8
F0.00010991096496582031
sS'exec_cq'
p9
I1
sS'total_cq'
p10
I6
sa(dp11
g6
I1
sg7
F11.108060121536255
sg8
F0.00024199485778808594
sg9
I1
sg10
I5
sa(dp12
g6
I0
sg7
F0.005532026290893555
sg8
F7.987022399902344e-05
sg9
I1
sg10
I3
sa(dp13
g6
I2
sg7
F34.86735987663269
sg8
F5.817413330078125e-05
sg9
I1
sg10
I2
sasS'total_cqs'
p14
I6
ssI2
(dp15
S'iters'
p16
I1
sS'meta'
p17
(lp18
(dp19
S'objective'
p20
I15
sS'query_time'
p21
F0.8745760917663574
sS'comp_time'
p22
F9.393692016601562e-05
sS'exec_cq'
p23
I4
sS'total_cq'
p24
I6
sasS'total_cqs'
p25
I6
ssI3
(dp26
S'iters'
p27
I17
sS'meta'
p28
(lp29
(dp30
S'objective'
p31
I461
sS'query_time'
p32
F0.03097987174987793
sS'comp_time'
p33
F7.009506225585938e-05
sS'exec_cq'
p34
I1
sS'total_cq'
p35
I33
sa(dp36
g31
I447
sg32
F0.0483250617980957
sg33
F8.0108642578125e-05
sg34
I1
sg35
I31
sa(dp37
g31
I381
sg32
F0.055357933044433594
sg33
F8.511543273925781e-05
sg34
I1
sg35
I30
sa(dp38
g31
I318
sg32
F0.014629125595092773
sg33
F4.1961669921875e-05
sg34
I1
sg35
I27
sa(dp39
g31
I316
sg32
F0.014925003051757812
sg33
F4.1961669921875e-05
sg34
I1
sg35
I25
sa(dp40
g31
I235
sg32
F0.037938833236694336
sg33
F5.4836273193359375e-05
sg34
I1
sg35
I24
sa(dp41
g31
I236
sg32
F0.013725996017456055
sg33
F4.38690185546875e-05
sg34
I1
sg35
I21
sa(dp42
g31
I215
sg32
F0.0027010440826416016
sg33
F3.910064697265625e-05
sg34
I1
sg35
I20
sa(dp43
g31
I193
sg32
F49.79700708389282
sg33
F7.200241088867188e-05
sg34
I1
sg35
I19
sa(dp44
g31
I172
sg32
F0.03944587707519531
sg33
F5.1021575927734375e-05
sg34
I1
sg35
I18
sa(dp45
g31
I104
sg32
F0.012735128402709961
sg33
F6.580352783203125e-05
sg34
I1
sg35
I17
sa(dp46
g31
I111
sg32
F0.0028159618377685547
sg33
F3.910064697265625e-05
sg34
I1
sg35
I14
sa(dp47
g31
I98
sg32
F3.0100178718566895
sg33
F7.009506225585938e-05
sg34
I2
sg35
I13
sa(dp48
g31
I66
sg32
F0.11705899238586426
sg33
F0.0001220703125
sg34
I2
sg35
I12
sa(dp49
g31
I60
sg32
F0.05027198791503906
sg33
F6.914138793945312e-05
sg34
I2
sg35
I10
sa(dp50
g31
I53
sg32
F0.1407639980316162
sg33
F7.581710815429688e-05
sg34
I3
sg35
I8
sa(dp51
g31
I44
sg32
F0.16714978218078613
sg33
F7.390975952148438e-05
sg34
I3
sg35
I7
sasS'total_cqs'
p52
I33
ssI4
(dp53
S'iters'
p54
I0
sS'meta'
p55
(lp56
sS'total_cqs'
p57
I1
ssI5
(dp58
S'iters'
p59
I0
sS'meta'
p60
(lp61
sS'total_cqs'
p62
I1
ssI6
(dp63
S'iters'
p64
I3
sS'meta'
p65
(lp66
(dp67
S'objective'
p68
I3
sS'query_time'
p69
F4.599829912185669
sS'comp_time'
p70
F7.915496826171875e-05
sS'exec_cq'
p71
I1
sS'total_cq'
p72
I5
sa(dp73
g68
I1
sg69
F0.12279391288757324
sg70
F7.295608520507812e-05
sg71
I1
sg72
I3
sa(dp74
g68
I1
sg69
F29.91512417793274
sg70
F5.793571472167969e-05
sg71
I1
sg72
I2
sasS'total_cqs'
p75
I5
ssI7
(dp76
S'iters'
p77
I0
sS'meta'
p78
(lp79
sS'total_cqs'
p80
I1
ssI8
(dp81
S'iters'
p82
I4
sS'meta'
p83
(lp84
(dp85
S'objective'
p86
I9
sS'query_time'
p87
F21.852396965026855
sS'comp_time'
p88
F0.00010585784912109375
sS'exec_cq'
p89
I1
sS'total_cq'
p90
I6
sa(dp91
g86
I5
sg87
F61.73382091522217
sg88
F0.00010609626770019531
sg89
I1
sg90
I5
sa(dp92
g86
I2
sg87
F2.0281260013580322
sg88
F0.00044608116149902344
sg89
I1
sg90
I4
sa(dp93
g86
I0
sg87
F20.61837100982666
sg88
F0.00021505355834960938
sg89
I1
sg90
I3
sasS'total_cqs'
p94
I6
ssI9
(dp95
S'iters'
p96
I5
sS'meta'
p97
(lp98
(dp99
S'objective'
p100
I9
sS'query_time'
p101
F22.54995894432068
sS'comp_time'
p102
F0.03631901741027832
sS'exec_cq'
p103
I1
sS'total_cq'
p104
I6
sa(dp105
g100
I5
sg101
F1.074280023574829
sg102
F6.604194641113281e-05
sg103
I1
sg104
I5
sa(dp106
g100
I2
sg101
F20.014808893203735
sg102
F9.298324584960938e-05
sg103
I1
sg104
I4
sa(dp107
g100
I2
sg101
F0.647407054901123
sg102
F0.00023293495178222656
sg103
I1
sg104
I3
sa(dp108
g100
I2
sg101
F0.008713960647583008
sg102
F3.409385681152344e-05
sg103
I1
sg104
I2
sasS'total_cqs'
p109
I6
ssI10
(dp110
S'iters'
p111
I0
sS'meta'
p112
(lp113
sS'total_cqs'
p114
I1
ssI11
(dp115
S'iters'
p116
I0
sS'meta'
p117
(lp118
sS'total_cqs'
p119
I1
ssI12
(dp120
S'iters'
p121
I0
sS'meta'
p122
(lp123
sS'total_cqs'
p124
I1
ssI13
(dp125
S'iters'
p126
I1
sS'meta'
p127
(lp128
(dp129
S'objective'
p130
I30
sS'query_time'
p131
F0.13976383209228516
sS'comp_time'
p132
F6.198883056640625e-05
sS'exec_cq'
p133
I6
sS'total_cq'
p134
I8
sasS'total_cqs'
p135
I8
ssI14
(dp136
S'iters'
p137
I2
sS'meta'
p138
(lp139
(dp140
S'objective'
p141
I5
sS'query_time'
p142
F0.02442193031311035
sS'comp_time'
p143
F8.606910705566406e-05
sS'exec_cq'
p144
I1
sS'total_cq'
p145
I5
sa(dp146
g141
I4
sg142
F1.0568950176239014
sg143
F7.104873657226562e-05
sg144
I2
sg145
I4
sasS'total_cqs'
p147
I5
ssI16
(dp148
S'iters'
p149
I2
sS'meta'
p150
(lp151
(dp152
S'objective'
p153
I1
sS'query_time'
p154
F1.2504611015319824
sS'comp_time'
p155
F5.793571472167969e-05
sS'exec_cq'
p156
I1
sS'total_cq'
p157
I5
sa(dp158
g153
I2
sg154
F0.09967994689941406
sg155
F9.298324584960938e-05
sg156
I2
sg157
I3
sasS'total_cqs'
p159
I5
ssI17
(dp160
S'iters'
p161
I0
sS'meta'
p162
(lp163
sS'total_cqs'
p164
I1
ssI18
(dp165
S'iters'
p166
I2
sS'meta'
p167
(lp168
(dp169
S'objective'
p170
I3
sS'query_time'
p171
F0.9351530075073242
sS'comp_time'
p172
F5.412101745605469e-05
sS'exec_cq'
p173
I1
sS'total_cq'
p174
I5
sa(dp175
g170
I0
sg171
F0.09047794342041016
sg172
F9.107589721679688e-05
sg173
I1
sg174
I3
sasS'total_cqs'
p176
I5
ssI19
(dp177
S'iters'
p178
I0
sS'meta'
p179
(lp180
sS'total_cqs'
p181
I1
ssI20
(dp182
S'iters'
p183
I6
sS'meta'
p184
(lp185
(dp186
S'objective'
p187
I52
sS'query_time'
p188
F0.023189067840576172
sS'comp_time'
p189
F5.4836273193359375e-05
sS'exec_cq'
p190
I2
sS'total_cq'
p191
I12
sa(dp192
g187
I33
sg188
F6.843109130859375
sg189
F6.699562072753906e-05
sg190
I3
sg191
I10
sa(dp193
g187
I33
sg188
F0.9949901103973389
sg189
F6.794929504394531e-05
sg190
I3
sg191
I8
sa(dp194
g187
I29
sg188
F2.640921115875244
sg189
F0.0004360675811767578
sg190
I3
sg191
I7
sa(dp195
g187
I25
sg188
F0.003167867660522461
sg189
F4.291534423828125e-05
sg190
I3
sg191
I6
sa(dp196
g187
I22
sg188
F0.09810996055603027
sg189
F7.605552673339844e-05
sg190
I3
sg191
I5
sasS'total_cqs'
p197
I12
ssI21
(dp198
S'iters'
p199
I7
sS'meta'
p200
(lp201
(dp202
S'objective'
p203
I31
sS'query_time'
p204
F0.1451129913330078
sS'comp_time'
p205
F8.0108642578125e-05
sS'exec_cq'
p206
I1
sS'total_cq'
p207
I14
sa(dp208
g203
I42
sg204
F20.017700910568237
sg205
F0.00011014938354492188
sg206
I1
sg207
I10
sa(dp209
g203
I29
sg204
F0.6397221088409424
sg205
F6.198883056640625e-05
sg206
I1
sg207
I9
sa(dp210
g203
I12
sg204
F0.08715200424194336
sg205
F5.5789947509765625e-05
sg206
I1
sg207
I7
sa(dp211
g203
I9
sg204
F0.4524569511413574
sg205
F7.82012939453125e-05
sg206
I1
sg207
I5
sa(dp212
g203
I4
sg204
F0.38314390182495117
sg205
F6.794929504394531e-05
sg206
I1
sg207
I4
sa(dp213
g203
I3
sg204
F0.010711908340454102
sg205
F8.20159912109375e-05
sg206
I1
sg207
I2
sasS'total_cqs'
p214
I14
ssI22
(dp215
S'iters'
p216
I1
sS'meta'
p217
(lp218
(dp219
S'objective'
p220
I1
sS'query_time'
p221
F0.004930973052978516
sS'comp_time'
p222
F5.3882598876953125e-05
sS'exec_cq'
p223
I1
sS'total_cq'
p224
I2
sasS'total_cqs'
p225
I2
ssI23
(dp226
S'iters'
p227
I0
sS'meta'
p228
(lp229
sS'total_cqs'
p230
I1
ssI24
(dp231
S'iters'
p232
I0
sS'meta'
p233
(lp234
sS'total_cqs'
p235
I1
ssI25
(dp236
S'iters'
p237
I5
sS'meta'
p238
(lp239
(dp240
S'objective'
p241
I14
sS'query_time'
p242
F12.023555994033813
sS'comp_time'
p243
F0.0004200935363769531
sS'exec_cq'
p244
I1
sS'total_cq'
p245
I7
sa(dp246
g241
I9
sg242
F24.611857891082764
sg243
F0.00011897087097167969
sg244
I1
sg245
I6
sa(dp247
g241
I5
sg242
F8.015322923660278
sg243
F9.179115295410156e-05
sg244
I1
sg245
I5
sa(dp248
g241
I2
sg242
F2.8244359493255615
sg243
F6.389617919921875e-05
sg244
I1
sg245
I4
sa(dp249
g241
I2
sg242
F0.15140104293823242
sg243
F6.103515625e-05
sg244
I1
sg245
I2
sasS'total_cqs'
p250
I7
ssI26
(dp251
S'iters'
p252
I8
sS'meta'
p253
(lp254
(dp255
S'objective'
p256
I65
sS'query_time'
p257
F0.04099106788635254
sS'comp_time'
p258
F8.0108642578125e-05
sS'exec_cq'
p259
I1
sS'total_cq'
p260
I13
sa(dp261
g256
I36
sg257
F0.03720712661743164
sg258
F8.082389831542969e-05
sg259
I1
sg260
I12
sa(dp262
g256
I35
sg257
F0.04583096504211426
sg258
F8.58306884765625e-05
sg259
I1
sg260
I10
sa(dp263
g256
I26
sg257
F0.07294893264770508
sg258
F9.298324584960938e-05
sg259
I1
sg260
I9
sa(dp264
g256
I14
sg257
F0.9254899024963379
sg258
F8.106231689453125e-05
sg259
I1
sg260
I8
sa(dp265
g256
I7
sg257
F0.4179069995880127
sg258
F4.1961669921875e-05
sg259
I1
sg260
I6
sa(dp266
g256
I4
sg257
F19.95039987564087
sg258
F0.0004429817199707031
sg259
I1
sg260
I4
sa(dp267
g256
I0
sg257
F0.0031108856201171875
sg258
F4.601478576660156e-05
sg259
I1
sg260
I3
sasS'total_cqs'
p268
I13
ssI27
(dp269
S'iters'
p270
I1
sS'meta'
p271
(lp272
(dp273
S'objective'
p274
I1
sS'query_time'
p275
F0.38699889183044434
sS'comp_time'
p276
F7.319450378417969e-05
sS'exec_cq'
p277
I1
sS'total_cq'
p278
I2
sasS'total_cqs'
p279
I2
ssI28
(dp280
S'iters'
p281
I9
sS'meta'
p282
(lp283
(dp284
S'objective'
p285
I77
sS'query_time'
p286
F1.660243034362793
sS'comp_time'
p287
F7.891654968261719e-05
sS'exec_cq'
p288
I1
sS'total_cq'
p289
I14
sa(dp290
g285
I63
sg286
F1.8452599048614502
sg287
F8.511543273925781e-05
sg288
I1
sg289
I13
sa(dp291
g285
I53
sg286
F0.9253959655761719
sg287
F4.482269287109375e-05
sg288
I1
sg289
I11
sa(dp292
g285
I25
sg286
F0.6682958602905273
sg287
F3.910064697265625e-05
sg288
I1
sg289
I10
sa(dp293
g285
I25
sg286
F0.8566761016845703
sg287
F8.0108642578125e-05
sg288
I1
sg289
I8
sa(dp294
g285
I19
sg286
F0.4309840202331543
sg287
F5.507469177246094e-05
sg288
I1
sg289
I7
sa(dp295
g285
I13
sg286
F0.28070688247680664
sg287
F5.1975250244140625e-05
sg288
I1
sg289
I6
sa(dp296
g285
I8
sg286
F0.27137279510498047
sg287
F4.100799560546875e-05
sg288
I1
sg289
I5
sa(dp297
g285
I4
sg286
F0.19253110885620117
sg287
F3.600120544433594e-05
sg288
I1
sg289
I4
sasS'total_cqs'
p298
I14
ssI29
(dp299
S'iters'
p300
I1
sS'meta'
p301
(lp302
(dp303
S'objective'
p304
I1
sS'query_time'
p305
F0.01171112060546875
sS'comp_time'
p306
F5.2928924560546875e-05
sS'exec_cq'
p307
I1
sS'total_cq'
p308
I2
sasS'total_cqs'
p309
I2
ssI30
(dp310
S'iters'
p311
I1
sS'meta'
p312
(lp313
(dp314
S'objective'
p315
I1
sS'query_time'
p316
F0.3695840835571289
sS'comp_time'
p317
F7.605552673339844e-05
sS'exec_cq'
p318
I1
sS'total_cq'
p319
I2
sasS'total_cqs'
p320
I2
ssI31
(dp321
S'iters'
p322
I5
sS'meta'
p323
(lp324
(dp325
S'objective'
p326
I11
sS'query_time'
p327
F1.5317339897155762
sS'comp_time'
p328
F9.799003601074219e-05
sS'exec_cq'
p329
I1
sS'total_cq'
p330
I9
sa(dp331
g326
I14
sg327
F0.00604701042175293
sg328
F4.100799560546875e-05
sg329
I1
sg330
I7
sa(dp332
g326
I9
sg327
F0.004710197448730469
sg328
F3.695487976074219e-05
sg329
I1
sg330
I6
sa(dp333
g326
I1
sg327
F0.3751349449157715
sg328
F3.504753112792969e-05
sg329
I1
sg330
I5
sa(dp334
g326
I1
sg327
F0.4458599090576172
sg328
F0.00020194053649902344
sg329
I1
sg330
I3
sasS'total_cqs'
p335
I9
ssI32
(dp336
S'iters'
p337
I5
sS'meta'
p338
(lp339
(dp340
S'objective'
p341
I14
sS'query_time'
p342
F2.0066139698028564
sS'comp_time'
p343
F0.00027298927307128906
sS'exec_cq'
p344
I1
sS'total_cq'
p345
I7
sa(dp346
g341
I9
sg342
F1.9957520961761475
sg343
F0.00011086463928222656
sg344
I1
sg345
I6
sa(dp347
g341
I5
sg342
F6.973806858062744
sg343
F0.000247955322265625
sg344
I1
sg345
I5
sa(dp348
g341
I2
sg342
F0.7755579948425293
sg343
F6.198883056640625e-05
sg344
I1
sg345
I4
sa(dp349
g341
I2
sg342
F0.07837200164794922
sg343
F6.103515625e-05
sg344
I1
sg345
I2
sasS'total_cqs'
p350
I7
ssI33
(dp351
S'iters'
p352
I1
sS'meta'
p353
(lp354
(dp355
S'objective'
p356
I1
sS'query_time'
p357
F0.027683019638061523
sS'comp_time'
p358
F5.698204040527344e-05
sS'exec_cq'
p359
I1
sS'total_cq'
p360
I2
sasS'total_cqs'
p361
I2
ssI34
(dp362
S'iters'
p363
I0
sS'meta'
p364
(lp365
sS'total_cqs'
p366
I1
ssI35
(dp367
S'iters'
p368
I3
sS'meta'
p369
(lp370
(dp371
S'objective'
p372
I3
sS'query_time'
p373
F6.9112770557403564
sS'comp_time'
p374
F7.390975952148438e-05
sS'exec_cq'
p375
I1
sS'total_cq'
p376
I5
sa(dp377
g372
I1
sg373
F5.3320348262786865
sg374
F0.00041604042053222656
sg375
I1
sg376
I3
sa(dp378
g372
I1
sg373
F0.05243206024169922
sg374
F6.4849853515625e-05
sg375
I1
sg376
I2
sasS'total_cqs'
p379
I5
ssI37
(dp380
S'iters'
p381
I6
sS'meta'
p382
(lp383
(dp384
S'objective'
p385
I35
sS'query_time'
p386
F0.7159202098846436
sS'comp_time'
p387
F7.891654968261719e-05
sS'exec_cq'
p388
I1
sS'total_cq'
p389
I10
sa(dp390
g385
I27
sg386
F0.3154599666595459
sg387
F7.915496826171875e-05
sg388
I1
sg389
I9
sa(dp391
g385
I22
sg386
F0.005900144577026367
sg387
F3.719329833984375e-05
sg388
I2
sg389
I8
sa(dp392
g385
I17
sg386
F0.004178047180175781
sg387
F4.1961669921875e-05
sg388
I2
sg389
I7
sa(dp393
g385
I13
sg386
F0.8428199291229248
sg387
F7.700920104980469e-05
sg388
I2
sg389
I6
sa(dp394
g385
I10
sg386
F0.2584190368652344
sg387
F7.295608520507812e-05
sg388
I2
sg389
I5
sasS'total_cqs'
p395
I10
ssI38
(dp396
S'iters'
p397
I0
sS'meta'
p398
(lp399
sS'total_cqs'
p400
I1
ssI39
(dp401
S'iters'
p402
I0
sS'meta'
p403
(lp404
sS'total_cqs'
p405
I1
ssI40
(dp406
S'iters'
p407
I1
sS'meta'
p408
(lp409
(dp410
S'objective'
p411
I1
sS'query_time'
p412
F17.53585696220398
sS'comp_time'
p413
F0.00019288063049316406
sS'exec_cq'
p414
I2
sS'total_cq'
p415
I2
sasS'total_cqs'
p416
I2
ssI41
(dp417
S'iters'
p418
I4
sS'meta'
p419
(lp420
(dp421
S'objective'
p422
I9
sS'query_time'
p423
F1.9140238761901855
sS'comp_time'
p424
F9.202957153320312e-05
sS'exec_cq'
p425
I1
sS'total_cq'
p426
I6
sa(dp427
g422
I5
sg423
F0.21756291389465332
sg424
F7.200241088867188e-05
sg425
I1
sg426
I5
sa(dp428
g422
I2
sg423
F9.036470890045166
sg424
F0.0001461505889892578
sg425
I1
sg426
I4
sa(dp429
g422
I0
sg423
F0.046534061431884766
sg424
F5.984306335449219e-05
sg425
I1
sg426
I3
sasS'total_cqs'
p430
I6
ssI42
(dp431
S'iters'
p432
I1
sS'meta'
p433
(lp434
(dp435
S'objective'
p436
I1
sS'query_time'
p437
F0.00939798355102539
sS'comp_time'
p438
F4.601478576660156e-05
sS'exec_cq'
p439
I1
sS'total_cq'
p440
I2
sasS'total_cqs'
p441
I2
ssI43
(dp442
S'iters'
p443
I0
sS'meta'
p444
(lp445
sS'total_cqs'
p446
I1
ssI44
(dp447
S'iters'
p448
I3
sS'meta'
p449
(lp450
(dp451
S'objective'
p452
I5
sS'query_time'
p453
F1.2255189418792725
sS'comp_time'
p454
F8.20159912109375e-05
sS'exec_cq'
p455
I1
sS'total_cq'
p456
I5
sa(dp457
g452
I0
sg453
F3.3710739612579346
sg454
F3.790855407714844e-05
sg455
I1
sg456
I4
sa(dp458
g452
I1
sg453
F0.0034410953521728516
sg454
F4.100799560546875e-05
sg455
I1
sg456
I2
sasS'total_cqs'
p459
I5
ssI45
(dp460
S'iters'
p461
I2
sS'meta'
p462
(lp463
(dp464
S'objective'
p465
I7
sS'query_time'
p466
F0.04760003089904785
sS'comp_time'
p467
F9.512901306152344e-05
sS'exec_cq'
p468
I3
sS'total_cq'
p469
I5
sa(dp470
g465
I2
sg466
F0.7934930324554443
sg467
F6.389617919921875e-05
sg468
I2
sg469
I2
sasS'total_cqs'
p471
I5
ssI46
(dp472
S'iters'
p473
I0
sS'meta'
p474
(lp475
sS'total_cqs'
p476
I1
ssI47
(dp477
S'iters'
p478
I0
sS'meta'
p479
(lp480
sS'total_cqs'
p481
I1
ssI48
(dp482
S'iters'
p483
I1
sS'meta'
p484
(lp485
(dp486
S'objective'
p487
I1
sS'query_time'
p488
F0.14889001846313477
sS'comp_time'
p489
F7.605552673339844e-05
sS'exec_cq'
p490
I1
sS'total_cq'
p491
I2
sasS'total_cqs'
p492
I2
ssI49
(dp493
S'iters'
p494
I2
sS'meta'
p495
(lp496
(dp497
S'objective'
p498
I3
sS'query_time'
p499
F4.071506023406982
sS'comp_time'
p500
F7.009506225585938e-05
sS'exec_cq'
p501
I1
sS'total_cq'
p502
I5
sa(dp503
g498
I0
sg499
F0.017676115036010742
sg500
F5.221366882324219e-05
sg501
I1
sg502
I3
sasS'total_cqs'
p504
I5
ssI50
(dp505
S'iters'
p506
I3
sS'meta'
p507
(lp508
(dp509
S'objective'
p510
I5
sS'query_time'
p511
F0.006587028503417969
sS'comp_time'
p512
F4.291534423828125e-05
sS'exec_cq'
p513
I1
sS'total_cq'
p514
I5
sa(dp515
g510
I2
sg511
F0.021924972534179688
sg512
F6.4849853515625e-05
sg513
I1
sg514
I4
sa(dp516
g510
I0
sg511
F0.8680720329284668
sg512
F8.106231689453125e-05
sg513
I1
sg514
I3
sasS'total_cqs'
p517
I5
ssI51
(dp518
S'iters'
p519
I0
sS'meta'
p520
(lp521
sS'total_cqs'
p522
I1
ssI52
(dp523
S'iters'
p524
I0
sS'meta'
p525
(lp526
sS'total_cqs'
p527
I1
ssI53
(dp528
S'iters'
p529
I0
sS'meta'
p530
(lp531
sS'total_cqs'
p532
I1
ssI55
(dp533
S'iters'
p534
I1
sS'meta'
p535
(lp536
(dp537
S'objective'
p538
I1
sS'query_time'
p539
F7.774918079376221
sS'comp_time'
p540
F3.0040740966796875e-05
sS'exec_cq'
p541
I1
sS'total_cq'
p542
I2
sasS'total_cqs'
p543
I2
ssI56
(dp544
S'iters'
p545
I0
sS'meta'
p546
(lp547
sS'total_cqs'
p548
I1
ssI57
(dp549
S'iters'
p550
I2
sS'meta'
p551
(lp552
(dp553
S'objective'
p554
I0
sS'query_time'
p555
F2.1799421310424805
sS'comp_time'
p556
F0.001280069351196289
sS'exec_cq'
p557
I1
sS'total_cq'
p558
I3
sa(dp559
g554
I1
sg555
F11.605355024337769
sg556
F0.009844064712524414
sg557
I1
sg558
I2
sasS'total_cqs'
p560
I3
ssI108
(dp561
S'iters'
p562
I0
sS'meta'
p563
(lp564
sS'total_cqs'
p565
I1
ssI109
(dp566
S'iters'
p567
I0
sS'meta'
p568
(lp569
sS'total_cqs'
p570
I1
ssI116
(dp571
S'iters'
p572
I4
sS'meta'
p573
(lp574
(dp575
S'objective'
p576
I197
sS'query_time'
p577
F0.2723979949951172
sS'comp_time'
p578
F0.00011110305786132812
sS'exec_cq'
p579
I5
sS'total_cq'
p580
I21
sa(dp581
g576
I192
sg577
F3.948500871658325
sg578
F0.00036787986755371094
sg579
I10
sg580
I20
sa(dp582
g576
I181
sg577
F0.26509809494018555
sg578
F0.00010085105895996094
sg579
I13
sg580
I19
sa(dp583
g576
I3
sg577
F2.218446969985962
sg578
F3.600120544433594e-05
sg579
I1
sg580
I2
sasS'total_cqs'
p584
I21
ssI117
(dp585
S'iters'
p586
I1
sS'meta'
p587
(lp588
(dp589
S'objective'
p590
I9
sS'query_time'
p591
F0.006417036056518555
sS'comp_time'
p592
F4.506111145019531e-05
sS'exec_cq'
p593
I3
sS'total_cq'
p594
I5
sasS'total_cqs'
p595
I5
ssI118
(dp596
S'iters'
p597
I0
sS'meta'
p598
(lp599
sS'total_cqs'
p600
I1
ssI122
(dp601
S'iters'
p602
I0
sS'meta'
p603
(lp604
sS'total_cqs'
p605
I1
ss.