(dp0
I1
(dp1
S'iters'
p2
I3
sS'meta'
p3
(lp4
(dp5
S'objective'
p6
I1
sS'query_time'
p7
F71.96544289588928
sS'comp_time'
p8
F3.6963918209075928
sS'exec_cq'
p9
I6
sS'total_cq'
p10
I6
sa(dp11
g6
I3
sg7
F0.4282071590423584
sg8
F2.0433077812194824
sg9
I4
sg10
I4
sa(dp12
g6
I2
sg7
F0.010626077651977539
sg8
F0.23975300788879395
sg9
I2
sg10
I2
sasS'total_cqs'
p13
I6
ssI2
(dp14
S'iters'
p15
I1
sS'meta'
p16
(lp17
(dp18
S'objective'
p19
I15
sS'query_time'
p20
F0.7429749965667725
sS'comp_time'
p21
F0.1226799488067627
sS'exec_cq'
p22
I6
sS'total_cq'
p23
I6
sasS'total_cqs'
p24
I6
ssI3
(dp25
S'iters'
p26
I15
sS'meta'
p27
(lp28
(dp29
S'objective'
p30
I433
sS'query_time'
p31
F28.127490997314453
sS'comp_time'
p32
F0.38874292373657227
sS'exec_cq'
p33
I33
sS'total_cq'
p34
I33
sa(dp35
g30
I383
sg31
F0.023681163787841797
sg32
F0.26368021965026855
sg33
I30
sg34
I30
sa(dp36
g30
I346
sg31
F0.021301984786987305
sg32
F0.2568342685699463
sg33
I27
sg34
I27
sa(dp37
g30
I301
sg31
F0.053742170333862305
sg32
F0.21992182731628418
sg33
I24
sg34
I24
sa(dp38
g30
I255
sg31
F0.048097848892211914
sg32
F0.2122209072113037
sg33
I21
sg34
I21
sa(dp39
g30
I217
sg31
F0.034622907638549805
sg32
F0.07564902305603027
sg33
I18
sg34
I18
sa(dp40
g30
I193
sg31
F0.025138139724731445
sg32
F0.05132102966308594
sg33
I15
sg34
I15
sa(dp41
g30
I162
sg31
F0.005835056304931641
sg32
F0.0743861198425293
sg33
I12
sg34
I12
sa(dp42
g30
I132
sg31
F0.0052568912506103516
sg32
F0.05210113525390625
sg33
I11
sg34
I11
sa(dp43
g30
I103
sg31
F0.002691030502319336
sg32
F0.027587175369262695
sg33
I10
sg34
I10
sa(dp44
g30
I75
sg31
F0.002827882766723633
sg32
F0.026240110397338867
sg33
I9
sg34
I9
sa(dp45
g30
I54
sg31
F0.0024449825286865234
sg32
F0.027625083923339844
sg33
I7
sg34
I7
sa(dp46
g30
I47
sg31
F0.024036884307861328
sg32
F0.026833057403564453
sg33
I6
sg34
I6
sa(dp47
g30
I39
sg31
F0.0022668838500976562
sg32
F0.02550029754638672
sg33
I5
sg34
I5
sa(dp48
g30
I31
sg31
F0.0028820037841796875
sg32
F0.02478623390197754
sg33
I4
sg34
I4
sasS'total_cqs'
p49
I33
ssI4
(dp50
S'iters'
p51
I0
sS'meta'
p52
(lp53
sS'total_cqs'
p54
I1
ssI5
(dp55
S'iters'
p56
I0
sS'meta'
p57
(lp58
sS'total_cqs'
p59
I1
ssI6
(dp60
S'iters'
p61
I2
sS'meta'
p62
(lp63
(dp64
S'objective'
p65
I1
sS'query_time'
p66
F15.069216012954712
sS'comp_time'
p67
F0.005810976028442383
sS'exec_cq'
p68
I5
sS'total_cq'
p69
I5
sa(dp70
g65
I1
sg66
F0.0003268718719482422
sg67
F0.003192901611328125
sg68
I2
sg69
I2
sasS'total_cqs'
p71
I5
ssI7
(dp72
S'iters'
p73
I0
sS'meta'
p74
(lp75
sS'total_cqs'
p76
I1
ssI8
(dp77
S'iters'
p78
I4
sS'meta'
p79
(lp80
(dp81
S'objective'
p82
I9
sS'query_time'
p83
F102.91493701934814
sS'comp_time'
p84
F0.3760218620300293
sS'exec_cq'
p85
I6
sS'total_cq'
p86
I6
sa(dp87
g82
I5
sg83
F5.316734313964844e-05
sg84
F1.3687949180603027
sg85
I5
sg86
I5
sa(dp88
g82
I2
sg83
F4.482269287109375e-05
sg84
F0.0044748783111572266
sg85
I4
sg86
I4
sa(dp89
g82
I0
sg83
F3.1948089599609375e-05
sg84
F0.0029799938201904297
sg85
I3
sg86
I3
sasS'total_cqs'
p90
I6
ssI9
(dp91
S'iters'
p92
I3
sS'meta'
p93
(lp94
(dp95
S'objective'
p96
I1
sS'query_time'
p97
F51.58593392372131
sS'comp_time'
p98
F7.109025955200195
sS'exec_cq'
p99
I6
sS'total_cq'
p100
I6
sa(dp101
g96
I1
sg97
F1.120887041091919
sg98
F6.0004918575286865
sg99
I3
sg100
I3
sa(dp102
g96
I1
sg97
F0.009024858474731445
sg98
F0.06259012222290039
sg99
I2
sg100
I2
sasS'total_cqs'
p103
I6
ssI10
(dp104
S'iters'
p105
I0
sS'meta'
p106
(lp107
sS'total_cqs'
p108
I1
ssI11
(dp109
S'iters'
p110
I0
sS'meta'
p111
(lp112
sS'total_cqs'
p113
I1
ssI12
(dp114
S'iters'
p115
I0
sS'meta'
p116
(lp117
sS'total_cqs'
p118
I1
ssI13
(dp119
S'iters'
p120
I2
sS'meta'
p121
(lp122
(dp123
S'objective'
p124
I20
sS'query_time'
p125
F0.014758110046386719
sS'comp_time'
p126
F0.00019311904907226562
sS'exec_cq'
p127
I8
sS'total_cq'
p128
I8
sa(dp129
g124
I22
sg125
F4.7206878662109375e-05
sg126
F7.700920104980469e-05
sg127
I7
sg128
I7
sasS'total_cqs'
p130
I8
ssI14
(dp131
S'iters'
p132
I2
sS'meta'
p133
(lp134
(dp135
S'objective'
p136
I5
sS'query_time'
p137
F1.0106258392333984
sS'comp_time'
p138
F0.010075807571411133
sS'exec_cq'
p139
I5
sS'total_cq'
p140
I5
sa(dp141
g136
I4
sg137
F0.0007719993591308594
sg138
F0.0059511661529541016
sg139
I4
sg140
I4
sasS'total_cqs'
p142
I5
ssI16
(dp143
S'iters'
p144
I2
sS'meta'
p145
(lp146
(dp147
S'objective'
p148
I1
sS'query_time'
p149
F1.5462710857391357
sS'comp_time'
p150
F0.008865833282470703
sS'exec_cq'
p151
I5
sS'total_cq'
p152
I5
sa(dp153
g148
I2
sg149
F3.910064697265625e-05
sg150
F0.00025916099548339844
sg151
I2
sg152
I2
sasS'total_cqs'
p154
I5
ssI17
(dp155
S'iters'
p156
I0
sS'meta'
p157
(lp158
sS'total_cqs'
p159
I1
ssI18
(dp160
S'iters'
p161
I2
sS'meta'
p162
(lp163
(dp164
S'objective'
p165
I1
sS'query_time'
p166
F0.27169299125671387
sS'comp_time'
p167
F0.0004918575286865234
sS'exec_cq'
p168
I5
sS'total_cq'
p169
I5
sa(dp170
g165
I2
sg166
F4.220008850097656e-05
sg167
F0.0002257823944091797
sg168
I2
sg169
I2
sasS'total_cqs'
p171
I5
ssI19
(dp172
S'iters'
p173
I0
sS'meta'
p174
(lp175
sS'total_cqs'
p176
I1
ssI20
(dp177
S'iters'
p178
I4
sS'meta'
p179
(lp180
(dp181
S'objective'
p182
I34
sS'query_time'
p183
F11.362336158752441
sS'comp_time'
p184
F1.7209417819976807
sS'exec_cq'
p185
I12
sS'total_cq'
p186
I12
sa(dp187
g182
I30
sg183
F0.26810407638549805
sg184
F1.434636116027832
sg185
I10
sg186
I10
sa(dp188
g182
I25
sg183
F0.22312283515930176
sg184
F1.3520081043243408
sg185
I8
sg186
I8
sa(dp189
g182
I26
sg183
F0.1485888957977295
sg184
F0.46636509895324707
sg185
I7
sg186
I7
sasS'total_cqs'
p190
I12
ssI21
(dp191
S'iters'
p192
I4
sS'meta'
p193
(lp194
(dp195
S'objective'
p196
I45
sS'query_time'
p197
F124.86559104919434
sS'comp_time'
p198
F2.397164821624756
sS'exec_cq'
p199
I14
sS'total_cq'
p200
I14
sa(dp201
g196
I11
sg197
F0.023529052734375
sg198
F0.44356799125671387
sg199
I10
sg200
I10
sa(dp202
g196
I9
sg197
F0.10800504684448242
sg198
F0.22155523300170898
sg199
I6
sg200
I6
sa(dp203
g196
I7
sg197
F0.0038537979125976562
sg198
F0.03412795066833496
sg199
I2
sg200
I2
sasS'total_cqs'
p204
I14
ssI22
(dp205
S'iters'
p206
I1
sS'meta'
p207
(lp208
(dp209
S'objective'
p210
I1
sS'query_time'
p211
F0.003072023391723633
sS'comp_time'
p212
F0.00017786026000976562
sS'exec_cq'
p213
I2
sS'total_cq'
p214
I2
sasS'total_cqs'
p215
I2
ssI23
(dp216
S'iters'
p217
I0
sS'meta'
p218
(lp219
sS'total_cqs'
p220
I1
ssI24
(dp221
S'iters'
p222
I0
sS'meta'
p223
(lp224
sS'total_cqs'
p225
I1
ssI25
(dp226
S'iters'
p227
I4
sS'meta'
p228
(lp229
(dp230
S'objective'
p231
I4
sS'query_time'
p232
F77.81204104423523
sS'comp_time'
p233
F6.171696901321411
sS'exec_cq'
p234
I7
sS'total_cq'
p235
I7
sa(dp236
g231
I4
sg232
F0.821138858795166
sg233
F4.908719301223755
sg234
I5
sg235
I5
sa(dp237
g231
I2
sg232
F0.4768788814544678
sg233
F2.417057991027832
sg234
I4
sg235
I4
sa(dp238
g231
I0
sg232
F0.0010790824890136719
sg233
F0.016952991485595703
sg234
I3
sg235
I3
sasS'total_cqs'
p239
I7
ssI26
(dp240
S'iters'
p241
I7
sS'meta'
p242
(lp243
(dp244
S'objective'
p245
I47
sS'query_time'
p246
F24.731266021728516
sS'comp_time'
p247
F5.738371849060059
sS'exec_cq'
p248
I13
sS'total_cq'
p249
I13
sa(dp250
g245
I31
sg246
F0.802847146987915
sg247
F5.0981080532073975
sg248
I11
sg249
I11
sa(dp251
g245
I28
sg246
F0.8195469379425049
sg247
F6.417720794677734
sg248
I9
sg249
I9
sa(dp252
g245
I21
sg246
F1.2363479137420654
sg247
F5.461188077926636
sg248
I8
sg249
I8
sa(dp253
g245
I14
sg246
F1.0432891845703125
sg247
F6.746665954589844
sg248
I7
sg249
I7
sa(dp254
g245
I8
sg246
F0.9206700325012207
sg247
F4.867084264755249
sg248
I6
sg249
I6
sa(dp255
g245
I5
sg246
F0.00049591064453125
sg247
F0.003709077835083008
sg248
I5
sg249
I5
sasS'total_cqs'
p256
I13
ssI27
(dp257
S'iters'
p258
I1
sS'meta'
p259
(lp260
(dp261
S'objective'
p262
I1
sS'query_time'
p263
F0.16000008583068848
sS'comp_time'
p264
F0.007381916046142578
sS'exec_cq'
p265
I2
sS'total_cq'
p266
I2
sasS'total_cqs'
p267
I2
ssI28
(dp268
S'iters'
p269
I7
sS'meta'
p270
(lp271
(dp272
S'objective'
p273
I51
sS'query_time'
p274
F1.7038488388061523
sS'comp_time'
p275
F0.041738271713256836
sS'exec_cq'
p276
I14
sS'total_cq'
p277
I14
sa(dp278
g273
I40
sg274
F0.002830028533935547
sg275
F0.04527997970581055
sg276
I10
sg277
I10
sa(dp279
g273
I31
sg274
F0.0027780532836914062
sg275
F0.023409128189086914
sg276
I8
sg277
I8
sa(dp280
g273
I19
sg274
F0.0029289722442626953
sg275
F0.023060083389282227
sg276
I7
sg277
I7
sa(dp281
g273
I8
sg274
F0.00013113021850585938
sg275
F0.0009260177612304688
sg276
I5
sg277
I5
sa(dp282
g273
I0
sg274
F8.893013000488281e-05
sg275
F0.0008261203765869141
sg276
I4
sg277
I4
sa(dp283
g273
I0
sg274
F8.58306884765625e-05
sg275
F0.0009319782257080078
sg276
I3
sg277
I3
sasS'total_cqs'
p284
I14
ssI29
(dp285
S'iters'
p286
I1
sS'meta'
p287
(lp288
(dp289
S'objective'
p290
I1
sS'query_time'
p291
F0.006027936935424805
sS'comp_time'
p292
F0.0001518726348876953
sS'exec_cq'
p293
I2
sS'total_cq'
p294
I2
sasS'total_cqs'
p295
I2
ssI30
(dp296
S'iters'
p297
I1
sS'meta'
p298
(lp299
(dp300
S'objective'
p301
I1
sS'query_time'
p302
F0.3377668857574463
sS'comp_time'
p303
F0.0074460506439208984
sS'exec_cq'
p304
I2
sS'total_cq'
p305
I2
sasS'total_cqs'
p306
I2
ssI31
(dp307
S'iters'
p308
I3
sS'meta'
p309
(lp310
(dp311
S'objective'
p312
I15
sS'query_time'
p313
F6.270234823226929
sS'comp_time'
p314
F0.29148364067077637
sS'exec_cq'
p315
I9
sS'total_cq'
p316
I9
sa(dp317
g312
I3
sg313
F0.007719993591308594
sg314
F0.07984423637390137
sg315
I3
sg316
I3
sa(dp318
g312
I1
sg313
F0.006082057952880859
sg314
F0.045079946517944336
sg315
I2
sg316
I2
sasS'total_cqs'
p319
I9
ssI32
(dp320
S'iters'
p321
I3
sS'meta'
p322
(lp323
(dp324
S'objective'
p325
I0
sS'query_time'
p326
F19.078118085861206
sS'comp_time'
p327
F5.4886980056762695
sS'exec_cq'
p328
I7
sS'total_cq'
p329
I7
sa(dp330
g325
I4
sg326
F0.14965105056762695
sg327
F2.562499761581421
sg328
I4
sg329
I4
sa(dp331
g325
I1
sg326
F0.2695920467376709
sg327
F1.7448599338531494
sg328
I2
sg329
I2
sasS'total_cqs'
p332
I7
ssI33
(dp333
S'iters'
p334
I1
sS'meta'
p335
(lp336
(dp337
S'objective'
p338
I1
sS'query_time'
p339
F0.04179811477661133
sS'comp_time'
p340
F0.0001647472381591797
sS'exec_cq'
p341
I2
sS'total_cq'
p342
I2
sasS'total_cqs'
p343
I2
ssI34
(dp344
S'iters'
p345
I0
sS'meta'
p346
(lp347
sS'total_cqs'
p348
I1
ssI35
(dp349
S'iters'
p350
I3
sS'meta'
p351
(lp352
(dp353
S'objective'
p354
I1
sS'query_time'
p355
F15.787507057189941
sS'comp_time'
p356
F0.4753720760345459
sS'exec_cq'
p357
I5
sS'total_cq'
p358
I5
sa(dp359
g354
I0
sg355
F0.03812599182128906
sg356
F0.25327467918395996
sg357
I3
sg358
I3
sa(dp360
g354
I2
sg355
F0.042387962341308594
sg356
F0.08232593536376953
sg357
I2
sg358
I2
sasS'total_cqs'
p361
I5
ssI37
(dp362
S'iters'
p363
I3
sS'meta'
p364
(lp365
(dp366
S'objective'
p367
I15
sS'query_time'
p368
F2.7770509719848633
sS'comp_time'
p369
F0.21392011642456055
sS'exec_cq'
p370
I10
sS'total_cq'
p371
I10
sa(dp372
g367
I2
sg368
F0.0068738460540771484
sg369
F0.0579380989074707
sg370
I3
sg371
I3
sa(dp373
g367
I3
sg368
F0.003473997116088867
sg369
F0.024746179580688477
sg370
I2
sg371
I2
sasS'total_cqs'
p374
I10
ssI38
(dp375
S'iters'
p376
I0
sS'meta'
p377
(lp378
sS'total_cqs'
p379
I1
ssI39
(dp380
S'iters'
p381
I0
sS'meta'
p382
(lp383
sS'total_cqs'
p384
I1
ssI40
(dp385
S'iters'
p386
I1
sS'meta'
p387
(lp388
(dp389
S'objective'
p390
I1
sS'query_time'
p391
F17.48428702354431
sS'comp_time'
p392
F4.579843044281006
sS'exec_cq'
p393
I2
sS'total_cq'
p394
I2
sasS'total_cqs'
p395
I2
ssI41
(dp396
S'iters'
p397
I3
sS'meta'
p398
(lp399
(dp400
S'objective'
p401
I1
sS'query_time'
p402
F12.077913999557495
sS'comp_time'
p403
F2.229124069213867
sS'exec_cq'
p404
I6
sS'total_cq'
p405
I6
sa(dp406
g401
I2
sg402
F0.40271997451782227
sg403
F2.251703977584839
sg404
I4
sg405
I4
sa(dp407
g401
I2
sg402
F0.0009109973907470703
sg403
F0.006593942642211914
sg404
I2
sg405
I2
sasS'total_cqs'
p408
I6
ssI42
(dp409
S'iters'
p410
I1
sS'meta'
p411
(lp412
(dp413
S'objective'
p414
I1
sS'query_time'
p415
F17.64764094352722
sS'comp_time'
p416
F4.033772230148315
sS'exec_cq'
p417
I2
sS'total_cq'
p418
I2
sasS'total_cqs'
p419
I2
ssI43
(dp420
S'iters'
p421
I0
sS'meta'
p422
(lp423
sS'total_cqs'
p424
I1
ssI44
(dp425
S'iters'
p426
I3
sS'meta'
p427
(lp428
(dp429
S'objective'
p430
I3
sS'query_time'
p431
F1.6198289394378662
sS'comp_time'
p432
F0.1776888370513916
sS'exec_cq'
p433
I5
sS'total_cq'
p434
I5
sa(dp435
g430
I1
sg431
F0.07605814933776855
sg432
F0.10315608978271484
sg433
I3
sg434
I3
sa(dp436
g430
I1
sg431
F7.700920104980469e-05
sg432
F0.0005209445953369141
sg433
I2
sg434
I2
sasS'total_cqs'
p437
I5
ssI45
(dp438
S'iters'
p439
I2
sS'meta'
p440
(lp441
(dp442
S'objective'
p443
I5
sS'query_time'
p444
F0.0595850944519043
sS'comp_time'
p445
F0.0013380050659179688
sS'exec_cq'
p446
I5
sS'total_cq'
p447
I5
sa(dp448
g443
I1
sg444
F0.00015592575073242188
sg445
F0.0008249282836914062
sg446
I2
sg447
I2
sasS'total_cqs'
p449
I5
ssI46
(dp450
S'iters'
p451
I0
sS'meta'
p452
(lp453
sS'total_cqs'
p454
I1
ssI47
(dp455
S'iters'
p456
I0
sS'meta'
p457
(lp458
sS'total_cqs'
p459
I1
ssI48
(dp460
S'iters'
p461
I1
sS'meta'
p462
(lp463
(dp464
S'objective'
p465
I1
sS'query_time'
p466
F0.12733101844787598
sS'comp_time'
p467
F0.009170055389404297
sS'exec_cq'
p468
I2
sS'total_cq'
p469
I2
sasS'total_cqs'
p470
I2
ssI49
(dp471
S'iters'
p472
I2
sS'meta'
p473
(lp474
(dp475
S'objective'
p476
I1
sS'query_time'
p477
F0.26574206352233887
sS'comp_time'
p478
F0.0047607421875
sS'exec_cq'
p479
I5
sS'total_cq'
p480
I5
sa(dp481
g476
I1
sg477
F3.695487976074219e-05
sg478
F0.00019097328186035156
sg479
I2
sg480
I2
sasS'total_cqs'
p482
I5
ssI50
(dp483
S'iters'
p484
I3
sS'meta'
p485
(lp486
(dp487
S'objective'
p488
I5
sS'query_time'
p489
F0.9125339984893799
sS'comp_time'
p490
F0.0020170211791992188
sS'exec_cq'
p491
I5
sS'total_cq'
p492
I5
sa(dp493
g488
I2
sg489
F0.00013399124145507812
sg490
F0.0012421607971191406
sg491
I4
sg492
I4
sa(dp494
g488
I0
sg489
F0.00012493133544921875
sg490
F0.00664520263671875
sg491
I3
sg492
I3
sasS'total_cqs'
p495
I5
ssI51
(dp496
S'iters'
p497
I0
sS'meta'
p498
(lp499
sS'total_cqs'
p500
I1
ssI52
(dp501
S'iters'
p502
I0
sS'meta'
p503
(lp504
sS'total_cqs'
p505
I1
ssI53
(dp506
S'iters'
p507
I0
sS'meta'
p508
(lp509
sS'total_cqs'
p510
I1
ssI55
(dp511
S'iters'
p512
I1
sS'meta'
p513
(lp514
(dp515
S'objective'
p516
I1
sS'query_time'
p517
F26.4239399433136
sS'comp_time'
p518
F0.10015296936035156
sS'exec_cq'
p519
I2
sS'total_cq'
p520
I2
sasS'total_cqs'
p521
I2
ssI56
(dp522
S'iters'
p523
I0
sS'meta'
p524
(lp525
sS'total_cqs'
p526
I1
ssI57
(dp527
S'iters'
p528
I1
sS'meta'
p529
(lp530
(dp531
S'objective'
p532
I2
sS'query_time'
p533
F13.466323852539062
sS'comp_time'
p534
F2.6820461750030518
sS'exec_cq'
p535
I3
sS'total_cq'
p536
I3
sasS'total_cqs'
p537
I3
ssI108
(dp538
S'iters'
p539
I0
sS'meta'
p540
(lp541
sS'total_cqs'
p542
I1
ssI109
(dp543
S'iters'
p544
I0
sS'meta'
p545
(lp546
sS'total_cqs'
p547
I1
ssI116
(dp548
S'iters'
p549
I3
sS'meta'
p550
(lp551
(dp552
S'objective'
p553
I165
sS'query_time'
p554
F5.60374903678894
sS'comp_time'
p555
F0.514171838760376
sS'exec_cq'
p556
I21
sS'total_cq'
p557
I21
sa(dp558
g553
I9
sg554
F0.0018429756164550781
sg555
F0.008156061172485352
sg556
I3
sg557
I3
sa(dp559
g553
I2
sg554
F0.0006878376007080078
sg555
F0.0049190521240234375
sg556
I2
sg557
I2
sasS'total_cqs'
p560
I21
ssI117
(dp561
S'iters'
p562
I2
sS'meta'
p563
(lp564
(dp565
S'objective'
p566
I5
sS'query_time'
p567
F0.013092041015625
sS'comp_time'
p568
F0.00020194053649902344
sS'exec_cq'
p569
I5
sS'total_cq'
p570
I5
sa(dp571
g566
I4
sg567
F3.3855438232421875e-05
sg568
F8.0108642578125e-05
sg569
I4
sg570
I4
sasS'total_cqs'
p572
I5
ssI118
(dp573
S'iters'
p574
I0
sS'meta'
p575
(lp576
sS'total_cqs'
p577
I1
ssI122
(dp578
S'iters'
p579
I0
sS'meta'
p580
(lp581
sS'total_cqs'
p582
I1
ss.