(dp0
I1
(dp1
S'iters'
p2
I2
sS'meta'
p3
(lp4
(dp5
S'objective'
p6
I7
sS'query_time'
p7
F1.8490002155303955
sS'comp_time'
p8
F7.987022399902344e-05
sS'exec_cq'
p9
I1
sS'total_cq'
p10
I6
sa(dp11
g6
I5
sg7
F401.0284011363983
sg8
F5.888938903808594e-05
sg9
I1
sg10
I2
sasS'total_cqs'
p12
I6
ssI2
(dp13
S'iters'
p14
I1
sS'meta'
p15
(lp16
(dp17
S'objective'
p18
I9
sS'query_time'
p19
F0.8882999420166016
sS'comp_time'
p20
F9.918212890625e-05
sS'exec_cq'
p21
I1
sS'total_cq'
p22
I6
sasS'total_cqs'
p23
I6
ssI3
(dp24
S'iters'
p25
I8
sS'meta'
p26
(lp27
(dp28
S'objective'
p29
I473
sS'query_time'
p30
F0.030730009078979492
sS'comp_time'
p31
F5.1021575927734375e-05
sS'exec_cq'
p32
I1
sS'total_cq'
p33
I33
sa(dp34
g29
I369
sg30
F0.02480602264404297
sg31
F5.3882598876953125e-05
sg32
I1
sg33
I31
sa(dp35
g29
I317
sg30
F0.015427112579345703
sg31
F5.0067901611328125e-05
sg32
I1
sg33
I28
sa(dp36
g29
I320
sg30
F0.27158617973327637
sg31
F0.00010085105895996094
sg32
I1
sg33
I25
sa(dp37
g29
I260
sg30
F0.04676485061645508
sg31
F0.00010609626770019531
sg32
I1
sg33
I24
sa(dp38
g29
I171
sg30
F0.5879878997802734
sg31
F9.799003601074219e-05
sg32
I1
sg33
I21
sa(dp39
g29
I178
sg30
F0.017179012298583984
sg31
F0.0002129077911376953
sg32
I1
sg33
I18
sa(dp40
g29
I156
sg30
F0.17498278617858887
sg31
F7.82012939453125e-05
sg32
I1
sg33
I16
sasS'total_cqs'
p41
I33
ssI4
(dp42
S'iters'
p43
I0
sS'meta'
p44
(lp45
sS'total_cqs'
p46
I1
ssI5
(dp47
S'iters'
p48
I0
sS'meta'
p49
(lp50
sS'total_cqs'
p51
I1
ssI6
(dp52
S'iters'
p53
I2
sS'meta'
p54
(lp55
(dp56
S'objective'
p57
I1
sS'query_time'
p58
F26.116610050201416
sS'comp_time'
p59
F7.486343383789062e-05
sS'exec_cq'
p60
I1
sS'total_cq'
p61
I5
sa(dp62
g57
I2
sg58
F59.4123170375824
sg59
F5.793571472167969e-05
sg60
I1
sg61
I2
sasS'total_cqs'
p63
I5
ssI7
(dp64
S'iters'
p65
I0
sS'meta'
p66
(lp67
sS'total_cqs'
p68
I1
ssI8
(dp69
S'iters'
p70
I1
sS'meta'
p71
(lp72
(dp73
S'objective'
p74
I9
sS'query_time'
p75
F32.43524789810181
sS'comp_time'
p76
F0.0005080699920654297
sS'exec_cq'
p77
I1
sS'total_cq'
p78
I6
sasS'total_cqs'
p79
I6
ssI9
(dp80
S'iters'
p81
I1
sS'meta'
p82
(lp83
(dp84
S'objective'
p85
I9
sS'query_time'
p86
F1.0513720512390137
sS'comp_time'
p87
F7.200241088867188e-05
sS'exec_cq'
p88
I1
sS'total_cq'
p89
I6
sasS'total_cqs'
p90
I6
ssI10
(dp91
S'iters'
p92
I0
sS'meta'
p93
(lp94
sS'total_cqs'
p95
I1
ssI11
(dp96
S'iters'
p97
I0
sS'meta'
p98
(lp99
sS'total_cqs'
p100
I1
ssI12
(dp101
S'iters'
p102
I0
sS'meta'
p103
(lp104
sS'total_cqs'
p105
I1
ssI13
(dp106
S'iters'
p107
I2
sS'meta'
p108
(lp109
(dp110
S'objective'
p111
I20
sS'query_time'
p112
F7.5196311473846436
sS'comp_time'
p113
F6.794929504394531e-05
sS'exec_cq'
p114
I1
sS'total_cq'
p115
I8
sa(dp116
g111
I14
sg112
F0.13378095626831055
sg113
F3.0994415283203125e-05
sg114
I1
sg115
I7
sasS'total_cqs'
p117
I8
ssI14
(dp118
S'iters'
p119
I1
sS'meta'
p120
(lp121
(dp122
S'objective'
p123
I5
sS'query_time'
p124
F0.9305391311645508
sS'comp_time'
p125
F8.511543273925781e-05
sS'exec_cq'
p126
I1
sS'total_cq'
p127
I5
sasS'total_cqs'
p128
I5
ssI16
(dp129
S'iters'
p130
I2
sS'meta'
p131
(lp132
(dp133
S'objective'
p134
I3
sS'query_time'
p135
F5.988337993621826
sS'comp_time'
p136
F6.794929504394531e-05
sS'exec_cq'
p137
I1
sS'total_cq'
p138
I5
sa(dp139
g134
I4
sg135
F113.78504395484924
sg136
F6.103515625e-05
sg137
I2
sg138
I2
sasS'total_cqs'
p140
I5
ssI17
(dp141
S'iters'
p142
I0
sS'meta'
p143
(lp144
sS'total_cqs'
p145
I1
ssI18
(dp146
S'iters'
p147
I2
sS'meta'
p148
(lp149
(dp150
S'objective'
p151
I1
sS'query_time'
p152
F0.41399502754211426
sS'comp_time'
p153
F5.793571472167969e-05
sS'exec_cq'
p154
I1
sS'total_cq'
p155
I5
sa(dp156
g151
I3
sg152
F0.3235738277435303
sg153
F7.510185241699219e-05
sg154
I2
sg155
I2
sasS'total_cqs'
p157
I5
ssI19
(dp158
S'iters'
p159
I0
sS'meta'
p160
(lp161
sS'total_cqs'
p162
I1
ssI20
(dp163
S'iters'
p164
I2
sS'meta'
p165
(lp166
(dp167
S'objective'
p168
I42
sS'query_time'
p169
F4.64404296875
sS'comp_time'
p170
F8.106231689453125e-05
sS'exec_cq'
p171
I2
sS'total_cq'
p172
I12
sa(dp173
g168
I40
sg169
F0.10750913619995117
sg170
F7.414817810058594e-05
sg171
I2
sg172
I10
sasS'total_cqs'
p174
I12
ssI21
(dp175
S'iters'
p176
I3
sS'meta'
p177
(lp178
(dp179
S'objective'
p180
I77
sS'query_time'
p181
F24.30289101600647
sS'comp_time'
p182
F0.0002269744873046875
sS'exec_cq'
p183
I1
sS'total_cq'
p184
I14
sa(dp185
g180
I57
sg181
F0.4586808681488037
sg182
F0.00011301040649414062
sg183
I1
sg184
I13
sa(dp186
g180
I50
sg181
F0.0175020694732666
sg182
F5.507469177246094e-05
sg183
I1
sg184
I11
sasS'total_cqs'
p187
I14
ssI22
(dp188
S'iters'
p189
I1
sS'meta'
p190
(lp191
(dp192
S'objective'
p193
I1
sS'query_time'
p194
F0.0046770572662353516
sS'comp_time'
p195
F4.482269287109375e-05
sS'exec_cq'
p196
I1
sS'total_cq'
p197
I2
sasS'total_cqs'
p198
I2
ssI23
(dp199
S'iters'
p200
I0
sS'meta'
p201
(lp202
sS'total_cqs'
p203
I1
ssI24
(dp204
S'iters'
p205
I0
sS'meta'
p206
(lp207
sS'total_cqs'
p208
I1
ssI25
(dp209
S'iters'
p210
I1
sS'meta'
p211
(lp212
(dp213
S'objective'
p214
I14
sS'query_time'
p215
F0.38024401664733887
sS'comp_time'
p216
F6.4849853515625e-05
sS'exec_cq'
p217
I1
sS'total_cq'
p218
I7
sasS'total_cqs'
p219
I7
ssI26
(dp220
S'iters'
p221
I3
sS'meta'
p222
(lp223
(dp224
S'objective'
p225
I65
sS'query_time'
p226
F0.06882190704345703
sS'comp_time'
p227
F8.296966552734375e-05
sS'exec_cq'
p228
I1
sS'total_cq'
p229
I13
sa(dp230
g225
I54
sg226
F0.07897496223449707
sg227
F7.319450378417969e-05
sg228
I1
sg229
I12
sa(dp231
g225
I44
sg226
F0.008368968963623047
sg227
F3.886222839355469e-05
sg228
I1
sg229
I11
sasS'total_cqs'
p232
I13
ssI27
(dp233
S'iters'
p234
I1
sS'meta'
p235
(lp236
(dp237
S'objective'
p238
I1
sS'query_time'
p239
F0.1533069610595703
sS'comp_time'
p240
F7.295608520507812e-05
sS'exec_cq'
p241
I1
sS'total_cq'
p242
I2
sasS'total_cqs'
p243
I2
ssI28
(dp244
S'iters'
p245
I3
sS'meta'
p246
(lp247
(dp248
S'objective'
p249
I77
sS'query_time'
p250
F1.2769279479980469
sS'comp_time'
p251
F4.100799560546875e-05
sS'exec_cq'
p252
I1
sS'total_cq'
p253
I14
sa(dp254
g249
I65
sg250
F1.9431400299072266
sg251
F8.702278137207031e-05
sg252
I1
sg253
I13
sa(dp255
g249
I54
sg250
F0.8146979808807373
sg251
F8.893013000488281e-05
sg252
I1
sg253
I12
sasS'total_cqs'
p256
I14
ssI29
(dp257
S'iters'
p258
I1
sS'meta'
p259
(lp260
(dp261
S'objective'
p262
I1
sS'query_time'
p263
F0.016182899475097656
sS'comp_time'
p264
F6.008148193359375e-05
sS'exec_cq'
p265
I1
sS'total_cq'
p266
I2
sasS'total_cqs'
p267
I2
ssI30
(dp268
S'iters'
p269
I1
sS'meta'
p270
(lp271
(dp272
S'objective'
p273
I1
sS'query_time'
p274
F0.36136794090270996
sS'comp_time'
p275
F7.104873657226562e-05
sS'exec_cq'
p276
I1
sS'total_cq'
p277
I2
sasS'total_cqs'
p278
I2
ssI31
(dp279
S'iters'
p280
I2
sS'meta'
p281
(lp282
(dp283
S'objective'
p284
I27
sS'query_time'
p285
F0.40544700622558594
sS'comp_time'
p286
F6.103515625e-05
sS'exec_cq'
p287
I1
sS'total_cq'
p288
I9
sa(dp289
g284
I20
sg285
F0.3394300937652588
sg286
F6.508827209472656e-05
sg287
I1
sg288
I8
sasS'total_cqs'
p290
I9
ssI32
(dp291
S'iters'
p292
I1
sS'meta'
p293
(lp294
(dp295
S'objective'
p296
I14
sS'query_time'
p297
F0.20225787162780762
sS'comp_time'
p298
F7.510185241699219e-05
sS'exec_cq'
p299
I1
sS'total_cq'
p300
I7
sasS'total_cqs'
p301
I7
ssI33
(dp302
S'iters'
p303
I1
sS'meta'
p304
(lp305
(dp306
S'objective'
p307
I1
sS'query_time'
p308
F0.04901599884033203
sS'comp_time'
p309
F5.817413330078125e-05
sS'exec_cq'
p310
I1
sS'total_cq'
p311
I2
sasS'total_cqs'
p312
I2
ssI34
(dp313
S'iters'
p314
I0
sS'meta'
p315
(lp316
sS'total_cqs'
p317
I1
ssI35
(dp318
S'iters'
p319
I1
sS'meta'
p320
(lp321
(dp322
S'objective'
p323
I5
sS'query_time'
p324
F0.3545410633087158
sS'comp_time'
p325
F7.009506225585938e-05
sS'exec_cq'
p326
I1
sS'total_cq'
p327
I5
sasS'total_cqs'
p328
I5
ssI37
(dp329
S'iters'
p330
I2
sS'meta'
p331
(lp332
(dp333
S'objective'
p334
I35
sS'query_time'
p335
F0.008874893188476562
sS'comp_time'
p336
F3.910064697265625e-05
sS'exec_cq'
p337
I1
sS'total_cq'
p338
I10
sa(dp339
g334
I27
sg335
F0.4270150661468506
sg336
F9.512901306152344e-05
sg337
I1
sg338
I9
sasS'total_cqs'
p340
I10
ssI38
(dp341
S'iters'
p342
I0
sS'meta'
p343
(lp344
sS'total_cqs'
p345
I1
ssI39
(dp346
S'iters'
p347
I0
sS'meta'
p348
(lp349
sS'total_cqs'
p350
I1
ssI40
(dp351
S'iters'
p352
I1
sS'meta'
p353
(lp354
(dp355
S'objective'
p356
I1
sS'query_time'
p357
F15.93858814239502
sS'comp_time'
p358
F0.0005440711975097656
sS'exec_cq'
p359
I2
sS'total_cq'
p360
I2
sasS'total_cqs'
p361
I2
ssI41
(dp362
S'iters'
p363
I2
sS'meta'
p364
(lp365
(dp366
S'objective'
p367
I3
sS'query_time'
p368
F6.56633186340332
sS'comp_time'
p369
F7.200241088867188e-05
sS'exec_cq'
p370
I1
sS'total_cq'
p371
I6
sa(dp372
g367
I3
sg368
F74.59521293640137
sg369
F6.818771362304688e-05
sg370
I2
sg371
I2
sasS'total_cqs'
p373
I6
ssI42
(dp374
S'iters'
p375
I1
sS'meta'
p376
(lp377
(dp378
S'objective'
p379
I1
sS'query_time'
p380
F0.017406225204467773
sS'comp_time'
p381
F7.987022399902344e-05
sS'exec_cq'
p382
I1
sS'total_cq'
p383
I2
sasS'total_cqs'
p384
I2
ssI43
(dp385
S'iters'
p386
I0
sS'meta'
p387
(lp388
sS'total_cqs'
p389
I1
ssI44
(dp390
S'iters'
p391
I1
sS'meta'
p392
(lp393
(dp394
S'objective'
p395
I5
sS'query_time'
p396
F0.009368181228637695
sS'comp_time'
p397
F5.0067901611328125e-05
sS'exec_cq'
p398
I1
sS'total_cq'
p399
I5
sasS'total_cqs'
p400
I5
ssI45
(dp401
S'iters'
p402
I2
sS'meta'
p403
(lp404
(dp405
S'objective'
p406
I3
sS'query_time'
p407
F0.0343170166015625
sS'comp_time'
p408
F5.817413330078125e-05
sS'exec_cq'
p409
I1
sS'total_cq'
p410
I5
sa(dp411
g406
I4
sg407
F0.6502909660339355
sg408
F6.890296936035156e-05
sg409
I2
sg410
I2
sasS'total_cqs'
p412
I5
ssI46
(dp413
S'iters'
p414
I0
sS'meta'
p415
(lp416
sS'total_cqs'
p417
I1
ssI47
(dp418
S'iters'
p419
I0
sS'meta'
p420
(lp421
sS'total_cqs'
p422
I1
ssI48
(dp423
S'iters'
p424
I1
sS'meta'
p425
(lp426
(dp427
S'objective'
p428
I1
sS'query_time'
p429
F0.12314915657043457
sS'comp_time'
p430
F7.605552673339844e-05
sS'exec_cq'
p431
I1
sS'total_cq'
p432
I2
sasS'total_cqs'
p433
I2
ssI49
(dp434
S'iters'
p435
I1
sS'meta'
p436
(lp437
(dp438
S'objective'
p439
I5
sS'query_time'
p440
F0.15099000930786133
sS'comp_time'
p441
F0.00011205673217773438
sS'exec_cq'
p442
I1
sS'total_cq'
p443
I5
sasS'total_cqs'
p444
I5
ssI50
(dp445
S'iters'
p446
I1
sS'meta'
p447
(lp448
(dp449
S'objective'
p450
I5
sS'query_time'
p451
F0.7442879676818848
sS'comp_time'
p452
F7.390975952148438e-05
sS'exec_cq'
p453
I1
sS'total_cq'
p454
I5
sasS'total_cqs'
p455
I5
ssI51
(dp456
S'iters'
p457
I0
sS'meta'
p458
(lp459
sS'total_cqs'
p460
I1
ssI52
(dp461
S'iters'
p462
I0
sS'meta'
p463
(lp464
sS'total_cqs'
p465
I1
ssI53
(dp466
S'iters'
p467
I0
sS'meta'
p468
(lp469
sS'total_cqs'
p470
I1
ssI55
(dp471
S'iters'
p472
I1
sS'meta'
p473
(lp474
(dp475
S'objective'
p476
I1
sS'query_time'
p477
F22.448596954345703
sS'comp_time'
p478
F5.888938903808594e-05
sS'exec_cq'
p479
I1
sS'total_cq'
p480
I2
sasS'total_cqs'
p481
I2
ssI56
(dp482
S'iters'
p483
I0
sS'meta'
p484
(lp485
sS'total_cqs'
p486
I1
ssI57
(dp487
S'iters'
p488
I2
sS'meta'
p489
(lp490
(dp491
S'objective'
p492
I0
sS'query_time'
p493
F2.0964701175689697
sS'comp_time'
p494
F0.0003437995910644531
sS'exec_cq'
p495
I1
sS'total_cq'
p496
I3
sa(dp497
g492
I1
sg493
F10.690424919128418
sg494
F0.00011897087097167969
sg495
I1
sg496
I2
sasS'total_cqs'
p498
I3
ssI108
(dp499
S'iters'
p500
I0
sS'meta'
p501
(lp502
sS'total_cqs'
p503
I1
ssI109
(dp504
S'iters'
p505
I0
sS'meta'
p506
(lp507
sS'total_cqs'
p508
I1
ssI116
(dp509
S'iters'
p510
I3
sS'meta'
p511
(lp512
(dp513
S'objective'
p514
I193
sS'query_time'
p515
F0.14788007736206055
sS'comp_time'
p516
F9.298324584960938e-05
sS'exec_cq'
p517
I3
sS'total_cq'
p518
I21
sa(dp519
g514
I176
sg515
F1.9523460865020752
sg516
F8.797645568847656e-05
sg517
I4
sg518
I20
sa(dp520
g514
I16
sg515
F4.348530054092407
sg516
F3.600120544433594e-05
sg517
I1
sg518
I2
sasS'total_cqs'
p521
I21
ssI117
(dp522
S'iters'
p523
I1
sS'meta'
p524
(lp525
(dp526
S'objective'
p527
I5
sS'query_time'
p528
F0.006150007247924805
sS'comp_time'
p529
F7.700920104980469e-05
sS'exec_cq'
p530
I1
sS'total_cq'
p531
I5
sasS'total_cqs'
p532
I5
ssI118
(dp533
S'iters'
p534
I0
sS'meta'
p535
(lp536
sS'total_cqs'
p537
I1
ssI122
(dp538
S'iters'
p539
I0
sS'meta'
p540
(lp541
sS'total_cqs'
p542
I1
ss.