(dp0
I1
(dp1
S'iters'
p2
I2
sS'meta'
p3
(lp4
(dp5
S'objective'
p6
I5
sS'query_time'
p7
F17.15515899658203
sS'comp_time'
p8
F0.3422989845275879
sS'exec_cq'
p9
I3
sS'total_cq'
p10
I6
sa(dp11
g6
I4
sg7
F0.09527993202209473
sg8
F0.3410513401031494
sg9
I2
sg10
I2
sasS'total_cqs'
p12
I6
ssI2
(dp13
S'iters'
p14
I1
sS'meta'
p15
(lp16
(dp17
S'objective'
p18
I9
sS'query_time'
p19
F1.0176689624786377
sS'comp_time'
p20
F0.29877662658691406
sS'exec_cq'
p21
I5
sS'total_cq'
p22
I6
sasS'total_cqs'
p23
I6
ssI3
(dp24
S'iters'
p25
I7
sS'meta'
p26
(lp27
(dp28
S'objective'
p29
I417
sS'query_time'
p30
F27.127426862716675
sS'comp_time'
p31
F0.374786376953125
sS'exec_cq'
p32
I33
sS'total_cq'
p33
I33
sa(dp34
g29
I365
sg30
F0.033358097076416016
sg31
F0.18625736236572266
sg32
I30
sg33
I30
sa(dp35
g29
I313
sg30
F0.035891056060791016
sg31
F0.18018102645874023
sg32
I27
sg33
I27
sa(dp36
g29
I276
sg30
F0.03065013885498047
sg31
F0.23112082481384277
sg32
I24
sg33
I24
sa(dp37
g29
I243
sg30
F0.02459430694580078
sg31
F0.1332228183746338
sg32
I21
sg33
I21
sa(dp38
g29
I207
sg30
F0.02281022071838379
sg31
F0.0465543270111084
sg32
I18
sg33
I18
sa(dp39
g29
I179
sg30
F0.022140979766845703
sg31
F0.11065363883972168
sg32
I15
sg33
I15
sasS'total_cqs'
p40
I33
ssI4
(dp41
S'iters'
p42
I0
sS'meta'
p43
(lp44
sS'total_cqs'
p45
I1
ssI5
(dp46
S'iters'
p47
I0
sS'meta'
p48
(lp49
sS'total_cqs'
p50
I1
ssI6
(dp51
S'iters'
p52
I2
sS'meta'
p53
(lp54
(dp55
S'objective'
p56
I1
sS'query_time'
p57
F14.203732967376709
sS'comp_time'
p58
F0.0034792423248291016
sS'exec_cq'
p59
I4
sS'total_cq'
p60
I5
sa(dp61
g56
I2
sg57
F8.082389831542969e-05
sg58
F0.00024580955505371094
sg59
I1
sg60
I2
sasS'total_cqs'
p62
I5
ssI7
(dp63
S'iters'
p64
I0
sS'meta'
p65
(lp66
sS'total_cqs'
p67
I1
ssI8
(dp68
S'iters'
p69
I2
sS'meta'
p70
(lp71
(dp72
S'objective'
p73
I11
sS'query_time'
p74
F23.355546951293945
sS'comp_time'
p75
F0.11085224151611328
sS'exec_cq'
p76
I5
sS'total_cq'
p77
I6
sa(dp78
g73
I4
sg74
F0.09485197067260742
sg75
F0.00016617774963378906
sg76
I4
sg77
I5
sasS'total_cqs'
p79
I6
ssI9
(dp80
S'iters'
p81
I2
sS'meta'
p82
(lp83
(dp84
S'objective'
p85
I1
sS'query_time'
p86
F12.934563159942627
sS'comp_time'
p87
F0.1252751350402832
sS'exec_cq'
p88
I3
sS'total_cq'
p89
I6
sa(dp90
g85
I1
sg86
F0.05845999717712402
sg87
F0.18348431587219238
sg88
I2
sg89
I2
sasS'total_cqs'
p91
I6
ssI10
(dp92
S'iters'
p93
I0
sS'meta'
p94
(lp95
sS'total_cqs'
p96
I1
ssI11
(dp97
S'iters'
p98
I0
sS'meta'
p99
(lp100
sS'total_cqs'
p101
I1
ssI12
(dp102
S'iters'
p103
I0
sS'meta'
p104
(lp105
sS'total_cqs'
p106
I1
ssI13
(dp107
S'iters'
p108
I1
sS'meta'
p109
(lp110
(dp111
S'objective'
p112
I20
sS'query_time'
p113
F0.023927927017211914
sS'comp_time'
p114
F0.009010076522827148
sS'exec_cq'
p115
I6
sS'total_cq'
p116
I8
sasS'total_cqs'
p117
I8
ssI14
(dp118
S'iters'
p119
I1
sS'meta'
p120
(lp121
(dp122
S'objective'
p123
I5
sS'query_time'
p124
F0.9994959831237793
sS'comp_time'
p125
F0.004983186721801758
sS'exec_cq'
p126
I5
sS'total_cq'
p127
I5
sasS'total_cqs'
p128
I5
ssI16
(dp129
S'iters'
p130
I2
sS'meta'
p131
(lp132
(dp133
S'objective'
p134
I1
sS'query_time'
p135
F1.3904831409454346
sS'comp_time'
p136
F0.006219625473022461
sS'exec_cq'
p137
I4
sS'total_cq'
p138
I5
sa(dp139
g134
I3
sg135
F0.0013070106506347656
sg136
F0.0017404556274414062
sg137
I2
sg138
I2
sasS'total_cqs'
p140
I5
ssI17
(dp141
S'iters'
p142
I0
sS'meta'
p143
(lp144
sS'total_cqs'
p145
I1
ssI18
(dp146
S'iters'
p147
I3
sS'meta'
p148
(lp149
(dp150
S'objective'
p151
I1
sS'query_time'
p152
F0.1825389862060547
sS'comp_time'
p153
F0.005135774612426758
sS'exec_cq'
p154
I4
sS'total_cq'
p155
I5
sa(dp156
g151
I4
sg152
F8.106231689453125e-05
sg153
F0.00028228759765625
sg154
I2
sg155
I3
sa(dp157
g151
I4
sg152
F0.05969381332397461
sg153
F5.7697296142578125e-05
sg154
I1
sg155
I2
sasS'total_cqs'
p158
I5
ssI19
(dp159
S'iters'
p160
I0
sS'meta'
p161
(lp162
sS'total_cqs'
p163
I1
ssI20
(dp164
S'iters'
p165
I2
sS'meta'
p166
(lp167
(dp168
S'objective'
p169
I48
sS'query_time'
p170
F13.861258029937744
sS'comp_time'
p171
F0.7403552532196045
sS'exec_cq'
p172
I10
sS'total_cq'
p173
I12
sa(dp174
g169
I39
sg170
F0.4354739189147949
sg171
F0.6660330295562744
sg172
I9
sg173
I10
sasS'total_cqs'
p175
I12
ssI21
(dp176
S'iters'
p177
I2
sS'meta'
p178
(lp179
(dp180
S'objective'
p181
I67
sS'query_time'
p182
F59.375608921051025
sS'comp_time'
p183
F0.9456651210784912
sS'exec_cq'
p184
I12
sS'total_cq'
p185
I14
sa(dp186
g181
I58
sg182
F0.11402320861816406
sg183
F0.05918073654174805
sg184
I9
sg185
I11
sasS'total_cqs'
p187
I14
ssI22
(dp188
S'iters'
p189
I1
sS'meta'
p190
(lp191
(dp192
S'objective'
p193
I1
sS'query_time'
p194
F0.00402379035949707
sS'comp_time'
p195
F0.001310110092163086
sS'exec_cq'
p196
I1
sS'total_cq'
p197
I2
sasS'total_cqs'
p198
I2
ssI23
(dp199
S'iters'
p200
I0
sS'meta'
p201
(lp202
sS'total_cqs'
p203
I1
ssI24
(dp204
S'iters'
p205
I0
sS'meta'
p206
(lp207
sS'total_cqs'
p208
I1
ssI25
(dp209
S'iters'
p210
I2
sS'meta'
p211
(lp212
(dp213
S'objective'
p214
I8
sS'query_time'
p215
F52.84437799453735
sS'comp_time'
p216
F1.8244364261627197
sS'exec_cq'
p217
I6
sS'total_cq'
p218
I7
sa(dp219
g214
I4
sg215
F1.1975162029266357
sg216
F2.065922260284424
sg217
I5
sg218
I5
sasS'total_cqs'
p220
I7
ssI26
(dp221
S'iters'
p222
I3
sS'meta'
p223
(lp224
(dp225
S'objective'
p226
I47
sS'query_time'
p227
F0.29733896255493164
sS'comp_time'
p228
F0.014956951141357422
sS'exec_cq'
p229
I4
sS'total_cq'
p230
I13
sa(dp231
g226
I41
sg227
F22.372928142547607
sg228
F0.0015859603881835938
sg229
I5
sg230
I11
sa(dp232
g226
I29
sg227
F0.0031630992889404297
sg228
F0.0012042522430419922
sg229
I4
sg230
I9
sasS'total_cqs'
p233
I13
ssI27
(dp234
S'iters'
p235
I1
sS'meta'
p236
(lp237
(dp238
S'objective'
p239
I1
sS'query_time'
p240
F0.18714404106140137
sS'comp_time'
p241
F0.0022058486938476562
sS'exec_cq'
p242
I1
sS'total_cq'
p243
I2
sasS'total_cqs'
p244
I2
ssI28
(dp245
S'iters'
p246
I2
sS'meta'
p247
(lp248
(dp249
S'objective'
p250
I59
sS'query_time'
p251
F1.5188641548156738
sS'comp_time'
p252
F0.08169817924499512
sS'exec_cq'
p253
I6
sS'total_cq'
p254
I14
sa(dp255
g250
I54
sg251
F0.009051799774169922
sg252
F0.0006840229034423828
sg253
I7
sg254
I12
sasS'total_cqs'
p256
I14
ssI29
(dp257
S'iters'
p258
I1
sS'meta'
p259
(lp260
(dp261
S'objective'
p262
I1
sS'query_time'
p263
F0.007748126983642578
sS'comp_time'
p264
F0.0015063285827636719
sS'exec_cq'
p265
I2
sS'total_cq'
p266
I2
sasS'total_cqs'
p267
I2
ssI30
(dp268
S'iters'
p269
I1
sS'meta'
p270
(lp271
(dp272
S'objective'
p273
I1
sS'query_time'
p274
F0.40099501609802246
sS'comp_time'
p275
F0.0031201839447021484
sS'exec_cq'
p276
I2
sS'total_cq'
p277
I2
sasS'total_cqs'
p278
I2
ssI31
(dp279
S'iters'
p280
I2
sS'meta'
p281
(lp282
(dp283
S'objective'
p284
I13
sS'query_time'
p285
F6.048331022262573
sS'comp_time'
p286
F0.3818831443786621
sS'exec_cq'
p287
I9
sS'total_cq'
p288
I9
sa(dp289
g284
I2
sg285
F0.010642051696777344
sg286
F0.015161275863647461
sg287
I3
sg288
I3
sasS'total_cqs'
p290
I9
ssI32
(dp291
S'iters'
p292
I2
sS'meta'
p293
(lp294
(dp295
S'objective'
p296
I2
sS'query_time'
p297
F21.486618041992188
sS'comp_time'
p298
F2.7170791625976562
sS'exec_cq'
p299
I4
sS'total_cq'
p300
I7
sa(dp301
g296
I1
sg297
F0.09473013877868652
sg298
F0.0002586841583251953
sg299
I1
sg300
I4
sasS'total_cqs'
p302
I7
ssI33
(dp303
S'iters'
p304
I1
sS'meta'
p305
(lp306
(dp307
S'objective'
p308
I1
sS'query_time'
p309
F0.029199838638305664
sS'comp_time'
p310
F0.0014057159423828125
sS'exec_cq'
p311
I2
sS'total_cq'
p312
I2
sasS'total_cqs'
p313
I2
ssI34
(dp314
S'iters'
p315
I0
sS'meta'
p316
(lp317
sS'total_cqs'
p318
I1
ssI35
(dp319
S'iters'
p320
I2
sS'meta'
p321
(lp322
(dp323
S'objective'
p324
I1
sS'query_time'
p325
F13.824924945831299
sS'comp_time'
p326
F0.11016321182250977
sS'exec_cq'
p327
I4
sS'total_cq'
p328
I5
sa(dp329
g324
I2
sg325
F0.0006861686706542969
sg326
F0.0002887248992919922
sg327
I1
sg328
I2
sasS'total_cqs'
p330
I5
ssI37
(dp331
S'iters'
p332
I2
sS'meta'
p333
(lp334
(dp335
S'objective'
p336
I25
sS'query_time'
p337
F1.7749240398406982
sS'comp_time'
p338
F0.1135404109954834
sS'exec_cq'
p339
I8
sS'total_cq'
p340
I10
sa(dp341
g336
I5
sg337
F0.004681825637817383
sg338
F0.09487104415893555
sg339
I2
sg340
I2
sasS'total_cqs'
p342
I10
ssI38
(dp343
S'iters'
p344
I0
sS'meta'
p345
(lp346
sS'total_cqs'
p347
I1
ssI39
(dp348
S'iters'
p349
I0
sS'meta'
p350
(lp351
sS'total_cqs'
p352
I1
ssI40
(dp353
S'iters'
p354
I1
sS'meta'
p355
(lp356
(dp357
S'objective'
p358
I1
sS'query_time'
p359
F0.0213167667388916
sS'comp_time'
p360
F0.0033299922943115234
sS'exec_cq'
p361
I1
sS'total_cq'
p362
I2
sasS'total_cqs'
p363
I2
ssI41
(dp364
S'iters'
p365
I2
sS'meta'
p366
(lp367
(dp368
S'objective'
p369
I3
sS'query_time'
p370
F10.884169101715088
sS'comp_time'
p371
F0.657602071762085
sS'exec_cq'
p372
I5
sS'total_cq'
p373
I6
sa(dp374
g369
I3
sg370
F0.0009181499481201172
sg371
F0.0009720325469970703
sg372
I2
sg373
I2
sasS'total_cqs'
p375
I6
ssI42
(dp376
S'iters'
p377
I1
sS'meta'
p378
(lp379
(dp380
S'objective'
p381
I1
sS'query_time'
p382
F0.009891986846923828
sS'comp_time'
p383
F0.0018422603607177734
sS'exec_cq'
p384
I1
sS'total_cq'
p385
I2
sasS'total_cqs'
p386
I2
ssI43
(dp387
S'iters'
p388
I0
sS'meta'
p389
(lp390
sS'total_cqs'
p391
I1
ssI44
(dp392
S'iters'
p393
I1
sS'meta'
p394
(lp395
(dp396
S'objective'
p397
I5
sS'query_time'
p398
F1.1939749717712402
sS'comp_time'
p399
F0.03644061088562012
sS'exec_cq'
p400
I3
sS'total_cq'
p401
I5
sasS'total_cqs'
p402
I5
ssI45
(dp403
S'iters'
p404
I2
sS'meta'
p405
(lp406
(dp407
S'objective'
p408
I3
sS'query_time'
p409
F0.07272481918334961
sS'comp_time'
p410
F0.0022351741790771484
sS'exec_cq'
p411
I3
sS'total_cq'
p412
I5
sa(dp413
g408
I1
sg409
F0.00017905235290527344
sg410
F0.00022745132446289062
sg411
I2
sg412
I2
sasS'total_cqs'
p414
I5
ssI46
(dp415
S'iters'
p416
I0
sS'meta'
p417
(lp418
sS'total_cqs'
p419
I1
ssI47
(dp420
S'iters'
p421
I0
sS'meta'
p422
(lp423
sS'total_cqs'
p424
I1
ssI48
(dp425
S'iters'
p426
I1
sS'meta'
p427
(lp428
(dp429
S'objective'
p430
I1
sS'query_time'
p431
F0.09354114532470703
sS'comp_time'
p432
F0.003530740737915039
sS'exec_cq'
p433
I2
sS'total_cq'
p434
I2
sasS'total_cqs'
p435
I2
ssI49
(dp436
S'iters'
p437
I2
sS'meta'
p438
(lp439
(dp440
S'objective'
p441
I1
sS'query_time'
p442
F0.21350812911987305
sS'comp_time'
p443
F0.0043599605560302734
sS'exec_cq'
p444
I4
sS'total_cq'
p445
I5
sa(dp446
g441
I2
sg442
F3.814697265625e-05
sg443
F0.00011777877807617188
sg444
I2
sg445
I3
sasS'total_cqs'
p447
I5
ssI50
(dp448
S'iters'
p449
I1
sS'meta'
p450
(lp451
(dp452
S'objective'
p453
I5
sS'query_time'
p454
F0.7492899894714355
sS'comp_time'
p455
F0.0025229454040527344
sS'exec_cq'
p456
I5
sS'total_cq'
p457
I5
sasS'total_cqs'
p458
I5
ssI51
(dp459
S'iters'
p460
I0
sS'meta'
p461
(lp462
sS'total_cqs'
p463
I1
ssI52
(dp464
S'iters'
p465
I0
sS'meta'
p466
(lp467
sS'total_cqs'
p468
I1
ssI53
(dp469
S'iters'
p470
I0
sS'meta'
p471
(lp472
sS'total_cqs'
p473
I1
ssI55
(dp474
S'iters'
p475
I1
sS'meta'
p476
(lp477
(dp478
S'objective'
p479
I1
sS'query_time'
p480
F24.29415988922119
sS'comp_time'
p481
F0.01860213279724121
sS'exec_cq'
p482
I2
sS'total_cq'
p483
I2
sasS'total_cqs'
p484
I2
ssI56
(dp485
S'iters'
p486
I0
sS'meta'
p487
(lp488
sS'total_cqs'
p489
I1
ssI57
(dp490
S'iters'
p491
I1
sS'meta'
p492
(lp493
(dp494
S'objective'
p495
I0
sS'query_time'
p496
F11.90571904182434
sS'comp_time'
p497
F0.858008861541748
sS'exec_cq'
p498
I2
sS'total_cq'
p499
I3
sasS'total_cqs'
p500
I3
ssI108
(dp501
S'iters'
p502
I0
sS'meta'
p503
(lp504
sS'total_cqs'
p505
I1
ssI109
(dp506
S'iters'
p507
I0
sS'meta'
p508
(lp509
sS'total_cqs'
p510
I1
ssI116
(dp511
S'iters'
p512
I2
sS'meta'
p513
(lp514
(dp515
S'objective'
p516
I155
sS'query_time'
p517
F0.5470867156982422
sS'comp_time'
p518
F0.012874841690063477
sS'exec_cq'
p519
I14
sS'total_cq'
p520
I21
sa(dp521
g516
I4
sg517
F0.0009419918060302734
sg518
F0.0009109973907470703
sg519
I2
sg520
I2
sasS'total_cqs'
p522
I21
ssI117
(dp523
S'iters'
p524
I1
sS'meta'
p525
(lp526
(dp527
S'objective'
p528
I5
sS'query_time'
p529
F0.013364076614379883
sS'comp_time'
p530
F0.0015149116516113281
sS'exec_cq'
p531
I4
sS'total_cq'
p532
I5
sasS'total_cqs'
p533
I5
ssI118
(dp534
S'iters'
p535
I0
sS'meta'
p536
(lp537
sS'total_cqs'
p538
I1
ssI122
(dp539
S'iters'
p540
I0
sS'meta'
p541
(lp542
sS'total_cqs'
p543
I1
ss.