(dp0
I1
(dp1
S'iters'
p2
I2
sS'meta'
p3
(lp4
(dp5
S'objective'
p6
I5
sS'query_time'
p7
F15.524356126785278
sS'comp_time'
p8
F0.8902871608734131
sS'exec_cq'
p9
I3
sS'total_cq'
p10
I6
sa(dp11
g6
I4
sg7
F0.23549294471740723
sg8
F0.9044718742370605
sg9
I2
sg10
I2
sasS'total_cqs'
p12
I6
ssI2
(dp13
S'iters'
p14
I1
sS'meta'
p15
(lp16
(dp17
S'objective'
p18
I9
sS'query_time'
p19
F0.9944570064544678
sS'comp_time'
p20
F0.23511981964111328
sS'exec_cq'
p21
I2
sS'total_cq'
p22
I6
sasS'total_cqs'
p23
I6
ssI3
(dp24
S'iters'
p25
I11
sS'meta'
p26
(lp27
(dp28
S'objective'
p29
I415
sS'query_time'
p30
F0.5075390338897705
sS'comp_time'
p31
F0.2176806926727295
sS'exec_cq'
p32
I13
sS'total_cq'
p33
I33
sa(dp34
g29
I330
sg30
F24.861815929412842
sg31
F0.4576077461242676
sg32
I15
sg33
I30
sa(dp35
g29
I299
sg30
F0.004168987274169922
sg31
F0.02033090591430664
sg32
I10
sg33
I27
sa(dp36
g29
I226
sg30
F0.012429952621459961
sg31
F0.1729738712310791
sg32
I12
sg33
I24
sa(dp37
g29
I190
sg30
F0.0031280517578125
sg31
F0.015990495681762695
sg32
I7
sg33
I21
sa(dp38
g29
I158
sg30
F0.009332895278930664
sg31
F0.1472151279449463
sg32
I9
sg33
I18
sa(dp39
g29
I155
sg30
F0.19682002067565918
sg31
F0.020458698272705078
sg32
I5
sg33
I15
sa(dp40
g29
I103
sg30
F0.0031189918518066406
sg31
F0.015230178833007812
sg32
I4
sg33
I14
sa(dp41
g29
I82
sg30
F0.0009620189666748047
sg31
F0.004817008972167969
sg32
I6
sg33
I12
sa(dp42
g29
I69
sg30
F0.0005390644073486328
sg31
F0.0036170482635498047
sg32
I4
sg33
I11
sa(dp43
g29
I24
sg30
F0.0020210742950439453
sg31
F0.01560068130493164
sg32
I2
sg33
I10
sasS'total_cqs'
p44
I33
ssI6
(dp45
S'iters'
p46
I2
sS'meta'
p47
(lp48
(dp49
S'objective'
p50
I1
sS'query_time'
p51
F13.329316139221191
sS'comp_time'
p52
F0.006395816802978516
sS'exec_cq'
p53
I4
sS'total_cq'
p54
I5
sa(dp55
g50
I2
sg51
F0.00026917457580566406
sg52
F0.0014758110046386719
sg53
I2
sg54
I2
sasS'total_cqs'
p56
I5
ssI8
(dp57
S'iters'
p58
I2
sS'meta'
p59
(lp60
(dp61
S'objective'
p62
I19
sS'query_time'
p63
F22.93669104576111
sS'comp_time'
p64
F0.3579261302947998
sS'exec_cq'
p65
I5
sS'total_cq'
p66
I6
sa(dp67
g62
I8
sg63
F0.11008501052856445
sg64
F0.1078181266784668
sg65
I4
sg66
I5
sasS'total_cqs'
p68
I6
ssI9
(dp69
S'iters'
p70
I2
sS'meta'
p71
(lp72
(dp73
S'objective'
p74
I3
sS'query_time'
p75
F10.16523814201355
sS'comp_time'
p76
F0.41405701637268066
sS'exec_cq'
p77
I3
sS'total_cq'
p78
I6
sa(dp79
g74
I0
sg75
F0.04295206069946289
sg76
F0.3780488967895508
sg77
I3
sg78
I3
sasS'total_cqs'
p80
I6
ssI13
(dp81
S'iters'
p82
I1
sS'meta'
p83
(lp84
(dp85
S'objective'
p86
I20
sS'query_time'
p87
F0.016752004623413086
sS'comp_time'
p88
F0.010457038879394531
sS'exec_cq'
p89
I6
sS'total_cq'
p90
I8
sasS'total_cqs'
p91
I8
ssI14
(dp92
S'iters'
p93
I1
sS'meta'
p94
(lp95
(dp96
S'objective'
p97
I5
sS'query_time'
p98
F1.0444669723510742
sS'comp_time'
p99
F0.0065691471099853516
sS'exec_cq'
p100
I5
sS'total_cq'
p101
I5
sasS'total_cqs'
p102
I5
ssI16
(dp103
S'iters'
p104
I2
sS'meta'
p105
(lp106
(dp107
S'objective'
p108
I3
sS'query_time'
p109
F1.4139890670776367
sS'comp_time'
p110
F0.009933233261108398
sS'exec_cq'
p111
I4
sS'total_cq'
p112
I5
sa(dp113
g108
I4
sg109
F0.0011150836944580078
sg110
F0.006410121917724609
sg111
I2
sg112
I2
sasS'total_cqs'
p114
I5
ssI18
(dp115
S'iters'
p116
I2
sS'meta'
p117
(lp118
(dp119
S'objective'
p120
I1
sS'query_time'
p121
F0.21123290061950684
sS'comp_time'
p122
F0.004151821136474609
sS'exec_cq'
p123
I4
sS'total_cq'
p124
I5
sa(dp125
g120
I2
sg121
F2.5987625122070312e-05
sg122
F0.00023102760314941406
sg123
I2
sg124
I3
sasS'total_cqs'
p126
I5
ssI20
(dp127
S'iters'
p128
I5
sS'meta'
p129
(lp130
(dp131
S'objective'
p132
I52
sS'query_time'
p133
F7.204061985015869
sS'comp_time'
p134
F1.0735175609588623
sS'exec_cq'
p135
I6
sS'total_cq'
p136
I12
sa(dp137
g132
I45
sg133
F0.22069883346557617
sg134
F0.888077974319458
sg135
I4
sg136
I10
sa(dp138
g132
I27
sg133
F3.7197389602661133
sg134
F0.3348832130432129
sg135
I4
sg136
I8
sa(dp139
g132
I29
sg133
F0.06555485725402832
sg134
F0.7639987468719482
sg135
I2
sg136
I6
sa(dp140
g132
I11
sg133
F0.1002650260925293
sg134
F0.004452228546142578
sg135
I1
sg136
I5
sasS'total_cqs'
p141
I12
ssI21
(dp142
S'iters'
p143
I4
sS'meta'
p144
(lp145
(dp146
S'objective'
p147
I25
sS'query_time'
p148
F32.85101008415222
sS'comp_time'
p149
F1.8838558197021484
sS'exec_cq'
p150
I4
sS'total_cq'
p151
I14
sa(dp152
g147
I21
sg148
F27.83029294013977
sg149
F0.3111443519592285
sg150
I8
sg151
I10
sa(dp153
g147
I21
sg148
F0.14885687828063965
sg149
F0.06784439086914062
sg150
I4
sg151
I6
sa(dp154
g147
I4
sg148
F0.01294708251953125
sg149
F0.00017404556274414062
sg150
I1
sg151
I4
sasS'total_cqs'
p155
I14
ssI22
(dp156
S'iters'
p157
I1
sS'meta'
p158
(lp159
(dp160
S'objective'
p161
I1
sS'query_time'
p162
F0.003974199295043945
sS'comp_time'
p163
F0.0025835037231445312
sS'exec_cq'
p164
I1
sS'total_cq'
p165
I2
sasS'total_cqs'
p166
I2
ssI25
(dp167
S'iters'
p168
I3
sS'meta'
p169
(lp170
(dp171
S'objective'
p172
I14
sS'query_time'
p173
F45.36670112609863
sS'comp_time'
p174
F5.26697301864624
sS'exec_cq'
p175
I4
sS'total_cq'
p176
I7
sa(dp177
g172
I9
sg173
F0.06167888641357422
sg174
F0.08632421493530273
sg175
I2
sg176
I5
sa(dp178
g172
I1
sg173
F0.16396117210388184
sg174
F0.005894899368286133
sg175
I1
sg176
I4
sasS'total_cqs'
p179
I7
ssI26
(dp180
S'iters'
p181
I4
sS'meta'
p182
(lp183
(dp184
S'objective'
p185
I57
sS'query_time'
p186
F0.2658698558807373
sS'comp_time'
p187
F0.026670455932617188
sS'exec_cq'
p188
I4
sS'total_cq'
p189
I13
sa(dp190
g185
I34
sg186
F4.276158809661865
sg187
F0.018152952194213867
sg188
I2
sg189
I11
sa(dp191
g185
I38
sg186
F18.638378858566284
sg187
F4.678196907043457
sg188
I3
sg189
I9
sa(dp192
g185
I20
sg186
F0.0052089691162109375
sg187
F0.00021505355834960938
sg188
I1
sg189
I8
sasS'total_cqs'
p193
I13
ssI27
(dp194
S'iters'
p195
I1
sS'meta'
p196
(lp197
(dp198
S'objective'
p199
I1
sS'query_time'
p200
F0.23535490036010742
sS'comp_time'
p201
F0.007185697555541992
sS'exec_cq'
p202
I1
sS'total_cq'
p203
I2
sasS'total_cqs'
p204
I2
ssI28
(dp205
S'iters'
p206
I4
sS'meta'
p207
(lp208
(dp209
S'objective'
p210
I63
sS'query_time'
p211
F1.3201730251312256
sS'comp_time'
p212
F0.09810614585876465
sS'exec_cq'
p213
I6
sS'total_cq'
p214
I14
sa(dp215
g210
I48
sg211
F0.002521991729736328
sg212
F0.01941084861755371
sg213
I3
sg214
I11
sa(dp216
g210
I42
sg211
F0.0047647953033447266
sg212
F0.00011181831359863281
sg213
I2
sg214
I9
sa(dp217
g210
I26
sg211
F0.0019059181213378906
sg212
F9.965896606445312e-05
sg213
I1
sg214
I8
sasS'total_cqs'
p218
I14
ssI29
(dp219
S'iters'
p220
I1
sS'meta'
p221
(lp222
(dp223
S'objective'
p224
I1
sS'query_time'
p225
F0.01294398307800293
sS'comp_time'
p226
F0.0017533302307128906
sS'exec_cq'
p227
I2
sS'total_cq'
p228
I2
sasS'total_cqs'
p229
I2
ssI30
(dp230
S'iters'
p231
I1
sS'meta'
p232
(lp233
(dp234
S'objective'
p235
I1
sS'query_time'
p236
F0.3360099792480469
sS'comp_time'
p237
F0.010507822036743164
sS'exec_cq'
p238
I2
sS'total_cq'
p239
I2
sasS'total_cqs'
p240
I2
ssI31
(dp241
S'iters'
p242
I2
sS'meta'
p243
(lp244
(dp245
S'objective'
p246
I13
sS'query_time'
p247
F1.6954340934753418
sS'comp_time'
p248
F0.050414085388183594
sS'exec_cq'
p249
I5
sS'total_cq'
p250
I9
sa(dp251
g246
I2
sg247
F0.00690913200378418
sg248
F0.2643702030181885
sg249
I3
sg250
I3
sasS'total_cqs'
p252
I9
ssI32
(dp253
S'iters'
p254
I3
sS'meta'
p255
(lp256
(dp257
S'objective'
p258
I8
sS'query_time'
p259
F17.55338406562805
sS'comp_time'
p260
F4.776800870895386
sS'exec_cq'
p261
I4
sS'total_cq'
p262
I7
sa(dp263
g258
I2
sg259
F1.0807161331176758
sg260
F0.020819664001464844
sg261
I2
sg262
I4
sa(dp264
g258
I4
sg259
F0.45337796211242676
sg260
F1.547278881072998
sg261
I1
sg262
I2
sasS'total_cqs'
p265
I7
ssI33
(dp266
S'iters'
p267
I1
sS'meta'
p268
(lp269
(dp270
S'objective'
p271
I1
sS'query_time'
p272
F0.03401613235473633
sS'comp_time'
p273
F0.0027489662170410156
sS'exec_cq'
p274
I2
sS'total_cq'
p275
I2
sasS'total_cqs'
p276
I2
ssI35
(dp277
S'iters'
p278
I2
sS'meta'
p279
(lp280
(dp281
S'objective'
p282
I1
sS'query_time'
p283
F15.09579586982727
sS'comp_time'
p284
F0.2960052490234375
sS'exec_cq'
p285
I4
sS'total_cq'
p286
I5
sa(dp287
g282
I2
sg283
F0.08132696151733398
sg284
F0.06505489349365234
sg285
I2
sg286
I3
sasS'total_cqs'
p288
I5
ssI37
(dp289
S'iters'
p290
I2
sS'meta'
p291
(lp292
(dp293
S'objective'
p294
I19
sS'query_time'
p295
F0.7232871055603027
sS'comp_time'
p296
F0.0309751033782959
sS'exec_cq'
p297
I4
sS'total_cq'
p298
I10
sa(dp299
g294
I2
sg295
F0.005049943923950195
sg296
F0.02065896987915039
sg297
I2
sg298
I2
sasS'total_cqs'
p300
I10
ssI40
(dp301
S'iters'
p302
I1
sS'meta'
p303
(lp304
(dp305
S'objective'
p306
I1
sS'query_time'
p307
F0.003287076950073242
sS'comp_time'
p308
F0.0012903213500976562
sS'exec_cq'
p309
I1
sS'total_cq'
p310
I2
sasS'total_cqs'
p311
I2
ssI41
(dp312
S'iters'
p313
I2
sS'meta'
p314
(lp315
(dp316
S'objective'
p317
I1
sS'query_time'
p318
F1.1292309761047363
sS'comp_time'
p319
F0.00810098648071289
sS'exec_cq'
p320
I2
sS'total_cq'
p321
I6
sa(dp322
g317
I2
sg318
F0.0008840560913085938
sg319
F0.004561424255371094
sg320
I2
sg321
I2
sasS'total_cqs'
p323
I6
ssI42
(dp324
S'iters'
p325
I1
sS'meta'
p326
(lp327
(dp328
S'objective'
p329
I1
sS'query_time'
p330
F0.013362884521484375
sS'comp_time'
p331
F0.001416921615600586
sS'exec_cq'
p332
I1
sS'total_cq'
p333
I2
sasS'total_cqs'
p334
I2
ssI44
(dp335
S'iters'
p336
I3
sS'meta'
p337
(lp338
(dp339
S'objective'
p340
I3
sS'query_time'
p341
F0.34340500831604004
sS'comp_time'
p342
F0.12479686737060547
sS'exec_cq'
p343
I2
sS'total_cq'
p344
I5
sa(dp345
g340
I3
sg341
F1.0105109214782715
sg342
F0.21868467330932617
sg343
I2
sg344
I3
sa(dp346
g340
I4
sg341
F0.0185849666595459
sg342
F0.22190594673156738
sg343
I1
sg344
I2
sasS'total_cqs'
p347
I5
ssI45
(dp348
S'iters'
p349
I2
sS'meta'
p350
(lp351
(dp352
S'objective'
p353
I1
sS'query_time'
p354
F0.033753156661987305
sS'comp_time'
p355
F0.0029420852661132812
sS'exec_cq'
p356
I3
sS'total_cq'
p357
I5
sa(dp358
g353
I2
sg354
F0.0001609325408935547
sg355
F0.0006558895111083984
sg356
I2
sg357
I2
sasS'total_cqs'
p359
I5
ssI48
(dp360
S'iters'
p361
I1
sS'meta'
p362
(lp363
(dp364
S'objective'
p365
I1
sS'query_time'
p366
F0.17345213890075684
sS'comp_time'
p367
F0.004979133605957031
sS'exec_cq'
p368
I2
sS'total_cq'
p369
I2
sasS'total_cqs'
p370
I2
ssI49
(dp371
S'iters'
p372
I2
sS'meta'
p373
(lp374
(dp375
S'objective'
p376
I1
sS'query_time'
p377
F0.27516794204711914
sS'comp_time'
p378
F0.005849599838256836
sS'exec_cq'
p379
I4
sS'total_cq'
p380
I5
sa(dp381
g376
I2
sg377
F0.0002579689025878906
sg378
F0.0018188953399658203
sg379
I2
sg380
I2
sasS'total_cqs'
p382
I5
ssI50
(dp383
S'iters'
p384
I1
sS'meta'
p385
(lp386
(dp387
S'objective'
p388
I5
sS'query_time'
p389
F0.7561919689178467
sS'comp_time'
p390
F0.04933333396911621
sS'exec_cq'
p391
I5
sS'total_cq'
p392
I5
sasS'total_cqs'
p393
I5
ssI55
(dp394
S'iters'
p395
I1
sS'meta'
p396
(lp397
(dp398
S'objective'
p399
I1
sS'query_time'
p400
F24.76106095314026
sS'comp_time'
p401
F2.8299572467803955
sS'exec_cq'
p402
I2
sS'total_cq'
p403
I2
sasS'total_cqs'
p404
I2
ssI57
(dp405
S'iters'
p406
I1
sS'meta'
p407
(lp408
(dp409
S'objective'
p410
I0
sS'query_time'
p411
F12.28166389465332
sS'comp_time'
p412
F2.323301076889038
sS'exec_cq'
p413
I2
sS'total_cq'
p414
I3
sasS'total_cqs'
p415
I3
ssI116
(dp416
S'iters'
p417
I3
sS'meta'
p418
(lp419
(dp420
S'objective'
p421
I159
sS'query_time'
p422
F4.058595895767212
sS'comp_time'
p423
F0.7455332279205322
sS'exec_cq'
p424
I9
sS'total_cq'
p425
I21
sa(dp426
g421
I127
sg422
F0.5824487209320068
sg423
F0.004182338714599609
sg424
I14
sg425
I19
sa(dp427
g421
I8
sg422
F0.0008530616760253906
sg423
F0.0033919811248779297
sg424
I2
sg425
I2
sasS'total_cqs'
p428
I21
ssI117
(dp429
S'iters'
p430
I2
sS'meta'
p431
(lp432
(dp433
S'objective'
p434
I13
sS'query_time'
p435
F0.009869098663330078
sS'comp_time'
p436
F0.0015456676483154297
sS'exec_cq'
p437
I3
sS'total_cq'
p438
I5
sa(dp439
g434
I4
sg435
F0.0026330947875976562
sg436
F8.988380432128906e-05
sg437
I3
sg438
I4
sasS'total_cqs'
p440
I5
ss.