(dp0
I1
(dp1
S'iters'
p2
I2
sS'meta'
p3
(lp4
(dp5
S'objective'
p6
I2
sS'query_time'
p7
F65.46520400047302
sS'total_cq'
p8
I6
sS'comp_time'
p9
F2.331965923309326
sa(dp10
g6
I0
sg7
F0.06522703170776367
sg8
I2
sg9
F2.725517749786377
sasS'total_cqs'
p11
I6
ssI2
(dp12
g2
I2
sg3
(lp13
(dp14
g6
I2
sg7
F0.6171340942382812
sg8
I6
sg9
F2.7386748790740967
sa(dp15
g6
I0
sg7
F0.010180950164794922
sg8
I2
sg9
F2.7003421783447266
sasg11
I6
ssI3
(dp16
g2
I12
sg3
(lp17
(dp18
g6
I27
sg7
F16.385611057281494
sg8
I33
sg9
F3.5995190143585205
sa(dp19
g6
I24
sg7
F0.0336611270904541
sg8
I30
sg9
F3.2486910820007324
sa(dp20
g6
I21
sg7
F0.033867835998535156
sg8
I27
sg9
F3.377692937850952
sa(dp21
g6
I18
sg7
F0.034861087799072266
sg8
I24
sg9
F3.3414759635925293
sa(dp22
g6
I15
sg7
F0.03320598602294922
sg8
I21
sg9
F3.200946807861328
sa(dp23
g6
I12
sg7
F0.03240489959716797
sg8
I18
sg9
F3.4154181480407715
sa(dp24
g6
I9
sg7
F0.008462905883789062
sg8
I15
sg9
F3.3255410194396973
sa(dp25
g6
I8
sg7
F0.00803685188293457
sg8
I12
sg9
F3.191840887069702
sa(dp26
g6
I8
sg7
F0.0076258182525634766
sg8
I10
sg9
F3.6157100200653076
sa(dp27
g6
I7
sg7
F0.008414030075073242
sg8
I9
sg9
F3.5877866744995117
sa(dp28
g6
I6
sg7
F0.004205942153930664
sg8
I8
sg9
F3.579806089401245
sa(dp29
g6
I5
sg7
F0.004272937774658203
sg8
I7
sg9
F3.2956371307373047
sasg11
I33
ssI4
(dp30
g2
I0
sg3
(lp31
sg11
I1
ssI5
(dp32
g2
I0
sg3
(lp33
sg11
I1
ssI6
(dp34
g2
I2
sg3
(lp35
(dp36
g6
I1
sg7
F9.042115926742554
sg8
I5
sg9
F3.422025203704834
sa(dp37
g6
I0
sg7
F0.0016160011291503906
sg8
I2
sg9
F3.726170063018799
sasg11
I5
ssI7
(dp38
g2
I0
sg3
(lp39
sg11
I1
ssI8
(dp40
g2
I3
sg3
(lp41
(dp42
g6
I0
sg7
F102.97793078422546
sg8
I6
sg9
F3.997208833694458
sa(dp43
g6
I1
sg7
F0.032441139221191406
sg8
I3
sg9
F3.729137897491455
sa(dp44
g6
I0
sg7
F0.02686595916748047
sg8
I2
sg9
F4.154285192489624
sasg11
I6
ssI9
(dp45
g2
I3
sg3
(lp46
(dp47
g6
I0
sg7
F45.523112058639526
sg8
I6
sg9
F10.691899299621582
sa(dp48
g6
I1
sg7
F0.06254696846008301
sg8
I3
sg9
F9.511706113815308
sa(dp49
g6
I0
sg7
F0.007903814315795898
sg8
I2
sg9
F10.714866876602173
sasg11
I6
ssI10
(dp50
g2
I0
sg3
(lp51
sg11
I1
ssI11
(dp52
g2
I0
sg3
(lp53
sg11
I1
ssI12
(dp54
g2
I0
sg3
(lp55
sg11
I1
ssI13
(dp56
g2
I4
sg3
(lp57
(dp58
g6
I0
sg7
F0.015903949737548828
sg8
I8
sg9
F10.080005884170532
sa(dp59
g6
I2
sg7
F0.0016388893127441406
sg8
I4
sg9
F9.706583976745605
sa(dp60
g6
I1
sg7
F0.0013289451599121094
sg8
I3
sg9
F10.21126103401184
sa(dp61
g6
I0
sg7
F0.001287221908569336
sg8
I2
sg9
F9.619202852249146
sasg11
I8
ssI14
(dp62
g2
I3
sg3
(lp63
(dp64
g6
I1
sg7
F0.5157310962677002
sg8
I5
sg9
F9.578320264816284
sa(dp65
g6
I1
sg7
F0.0022110939025878906
sg8
I3
sg9
F9.797409057617188
sa(dp66
g6
I0
sg7
F0.0009560585021972656
sg8
I2
sg9
F9.65781021118164
sasg11
I5
ssI16
(dp67
g2
I2
sg3
(lp68
(dp69
g6
I1
sg7
F0.6663658618927002
sg8
I5
sg9
F9.712209939956665
sa(dp70
g6
I1
sg7
F0.0030748844146728516
sg8
I3
sg9
F10.244457244873047
sasg11
I5
ssI17
(dp71
g2
I0
sg3
(lp72
sg11
I1
ssI18
(dp73
g2
I2
sg3
(lp74
(dp75
g6
I1
sg7
F0.11446404457092285
sg8
I5
sg9
F10.336780071258545
sa(dp76
g6
I0
sg7
F0.0013399124145507812
sg8
I2
sg9
F10.338682174682617
sasg11
I5
ssI19
(dp77
g2
I0
sg3
(lp78
sg11
I1
ssI20
(dp79
g2
I6
sg3
(lp80
(dp81
g6
I4
sg7
F9.15801191329956
sg8
I12
sg9
F12.779441833496094
sa(dp82
g6
I4
sg7
F0.13247108459472656
sg8
I8
sg9
F12.200814962387085
sa(dp83
g6
I2
sg7
F0.06447505950927734
sg8
I6
sg9
F12.392162084579468
sa(dp84
g6
I2
sg7
F0.07408285140991211
sg8
I4
sg9
F12.669763803482056
sa(dp85
g6
I1
sg7
F0.0446012020111084
sg8
I3
sg9
F12.444051027297974
sa(dp86
g6
I0
sg7
F0.04588818550109863
sg8
I2
sg9
F12.591162919998169
sasg11
I12
ssI21
(dp87
g2
I5
sg3
(lp88
(dp89
g6
I6
sg7
F131.49433994293213
sg8
I14
sg9
F28.885091066360474
sa(dp90
g6
I2
sg7
F0.9851810932159424
sg8
I10
sg9
F29.186477184295654
sa(dp91
g6
I0
sg7
F0.40973496437072754
sg8
I6
sg9
F28.354105234146118
sa(dp92
g6
I1
sg7
F0.021007061004638672
sg8
I3
sg9
F28.232558965682983
sa(dp93
g6
I0
sg7
F0.007831811904907227
sg8
I2
sg9
F28.196135997772217
sasg11
I14
ssI22
(dp94
g2
I1
sg3
(lp95
(dp96
g6
I0
sg7
F0.003535032272338867
sg8
I2
sg9
F27.212249994277954
sasg11
I2
ssI23
(dp97
g2
I0
sg3
(lp98
sg11
I1
ssI24
(dp99
g2
I0
sg3
(lp100
sg11
I1
ssI25
(dp101
g2
I3
sg3
(lp102
(dp103
g6
I1
sg7
F84.92612314224243
sg8
I7
sg9
F44.23844504356384
sa(dp104
g6
I1
sg7
F0.03392291069030762
sg8
I3
sg9
F44.888962745666504
sa(dp105
g6
I0
sg7
F0.021646976470947266
sg8
I2
sg9
F45.18760585784912
sasg11
I7
ssI26
(dp106
g2
I5
sg3
(lp107
(dp108
g6
I5
sg7
F20.81800889968872
sg8
I13
sg9
F52.708709955215454
sa(dp109
g6
I3
sg7
F0.004954099655151367
sg8
I9
sg9
F53.569674015045166
sa(dp110
g6
I0
sg7
F0.003994941711425781
sg8
I6
sg9
F53.18786072731018
sa(dp111
g6
I1
sg7
F0.001277923583984375
sg8
I3
sg9
F52.35202598571777
sa(dp112
g6
I0
sg7
F0.0011899471282958984
sg8
I2
sg9
F48.66116285324097
sasg11
I13
ssI27
(dp113
g2
I1
sg3
(lp114
(dp115
g6
I0
sg7
F0.11442804336547852
sg8
I2
sg9
F53.88577914237976
sasg11
I2
ssI28
(dp116
g2
I5
sg3
(lp117
(dp118
g6
I6
sg7
F0.9176828861236572
sg8
I14
sg9
F53.38206100463867
sa(dp119
g6
I2
sg7
F0.00967717170715332
sg8
I10
sg9
F52.651493072509766
sa(dp120
g6
I0
sg7
F0.003381013870239258
sg8
I6
sg9
F53.59932208061218
sa(dp121
g6
I1
sg7
F0.0012559890747070312
sg8
I3
sg9
F48.746500968933105
sa(dp122
g6
I0
sg7
F0.0011959075927734375
sg8
I2
sg9
F56.955952882766724
sasg11
I14
ssI29
(dp123
g2
I1
sg3
(lp124
(dp125
g6
I0
sg7
F0.007576942443847656
sg8
I2
sg9
F55.85261511802673
sasg11
I2
ssI30
(dp126
g2
I1
sg3
(lp127
(dp128
g6
I0
sg7
F0.16466403007507324
sg8
I2
sg9
F48.73001527786255
sasg11
I2
ssI31
(dp129
g2
I3
sg3
(lp130
(dp131
g6
I1
sg7
F3.2264251708984375
sg8
I9
sg9
F55.09092998504639
sa(dp132
g6
I0
sg7
F0.007800102233886719
sg8
I4
sg9
F51.00700902938843
sa(dp133
g6
I0
sg7
F0.00786590576171875
sg8
I2
sg9
F52.564777135849
sasg11
I9
ssI32
(dp134
g2
I3
sg3
(lp135
(dp136
g6
I1
sg7
F15.645290851593018
sg8
I7
sg9
F59.58722805976868
sa(dp137
g6
I1
sg7
F0.009141206741333008
sg8
I3
sg9
F52.7262167930603
sa(dp138
g6
I0
sg7
F0.006791114807128906
sg8
I2
sg9
F56.34423613548279
sasg11
I7
ssI33
(dp139
g2
I1
sg3
(lp140
(dp141
g6
I0
sg7
F0.03225302696228027
sg8
I2
sg9
F57.19701313972473
sasg11
I2
ssI34
(dp142
g2
I0
sg3
(lp143
sg11
I1
ssI35
(dp144
g2
I2
sg3
(lp145
(dp146
g6
I1
sg7
F11.26994013786316
sg8
I5
sg9
F54.37372016906738
sa(dp147
g6
I1
sg7
F0.03094005584716797
sg8
I3
sg9
F57.45008087158203
sasg11
I5
ssI37
(dp148
g2
I4
sg3
(lp149
(dp150
g6
I2
sg7
F1.6717519760131836
sg8
I10
sg9
F55.143162965774536
sa(dp151
g6
I0
sg7
F0.009465932846069336
sg8
I6
sg9
F58.83341598510742
sa(dp152
g6
I1
sg7
F0.0027570724487304688
sg8
I3
sg9
F54.0294828414917
sa(dp153
g6
I0
sg7
F0.004060029983520508
sg8
I2
sg9
F55.793566942214966
sasg11
I10
ssI38
(dp154
g2
I0
sg3
(lp155
sg11
I1
ssI39
(dp156
g2
I0
sg3
(lp157
sg11
I1
ssI40
(dp158
g2
I1
sg3
(lp159
(dp160
g6
I0
sg7
F13.983717918395996
sg8
I2
sg9
F65.58889412879944
sasg11
I2
ssI41
(dp161
g2
I2
sg3
(lp162
(dp163
g6
I0
sg7
F8.725481033325195
sg8
I6
sg9
F62.01544785499573
sa(dp164
g6
I1
sg7
F0.0335390567779541
sg8
I3
sg9
F63.008447885513306
sasg11
I6
ssI42
(dp165
g2
I1
sg3
(lp166
(dp167
g6
I0
sg7
F14.282148122787476
sg8
I2
sg9
F68.63701105117798
sasg11
I2
ssI43
(dp168
g2
I0
sg3
(lp169
sg11
I1
ssI44
(dp170
g2
I3
sg3
(lp171
(dp172
g6
I1
sg7
F1.0687978267669678
sg8
I5
sg9
F63.15048313140869
sa(dp173
g6
I1
sg7
F0.021999120712280273
sg8
I3
sg9
F62.487550258636475
sa(dp174
g6
I0
sg7
F0.0011398792266845703
sg8
I2
sg9
F65.452810049057
sasg11
I5
ssI45
(dp175
g2
I3
sg3
(lp176
(dp177
g6
I1
sg7
F0.03211092948913574
sg8
I5
sg9
F61.66300821304321
sa(dp178
g6
I1
sg7
F0.0013310909271240234
sg8
I3
sg9
F64.81749606132507
sa(dp179
g6
I0
sg7
F0.0012691020965576172
sg8
I2
sg9
F69.63319110870361
sasg11
I5
ssI46
(dp180
g2
I0
sg3
(lp181
sg11
I1
ssI47
(dp182
g2
I0
sg3
(lp183
sg11
I1
ssI48
(dp184
g2
I1
sg3
(lp185
(dp186
g6
I0
sg7
F0.1143949031829834
sg8
I2
sg9
F68.61463785171509
sasg11
I2
ssI49
(dp187
g2
I3
sg3
(lp188
(dp189
g6
I1
sg7
F0.1652679443359375
sg8
I5
sg9
F61.0457718372345
sa(dp190
g6
I1
sg7
F0.0012769699096679688
sg8
I3
sg9
F65.55820798873901
sa(dp191
g6
I0
sg7
F0.0011539459228515625
sg8
I2
sg9
F67.87307381629944
sasg11
I5
ssI50
(dp192
g2
I3
sg3
(lp193
(dp194
g6
I1
sg7
F0.4655001163482666
sg8
I5
sg9
F65.94852495193481
sa(dp195
g6
I1
sg7
F0.0011560916900634766
sg8
I3
sg9
F65.13887405395508
sa(dp196
g6
I0
sg7
F0.0011332035064697266
sg8
I2
sg9
F66.53022384643555
sasg11
I5
ssI51
(dp197
g2
I0
sg3
(lp198
sg11
I1
ssI52
(dp199
g2
I0
sg3
(lp200
sg11
I1
ssI53
(dp201
g2
I0
sg3
(lp202
sg11
I1
ssI55
(dp203
g2
I1
sg3
(lp204
(dp205
g6
I0
sg7
F22.823013067245483
sg8
I2
sg9
F63.84958100318909
sasg11
I2
ssI56
(dp206
g2
I0
sg3
(lp207
sg11
I1
ssI57
(dp208
g2
I2
sg3
(lp209
(dp210
g6
I1
sg7
F11.326437950134277
sg8
I3
sg9
F71.80496788024902
sa(dp211
g6
I0
sg7
F0.1727302074432373
sg8
I2
sg9
F69.0265200138092
sasg11
I3
ssI108
(dp212
g2
I0
sg3
(lp213
sg11
I1
ssI109
(dp214
g2
I0
sg3
(lp215
sg11
I1
ssI116
(dp216
g2
I4
sg3
(lp217
(dp218
g6
I13
sg7
F3.5294511318206787
sg8
I21
sg9
F64.97518515586853
sa(dp219
g6
I9
sg7
F0.05203080177307129
sg8
I17
sg9
F69.82275009155273
sa(dp220
g6
I7
sg7
F0.001981019973754883
sg8
I13
sg9
F71.3712170124054
sa(dp221
g6
I1
sg7
F0.0019099712371826172
sg8
I3
sg9
F66.45273089408875
sasg11
I21
ssI117
(dp222
g2
I3
sg3
(lp223
(dp224
g6
I1
sg7
F0.007682085037231445
sg8
I5
sg9
F72.29597306251526
sa(dp225
g6
I1
sg7
F0.0010170936584472656
sg8
I3
sg9
F76.9585530757904
sa(dp226
g6
I0
sg7
F0.0012669563293457031
sg8
I2
sg9
F76.22639513015747
sasg11
I5
ssI118
(dp227
g2
I0
sg3
(lp228
sg11
I1
ssI122
(dp229
g2
I0
sg3
(lp230
sg11
I1
ss.