(dp0
I1
(dp1
S'iters'
p2
I2
sS'meta'
p3
(lp4
(dp5
S'objective'
p6
I1
sS'query_time'
p7
F24.612611055374146
sS'comp_time'
p8
F1.2974157333374023
sS'exec_cq'
p9
I6
sS'total_cq'
p10
I6
sa(dp11
g6
I2
sg7
F0.010196924209594727
sg8
F236.55590415000916
sg9
I2
sg10
I2
sasS'total_cqs'
p12
I6
ssI2
(dp13
S'iters'
p14
I1
sS'meta'
p15
(lp16
(dp17
S'objective'
p18
I9
sS'query_time'
p19
F0.8526349067687988
sS'comp_time'
p20
F0.09503674507141113
sS'exec_cq'
p21
I6
sS'total_cq'
p22
I6
sasS'total_cqs'
p23
I6
ssI3
(dp24
S'iters'
p25
I11
sS'meta'
p26
(lp27
(dp28
S'objective'
p29
I423
sS'query_time'
p30
F26.477811098098755
sS'comp_time'
p31
F0.2557969093322754
sS'exec_cq'
p32
I33
sS'total_cq'
p33
I33
sa(dp34
g29
I374
sg30
F0.08611416816711426
sg31
F0.22252488136291504
sg32
I30
sg33
I30
sa(dp35
g29
I319
sg30
F0.032692909240722656
sg31
F0.2792360782623291
sg32
I27
sg33
I27
sa(dp36
g29
I274
sg30
F0.07274889945983887
sg31
F0.21467185020446777
sg32
I25
sg33
I25
sa(dp37
g29
I241
sg30
F0.029353857040405273
sg31
F0.25241708755493164
sg32
I22
sg33
I22
sa(dp38
g29
I205
sg30
F0.0665290355682373
sg31
F0.20574688911437988
sg32
I19
sg33
I19
sa(dp39
g29
I180
sg30
F0.015992164611816406
sg31
F0.11799788475036621
sg32
I16
sg33
I16
sa(dp40
g29
I150
sg30
F0.006815195083618164
sg31
F0.060015201568603516
sg32
I13
sg33
I13
sa(dp41
g29
I121
sg30
F0.0059049129486083984
sg31
F0.030697107315063477
sg32
I12
sg33
I12
sa(dp42
g29
I97
sg30
F0.00604701042175293
sg31
F0.05279397964477539
sg32
I11
sg33
I11
sa(dp43
g29
I72
sg30
F0.006768941879272461
sg31
F0.03029608726501465
sg32
I10
sg33
I10
sasS'total_cqs'
p44
I33
ssI4
(dp45
S'iters'
p46
I0
sS'meta'
p47
(lp48
sS'total_cqs'
p49
I1
ssI5
(dp50
S'iters'
p51
I0
sS'meta'
p52
(lp53
sS'total_cqs'
p54
I1
ssI6
(dp55
S'iters'
p56
I2
sS'meta'
p57
(lp58
(dp59
S'objective'
p60
I1
sS'query_time'
p61
F15.269660949707031
sS'comp_time'
p62
F0.0035829544067382812
sS'exec_cq'
p63
I5
sS'total_cq'
p64
I5
sa(dp65
g60
I2
sg61
F0.0006468296051025391
sg62
F0.0024399757385253906
sg63
I3
sg64
I3
sasS'total_cqs'
p66
I5
ssI7
(dp67
S'iters'
p68
I0
sS'meta'
p69
(lp70
sS'total_cqs'
p71
I1
ssI8
(dp72
S'iters'
p73
I2
sS'meta'
p74
(lp75
(dp76
S'objective'
p77
I15
sS'query_time'
p78
F22.927336931228638
sS'comp_time'
p79
F0.28377580642700195
sS'exec_cq'
p80
I6
sS'total_cq'
p81
I6
sa(dp82
g77
I6
sg78
F0.08830904960632324
sg79
F0.0884559154510498
sg80
I5
sg81
I5
sasS'total_cqs'
p83
I6
ssI9
(dp84
S'iters'
p85
I2
sS'meta'
p86
(lp87
(dp88
S'objective'
p89
I1
sS'query_time'
p90
F52.134227991104126
sS'comp_time'
p91
F4.162012100219727
sS'exec_cq'
p92
I6
sS'total_cq'
p93
I6
sa(dp94
g89
I2
sg90
F0.0460200309753418
sg91
F0.36726808547973633
sg92
I2
sg93
I2
sasS'total_cqs'
p95
I6
ssI10
(dp96
S'iters'
p97
I0
sS'meta'
p98
(lp99
sS'total_cqs'
p100
I1
ssI11
(dp101
S'iters'
p102
I0
sS'meta'
p103
(lp104
sS'total_cqs'
p105
I1
ssI12
(dp106
S'iters'
p107
I0
sS'meta'
p108
(lp109
sS'total_cqs'
p110
I1
ssI13
(dp111
S'iters'
p112
I1
sS'meta'
p113
(lp114
(dp115
S'objective'
p116
I22
sS'query_time'
p117
F0.029577016830444336
sS'comp_time'
p118
F0.00015306472778320312
sS'exec_cq'
p119
I8
sS'total_cq'
p120
I8
sasS'total_cqs'
p121
I8
ssI14
(dp122
S'iters'
p123
I1
sS'meta'
p124
(lp125
(dp126
S'objective'
p127
I5
sS'query_time'
p128
F1.1375629901885986
sS'comp_time'
p129
F0.0074901580810546875
sS'exec_cq'
p130
I5
sS'total_cq'
p131
I5
sasS'total_cqs'
p132
I5
ssI16
(dp133
S'iters'
p134
I2
sS'meta'
p135
(lp136
(dp137
S'objective'
p138
I1
sS'query_time'
p139
F1.466338872909546
sS'comp_time'
p140
F0.006829738616943359
sS'exec_cq'
p141
I5
sS'total_cq'
p142
I5
sa(dp143
g138
I3
sg139
F0.0012350082397460938
sg140
F0.005604982376098633
sg141
I2
sg142
I2
sasS'total_cqs'
p144
I5
ssI17
(dp145
S'iters'
p146
I0
sS'meta'
p147
(lp148
sS'total_cqs'
p149
I1
ssI18
(dp150
S'iters'
p151
I2
sS'meta'
p152
(lp153
(dp154
S'objective'
p155
I1
sS'query_time'
p156
F0.30455780029296875
sS'comp_time'
p157
F0.0002918243408203125
sS'exec_cq'
p158
I5
sS'total_cq'
p159
I5
sa(dp160
g155
I2
sg156
F2.5987625122070312e-05
sg157
F9.298324584960938e-05
sg158
I2
sg159
I2
sasS'total_cqs'
p161
I5
ssI19
(dp162
S'iters'
p163
I0
sS'meta'
p164
(lp165
sS'total_cqs'
p166
I1
ssI20
(dp167
S'iters'
p168
I3
sS'meta'
p169
(lp170
(dp171
S'objective'
p172
I36
sS'query_time'
p173
F11.381843090057373
sS'comp_time'
p174
F1.220932960510254
sS'exec_cq'
p175
I12
sS'total_cq'
p176
I12
sa(dp177
g172
I35
sg173
F0.1828289031982422
sg174
F0.7198810577392578
sg175
I10
sg176
I10
sa(dp178
g172
I26
sg173
F0.15392303466796875
sg174
F0.6063492298126221
sg175
I8
sg176
I8
sasS'total_cqs'
p179
I12
ssI21
(dp180
S'iters'
p181
I2
sS'meta'
p182
(lp183
(dp184
S'objective'
p185
I67
sS'query_time'
p186
F28.182183027267456
sS'comp_time'
p187
F0.2408280372619629
sS'exec_cq'
p188
I14
sS'total_cq'
p189
I14
sa(dp190
g185
I5
sg186
F0.005327939987182617
sg187
F0.019409894943237305
sg188
I2
sg189
I2
sasS'total_cqs'
p191
I14
ssI22
(dp192
S'iters'
p193
I1
sS'meta'
p194
(lp195
(dp196
S'objective'
p197
I1
sS'query_time'
p198
F0.008345842361450195
sS'comp_time'
p199
F0.00011801719665527344
sS'exec_cq'
p200
I2
sS'total_cq'
p201
I2
sasS'total_cqs'
p202
I2
ssI23
(dp203
S'iters'
p204
I0
sS'meta'
p205
(lp206
sS'total_cqs'
p207
I1
ssI24
(dp208
S'iters'
p209
I0
sS'meta'
p210
(lp211
sS'total_cqs'
p212
I1
ssI25
(dp213
S'iters'
p214
I3
sS'meta'
p215
(lp216
(dp217
S'objective'
p218
I4
sS'query_time'
p219
F86.35021114349365
sS'comp_time'
p220
F9.98901891708374
sS'exec_cq'
p221
I7
sS'total_cq'
p222
I7
sa(dp223
g218
I0
sg219
F0.2432420253753662
sg220
F2.4116368293762207
sg221
I4
sg222
I4
sa(dp224
g218
I6
sg219
F0.5005910396575928
sg220
F1.7084150314331055
sg221
I2
sg222
I2
sasS'total_cqs'
p225
I7
ssI26
(dp226
S'iters'
p227
I4
sS'meta'
p228
(lp229
(dp230
S'objective'
p231
I59
sS'query_time'
p232
F24.612122058868408
sS'comp_time'
p233
F3.117471933364868
sS'exec_cq'
p234
I13
sS'total_cq'
p235
I13
sa(dp236
g231
I49
sg232
F0.7428929805755615
sg233
F3.1295993328094482
sg234
I11
sg235
I11
sa(dp237
g231
I38
sg232
F0.7520508766174316
sg233
F2.923220157623291
sg234
I10
sg235
I10
sa(dp238
g231
I28
sg232
F0.8238098621368408
sg233
F2.9322891235351562
sg234
I8
sg235
I8
sasS'total_cqs'
p239
I13
ssI27
(dp240
S'iters'
p241
I1
sS'meta'
p242
(lp243
(dp244
S'objective'
p245
I1
sS'query_time'
p246
F0.12665891647338867
sS'comp_time'
p247
F0.0042607784271240234
sS'exec_cq'
p248
I2
sS'total_cq'
p249
I2
sasS'total_cqs'
p250
I2
ssI28
(dp251
S'iters'
p252
I5
sS'meta'
p253
(lp254
(dp255
S'objective'
p256
I51
sS'query_time'
p257
F1.6961770057678223
sS'comp_time'
p258
F0.02744293212890625
sS'exec_cq'
p259
I14
sS'total_cq'
p260
I14
sa(dp261
g256
I30
sg257
F0.00666499137878418
sg258
F0.026034116744995117
sg259
I11
sg260
I11
sa(dp262
g256
I26
sg257
F0.020088911056518555
sg258
F0.018291950225830078
sg259
I7
sg260
I7
sa(dp263
g256
I14
sg257
F0.0034799575805664062
sg258
F0.01640796661376953
sg259
I5
sg260
I5
sa(dp264
g256
I3
sg257
F0.002816915512084961
sg258
F0.014664173126220703
sg259
I4
sg260
I4
sasS'total_cqs'
p265
I14
ssI29
(dp266
S'iters'
p267
I1
sS'meta'
p268
(lp269
(dp270
S'objective'
p271
I1
sS'query_time'
p272
F0.00914907455444336
sS'comp_time'
p273
F0.00011897087097167969
sS'exec_cq'
p274
I2
sS'total_cq'
p275
I2
sasS'total_cqs'
p276
I2
ssI30
(dp277
S'iters'
p278
I1
sS'meta'
p279
(lp280
(dp281
S'objective'
p282
I1
sS'query_time'
p283
F0.32779884338378906
sS'comp_time'
p284
F0.006245136260986328
sS'exec_cq'
p285
I2
sS'total_cq'
p286
I2
sasS'total_cqs'
p287
I2
ssI31
(dp288
S'iters'
p289
I3
sS'meta'
p290
(lp291
(dp292
S'objective'
p293
I13
sS'query_time'
p294
F5.835209131240845
sS'comp_time'
p295
F0.17118120193481445
sS'exec_cq'
p296
I9
sS'total_cq'
p297
I9
sa(dp298
g293
I7
sg294
F0.007797956466674805
sg295
F0.03361988067626953
sg296
I7
sg297
I7
sa(dp299
g293
I5
sg294
F0.00644683837890625
sg295
F0.0627892017364502
sg296
I3
sg297
I3
sasS'total_cqs'
p300
I9
ssI32
(dp301
S'iters'
p302
I3
sS'meta'
p303
(lp304
(dp305
S'objective'
p306
I6
sS'query_time'
p307
F19.38827896118164
sS'comp_time'
p308
F2.837196111679077
sS'exec_cq'
p309
I7
sS'total_cq'
p310
I7
sa(dp311
g306
I1
sg307
F0.29207897186279297
sg308
F0.9984469413757324
sg309
I4
sg310
I4
sa(dp312
g306
I6
sg307
F0.27678990364074707
sg308
F1.0045371055603027
sg309
I2
sg310
I2
sasS'total_cqs'
p313
I7
ssI33
(dp314
S'iters'
p315
I1
sS'meta'
p316
(lp317
(dp318
S'objective'
p319
I1
sS'query_time'
p320
F0.04390597343444824
sS'comp_time'
p321
F0.00013327598571777344
sS'exec_cq'
p322
I2
sS'total_cq'
p323
I2
sasS'total_cqs'
p324
I2
ssI34
(dp325
S'iters'
p326
I0
sS'meta'
p327
(lp328
sS'total_cqs'
p329
I1
ssI35
(dp330
S'iters'
p331
I2
sS'meta'
p332
(lp333
(dp334
S'objective'
p335
I1
sS'query_time'
p336
F16.302809953689575
sS'comp_time'
p337
F0.23051905632019043
sS'exec_cq'
p338
I5
sS'total_cq'
p339
I5
sa(dp340
g335
I2
sg336
F0.02631688117980957
sg337
F0.13035297393798828
sg338
I2
sg339
I2
sasS'total_cqs'
p341
I5
ssI37
(dp342
S'iters'
p343
I3
sS'meta'
p344
(lp345
(dp346
S'objective'
p347
I3
sS'query_time'
p348
F2.382138967514038
sS'comp_time'
p349
F0.12174582481384277
sS'exec_cq'
p350
I10
sS'total_cq'
p351
I10
sa(dp352
g347
I6
sg348
F0.029309988021850586
sg349
F0.035829782485961914
sg350
I3
sg351
I3
sa(dp353
g347
I2
sg348
F0.0064160823822021484
sg349
F0.02826714515686035
sg350
I2
sg351
I2
sasS'total_cqs'
p354
I10
ssI38
(dp355
S'iters'
p356
I0
sS'meta'
p357
(lp358
sS'total_cqs'
p359
I1
ssI39
(dp360
S'iters'
p361
I0
sS'meta'
p362
(lp363
sS'total_cqs'
p364
I1
ssI40
(dp365
S'iters'
p366
I1
sS'meta'
p367
(lp368
(dp369
S'objective'
p370
I1
sS'query_time'
p371
F17.875144004821777
sS'comp_time'
p372
F2.5426230430603027
sS'exec_cq'
p373
I2
sS'total_cq'
p374
I2
sasS'total_cqs'
p375
I2
ssI41
(dp376
S'iters'
p377
I2
sS'meta'
p378
(lp379
(dp380
S'objective'
p381
I1
sS'query_time'
p382
F12.972736120223999
sS'comp_time'
p383
F1.14288330078125
sS'exec_cq'
p384
I6
sS'total_cq'
p385
I6
sa(dp386
g381
I2
sg382
F0.0009438991546630859
sg383
F0.003146648406982422
sg384
I2
sg385
I2
sasS'total_cqs'
p387
I6
ssI42
(dp388
S'iters'
p389
I1
sS'meta'
p390
(lp391
(dp392
S'objective'
p393
I1
sS'query_time'
p394
F17.358011960983276
sS'comp_time'
p395
F2.8837080001831055
sS'exec_cq'
p396
I2
sS'total_cq'
p397
I2
sasS'total_cqs'
p398
I2
ssI43
(dp399
S'iters'
p400
I0
sS'meta'
p401
(lp402
sS'total_cqs'
p403
I1
ssI44
(dp404
S'iters'
p405
I1
sS'meta'
p406
(lp407
(dp408
S'objective'
p409
I5
sS'query_time'
p410
F1.5301740169525146
sS'comp_time'
p411
F0.10910320281982422
sS'exec_cq'
p412
I5
sS'total_cq'
p413
I5
sasS'total_cqs'
p414
I5
ssI45
(dp415
S'iters'
p416
I2
sS'meta'
p417
(lp418
(dp419
S'objective'
p420
I3
sS'query_time'
p421
F0.04133486747741699
sS'comp_time'
p422
F0.0008249282836914062
sS'exec_cq'
p423
I5
sS'total_cq'
p424
I5
sa(dp425
g420
I4
sg421
F0.00012993812561035156
sg422
F0.0004601478576660156
sg423
I2
sg424
I2
sasS'total_cqs'
p426
I5
ssI46
(dp427
S'iters'
p428
I0
sS'meta'
p429
(lp430
sS'total_cqs'
p431
I1
ssI47
(dp432
S'iters'
p433
I0
sS'meta'
p434
(lp435
sS'total_cqs'
p436
I1
ssI48
(dp437
S'iters'
p438
I1
sS'meta'
p439
(lp440
(dp441
S'objective'
p442
I1
sS'query_time'
p443
F0.1039130687713623
sS'comp_time'
p444
F0.006373167037963867
sS'exec_cq'
p445
I2
sS'total_cq'
p446
I2
sasS'total_cqs'
p447
I2
ssI49
(dp448
S'iters'
p449
I2
sS'meta'
p450
(lp451
(dp452
S'objective'
p453
I1
sS'query_time'
p454
F0.2729640007019043
sS'comp_time'
p455
F0.0022847652435302734
sS'exec_cq'
p456
I5
sS'total_cq'
p457
I5
sa(dp458
g453
I2
sg454
F0.00023412704467773438
sg455
F0.0012171268463134766
sg456
I2
sg457
I2
sasS'total_cqs'
p459
I5
ssI50
(dp460
S'iters'
p461
I1
sS'meta'
p462
(lp463
(dp464
S'objective'
p465
I5
sS'query_time'
p466
F0.9212520122528076
sS'comp_time'
p467
F0.0017201900482177734
sS'exec_cq'
p468
I5
sS'total_cq'
p469
I5
sasS'total_cqs'
p470
I5
ssI51
(dp471
S'iters'
p472
I0
sS'meta'
p473
(lp474
sS'total_cqs'
p475
I1
ssI52
(dp476
S'iters'
p477
I0
sS'meta'
p478
(lp479
sS'total_cqs'
p480
I1
ssI53
(dp481
S'iters'
p482
I0
sS'meta'
p483
(lp484
sS'total_cqs'
p485
I1
ssI55
(dp486
S'iters'
p487
I1
sS'meta'
p488
(lp489
(dp490
S'objective'
p491
I1
sS'query_time'
p492
F26.812632083892822
sS'comp_time'
p493
F3.433357000350952
sS'exec_cq'
p494
I2
sS'total_cq'
p495
I2
sasS'total_cqs'
p496
I2
ssI56
(dp497
S'iters'
p498
I0
sS'meta'
p499
(lp500
sS'total_cqs'
p501
I1
ssI57
(dp502
S'iters'
p503
I2
sS'meta'
p504
(lp505
(dp506
S'objective'
p507
I0
sS'query_time'
p508
F15.254843950271606
sS'comp_time'
p509
F1.4832971096038818
sS'exec_cq'
p510
I3
sS'total_cq'
p511
I3
sa(dp512
g507
I1
sg508
F0.35219502449035645
sg509
F1.3020727634429932
sg510
I2
sg511
I2
sasS'total_cqs'
p513
I3
ssI108
(dp514
S'iters'
p515
I0
sS'meta'
p516
(lp517
sS'total_cqs'
p518
I1
ssI109
(dp519
S'iters'
p520
I0
sS'meta'
p521
(lp522
sS'total_cqs'
p523
I1
ssI116
(dp524
S'iters'
p525
I2
sS'meta'
p526
(lp527
(dp528
S'objective'
p529
I161
sS'query_time'
p530
F5.975321054458618
sS'comp_time'
p531
F0.3838028907775879
sS'exec_cq'
p532
I21
sS'total_cq'
p533
I21
sa(dp534
g529
I1
sg530
F0.0016260147094726562
sg531
F0.008288860321044922
sg532
I3
sg533
I3
sasS'total_cqs'
p535
I21
ssI117
(dp536
S'iters'
p537
I1
sS'meta'
p538
(lp539
(dp540
S'objective'
p541
I5
sS'query_time'
p542
F0.015576839447021484
sS'comp_time'
p543
F9.489059448242188e-05
sS'exec_cq'
p544
I5
sS'total_cq'
p545
I5
sasS'total_cqs'
p546
I5
ssI118
(dp547
S'iters'
p548
I0
sS'meta'
p549
(lp550
sS'total_cqs'
p551
I1
ssI122
(dp552
S'iters'
p553
I0
sS'meta'
p554
(lp555
sS'total_cqs'
p556
I1
ss.