(dp0
I1
(dp1
S'iters'
p2
I2
sS'meta'
p3
(lp4
(dp5
S'objective'
p6
I1
sS'query_time'
p7
F26.182257890701294
sS'comp_time'
p8
F1.3273727893829346
sS'exec_cq'
p9
I6
sS'total_cq'
p10
I6
sa(dp11
g6
I2
sg7
F0.015107154846191406
sg8
F233.9522511959076
sg9
I2
sg10
I2
sasS'total_cqs'
p12
I6
ssI2
(dp13
S'iters'
p14
I1
sS'meta'
p15
(lp16
(dp17
S'objective'
p18
I13
sS'query_time'
p19
F0.8379800319671631
sS'comp_time'
p20
F0.10418319702148438
sS'exec_cq'
p21
I6
sS'total_cq'
p22
I6
sasS'total_cqs'
p23
I6
ssI3
(dp24
S'iters'
p25
I11
sS'meta'
p26
(lp27
(dp28
S'objective'
p29
I397
sS'query_time'
p30
F25.831669092178345
sS'comp_time'
p31
F0.2739298343658447
sS'exec_cq'
p32
I33
sS'total_cq'
p33
I33
sa(dp34
g29
I349
sg30
F0.025568008422851562
sg31
F0.16758227348327637
sg32
I30
sg33
I30
sa(dp35
g29
I298
sg30
F0.022202014923095703
sg31
F0.1550600528717041
sg32
I27
sg33
I27
sa(dp36
g29
I262
sg30
F0.03767108917236328
sg31
F0.053556203842163086
sg32
I24
sg33
I24
sa(dp37
g29
I221
sg30
F0.010280132293701172
sg31
F0.09026503562927246
sg32
I21
sg33
I21
sa(dp38
g29
I189
sg30
F0.010598897933959961
sg31
F0.07519888877868652
sg32
I19
sg33
I19
sa(dp39
g29
I155
sg30
F0.009367942810058594
sg31
F0.07303595542907715
sg32
I16
sg33
I16
sa(dp40
g29
I129
sg30
F0.006307125091552734
sg31
F0.03418397903442383
sg32
I13
sg33
I13
sa(dp41
g29
I102
sg30
F0.02722001075744629
sg31
F0.034158945083618164
sg32
I12
sg33
I12
sa(dp42
g29
I75
sg30
F0.0067670345306396484
sg31
F0.029607772827148438
sg32
I9
sg33
I9
sa(dp43
g29
I67
sg30
F0.005362033843994141
sg31
F0.030994892120361328
sg32
I8
sg33
I8
sasS'total_cqs'
p44
I33
ssI4
(dp45
S'iters'
p46
I0
sS'meta'
p47
(lp48
sS'total_cqs'
p49
I1
ssI5
(dp50
S'iters'
p51
I0
sS'meta'
p52
(lp53
sS'total_cqs'
p54
I1
ssI6
(dp55
S'iters'
p56
I2
sS'meta'
p57
(lp58
(dp59
S'objective'
p60
I1
sS'query_time'
p61
F15.238481998443604
sS'comp_time'
p62
F0.002969980239868164
sS'exec_cq'
p63
I5
sS'total_cq'
p64
I5
sa(dp65
g60
I0
sg61
F0.0005462169647216797
sg62
F0.0018229484558105469
sg63
I3
sg64
I3
sasS'total_cqs'
p66
I5
ssI7
(dp67
S'iters'
p68
I0
sS'meta'
p69
(lp70
sS'total_cqs'
p71
I1
ssI8
(dp72
S'iters'
p73
I4
sS'meta'
p74
(lp75
(dp76
S'objective'
p77
I19
sS'query_time'
p78
F22.79596185684204
sS'comp_time'
p79
F0.25923919677734375
sS'exec_cq'
p80
I6
sS'total_cq'
p81
I6
sa(dp82
g77
I8
sg78
F1.5947201251983643
sg79
F1.6049039363861084
sg80
I5
sg81
I5
sa(dp83
g77
I4
sg78
F1.6733729839324951
sg79
F1.618943214416504
sg80
I4
sg81
I4
sa(dp84
g77
I1
sg78
F0.04599785804748535
sg79
F0.0454258918762207
sg80
I3
sg81
I3
sasS'total_cqs'
p85
I6
ssI9
(dp86
S'iters'
p87
I3
sS'meta'
p88
(lp89
(dp90
S'objective'
p91
I3
sS'query_time'
p92
F52.428826093673706
sS'comp_time'
p93
F4.197859048843384
sS'exec_cq'
p94
I6
sS'total_cq'
p95
I6
sa(dp96
g91
I2
sg92
F0.062255859375
sg93
F0.5695209503173828
sg94
I3
sg95
I3
sa(dp97
g91
I1
sg92
F0.03850603103637695
sg93
F0.31655192375183105
sg94
I2
sg95
I2
sasS'total_cqs'
p98
I6
ssI10
(dp99
S'iters'
p100
I0
sS'meta'
p101
(lp102
sS'total_cqs'
p103
I1
ssI11
(dp104
S'iters'
p105
I0
sS'meta'
p106
(lp107
sS'total_cqs'
p108
I1
ssI12
(dp109
S'iters'
p110
I0
sS'meta'
p111
(lp112
sS'total_cqs'
p113
I1
ssI13
(dp114
S'iters'
p115
I2
sS'meta'
p116
(lp117
(dp118
S'objective'
p119
I22
sS'query_time'
p120
F0.028026103973388672
sS'comp_time'
p121
F0.00013709068298339844
sS'exec_cq'
p122
I8
sS'total_cq'
p123
I8
sa(dp124
g119
I19
sg120
F3.790855407714844e-05
sg121
F5.2928924560546875e-05
sg122
I7
sg123
I7
sasS'total_cqs'
p125
I8
ssI14
(dp126
S'iters'
p127
I2
sS'meta'
p128
(lp129
(dp130
S'objective'
p131
I5
sS'query_time'
p132
F1.0509910583496094
sS'comp_time'
p133
F0.00634312629699707
sS'exec_cq'
p134
I5
sS'total_cq'
p135
I5
sa(dp136
g131
I2
sg132
F0.00038909912109375
sg133
F0.0023338794708251953
sg134
I4
sg135
I4
sasS'total_cqs'
p137
I5
ssI16
(dp138
S'iters'
p139
I2
sS'meta'
p140
(lp141
(dp142
S'objective'
p143
I1
sS'query_time'
p144
F1.4354431629180908
sS'comp_time'
p145
F0.005542278289794922
sS'exec_cq'
p146
I5
sS'total_cq'
p147
I5
sa(dp148
g143
I1
sg144
F0.000985860824584961
sg145
F0.005030155181884766
sg146
I3
sg147
I3
sasS'total_cqs'
p149
I5
ssI17
(dp150
S'iters'
p151
I0
sS'meta'
p152
(lp153
sS'total_cqs'
p154
I1
ssI18
(dp155
S'iters'
p156
I2
sS'meta'
p157
(lp158
(dp159
S'objective'
p160
I1
sS'query_time'
p161
F0.314129114151001
sS'comp_time'
p162
F0.0003337860107421875
sS'exec_cq'
p163
I5
sS'total_cq'
p164
I5
sa(dp165
g160
I1
sg161
F3.814697265625e-05
sg162
F0.0001308917999267578
sg163
I2
sg164
I2
sasS'total_cqs'
p166
I5
ssI19
(dp167
S'iters'
p168
I0
sS'meta'
p169
(lp170
sS'total_cqs'
p171
I1
ssI20
(dp172
S'iters'
p173
I4
sS'meta'
p174
(lp175
(dp176
S'objective'
p177
I40
sS'query_time'
p178
F11.724470853805542
sS'comp_time'
p179
F1.1867928504943848
sS'exec_cq'
p180
I12
sS'total_cq'
p181
I12
sa(dp182
g177
I43
sg178
F0.2454390525817871
sg179
F1.0106351375579834
sg180
I10
sg181
I10
sa(dp183
g177
I37
sg178
F0.06601190567016602
sg179
F0.3936140537261963
sg180
I9
sg181
I9
sa(dp184
g177
I30
sg178
F0.07535696029663086
sg179
F0.053878068923950195
sg180
I7
sg181
I7
sasS'total_cqs'
p185
I12
ssI21
(dp186
S'iters'
p187
I2
sS'meta'
p188
(lp189
(dp190
S'objective'
p191
I67
sS'query_time'
p192
F28.422885179519653
sS'comp_time'
p193
F0.24674677848815918
sS'exec_cq'
p194
I14
sS'total_cq'
p195
I14
sa(dp196
g191
I3
sg192
F0.004476070404052734
sg193
F0.020642995834350586
sg194
I2
sg195
I2
sasS'total_cqs'
p197
I14
ssI22
(dp198
S'iters'
p199
I1
sS'meta'
p200
(lp201
(dp202
S'objective'
p203
I1
sS'query_time'
p204
F0.0055789947509765625
sS'comp_time'
p205
F0.00013303756713867188
sS'exec_cq'
p206
I2
sS'total_cq'
p207
I2
sasS'total_cqs'
p208
I2
ssI23
(dp209
S'iters'
p210
I0
sS'meta'
p211
(lp212
sS'total_cqs'
p213
I1
ssI24
(dp214
S'iters'
p215
I0
sS'meta'
p216
(lp217
sS'total_cqs'
p218
I1
ssI25
(dp219
S'iters'
p220
I3
sS'meta'
p221
(lp222
(dp223
S'objective'
p224
I10
sS'query_time'
p225
F87.48429703712463
sS'comp_time'
p226
F10.09946894645691
sS'exec_cq'
p227
I7
sS'total_cq'
p228
I7
sa(dp229
g224
I5
sg225
F2.298820972442627
sg226
F6.346124887466431
sg227
I5
sg228
I5
sa(dp230
g224
I2
sg225
F2.0190391540527344
sg226
F6.418664216995239
sg227
I3
sg228
I3
sasS'total_cqs'
p231
I7
ssI26
(dp232
S'iters'
p233
I5
sS'meta'
p234
(lp235
(dp236
S'objective'
p237
I43
sS'query_time'
p238
F24.519187211990356
sS'comp_time'
p239
F3.9732000827789307
sS'exec_cq'
p240
I13
sS'total_cq'
p241
I13
sa(dp242
g237
I41
sg238
F0.9387590885162354
sg239
F3.772156238555908
sg240
I11
sg241
I11
sa(dp243
g237
I30
sg238
F0.8419690132141113
sg239
F3.7388250827789307
sg240
I9
sg241
I9
sa(dp244
g237
I22
sg238
F0.8391819000244141
sg239
F3.2578842639923096
sg240
I7
sg241
I7
sa(dp245
g237
I16
sg238
F0.7405259609222412
sg239
F3.1403489112854004
sg240
I6
sg241
I6
sasS'total_cqs'
p246
I13
ssI27
(dp247
S'iters'
p248
I1
sS'meta'
p249
(lp250
(dp251
S'objective'
p252
I1
sS'query_time'
p253
F0.16049695014953613
sS'comp_time'
p254
F0.004317045211791992
sS'exec_cq'
p255
I2
sS'total_cq'
p256
I2
sasS'total_cqs'
p257
I2
ssI28
(dp258
S'iters'
p259
I5
sS'meta'
p260
(lp261
(dp262
S'objective'
p263
I31
sS'query_time'
p264
F1.7884418964385986
sS'comp_time'
p265
F0.025637388229370117
sS'exec_cq'
p266
I14
sS'total_cq'
p267
I14
sa(dp268
g263
I8
sg264
F0.0033941268920898438
sg265
F0.018259048461914062
sg266
I10
sg267
I10
sa(dp269
g263
I18
sg264
F0.0030629634857177734
sg265
F0.03685879707336426
sg266
I7
sg267
I7
sa(dp270
g263
I10
sg264
F0.0033080577850341797
sg265
F0.017124176025390625
sg266
I6
sg267
I6
sa(dp271
g263
I3
sg264
F0.0027980804443359375
sg265
F0.01645207405090332
sg266
I5
sg267
I5
sasS'total_cqs'
p272
I14
ssI29
(dp273
S'iters'
p274
I1
sS'meta'
p275
(lp276
(dp277
S'objective'
p278
I1
sS'query_time'
p279
F0.0069200992584228516
sS'comp_time'
p280
F0.00010800361633300781
sS'exec_cq'
p281
I2
sS'total_cq'
p282
I2
sasS'total_cqs'
p283
I2
ssI30
(dp284
S'iters'
p285
I1
sS'meta'
p286
(lp287
(dp288
S'objective'
p289
I1
sS'query_time'
p290
F0.3776540756225586
sS'comp_time'
p291
F0.006338834762573242
sS'exec_cq'
p292
I2
sS'total_cq'
p293
I2
sasS'total_cqs'
p294
I2
ssI31
(dp295
S'iters'
p296
I3
sS'meta'
p297
(lp298
(dp299
S'objective'
p300
I21
sS'query_time'
p301
F6.079988956451416
sS'comp_time'
p302
F0.15489816665649414
sS'exec_cq'
p303
I9
sS'total_cq'
p304
I9
sa(dp305
g300
I15
sg301
F0.007155895233154297
sg302
F0.032649993896484375
sg303
I7
sg304
I7
sa(dp306
g300
I3
sg301
F0.006189107894897461
sg302
F0.062233924865722656
sg303
I3
sg304
I3
sasS'total_cqs'
p307
I9
ssI32
(dp308
S'iters'
p309
I3
sS'meta'
p310
(lp311
(dp312
S'objective'
p313
I0
sS'query_time'
p314
F19.574527978897095
sS'comp_time'
p315
F2.875351905822754
sS'exec_cq'
p316
I7
sS'total_cq'
p317
I7
sa(dp318
g313
I2
sg314
F0.2889249324798584
sg315
F0.9862489700317383
sg316
I4
sg317
I4
sa(dp319
g313
I4
sg314
F0.2834339141845703
sg315
F1.0076398849487305
sg316
I2
sg317
I2
sasS'total_cqs'
p320
I7
ssI33
(dp321
S'iters'
p322
I1
sS'meta'
p323
(lp324
(dp325
S'objective'
p326
I1
sS'query_time'
p327
F0.04507613182067871
sS'comp_time'
p328
F0.00011086463928222656
sS'exec_cq'
p329
I2
sS'total_cq'
p330
I2
sasS'total_cqs'
p331
I2
ssI34
(dp332
S'iters'
p333
I0
sS'meta'
p334
(lp335
sS'total_cqs'
p336
I1
ssI35
(dp337
S'iters'
p338
I2
sS'meta'
p339
(lp340
(dp341
S'objective'
p342
I1
sS'query_time'
p343
F16.247722148895264
sS'comp_time'
p344
F0.20033502578735352
sS'exec_cq'
p345
I5
sS'total_cq'
p346
I5
sa(dp347
g342
I1
sg343
F0.02716684341430664
sg344
F0.15072894096374512
sg345
I3
sg346
I3
sasS'total_cqs'
p348
I5
ssI37
(dp349
S'iters'
p350
I3
sS'meta'
p351
(lp352
(dp353
S'objective'
p354
I25
sS'query_time'
p355
F2.4269051551818848
sS'comp_time'
p356
F0.11523199081420898
sS'exec_cq'
p357
I10
sS'total_cq'
p358
I10
sa(dp359
g354
I1
sg355
F0.0288851261138916
sg356
F0.04607224464416504
sg357
I3
sg358
I3
sa(dp360
g354
I4
sg355
F0.003576040267944336
sg356
F0.013707876205444336
sg357
I2
sg358
I2
sasS'total_cqs'
p361
I10
ssI38
(dp362
S'iters'
p363
I0
sS'meta'
p364
(lp365
sS'total_cqs'
p366
I1
ssI39
(dp367
S'iters'
p368
I0
sS'meta'
p369
(lp370
sS'total_cqs'
p371
I1
ssI40
(dp372
S'iters'
p373
I1
sS'meta'
p374
(lp375
(dp376
S'objective'
p377
I1
sS'query_time'
p378
F17.209462881088257
sS'comp_time'
p379
F2.4776999950408936
sS'exec_cq'
p380
I2
sS'total_cq'
p381
I2
sasS'total_cqs'
p382
I2
ssI41
(dp383
S'iters'
p384
I3
sS'meta'
p385
(lp386
(dp387
S'objective'
p388
I5
sS'query_time'
p389
F12.153094053268433
sS'comp_time'
p390
F1.102837085723877
sS'exec_cq'
p391
I6
sS'total_cq'
p392
I6
sa(dp393
g388
I1
sg389
F0.002758026123046875
sg390
F0.011310815811157227
sg391
I4
sg392
I4
sa(dp394
g388
I1
sg389
F0.0012431144714355469
sg390
F0.006968975067138672
sg391
I3
sg392
I3
sasS'total_cqs'
p395
I6
ssI42
(dp396
S'iters'
p397
I1
sS'meta'
p398
(lp399
(dp400
S'objective'
p401
I1
sS'query_time'
p402
F17.636949062347412
sS'comp_time'
p403
F2.7065250873565674
sS'exec_cq'
p404
I2
sS'total_cq'
p405
I2
sasS'total_cqs'
p406
I2
ssI43
(dp407
S'iters'
p408
I0
sS'meta'
p409
(lp410
sS'total_cqs'
p411
I1
ssI44
(dp412
S'iters'
p413
I2
sS'meta'
p414
(lp415
(dp416
S'objective'
p417
I3
sS'query_time'
p418
F1.5055649280548096
sS'comp_time'
p419
F0.1069638729095459
sS'exec_cq'
p420
I5
sS'total_cq'
p421
I5
sa(dp422
g417
I1
sg418
F0.020472049713134766
sg419
F0.1763010025024414
sg420
I3
sg421
I3
sasS'total_cqs'
p423
I5
ssI45
(dp424
S'iters'
p425
I2
sS'meta'
p426
(lp427
(dp428
S'objective'
p429
I3
sS'query_time'
p430
F0.036080121994018555
sS'comp_time'
p431
F0.0007801055908203125
sS'exec_cq'
p432
I5
sS'total_cq'
p433
I5
sa(dp434
g429
I2
sg430
F0.00011301040649414062
sg431
F0.0003819465637207031
sg432
I2
sg433
I2
sasS'total_cqs'
p435
I5
ssI46
(dp436
S'iters'
p437
I0
sS'meta'
p438
(lp439
sS'total_cqs'
p440
I1
ssI47
(dp441
S'iters'
p442
I0
sS'meta'
p443
(lp444
sS'total_cqs'
p445
I1
ssI48
(dp446
S'iters'
p447
I1
sS'meta'
p448
(lp449
(dp450
S'objective'
p451
I1
sS'query_time'
p452
F0.1432340145111084
sS'comp_time'
p453
F0.006768941879272461
sS'exec_cq'
p454
I2
sS'total_cq'
p455
I2
sasS'total_cqs'
p456
I2
ssI49
(dp457
S'iters'
p458
I2
sS'meta'
p459
(lp460
(dp461
S'objective'
p462
I1
sS'query_time'
p463
F0.24207806587219238
sS'comp_time'
p464
F0.0030410289764404297
sS'exec_cq'
p465
I5
sS'total_cq'
p466
I5
sa(dp467
g462
I0
sg463
F0.00036215782165527344
sg464
F0.0015897750854492188
sg465
I3
sg466
I3
sasS'total_cqs'
p468
I5
ssI50
(dp469
S'iters'
p470
I2
sS'meta'
p471
(lp472
(dp473
S'objective'
p474
I5
sS'query_time'
p475
F0.9116408824920654
sS'comp_time'
p476
F0.0015499591827392578
sS'exec_cq'
p477
I5
sS'total_cq'
p478
I5
sa(dp479
g474
I2
sg475
F0.0001900196075439453
sg476
F0.0009319782257080078
sg477
I4
sg478
I4
sasS'total_cqs'
p480
I5
ssI51
(dp481
S'iters'
p482
I0
sS'meta'
p483
(lp484
sS'total_cqs'
p485
I1
ssI52
(dp486
S'iters'
p487
I0
sS'meta'
p488
(lp489
sS'total_cqs'
p490
I1
ssI53
(dp491
S'iters'
p492
I0
sS'meta'
p493
(lp494
sS'total_cqs'
p495
I1
ssI55
(dp496
S'iters'
p497
I1
sS'meta'
p498
(lp499
(dp500
S'objective'
p501
I1
sS'query_time'
p502
F26.69814109802246
sS'comp_time'
p503
F3.8860387802124023
sS'exec_cq'
p504
I2
sS'total_cq'
p505
I2
sasS'total_cqs'
p506
I2
ssI56
(dp507
S'iters'
p508
I0
sS'meta'
p509
(lp510
sS'total_cqs'
p511
I1
ssI57
(dp512
S'iters'
p513
I1
sS'meta'
p514
(lp515
(dp516
S'objective'
p517
I0
sS'query_time'
p518
F14.141888856887817
sS'comp_time'
p519
F1.654045820236206
sS'exec_cq'
p520
I3
sS'total_cq'
p521
I3
sasS'total_cqs'
p522
I3
ssI108
(dp523
S'iters'
p524
I0
sS'meta'
p525
(lp526
sS'total_cqs'
p527
I1
ssI109
(dp528
S'iters'
p529
I0
sS'meta'
p530
(lp531
sS'total_cqs'
p532
I1
ssI116
(dp533
S'iters'
p534
I3
sS'meta'
p535
(lp536
(dp537
S'objective'
p538
I171
sS'query_time'
p539
F5.39738392829895
sS'comp_time'
p540
F0.29203081130981445
sS'exec_cq'
p541
I21
sS'total_cq'
p542
I21
sa(dp543
g538
I0
sg539
F0.0014159679412841797
sg540
F0.00426030158996582
sg541
I3
sg542
I3
sa(dp544
g538
I9
sg539
F0.0007259845733642578
sg540
F0.0027921199798583984
sg541
I2
sg542
I2
sasS'total_cqs'
p545
I21
ssI117
(dp546
S'iters'
p547
I2
sS'meta'
p548
(lp549
(dp550
S'objective'
p551
I5
sS'query_time'
p552
F0.014555931091308594
sS'comp_time'
p553
F0.000102996826171875
sS'exec_cq'
p554
I5
sS'total_cq'
p555
I5
sa(dp556
g551
I2
sg552
F2.2172927856445312e-05
sg553
F5.221366882324219e-05
sg554
I4
sg555
I4
sasS'total_cqs'
p557
I5
ssI118
(dp558
S'iters'
p559
I0
sS'meta'
p560
(lp561
sS'total_cqs'
p562
I1
ssI122
(dp563
S'iters'
p564
I0
sS'meta'
p565
(lp566
sS'total_cqs'
p567
I1
ss.