(dp0
I1
(dp1
S'iters'
p2
I2
sS'meta'
p3
(lp4
(dp5
S'objective'
p6
I1
sS'query_time'
p7
F16.80423378944397
sS'comp_time'
p8
F0.6782290935516357
sS'exec_cq'
p9
I3
sS'total_cq'
p10
I6
sa(dp11
g6
I1
sg7
F0.1587810516357422
sg8
F0.6666710376739502
sg9
I2
sg10
I2
sasS'total_cqs'
p12
I6
ssI2
(dp13
S'iters'
p14
I1
sS'meta'
p15
(lp16
(dp17
S'objective'
p18
I9
sS'query_time'
p19
F1.0999748706817627
sS'comp_time'
p20
F0.21638011932373047
sS'exec_cq'
p21
I2
sS'total_cq'
p22
I6
sasS'total_cqs'
p23
I6
ssI3
(dp24
S'iters'
p25
I7
sS'meta'
p26
(lp27
(dp28
S'objective'
p29
I385
sS'query_time'
p30
F26.13979196548462
sS'comp_time'
p31
F0.5704002380371094
sS'exec_cq'
p32
I15
sS'total_cq'
p33
I33
sa(dp34
g29
I343
sg30
F0.43759703636169434
sg31
F0.020769834518432617
sg32
I13
sg33
I30
sa(dp35
g29
I304
sg30
F0.019429922103881836
sg31
F0.24727106094360352
sg32
I12
sg33
I27
sa(dp36
g29
I272
sg30
F0.014960050582885742
sg31
F0.3547382354736328
sg32
I9
sg33
I24
sa(dp37
g29
I240
sg30
F0.0030078887939453125
sg31
F0.016176223754882812
sg32
I10
sg33
I21
sa(dp38
g29
I197
sg30
F0.10091900825500488
sg31
F0.08392691612243652
sg32
I6
sg33
I18
sa(dp39
g29
I171
sg30
F0.0031151771545410156
sg31
F0.09936046600341797
sg32
I7
sg33
I15
sasS'total_cqs'
p40
I33
ssI4
(dp41
S'iters'
p42
I0
sS'meta'
p43
(lp44
sS'total_cqs'
p45
I1
ssI5
(dp46
S'iters'
p47
I0
sS'meta'
p48
(lp49
sS'total_cqs'
p50
I1
ssI6
(dp51
S'iters'
p52
I2
sS'meta'
p53
(lp54
(dp55
S'objective'
p56
I1
sS'query_time'
p57
F15.365893840789795
sS'comp_time'
p58
F0.007353067398071289
sS'exec_cq'
p59
I4
sS'total_cq'
p60
I5
sa(dp61
g56
I2
sg57
F0.0005099773406982422
sg58
F0.002691984176635742
sg59
I2
sg60
I3
sasS'total_cqs'
p62
I5
ssI7
(dp63
S'iters'
p64
I0
sS'meta'
p65
(lp66
sS'total_cqs'
p67
I1
ssI8
(dp68
S'iters'
p69
I2
sS'meta'
p70
(lp71
(dp72
S'objective'
p73
I17
sS'query_time'
p74
F23.300002098083496
sS'comp_time'
p75
F0.39354515075683594
sS'exec_cq'
p76
I5
sS'total_cq'
p77
I6
sa(dp78
g73
I7
sg74
F0.10375690460205078
sg75
F0.09013700485229492
sg76
I4
sg77
I5
sasS'total_cqs'
p79
I6
ssI9
(dp80
S'iters'
p81
I2
sS'meta'
p82
(lp83
(dp84
S'objective'
p85
I5
sS'query_time'
p86
F12.484714031219482
sS'comp_time'
p87
F0.7077388763427734
sS'exec_cq'
p88
I3
sS'total_cq'
p89
I6
sa(dp90
g85
I4
sg86
F0.05706286430358887
sg87
F0.5284159183502197
sg88
I2
sg89
I2
sasS'total_cqs'
p91
I6
ssI10
(dp92
S'iters'
p93
I0
sS'meta'
p94
(lp95
sS'total_cqs'
p96
I1
ssI11
(dp97
S'iters'
p98
I0
sS'meta'
p99
(lp100
sS'total_cqs'
p101
I1
ssI12
(dp102
S'iters'
p103
I0
sS'meta'
p104
(lp105
sS'total_cqs'
p106
I1
ssI13
(dp107
S'iters'
p108
I1
sS'meta'
p109
(lp110
(dp111
S'objective'
p112
I20
sS'query_time'
p113
F0.08575296401977539
sS'comp_time'
p114
F0.021982908248901367
sS'exec_cq'
p115
I6
sS'total_cq'
p116
I8
sasS'total_cqs'
p117
I8
ssI14
(dp118
S'iters'
p119
I1
sS'meta'
p120
(lp121
(dp122
S'objective'
p123
I5
sS'query_time'
p124
F0.9425339698791504
sS'comp_time'
p125
F0.008576154708862305
sS'exec_cq'
p126
I5
sS'total_cq'
p127
I5
sasS'total_cqs'
p128
I5
ssI16
(dp129
S'iters'
p130
I2
sS'meta'
p131
(lp132
(dp133
S'objective'
p134
I1
sS'query_time'
p135
F1.1488449573516846
sS'comp_time'
p136
F0.012130022048950195
sS'exec_cq'
p137
I4
sS'total_cq'
p138
I5
sa(dp139
g134
I3
sg135
F0.001280069351196289
sg136
F0.007310152053833008
sg137
I2
sg138
I2
sasS'total_cqs'
p140
I5
ssI17
(dp141
S'iters'
p142
I0
sS'meta'
p143
(lp144
sS'total_cqs'
p145
I1
ssI18
(dp146
S'iters'
p147
I3
sS'meta'
p148
(lp149
(dp150
S'objective'
p151
I1
sS'query_time'
p152
F0.18478107452392578
sS'comp_time'
p153
F0.004572153091430664
sS'exec_cq'
p154
I4
sS'total_cq'
p155
I5
sa(dp156
g151
I4
sg152
F3.695487976074219e-05
sg153
F0.00021386146545410156
sg154
I2
sg155
I3
sa(dp157
g151
I4
sg152
F0.0514678955078125
sg153
F0.0001857280731201172
sg154
I1
sg155
I2
sasS'total_cqs'
p158
I5
ssI19
(dp159
S'iters'
p160
I0
sS'meta'
p161
(lp162
sS'total_cqs'
p163
I1
ssI20
(dp164
S'iters'
p165
I4
sS'meta'
p166
(lp167
(dp168
S'objective'
p169
I46
sS'query_time'
p170
F9.711103200912476
sS'comp_time'
p171
F1.6739318370819092
sS'exec_cq'
p172
I6
sS'total_cq'
p173
I12
sa(dp174
g169
I30
sg170
F0.23800086975097656
sg171
F1.2304420471191406
sg172
I4
sg173
I10
sa(dp175
g169
I16
sg170
F3.9954748153686523
sg171
F0.39299726486206055
sg172
I4
sg173
I8
sa(dp176
g169
I7
sg170
F0.10851597785949707
sg171
F0.006654024124145508
sg172
I1
sg173
I6
sasS'total_cqs'
p177
I12
ssI21
(dp178
S'iters'
p179
I4
sS'meta'
p180
(lp181
(dp182
S'objective'
p183
I31
sS'query_time'
p184
F29.781299829483032
sS'comp_time'
p185
F0.2458803653717041
sS'exec_cq'
p186
I8
sS'total_cq'
p187
I14
sa(dp188
g183
I20
sg184
F29.903558015823364
sg185
F2.0172736644744873
sg186
I4
sg187
I10
sa(dp189
g183
I18
sg184
F0.009193897247314453
sg185
F0.0664222240447998
sg186
I4
sg187
I6
sa(dp190
g183
I3
sg184
F0.013491153717041016
sg185
F0.00018835067749023438
sg186
I1
sg187
I4
sasS'total_cqs'
p191
I14
ssI22
(dp192
S'iters'
p193
I1
sS'meta'
p194
(lp195
(dp196
S'objective'
p197
I1
sS'query_time'
p198
F0.011226177215576172
sS'comp_time'
p199
F0.0018188953399658203
sS'exec_cq'
p200
I1
sS'total_cq'
p201
I2
sasS'total_cqs'
p202
I2
ssI23
(dp203
S'iters'
p204
I0
sS'meta'
p205
(lp206
sS'total_cqs'
p207
I1
ssI24
(dp208
S'iters'
p209
I0
sS'meta'
p210
(lp211
sS'total_cqs'
p212
I1
ssI25
(dp213
S'iters'
p214
I3
sS'meta'
p215
(lp216
(dp217
S'objective'
p218
I16
sS'query_time'
p219
F48.19192314147949
sS'comp_time'
p220
F4.833871841430664
sS'exec_cq'
p221
I4
sS'total_cq'
p222
I7
sa(dp223
g218
I10
sg219
F0.07332992553710938
sg220
F0.11110973358154297
sg221
I2
sg222
I5
sa(dp224
g218
I2
sg219
F0.1696031093597412
sg220
F0.005664825439453125
sg221
I1
sg222
I4
sasS'total_cqs'
p225
I7
ssI26
(dp226
S'iters'
p227
I4
sS'meta'
p228
(lp229
(dp230
S'objective'
p231
I53
sS'query_time'
p232
F0.3863849639892578
sS'comp_time'
p233
F0.02779674530029297
sS'exec_cq'
p234
I4
sS'total_cq'
p235
I13
sa(dp236
g231
I58
sg232
F22.983901977539062
sg233
F4.74087381362915
sg234
I3
sg235
I11
sa(dp237
g231
I45
sg232
F0.0008921623229980469
sg233
F0.005110025405883789
sg234
I2
sg235
I10
sa(dp238
g231
I29
sg232
F0.003274202346801758
sg233
F8.177757263183594e-05
sg234
I1
sg235
I9
sasS'total_cqs'
p239
I13
ssI27
(dp240
S'iters'
p241
I1
sS'meta'
p242
(lp243
(dp244
S'objective'
p245
I1
sS'query_time'
p246
F0.22589898109436035
sS'comp_time'
p247
F0.007547855377197266
sS'exec_cq'
p248
I1
sS'total_cq'
p249
I2
sasS'total_cqs'
p250
I2
ssI28
(dp251
S'iters'
p252
I3
sS'meta'
p253
(lp254
(dp255
S'objective'
p256
I43
sS'query_time'
p257
F1.450253963470459
sS'comp_time'
p258
F0.0999753475189209
sS'exec_cq'
p259
I6
sS'total_cq'
p260
I14
sa(dp261
g256
I52
sg257
F0.005654811859130859
sg258
F0.0002868175506591797
sg259
I2
sg260
I11
sa(dp262
g256
I35
sg257
F0.0023429393768310547
sg258
F0.00013208389282226562
sg259
I1
sg260
I10
sasS'total_cqs'
p263
I14
ssI29
(dp264
S'iters'
p265
I1
sS'meta'
p266
(lp267
(dp268
S'objective'
p269
I1
sS'query_time'
p270
F0.011204957962036133
sS'comp_time'
p271
F0.0022084712982177734
sS'exec_cq'
p272
I2
sS'total_cq'
p273
I2
sasS'total_cqs'
p274
I2
ssI30
(dp275
S'iters'
p276
I1
sS'meta'
p277
(lp278
(dp279
S'objective'
p280
I1
sS'query_time'
p281
F0.39611101150512695
sS'comp_time'
p282
F0.004990100860595703
sS'exec_cq'
p283
I2
sS'total_cq'
p284
I2
sasS'total_cqs'
p285
I2
ssI31
(dp286
S'iters'
p287
I2
sS'meta'
p288
(lp289
(dp290
S'objective'
p291
I9
sS'query_time'
p292
F1.4981508255004883
sS'comp_time'
p293
F0.06341433525085449
sS'exec_cq'
p294
I5
sS'total_cq'
p295
I9
sa(dp296
g291
I0
sg292
F0.010560035705566406
sg293
F0.1383042335510254
sg294
I3
sg295
I3
sasS'total_cqs'
p297
I9
ssI32
(dp298
S'iters'
p299
I2
sS'meta'
p300
(lp301
(dp302
S'objective'
p303
I2
sS'query_time'
p304
F21.61954402923584
sS'comp_time'
p305
F4.367998361587524
sS'exec_cq'
p306
I4
sS'total_cq'
p307
I7
sa(dp308
g303
I1
sg304
F0.0905768871307373
sg305
F0.0024862289428710938
sg306
I1
sg307
I4
sasS'total_cqs'
p309
I7
ssI33
(dp310
S'iters'
p311
I1
sS'meta'
p312
(lp313
(dp314
S'objective'
p315
I1
sS'query_time'
p316
F0.02486395835876465
sS'comp_time'
p317
F0.0019910335540771484
sS'exec_cq'
p318
I2
sS'total_cq'
p319
I2
sasS'total_cqs'
p320
I2
ssI34
(dp321
S'iters'
p322
I0
sS'meta'
p323
(lp324
sS'total_cqs'
p325
I1
ssI35
(dp326
S'iters'
p327
I2
sS'meta'
p328
(lp329
(dp330
S'objective'
p331
I1
sS'query_time'
p332
F13.111193180084229
sS'comp_time'
p333
F0.2731938362121582
sS'exec_cq'
p334
I4
sS'total_cq'
p335
I5
sa(dp336
g331
I2
sg332
F0.0771028995513916
sg333
F0.06569886207580566
sg334
I2
sg335
I3
sasS'total_cqs'
p337
I5
ssI37
(dp338
S'iters'
p339
I2
sS'meta'
p340
(lp341
(dp342
S'objective'
p343
I17
sS'query_time'
p344
F0.651763916015625
sS'comp_time'
p345
F0.08246302604675293
sS'exec_cq'
p346
I4
sS'total_cq'
p347
I10
sa(dp348
g343
I1
sg344
F0.00460505485534668
sg345
F0.020511865615844727
sg346
I2
sg347
I2
sasS'total_cqs'
p349
I10
ssI38
(dp350
S'iters'
p351
I0
sS'meta'
p352
(lp353
sS'total_cqs'
p354
I1
ssI39
(dp355
S'iters'
p356
I0
sS'meta'
p357
(lp358
sS'total_cqs'
p359
I1
ssI40
(dp360
S'iters'
p361
I1
sS'meta'
p362
(lp363
(dp364
S'objective'
p365
I1
sS'query_time'
p366
F0.0034160614013671875
sS'comp_time'
p367
F0.0011930465698242188
sS'exec_cq'
p368
I1
sS'total_cq'
p369
I2
sasS'total_cqs'
p370
I2
ssI41
(dp371
S'iters'
p372
I3
sS'meta'
p373
(lp374
(dp375
S'objective'
p376
I11
sS'query_time'
p377
F10.313404083251953
sS'comp_time'
p378
F1.8844749927520752
sS'exec_cq'
p379
I3
sS'total_cq'
p380
I6
sa(dp381
g376
I0
sg377
F0.658458948135376
sg378
F0.004195213317871094
sg379
I2
sg380
I4
sa(dp382
g376
I4
sg377
F0.0006301403045654297
sg378
F0.0036139488220214844
sg379
I2
sg380
I2
sasS'total_cqs'
p383
I6
ssI42
(dp384
S'iters'
p385
I1
sS'meta'
p386
(lp387
(dp388
S'objective'
p389
I1
sS'query_time'
p390
F0.01344919204711914
sS'comp_time'
p391
F0.0009462833404541016
sS'exec_cq'
p392
I1
sS'total_cq'
p393
I2
sasS'total_cqs'
p394
I2
ssI43
(dp395
S'iters'
p396
I0
sS'meta'
p397
(lp398
sS'total_cqs'
p399
I1
ssI44
(dp400
S'iters'
p401
I2
sS'meta'
p402
(lp403
(dp404
S'objective'
p405
I7
sS'query_time'
p406
F1.0450618267059326
sS'comp_time'
p407
F0.15239334106445312
sS'exec_cq'
p408
I2
sS'total_cq'
p409
I5
sa(dp410
g405
I1
sg406
F0.003587007522583008
sg407
F0.00011014938354492188
sg408
I1
sg409
I4
sasS'total_cqs'
p411
I5
ssI45
(dp412
S'iters'
p413
I2
sS'meta'
p414
(lp415
(dp416
S'objective'
p417
I1
sS'query_time'
p418
F0.04503512382507324
sS'comp_time'
p419
F0.0029866695404052734
sS'exec_cq'
p420
I3
sS'total_cq'
p421
I5
sa(dp422
g417
I2
sg418
F0.00017380714416503906
sg419
F0.0007219314575195312
sg420
I2
sg421
I2
sasS'total_cqs'
p423
I5
ssI46
(dp424
S'iters'
p425
I0
sS'meta'
p426
(lp427
sS'total_cqs'
p428
I1
ssI47
(dp429
S'iters'
p430
I0
sS'meta'
p431
(lp432
sS'total_cqs'
p433
I1
ssI48
(dp434
S'iters'
p435
I1
sS'meta'
p436
(lp437
(dp438
S'objective'
p439
I1
sS'query_time'
p440
F0.10127496719360352
sS'comp_time'
p441
F0.009316444396972656
sS'exec_cq'
p442
I2
sS'total_cq'
p443
I2
sasS'total_cqs'
p444
I2
ssI49
(dp445
S'iters'
p446
I2
sS'meta'
p447
(lp448
(dp449
S'objective'
p450
I1
sS'query_time'
p451
F0.26900410652160645
sS'comp_time'
p452
F0.0060100555419921875
sS'exec_cq'
p453
I4
sS'total_cq'
p454
I5
sa(dp455
g450
I2
sg451
F0.001177072525024414
sg452
F0.0034379959106445312
sg453
I3
sg454
I3
sasS'total_cqs'
p456
I5
ssI50
(dp457
S'iters'
p458
I1
sS'meta'
p459
(lp460
(dp461
S'objective'
p462
I5
sS'query_time'
p463
F0.7782611846923828
sS'comp_time'
p464
F0.005094051361083984
sS'exec_cq'
p465
I5
sS'total_cq'
p466
I5
sasS'total_cqs'
p467
I5
ssI51
(dp468
S'iters'
p469
I0
sS'meta'
p470
(lp471
sS'total_cqs'
p472
I1
ssI52
(dp473
S'iters'
p474
I0
sS'meta'
p475
(lp476
sS'total_cqs'
p477
I1
ssI53
(dp478
S'iters'
p479
I0
sS'meta'
p480
(lp481
sS'total_cqs'
p482
I1
ssI55
(dp483
S'iters'
p484
I1
sS'meta'
p485
(lp486
(dp487
S'objective'
p488
I1
sS'query_time'
p489
F24.50671696662903
sS'comp_time'
p490
F3.254439115524292
sS'exec_cq'
p491
I2
sS'total_cq'
p492
I2
sasS'total_cqs'
p493
I2
ssI56
(dp494
S'iters'
p495
I0
sS'meta'
p496
(lp497
sS'total_cqs'
p498
I1
ssI57
(dp499
S'iters'
p500
I1
sS'meta'
p501
(lp502
(dp503
S'objective'
p504
I0
sS'query_time'
p505
F12.728896141052246
sS'comp_time'
p506
F2.8700151443481445
sS'exec_cq'
p507
I2
sS'total_cq'
p508
I3
sasS'total_cqs'
p509
I3
ssI108
(dp510
S'iters'
p511
I0
sS'meta'
p512
(lp513
sS'total_cqs'
p514
I1
ssI109
(dp515
S'iters'
p516
I0
sS'meta'
p517
(lp518
sS'total_cqs'
p519
I1
ssI116
(dp520
S'iters'
p521
I2
sS'meta'
p522
(lp523
(dp524
S'objective'
p525
I151
sS'query_time'
p526
F0.6195220947265625
sS'comp_time'
p527
F0.01770186424255371
sS'exec_cq'
p528
I14
sS'total_cq'
p529
I21
sa(dp530
g525
I2
sg526
F0.0007429122924804688
sg527
F0.003387451171875
sg528
I2
sg529
I2
sasS'total_cqs'
p531
I21
ssI117
(dp532
S'iters'
p533
I2
sS'meta'
p534
(lp535
(dp536
S'objective'
p537
I13
sS'query_time'
p538
F0.009418964385986328
sS'comp_time'
p539
F0.0016467571258544922
sS'exec_cq'
p540
I3
sS'total_cq'
p541
I5
sa(dp542
g537
I4
sg538
F0.0020668506622314453
sg539
F7.295608520507812e-05
sg540
I3
sg541
I4
sasS'total_cqs'
p543
I5
ssI118
(dp544
S'iters'
p545
I0
sS'meta'
p546
(lp547
sS'total_cqs'
p548
I1
ssI122
(dp549
S'iters'
p550
I0
sS'meta'
p551
(lp552
sS'total_cqs'
p553
I1
ss.