(dp0
I1
(dp1
S'iters'
p2
I3
sS'meta'
p3
(lp4
(dp5
S'objective'
p6
I3
sS'query_time'
p7
F17.066519021987915
sS'comp_time'
p8
F1.0724091529846191
sS'exec_cq'
p9
I3
sS'total_cq'
p10
I6
sa(dp11
g6
I2
sg7
F31.104254961013794
sg8
F3.592369794845581
sg9
I2
sg10
I4
sa(dp12
g6
I1
sg7
F0.009980201721191406
sg8
F0.05910825729370117
sg9
I1
sg10
I2
sasS'total_cqs'
p13
I6
ssI2
(dp14
S'iters'
p15
I1
sS'meta'
p16
(lp17
(dp18
S'objective'
p19
I15
sS'query_time'
p20
F0.9825129508972168
sS'comp_time'
p21
F0.20200610160827637
sS'exec_cq'
p22
I6
sS'total_cq'
p23
I6
sasS'total_cqs'
p24
I6
ssI3
(dp25
S'iters'
p26
I12
sS'meta'
p27
(lp28
(dp29
S'objective'
p30
I393
sS'query_time'
p31
F0.423382043838501
sS'comp_time'
p32
F0.11795902252197266
sS'exec_cq'
p33
I13
sS'total_cq'
p34
I33
sa(dp35
g30
I353
sg31
F25.780915021896362
sg32
F0.36881494522094727
sg33
I15
sg34
I30
sa(dp36
g30
I305
sg31
F0.0028829574584960938
sg32
F0.01612091064453125
sg33
I10
sg34
I27
sa(dp37
g30
I260
sg31
F0.018095970153808594
sg32
F0.18795418739318848
sg33
I12
sg34
I25
sa(dp38
g30
I224
sg31
F0.0027599334716796875
sg32
F0.016154050827026367
sg33
I8
sg34
I22
sa(dp39
g30
I215
sg31
F0.1922299861907959
sg32
F0.08903288841247559
sg33
I5
sg34
I19
sa(dp40
g30
I155
sg31
F0.017544031143188477
sg32
F0.18274188041687012
sg33
I9
sg34
I18
sa(dp41
g30
I152
sg31
F0.0006361007690429688
sg32
F0.003328084945678711
sg33
I4
sg34
I15
sa(dp42
g30
I119
sg31
F0.002669095993041992
sg32
F0.015923261642456055
sg33
I5
sg34
I14
sa(dp43
g30
I95
sg31
F0.0021638870239257812
sg32
F0.014158964157104492
sg33
I6
sg34
I11
sa(dp44
g30
I79
sg31
F0.00040602684020996094
sg32
F0.002841949462890625
sg33
I3
sg34
I8
sa(dp45
g30
I80
sg31
F0.0022668838500976562
sg32
F0.016882658004760742
sg33
I2
sg34
I7
sasS'total_cqs'
p46
I33
ssI4
(dp47
S'iters'
p48
I0
sS'meta'
p49
(lp50
sS'total_cqs'
p51
I1
ssI5
(dp52
S'iters'
p53
I0
sS'meta'
p54
(lp55
sS'total_cqs'
p56
I1
ssI6
(dp57
S'iters'
p58
I2
sS'meta'
p59
(lp60
(dp61
S'objective'
p62
I1
sS'query_time'
p63
F14.518902778625488
sS'comp_time'
p64
F0.007182121276855469
sS'exec_cq'
p65
I4
sS'total_cq'
p66
I5
sa(dp67
g62
I2
sg63
F7.104873657226562e-05
sg64
F0.0004551410675048828
sg65
I1
sg66
I2
sasS'total_cqs'
p68
I5
ssI7
(dp69
S'iters'
p70
I0
sS'meta'
p71
(lp72
sS'total_cqs'
p73
I1
ssI8
(dp74
S'iters'
p75
I3
sS'meta'
p76
(lp77
(dp78
S'objective'
p79
I11
sS'query_time'
p80
F23.026522159576416
sS'comp_time'
p81
F0.35721421241760254
sS'exec_cq'
p82
I5
sS'total_cq'
p83
I6
sa(dp84
g79
I8
sg80
F41.90987992286682
sg81
F41.413536071777344
sg82
I4
sg83
I5
sa(dp85
g79
I6
sg80
F0.08377313613891602
sg81
F0.06515288352966309
sg82
I3
sg83
I4
sasS'total_cqs'
p86
I6
ssI9
(dp87
S'iters'
p88
I3
sS'meta'
p89
(lp90
(dp91
S'objective'
p92
I3
sS'query_time'
p93
F12.430484056472778
sS'comp_time'
p94
F0.5461733341217041
sS'exec_cq'
p95
I3
sS'total_cq'
p96
I6
sa(dp97
g92
I2
sg93
F0.05924201011657715
sg94
F0.4622361660003662
sg95
I3
sg96
I3
sa(dp98
g92
I1
sg93
F0.05561017990112305
sg94
F0.48740673065185547
sg95
I2
sg96
I2
sasS'total_cqs'
p99
I6
ssI10
(dp100
S'iters'
p101
I0
sS'meta'
p102
(lp103
sS'total_cqs'
p104
I1
ssI11
(dp105
S'iters'
p106
I0
sS'meta'
p107
(lp108
sS'total_cqs'
p109
I1
ssI12
(dp110
S'iters'
p111
I0
sS'meta'
p112
(lp113
sS'total_cqs'
p114
I1
ssI13
(dp115
S'iters'
p116
I2
sS'meta'
p117
(lp118
(dp119
S'objective'
p120
I22
sS'query_time'
p121
F0.01967000961303711
sS'comp_time'
p122
F0.009215831756591797
sS'exec_cq'
p123
I6
sS'total_cq'
p124
I8
sa(dp125
g120
I23
sg121
F3.504753112792969e-05
sg122
F0.00014591217041015625
sg123
I5
sg124
I7
sasS'total_cqs'
p126
I8
ssI14
(dp127
S'iters'
p128
I2
sS'meta'
p129
(lp130
(dp131
S'objective'
p132
I7
sS'query_time'
p133
F0.9813439846038818
sS'comp_time'
p134
F0.007977962493896484
sS'exec_cq'
p135
I5
sS'total_cq'
p136
I5
sa(dp137
g132
I5
sg133
F0.0006098747253417969
sg134
F0.004041910171508789
sg135
I4
sg136
I4
sasS'total_cqs'
p138
I5
ssI16
(dp139
S'iters'
p140
I2
sS'meta'
p141
(lp142
(dp143
S'objective'
p144
I1
sS'query_time'
p145
F1.30607008934021
sS'comp_time'
p146
F0.01082611083984375
sS'exec_cq'
p147
I4
sS'total_cq'
p148
I5
sa(dp149
g144
I1
sg145
F0.001191854476928711
sg146
F0.0065822601318359375
sg147
I2
sg148
I2
sasS'total_cqs'
p150
I5
ssI17
(dp151
S'iters'
p152
I0
sS'meta'
p153
(lp154
sS'total_cqs'
p155
I1
ssI18
(dp156
S'iters'
p157
I2
sS'meta'
p158
(lp159
(dp160
S'objective'
p161
I1
sS'query_time'
p162
F0.19416499137878418
sS'comp_time'
p163
F0.004374027252197266
sS'exec_cq'
p164
I4
sS'total_cq'
p165
I5
sa(dp166
g161
I2
sg162
F0.04424691200256348
sg163
F0.000293731689453125
sg164
I1
sg165
I2
sasS'total_cqs'
p167
I5
ssI19
(dp168
S'iters'
p169
I0
sS'meta'
p170
(lp171
sS'total_cqs'
p172
I1
ssI20
(dp173
S'iters'
p174
I6
sS'meta'
p175
(lp176
(dp177
S'objective'
p178
I52
sS'query_time'
p179
F9.204571962356567
sS'comp_time'
p180
F1.376035213470459
sS'exec_cq'
p181
I6
sS'total_cq'
p182
I12
sa(dp183
g178
I23
sg179
F3.964010000228882
sg180
F0.45322608947753906
sg181
I4
sg182
I10
sa(dp184
g178
I20
sg179
F0.16458392143249512
sg180
F0.979813814163208
sg181
I4
sg182
I8
sa(dp185
g178
I18
sg179
F0.26146388053894043
sg180
F1.248783826828003
sg181
I2
sg182
I6
sa(dp186
g178
I9
sg179
F0.03345203399658203
sg180
F0.6243550777435303
sg181
I2
sg182
I5
sa(dp187
g178
I9
sg179
F0.09563302993774414
sg180
F0.004604339599609375
sg181
I3
sg182
I4
sasS'total_cqs'
p188
I12
ssI21
(dp189
S'iters'
p190
I5
sS'meta'
p191
(lp192
(dp193
S'objective'
p194
I57
sS'query_time'
p195
F29.21083092689514
sS'comp_time'
p196
F0.3115408420562744
sS'exec_cq'
p197
I8
sS'total_cq'
p198
I14
sa(dp199
g194
I1
sg195
F30.494148015975952
sg196
F1.8837471008300781
sg197
I4
sg198
I10
sa(dp200
g194
I17
sg195
F0.009544134140014648
sg196
F0.06721115112304688
sg197
I4
sg198
I6
sa(dp201
g194
I3
sg195
F0.0012509822845458984
sg196
F0.009037971496582031
sg197
I2
sg198
I4
sa(dp202
g194
I6
sg195
F0.015186071395874023
sg196
F0.0001366138458251953
sg197
I1
sg198
I2
sasS'total_cqs'
p203
I14
ssI22
(dp204
S'iters'
p205
I1
sS'meta'
p206
(lp207
(dp208
S'objective'
p209
I1
sS'query_time'
p210
F0.008249998092651367
sS'comp_time'
p211
F0.0016162395477294922
sS'exec_cq'
p212
I1
sS'total_cq'
p213
I2
sasS'total_cqs'
p214
I2
ssI23
(dp215
S'iters'
p216
I0
sS'meta'
p217
(lp218
sS'total_cqs'
p219
I1
ssI24
(dp220
S'iters'
p221
I0
sS'meta'
p222
(lp223
sS'total_cqs'
p224
I1
ssI25
(dp225
S'iters'
p226
I4
sS'meta'
p227
(lp228
(dp229
S'objective'
p230
I10
sS'query_time'
p231
F48.7475528717041
sS'comp_time'
p232
F4.921051740646362
sS'exec_cq'
p233
I4
sS'total_cq'
p234
I7
sa(dp235
g230
I9
sg231
F0.016096830368041992
sg232
F0.05275893211364746
sg233
I2
sg234
I5
sa(dp236
g230
I0
sg231
F5.052716970443726
sg232
F0.3622124195098877
sg233
I2
sg234
I4
sa(dp237
g230
I1
sg231
F0.01255488395690918
sg232
F0.04860186576843262
sg233
I1
sg234
I2
sasS'total_cqs'
p238
I7
ssI26
(dp239
S'iters'
p240
I9
sS'meta'
p241
(lp242
(dp243
S'objective'
p244
I47
sS'query_time'
p245
F0.27146220207214355
sS'comp_time'
p246
F0.048804283142089844
sS'exec_cq'
p247
I4
sS'total_cq'
p248
I13
sa(dp249
g244
I35
sg245
F0.014877796173095703
sg246
F0.0002777576446533203
sg247
I2
sg248
I11
sa(dp250
g244
I36
sg245
F21.876221179962158
sg246
F0.0077800750732421875
sg247
I3
sg248
I9
sa(dp251
g244
I18
sg245
F3.793765068054199
sg246
F0.07103228569030762
sg247
I2
sg248
I8
sa(dp252
g244
I9
sg245
F0.029610157012939453
sg246
F0.0016222000122070312
sg247
I1
sg248
I6
sa(dp253
g244
I16
sg245
F0.00022912025451660156
sg246
F0.0025289058685302734
sg247
I2
sg248
I5
sa(dp254
g244
I10
sg245
F0.0009238719940185547
sg246
F0.005044221878051758
sg247
I2
sg248
I4
sa(dp255
g244
I2
sg245
F0.0015108585357666016
sg246
F0.00086212158203125
sg247
I1
sg248
I3
sa(dp256
g244
I2
sg245
F0.0006492137908935547
sg246
F0.0035109519958496094
sg247
I1
sg248
I2
sasS'total_cqs'
p257
I13
ssI27
(dp258
S'iters'
p259
I1
sS'meta'
p260
(lp261
(dp262
S'objective'
p263
I1
sS'query_time'
p264
F0.17606210708618164
sS'comp_time'
p265
F0.006952047348022461
sS'exec_cq'
p266
I1
sS'total_cq'
p267
I2
sasS'total_cqs'
p268
I2
ssI28
(dp269
S'iters'
p270
I9
sS'meta'
p271
(lp272
(dp273
S'objective'
p274
I57
sS'query_time'
p275
F1.4472529888153076
sS'comp_time'
p276
F0.10097098350524902
sS'exec_cq'
p277
I6
sS'total_cq'
p278
I14
sa(dp279
g274
I55
sg275
F0.0002589225769042969
sg276
F0.0016453266143798828
sg277
I4
sg278
I12
sa(dp280
g274
I42
sg275
F0.018774986267089844
sg276
F0.0006084442138671875
sg277
I1
sg278
I10
sa(dp281
g274
I31
sg275
F0.027760028839111328
sg276
F0.0015039443969726562
sg277
I1
sg278
I9
sa(dp282
g274
I21
sg275
F0.01806807518005371
sg276
F0.000865936279296875
sg277
I1
sg278
I8
sa(dp283
g274
I12
sg275
F1.9788742065429688e-05
sg276
F9.202957153320312e-05
sg277
I2
sg278
I7
sa(dp284
g274
I6
sg275
F0.0026237964630126953
sg276
F8.58306884765625e-05
sg277
I1
sg278
I5
sa(dp285
g274
I2
sg275
F0.03002190589904785
sg276
F0.002602100372314453
sg277
I1
sg278
I4
sa(dp286
g274
I2
sg275
F0.00315093994140625
sg276
F0.0001239776611328125
sg277
I1
sg278
I3
sasS'total_cqs'
p287
I14
ssI29
(dp288
S'iters'
p289
I1
sS'meta'
p290
(lp291
(dp292
S'objective'
p293
I1
sS'query_time'
p294
F0.012025117874145508
sS'comp_time'
p295
F0.0018770694732666016
sS'exec_cq'
p296
I2
sS'total_cq'
p297
I2
sasS'total_cqs'
p298
I2
ssI30
(dp299
S'iters'
p300
I1
sS'meta'
p301
(lp302
(dp303
S'objective'
p304
I1
sS'query_time'
p305
F0.3891308307647705
sS'comp_time'
p306
F0.004322052001953125
sS'exec_cq'
p307
I2
sS'total_cq'
p308
I2
sasS'total_cqs'
p309
I2
ssI31
(dp310
S'iters'
p311
I3
sS'meta'
p312
(lp313
(dp314
S'objective'
p315
I17
sS'query_time'
p316
F1.7538790702819824
sS'comp_time'
p317
F0.060892343521118164
sS'exec_cq'
p318
I5
sS'total_cq'
p319
I9
sa(dp320
g315
I4
sg316
F0.010431051254272461
sg317
F0.11464858055114746
sg318
I3
sg319
I3
sa(dp321
g315
I3
sg316
F0.004027843475341797
sg317
F0.022004127502441406
sg318
I2
sg319
I2
sasS'total_cqs'
p322
I9
ssI32
(dp323
S'iters'
p324
I3
sS'meta'
p325
(lp326
(dp327
S'objective'
p328
I2
sS'query_time'
p329
F22.090922117233276
sS'comp_time'
p330
F5.387494087219238
sS'exec_cq'
p331
I4
sS'total_cq'
p332
I7
sa(dp333
g328
I3
sg329
F1.0658369064331055
sg330
F0.02067089080810547
sg331
I2
sg332
I4
sa(dp334
g328
I3
sg329
F0.5100278854370117
sg330
F1.7984519004821777
sg331
I1
sg332
I2
sasS'total_cqs'
p335
I7
ssI33
(dp336
S'iters'
p337
I1
sS'meta'
p338
(lp339
(dp340
S'objective'
p341
I1
sS'query_time'
p342
F0.02313995361328125
sS'comp_time'
p343
F0.0018618106842041016
sS'exec_cq'
p344
I2
sS'total_cq'
p345
I2
sasS'total_cqs'
p346
I2
ssI34
(dp347
S'iters'
p348
I0
sS'meta'
p349
(lp350
sS'total_cqs'
p351
I1
ssI35
(dp352
S'iters'
p353
I3
sS'meta'
p354
(lp355
(dp356
S'objective'
p357
I1
sS'query_time'
p358
F14.18452501296997
sS'comp_time'
p359
F0.375974178314209
sS'exec_cq'
p360
I4
sS'total_cq'
p361
I5
sa(dp362
g357
I0
sg358
F0.14333605766296387
sg359
F0.07642412185668945
sg360
I2
sg361
I3
sa(dp363
g357
I2
sg358
F0.012863874435424805
sg359
F0.20898175239562988
sg360
I2
sg361
I2
sasS'total_cqs'
p364
I5
ssI37
(dp365
S'iters'
p366
I3
sS'meta'
p367
(lp368
(dp369
S'objective'
p370
I35
sS'query_time'
p371
F1.3111670017242432
sS'comp_time'
p372
F0.21805167198181152
sS'exec_cq'
p373
I4
sS'total_cq'
p374
I10
sa(dp375
g370
I23
sg371
F0.5018210411071777
sg372
F0.015705347061157227
sg373
I4
sg374
I9
sa(dp376
g370
I3
sg371
F0.0027780532836914062
sg372
F0.014271974563598633
sg373
I2
sg374
I2
sasS'total_cqs'
p377
I10
ssI38
(dp378
S'iters'
p379
I0
sS'meta'
p380
(lp381
sS'total_cqs'
p382
I1
ssI39
(dp383
S'iters'
p384
I0
sS'meta'
p385
(lp386
sS'total_cqs'
p387
I1
ssI40
(dp388
S'iters'
p389
I1
sS'meta'
p390
(lp391
(dp392
S'objective'
p393
I1
sS'query_time'
p394
F0.026165008544921875
sS'comp_time'
p395
F0.0012781620025634766
sS'exec_cq'
p396
I1
sS'total_cq'
p397
I2
sasS'total_cqs'
p398
I2
ssI41
(dp399
S'iters'
p400
I3
sS'meta'
p401
(lp402
(dp403
S'objective'
p404
I11
sS'query_time'
p405
F10.595396041870117
sS'comp_time'
p406
F1.7929670810699463
sS'exec_cq'
p407
I3
sS'total_cq'
p408
I6
sa(dp409
g404
I2
sg405
F0.7675039768218994
sg406
F0.00498509407043457
sg407
I2
sg408
I5
sa(dp410
g404
I1
sg405
F0.0006220340728759766
sg406
F0.003605365753173828
sg407
I2
sg408
I2
sasS'total_cqs'
p411
I6
ssI42
(dp412
S'iters'
p413
I1
sS'meta'
p414
(lp415
(dp416
S'objective'
p417
I1
sS'query_time'
p418
F0.017271041870117188
sS'comp_time'
p419
F0.0012810230255126953
sS'exec_cq'
p420
I1
sS'total_cq'
p421
I2
sasS'total_cqs'
p422
I2
ssI43
(dp423
S'iters'
p424
I0
sS'meta'
p425
(lp426
sS'total_cqs'
p427
I1
ssI44
(dp428
S'iters'
p429
I3
sS'meta'
p430
(lp431
(dp432
S'objective'
p433
I7
sS'query_time'
p434
F1.3454809188842773
sS'comp_time'
p435
F0.2031102180480957
sS'exec_cq'
p436
I2
sS'total_cq'
p437
I5
sa(dp438
g433
I1
sg434
F0.2304837703704834
sg435
F0.0019338130950927734
sg436
I2
sg437
I4
sa(dp439
g433
I1
sg434
F0.020074129104614258
sg435
F0.18717193603515625
sg436
I1
sg437
I2
sasS'total_cqs'
p440
I5
ssI45
(dp441
S'iters'
p442
I2
sS'meta'
p443
(lp444
(dp445
S'objective'
p446
I5
sS'query_time'
p447
F0.03544187545776367
sS'comp_time'
p448
F0.0023908615112304688
sS'exec_cq'
p449
I3
sS'total_cq'
p450
I5
sa(dp451
g446
I1
sg447
F0.0001590251922607422
sg448
F0.0005881786346435547
sg449
I2
sg450
I2
sasS'total_cqs'
p452
I5
ssI46
(dp453
S'iters'
p454
I0
sS'meta'
p455
(lp456
sS'total_cqs'
p457
I1
ssI47
(dp458
S'iters'
p459
I0
sS'meta'
p460
(lp461
sS'total_cqs'
p462
I1
ssI48
(dp463
S'iters'
p464
I1
sS'meta'
p465
(lp466
(dp467
S'objective'
p468
I1
sS'query_time'
p469
F0.13678693771362305
sS'comp_time'
p470
F0.004420280456542969
sS'exec_cq'
p471
I2
sS'total_cq'
p472
I2
sasS'total_cqs'
p473
I2
ssI49
(dp474
S'iters'
p475
I2
sS'meta'
p476
(lp477
(dp478
S'objective'
p479
I1
sS'query_time'
p480
F0.25822901725769043
sS'comp_time'
p481
F0.0062978267669677734
sS'exec_cq'
p482
I4
sS'total_cq'
p483
I5
sa(dp484
g479
I1
sg480
F0.0003170967102050781
sg481
F0.0017006397247314453
sg482
I2
sg483
I2
sasS'total_cqs'
p485
I5
ssI50
(dp486
S'iters'
p487
I3
sS'meta'
p488
(lp489
(dp490
S'objective'
p491
I5
sS'query_time'
p492
F0.6580538749694824
sS'comp_time'
p493
F0.004740715026855469
sS'exec_cq'
p494
I5
sS'total_cq'
p495
I5
sa(dp496
g491
I2
sg492
F0.00016617774963378906
sg493
F0.0012469291687011719
sg494
I4
sg495
I4
sa(dp497
g491
I0
sg492
F0.0001289844512939453
sg493
F0.00092315673828125
sg494
I3
sg495
I3
sasS'total_cqs'
p498
I5
ssI51
(dp499
S'iters'
p500
I0
sS'meta'
p501
(lp502
sS'total_cqs'
p503
I1
ssI52
(dp504
S'iters'
p505
I0
sS'meta'
p506
(lp507
sS'total_cqs'
p508
I1
ssI53
(dp509
S'iters'
p510
I0
sS'meta'
p511
(lp512
sS'total_cqs'
p513
I1
ssI55
(dp514
S'iters'
p515
I1
sS'meta'
p516
(lp517
(dp518
S'objective'
p519
I1
sS'query_time'
p520
F24.366116046905518
sS'comp_time'
p521
F3.461474657058716
sS'exec_cq'
p522
I2
sS'total_cq'
p523
I2
sasS'total_cqs'
p524
I2
ssI56
(dp525
S'iters'
p526
I0
sS'meta'
p527
(lp528
sS'total_cqs'
p529
I1
ssI57
(dp530
S'iters'
p531
I2
sS'meta'
p532
(lp533
(dp534
S'objective'
p535
I0
sS'query_time'
p536
F12.615371942520142
sS'comp_time'
p537
F2.5146262645721436
sS'exec_cq'
p538
I2
sS'total_cq'
p539
I3
sa(dp540
g535
I1
sg536
F0.4551539421081543
sg537
F2.007514238357544
sg538
I1
sg539
I2
sasS'total_cqs'
p541
I3
ssI108
(dp542
S'iters'
p543
I0
sS'meta'
p544
(lp545
sS'total_cqs'
p546
I1
ssI109
(dp547
S'iters'
p548
I0
sS'meta'
p549
(lp550
sS'total_cqs'
p551
I1
ssI116
(dp552
S'iters'
p553
I3
sS'meta'
p554
(lp555
(dp556
S'objective'
p557
I183
sS'query_time'
p558
F3.6772940158843994
sS'comp_time'
p559
F0.5951955318450928
sS'exec_cq'
p560
I15
sS'total_cq'
p561
I21
sa(dp562
g557
I163
sg558
F0.513206958770752
sg559
F0.004027366638183594
sg560
I14
sg561
I19
sa(dp563
g557
I8
sg558
F0.0006868839263916016
sg559
F0.0032134056091308594
sg560
I2
sg561
I2
sasS'total_cqs'
p564
I21
ssI117
(dp565
S'iters'
p566
I2
sS'meta'
p567
(lp568
(dp569
S'objective'
p570
I7
sS'query_time'
p571
F0.008710861206054688
sS'comp_time'
p572
F0.0020008087158203125
sS'exec_cq'
p573
I3
sS'total_cq'
p574
I5
sa(dp575
g570
I5
sg571
F0.0018229484558105469
sg572
F8.797645568847656e-05
sg573
I3
sg574
I4
sasS'total_cqs'
p576
I5
ssI118
(dp577
S'iters'
p578
I0
sS'meta'
p579
(lp580
sS'total_cqs'
p581
I1
ssI122
(dp582
S'iters'
p583
I0
sS'meta'
p584
(lp585
sS'total_cqs'
p586
I1
ss.