(dp0
I1
(dp1
S'iters'
p2
I2
sS'meta'
p3
(lp4
(dp5
S'objective'
p6
I2
sS'query_time'
p7
F25.443735122680664
sS'comp_time'
p8
F1.469560146331787
sS'exec_cq'
p9
I6
sS'total_cq'
p10
I6
sa(dp11
g6
I0
sg7
F0.01385807991027832
sg8
F255.49371600151062
sg9
I2
sg10
I2
sasS'total_cqs'
p12
I6
ssI2
(dp13
S'iters'
p14
I1
sS'meta'
p15
(lp16
(dp17
S'objective'
p18
I4
sS'query_time'
p19
F0.957240104675293
sS'comp_time'
p20
F0.09745573997497559
sS'exec_cq'
p21
I6
sS'total_cq'
p22
I6
sasS'total_cqs'
p23
I6
ssI3
(dp24
S'iters'
p25
I10
sS'meta'
p26
(lp27
(dp28
S'objective'
p29
I27
sS'query_time'
p30
F26.768518924713135
sS'comp_time'
p31
F0.23207569122314453
sS'exec_cq'
p32
I33
sS'total_cq'
p33
I33
sa(dp34
g29
I24
sg30
F0.10770201683044434
sg31
F0.2679102420806885
sg32
I30
sg33
I30
sa(dp35
g29
I21
sg30
F0.04162406921386719
sg31
F0.35178303718566895
sg32
I27
sg33
I27
sa(dp36
g29
I18
sg30
F0.06811213493347168
sg31
F0.20903635025024414
sg32
I24
sg33
I24
sa(dp37
g29
I15
sg30
F0.020153045654296875
sg31
F0.13349485397338867
sg32
I21
sg33
I21
sa(dp38
g29
I12
sg30
F0.00842905044555664
sg31
F0.042127132415771484
sg32
I18
sg33
I18
sa(dp39
g29
I9
sg30
F0.005519866943359375
sg31
F0.055867910385131836
sg32
I15
sg33
I15
sa(dp40
g29
I8
sg30
F0.005648136138916016
sg31
F0.02975010871887207
sg32
I12
sg33
I12
sa(dp41
g29
I8
sg30
F0.024940967559814453
sg31
F0.028874874114990234
sg32
I10
sg33
I10
sa(dp42
g29
I7
sg30
F0.002789020538330078
sg31
F0.015924930572509766
sg32
I9
sg33
I9
sasS'total_cqs'
p43
I33
ssI6
(dp44
S'iters'
p45
I2
sS'meta'
p46
(lp47
(dp48
S'objective'
p49
I1
sS'query_time'
p50
F16.054378032684326
sS'comp_time'
p51
F0.002889871597290039
sS'exec_cq'
p52
I5
sS'total_cq'
p53
I5
sa(dp54
g49
I0
sg50
F0.0002789497375488281
sg51
F0.0015392303466796875
sg52
I2
sg53
I2
sasS'total_cqs'
p55
I5
ssI8
(dp56
S'iters'
p57
I4
sS'meta'
p58
(lp59
(dp60
S'objective'
p61
I4
sS'query_time'
p62
F22.704730987548828
sS'comp_time'
p63
F0.301983118057251
sS'exec_cq'
p64
I6
sS'total_cq'
p65
I6
sa(dp66
g61
I1
sg62
F1.8458030223846436
sg63
F1.9852099418640137
sg64
I5
sg65
I5
sa(dp67
g61
I1
sg62
F21.798136234283447
sg63
F21.762705087661743
sg64
I3
sg65
I3
sa(dp68
g61
I0
sg62
F0.06917023658752441
sg63
F0.044226884841918945
sg64
I2
sg65
I2
sasS'total_cqs'
p69
I6
ssI9
(dp70
S'iters'
p71
I3
sS'meta'
p72
(lp73
(dp74
S'objective'
p75
I0
sS'query_time'
p76
F54.253451108932495
sS'comp_time'
p77
F4.5230491161346436
sS'exec_cq'
p78
I6
sS'total_cq'
p79
I6
sa(dp80
g75
I1
sg76
F0.06855201721191406
sg77
F0.5653400421142578
sg78
I3
sg79
I3
sa(dp81
g75
I0
sg76
F0.04058408737182617
sg77
F0.3194549083709717
sg78
I2
sg79
I2
sasS'total_cqs'
p82
I6
ssI13
(dp83
S'iters'
p84
I2
sS'meta'
p85
(lp86
(dp87
S'objective'
p88
I6
sS'query_time'
p89
F0.019600868225097656
sS'comp_time'
p90
F0.00015091896057128906
sS'exec_cq'
p91
I8
sS'total_cq'
p92
I8
sa(dp93
g88
I5
sg89
F3.814697265625e-05
sg90
F5.817413330078125e-05
sg91
I7
sg92
I7
sasS'total_cqs'
p94
I8
ssI14
(dp95
S'iters'
p96
I1
sS'meta'
p97
(lp98
(dp99
S'objective'
p100
I3
sS'query_time'
p101
F1.0849311351776123
sS'comp_time'
p102
F0.008110284805297852
sS'exec_cq'
p103
I5
sS'total_cq'
p104
I5
sasS'total_cqs'
p105
I5
ssI16
(dp106
S'iters'
p107
I3
sS'meta'
p108
(lp109
(dp110
S'objective'
p111
I1
sS'query_time'
p112
F1.5389769077301025
sS'comp_time'
p113
F0.006970882415771484
sS'exec_cq'
p114
I5
sS'total_cq'
p115
I5
sa(dp116
g111
I1
sg112
F0.00010704994201660156
sg113
F0.0004940032958984375
sg114
I3
sg115
I3
sa(dp117
g111
I0
sg112
F0.0002548694610595703
sg113
F0.0002040863037109375
sg114
I2
sg115
I2
sasS'total_cqs'
p118
I5
ssI18
(dp119
S'iters'
p120
I2
sS'meta'
p121
(lp122
(dp123
S'objective'
p124
I1
sS'query_time'
p125
F0.3074181079864502
sS'comp_time'
p126
F0.00033211708068847656
sS'exec_cq'
p127
I5
sS'total_cq'
p128
I5
sa(dp129
g124
I0
sg125
F3.504753112792969e-05
sg126
F0.00017523765563964844
sg127
I2
sg128
I2
sasS'total_cqs'
p130
I5
ssI20
(dp131
S'iters'
p132
I5
sS'meta'
p133
(lp134
(dp135
S'objective'
p136
I8
sS'query_time'
p137
F11.612525939941406
sS'comp_time'
p138
F1.1190450191497803
sS'exec_cq'
p139
I12
sS'total_cq'
p140
I12
sa(dp141
g136
I6
sg137
F0.189208984375
sg138
F0.6764678955078125
sg139
I10
sg140
I10
sa(dp142
g136
I4
sg137
F0.15443801879882812
sg138
F0.6045489311218262
sg139
I8
sg140
I8
sa(dp143
g136
I4
sg137
F0.1364917755126953
sg138
F0.4485740661621094
sg139
I6
sg140
I6
sa(dp144
g136
I3
sg137
F0.0008289813995361328
sg138
F0.003281116485595703
sg139
I5
sg140
I5
sasS'total_cqs'
p145
I12
ssI21
(dp146
S'iters'
p147
I4
sS'meta'
p148
(lp149
(dp150
S'objective'
p151
I6
sS'query_time'
p152
F30.004431009292603
sS'comp_time'
p153
F0.24759912490844727
sS'exec_cq'
p154
I14
sS'total_cq'
p155
I14
sa(dp156
g151
I2
sg152
F0.019888877868652344
sg153
F0.2763509750366211
sg154
I10
sg155
I10
sa(dp157
g151
I2
sg152
F0.016366958618164062
sg153
F0.1164090633392334
sg154
I6
sg155
I6
sa(dp158
g151
I0
sg152
F0.003993034362792969
sg153
F0.019432783126831055
sg154
I2
sg155
I2
sasS'total_cqs'
p159
I14
ssI22
(dp160
S'iters'
p161
I1
sS'meta'
p162
(lp163
(dp164
S'objective'
p165
I0
sS'query_time'
p166
F0.005553007125854492
sS'comp_time'
p167
F0.00014591217041015625
sS'exec_cq'
p168
I2
sS'total_cq'
p169
I2
sasS'total_cqs'
p170
I2
ssI25
(dp171
S'iters'
p172
I4
sS'meta'
p173
(lp174
(dp175
S'objective'
p176
I3
sS'query_time'
p177
F88.02338790893555
sS'comp_time'
p178
F9.85213303565979
sS'exec_cq'
p179
I7
sS'total_cq'
p180
I7
sa(dp181
g176
I1
sg177
F3.031355857849121
sg178
F9.4479341506958
sg179
I5
sg180
I5
sa(dp182
g176
I1
sg177
F2.0171849727630615
sg178
F6.649494886398315
sg179
I3
sg180
I3
sa(dp183
g176
I0
sg177
F0.0011019706726074219
sg178
F0.006732940673828125
sg179
I2
sg180
I2
sasS'total_cqs'
p184
I7
ssI26
(dp185
S'iters'
p186
I9
sS'meta'
p187
(lp188
(dp189
S'objective'
p190
I9
sS'query_time'
p191
F24.499051809310913
sS'comp_time'
p192
F3.0710532665252686
sS'exec_cq'
p193
I13
sS'total_cq'
p194
I13
sa(dp195
g190
I7
sg191
F0.9680209159851074
sg192
F3.8274269104003906
sg193
I11
sg194
I11
sa(dp196
g190
I5
sg191
F0.9418199062347412
sg192
F3.497493028640747
sg193
I9
sg194
I9
sa(dp197
g190
I5
sg191
F1.0441792011260986
sg192
F3.806629180908203
sg193
I7
sg194
I7
sa(dp198
g190
I4
sg191
F0.0018680095672607422
sg192
F0.006504058837890625
sg193
I6
sg194
I6
sa(dp199
g190
I3
sg191
F0.0011701583862304688
sg192
F0.005554914474487305
sg193
I5
sg194
I5
sa(dp200
g190
I2
sg191
F0.0009140968322753906
sg192
F0.005431175231933594
sg193
I4
sg194
I4
sa(dp201
g190
I1
sg191
F0.0003609657287597656
sg192
F0.0019643306732177734
sg193
I3
sg194
I3
sa(dp202
g190
I0
sg191
F0.00017786026000976562
sg192
F0.0009341239929199219
sg193
I2
sg194
I2
sasS'total_cqs'
p203
I13
ssI27
(dp204
S'iters'
p205
I1
sS'meta'
p206
(lp207
(dp208
S'objective'
p209
I0
sS'query_time'
p210
F0.14722990989685059
sS'comp_time'
p211
F0.004364013671875
sS'exec_cq'
p212
I2
sS'total_cq'
p213
I2
sasS'total_cqs'
p214
I2
ssI28
(dp215
S'iters'
p216
I6
sS'meta'
p217
(lp218
(dp219
S'objective'
p220
I6
sS'query_time'
p221
F1.6859629154205322
sS'comp_time'
p222
F0.0207669734954834
sS'exec_cq'
p223
I14
sS'total_cq'
p224
I14
sa(dp225
g220
I4
sg221
F0.0027909278869628906
sg222
F0.015639066696166992
sg223
I10
sg224
I10
sa(dp226
g220
I3
sg221
F0.0024640560150146484
sg222
F0.031382083892822266
sg223
I7
sg224
I7
sa(dp227
g220
I3
sg221
F0.002752065658569336
sg222
F0.012450933456420898
sg223
I5
sg224
I5
sa(dp228
g220
I2
sg221
F0.0019571781158447266
sg222
F0.01116490364074707
sg223
I4
sg224
I4
sa(dp229
g220
I1
sg221
F2.5987625122070312e-05
sg222
F7.05718994140625e-05
sg223
I3
sg224
I3
sasS'total_cqs'
p230
I14
ssI29
(dp231
S'iters'
p232
I1
sS'meta'
p233
(lp234
(dp235
S'objective'
p236
I0
sS'query_time'
p237
F0.006090879440307617
sS'comp_time'
p238
F0.0001201629638671875
sS'exec_cq'
p239
I2
sS'total_cq'
p240
I2
sasS'total_cqs'
p241
I2
ssI30
(dp242
S'iters'
p243
I1
sS'meta'
p244
(lp245
(dp246
S'objective'
p247
I0
sS'query_time'
p248
F0.3536081314086914
sS'comp_time'
p249
F0.006005287170410156
sS'exec_cq'
p250
I2
sS'total_cq'
p251
I2
sasS'total_cqs'
p252
I2
ssI31
(dp253
S'iters'
p254
I3
sS'meta'
p255
(lp256
(dp257
S'objective'
p258
I3
sS'query_time'
p259
F6.0211498737335205
sS'comp_time'
p260
F0.21181392669677734
sS'exec_cq'
p261
I9
sS'total_cq'
p262
I9
sa(dp263
g258
I1
sg259
F0.007055044174194336
sg260
F0.028544902801513672
sg261
I3
sg262
I3
sa(dp264
g258
I0
sg259
F0.002727031707763672
sg260
F0.012880802154541016
sg261
I2
sg262
I2
sasS'total_cqs'
p265
I9
ssI32
(dp266
S'iters'
p267
I3
sS'meta'
p268
(lp269
(dp270
S'objective'
p271
I1
sS'query_time'
p272
F19.85236883163452
sS'comp_time'
p273
F3.322493314743042
sS'exec_cq'
p274
I7
sS'total_cq'
p275
I7
sa(dp276
g271
I0
sg272
F0.03884696960449219
sg273
F0.38139915466308594
sg274
I4
sg275
I4
sa(dp277
g271
I0
sg272
F0.08807015419006348
sg273
F0.2010669708251953
sg274
I2
sg275
I2
sasS'total_cqs'
p278
I7
ssI33
(dp279
S'iters'
p280
I1
sS'meta'
p281
(lp282
(dp283
S'objective'
p284
I0
sS'query_time'
p285
F0.03250908851623535
sS'comp_time'
p286
F0.00015401840209960938
sS'exec_cq'
p287
I2
sS'total_cq'
p288
I2
sasS'total_cqs'
p289
I2
ssI35
(dp290
S'iters'
p291
I3
sS'meta'
p292
(lp293
(dp294
S'objective'
p295
I1
sS'query_time'
p296
F17.182501077651978
sS'comp_time'
p297
F0.19967317581176758
sS'exec_cq'
p298
I5
sS'total_cq'
p299
I5
sa(dp300
g295
I1
sg296
F0.0310361385345459
sg297
F0.1506052017211914
sg298
I3
sg299
I3
sa(dp301
g295
I0
sg296
F0.011950016021728516
sg297
F0.06142902374267578
sg298
I2
sg299
I2
sasS'total_cqs'
p302
I5
ssI37
(dp303
S'iters'
p304
I3
sS'meta'
p305
(lp306
(dp307
S'objective'
p308
I4
sS'query_time'
p309
F2.472010850906372
sS'comp_time'
p310
F0.14626002311706543
sS'exec_cq'
p311
I10
sS'total_cq'
p312
I10
sa(dp313
g308
I1
sg309
F0.03318905830383301
sg310
F0.04508519172668457
sg311
I3
sg312
I3
sa(dp314
g308
I0
sg309
F0.0038042068481445312
sg310
F0.014206171035766602
sg311
I2
sg312
I2
sasS'total_cqs'
p315
I10
ssI40
(dp316
S'iters'
p317
I1
sS'meta'
p318
(lp319
(dp320
S'objective'
p321
I0
sS'query_time'
p322
F17.36842703819275
sS'comp_time'
p323
F3.1749889850616455
sS'exec_cq'
p324
I2
sS'total_cq'
p325
I2
sasS'total_cqs'
p326
I2
ssI41
(dp327
S'iters'
p328
I3
sS'meta'
p329
(lp330
(dp331
S'objective'
p332
I0
sS'query_time'
p333
F12.245971918106079
sS'comp_time'
p334
F1.1485519409179688
sS'exec_cq'
p335
I6
sS'total_cq'
p336
I6
sa(dp337
g332
I1
sg333
F0.0019669532775878906
sg334
F0.006941080093383789
sg335
I3
sg336
I3
sa(dp338
g332
I0
sg333
F0.0007379055023193359
sg334
F0.003403186798095703
sg335
I2
sg336
I2
sasS'total_cqs'
p339
I6
ssI42
(dp340
S'iters'
p341
I1
sS'meta'
p342
(lp343
(dp344
S'objective'
p345
I0
sS'query_time'
p346
F17.348600149154663
sS'comp_time'
p347
F2.5182018280029297
sS'exec_cq'
p348
I2
sS'total_cq'
p349
I2
sasS'total_cqs'
p350
I2
ssI44
(dp351
S'iters'
p352
I3
sS'meta'
p353
(lp354
(dp355
S'objective'
p356
I1
sS'query_time'
p357
F1.6423780918121338
sS'comp_time'
p358
F0.21139311790466309
sS'exec_cq'
p359
I5
sS'total_cq'
p360
I5
sa(dp361
g356
I1
sg357
F0.01607203483581543
sg358
F0.09600591659545898
sg359
I3
sg360
I3
sa(dp362
g356
I0
sg357
F0.00013303756713867188
sg358
F0.00036597251892089844
sg359
I2
sg360
I2
sasS'total_cqs'
p363
I5
ssI45
(dp364
S'iters'
p365
I2
sS'meta'
p366
(lp367
(dp368
S'objective'
p369
I1
sS'query_time'
p370
F0.043768882751464844
sS'comp_time'
p371
F0.0005950927734375
sS'exec_cq'
p372
I5
sS'total_cq'
p373
I5
sa(dp374
g369
I0
sg370
F0.00013399124145507812
sg371
F0.0005991458892822266
sg372
I2
sg373
I2
sasS'total_cqs'
p375
I5
ssI48
(dp376
S'iters'
p377
I1
sS'meta'
p378
(lp379
(dp380
S'objective'
p381
I0
sS'query_time'
p382
F0.10856103897094727
sS'comp_time'
p383
F0.006645917892456055
sS'exec_cq'
p384
I2
sS'total_cq'
p385
I2
sasS'total_cqs'
p386
I2
ssI49
(dp387
S'iters'
p388
I3
sS'meta'
p389
(lp390
(dp391
S'objective'
p392
I1
sS'query_time'
p393
F0.23491501808166504
sS'comp_time'
p394
F0.006031990051269531
sS'exec_cq'
p395
I5
sS'total_cq'
p396
I5
sa(dp397
g392
I1
sg393
F0.0002942085266113281
sg394
F0.0012240409851074219
sg395
I3
sg396
I3
sa(dp398
g392
I0
sg393
F2.288818359375e-05
sg394
F0.00010132789611816406
sg395
I2
sg396
I2
sasS'total_cqs'
p399
I5
ssI50
(dp400
S'iters'
p401
I2
sS'meta'
p402
(lp403
(dp404
S'objective'
p405
I3
sS'query_time'
p406
F0.83030104637146
sS'comp_time'
p407
F0.0009770393371582031
sS'exec_cq'
p408
I5
sS'total_cq'
p409
I5
sa(dp410
g405
I2
sg406
F0.00011706352233886719
sg407
F0.0006871223449707031
sg408
I4
sg409
I4
sasS'total_cqs'
p411
I5
ssI55
(dp412
S'iters'
p413
I1
sS'meta'
p414
(lp415
(dp416
S'objective'
p417
I0
sS'query_time'
p418
F26.60493516921997
sS'comp_time'
p419
F3.7564942836761475
sS'exec_cq'
p420
I2
sS'total_cq'
p421
I2
sasS'total_cqs'
p422
I2
ssI57
(dp423
S'iters'
p424
I1
sS'meta'
p425
(lp426
(dp427
S'objective'
p428
I1
sS'query_time'
p429
F13.910431146621704
sS'comp_time'
p430
F1.6266777515411377
sS'exec_cq'
p431
I3
sS'total_cq'
p432
I3
sasS'total_cqs'
p433
I3
ssI116
(dp434
S'iters'
p435
I3
sS'meta'
p436
(lp437
(dp438
S'objective'
p439
I15
sS'query_time'
p440
F5.69021201133728
sS'comp_time'
p441
F0.3133370876312256
sS'exec_cq'
p442
I21
sS'total_cq'
p443
I21
sa(dp444
g439
I1
sg440
F0.0033800601959228516
sg441
F0.00545191764831543
sg442
I3
sg443
I3
sa(dp445
g439
I0
sg440
F0.0009441375732421875
sg441
F0.003020048141479492
sg442
I2
sg443
I2
sasS'total_cqs'
p446
I21
ssI117
(dp447
S'iters'
p448
I1
sS'meta'
p449
(lp450
(dp451
S'objective'
p452
I3
sS'query_time'
p453
F0.016506195068359375
sS'comp_time'
p454
F0.00010895729064941406
sS'exec_cq'
p455
I5
sS'total_cq'
p456
I5
sasS'total_cqs'
p457
I5
ss.