(dp0
I1
(dp1
S'iters'
p2
I3
sS'meta'
p3
(lp4
(dp5
S'objective'
p6
I1
sS'query_time'
p7
F18.0483660697937
sS'comp_time'
p8
F0.7558469772338867
sS'exec_cq'
p9
I3
sS'total_cq'
p10
I6
sa(dp11
g6
I2
sg7
F24.616156101226807
sg8
F0.0029649734497070312
sg9
I1
sg10
I4
sa(dp12
g6
I0
sg7
F29.89691710472107
sg8
F2.3000619411468506
sg9
I2
sg10
I3
sasS'total_cqs'
p13
I6
ssI2
(dp14
S'iters'
p15
I1
sS'meta'
p16
(lp17
(dp18
S'objective'
p19
I15
sS'query_time'
p20
F1.0589828491210938
sS'comp_time'
p21
F0.2650582790374756
sS'exec_cq'
p22
I5
sS'total_cq'
p23
I6
sasS'total_cqs'
p24
I6
ssI3
(dp25
S'iters'
p26
I13
sS'meta'
p27
(lp28
(dp29
S'objective'
p30
I377
sS'query_time'
p31
F26.618382930755615
sS'comp_time'
p32
F0.36483073234558105
sS'exec_cq'
p33
I15
sS'total_cq'
p34
I33
sa(dp35
g30
I357
sg31
F0.38120102882385254
sg32
F0.019689083099365234
sg33
I13
sg34
I30
sa(dp36
g30
I307
sg31
F0.0033011436462402344
sg32
F0.02115011215209961
sg33
I10
sg34
I27
sa(dp37
g30
I270
sg31
F0.01277613639831543
sg32
F0.14655804634094238
sg33
I12
sg34
I24
sa(dp38
g30
I225
sg31
F0.00426483154296875
sg32
F0.020130634307861328
sg33
I7
sg34
I21
sa(dp39
g30
I186
sg31
F0.010486125946044922
sg32
F0.1256711483001709
sg33
I9
sg34
I18
sa(dp40
g30
I168
sg31
F0.18831706047058105
sg32
F0.019935131072998047
sg33
I5
sg34
I15
sa(dp41
g30
I144
sg31
F0.002476930618286133
sg32
F0.021380186080932617
sg33
I4
sg34
I14
sa(dp42
g30
I89
sg31
F0.0028798580169677734
sg32
F0.07886195182800293
sg33
I4
sg34
I13
sa(dp43
g30
I66
sg31
F0.0008471012115478516
sg32
F0.005876302719116211
sg33
I6
sg34
I11
sa(dp44
g30
I54
sg31
F0.00308990478515625
sg32
F0.015607118606567383
sg33
I3
sg34
I8
sa(dp45
g30
I54
sg31
F0.00015497207641601562
sg32
F0.0011496543884277344
sg33
I3
sg34
I7
sa(dp46
g30
I45
sg31
F0.002313852310180664
sg32
F0.015091419219970703
sg33
I2
sg34
I6
sasS'total_cqs'
p47
I33
ssI4
(dp48
S'iters'
p49
I0
sS'meta'
p50
(lp51
sS'total_cqs'
p52
I1
ssI5
(dp53
S'iters'
p54
I0
sS'meta'
p55
(lp56
sS'total_cqs'
p57
I1
ssI6
(dp58
S'iters'
p59
I2
sS'meta'
p60
(lp61
(dp62
S'objective'
p63
I1
sS'query_time'
p64
F15.400254011154175
sS'comp_time'
p65
F0.007075071334838867
sS'exec_cq'
p66
I4
sS'total_cq'
p67
I5
sa(dp68
g63
I2
sg64
F5.698204040527344e-05
sg65
F0.0004200935363769531
sg66
I1
sg67
I2
sasS'total_cqs'
p69
I5
ssI7
(dp70
S'iters'
p71
I0
sS'meta'
p72
(lp73
sS'total_cqs'
p74
I1
ssI8
(dp75
S'iters'
p76
I4
sS'meta'
p77
(lp78
(dp79
S'objective'
p80
I17
sS'query_time'
p81
F23.625874996185303
sS'comp_time'
p82
F0.299191951751709
sS'exec_cq'
p83
I5
sS'total_cq'
p84
I6
sa(dp85
g80
I7
sg81
F1.675414800643921
sg82
F1.573206901550293
sg83
I4
sg84
I5
sa(dp86
g80
I5
sg81
F0.0022110939025878906
sg82
F0.0020325183868408203
sg83
I3
sg84
I4
sa(dp87
g80
I3
sg81
F0.001604318618774414
sg82
F0.0014750957489013672
sg83
I2
sg84
I3
sasS'total_cqs'
p88
I6
ssI9
(dp89
S'iters'
p90
I3
sS'meta'
p91
(lp92
(dp93
S'objective'
p94
I3
sS'query_time'
p95
F11.531217813491821
sS'comp_time'
p96
F0.5911703109741211
sS'exec_cq'
p97
I3
sS'total_cq'
p98
I6
sa(dp99
g94
I2
sg95
F0.05639195442199707
sg96
F0.550896406173706
sg97
I3
sg98
I3
sa(dp100
g94
I1
sg95
F0.010879993438720703
sg96
F0.05537676811218262
sg97
I2
sg98
I2
sasS'total_cqs'
p101
I6
ssI10
(dp102
S'iters'
p103
I0
sS'meta'
p104
(lp105
sS'total_cqs'
p106
I1
ssI11
(dp107
S'iters'
p108
I0
sS'meta'
p109
(lp110
sS'total_cqs'
p111
I1
ssI12
(dp112
S'iters'
p113
I0
sS'meta'
p114
(lp115
sS'total_cqs'
p116
I1
ssI13
(dp117
S'iters'
p118
I2
sS'meta'
p119
(lp120
(dp121
S'objective'
p122
I22
sS'query_time'
p123
F0.01660299301147461
sS'comp_time'
p124
F0.007924795150756836
sS'exec_cq'
p125
I6
sS'total_cq'
p126
I8
sa(dp127
g122
I23
sg123
F3.0994415283203125e-05
sg124
F0.00011086463928222656
sg125
I5
sg126
I7
sasS'total_cqs'
p128
I8
ssI14
(dp129
S'iters'
p130
I3
sS'meta'
p131
(lp132
(dp133
S'objective'
p134
I5
sS'query_time'
p135
F0.8912479877471924
sS'comp_time'
p136
F0.0068247318267822266
sS'exec_cq'
p137
I5
sS'total_cq'
p138
I5
sa(dp139
g134
I2
sg135
F0.0004611015319824219
sg136
F0.0031778812408447266
sg137
I4
sg138
I4
sa(dp140
g134
I0
sg135
F0.0003638267517089844
sg136
F0.0030019283294677734
sg137
I3
sg138
I3
sasS'total_cqs'
p141
I5
ssI16
(dp142
S'iters'
p143
I3
sS'meta'
p144
(lp145
(dp146
S'objective'
p147
I1
sS'query_time'
p148
F1.451214075088501
sS'comp_time'
p149
F0.011497020721435547
sS'exec_cq'
p150
I4
sS'total_cq'
p151
I5
sa(dp152
g147
I0
sg148
F0.001786947250366211
sg149
F0.007188320159912109
sg150
I3
sg151
I3
sa(dp153
g147
I2
sg148
F0.0012090206146240234
sg149
F0.007342100143432617
sg150
I2
sg151
I2
sasS'total_cqs'
p154
I5
ssI17
(dp155
S'iters'
p156
I0
sS'meta'
p157
(lp158
sS'total_cqs'
p159
I1
ssI18
(dp160
S'iters'
p161
I3
sS'meta'
p162
(lp163
(dp164
S'objective'
p165
I3
sS'query_time'
p166
F0.19389104843139648
sS'comp_time'
p167
F0.00443577766418457
sS'exec_cq'
p168
I4
sS'total_cq'
p169
I5
sa(dp170
g165
I1
sg166
F3.0994415283203125e-05
sg167
F0.0002319812774658203
sg168
I2
sg169
I3
sa(dp171
g165
I1
sg166
F0.056036949157714844
sg167
F0.000209808349609375
sg168
I1
sg169
I2
sasS'total_cqs'
p172
I5
ssI19
(dp173
S'iters'
p174
I0
sS'meta'
p175
(lp176
sS'total_cqs'
p177
I1
ssI20
(dp178
S'iters'
p179
I5
sS'meta'
p180
(lp181
(dp182
S'objective'
p183
I40
sS'query_time'
p184
F9.186159133911133
sS'comp_time'
p185
F1.3614001274108887
sS'exec_cq'
p186
I6
sS'total_cq'
p187
I12
sa(dp188
g183
I23
sg184
F0.22451996803283691
sg185
F1.2985527515411377
sg186
I4
sg187
I10
sa(dp189
g183
I17
sg184
F4.284466981887817
sg185
F0.4327356815338135
sg186
I4
sg187
I8
sa(dp190
g183
I15
sg184
F0.07044696807861328
sg185
F1.038323163986206
sg186
I2
sg187
I6
sa(dp191
g183
I14
sg184
F0.09594082832336426
sg185
F0.004181385040283203
sg186
I3
sg187
I5
sasS'total_cqs'
p192
I12
ssI21
(dp193
S'iters'
p194
I5
sS'meta'
p195
(lp196
(dp197
S'objective'
p198
I79
sS'query_time'
p199
F30.461271047592163
sS'comp_time'
p200
F0.25446510314941406
sS'exec_cq'
p201
I8
sS'total_cq'
p202
I14
sa(dp203
g198
I8
sg199
F29.863557815551758
sg200
F2.115856885910034
sg201
I4
sg202
I10
sa(dp204
g198
I8
sg199
F0.009497880935668945
sg200
F0.0717613697052002
sg201
I4
sg202
I6
sa(dp205
g198
I1
sg199
F0.25660204887390137
sg200
F0.14967823028564453
sg201
I1
sg202
I4
sa(dp206
g198
I5
sg199
F0.001168966293334961
sg200
F0.008835077285766602
sg201
I2
sg202
I3
sasS'total_cqs'
p207
I14
ssI22
(dp208
S'iters'
p209
I1
sS'meta'
p210
(lp211
(dp212
S'objective'
p213
I1
sS'query_time'
p214
F0.018970012664794922
sS'comp_time'
p215
F0.0015740394592285156
sS'exec_cq'
p216
I1
sS'total_cq'
p217
I2
sasS'total_cqs'
p218
I2
ssI23
(dp219
S'iters'
p220
I0
sS'meta'
p221
(lp222
sS'total_cqs'
p223
I1
ssI24
(dp224
S'iters'
p225
I0
sS'meta'
p226
(lp227
sS'total_cqs'
p228
I1
ssI25
(dp229
S'iters'
p230
I4
sS'meta'
p231
(lp232
(dp233
S'objective'
p234
I6
sS'query_time'
p235
F47.98167109489441
sS'comp_time'
p236
F4.988775968551636
sS'exec_cq'
p237
I4
sS'total_cq'
p238
I7
sa(dp239
g234
I3
sg235
F0.01593184471130371
sg236
F0.06580400466918945
sg237
I2
sg238
I5
sa(dp240
g234
I0
sg235
F4.713325023651123
sg236
F0.3359260559082031
sg237
I2
sg238
I4
sa(dp241
g234
I1
sg235
F0.00828409194946289
sg236
F0.061717987060546875
sg237
I1
sg238
I2
sasS'total_cqs'
p242
I7
ssI26
(dp243
S'iters'
p244
I7
sS'meta'
p245
(lp246
(dp247
S'objective'
p248
I45
sS'query_time'
p249
F0.25292205810546875
sS'comp_time'
p250
F0.05526614189147949
sS'exec_cq'
p251
I4
sS'total_cq'
p252
I13
sa(dp253
g248
I28
sg249
F5.167643070220947
sg250
F0.023493528366088867
sg251
I2
sg252
I11
sa(dp254
g248
I32
sg249
F21.821622848510742
sg250
F5.5666184425354
sg251
I3
sg252
I9
sa(dp255
g248
I8
sg249
F0.01346898078918457
sg250
F0.0001709461212158203
sg251
I2
sg252
I8
sa(dp256
g248
I10
sg249
F0.0005161762237548828
sg250
F0.0032279491424560547
sg251
I2
sg252
I6
sa(dp257
g248
I5
sg249
F0.022769927978515625
sg250
F0.0016665458679199219
sg251
I1
sg252
I5
sa(dp258
g248
I1
sg249
F0.0019431114196777344
sg250
F5.936622619628906e-05
sg251
I1
sg252
I4
sasS'total_cqs'
p259
I13
ssI27
(dp260
S'iters'
p261
I1
sS'meta'
p262
(lp263
(dp264
S'objective'
p265
I1
sS'query_time'
p266
F0.18748998641967773
sS'comp_time'
p267
F0.007479667663574219
sS'exec_cq'
p268
I1
sS'total_cq'
p269
I2
sasS'total_cqs'
p270
I2
ssI28
(dp271
S'iters'
p272
I9
sS'meta'
p273
(lp274
(dp275
S'objective'
p276
I57
sS'query_time'
p277
F1.477895975112915
sS'comp_time'
p278
F0.10004305839538574
sS'exec_cq'
p279
I6
sS'total_cq'
p280
I14
sa(dp281
g276
I53
sg277
F0.0034749507904052734
sg278
F0.02658677101135254
sg279
I3
sg280
I11
sa(dp282
g276
I47
sg277
F0.006123065948486328
sg278
F0.00015115737915039062
sg279
I2
sg280
I9
sa(dp283
g276
I29
sg277
F0.014491796493530273
sg278
F0.0009162425994873047
sg279
I1
sg280
I8
sa(dp284
g276
I21
sg277
F0.0001430511474609375
sg278
F0.0009732246398925781
sg279
I1
sg280
I7
sa(dp285
g276
I14
sg277
F1.0013580322265625e-05
sg278
F7.867813110351562e-05
sg279
I1
sg280
I6
sa(dp286
g276
I9
sg277
F0.018896102905273438
sg278
F0.0011441707611083984
sg279
I1
sg280
I5
sa(dp287
g276
I4
sg277
F0.062101125717163086
sg278
F0.0014491081237792969
sg279
I1
sg280
I4
sa(dp288
g276
I0
sg277
F0.003656148910522461
sg278
F0.0003509521484375
sg279
I1
sg280
I3
sasS'total_cqs'
p289
I14
ssI29
(dp290
S'iters'
p291
I1
sS'meta'
p292
(lp293
(dp294
S'objective'
p295
I1
sS'query_time'
p296
F0.014089107513427734
sS'comp_time'
p297
F0.0016160011291503906
sS'exec_cq'
p298
I2
sS'total_cq'
p299
I2
sasS'total_cqs'
p300
I2
ssI30
(dp301
S'iters'
p302
I1
sS'meta'
p303
(lp304
(dp305
S'objective'
p306
I1
sS'query_time'
p307
F0.3037068843841553
sS'comp_time'
p308
F0.004597902297973633
sS'exec_cq'
p309
I2
sS'total_cq'
p310
I2
sasS'total_cqs'
p311
I2
ssI31
(dp312
S'iters'
p313
I4
sS'meta'
p314
(lp315
(dp316
S'objective'
p317
I11
sS'query_time'
p318
F4.439557075500488
sS'comp_time'
p319
F0.2715580463409424
sS'exec_cq'
p320
I4
sS'total_cq'
p321
I9
sa(dp322
g317
I4
sg318
F1.4698421955108643
sg319
F0.11701369285583496
sg320
I5
sg321
I7
sa(dp323
g317
I2
sg318
F0.008148193359375
sg319
F0.050605058670043945
sg320
I3
sg321
I3
sa(dp324
g317
I1
sg318
F0.008000850677490234
sg319
F0.044356346130371094
sg320
I2
sg321
I2
sasS'total_cqs'
p325
I9
ssI32
(dp326
S'iters'
p327
I4
sS'meta'
p328
(lp329
(dp330
S'objective'
p331
I2
sS'query_time'
p332
F20.950812101364136
sS'comp_time'
p333
F4.997734069824219
sS'exec_cq'
p334
I4
sS'total_cq'
p335
I7
sa(dp336
g331
I5
sg332
F0.6661629676818848
sg333
F2.9122660160064697
sg334
I2
sg335
I5
sa(dp337
g331
I2
sg332
F0.3938729763031006
sg333
F2.4820806980133057
sg334
I1
sg335
I4
sa(dp338
g331
I0
sg332
F0.9876039028167725
sg333
F0.021420001983642578
sg334
I2
sg335
I3
sasS'total_cqs'
p339
I7
ssI33
(dp340
S'iters'
p341
I1
sS'meta'
p342
(lp343
(dp344
S'objective'
p345
I1
sS'query_time'
p346
F0.02715301513671875
sS'comp_time'
p347
F0.0018413066864013672
sS'exec_cq'
p348
I2
sS'total_cq'
p349
I2
sasS'total_cqs'
p350
I2
ssI34
(dp351
S'iters'
p352
I0
sS'meta'
p353
(lp354
sS'total_cqs'
p355
I1
ssI35
(dp356
S'iters'
p357
I2
sS'meta'
p358
(lp359
(dp360
S'objective'
p361
I1
sS'query_time'
p362
F14.183138132095337
sS'comp_time'
p363
F0.2709817886352539
sS'exec_cq'
p364
I4
sS'total_cq'
p365
I5
sa(dp366
g361
I2
sg362
F0.07820796966552734
sg363
F0.06477022171020508
sg364
I2
sg365
I2
sasS'total_cqs'
p367
I5
ssI37
(dp368
S'iters'
p369
I2
sS'meta'
p370
(lp371
(dp372
S'objective'
p373
I27
sS'query_time'
p374
F0.561506986618042
sS'comp_time'
p375
F0.08975410461425781
sS'exec_cq'
p376
I4
sS'total_cq'
p377
I10
sa(dp378
g373
I6
sg374
F0.005121946334838867
sg375
F0.024217844009399414
sg376
I2
sg377
I2
sasS'total_cqs'
p379
I10
ssI38
(dp380
S'iters'
p381
I0
sS'meta'
p382
(lp383
sS'total_cqs'
p384
I1
ssI39
(dp385
S'iters'
p386
I0
sS'meta'
p387
(lp388
sS'total_cqs'
p389
I1
ssI40
(dp390
S'iters'
p391
I1
sS'meta'
p392
(lp393
(dp394
S'objective'
p395
I1
sS'query_time'
p396
F0.004987001419067383
sS'comp_time'
p397
F0.005696296691894531
sS'exec_cq'
p398
I1
sS'total_cq'
p399
I2
sasS'total_cqs'
p400
I2
ssI41
(dp401
S'iters'
p402
I3
sS'meta'
p403
(lp404
(dp405
S'objective'
p406
I7
sS'query_time'
p407
F10.346461057662964
sS'comp_time'
p408
F1.8585450649261475
sS'exec_cq'
p409
I3
sS'total_cq'
p410
I6
sa(dp411
g406
I0
sg407
F0.7847819328308105
sg408
F0.004191160202026367
sg409
I2
sg410
I4
sa(dp412
g406
I1
sg407
F0.0006301403045654297
sg408
F0.0036170482635498047
sg409
I2
sg410
I2
sasS'total_cqs'
p413
I6
ssI42
(dp414
S'iters'
p415
I1
sS'meta'
p416
(lp417
(dp418
S'objective'
p419
I1
sS'query_time'
p420
F0.027580976486206055
sS'comp_time'
p421
F0.0012197494506835938
sS'exec_cq'
p422
I1
sS'total_cq'
p423
I2
sasS'total_cqs'
p424
I2
ssI43
(dp425
S'iters'
p426
I0
sS'meta'
p427
(lp428
sS'total_cqs'
p429
I1
ssI44
(dp430
S'iters'
p431
I3
sS'meta'
p432
(lp433
(dp434
S'objective'
p435
I5
sS'query_time'
p436
F1.4154250621795654
sS'comp_time'
p437
F0.21645116806030273
sS'exec_cq'
p438
I2
sS'total_cq'
p439
I5
sa(dp440
g435
I2
sg436
F0.2027280330657959
sg437
F0.0014941692352294922
sg438
I2
sg439
I4
sa(dp441
g435
I2
sg436
F7.510185241699219e-05
sg437
F0.0003807544708251953
sg438
I1
sg439
I2
sasS'total_cqs'
p442
I5
ssI45
(dp443
S'iters'
p444
I2
sS'meta'
p445
(lp446
(dp447
S'objective'
p448
I1
sS'query_time'
p449
F0.031646013259887695
sS'comp_time'
p450
F0.0028820037841796875
sS'exec_cq'
p451
I3
sS'total_cq'
p452
I5
sa(dp453
g448
I2
sg449
F0.00015807151794433594
sg450
F0.07045984268188477
sg451
I2
sg452
I2
sasS'total_cqs'
p454
I5
ssI46
(dp455
S'iters'
p456
I0
sS'meta'
p457
(lp458
sS'total_cqs'
p459
I1
ssI47
(dp460
S'iters'
p461
I0
sS'meta'
p462
(lp463
sS'total_cqs'
p464
I1
ssI48
(dp465
S'iters'
p466
I1
sS'meta'
p467
(lp468
(dp469
S'objective'
p470
I1
sS'query_time'
p471
F0.08245301246643066
sS'comp_time'
p472
F0.006552696228027344
sS'exec_cq'
p473
I2
sS'total_cq'
p474
I2
sasS'total_cqs'
p475
I2
ssI49
(dp476
S'iters'
p477
I2
sS'meta'
p478
(lp479
(dp480
S'objective'
p481
I1
sS'query_time'
p482
F0.22743606567382812
sS'comp_time'
p483
F0.00656890869140625
sS'exec_cq'
p484
I4
sS'total_cq'
p485
I5
sa(dp486
g481
I1
sg482
F0.0003859996795654297
sg483
F0.0021610260009765625
sg484
I2
sg485
I2
sasS'total_cqs'
p487
I5
ssI50
(dp488
S'iters'
p489
I3
sS'meta'
p490
(lp491
(dp492
S'objective'
p493
I5
sS'query_time'
p494
F0.5861270427703857
sS'comp_time'
p495
F0.0034360885620117188
sS'exec_cq'
p496
I5
sS'total_cq'
p497
I5
sa(dp498
g493
I2
sg494
F0.00014400482177734375
sg495
F0.0011420249938964844
sg496
I4
sg497
I4
sa(dp499
g493
I0
sg494
F0.00013017654418945312
sg495
F0.0009481906890869141
sg496
I3
sg497
I3
sasS'total_cqs'
p500
I5
ssI51
(dp501
S'iters'
p502
I0
sS'meta'
p503
(lp504
sS'total_cqs'
p505
I1
ssI52
(dp506
S'iters'
p507
I0
sS'meta'
p508
(lp509
sS'total_cqs'
p510
I1
ssI53
(dp511
S'iters'
p512
I0
sS'meta'
p513
(lp514
sS'total_cqs'
p515
I1
ssI55
(dp516
S'iters'
p517
I1
sS'meta'
p518
(lp519
(dp520
S'objective'
p521
I1
sS'query_time'
p522
F24.622481107711792
sS'comp_time'
p523
F2.727487564086914
sS'exec_cq'
p524
I2
sS'total_cq'
p525
I2
sasS'total_cqs'
p526
I2
ssI56
(dp527
S'iters'
p528
I0
sS'meta'
p529
(lp530
sS'total_cqs'
p531
I1
ssI57
(dp532
S'iters'
p533
I2
sS'meta'
p534
(lp535
(dp536
S'objective'
p537
I0
sS'query_time'
p538
F12.608275890350342
sS'comp_time'
p539
F2.4507269859313965
sS'exec_cq'
p540
I2
sS'total_cq'
p541
I3
sa(dp542
g537
I1
sg538
F0.43642616271972656
sg539
F1.9130053520202637
sg540
I1
sg541
I2
sasS'total_cqs'
p543
I3
ssI108
(dp544
S'iters'
p545
I0
sS'meta'
p546
(lp547
sS'total_cqs'
p548
I1
ssI109
(dp549
S'iters'
p550
I0
sS'meta'
p551
(lp552
sS'total_cqs'
p553
I1
ssI116
(dp554
S'iters'
p555
I4
sS'meta'
p556
(lp557
(dp558
S'objective'
p559
I175
sS'query_time'
p560
F3.9785072803497314
sS'comp_time'
p561
F0.520068883895874
sS'exec_cq'
p562
I15
sS'total_cq'
p563
I21
sa(dp564
g559
I177
sg560
F0.07413220405578613
sg561
F0.00244140625
sg562
I14
sg563
I19
sa(dp565
g559
I172
sg560
F0.5557849407196045
sg561
F0.004864692687988281
sg562
I16
sg563
I18
sa(dp566
g559
I5
sg560
F0.0009799003601074219
sg561
F0.005215883255004883
sg562
I2
sg563
I2
sasS'total_cqs'
p567
I21
ssI117
(dp568
S'iters'
p569
I2
sS'meta'
p570
(lp571
(dp572
S'objective'
p573
I11
sS'query_time'
p574
F0.007121086120605469
sS'comp_time'
p575
F0.0015788078308105469
sS'exec_cq'
p576
I3
sS'total_cq'
p577
I5
sa(dp578
g573
I7
sg574
F0.0019559860229492188
sg575
F0.00011110305786132812
sg576
I3
sg577
I4
sasS'total_cqs'
p579
I5
ssI118
(dp580
S'iters'
p581
I0
sS'meta'
p582
(lp583
sS'total_cqs'
p584
I1
ssI122
(dp585
S'iters'
p586
I0
sS'meta'
p587
(lp588
sS'total_cqs'
p589
I1
ss.