(dp0
I1
(dp1
S'iters'
p2
I2
sS'meta'
p3
(lp4
(dp5
S'objective'
p6
I5
sS'query_time'
p7
F47.79895901679993
sS'comp_time'
p8
F1.1992769241333008
sS'exec_cq'
p9
I5
sS'total_cq'
p10
I6
sa(dp11
g6
I4
sg7
F0.16826796531677246
sg8
F0.24040007591247559
sg9
I2
sg10
I2
sasS'total_cqs'
p12
I6
ssI2
(dp13
S'iters'
p14
I1
sS'meta'
p15
(lp16
(dp17
S'objective'
p18
I9
sS'query_time'
p19
F1.0857598781585693
sS'comp_time'
p20
F0.03678488731384277
sS'exec_cq'
p21
I5
sS'total_cq'
p22
I6
sasS'total_cqs'
p23
I6
ssI3
(dp24
S'iters'
p25
I10
sS'meta'
p26
(lp27
(dp28
S'objective'
p29
I419
sS'query_time'
p30
F26.603679895401
sS'comp_time'
p31
F0.22938942909240723
sS'exec_cq'
p32
I28
sS'total_cq'
p33
I33
sa(dp34
g29
I350
sg30
F0.3153529167175293
sg31
F0.1745741367340088
sg32
I30
sg33
I30
sa(dp35
g29
I284
sg30
F0.04067111015319824
sg31
F0.2873859405517578
sg32
I27
sg33
I27
sa(dp36
g29
I236
sg30
F0.04472804069519043
sg31
F0.24940800666809082
sg32
I24
sg33
I24
sa(dp37
g29
I192
sg30
F0.037690162658691406
sg31
F0.17580699920654297
sg32
I21
sg33
I21
sa(dp38
g29
I147
sg30
F0.0878291130065918
sg31
F0.1468348503112793
sg32
I17
sg33
I19
sa(dp39
g29
I115
sg30
F0.03481888771057129
sg31
F0.1537165641784668
sg32
I14
sg33
I16
sa(dp40
g29
I83
sg30
F0.016347169876098633
sg31
F0.12849783897399902
sg32
I11
sg33
I13
sa(dp41
g29
I59
sg30
F0.0032091140747070312
sg31
F0.0051860809326171875
sg32
I5
sg33
I10
sa(dp42
g29
I37
sg30
F0.005925178527832031
sg31
F0.010632753372192383
sg32
I6
sg33
I9
sasS'total_cqs'
p43
I33
ssI4
(dp44
S'iters'
p45
I0
sS'meta'
p46
(lp47
sS'total_cqs'
p48
I1
ssI5
(dp49
S'iters'
p50
I0
sS'meta'
p51
(lp52
sS'total_cqs'
p53
I1
ssI6
(dp54
S'iters'
p55
I2
sS'meta'
p56
(lp57
(dp58
S'objective'
p59
I3
sS'query_time'
p60
F15.273338079452515
sS'comp_time'
p61
F0.0032851696014404297
sS'exec_cq'
p62
I4
sS'total_cq'
p63
I5
sa(dp64
g59
I1
sg60
F0.012446880340576172
sg61
F0.002080678939819336
sg62
I3
sg63
I3
sasS'total_cqs'
p65
I5
ssI7
(dp66
S'iters'
p67
I0
sS'meta'
p68
(lp69
sS'total_cqs'
p70
I1
ssI8
(dp71
S'iters'
p72
I2
sS'meta'
p73
(lp74
(dp75
S'objective'
p76
I11
sS'query_time'
p77
F23.397799015045166
sS'comp_time'
p78
F0.07601380348205566
sS'exec_cq'
p79
I5
sS'total_cq'
p80
I6
sa(dp81
g76
I4
sg77
F0.09236788749694824
sg78
F0.00011682510375976562
sg79
I4
sg80
I5
sasS'total_cqs'
p82
I6
ssI9
(dp83
S'iters'
p84
I2
sS'meta'
p85
(lp86
(dp87
S'objective'
p88
I1
sS'query_time'
p89
F12.130374908447266
sS'comp_time'
p90
F0.1392822265625
sS'exec_cq'
p91
I3
sS'total_cq'
p92
I6
sa(dp93
g88
I1
sg89
F0.060975074768066406
sg90
F0.18590021133422852
sg91
I2
sg92
I2
sasS'total_cqs'
p94
I6
ssI10
(dp95
S'iters'
p96
I0
sS'meta'
p97
(lp98
sS'total_cqs'
p99
I1
ssI11
(dp100
S'iters'
p101
I0
sS'meta'
p102
(lp103
sS'total_cqs'
p104
I1
ssI12
(dp105
S'iters'
p106
I0
sS'meta'
p107
(lp108
sS'total_cqs'
p109
I1
ssI13
(dp110
S'iters'
p111
I1
sS'meta'
p112
(lp113
(dp114
S'objective'
p115
I22
sS'query_time'
p116
F0.014688968658447266
sS'comp_time'
p117
F0.007646083831787109
sS'exec_cq'
p118
I6
sS'total_cq'
p119
I8
sasS'total_cqs'
p120
I8
ssI14
(dp121
S'iters'
p122
I1
sS'meta'
p123
(lp124
(dp125
S'objective'
p126
I5
sS'query_time'
p127
F1.1483979225158691
sS'comp_time'
p128
F0.0044820308685302734
sS'exec_cq'
p129
I5
sS'total_cq'
p130
I5
sasS'total_cqs'
p131
I5
ssI16
(dp132
S'iters'
p133
I2
sS'meta'
p134
(lp135
(dp136
S'objective'
p137
I1
sS'query_time'
p138
F1.3400599956512451
sS'comp_time'
p139
F0.00584101676940918
sS'exec_cq'
p140
I4
sS'total_cq'
p141
I5
sa(dp142
g137
I2
sg138
F4.100799560546875e-05
sg139
F0.00021219253540039062
sg140
I2
sg141
I3
sasS'total_cqs'
p143
I5
ssI17
(dp144
S'iters'
p145
I0
sS'meta'
p146
(lp147
sS'total_cqs'
p148
I1
ssI18
(dp149
S'iters'
p150
I2
sS'meta'
p151
(lp152
(dp153
S'objective'
p154
I1
sS'query_time'
p155
F0.18862700462341309
sS'comp_time'
p156
F0.0041048526763916016
sS'exec_cq'
p157
I4
sS'total_cq'
p158
I5
sa(dp159
g154
I2
sg155
F4.1961669921875e-05
sg156
F0.00014090538024902344
sg157
I2
sg158
I3
sasS'total_cqs'
p160
I5
ssI19
(dp161
S'iters'
p162
I0
sS'meta'
p163
(lp164
sS'total_cqs'
p165
I1
ssI20
(dp166
S'iters'
p167
I3
sS'meta'
p168
(lp169
(dp170
S'objective'
p171
I40
sS'query_time'
p172
F13.54684591293335
sS'comp_time'
p173
F0.779944896697998
sS'exec_cq'
p174
I10
sS'total_cq'
p175
I12
sa(dp176
g171
I35
sg172
F0.25914430618286133
sg173
F0.5108537673950195
sg174
I8
sg175
I10
sa(dp177
g171
I27
sg172
F0.24914097785949707
sg173
F0.4066760540008545
sg174
I6
sg175
I8
sasS'total_cqs'
p178
I12
ssI21
(dp179
S'iters'
p180
I3
sS'meta'
p181
(lp182
(dp183
S'objective'
p184
I75
sS'query_time'
p185
F60.82606792449951
sS'comp_time'
p186
F0.7610156536102295
sS'exec_cq'
p187
I12
sS'total_cq'
p188
I14
sa(dp189
g184
I62
sg185
F0.09010100364685059
sg186
F0.0486750602722168
sg187
I8
sg188
I11
sa(dp190
g184
I52
sg185
F0.03863787651062012
sg186
F0.1319417953491211
sg187
I8
sg188
I10
sasS'total_cqs'
p191
I14
ssI22
(dp192
S'iters'
p193
I1
sS'meta'
p194
(lp195
(dp196
S'objective'
p197
I1
sS'query_time'
p198
F0.0341639518737793
sS'comp_time'
p199
F0.0013051033020019531
sS'exec_cq'
p200
I1
sS'total_cq'
p201
I2
sasS'total_cqs'
p202
I2
ssI23
(dp203
S'iters'
p204
I0
sS'meta'
p205
(lp206
sS'total_cqs'
p207
I1
ssI24
(dp208
S'iters'
p209
I0
sS'meta'
p210
(lp211
sS'total_cqs'
p212
I1
ssI25
(dp213
S'iters'
p214
I1
sS'meta'
p215
(lp216
(dp217
S'objective'
p218
I14
sS'query_time'
p219
F49.75740194320679
sS'comp_time'
p220
F1.8101222515106201
sS'exec_cq'
p221
I5
sS'total_cq'
p222
I7
sasS'total_cqs'
p223
I7
ssI26
(dp224
S'iters'
p225
I3
sS'meta'
p226
(lp227
(dp228
S'objective'
p229
I45
sS'query_time'
p230
F0.39321398735046387
sS'comp_time'
p231
F0.029976606369018555
sS'exec_cq'
p232
I6
sS'total_cq'
p233
I13
sa(dp234
g229
I42
sg230
F4.652371883392334
sg231
F0.0078051090240478516
sg232
I6
sg233
I11
sa(dp235
g229
I33
sg230
F21.442121982574463
sg231
F1.8766858577728271
sg232
I8
sg233
I9
sasS'total_cqs'
p236
I13
ssI27
(dp237
S'iters'
p238
I1
sS'meta'
p239
(lp240
(dp241
S'objective'
p242
I1
sS'query_time'
p243
F0.22536802291870117
sS'comp_time'
p244
F0.0017740726470947266
sS'exec_cq'
p245
I1
sS'total_cq'
p246
I2
sasS'total_cqs'
p247
I2
ssI28
(dp248
S'iters'
p249
I5
sS'meta'
p250
(lp251
(dp252
S'objective'
p253
I57
sS'query_time'
p254
F1.6286499500274658
sS'comp_time'
p255
F0.15988826751708984
sS'exec_cq'
p256
I6
sS'total_cq'
p257
I14
sa(dp258
g253
I47
sg254
F0.03705310821533203
sg255
F0.007540225982666016
sg256
I5
sg257
I11
sa(dp259
g253
I36
sg254
F0.02294611930847168
sg255
F0.00037789344787597656
sg256
I3
sg257
I9
sa(dp260
g253
I24
sg254
F2.5033950805664062e-05
sg255
F0.00012087821960449219
sg256
I2
sg257
I8
sa(dp261
g253
I13
sg254
F0.0029578208923339844
sg255
F4.744529724121094e-05
sg256
I1
sg257
I7
sasS'total_cqs'
p262
I14
ssI29
(dp263
S'iters'
p264
I1
sS'meta'
p265
(lp266
(dp267
S'objective'
p268
I1
sS'query_time'
p269
F0.01789402961730957
sS'comp_time'
p270
F0.001148223876953125
sS'exec_cq'
p271
I2
sS'total_cq'
p272
I2
sasS'total_cqs'
p273
I2
ssI30
(dp274
S'iters'
p275
I1
sS'meta'
p276
(lp277
(dp278
S'objective'
p279
I1
sS'query_time'
p280
F0.4077420234680176
sS'comp_time'
p281
F0.0026650428771972656
sS'exec_cq'
p282
I2
sS'total_cq'
p283
I2
sasS'total_cqs'
p284
I2
ssI31
(dp285
S'iters'
p286
I3
sS'meta'
p287
(lp288
(dp289
S'objective'
p290
I17
sS'query_time'
p291
F6.080681085586548
sS'comp_time'
p292
F0.08548402786254883
sS'exec_cq'
p293
I9
sS'total_cq'
p294
I9
sa(dp295
g290
I3
sg291
F0.009568929672241211
sg292
F0.017972946166992188
sg293
I5
sg294
I7
sa(dp296
g290
I2
sg291
F0.008820056915283203
sg292
F0.013102293014526367
sg293
I3
sg294
I3
sasS'total_cqs'
p297
I9
ssI32
(dp298
S'iters'
p299
I3
sS'meta'
p300
(lp301
(dp302
S'objective'
p303
I6
sS'query_time'
p304
F21.3475079536438
sS'comp_time'
p305
F1.8621938228607178
sS'exec_cq'
p306
I4
sS'total_cq'
p307
I7
sa(dp308
g303
I1
sg304
F1.1110491752624512
sg305
F0.002876758575439453
sg306
I2
sg307
I4
sa(dp309
g303
I6
sg304
F0.24967312812805176
sg305
F0.34165120124816895
sg306
I1
sg307
I2
sasS'total_cqs'
p310
I7
ssI33
(dp311
S'iters'
p312
I1
sS'meta'
p313
(lp314
(dp315
S'objective'
p316
I1
sS'query_time'
p317
F0.04014110565185547
sS'comp_time'
p318
F0.0022172927856445312
sS'exec_cq'
p319
I2
sS'total_cq'
p320
I2
sasS'total_cqs'
p321
I2
ssI34
(dp322
S'iters'
p323
I0
sS'meta'
p324
(lp325
sS'total_cqs'
p326
I1
ssI35
(dp327
S'iters'
p328
I2
sS'meta'
p329
(lp330
(dp331
S'objective'
p332
I1
sS'query_time'
p333
F13.494343996047974
sS'comp_time'
p334
F0.10554862022399902
sS'exec_cq'
p335
I4
sS'total_cq'
p336
I5
sa(dp337
g332
I3
sg333
F0.015494108200073242
sg334
F0.12862801551818848
sg335
I2
sg336
I2
sasS'total_cqs'
p338
I5
ssI37
(dp339
S'iters'
p340
I2
sS'meta'
p341
(lp342
(dp343
S'objective'
p344
I25
sS'query_time'
p345
F1.7277390956878662
sS'comp_time'
p346
F0.12245440483093262
sS'exec_cq'
p347
I8
sS'total_cq'
p348
I10
sa(dp349
g344
I3
sg345
F0.003098011016845703
sg346
F0.08307933807373047
sg347
I2
sg348
I2
sasS'total_cqs'
p350
I10
ssI38
(dp351
S'iters'
p352
I0
sS'meta'
p353
(lp354
sS'total_cqs'
p355
I1
ssI39
(dp356
S'iters'
p357
I0
sS'meta'
p358
(lp359
sS'total_cqs'
p360
I1
ssI40
(dp361
S'iters'
p362
I1
sS'meta'
p363
(lp364
(dp365
S'objective'
p366
I1
sS'query_time'
p367
F0.0032401084899902344
sS'comp_time'
p368
F0.0004849433898925781
sS'exec_cq'
p369
I1
sS'total_cq'
p370
I2
sasS'total_cqs'
p371
I2
ssI41
(dp372
S'iters'
p373
I2
sS'meta'
p374
(lp375
(dp376
S'objective'
p377
I1
sS'query_time'
p378
F0.9863300323486328
sS'comp_time'
p379
F0.0035407543182373047
sS'exec_cq'
p380
I2
sS'total_cq'
p381
I6
sa(dp382
g377
I1
sg378
F0.0006589889526367188
sg379
F0.0009639263153076172
sg380
I2
sg381
I2
sasS'total_cqs'
p383
I6
ssI42
(dp384
S'iters'
p385
I1
sS'meta'
p386
(lp387
(dp388
S'objective'
p389
I1
sS'query_time'
p390
F0.008903980255126953
sS'comp_time'
p391
F0.0005292892456054688
sS'exec_cq'
p392
I1
sS'total_cq'
p393
I2
sasS'total_cqs'
p394
I2
ssI43
(dp395
S'iters'
p396
I0
sS'meta'
p397
(lp398
sS'total_cqs'
p399
I1
ssI44
(dp400
S'iters'
p401
I1
sS'meta'
p402
(lp403
(dp404
S'objective'
p405
I5
sS'query_time'
p406
F1.2391653060913086
sS'comp_time'
p407
F0.03473806381225586
sS'exec_cq'
p408
I3
sS'total_cq'
p409
I5
sasS'total_cqs'
p410
I5
ssI45
(dp411
S'iters'
p412
I2
sS'meta'
p413
(lp414
(dp415
S'objective'
p416
I1
sS'query_time'
p417
F0.04118514060974121
sS'comp_time'
p418
F0.0020148754119873047
sS'exec_cq'
p419
I3
sS'total_cq'
p420
I5
sa(dp421
g416
I2
sg417
F0.00015020370483398438
sg418
F0.0001995563507080078
sg419
I2
sg420
I2
sasS'total_cqs'
p422
I5
ssI46
(dp423
S'iters'
p424
I0
sS'meta'
p425
(lp426
sS'total_cqs'
p427
I1
ssI47
(dp428
S'iters'
p429
I0
sS'meta'
p430
(lp431
sS'total_cqs'
p432
I1
ssI48
(dp433
S'iters'
p434
I1
sS'meta'
p435
(lp436
(dp437
S'objective'
p438
I1
sS'query_time'
p439
F0.17430400848388672
sS'comp_time'
p440
F0.0042781829833984375
sS'exec_cq'
p441
I2
sS'total_cq'
p442
I2
sasS'total_cqs'
p443
I2
ssI49
(dp444
S'iters'
p445
I2
sS'meta'
p446
(lp447
(dp448
S'objective'
p449
I1
sS'query_time'
p450
F0.23199892044067383
sS'comp_time'
p451
F0.004766225814819336
sS'exec_cq'
p452
I4
sS'total_cq'
p453
I5
sa(dp454
g449
I2
sg450
F0.00025200843811035156
sg451
F0.00047278404235839844
sg452
I2
sg453
I2
sasS'total_cqs'
p455
I5
ssI50
(dp456
S'iters'
p457
I1
sS'meta'
p458
(lp459
(dp460
S'objective'
p461
I5
sS'query_time'
p462
F0.5017521381378174
sS'comp_time'
p463
F0.006047248840332031
sS'exec_cq'
p464
I5
sS'total_cq'
p465
I5
sasS'total_cqs'
p466
I5
ssI51
(dp467
S'iters'
p468
I0
sS'meta'
p469
(lp470
sS'total_cqs'
p471
I1
ssI52
(dp472
S'iters'
p473
I0
sS'meta'
p474
(lp475
sS'total_cqs'
p476
I1
ssI53
(dp477
S'iters'
p478
I0
sS'meta'
p479
(lp480
sS'total_cqs'
p481
I1
ssI55
(dp482
S'iters'
p483
I1
sS'meta'
p484
(lp485
(dp486
S'objective'
p487
I1
sS'query_time'
p488
F24.05395221710205
sS'comp_time'
p489
F0.030005216598510742
sS'exec_cq'
p490
I2
sS'total_cq'
p491
I2
sasS'total_cqs'
p492
I2
ssI56
(dp493
S'iters'
p494
I0
sS'meta'
p495
(lp496
sS'total_cqs'
p497
I1
ssI57
(dp498
S'iters'
p499
I2
sS'meta'
p500
(lp501
(dp502
S'objective'
p503
I0
sS'query_time'
p504
F12.721477031707764
sS'comp_time'
p505
F0.8093588352203369
sS'exec_cq'
p506
I2
sS'total_cq'
p507
I3
sa(dp508
g503
I1
sg504
F0.24358510971069336
sg505
F0.3765699863433838
sg506
I1
sg507
I2
sasS'total_cqs'
p509
I3
ssI108
(dp510
S'iters'
p511
I0
sS'meta'
p512
(lp513
sS'total_cqs'
p514
I1
ssI109
(dp515
S'iters'
p516
I0
sS'meta'
p517
(lp518
sS'total_cqs'
p519
I1
ssI116
(dp520
S'iters'
p521
I3
sS'meta'
p522
(lp523
(dp524
S'objective'
p525
I157
sS'query_time'
p526
F3.79301381111145
sS'comp_time'
p527
F0.2830657958984375
sS'exec_cq'
p528
I9
sS'total_cq'
p529
I21
sa(dp530
g525
I132
sg526
F0.5008511543273926
sg527
F0.0007045269012451172
sg528
I14
sg529
I19
sa(dp531
g525
I3
sg526
F0.0006852149963378906
sg527
F0.0008814334869384766
sg528
I2
sg529
I2
sasS'total_cqs'
p532
I21
ssI117
(dp533
S'iters'
p534
I1
sS'meta'
p535
(lp536
(dp537
S'objective'
p538
I5
sS'query_time'
p539
F0.01330709457397461
sS'comp_time'
p540
F0.0019109249114990234
sS'exec_cq'
p541
I4
sS'total_cq'
p542
I5
sasS'total_cqs'
p543
I5
ssI118
(dp544
S'iters'
p545
I0
sS'meta'
p546
(lp547
sS'total_cqs'
p548
I1
ssI122
(dp549
S'iters'
p550
I0
sS'meta'
p551
(lp552
sS'total_cqs'
p553
I1
ss.