(dp0
I1
(dp1
S'iters'
p2
I3
sS'meta'
p3
(lp4
(dp5
S'objective'
p6
I17
sS'query_time'
p7
F25.205878019332886
sS'comp_time'
p8
F0.08114194869995117
sS'exec_cq'
p9
I6
sS'total_cq'
p10
I6
sa(dp11
g6
I9
sg7
F0.010375022888183594
sg8
F1.3901598453521729
sg9
I5
sg10
I5
sa(dp12
g6
I3
sg7
F0.009390115737915039
sg8
F235.0822639465332
sg9
I2
sg10
I2
sasS'total_cqs'
p13
I6
ssI2
(dp14
S'iters'
p15
I1
sS'meta'
p16
(lp17
(dp18
S'objective'
p19
I19
sS'query_time'
p20
F0.9001069068908691
sS'comp_time'
p21
F0.09574389457702637
sS'exec_cq'
p22
I6
sS'total_cq'
p23
I6
sasS'total_cqs'
p24
I6
ssI3
(dp25
S'iters'
p26
I16
sS'meta'
p27
(lp28
(dp29
S'objective'
p30
I421
sS'query_time'
p31
F26.500298023223877
sS'comp_time'
p32
F0.2558448314666748
sS'exec_cq'
p33
I33
sS'total_cq'
p34
I33
sa(dp35
g30
I363
sg31
F0.02809309959411621
sg32
F0.1871800422668457
sg33
I30
sg34
I30
sa(dp36
g30
I301
sg31
F0.02665996551513672
sg32
F0.1761608123779297
sg33
I27
sg34
I27
sa(dp37
g30
I260
sg31
F0.024544954299926758
sg32
F0.2110729217529297
sg33
I24
sg34
I24
sa(dp38
g30
I222
sg31
F0.01308584213256836
sg32
F0.11508893966674805
sg33
I21
sg34
I21
sa(dp39
g30
I191
sg31
F0.011983156204223633
sg32
F0.0990610122680664
sg33
I19
sg34
I19
sa(dp40
g30
I165
sg31
F0.010673046112060547
sg32
F0.09372115135192871
sg33
I16
sg34
I16
sa(dp41
g30
I133
sg31
F0.0070149898529052734
sg32
F0.03535294532775879
sg33
I13
sg34
I13
sa(dp42
g30
I105
sg31
F0.03893303871154785
sg32
F0.032171010971069336
sg33
I10
sg34
I10
sa(dp43
g30
I77
sg31
F0.0068759918212890625
sg32
F0.031126976013183594
sg33
I9
sg34
I9
sa(dp44
g30
I52
sg31
F0.02793598175048828
sg32
F0.01644587516784668
sg33
I8
sg34
I8
sa(dp45
g30
I31
sg31
F0.002711057662963867
sg32
F0.01627516746520996
sg33
I7
sg34
I7
sa(dp46
g30
I37
sg31
F0.0028569698333740234
sg32
F0.015351295471191406
sg33
I6
sg34
I6
sa(dp47
g30
I30
sg31
F0.0023279190063476562
sg32
F0.01510310173034668
sg33
I5
sg34
I5
sa(dp48
g30
I24
sg31
F0.02832508087158203
sg32
F0.014741182327270508
sg33
I4
sg34
I4
sa(dp49
g30
I29
sg31
F0.0020630359649658203
sg32
F0.011898040771484375
sg33
I3
sg34
I3
sasS'total_cqs'
p50
I33
ssI4
(dp51
S'iters'
p52
I0
sS'meta'
p53
(lp54
sS'total_cqs'
p55
I1
ssI5
(dp56
S'iters'
p57
I0
sS'meta'
p58
(lp59
sS'total_cqs'
p60
I1
ssI6
(dp61
S'iters'
p62
I3
sS'meta'
p63
(lp64
(dp65
S'objective'
p66
I1
sS'query_time'
p67
F14.985743999481201
sS'comp_time'
p68
F0.003484010696411133
sS'exec_cq'
p69
I5
sS'total_cq'
p70
I5
sa(dp71
g66
I1
sg67
F0.00121307373046875
sg68
F0.00392603874206543
sg69
I3
sg70
I3
sa(dp72
g66
I1
sg67
F0.00030303001403808594
sg68
F0.0015151500701904297
sg69
I2
sg70
I2
sasS'total_cqs'
p73
I5
ssI7
(dp74
S'iters'
p75
I0
sS'meta'
p76
(lp77
sS'total_cqs'
p78
I1
ssI8
(dp79
S'iters'
p80
I4
sS'meta'
p81
(lp82
(dp83
S'objective'
p84
I15
sS'query_time'
p85
F22.916361808776855
sS'comp_time'
p86
F0.23564696311950684
sS'exec_cq'
p87
I6
sS'total_cq'
p88
I6
sa(dp89
g84
I2
sg85
F0.21968293190002441
sg86
F0.21001386642456055
sg87
I5
sg88
I5
sa(dp90
g84
I2
sg85
F1.8101930618286133
sg86
F1.961867094039917
sg87
I3
sg88
I3
sa(dp91
g84
I1
sg85
F0.002897977828979492
sg86
F0.0011620521545410156
sg87
I2
sg88
I2
sasS'total_cqs'
p92
I6
ssI9
(dp93
S'iters'
p94
I3
sS'meta'
p95
(lp96
(dp97
S'objective'
p98
I1
sS'query_time'
p99
F53.00770378112793
sS'comp_time'
p100
F5.057240962982178
sS'exec_cq'
p101
I6
sS'total_cq'
p102
I6
sa(dp103
g98
I0
sg99
F0.07306098937988281
sg100
F0.5795927047729492
sg101
I3
sg102
I3
sa(dp104
g98
I3
sg99
F0.04068803787231445
sg100
F0.31464099884033203
sg101
I2
sg102
I2
sasS'total_cqs'
p105
I6
ssI10
(dp106
S'iters'
p107
I0
sS'meta'
p108
(lp109
sS'total_cqs'
p110
I1
ssI11
(dp111
S'iters'
p112
I0
sS'meta'
p113
(lp114
sS'total_cqs'
p115
I1
ssI12
(dp116
S'iters'
p117
I0
sS'meta'
p118
(lp119
sS'total_cqs'
p120
I1
ssI13
(dp121
S'iters'
p122
I2
sS'meta'
p123
(lp124
(dp125
S'objective'
p126
I26
sS'query_time'
p127
F0.032807111740112305
sS'comp_time'
p128
F0.0001537799835205078
sS'exec_cq'
p129
I8
sS'total_cq'
p130
I8
sa(dp131
g126
I29
sg127
F4.00543212890625e-05
sg128
F5.984306335449219e-05
sg129
I7
sg130
I7
sasS'total_cqs'
p132
I8
ssI14
(dp133
S'iters'
p134
I3
sS'meta'
p135
(lp136
(dp137
S'objective'
p138
I7
sS'query_time'
p139
F1.086925983428955
sS'comp_time'
p140
F0.0071489810943603516
sS'exec_cq'
p141
I5
sS'total_cq'
p142
I5
sa(dp143
g138
I5
sg139
F0.0006878376007080078
sg140
F0.0034608840942382812
sg141
I4
sg142
I4
sa(dp144
g138
I6
sg139
F0.0005218982696533203
sg140
F0.0028009414672851562
sg141
I3
sg142
I3
sasS'total_cqs'
p145
I5
ssI16
(dp146
S'iters'
p147
I3
sS'meta'
p148
(lp149
(dp150
S'objective'
p151
I1
sS'query_time'
p152
F1.552234172821045
sS'comp_time'
p153
F0.006623983383178711
sS'exec_cq'
p154
I5
sS'total_cq'
p155
I5
sa(dp156
g151
I2
sg152
F8.416175842285156e-05
sg153
F0.00035500526428222656
sg154
I3
sg155
I3
sa(dp157
g151
I1
sg152
F6.4849853515625e-05
sg153
F0.00032401084899902344
sg154
I2
sg155
I2
sasS'total_cqs'
p158
I5
ssI17
(dp159
S'iters'
p160
I0
sS'meta'
p161
(lp162
sS'total_cqs'
p163
I1
ssI18
(dp164
S'iters'
p165
I3
sS'meta'
p166
(lp167
(dp168
S'objective'
p169
I1
sS'query_time'
p170
F0.36666297912597656
sS'comp_time'
p171
F0.00032019615173339844
sS'exec_cq'
p172
I5
sS'total_cq'
p173
I5
sa(dp174
g169
I0
sg170
F5.3882598876953125e-05
sg171
F0.00015115737915039062
sg172
I3
sg173
I3
sa(dp175
g169
I2
sg170
F2.288818359375e-05
sg171
F9.989738464355469e-05
sg172
I2
sg173
I2
sasS'total_cqs'
p176
I5
ssI19
(dp177
S'iters'
p178
I0
sS'meta'
p179
(lp180
sS'total_cqs'
p181
I1
ssI20
(dp182
S'iters'
p183
I6
sS'meta'
p184
(lp185
(dp186
S'objective'
p187
I44
sS'query_time'
p188
F11.593247890472412
sS'comp_time'
p189
F1.2616920471191406
sS'exec_cq'
p190
I12
sS'total_cq'
p191
I12
sa(dp192
g187
I39
sg188
F0.2813138961791992
sg189
F1.0348100662231445
sg190
I10
sg191
I10
sa(dp193
g187
I30
sg188
F0.20830798149108887
sg189
F0.9360091686248779
sg190
I8
sg191
I8
sa(dp194
g187
I32
sg188
F0.25560498237609863
sg189
F0.954474925994873
sg190
I6
sg191
I6
sa(dp195
g187
I30
sg188
F0.1816699504852295
sg189
F0.4973330497741699
sg190
I5
sg191
I5
sa(dp196
g187
I31
sg188
F0.0008671283721923828
sg189
F0.0033278465270996094
sg190
I4
sg191
I4
sasS'total_cqs'
p197
I12
ssI21
(dp198
S'iters'
p199
I2
sS'meta'
p200
(lp201
(dp202
S'objective'
p203
I77
sS'query_time'
p204
F28.668792009353638
sS'comp_time'
p205
F0.22468018531799316
sS'exec_cq'
p206
I14
sS'total_cq'
p207
I14
sa(dp208
g203
I12
sg204
F0.004287004470825195
sg205
F0.02052903175354004
sg206
I2
sg207
I2
sasS'total_cqs'
p209
I14
ssI22
(dp210
S'iters'
p211
I1
sS'meta'
p212
(lp213
(dp214
S'objective'
p215
I1
sS'query_time'
p216
F0.00643610954284668
sS'comp_time'
p217
F0.00012612342834472656
sS'exec_cq'
p218
I2
sS'total_cq'
p219
I2
sasS'total_cqs'
p220
I2
ssI23
(dp221
S'iters'
p222
I0
sS'meta'
p223
(lp224
sS'total_cqs'
p225
I1
ssI24
(dp226
S'iters'
p227
I0
sS'meta'
p228
(lp229
sS'total_cqs'
p230
I1
ssI25
(dp231
S'iters'
p232
I3
sS'meta'
p233
(lp234
(dp235
S'objective'
p236
I6
sS'query_time'
p237
F50.71662998199463
sS'comp_time'
p238
F3.261399984359741
sS'exec_cq'
p239
I7
sS'total_cq'
p240
I7
sa(dp241
g236
I3
sg237
F0.012309074401855469
sg238
F0.4037740230560303
sg239
I5
sg240
I5
sa(dp242
g236
I8
sg237
F0.0020020008087158203
sg238
F0.012609004974365234
sg239
I3
sg240
I3
sasS'total_cqs'
p243
I7
ssI26
(dp244
S'iters'
p245
I9
sS'meta'
p246
(lp247
(dp248
S'objective'
p249
I47
sS'query_time'
p250
F24.850295066833496
sS'comp_time'
p251
F3.0353739261627197
sS'exec_cq'
p252
I13
sS'total_cq'
p253
I13
sa(dp254
g249
I45
sg250
F0.744204044342041
sg251
F3.1569738388061523
sg252
I11
sg253
I11
sa(dp255
g249
I35
sg250
F0.7559449672698975
sg251
F2.984485149383545
sg252
I10
sg253
I10
sa(dp256
g249
I26
sg250
F0.8275570869445801
sg251
F2.989175796508789
sg252
I9
sg253
I9
sa(dp257
g249
I16
sg250
F0.9345748424530029
sg251
F3.438469886779785
sg252
I8
sg253
I8
sa(dp258
g249
I6
sg250
F0.8919000625610352
sg251
F3.2957370281219482
sg252
I6
sg253
I6
sa(dp259
g249
I0
sg250
F0.7663068771362305
sg251
F2.9740450382232666
sg252
I4
sg253
I4
sa(dp260
g249
I2
sg250
F0.7352900505065918
sg251
F3.096053123474121
sg252
I3
sg253
I3
sa(dp261
g249
I1
sg250
F0.00021195411682128906
sg251
F0.0008351802825927734
sg252
I2
sg253
I2
sasS'total_cqs'
p262
I13
ssI27
(dp263
S'iters'
p264
I1
sS'meta'
p265
(lp266
(dp267
S'objective'
p268
I1
sS'query_time'
p269
F0.15544390678405762
sS'comp_time'
p270
F0.0044438838958740234
sS'exec_cq'
p271
I2
sS'total_cq'
p272
I2
sasS'total_cqs'
p273
I2
ssI28
(dp274
S'iters'
p275
I7
sS'meta'
p276
(lp277
(dp278
S'objective'
p279
I47
sS'query_time'
p280
F1.8030531406402588
sS'comp_time'
p281
F0.02526569366455078
sS'exec_cq'
p282
I14
sS'total_cq'
p283
I14
sa(dp284
g279
I18
sg280
F0.006018877029418945
sg281
F0.023683786392211914
sg282
I11
sg283
I11
sa(dp285
g279
I7
sg280
F0.021014928817749023
sg281
F0.01737809181213379
sg282
I7
sg283
I7
sa(dp286
g279
I3
sg280
F0.0030770301818847656
sg281
F0.01696300506591797
sg282
I5
sg283
I5
sa(dp287
g279
I3
sg280
F0.0001289844512939453
sg281
F0.0006053447723388672
sg282
I4
sg283
I4
sa(dp288
g279
I0
sg280
F2.3126602172851562e-05
sg281
F7.534027099609375e-05
sg282
I3
sg283
I3
sa(dp289
g279
I1
sg280
F1.7881393432617188e-05
sg281
F6.794929504394531e-05
sg282
I2
sg283
I2
sasS'total_cqs'
p290
I14
ssI29
(dp291
S'iters'
p292
I1
sS'meta'
p293
(lp294
(dp295
S'objective'
p296
I1
sS'query_time'
p297
F0.00946497917175293
sS'comp_time'
p298
F0.00015592575073242188
sS'exec_cq'
p299
I2
sS'total_cq'
p300
I2
sasS'total_cqs'
p301
I2
ssI30
(dp302
S'iters'
p303
I1
sS'meta'
p304
(lp305
(dp306
S'objective'
p307
I1
sS'query_time'
p308
F0.3778841495513916
sS'comp_time'
p309
F0.005315065383911133
sS'exec_cq'
p310
I2
sS'total_cq'
p311
I2
sasS'total_cqs'
p312
I2
ssI31
(dp313
S'iters'
p314
I3
sS'meta'
p315
(lp316
(dp317
S'objective'
p318
I23
sS'query_time'
p319
F6.31734299659729
sS'comp_time'
p320
F0.14592981338500977
sS'exec_cq'
p321
I9
sS'total_cq'
p322
I9
sa(dp323
g318
I1
sg319
F0.006273031234741211
sg320
F0.027935266494750977
sg321
I3
sg322
I3
sa(dp324
g318
I3
sg319
F0.0055999755859375
sg320
F0.05109119415283203
sg321
I2
sg322
I2
sasS'total_cqs'
p325
I9
ssI32
(dp326
S'iters'
p327
I4
sS'meta'
p328
(lp329
(dp330
S'objective'
p331
I2
sS'query_time'
p332
F20.202122926712036
sS'comp_time'
p333
F3.461556911468506
sS'exec_cq'
p334
I7
sS'total_cq'
p335
I7
sa(dp336
g331
I1
sg332
F0.2942180633544922
sg333
F0.9866552352905273
sg334
I4
sg335
I4
sa(dp337
g331
I2
sg332
F0.28513097763061523
sg333
F1.19679594039917
sg334
I3
sg335
I3
sa(dp338
g331
I1
sg332
F0.23575997352600098
sg333
F0.9872159957885742
sg334
I2
sg335
I2
sasS'total_cqs'
p339
I7
ssI33
(dp340
S'iters'
p341
I1
sS'meta'
p342
(lp343
(dp344
S'objective'
p345
I1
sS'query_time'
p346
F0.043023109436035156
sS'comp_time'
p347
F9.799003601074219e-05
sS'exec_cq'
p348
I2
sS'total_cq'
p349
I2
sasS'total_cqs'
p350
I2
ssI34
(dp351
S'iters'
p352
I0
sS'meta'
p353
(lp354
sS'total_cqs'
p355
I1
ssI35
(dp356
S'iters'
p357
I3
sS'meta'
p358
(lp359
(dp360
S'objective'
p361
I1
sS'query_time'
p362
F16.4951171875
sS'comp_time'
p363
F0.24850797653198242
sS'exec_cq'
p364
I5
sS'total_cq'
p365
I5
sa(dp366
g361
I0
sg362
F0.0321810245513916
sg363
F0.1811211109161377
sg364
I3
sg365
I3
sa(dp367
g361
I2
sg362
F0.015427112579345703
sg363
F0.06932997703552246
sg364
I2
sg365
I2
sasS'total_cqs'
p368
I5
ssI37
(dp369
S'iters'
p370
I3
sS'meta'
p371
(lp372
(dp373
S'objective'
p374
I27
sS'query_time'
p375
F2.5986170768737793
sS'comp_time'
p376
F0.1636209487915039
sS'exec_cq'
p377
I10
sS'total_cq'
p378
I10
sa(dp379
g374
I2
sg375
F0.04348111152648926
sg376
F0.04952406883239746
sg377
I3
sg378
I3
sa(dp380
g374
I4
sg375
F0.009049177169799805
sg376
F0.03757500648498535
sg377
I2
sg378
I2
sasS'total_cqs'
p381
I10
ssI38
(dp382
S'iters'
p383
I0
sS'meta'
p384
(lp385
sS'total_cqs'
p386
I1
ssI39
(dp387
S'iters'
p388
I0
sS'meta'
p389
(lp390
sS'total_cqs'
p391
I1
ssI40
(dp392
S'iters'
p393
I1
sS'meta'
p394
(lp395
(dp396
S'objective'
p397
I1
sS'query_time'
p398
F17.897491931915283
sS'comp_time'
p399
F2.7028679847717285
sS'exec_cq'
p400
I2
sS'total_cq'
p401
I2
sasS'total_cqs'
p402
I2
ssI41
(dp403
S'iters'
p404
I4
sS'meta'
p405
(lp406
(dp407
S'objective'
p408
I3
sS'query_time'
p409
F12.187304019927979
sS'comp_time'
p410
F1.2222120761871338
sS'exec_cq'
p411
I6
sS'total_cq'
p412
I6
sa(dp413
g408
I0
sg409
F0.0031659603118896484
sg410
F0.011323928833007812
sg411
I4
sg412
I4
sa(dp414
g408
I0
sg409
F0.0012388229370117188
sg410
F0.006999969482421875
sg411
I3
sg412
I3
sa(dp415
g408
I1
sg409
F0.0006937980651855469
sg410
F0.0035021305084228516
sg411
I2
sg412
I2
sasS'total_cqs'
p416
I6
ssI42
(dp417
S'iters'
p418
I1
sS'meta'
p419
(lp420
(dp421
S'objective'
p422
I1
sS'query_time'
p423
F17.76246404647827
sS'comp_time'
p424
F3.2751991748809814
sS'exec_cq'
p425
I2
sS'total_cq'
p426
I2
sasS'total_cqs'
p427
I2
ssI43
(dp428
S'iters'
p429
I0
sS'meta'
p430
(lp431
sS'total_cqs'
p432
I1
ssI44
(dp433
S'iters'
p434
I3
sS'meta'
p435
(lp436
(dp437
S'objective'
p438
I3
sS'query_time'
p439
F1.4693069458007812
sS'comp_time'
p440
F0.08676791191101074
sS'exec_cq'
p441
I5
sS'total_cq'
p442
I5
sa(dp443
g438
I0
sg439
F0.014832019805908203
sg440
F0.1481928825378418
sg441
I3
sg442
I3
sa(dp444
g438
I1
sg439
F0.016305923461914062
sg440
F0.10346293449401855
sg441
I2
sg442
I2
sasS'total_cqs'
p445
I5
ssI45
(dp446
S'iters'
p447
I2
sS'meta'
p448
(lp449
(dp450
S'objective'
p451
I9
sS'query_time'
p452
F0.04044485092163086
sS'comp_time'
p453
F0.0009069442749023438
sS'exec_cq'
p454
I5
sS'total_cq'
p455
I5
sa(dp456
g451
I1
sg452
F0.00015306472778320312
sg453
F0.0005156993865966797
sg454
I2
sg455
I2
sasS'total_cqs'
p457
I5
ssI46
(dp458
S'iters'
p459
I0
sS'meta'
p460
(lp461
sS'total_cqs'
p462
I1
ssI47
(dp463
S'iters'
p464
I0
sS'meta'
p465
(lp466
sS'total_cqs'
p467
I1
ssI48
(dp468
S'iters'
p469
I1
sS'meta'
p470
(lp471
(dp472
S'objective'
p473
I1
sS'query_time'
p474
F0.13293099403381348
sS'comp_time'
p475
F0.006137847900390625
sS'exec_cq'
p476
I2
sS'total_cq'
p477
I2
sasS'total_cqs'
p478
I2
ssI49
(dp479
S'iters'
p480
I3
sS'meta'
p481
(lp482
(dp483
S'objective'
p484
I1
sS'query_time'
p485
F0.23282909393310547
sS'comp_time'
p486
F0.00281524658203125
sS'exec_cq'
p487
I5
sS'total_cq'
p488
I5
sa(dp489
g484
I0
sg485
F0.0003228187561035156
sg486
F0.0013489723205566406
sg487
I3
sg488
I3
sa(dp490
g484
I2
sg485
F2.5987625122070312e-05
sg486
F9.989738464355469e-05
sg487
I2
sg488
I2
sasS'total_cqs'
p491
I5
ssI50
(dp492
S'iters'
p493
I4
sS'meta'
p494
(lp495
(dp496
S'objective'
p497
I5
sS'query_time'
p498
F0.9211161136627197
sS'comp_time'
p499
F0.0012810230255126953
sS'exec_cq'
p500
I5
sS'total_cq'
p501
I5
sa(dp502
g497
I2
sg498
F0.00017404556274414062
sg499
F0.001024007797241211
sg500
I4
sg501
I4
sa(dp503
g497
I0
sg498
F0.00014591217041015625
sg499
F0.0009012222290039062
sg500
I3
sg501
I3
sa(dp504
g497
I1
sg498
F0.0001010894775390625
sg499
F0.003871917724609375
sg500
I2
sg501
I2
sasS'total_cqs'
p505
I5
ssI51
(dp506
S'iters'
p507
I0
sS'meta'
p508
(lp509
sS'total_cqs'
p510
I1
ssI52
(dp511
S'iters'
p512
I0
sS'meta'
p513
(lp514
sS'total_cqs'
p515
I1
ssI53
(dp516
S'iters'
p517
I0
sS'meta'
p518
(lp519
sS'total_cqs'
p520
I1
ssI55
(dp521
S'iters'
p522
I1
sS'meta'
p523
(lp524
(dp525
S'objective'
p526
I1
sS'query_time'
p527
F26.549779891967773
sS'comp_time'
p528
F3.5139060020446777
sS'exec_cq'
p529
I2
sS'total_cq'
p530
I2
sasS'total_cqs'
p531
I2
ssI56
(dp532
S'iters'
p533
I0
sS'meta'
p534
(lp535
sS'total_cqs'
p536
I1
ssI57
(dp537
S'iters'
p538
I2
sS'meta'
p539
(lp540
(dp541
S'objective'
p542
I2
sS'query_time'
p543
F14.023974895477295
sS'comp_time'
p544
F1.6455130577087402
sS'exec_cq'
p545
I3
sS'total_cq'
p546
I3
sa(dp547
g542
I2
sg543
F0.2895679473876953
sg544
F1.2964897155761719
sg545
I2
sg546
I2
sasS'total_cqs'
p548
I3
ssI108
(dp549
S'iters'
p550
I0
sS'meta'
p551
(lp552
sS'total_cqs'
p553
I1
ssI109
(dp554
S'iters'
p555
I0
sS'meta'
p556
(lp557
sS'total_cqs'
p558
I1
ssI116
(dp559
S'iters'
p560
I4
sS'meta'
p561
(lp562
(dp563
S'objective'
p564
I157
sS'query_time'
p565
F5.454294919967651
sS'comp_time'
p566
F0.29447078704833984
sS'exec_cq'
p567
I21
sS'total_cq'
p568
I21
sa(dp569
g564
I126
sg565
F0.008398056030273438
sg566
F0.07369184494018555
sg567
I19
sg568
I19
sa(dp570
g564
I0
sg565
F0.0011639595031738281
sg566
F0.004210233688354492
sg567
I3
sg568
I3
sa(dp571
g564
I15
sg565
F0.0009069442749023438
sg566
F0.002711772918701172
sg567
I2
sg568
I2
sasS'total_cqs'
p572
I21
ssI117
(dp573
S'iters'
p574
I2
sS'meta'
p575
(lp576
(dp577
S'objective'
p578
I9
sS'query_time'
p579
F0.01734185218811035
sS'comp_time'
p580
F0.00015974044799804688
sS'exec_cq'
p581
I5
sS'total_cq'
p582
I5
sa(dp583
g578
I10
sg579
F2.9087066650390625e-05
sg580
F5.5789947509765625e-05
sg581
I4
sg582
I4
sasS'total_cqs'
p584
I5
ssI118
(dp585
S'iters'
p586
I0
sS'meta'
p587
(lp588
sS'total_cqs'
p589
I1
ssI122
(dp590
S'iters'
p591
I0
sS'meta'
p592
(lp593
sS'total_cqs'
p594
I1
ss.