(dp0
I1
(dp1
S'iters'
p2
I4
sS'meta'
p3
(lp4
(dp5
S'objective'
p6
I9
sS'query_time'
p7
F24.65014910697937
sS'comp_time'
p8
F0.000225067138671875
sS'exec_cq'
p9
I1
sS'total_cq'
p10
I6
sa(dp11
g6
I1
sg7
F10.069195985794067
sg8
F0.00041985511779785156
sg9
I1
sg10
I5
sa(dp12
g6
I1
sg7
F12.139654874801636
sg8
F0.0004870891571044922
sg9
I1
sg10
I3
sa(dp13
g6
I1
sg7
F0.04813790321350098
sg8
F8.20159912109375e-05
sg9
I1
sg10
I2
sasS'total_cqs'
p14
I6
ssI2
(dp15
S'iters'
p16
I1
sS'meta'
p17
(lp18
(dp19
S'objective'
p20
I19
sS'query_time'
p21
F0.9739439487457275
sS'comp_time'
p22
F8.511543273925781e-05
sS'exec_cq'
p23
I6
sS'total_cq'
p24
I6
sasS'total_cqs'
p25
I6
ssI3
(dp26
S'iters'
p27
I20
sS'meta'
p28
(lp29
(dp30
S'objective'
p31
I485
sS'query_time'
p32
F0.04017496109008789
sS'comp_time'
p33
F0.00010085105895996094
sS'exec_cq'
p34
I1
sS'total_cq'
p35
I33
sa(dp36
g31
I423
sg32
F0.06184697151184082
sg33
F5.507469177246094e-05
sg34
I1
sg35
I31
sa(dp37
g31
I411
sg32
F0.22264885902404785
sg33
F0.00010991096496582031
sg34
I1
sg35
I29
sa(dp38
g31
I382
sg32
F0.01635122299194336
sg33
F4.291534423828125e-05
sg34
I1
sg35
I28
sa(dp39
g31
I354
sg32
F49.083575963974
sg33
F0.00012803077697753906
sg34
I1
sg35
I27
sa(dp40
g31
I311
sg32
F0.01784515380859375
sg33
F7.700920104980469e-05
sg34
I1
sg35
I26
sa(dp41
g31
I293
sg32
F0.012952089309692383
sg33
F4.696846008300781e-05
sg34
I1
sg35
I24
sa(dp42
g31
I218
sg32
F0.0283660888671875
sg33
F5.0067901611328125e-05
sg34
I1
sg35
I23
sa(dp43
g31
I219
sg32
F0.013419151306152344
sg33
F5.4836273193359375e-05
sg34
I1
sg35
I20
sa(dp44
g31
I170
sg32
F0.06613898277282715
sg33
F6.890296936035156e-05
sg34
I1
sg35
I19
sa(dp45
g31
I143
sg32
F0.2445070743560791
sg33
F6.079673767089844e-05
sg34
I1
sg35
I17
sa(dp46
g31
I71
sg32
F0.008622169494628906
sg33
F8.20159912109375e-05
sg34
I1
sg35
I14
sa(dp47
g31
I61
sg32
F0.12067484855651855
sg33
F0.00012302398681640625
sg34
I1
sg35
I11
sa(dp48
g31
I58
sg32
F0.028816938400268555
sg33
F5.602836608886719e-05
sg34
I1
sg35
I9
sa(dp49
g31
I43
sg32
F0.02929091453552246
sg33
F4.38690185546875e-05
sg34
I1
sg35
I8
sa(dp50
g31
I29
sg32
F0.0023980140686035156
sg33
F2.9087066650390625e-05
sg34
I1
sg35
I7
sa(dp51
g31
I24
sg32
F0.0051081180572509766
sg33
F2.8133392333984375e-05
sg34
I2
sg35
I6
sa(dp52
g31
I22
sg32
F0.0018889904022216797
sg33
F3.504753112792969e-05
sg34
I3
sg35
I5
sa(dp53
g31
I20
sg32
F0.033323049545288086
sg33
F3.504753112792969e-05
sg34
I3
sg35
I4
sa(dp54
g31
I22
sg32
F0.16089415550231934
sg33
F6.103515625e-05
sg34
I3
sg35
I3
sasS'total_cqs'
p55
I33
ssI4
(dp56
S'iters'
p57
I0
sS'meta'
p58
(lp59
sS'total_cqs'
p60
I1
ssI5
(dp61
S'iters'
p62
I0
sS'meta'
p63
(lp64
sS'total_cqs'
p65
I1
ssI6
(dp66
S'iters'
p67
I4
sS'meta'
p68
(lp69
(dp70
S'objective'
p71
I5
sS'query_time'
p72
F10.327454090118408
sS'comp_time'
p73
F7.700920104980469e-05
sS'exec_cq'
p74
I1
sS'total_cq'
p75
I5
sa(dp76
g71
I2
sg72
F4.848027944564819
sg73
F8.606910705566406e-05
sg74
I1
sg75
I4
sa(dp77
g71
I0
sg72
F1.2861449718475342
sg73
F8.487701416015625e-05
sg74
I1
sg75
I3
sa(dp78
g71
I1
sg72
F0.11174297332763672
sg73
F0.00011682510375976562
sg74
I1
sg75
I2
sasS'total_cqs'
p79
I5
ssI7
(dp80
S'iters'
p81
I0
sS'meta'
p82
(lp83
sS'total_cqs'
p84
I1
ssI8
(dp85
S'iters'
p86
I4
sS'meta'
p87
(lp88
(dp89
S'objective'
p90
I9
sS'query_time'
p91
F3.070178985595703
sS'comp_time'
p92
F0.0004088878631591797
sS'exec_cq'
p93
I1
sS'total_cq'
p94
I6
sa(dp95
g90
I3
sg91
F20.230249881744385
sg92
F6.508827209472656e-05
sg93
I1
sg94
I5
sa(dp96
g90
I0
sg91
F20.057295083999634
sg92
F9.894371032714844e-05
sg93
I1
sg94
I3
sa(dp97
g90
I1
sg91
F21.329707145690918
sg92
F6.008148193359375e-05
sg93
I1
sg94
I2
sasS'total_cqs'
p98
I6
ssI9
(dp99
S'iters'
p100
I4
sS'meta'
p101
(lp102
(dp103
S'objective'
p104
I1
sS'query_time'
p105
F9.6980299949646
sS'comp_time'
p106
F5.412101745605469e-05
sS'exec_cq'
p107
I1
sS'total_cq'
p108
I6
sa(dp109
g104
I2
sg105
F19.77158808708191
sg106
F0.00019407272338867188
sg107
I1
sg108
I4
sa(dp110
g104
I0
sg105
F20.00997304916382
sg106
F6.103515625e-05
sg107
I1
sg108
I3
sa(dp111
g104
I1
sg105
F1.042268991470337
sg106
F0.00014901161193847656
sg107
I1
sg108
I2
sasS'total_cqs'
p112
I6
ssI10
(dp113
S'iters'
p114
I0
sS'meta'
p115
(lp116
sS'total_cqs'
p117
I1
ssI11
(dp118
S'iters'
p119
I0
sS'meta'
p120
(lp121
sS'total_cqs'
p122
I1
ssI12
(dp123
S'iters'
p124
I0
sS'meta'
p125
(lp126
sS'total_cqs'
p127
I1
ssI13
(dp128
S'iters'
p129
I2
sS'meta'
p130
(lp131
(dp132
S'objective'
p133
I32
sS'query_time'
p134
F9.858678102493286
sS'comp_time'
p135
F6.198883056640625e-05
sS'exec_cq'
p136
I7
sS'total_cq'
p137
I8
sa(dp138
g133
I32
sg134
F0.0016551017761230469
sg135
F4.00543212890625e-05
sg136
I7
sg137
I7
sasS'total_cqs'
p139
I8
ssI14
(dp140
S'iters'
p141
I3
sS'meta'
p142
(lp143
(dp144
S'objective'
p145
I5
sS'query_time'
p146
F0.028697967529296875
sS'comp_time'
p147
F6.794929504394531e-05
sS'exec_cq'
p148
I1
sS'total_cq'
p149
I5
sa(dp150
g145
I2
sg146
F0.2724800109863281
sg147
F7.104873657226562e-05
sg148
I1
sg149
I4
sa(dp151
g145
I4
sg146
F0.9863979816436768
sg147
F7.700920104980469e-05
sg148
I3
sg149
I3
sasS'total_cqs'
p152
I5
ssI16
(dp153
S'iters'
p154
I4
sS'meta'
p155
(lp156
(dp157
S'objective'
p158
I7
sS'query_time'
p159
F10.173469066619873
sS'comp_time'
p160
F7.414817810058594e-05
sS'exec_cq'
p161
I2
sS'total_cq'
p162
I5
sa(dp163
g158
I5
sg159
F0.898158073425293
sg160
F7.009506225585938e-05
sg161
I2
sg162
I4
sa(dp164
g158
I4
sg159
F0.15474295616149902
sg160
F7.295608520507812e-05
sg161
I2
sg162
I3
sa(dp165
g158
I4
sg159
F0.035446882247924805
sg160
F7.295608520507812e-05
sg161
I2
sg162
I2
sasS'total_cqs'
p166
I5
ssI17
(dp167
S'iters'
p168
I0
sS'meta'
p169
(lp170
sS'total_cqs'
p171
I1
ssI18
(dp172
S'iters'
p173
I3
sS'meta'
p174
(lp175
(dp176
S'objective'
p177
I3
sS'query_time'
p178
F9.06879711151123
sS'comp_time'
p179
F5.793571472167969e-05
sS'exec_cq'
p180
I1
sS'total_cq'
p181
I5
sa(dp182
g177
I0
sg178
F0.06245017051696777
sg179
F8.106231689453125e-05
sg180
I1
sg181
I3
sa(dp183
g177
I1
sg178
F0.07593894004821777
sg179
F7.605552673339844e-05
sg180
I1
sg181
I2
sasS'total_cqs'
p184
I5
ssI19
(dp185
S'iters'
p186
I0
sS'meta'
p187
(lp188
sS'total_cqs'
p189
I1
ssI20
(dp190
S'iters'
p191
I7
sS'meta'
p192
(lp193
(dp194
S'objective'
p195
I48
sS'query_time'
p196
F0.025907039642333984
sS'comp_time'
p197
F5.1021575927734375e-05
sS'exec_cq'
p198
I2
sS'total_cq'
p199
I12
sa(dp200
g195
I35
sg196
F4.639339923858643
sg197
F7.486343383789062e-05
sg198
I3
sg199
I10
sa(dp201
g195
I33
sg196
F6.410305976867676
sg197
F0.00011897087097167969
sg198
I3
sg199
I8
sa(dp202
g195
I27
sg196
F1.144726037979126
sg197
F0.0002529621124267578
sg198
I3
sg199
I7
sa(dp203
g195
I28
sg196
F0.0035729408264160156
sg197
F3.790855407714844e-05
sg198
I4
sg199
I6
sa(dp204
g195
I27
sg196
F0.0015680789947509766
sg197
F4.291534423828125e-05
sg198
I4
sg199
I5
sa(dp205
g195
I27
sg196
F0.09507393836975098
sg197
F8.511543273925781e-05
sg198
I4
sg199
I4
sasS'total_cqs'
p206
I12
ssI21
(dp207
S'iters'
p208
I8
sS'meta'
p209
(lp210
(dp211
S'objective'
p212
I71
sS'query_time'
p213
F0.6658501625061035
sS'comp_time'
p214
F8.511543273925781e-05
sS'exec_cq'
p215
I1
sS'total_cq'
p216
I14
sa(dp217
g212
I52
sg213
F16.760508060455322
sg214
F0.0004200935363769531
sg215
I1
sg216
I12
sa(dp218
g212
I46
sg213
F0.5797359943389893
sg214
F0.00016379356384277344
sg215
I1
sg216
I10
sa(dp219
g212
I18
sg213
F0.08376693725585938
sg214
F7.200241088867188e-05
sg215
I1
sg216
I9
sa(dp220
g212
I18
sg213
F0.2678720951080322
sg214
F7.486343383789062e-05
sg215
I1
sg216
I7
sa(dp221
g212
I4
sg213
F0.5575501918792725
sg214
F0.0001380443572998047
sg215
I1
sg216
I6
sa(dp222
g212
I2
sg213
F0.08379197120666504
sg214
F7.390975952148438e-05
sg215
I1
sg216
I4
sa(dp223
g212
I5
sg213
F0.03916621208190918
sg214
F5.316734313964844e-05
sg215
I1
sg216
I2
sasS'total_cqs'
p224
I14
ssI22
(dp225
S'iters'
p226
I1
sS'meta'
p227
(lp228
(dp229
S'objective'
p230
I1
sS'query_time'
p231
F0.004628181457519531
sS'comp_time'
p232
F4.696846008300781e-05
sS'exec_cq'
p233
I1
sS'total_cq'
p234
I2
sasS'total_cqs'
p235
I2
ssI23
(dp236
S'iters'
p237
I0
sS'meta'
p238
(lp239
sS'total_cqs'
p240
I1
ssI24
(dp241
S'iters'
p242
I0
sS'meta'
p243
(lp244
sS'total_cqs'
p245
I1
ssI25
(dp246
S'iters'
p247
I5
sS'meta'
p248
(lp249
(dp250
S'objective'
p251
I14
sS'query_time'
p252
F24.03080987930298
sS'comp_time'
p253
F0.0003120899200439453
sS'exec_cq'
p254
I1
sS'total_cq'
p255
I7
sa(dp256
g251
I9
sg252
F24.697098970413208
sg253
F9.298324584960938e-05
sg254
I1
sg255
I6
sa(dp257
g251
I1
sg252
F3.333130121231079
sg253
F7.486343383789062e-05
sg254
I1
sg255
I5
sa(dp258
g251
I1
sg252
F8.077826023101807
sg253
F0.00032806396484375
sg254
I1
sg255
I3
sa(dp259
g251
I1
sg252
F7.875361919403076
sg253
F0.0005350112915039062
sg254
I1
sg255
I2
sasS'total_cqs'
p260
I7
ssI26
(dp261
S'iters'
p262
I10
sS'meta'
p263
(lp264
(dp265
S'objective'
p266
I65
sS'query_time'
p267
F0.06940293312072754
sS'comp_time'
p268
F7.581710815429688e-05
sS'exec_cq'
p269
I1
sS'total_cq'
p270
I13
sa(dp271
g266
I32
sg267
F1.6280090808868408
sg268
F6.29425048828125e-05
sg269
I1
sg270
I12
sa(dp272
g266
I35
sg267
F21.297109127044678
sg268
F0.0001380443572998047
sg269
I1
sg270
I10
sa(dp273
g266
I27
sg267
F0.03091597557067871
sg268
F4.410743713378906e-05
sg269
I1
sg270
I9
sa(dp274
g266
I20
sg267
F0.025871992111206055
sg268
F3.695487976074219e-05
sg269
I1
sg270
I8
sa(dp275
g266
I14
sg267
F0.028625965118408203
sg268
F3.695487976074219e-05
sg269
I1
sg270
I7
sa(dp276
g266
I1
sg267
F0.46226000785827637
sg268
F3.504753112792969e-05
sg269
I1
sg270
I6
sa(dp277
g266
I1
sg267
F0.05309605598449707
sg268
F4.291534423828125e-05
sg269
I1
sg270
I4
sa(dp278
g266
I0
sg267
F0.020581960678100586
sg268
F3.409385681152344e-05
sg269
I1
sg270
I3
sa(dp279
g266
I1
sg267
F0.01756000518798828
sg268
F3.1948089599609375e-05
sg269
I1
sg270
I2
sasS'total_cqs'
p280
I13
ssI27
(dp281
S'iters'
p282
I1
sS'meta'
p283
(lp284
(dp285
S'objective'
p286
I1
sS'query_time'
p287
F0.15307092666625977
sS'comp_time'
p288
F7.414817810058594e-05
sS'exec_cq'
p289
I2
sS'total_cq'
p290
I2
sasS'total_cqs'
p291
I2
ssI28
(dp292
S'iters'
p293
I10
sS'meta'
p294
(lp295
(dp296
S'objective'
p297
I53
sS'query_time'
p298
F1.636103868484497
sS'comp_time'
p299
F6.914138793945312e-05
sS'exec_cq'
p300
I1
sS'total_cq'
p301
I14
sa(dp302
g297
I53
sg298
F1.265300989151001
sg299
F5.602836608886719e-05
sg300
I1
sg301
I12
sa(dp303
g297
I44
sg298
F1.1306288242340088
sg299
F4.506111145019531e-05
sg300
I1
sg301
I11
sa(dp304
g297
I35
sg298
F1.065474033355713
sg299
F4.100799560546875e-05
sg300
I1
sg301
I10
sa(dp305
g297
I15
sg298
F1.6335389614105225
sg299
F7.700920104980469e-05
sg300
I1
sg301
I9
sa(dp306
g297
I8
sg298
F0.5156729221343994
sg299
F4.410743713378906e-05
sg300
I1
sg301
I7
sa(dp307
g297
I5
sg298
F0.3593580722808838
sg299
F4.00543212890625e-05
sg300
I1
sg301
I5
sa(dp308
g297
I2
sg298
F0.3449089527130127
sg299
F3.910064697265625e-05
sg300
I1
sg301
I4
sa(dp309
g297
I1
sg298
F0.24509310722351074
sg299
F5.1975250244140625e-05
sg300
I1
sg301
I3
sa(dp310
g297
I1
sg298
F0.11196589469909668
sg299
F4.00543212890625e-05
sg300
I1
sg301
I2
sasS'total_cqs'
p311
I14
ssI29
(dp312
S'iters'
p313
I1
sS'meta'
p314
(lp315
(dp316
S'objective'
p317
I1
sS'query_time'
p318
F0.0038080215454101562
sS'comp_time'
p319
F4.8160552978515625e-05
sS'exec_cq'
p320
I2
sS'total_cq'
p321
I2
sasS'total_cqs'
p322
I2
ssI30
(dp323
S'iters'
p324
I1
sS'meta'
p325
(lp326
(dp327
S'objective'
p328
I1
sS'query_time'
p329
F0.3604240417480469
sS'comp_time'
p330
F7.796287536621094e-05
sS'exec_cq'
p331
I2
sS'total_cq'
p332
I2
sasS'total_cqs'
p333
I2
ssI31
(dp334
S'iters'
p335
I3
sS'meta'
p336
(lp337
(dp338
S'objective'
p339
I17
sS'query_time'
p340
F4.442149877548218
sS'comp_time'
p341
F4.410743713378906e-05
sS'exec_cq'
p342
I1
sS'total_cq'
p343
I9
sa(dp344
g339
I13
sg340
F3.933677911758423
sg341
F7.081031799316406e-05
sg342
I1
sg343
I7
sa(dp345
g339
I7
sg340
F0.0032508373260498047
sg341
F3.790855407714844e-05
sg342
I1
sg343
I2
sasS'total_cqs'
p346
I9
ssI32
(dp347
S'iters'
p348
I4
sS'meta'
p349
(lp350
(dp351
S'objective'
p352
I14
sS'query_time'
p353
F7.626309871673584
sS'comp_time'
p354
F0.00013899803161621094
sS'exec_cq'
p355
I1
sS'total_cq'
p356
I7
sa(dp357
g352
I5
sg353
F1.5316040515899658
sg354
F7.891654968261719e-05
sg355
I1
sg356
I6
sa(dp358
g352
I3
sg353
F7.600471019744873
sg354
F0.0004398822784423828
sg355
I1
sg356
I4
sa(dp359
g352
I3
sg353
F1.4344501495361328
sg354
F0.0007009506225585938
sg355
I1
sg356
I2
sasS'total_cqs'
p360
I7
ssI33
(dp361
S'iters'
p362
I1
sS'meta'
p363
(lp364
(dp365
S'objective'
p366
I1
sS'query_time'
p367
F0.03030085563659668
sS'comp_time'
p368
F5.888938903808594e-05
sS'exec_cq'
p369
I2
sS'total_cq'
p370
I2
sasS'total_cqs'
p371
I2
ssI34
(dp372
S'iters'
p373
I0
sS'meta'
p374
(lp375
sS'total_cqs'
p376
I1
ssI35
(dp377
S'iters'
p378
I3
sS'meta'
p379
(lp380
(dp381
S'objective'
p382
I5
sS'query_time'
p383
F9.211350917816162
sS'comp_time'
p384
F0.00010991096496582031
sS'exec_cq'
p385
I1
sS'total_cq'
p386
I5
sa(dp387
g382
I2
sg383
F3.4527180194854736
sg384
F0.00021600723266601562
sg385
I1
sg386
I4
sa(dp388
g382
I2
sg383
F5.019948959350586
sg384
F7.700920104980469e-05
sg385
I1
sg386
I2
sasS'total_cqs'
p389
I5
ssI37
(dp390
S'iters'
p391
I9
sS'meta'
p392
(lp393
(dp394
S'objective'
p395
I35
sS'query_time'
p396
F0.6898739337921143
sS'comp_time'
p397
F7.796287536621094e-05
sS'exec_cq'
p398
I1
sS'total_cq'
p399
I10
sa(dp400
g395
I27
sg396
F0.06644392013549805
sg397
F3.695487976074219e-05
sg398
I1
sg399
I9
sa(dp401
g395
I22
sg396
F0.6976280212402344
sg397
F7.700920104980469e-05
sg398
I2
sg399
I8
sa(dp402
g395
I17
sg396
F0.0059659481048583984
sg397
F4.410743713378906e-05
sg398
I2
sg399
I7
sa(dp403
g395
I13
sg396
F0.6461639404296875
sg397
F0.0012969970703125
sg398
I2
sg399
I6
sa(dp404
g395
I10
sg396
F0.00454401969909668
sg397
F3.790855407714844e-05
sg398
I2
sg399
I5
sa(dp405
g395
I8
sg396
F0.3391389846801758
sg397
F7.700920104980469e-05
sg398
I2
sg399
I4
sa(dp406
g395
I7
sg396
F0.002736806869506836
sg397
F3.3855438232421875e-05
sg398
I2
sg399
I3
sa(dp407
g395
I7
sg396
F0.2888169288635254
sg397
F6.985664367675781e-05
sg398
I2
sg399
I2
sasS'total_cqs'
p408
I10
ssI38
(dp409
S'iters'
p410
I0
sS'meta'
p411
(lp412
sS'total_cqs'
p413
I1
ssI39
(dp414
S'iters'
p415
I0
sS'meta'
p416
(lp417
sS'total_cqs'
p418
I1
ssI40
(dp419
S'iters'
p420
I1
sS'meta'
p421
(lp422
(dp423
S'objective'
p424
I1
sS'query_time'
p425
F20.22502899169922
sS'comp_time'
p426
F0.0003058910369873047
sS'exec_cq'
p427
I1
sS'total_cq'
p428
I2
sasS'total_cqs'
p429
I2
ssI41
(dp430
S'iters'
p431
I5
sS'meta'
p432
(lp433
(dp434
S'objective'
p435
I9
sS'query_time'
p436
F9.708669900894165
sS'comp_time'
p437
F0.00038504600524902344
sS'exec_cq'
p438
I1
sS'total_cq'
p439
I6
sa(dp440
g435
I5
sg436
F0.9320511817932129
sg437
F0.0003788471221923828
sg438
I1
sg439
I5
sa(dp441
g435
I2
sg436
F0.19397878646850586
sg437
F6.604194641113281e-05
sg438
I1
sg439
I4
sa(dp442
g435
I0
sg436
F1.7061200141906738
sg437
F7.915496826171875e-05
sg438
I1
sg439
I3
sa(dp443
g435
I1
sg436
F0.14076995849609375
sg437
F7.605552673339844e-05
sg438
I1
sg439
I2
sasS'total_cqs'
p444
I6
ssI42
(dp445
S'iters'
p446
I1
sS'meta'
p447
(lp448
(dp449
S'objective'
p450
I1
sS'query_time'
p451
F19.871131896972656
sS'comp_time'
p452
F0.00024080276489257812
sS'exec_cq'
p453
I1
sS'total_cq'
p454
I2
sasS'total_cqs'
p455
I2
ssI43
(dp456
S'iters'
p457
I0
sS'meta'
p458
(lp459
sS'total_cqs'
p460
I1
ssI44
(dp461
S'iters'
p462
I4
sS'meta'
p463
(lp464
(dp465
S'objective'
p466
I5
sS'query_time'
p467
F1.3765819072723389
sS'comp_time'
p468
F8.606910705566406e-05
sS'exec_cq'
p469
I1
sS'total_cq'
p470
I5
sa(dp471
g466
I2
sg467
F1.641671895980835
sg468
F8.0108642578125e-05
sg469
I1
sg470
I4
sa(dp472
g466
I0
sg467
F0.016839027404785156
sg468
F8.916854858398438e-05
sg469
I1
sg470
I3
sa(dp473
g466
I1
sg467
F0.008134841918945312
sg468
F4.506111145019531e-05
sg469
I1
sg470
I2
sasS'total_cqs'
p474
I5
ssI45
(dp475
S'iters'
p476
I2
sS'meta'
p477
(lp478
(dp479
S'objective'
p480
I9
sS'query_time'
p481
F5.739228963851929
sS'comp_time'
p482
F6.699562072753906e-05
sS'exec_cq'
p483
I3
sS'total_cq'
p484
I5
sa(dp485
g480
I10
sg481
F0.00638890266418457
sg482
F6.29425048828125e-05
sg483
I4
sg484
I4
sasS'total_cqs'
p486
I5
ssI46
(dp487
S'iters'
p488
I0
sS'meta'
p489
(lp490
sS'total_cqs'
p491
I1
ssI47
(dp492
S'iters'
p493
I0
sS'meta'
p494
(lp495
sS'total_cqs'
p496
I1
ssI48
(dp497
S'iters'
p498
I1
sS'meta'
p499
(lp500
(dp501
S'objective'
p502
I1
sS'query_time'
p503
F0.12025880813598633
sS'comp_time'
p504
F7.605552673339844e-05
sS'exec_cq'
p505
I2
sS'total_cq'
p506
I2
sasS'total_cqs'
p507
I2
ssI49
(dp508
S'iters'
p509
I4
sS'meta'
p510
(lp511
(dp512
S'objective'
p513
I5
sS'query_time'
p514
F0.14137911796569824
sS'comp_time'
p515
F6.794929504394531e-05
sS'exec_cq'
p516
I1
sS'total_cq'
p517
I5
sa(dp518
g513
I2
sg514
F4.460404872894287
sg515
F6.985664367675781e-05
sg516
I1
sg517
I4
sa(dp519
g513
I2
sg514
F0.041105031967163086
sg515
F6.198883056640625e-05
sg516
I2
sg517
I3
sa(dp520
g513
I2
sg514
F0.007788896560668945
sg515
F3.695487976074219e-05
sg516
I2
sg517
I2
sasS'total_cqs'
p521
I5
ssI50
(dp522
S'iters'
p523
I4
sS'meta'
p524
(lp525
(dp526
S'objective'
p527
I5
sS'query_time'
p528
F0.024855852127075195
sS'comp_time'
p529
F5.507469177246094e-05
sS'exec_cq'
p530
I1
sS'total_cq'
p531
I5
sa(dp532
g527
I2
sg528
F0.1934189796447754
sg529
F8.893013000488281e-05
sg530
I1
sg531
I4
sa(dp533
g527
I0
sg528
F0.0047838687896728516
sg529
F3.981590270996094e-05
sg530
I1
sg531
I3
sa(dp534
g527
I1
sg528
F0.002232074737548828
sg529
F5.888938903808594e-05
sg530
I1
sg531
I2
sasS'total_cqs'
p535
I5
ssI51
(dp536
S'iters'
p537
I0
sS'meta'
p538
(lp539
sS'total_cqs'
p540
I1
ssI52
(dp541
S'iters'
p542
I0
sS'meta'
p543
(lp544
sS'total_cqs'
p545
I1
ssI53
(dp546
S'iters'
p547
I0
sS'meta'
p548
(lp549
sS'total_cqs'
p550
I1
ssI55
(dp551
S'iters'
p552
I1
sS'meta'
p553
(lp554
(dp555
S'objective'
p556
I1
sS'query_time'
p557
F23.903558015823364
sS'comp_time'
p558
F6.818771362304688e-05
sS'exec_cq'
p559
I2
sS'total_cq'
p560
I2
sasS'total_cqs'
p561
I2
ssI56
(dp562
S'iters'
p563
I0
sS'meta'
p564
(lp565
sS'total_cqs'
p566
I1
ssI57
(dp567
S'iters'
p568
I2
sS'meta'
p569
(lp570
(dp571
S'objective'
p572
I2
sS'query_time'
p573
F2.41123104095459
sS'comp_time'
p574
F0.00040793418884277344
sS'exec_cq'
p575
I2
sS'total_cq'
p576
I3
sa(dp577
g572
I2
sg573
F12.008032083511353
sg574
F0.00011396408081054688
sg575
I2
sg576
I2
sasS'total_cqs'
p578
I3
ssI108
(dp579
S'iters'
p580
I0
sS'meta'
p581
(lp582
sS'total_cqs'
p583
I1
ssI109
(dp584
S'iters'
p585
I0
sS'meta'
p586
(lp587
sS'total_cqs'
p588
I1
ssI116
(dp589
S'iters'
p590
I6
sS'meta'
p591
(lp592
(dp593
S'objective'
p594
I189
sS'query_time'
p595
F4.453654050827026
sS'comp_time'
p596
F0.0005800724029541016
sS'exec_cq'
p597
I1
sS'total_cq'
p598
I21
sa(dp599
g594
I180
sg595
F1.4532949924468994
sg596
F9.202957153320312e-05
sg597
I6
sg598
I20
sa(dp600
g594
I169
sg595
F0.12673211097717285
sg596
F0.00010204315185546875
sg597
I7
sg598
I19
sa(dp601
g594
I168
sg595
F0.8879060745239258
sg596
F8.487701416015625e-05
sg597
I12
sg598
I18
sa(dp602
g594
I165
sg595
F0.10364103317260742
sg596
F8.988380432128906e-05
sg597
I13
sg598
I17
sa(dp603
g594
I168
sg595
F0.08539414405822754
sg596
F9.202957153320312e-05
sg597
I16
sg598
I16
sasS'total_cqs'
p604
I21
ssI117
(dp605
S'iters'
p606
I2
sS'meta'
p607
(lp608
(dp609
S'objective'
p610
I11
sS'query_time'
p611
F0.007948160171508789
sS'comp_time'
p612
F4.601478576660156e-05
sS'exec_cq'
p613
I4
sS'total_cq'
p614
I5
sa(dp615
g610
I11
sg611
F0.0014629364013671875
sg612
F4.696846008300781e-05
sg613
I4
sg614
I4
sasS'total_cqs'
p616
I5
ssI118
(dp617
S'iters'
p618
I0
sS'meta'
p619
(lp620
sS'total_cqs'
p621
I1
ssI122
(dp622
S'iters'
p623
I0
sS'meta'
p624
(lp625
sS'total_cqs'
p626
I1
ss.