(dp0
I1
(dp1
S'iters'
p2
I2
sS'meta'
p3
(lp4
(dp5
S'objective'
p6
I2
sS'query_time'
p7
F16.440139055252075
sS'comp_time'
p8
F0.7235002517700195
sS'exec_cq'
p9
I3
sS'total_cq'
p10
I6
sa(dp11
g6
I0
sg7
F0.15925097465515137
sg8
F0.6503419876098633
sg9
I2
sg10
I2
sasS'total_cqs'
p12
I6
ssI2
(dp13
S'iters'
p14
I1
sS'meta'
p15
(lp16
(dp17
S'objective'
p18
I4
sS'query_time'
p19
F0.9185528755187988
sS'comp_time'
p20
F0.20770025253295898
sS'exec_cq'
p21
I5
sS'total_cq'
p22
I6
sasS'total_cqs'
p23
I6
ssI3
(dp24
S'iters'
p25
I14
sS'meta'
p26
(lp27
(dp28
S'objective'
p29
I27
sS'query_time'
p30
F25.393049001693726
sS'comp_time'
p31
F0.5360417366027832
sS'exec_cq'
p32
I15
sS'total_cq'
p33
I33
sa(dp34
g29
I24
sg30
F0.37614893913269043
sg31
F0.02017378807067871
sg32
I13
sg33
I30
sa(dp35
g29
I21
sg30
F0.028203964233398438
sg31
F0.3487238883972168
sg32
I12
sg33
I27
sa(dp36
g29
I18
sg30
F0.0037279129028320312
sg31
F0.019756317138671875
sg32
I10
sg33
I24
sa(dp37
g29
I15
sg30
F0.011088132858276367
sg31
F0.14126992225646973
sg32
I9
sg33
I21
sa(dp38
g29
I12
sg30
F0.0025589466094970703
sg31
F0.01584911346435547
sg32
I7
sg33
I18
sa(dp39
g29
I9
sg30
F0.008255958557128906
sg31
F0.11490702629089355
sg32
I6
sg33
I15
sa(dp40
g29
I10
sg30
F0.18818187713623047
sg31
F0.01834416389465332
sg32
I5
sg33
I12
sa(dp41
g29
I9
sg30
F0.0004909038543701172
sg31
F0.003092050552368164
sg32
I4
sg33
I11
sa(dp42
g29
I6
sg30
F0.0025091171264648438
sg31
F0.015226125717163086
sg32
I4
sg33
I10
sa(dp43
g29
I6
sg30
F6.29425048828125e-05
sg31
F0.0003941059112548828
sg32
I3
sg33
I8
sa(dp44
g29
I5
sg30
F0.00018596649169921875
sg31
F0.001119375228881836
sg32
I3
sg33
I7
sa(dp45
g29
I4
sg30
F1.4781951904296875e-05
sg31
F0.00010228157043457031
sg32
I2
sg33
I6
sa(dp46
g29
I3
sg30
F0.012531042098999023
sg31
F0.015188217163085938
sg32
I2
sg33
I5
sasS'total_cqs'
p47
I33
ssI6
(dp48
S'iters'
p49
I2
sS'meta'
p50
(lp51
(dp52
S'objective'
p53
I1
sS'query_time'
p54
F14.563637971878052
sS'comp_time'
p55
F0.006736040115356445
sS'exec_cq'
p56
I4
sS'total_cq'
p57
I5
sa(dp58
g53
I0
sg54
F5.888938903808594e-05
sg55
F0.0004897117614746094
sg56
I1
sg57
I2
sasS'total_cqs'
p59
I5
ssI8
(dp60
S'iters'
p61
I3
sS'meta'
p62
(lp63
(dp64
S'objective'
p65
I4
sS'query_time'
p66
F22.900640964508057
sS'comp_time'
p67
F0.3105804920196533
sS'exec_cq'
p68
I5
sS'total_cq'
p69
I6
sa(dp70
g65
I3
sg66
F41.724360942840576
sg67
F41.49569272994995
sg68
I4
sg69
I5
sa(dp71
g65
I2
sg66
F0.07956385612487793
sg67
F0.07138705253601074
sg68
I3
sg69
I4
sasS'total_cqs'
p72
I6
ssI9
(dp73
S'iters'
p74
I3
sS'meta'
p75
(lp76
(dp77
S'objective'
p78
I0
sS'query_time'
p79
F11.58772897720337
sS'comp_time'
p80
F0.4134187698364258
sS'exec_cq'
p81
I3
sS'total_cq'
p82
I6
sa(dp83
g78
I1
sg79
F0.04260420799255371
sg80
F0.37441110610961914
sg81
I3
sg82
I3
sa(dp84
g78
I0
sg79
F0.008620023727416992
sg80
F0.042291879653930664
sg81
I2
sg82
I2
sasS'total_cqs'
p85
I6
ssI13
(dp86
S'iters'
p87
I2
sS'meta'
p88
(lp89
(dp90
S'objective'
p91
I6
sS'query_time'
p92
F0.019323110580444336
sS'comp_time'
p93
F0.011829853057861328
sS'exec_cq'
p94
I6
sS'total_cq'
p95
I8
sa(dp96
g91
I5
sg92
F3.695487976074219e-05
sg93
F0.00014019012451171875
sg94
I5
sg95
I7
sasS'total_cqs'
p97
I8
ssI14
(dp98
S'iters'
p99
I1
sS'meta'
p100
(lp101
(dp102
S'objective'
p103
I3
sS'query_time'
p104
F0.9458088874816895
sS'comp_time'
p105
F0.006593227386474609
sS'exec_cq'
p106
I5
sS'total_cq'
p107
I5
sasS'total_cqs'
p108
I5
ssI16
(dp109
S'iters'
p110
I3
sS'meta'
p111
(lp112
(dp113
S'objective'
p114
I1
sS'query_time'
p115
F1.4481399059295654
sS'comp_time'
p116
F0.009811162948608398
sS'exec_cq'
p117
I4
sS'total_cq'
p118
I5
sa(dp119
g114
I1
sg115
F0.04621386528015137
sg116
F0.0005121231079101562
sg117
I1
sg118
I3
sa(dp120
g114
I0
sg115
F4.887580871582031e-05
sg116
F0.00024390220642089844
sg117
I2
sg118
I2
sasS'total_cqs'
p121
I5
ssI18
(dp122
S'iters'
p123
I3
sS'meta'
p124
(lp125
(dp126
S'objective'
p127
I1
sS'query_time'
p128
F0.2161579132080078
sS'comp_time'
p129
F0.003665924072265625
sS'exec_cq'
p130
I4
sS'total_cq'
p131
I5
sa(dp132
g127
I1
sg128
F0.050871849060058594
sg129
F0.0002949237823486328
sg130
I1
sg131
I3
sa(dp133
g127
I0
sg128
F4.291534423828125e-05
sg129
F0.00017404556274414062
sg130
I2
sg131
I2
sasS'total_cqs'
p134
I5
ssI20
(dp135
S'iters'
p136
I6
sS'meta'
p137
(lp138
(dp139
S'objective'
p140
I8
sS'query_time'
p141
F7.137724876403809
sS'comp_time'
p142
F1.1057419776916504
sS'exec_cq'
p143
I6
sS'total_cq'
p144
I12
sa(dp145
g140
I6
sg141
F3.721518039703369
sg142
F0.575218915939331
sg143
I4
sg144
I10
sa(dp146
g140
I4
sg141
F0.21930313110351562
sg142
F1.025989294052124
sg143
I4
sg144
I8
sa(dp147
g140
I4
sg141
F2.384185791015625e-05
sg142
F0.00028896331787109375
sg143
I2
sg144
I6
sa(dp148
g140
I3
sg141
F0.17529797554016113
sg142
F0.7597577571868896
sg143
I2
sg144
I5
sa(dp149
g140
I2
sg141
F0.10457992553710938
sg142
F0.003824949264526367
sg143
I4
sg144
I4
sasS'total_cqs'
p150
I12
ssI21
(dp151
S'iters'
p152
I5
sS'meta'
p153
(lp154
(dp155
S'objective'
p156
I6
sS'query_time'
p157
F29.76068615913391
sS'comp_time'
p158
F0.24422216415405273
sS'exec_cq'
p159
I8
sS'total_cq'
p160
I14
sa(dp161
g156
I2
sg157
F30.362370014190674
sg158
F1.8700840473175049
sg159
I4
sg160
I10
sa(dp162
g156
I2
sg157
F0.009415864944458008
sg158
F0.061301231384277344
sg159
I4
sg160
I6
sa(dp163
g156
I0
sg157
F0.0010509490966796875
sg158
F0.008085012435913086
sg159
I2
sg160
I4
sa(dp164
g156
I0
sg157
F0.01659107208251953
sg158
F0.00010895729064941406
sg159
I1
sg160
I2
sasS'total_cqs'
p165
I14
ssI22
(dp166
S'iters'
p167
I1
sS'meta'
p168
(lp169
(dp170
S'objective'
p171
I0
sS'query_time'
p172
F0.003381967544555664
sS'comp_time'
p173
F0.0013799667358398438
sS'exec_cq'
p174
I1
sS'total_cq'
p175
I2
sasS'total_cqs'
p176
I2
ssI25
(dp177
S'iters'
p178
I4
sS'meta'
p179
(lp180
(dp181
S'objective'
p182
I3
sS'query_time'
p183
F44.462469816207886
sS'comp_time'
p184
F7.195754766464233
sS'exec_cq'
p185
I4
sS'total_cq'
p186
I7
sa(dp187
g182
I1
sg183
F5.058465003967285
sg184
F0.5778689384460449
sg185
I2
sg186
I5
sa(dp188
g182
I1
sg183
F0.10715126991271973
sg184
F0.1899709701538086
sg185
I2
sg186
I3
sa(dp189
g182
I0
sg183
F0.00853109359741211
sg184
F0.0849769115447998
sg185
I1
sg186
I2
sasS'total_cqs'
p190
I7
ssI26
(dp191
S'iters'
p192
I9
sS'meta'
p193
(lp194
(dp195
S'objective'
p196
I9
sS'query_time'
p197
F0.2660560607910156
sS'comp_time'
p198
F0.027737140655517578
sS'exec_cq'
p199
I4
sS'total_cq'
p200
I13
sa(dp201
g196
I9
sg197
F19.62384796142578
sg198
F4.768653154373169
sg199
I3
sg200
I11
sa(dp202
g196
I6
sg197
F0.016540050506591797
sg198
F0.00020384788513183594
sg199
I2
sg200
I10
sa(dp203
g196
I6
sg197
F0.0014030933380126953
sg198
F0.007896184921264648
sg199
I2
sg200
I8
sa(dp204
g196
I5
sg197
F0.00047588348388671875
sg198
F0.002993345260620117
sg199
I2
sg200
I7
sa(dp205
g196
I2
sg197
F3.388154983520508
sg198
F0.013590097427368164
sg199
I2
sg200
I6
sa(dp206
g196
I2
sg197
F0.0002129077911376953
sg198
F0.0014011859893798828
sg199
I1
sg200
I4
sa(dp207
g196
I1
sg197
F0.00020813941955566406
sg198
F0.0014488697052001953
sg199
I1
sg200
I3
sa(dp208
g196
I0
sg197
F0.03372502326965332
sg198
F0.0015139579772949219
sg199
I1
sg200
I2
sasS'total_cqs'
p209
I13
ssI27
(dp210
S'iters'
p211
I1
sS'meta'
p212
(lp213
(dp214
S'objective'
p215
I0
sS'query_time'
p216
F0.1856849193572998
sS'comp_time'
p217
F0.007445096969604492
sS'exec_cq'
p218
I1
sS'total_cq'
p219
I2
sasS'total_cqs'
p220
I2
ssI28
(dp221
S'iters'
p222
I4
sS'meta'
p223
(lp224
(dp225
S'objective'
p226
I8
sS'query_time'
p227
F1.508458137512207
sS'comp_time'
p228
F0.10681295394897461
sS'exec_cq'
p229
I6
sS'total_cq'
p230
I14
sa(dp231
g226
I7
sg227
F0.0024089813232421875
sg228
F0.018775224685668945
sg229
I3
sg230
I11
sa(dp232
g226
I7
sg227
F0.0046749114990234375
sg228
F0.000118255615234375
sg229
I2
sg230
I9
sa(dp233
g226
I6
sg227
F0.0026459693908691406
sg228
F0.00012683868408203125
sg229
I1
sg230
I8
sasS'total_cqs'
p234
I14
ssI29
(dp235
S'iters'
p236
I1
sS'meta'
p237
(lp238
(dp239
S'objective'
p240
I0
sS'query_time'
p241
F0.006551027297973633
sS'comp_time'
p242
F0.0013539791107177734
sS'exec_cq'
p243
I2
sS'total_cq'
p244
I2
sasS'total_cqs'
p245
I2
ssI30
(dp246
S'iters'
p247
I1
sS'meta'
p248
(lp249
(dp250
S'objective'
p251
I0
sS'query_time'
p252
F0.3434469699859619
sS'comp_time'
p253
F0.0043299198150634766
sS'exec_cq'
p254
I2
sS'total_cq'
p255
I2
sasS'total_cqs'
p256
I2
ssI31
(dp257
S'iters'
p258
I4
sS'meta'
p259
(lp260
(dp261
S'objective'
p262
I5
sS'query_time'
p263
F4.0176520347595215
sS'comp_time'
p264
F0.20069313049316406
sS'exec_cq'
p265
I4
sS'total_cq'
p266
I9
sa(dp267
g262
I1
sg263
F1.3725671768188477
sg264
F0.14274907112121582
sg265
I5
sg266
I7
sa(dp268
g262
I1
sg263
F0.009876012802124023
sg264
F0.04005694389343262
sg265
I3
sg266
I3
sa(dp269
g262
I0
sg263
F0.002878904342651367
sg264
F0.015842199325561523
sg265
I2
sg266
I2
sasS'total_cqs'
p270
I9
ssI32
(dp271
S'iters'
p272
I3
sS'meta'
p273
(lp274
(dp275
S'objective'
p276
I1
sS'query_time'
p277
F17.41595196723938
sS'comp_time'
p278
F4.166682720184326
sS'exec_cq'
p279
I4
sS'total_cq'
p280
I7
sa(dp281
g276
I0
sg277
F1.0414690971374512
sg278
F0.02332305908203125
sg279
I2
sg280
I4
sa(dp282
g276
I0
sg277
F0.3170909881591797
sg278
F0.275496244430542
sg279
I1
sg280
I2
sasS'total_cqs'
p283
I7
ssI33
(dp284
S'iters'
p285
I1
sS'meta'
p286
(lp287
(dp288
S'objective'
p289
I0
sS'query_time'
p290
F0.06880617141723633
sS'comp_time'
p291
F0.015240669250488281
sS'exec_cq'
p292
I2
sS'total_cq'
p293
I2
sasS'total_cqs'
p294
I2
ssI35
(dp295
S'iters'
p296
I3
sS'meta'
p297
(lp298
(dp299
S'objective'
p300
I1
sS'query_time'
p301
F15.625131130218506
sS'comp_time'
p302
F0.38742494583129883
sS'exec_cq'
p303
I4
sS'total_cq'
p304
I5
sa(dp305
g300
I1
sg301
F0.1750330924987793
sg302
F0.06937336921691895
sg303
I2
sg304
I3
sa(dp306
g300
I0
sg301
F0.0006418228149414062
sg302
F0.0033638477325439453
sg303
I1
sg304
I2
sasS'total_cqs'
p307
I5
ssI37
(dp308
S'iters'
p309
I2
sS'meta'
p310
(lp311
(dp312
S'objective'
p313
I6
sS'query_time'
p314
F0.7733500003814697
sS'comp_time'
p315
F0.031967878341674805
sS'exec_cq'
p316
I4
sS'total_cq'
p317
I10
sa(dp318
g313
I0
sg314
F0.004352092742919922
sg315
F0.01884603500366211
sg316
I2
sg317
I2
sasS'total_cqs'
p319
I10
ssI40
(dp320
S'iters'
p321
I1
sS'meta'
p322
(lp323
(dp324
S'objective'
p325
I0
sS'query_time'
p326
F0.003490924835205078
sS'comp_time'
p327
F0.0013580322265625
sS'exec_cq'
p328
I1
sS'total_cq'
p329
I2
sasS'total_cqs'
p330
I2
ssI41
(dp331
S'iters'
p332
I3
sS'meta'
p333
(lp334
(dp335
S'objective'
p336
I2
sS'query_time'
p337
F10.506330966949463
sS'comp_time'
p338
F1.781628131866455
sS'exec_cq'
p339
I3
sS'total_cq'
p340
I6
sa(dp341
g336
I0
sg337
F0.8024280071258545
sg338
F0.004268169403076172
sg339
I2
sg340
I4
sa(dp342
g336
I0
sg337
F0.001294851303100586
sg338
F0.005038261413574219
sg339
I2
sg340
I2
sasS'total_cqs'
p343
I6
ssI42
(dp344
S'iters'
p345
I1
sS'meta'
p346
(lp347
(dp348
S'objective'
p349
I0
sS'query_time'
p350
F0.012248992919921875
sS'comp_time'
p351
F0.0022094249725341797
sS'exec_cq'
p352
I1
sS'total_cq'
p353
I2
sasS'total_cqs'
p354
I2
ssI44
(dp355
S'iters'
p356
I3
sS'meta'
p357
(lp358
(dp359
S'objective'
p360
I3
sS'query_time'
p361
F1.3639919757843018
sS'comp_time'
p362
F0.16919779777526855
sS'exec_cq'
p363
I2
sS'total_cq'
p364
I5
sa(dp365
g360
I0
sg361
F0.23972201347351074
sg362
F0.0017919540405273438
sg363
I2
sg364
I4
sa(dp366
g360
I0
sg361
F7.700920104980469e-05
sg362
F0.0004649162292480469
sg363
I1
sg364
I2
sasS'total_cqs'
p367
I5
ssI45
(dp368
S'iters'
p369
I2
sS'meta'
p370
(lp371
(dp372
S'objective'
p373
I1
sS'query_time'
p374
F0.05539512634277344
sS'comp_time'
p375
F0.004400968551635742
sS'exec_cq'
p376
I3
sS'total_cq'
p377
I5
sa(dp378
g373
I0
sg374
F0.00017714500427246094
sg375
F0.0007596015930175781
sg376
I2
sg377
I2
sasS'total_cqs'
p379
I5
ssI48
(dp380
S'iters'
p381
I1
sS'meta'
p382
(lp383
(dp384
S'objective'
p385
I0
sS'query_time'
p386
F0.21316003799438477
sS'comp_time'
p387
F0.00468134880065918
sS'exec_cq'
p388
I2
sS'total_cq'
p389
I2
sasS'total_cqs'
p390
I2
ssI49
(dp391
S'iters'
p392
I2
sS'meta'
p393
(lp394
(dp395
S'objective'
p396
I1
sS'query_time'
p397
F0.2620508670806885
sS'comp_time'
p398
F0.006281852722167969
sS'exec_cq'
p399
I4
sS'total_cq'
p400
I5
sa(dp401
g396
I1
sg397
F3.790855407714844e-05
sg398
F0.0002930164337158203
sg399
I2
sg400
I3
sasS'total_cqs'
p402
I5
ssI50
(dp403
S'iters'
p404
I2
sS'meta'
p405
(lp406
(dp407
S'objective'
p408
I3
sS'query_time'
p409
F0.8346819877624512
sS'comp_time'
p410
F0.05440807342529297
sS'exec_cq'
p411
I5
sS'total_cq'
p412
I5
sa(dp413
g408
I2
sg409
F0.00011396408081054688
sg410
F0.0008211135864257812
sg411
I4
sg412
I4
sasS'total_cqs'
p414
I5
ssI55
(dp415
S'iters'
p416
I1
sS'meta'
p417
(lp418
(dp419
S'objective'
p420
I0
sS'query_time'
p421
F24.9070827960968
sS'comp_time'
p422
F3.338179111480713
sS'exec_cq'
p423
I2
sS'total_cq'
p424
I2
sasS'total_cqs'
p425
I2
ssI57
(dp426
S'iters'
p427
I1
sS'meta'
p428
(lp429
(dp430
S'objective'
p431
I1
sS'query_time'
p432
F12.916859865188599
sS'comp_time'
p433
F2.501997947692871
sS'exec_cq'
p434
I2
sS'total_cq'
p435
I3
sasS'total_cqs'
p436
I3
ssI116
(dp437
S'iters'
p438
I3
sS'meta'
p439
(lp440
(dp441
S'objective'
p442
I17
sS'query_time'
p443
F3.971299409866333
sS'comp_time'
p444
F0.5250709056854248
sS'exec_cq'
p445
I15
sS'total_cq'
p446
I21
sa(dp447
g442
I15
sg443
F0.5768022537231445
sg444
F0.003998517990112305
sg445
I14
sg446
I19
sa(dp448
g442
I0
sg443
F0.0011920928955078125
sg444
F0.003551959991455078
sg445
I2
sg446
I2
sasS'total_cqs'
p449
I21
ssI117
(dp450
S'iters'
p451
I2
sS'meta'
p452
(lp453
(dp454
S'objective'
p455
I3
sS'query_time'
p456
F0.007328033447265625
sS'comp_time'
p457
F0.0014960765838623047
sS'exec_cq'
p458
I3
sS'total_cq'
p459
I5
sa(dp460
g455
I2
sg456
F0.0017845630645751953
sg457
F8.320808410644531e-05
sg458
I3
sg459
I4
sasS'total_cqs'
p461
I5
ss.