(dp0
I1
(dp1
S'iters'
p2
I2
sS'meta'
p3
(lp4
(dp5
S'objective'
p6
I3
sS'query_time'
p7
F7.397836923599243
sS'comp_time'
p8
F7.796287536621094e-05
sS'exec_cq'
p9
I1
sS'total_cq'
p10
I6
sa(dp11
g6
I3
sg7
F553.5381081104279
sg8
F0.0006089210510253906
sg9
I1
sg10
I2
sasS'total_cqs'
p12
I6
ssI2
(dp13
S'iters'
p14
I1
sS'meta'
p15
(lp16
(dp17
S'objective'
p18
I9
sS'query_time'
p19
F0.7953047752380371
sS'comp_time'
p20
F6.604194641113281e-05
sS'exec_cq'
p21
I1
sS'total_cq'
p22
I6
sasS'total_cqs'
p23
I6
ssI3
(dp24
S'iters'
p25
I8
sS'meta'
p26
(lp27
(dp28
S'objective'
p29
I495
sS'query_time'
p30
F0.15187406539916992
sS'comp_time'
p31
F9.918212890625e-05
sS'exec_cq'
p32
I1
sS'total_cq'
p33
I33
sa(dp34
g29
I450
sg30
F1.5086188316345215
sg31
F0.00010609626770019531
sg32
I1
sg33
I32
sa(dp35
g29
I381
sg30
F0.04357290267944336
sg31
F9.894371032714844e-05
sg32
I1
sg33
I29
sa(dp36
g29
I375
sg30
F0.0076122283935546875
sg31
F8.20159912109375e-05
sg32
I1
sg33
I26
sa(dp37
g29
I347
sg30
F0.16207408905029297
sg31
F8.296966552734375e-05
sg32
I1
sg33
I25
sa(dp38
g29
I312
sg30
F0.014281988143920898
sg31
F0.00010395050048828125
sg32
I1
sg33
I24
sa(dp39
g29
I248
sg30
F0.014784097671508789
sg31
F7.104873657226562e-05
sg32
I1
sg33
I22
sa(dp40
g29
I244
sg30
F0.18731403350830078
sg31
F9.799003601074219e-05
sg32
I1
sg33
I20
sasS'total_cqs'
p41
I33
ssI4
(dp42
S'iters'
p43
I0
sS'meta'
p44
(lp45
sS'total_cqs'
p46
I1
ssI5
(dp47
S'iters'
p48
I0
sS'meta'
p49
(lp50
sS'total_cqs'
p51
I1
ssI6
(dp52
S'iters'
p53
I2
sS'meta'
p54
(lp55
(dp56
S'objective'
p57
I1
sS'query_time'
p58
F5.15451717376709
sS'comp_time'
p59
F0.00013208389282226562
sS'exec_cq'
p60
I1
sS'total_cq'
p61
I5
sa(dp62
g57
I2
sg58
F30.4611599445343
sg59
F0.00014019012451171875
sg60
I1
sg61
I2
sasS'total_cqs'
p63
I5
ssI7
(dp64
S'iters'
p65
I0
sS'meta'
p66
(lp67
sS'total_cqs'
p68
I1
ssI8
(dp69
S'iters'
p70
I2
sS'meta'
p71
(lp72
(dp73
S'objective'
p74
I19
sS'query_time'
p75
F42.670204162597656
sS'comp_time'
p76
F0.0001461505889892578
sS'exec_cq'
p77
I3
sS'total_cq'
p78
I6
sa(dp79
g74
I8
sg75
F0.10026717185974121
sg76
F9.012222290039062e-05
sg77
I2
sg78
I5
sasS'total_cqs'
p80
I6
ssI9
(dp81
S'iters'
p82
I2
sS'meta'
p83
(lp84
(dp85
S'objective'
p86
I7
sS'query_time'
p87
F5.481067895889282
sS'comp_time'
p88
F8.821487426757812e-05
sS'exec_cq'
p89
I1
sS'total_cq'
p90
I6
sa(dp91
g86
I5
sg87
F0.006395101547241211
sg88
F5.0067901611328125e-05
sg89
I1
sg90
I2
sasS'total_cqs'
p92
I6
ssI10
(dp93
S'iters'
p94
I0
sS'meta'
p95
(lp96
sS'total_cqs'
p97
I1
ssI11
(dp98
S'iters'
p99
I0
sS'meta'
p100
(lp101
sS'total_cqs'
p102
I1
ssI12
(dp103
S'iters'
p104
I0
sS'meta'
p105
(lp106
sS'total_cqs'
p107
I1
ssI13
(dp108
S'iters'
p109
I1
sS'meta'
p110
(lp111
(dp112
S'objective'
p113
I22
sS'query_time'
p114
F0.14597487449645996
sS'comp_time'
p115
F0.00010585784912109375
sS'exec_cq'
p116
I2
sS'total_cq'
p117
I8
sasS'total_cqs'
p118
I8
ssI14
(dp119
S'iters'
p120
I1
sS'meta'
p121
(lp122
(dp123
S'objective'
p124
I5
sS'query_time'
p125
F0.9698078632354736
sS'comp_time'
p126
F7.700920104980469e-05
sS'exec_cq'
p127
I1
sS'total_cq'
p128
I5
sasS'total_cqs'
p129
I5
ssI16
(dp130
S'iters'
p131
I2
sS'meta'
p132
(lp133
(dp134
S'objective'
p135
I1
sS'query_time'
p136
F8.110513925552368
sS'comp_time'
p137
F0.00010013580322265625
sS'exec_cq'
p138
I1
sS'total_cq'
p139
I5
sa(dp140
g135
I2
sg136
F105.20596814155579
sg137
F7.915496826171875e-05
sg138
I2
sg139
I2
sasS'total_cqs'
p141
I5
ssI17
(dp142
S'iters'
p143
I0
sS'meta'
p144
(lp145
sS'total_cqs'
p146
I1
ssI18
(dp147
S'iters'
p148
I2
sS'meta'
p149
(lp150
(dp151
S'objective'
p152
I3
sS'query_time'
p153
F0.41680288314819336
sS'comp_time'
p154
F9.512901306152344e-05
sS'exec_cq'
p155
I1
sS'total_cq'
p156
I5
sa(dp157
g152
I1
sg153
F0.37494516372680664
sg154
F8.559226989746094e-05
sg155
I2
sg156
I2
sasS'total_cqs'
p158
I5
ssI19
(dp159
S'iters'
p160
I0
sS'meta'
p161
(lp162
sS'total_cqs'
p163
I1
ssI20
(dp164
S'iters'
p165
I3
sS'meta'
p166
(lp167
(dp168
S'objective'
p169
I36
sS'query_time'
p170
F0.01986098289489746
sS'comp_time'
p171
F7.987022399902344e-05
sS'exec_cq'
p172
I1
sS'total_cq'
p173
I12
sa(dp174
g169
I33
sg170
F6.890866041183472
sg171
F8.797645568847656e-05
sg172
I1
sg173
I10
sa(dp175
g169
I25
sg170
F0.09958505630493164
sg171
F7.700920104980469e-05
sg172
I1
sg173
I8
sasS'total_cqs'
p176
I12
ssI21
(dp177
S'iters'
p178
I3
sS'meta'
p179
(lp180
(dp181
S'objective'
p182
I55
sS'query_time'
p183
F2.2073709964752197
sS'comp_time'
p184
F8.58306884765625e-05
sS'exec_cq'
p185
I1
sS'total_cq'
p186
I14
sa(dp187
g182
I36
sg183
F0.8034060001373291
sg184
F8.177757263183594e-05
sg185
I1
sg186
I12
sa(dp188
g182
I34
sg183
F0.020750999450683594
sg184
F5.888938903808594e-05
sg185
I1
sg186
I10
sasS'total_cqs'
p189
I14
ssI22
(dp190
S'iters'
p191
I1
sS'meta'
p192
(lp193
(dp194
S'objective'
p195
I1
sS'query_time'
p196
F0.004754066467285156
sS'comp_time'
p197
F8.20159912109375e-05
sS'exec_cq'
p198
I1
sS'total_cq'
p199
I2
sasS'total_cqs'
p200
I2
ssI23
(dp201
S'iters'
p202
I0
sS'meta'
p203
(lp204
sS'total_cqs'
p205
I1
ssI24
(dp206
S'iters'
p207
I0
sS'meta'
p208
(lp209
sS'total_cqs'
p210
I1
ssI25
(dp211
S'iters'
p212
I1
sS'meta'
p213
(lp214
(dp215
S'objective'
p216
I14
sS'query_time'
p217
F0.35599589347839355
sS'comp_time'
p218
F7.700920104980469e-05
sS'exec_cq'
p219
I1
sS'total_cq'
p220
I7
sasS'total_cqs'
p221
I7
ssI26
(dp222
S'iters'
p223
I3
sS'meta'
p224
(lp225
(dp226
S'objective'
p227
I65
sS'query_time'
p228
F5.9758079051971436
sS'comp_time'
p229
F9.417533874511719e-05
sS'exec_cq'
p230
I1
sS'total_cq'
p231
I13
sa(dp232
g227
I54
sg228
F0.034620046615600586
sg229
F7.581710815429688e-05
sg230
I1
sg231
I12
sa(dp233
g227
I44
sg228
F0.008077859878540039
sg229
F6.985664367675781e-05
sg230
I1
sg231
I11
sasS'total_cqs'
p234
I13
ssI27
(dp235
S'iters'
p236
I1
sS'meta'
p237
(lp238
(dp239
S'objective'
p240
I1
sS'query_time'
p241
F0.13617205619812012
sS'comp_time'
p242
F7.390975952148438e-05
sS'exec_cq'
p243
I1
sS'total_cq'
p244
I2
sasS'total_cqs'
p245
I2
ssI28
(dp246
S'iters'
p247
I3
sS'meta'
p248
(lp249
(dp250
S'objective'
p251
I77
sS'query_time'
p252
F1.6296970844268799
sS'comp_time'
p253
F0.00011110305786132812
sS'exec_cq'
p254
I1
sS'total_cq'
p255
I14
sa(dp256
g251
I65
sg252
F1.182218074798584
sg253
F0.000102996826171875
sg254
I1
sg255
I13
sa(dp257
g251
I54
sg252
F1.0180919170379639
sg253
F9.799003601074219e-05
sg254
I1
sg255
I12
sasS'total_cqs'
p258
I14
ssI29
(dp259
S'iters'
p260
I1
sS'meta'
p261
(lp262
(dp263
S'objective'
p264
I1
sS'query_time'
p265
F0.005176067352294922
sS'comp_time'
p266
F6.914138793945312e-05
sS'exec_cq'
p267
I1
sS'total_cq'
p268
I2
sasS'total_cqs'
p269
I2
ssI30
(dp270
S'iters'
p271
I1
sS'meta'
p272
(lp273
(dp274
S'objective'
p275
I1
sS'query_time'
p276
F0.3600449562072754
sS'comp_time'
p277
F6.103515625e-05
sS'exec_cq'
p278
I1
sS'total_cq'
p279
I2
sasS'total_cqs'
p280
I2
ssI31
(dp281
S'iters'
p282
I2
sS'meta'
p283
(lp284
(dp285
S'objective'
p286
I27
sS'query_time'
p287
F8.025374174118042
sS'comp_time'
p288
F9.393692016601562e-05
sS'exec_cq'
p289
I1
sS'total_cq'
p290
I9
sa(dp291
g286
I20
sg287
F0.3878180980682373
sg288
F0.00011301040649414062
sg289
I1
sg290
I8
sasS'total_cqs'
p292
I9
ssI32
(dp293
S'iters'
p294
I1
sS'meta'
p295
(lp296
(dp297
S'objective'
p298
I14
sS'query_time'
p299
F0.18866300582885742
sS'comp_time'
p300
F8.797645568847656e-05
sS'exec_cq'
p301
I1
sS'total_cq'
p302
I7
sasS'total_cqs'
p303
I7
ssI33
(dp304
S'iters'
p305
I1
sS'meta'
p306
(lp307
(dp308
S'objective'
p309
I1
sS'query_time'
p310
F0.02909708023071289
sS'comp_time'
p311
F7.295608520507812e-05
sS'exec_cq'
p312
I1
sS'total_cq'
p313
I2
sasS'total_cqs'
p314
I2
ssI34
(dp315
S'iters'
p316
I0
sS'meta'
p317
(lp318
sS'total_cqs'
p319
I1
ssI35
(dp320
S'iters'
p321
I2
sS'meta'
p322
(lp323
(dp324
S'objective'
p325
I3
sS'query_time'
p326
F3.0450329780578613
sS'comp_time'
p327
F0.0001227855682373047
sS'exec_cq'
p328
I1
sS'total_cq'
p329
I5
sa(dp330
g325
I1
sg326
F0.15066909790039062
sg327
F0.0001220703125
sg328
I1
sg329
I2
sasS'total_cqs'
p331
I5
ssI37
(dp332
S'iters'
p333
I2
sS'meta'
p334
(lp335
(dp336
S'objective'
p337
I35
sS'query_time'
p338
F0.3332099914550781
sS'comp_time'
p339
F7.891654968261719e-05
sS'exec_cq'
p340
I1
sS'total_cq'
p341
I10
sa(dp342
g337
I27
sg338
F0.2990999221801758
sg339
F8.630752563476562e-05
sg340
I1
sg341
I9
sasS'total_cqs'
p343
I10
ssI38
(dp344
S'iters'
p345
I0
sS'meta'
p346
(lp347
sS'total_cqs'
p348
I1
ssI39
(dp349
S'iters'
p350
I0
sS'meta'
p351
(lp352
sS'total_cqs'
p353
I1
ssI40
(dp354
S'iters'
p355
I1
sS'meta'
p356
(lp357
(dp358
S'objective'
p359
I1
sS'query_time'
p360
F16.81230902671814
sS'comp_time'
p361
F0.00019121170043945312
sS'exec_cq'
p362
I2
sS'total_cq'
p363
I2
sasS'total_cqs'
p364
I2
ssI41
(dp365
S'iters'
p366
I2
sS'meta'
p367
(lp368
(dp369
S'objective'
p370
I1
sS'query_time'
p371
F0.7557191848754883
sS'comp_time'
p372
F0.00010585784912109375
sS'exec_cq'
p373
I1
sS'total_cq'
p374
I6
sa(dp375
g370
I1
sg371
F71.55038809776306
sg372
F7.200241088867188e-05
sg373
I2
sg374
I2
sasS'total_cqs'
p376
I6
ssI42
(dp377
S'iters'
p378
I1
sS'meta'
p379
(lp380
(dp381
S'objective'
p382
I1
sS'query_time'
p383
F0.010905027389526367
sS'comp_time'
p384
F7.605552673339844e-05
sS'exec_cq'
p385
I1
sS'total_cq'
p386
I2
sasS'total_cqs'
p387
I2
ssI43
(dp388
S'iters'
p389
I0
sS'meta'
p390
(lp391
sS'total_cqs'
p392
I1
ssI44
(dp393
S'iters'
p394
I1
sS'meta'
p395
(lp396
(dp397
S'objective'
p398
I5
sS'query_time'
p399
F0.009346961975097656
sS'comp_time'
p400
F7.677078247070312e-05
sS'exec_cq'
p401
I1
sS'total_cq'
p402
I5
sasS'total_cqs'
p403
I5
ssI45
(dp404
S'iters'
p405
I2
sS'meta'
p406
(lp407
(dp408
S'objective'
p409
I3
sS'query_time'
p410
F0.04410099983215332
sS'comp_time'
p411
F8.20159912109375e-05
sS'exec_cq'
p412
I1
sS'total_cq'
p413
I5
sa(dp414
g409
I1
sg410
F0.7099881172180176
sg411
F7.915496826171875e-05
sg412
I2
sg413
I2
sasS'total_cqs'
p415
I5
ssI46
(dp416
S'iters'
p417
I0
sS'meta'
p418
(lp419
sS'total_cqs'
p420
I1
ssI47
(dp421
S'iters'
p422
I0
sS'meta'
p423
(lp424
sS'total_cqs'
p425
I1
ssI48
(dp426
S'iters'
p427
I1
sS'meta'
p428
(lp429
(dp430
S'objective'
p431
I1
sS'query_time'
p432
F0.12630510330200195
sS'comp_time'
p433
F8.106231689453125e-05
sS'exec_cq'
p434
I1
sS'total_cq'
p435
I2
sasS'total_cqs'
p436
I2
ssI49
(dp437
S'iters'
p438
I2
sS'meta'
p439
(lp440
(dp441
S'objective'
p442
I1
sS'query_time'
p443
F0.08754205703735352
sS'comp_time'
p444
F0.0001201629638671875
sS'exec_cq'
p445
I1
sS'total_cq'
p446
I5
sa(dp447
g442
I3
sg443
F0.1018679141998291
sg444
F0.00011086463928222656
sg445
I1
sg446
I2
sasS'total_cqs'
p448
I5
ssI50
(dp449
S'iters'
p450
I1
sS'meta'
p451
(lp452
(dp453
S'objective'
p454
I5
sS'query_time'
p455
F0.8615829944610596
sS'comp_time'
p456
F7.915496826171875e-05
sS'exec_cq'
p457
I1
sS'total_cq'
p458
I5
sasS'total_cqs'
p459
I5
ssI51
(dp460
S'iters'
p461
I0
sS'meta'
p462
(lp463
sS'total_cqs'
p464
I1
ssI52
(dp465
S'iters'
p466
I0
sS'meta'
p467
(lp468
sS'total_cqs'
p469
I1
ssI53
(dp470
S'iters'
p471
I0
sS'meta'
p472
(lp473
sS'total_cqs'
p474
I1
ssI55
(dp475
S'iters'
p476
I1
sS'meta'
p477
(lp478
(dp479
S'objective'
p480
I1
sS'query_time'
p481
F24.916866779327393
sS'comp_time'
p482
F0.00017213821411132812
sS'exec_cq'
p483
I1
sS'total_cq'
p484
I2
sasS'total_cqs'
p485
I2
ssI56
(dp486
S'iters'
p487
I0
sS'meta'
p488
(lp489
sS'total_cqs'
p490
I1
ssI57
(dp491
S'iters'
p492
I1
sS'meta'
p493
(lp494
(dp495
S'objective'
p496
I2
sS'query_time'
p497
F11.575287103652954
sS'comp_time'
p498
F7.319450378417969e-05
sS'exec_cq'
p499
I2
sS'total_cq'
p500
I3
sasS'total_cqs'
p501
I3
ssI108
(dp502
S'iters'
p503
I0
sS'meta'
p504
(lp505
sS'total_cqs'
p506
I1
ssI109
(dp507
S'iters'
p508
I0
sS'meta'
p509
(lp510
sS'total_cqs'
p511
I1
ssI116
(dp512
S'iters'
p513
I3
sS'meta'
p514
(lp515
(dp516
S'objective'
p517
I189
sS'query_time'
p518
F0.14423203468322754
sS'comp_time'
p519
F9.512901306152344e-05
sS'exec_cq'
p520
I1
sS'total_cq'
p521
I21
sa(dp522
g517
I164
sg518
F4.4631969928741455
sg519
F0.00014901161193847656
sg520
I4
sg521
I20
sa(dp523
g517
I11
sg518
F8.002798080444336
sg519
F0.00010395050048828125
sg520
I1
sg521
I2
sasS'total_cqs'
p524
I21
ssI117
(dp525
S'iters'
p526
I1
sS'meta'
p527
(lp528
(dp529
S'objective'
p530
I5
sS'query_time'
p531
F0.004971027374267578
sS'comp_time'
p532
F5.817413330078125e-05
sS'exec_cq'
p533
I1
sS'total_cq'
p534
I5
sasS'total_cqs'
p535
I5
ssI118
(dp536
S'iters'
p537
I0
sS'meta'
p538
(lp539
sS'total_cqs'
p540
I1
ssI122
(dp541
S'iters'
p542
I0
sS'meta'
p543
(lp544
sS'total_cqs'
p545
I1
ss.