(dp0
I1
(dp1
S'iters'
p2
I1
sS'meta'
p3
(lp4
(dp5
S'objective'
p6
I9
sS'query_time'
p7
F25.41626501083374
sS'comp_time'
p8
F20.113807201385498
sS'exec_cq'
p9
I6
sS'total_cq'
p10
I6
sasS'total_cqs'
p11
I6
ssI2
(dp12
S'iters'
p13
I1
sS'meta'
p14
(lp15
(dp16
S'objective'
p17
I9
sS'query_time'
p18
F8.166175127029419
sS'comp_time'
p19
F0.08022785186767578
sS'exec_cq'
p20
I6
sS'total_cq'
p21
I6
sasS'total_cqs'
p22
I6
ssI3
(dp23
S'iters'
p24
I7
sS'meta'
p25
(lp26
(dp27
S'objective'
p28
I423
sS'query_time'
p29
F56.734601974487305
sS'comp_time'
p30
F0.1487441062927246
sS'exec_cq'
p31
I33
sS'total_cq'
p32
I33
sa(dp33
g28
I384
sg29
F0.017692089080810547
sg30
F0.11917686462402344
sg31
I30
sg32
I30
sa(dp34
g28
I332
sg29
F0.03937506675720215
sg30
F0.08014106750488281
sg31
I27
sg32
I27
sa(dp35
g28
I279
sg29
F0.015546798706054688
sg30
F0.11501598358154297
sg31
I24
sg32
I24
sa(dp36
g28
I244
sg29
F0.014877080917358398
sg30
F0.10561394691467285
sg31
I21
sg32
I21
sa(dp37
g28
I200
sg29
F0.03099513053894043
sg30
F0.08083987236022949
sg31
I18
sg32
I18
sa(dp38
g28
I178
sg29
F0.0062220096588134766
sg30
F0.038552045822143555
sg31
I15
sg32
I15
sasS'total_cqs'
p39
I33
ssI4
(dp40
S'iters'
p41
I0
sS'meta'
p42
(lp43
sS'total_cqs'
p44
I1
ssI5
(dp45
S'iters'
p46
I0
sS'meta'
p47
(lp48
sS'total_cqs'
p49
I1
ssI6
(dp50
S'iters'
p51
I3
sS'meta'
p52
(lp53
(dp54
S'objective'
p55
I9
sS'query_time'
p56
F24.860473155975342
sS'comp_time'
p57
F24.606828212738037
sS'exec_cq'
p58
I5
sS'total_cq'
p59
I5
sa(dp60
g55
I6
sg56
F0.0001499652862548828
sg57
F1.1779491901397705
sg58
I3
sg59
I3
sa(dp61
g55
I1
sg56
F5.698204040527344e-05
sg57
F51.55436587333679
sg58
I2
sg59
I2
sasS'total_cqs'
p62
I5
ssI7
(dp63
S'iters'
p64
I0
sS'meta'
p65
(lp66
sS'total_cqs'
p67
I1
ssI8
(dp68
S'iters'
p69
I1
sS'meta'
p70
(lp71
(dp72
S'objective'
p73
I9
sS'query_time'
p74
F40.168299198150635
sS'comp_time'
p75
F13.837927103042603
sS'exec_cq'
p76
I6
sS'total_cq'
p77
I6
sasS'total_cqs'
p78
I6
ssI9
(dp79
S'iters'
p80
I2
sS'meta'
p81
(lp82
(dp83
S'objective'
p84
I5
sS'query_time'
p85
F29.960723876953125
sS'comp_time'
p86
F20.20932173728943
sS'exec_cq'
p87
I6
sS'total_cq'
p88
I6
sa(dp89
g84
I4
sg85
F0.07409095764160156
sg86
F0.19518208503723145
sg87
I2
sg88
I2
sasS'total_cqs'
p90
I6
ssI10
(dp91
S'iters'
p92
I0
sS'meta'
p93
(lp94
sS'total_cqs'
p95
I1
ssI11
(dp96
S'iters'
p97
I0
sS'meta'
p98
(lp99
sS'total_cqs'
p100
I1
ssI12
(dp101
S'iters'
p102
I0
sS'meta'
p103
(lp104
sS'total_cqs'
p105
I1
ssI13
(dp106
S'iters'
p107
I1
sS'meta'
p108
(lp109
(dp110
S'objective'
p111
I20
sS'query_time'
p112
F1.2912659645080566
sS'comp_time'
p113
F0.00023794174194335938
sS'exec_cq'
p114
I8
sS'total_cq'
p115
I8
sasS'total_cqs'
p116
I8
ssI14
(dp117
S'iters'
p118
I3
sS'meta'
p119
(lp120
(dp121
S'objective'
p122
I9
sS'query_time'
p123
F42.99823999404907
sS'comp_time'
p124
F0.005391120910644531
sS'exec_cq'
p125
I5
sS'total_cq'
p126
I5
sa(dp127
g122
I10
sg123
F0.0001850128173828125
sg124
F0.0027801990509033203
sg125
I4
sg126
I4
sa(dp128
g122
I1
sg123
F0.01421499252319336
sg124
F0.12172818183898926
sg125
I3
sg126
I3
sasS'total_cqs'
p129
I5
ssI16
(dp130
S'iters'
p131
I2
sS'meta'
p132
(lp133
(dp134
S'objective'
p135
I1
sS'query_time'
p136
F43.857627153396606
sS'comp_time'
p137
F20.007962942123413
sS'exec_cq'
p138
I5
sS'total_cq'
p139
I5
sa(dp140
g135
I2
sg136
F0.0002319812774658203
sg137
F0.0011889934539794922
sg138
I2
sg139
I2
sasS'total_cqs'
p141
I5
ssI17
(dp142
S'iters'
p143
I0
sS'meta'
p144
(lp145
sS'total_cqs'
p146
I1
ssI18
(dp147
S'iters'
p148
I2
sS'meta'
p149
(lp150
(dp151
S'objective'
p152
I1
sS'query_time'
p153
F13.243669986724854
sS'comp_time'
p154
F0.00036597251892089844
sS'exec_cq'
p155
I5
sS'total_cq'
p156
I5
sa(dp157
g152
I2
sg153
F6.389617919921875e-05
sg154
F0.00021505355834960938
sg155
I3
sg156
I3
sasS'total_cqs'
p158
I5
ssI19
(dp159
S'iters'
p160
I0
sS'meta'
p161
(lp162
sS'total_cqs'
p163
I1
ssI20
(dp164
S'iters'
p165
I2
sS'meta'
p166
(lp167
(dp168
S'objective'
p169
I42
sS'query_time'
p170
F51.47839713096619
sS'comp_time'
p171
F1.2962646484375
sS'exec_cq'
p172
I12
sS'total_cq'
p173
I12
sa(dp174
g169
I36
sg170
F0.1812751293182373
sg171
F0.697127103805542
sg172
I10
sg173
I10
sasS'total_cqs'
p175
I12
ssI21
(dp176
S'iters'
p177
I2
sS'meta'
p178
(lp179
(dp180
S'objective'
p181
I51
sS'query_time'
p182
F44.26486897468567
sS'comp_time'
p183
F0.2382819652557373
sS'exec_cq'
p184
I14
sS'total_cq'
p185
I14
sa(dp186
g181
I1
sg182
F0.0055408477783203125
sg183
F0.0231931209564209
sg184
I2
sg185
I2
sasS'total_cqs'
p187
I14
ssI22
(dp188
S'iters'
p189
I1
sS'meta'
p190
(lp191
(dp192
S'objective'
p193
I1
sS'query_time'
p194
F0.012217044830322266
sS'comp_time'
p195
F0.000125885009765625
sS'exec_cq'
p196
I2
sS'total_cq'
p197
I2
sasS'total_cqs'
p198
I2
ssI23
(dp199
S'iters'
p200
I0
sS'meta'
p201
(lp202
sS'total_cqs'
p203
I1
ssI24
(dp204
S'iters'
p205
I0
sS'meta'
p206
(lp207
sS'total_cqs'
p208
I1
ssI25
(dp209
S'iters'
p210
I1
sS'meta'
p211
(lp212
(dp213
S'objective'
p214
I14
sS'query_time'
p215
F27.610049962997437
sS'comp_time'
p216
F0.044406890869140625
sS'exec_cq'
p217
I7
sS'total_cq'
p218
I7
sasS'total_cqs'
p219
I7
ssI26
(dp220
S'iters'
p221
I2
sS'meta'
p222
(lp223
(dp224
S'objective'
p225
I57
sS'query_time'
p226
F28.065115928649902
sS'comp_time'
p227
F0.033974647521972656
sS'exec_cq'
p228
I13
sS'total_cq'
p229
I13
sa(dp230
g225
I48
sg226
F0.0015971660614013672
sg227
F0.010535955429077148
sg228
I11
sg229
I11
sasS'total_cqs'
p231
I13
ssI27
(dp232
S'iters'
p233
I1
sS'meta'
p234
(lp235
(dp236
S'objective'
p237
I1
sS'query_time'
p238
F12.549354076385498
sS'comp_time'
p239
F0.006871938705444336
sS'exec_cq'
p240
I2
sS'total_cq'
p241
I2
sasS'total_cqs'
p242
I2
ssI28
(dp243
S'iters'
p244
I3
sS'meta'
p245
(lp246
(dp247
S'objective'
p248
I59
sS'query_time'
p249
F26.343761920928955
sS'comp_time'
p250
F4.551537990570068
sS'exec_cq'
p251
I14
sS'total_cq'
p252
I14
sa(dp253
g248
I36
sg249
F0.0006339550018310547
sg250
F0.4835948944091797
sg251
I11
sg252
I11
sa(dp254
g248
I31
sg249
F0.0001499652862548828
sg250
F0.44982004165649414
sg251
I9
sg252
I9
sasS'total_cqs'
p255
I14
ssI29
(dp256
S'iters'
p257
I1
sS'meta'
p258
(lp259
(dp260
S'objective'
p261
I1
sS'query_time'
p262
F0.01674485206604004
sS'comp_time'
p263
F0.00011801719665527344
sS'exec_cq'
p264
I2
sS'total_cq'
p265
I2
sasS'total_cqs'
p266
I2
ssI30
(dp267
S'iters'
p268
I1
sS'meta'
p269
(lp270
(dp271
S'objective'
p272
I1
sS'query_time'
p273
F20.023438930511475
sS'comp_time'
p274
F0.003896951675415039
sS'exec_cq'
p275
I2
sS'total_cq'
p276
I2
sasS'total_cqs'
p277
I2
ssI31
(dp278
S'iters'
p279
I4
sS'meta'
p280
(lp281
(dp282
S'objective'
p283
I23
sS'query_time'
p284
F20.281749963760376
sS'comp_time'
p285
F0.009777069091796875
sS'exec_cq'
p286
I9
sS'total_cq'
p287
I9
sa(dp288
g283
I22
sg284
F3.600120544433594e-05
sg285
F0.003762960433959961
sg286
I7
sg287
I7
sa(dp289
g283
I24
sg284
F2.6941299438476562e-05
sg285
F0.003470897674560547
sg286
I6
sg287
I6
sa(dp290
g283
I8
sg284
F2.5186688899993896
sg285
F20.09012198448181
sg286
I5
sg287
I5
sasS'total_cqs'
p291
I9
ssI32
(dp292
S'iters'
p293
I1
sS'meta'
p294
(lp295
(dp296
S'objective'
p297
I14
sS'query_time'
p298
F46.4841787815094
sS'comp_time'
p299
F0.592231035232544
sS'exec_cq'
p300
I7
sS'total_cq'
p301
I7
sasS'total_cqs'
p302
I7
ssI33
(dp303
S'iters'
p304
I1
sS'meta'
p305
(lp306
(dp307
S'objective'
p308
I1
sS'query_time'
p309
F8.022386074066162
sS'comp_time'
p310
F0.0002110004425048828
sS'exec_cq'
p311
I2
sS'total_cq'
p312
I2
sasS'total_cqs'
p313
I2
ssI34
(dp314
S'iters'
p315
I0
sS'meta'
p316
(lp317
sS'total_cqs'
p318
I1
ssI35
(dp319
S'iters'
p320
I2
sS'meta'
p321
(lp322
(dp323
S'objective'
p324
I1
sS'query_time'
p325
F65.08759093284607
sS'comp_time'
p326
F0.23974084854125977
sS'exec_cq'
p327
I5
sS'total_cq'
p328
I5
sa(dp329
g324
I2
sg325
F0.05637216567993164
sg326
F0.14295101165771484
sg327
I3
sg328
I3
sasS'total_cqs'
p330
I5
ssI37
(dp331
S'iters'
p332
I5
sS'meta'
p333
(lp334
(dp335
S'objective'
p336
I45
sS'query_time'
p337
F20.172178983688354
sS'comp_time'
p338
F0.007122993469238281
sS'exec_cq'
p339
I10
sS'total_cq'
p340
I10
sa(dp341
g336
I42
sg337
F4.887580871582031e-05
sg338
F0.003270864486694336
sg339
I9
sg340
I9
sa(dp342
g336
I40
sg337
F3.790855407714844e-05
sg338
F0.002902984619140625
sg339
I8
sg340
I8
sa(dp343
g336
I41
sg337
F3.218650817871094e-05
sg338
F0.0029909610748291016
sg339
I7
sg340
I7
sa(dp344
g336
I22
sg337
F2.728266954421997
sg338
F20.87764596939087
sg339
I6
sg340
I6
sasS'total_cqs'
p345
I10
ssI38
(dp346
S'iters'
p347
I0
sS'meta'
p348
(lp349
sS'total_cqs'
p350
I1
ssI39
(dp351
S'iters'
p352
I0
sS'meta'
p353
(lp354
sS'total_cqs'
p355
I1
ssI40
(dp356
S'iters'
p357
I1
sS'meta'
p358
(lp359
(dp360
S'objective'
p361
I1
sS'query_time'
p362
F20.157947063446045
sS'comp_time'
p363
F1.0471746921539307
sS'exec_cq'
p364
I2
sS'total_cq'
p365
I2
sasS'total_cqs'
p366
I2
ssI41
(dp367
S'iters'
p368
I3
sS'meta'
p369
(lp370
(dp371
S'objective'
p372
I5
sS'query_time'
p373
F44.759076833724976
sS'comp_time'
p374
F19.550962924957275
sS'exec_cq'
p375
I6
sS'total_cq'
p376
I6
sa(dp377
g372
I5
sg373
F0.0008788108825683594
sg374
F3.0730948448181152
sg375
I3
sg376
I3
sa(dp378
g372
I3
sg373
F0.00214385986328125
sg374
F49.26929783821106
sg375
I2
sg376
I2
sasS'total_cqs'
p379
I6
ssI42
(dp380
S'iters'
p381
I1
sS'meta'
p382
(lp383
(dp384
S'objective'
p385
I1
sS'query_time'
p386
F23.902846097946167
sS'comp_time'
p387
F0.003954887390136719
sS'exec_cq'
p388
I2
sS'total_cq'
p389
I2
sasS'total_cqs'
p390
I2
ssI43
(dp391
S'iters'
p392
I0
sS'meta'
p393
(lp394
sS'total_cqs'
p395
I1
ssI44
(dp396
S'iters'
p397
I2
sS'meta'
p398
(lp399
(dp400
S'objective'
p401
I3
sS'query_time'
p402
F6.690674066543579
sS'comp_time'
p403
F0.08667182922363281
sS'exec_cq'
p404
I5
sS'total_cq'
p405
I5
sa(dp406
g401
I1
sg402
F0.014266014099121094
sg403
F0.08678317070007324
sg404
I3
sg405
I3
sasS'total_cqs'
p407
I5
ssI45
(dp408
S'iters'
p409
I2
sS'meta'
p410
(lp411
(dp412
S'objective'
p413
I3
sS'query_time'
p414
F1.2977030277252197
sS'comp_time'
p415
F0.0009491443634033203
sS'exec_cq'
p416
I5
sS'total_cq'
p417
I5
sa(dp418
g413
I1
sg414
F0.00013899803161621094
sg415
F0.00047206878662109375
sg416
I2
sg417
I2
sasS'total_cqs'
p419
I5
ssI46
(dp420
S'iters'
p421
I0
sS'meta'
p422
(lp423
sS'total_cqs'
p424
I1
ssI47
(dp425
S'iters'
p426
I0
sS'meta'
p427
(lp428
sS'total_cqs'
p429
I1
ssI48
(dp430
S'iters'
p431
I1
sS'meta'
p432
(lp433
(dp434
S'objective'
p435
I1
sS'query_time'
p436
F12.557111978530884
sS'comp_time'
p437
F0.005456209182739258
sS'exec_cq'
p438
I2
sS'total_cq'
p439
I2
sasS'total_cqs'
p440
I2
ssI49
(dp441
S'iters'
p442
I2
sS'meta'
p443
(lp444
(dp445
S'objective'
p446
I1
sS'query_time'
p447
F7.221377849578857
sS'comp_time'
p448
F0.002209901809692383
sS'exec_cq'
p449
I5
sS'total_cq'
p450
I5
sa(dp451
g446
I2
sg447
F0.0002269744873046875
sg448
F0.0013799667358398438
sg449
I3
sg450
I3
sasS'total_cqs'
p452
I5
ssI50
(dp453
S'iters'
p454
I4
sS'meta'
p455
(lp456
(dp457
S'objective'
p458
I7
sS'query_time'
p459
F42.94735908508301
sS'comp_time'
p460
F0.005216836929321289
sS'exec_cq'
p461
I5
sS'total_cq'
p462
I5
sa(dp463
g458
I5
sg459
F0.00019788742065429688
sg460
F0.0018188953399658203
sg461
I4
sg462
I4
sa(dp464
g458
I4
sg459
F6.604194641113281e-05
sg460
F0.0010008811950683594
sg461
I3
sg462
I3
sa(dp465
g458
I4
sg459
F1.9073486328125e-05
sg460
F0.0007109642028808594
sg461
I2
sg462
I2
sasS'total_cqs'
p466
I5
ssI51
(dp467
S'iters'
p468
I0
sS'meta'
p469
(lp470
sS'total_cqs'
p471
I1
ssI52
(dp472
S'iters'
p473
I0
sS'meta'
p474
(lp475
sS'total_cqs'
p476
I1
ssI53
(dp477
S'iters'
p478
I0
sS'meta'
p479
(lp480
sS'total_cqs'
p481
I1
ssI55
(dp482
S'iters'
p483
I1
sS'meta'
p484
(lp485
(dp486
S'objective'
p487
I1
sS'query_time'
p488
F53.99537467956543
sS'comp_time'
p489
F21.51179003715515
sS'exec_cq'
p490
I2
sS'total_cq'
p491
I2
sasS'total_cqs'
p492
I2
ssI56
(dp493
S'iters'
p494
I0
sS'meta'
p495
(lp496
sS'total_cqs'
p497
I1
ssI57
(dp498
S'iters'
p499
I1
sS'meta'
p500
(lp501
(dp502
S'objective'
p503
I0
sS'query_time'
p504
F21.581788063049316
sS'comp_time'
p505
F0.09260773658752441
sS'exec_cq'
p506
I3
sS'total_cq'
p507
I3
sasS'total_cqs'
p508
I3
ssI108
(dp509
S'iters'
p510
I0
sS'meta'
p511
(lp512
sS'total_cqs'
p513
I1
ssI109
(dp514
S'iters'
p515
I0
sS'meta'
p516
(lp517
sS'total_cqs'
p518
I1
ssI116
(dp519
S'iters'
p520
I2
sS'meta'
p521
(lp522
(dp523
S'objective'
p524
I155
sS'query_time'
p525
F35.691866874694824
sS'comp_time'
p526
F0.2866020202636719
sS'exec_cq'
p527
I21
sS'total_cq'
p528
I21
sa(dp529
g524
I4
sg525
F0.0012400150299072266
sg526
F0.004186153411865234
sg527
I3
sg528
I3
sasS'total_cqs'
p530
I21
ssI117
(dp531
S'iters'
p532
I1
sS'meta'
p533
(lp534
(dp535
S'objective'
p536
I5
sS'query_time'
p537
F1.869823932647705
sS'comp_time'
p538
F0.00011301040649414062
sS'exec_cq'
p539
I5
sS'total_cq'
p540
I5
sasS'total_cqs'
p541
I5
ssI118
(dp542
S'iters'
p543
I0
sS'meta'
p544
(lp545
sS'total_cqs'
p546
I1
ssI122
(dp547
S'iters'
p548
I0
sS'meta'
p549
(lp550
sS'total_cqs'
p551
I1
ss.