(dp0
I1
(dp1
S'iters'
p2
I3
sS'meta'
p3
(lp4
(dp5
S'objective'
p6
I5
sS'query_time'
p7
F35.653470039367676
sS'comp_time'
p8
F2.304924249649048
sS'exec_cq'
p9
I2
sS'total_cq'
p10
I6
sa(dp11
g6
I1
sg7
F12.71444296836853
sg8
F0.6882109642028809
sg9
I3
sg10
I4
sa(dp12
g6
I4
sg7
F0.009803056716918945
sg8
F0.15209698677062988
sg9
I1
sg10
I2
sasS'total_cqs'
p13
I6
ssI2
(dp14
S'iters'
p15
I1
sS'meta'
p16
(lp17
(dp18
S'objective'
p19
I19
sS'query_time'
p20
F1.009545087814331
sS'comp_time'
p21
F0.20033812522888184
sS'exec_cq'
p22
I6
sS'total_cq'
p23
I6
sasS'total_cqs'
p24
I6
ssI3
(dp25
S'iters'
p26
I13
sS'meta'
p27
(lp28
(dp29
S'objective'
p30
I415
sS'query_time'
p31
F25.26835608482361
sS'comp_time'
p32
F0.2757701873779297
sS'exec_cq'
p33
I15
sS'total_cq'
p34
I33
sa(dp35
g30
I348
sg31
F0.32541680335998535
sg32
F0.02245306968688965
sg33
I13
sg34
I30
sa(dp36
g30
I278
sg31
F0.0034689903259277344
sg32
F0.09035301208496094
sg33
I12
sg34
I27
sa(dp37
g30
I216
sg31
F0.005717039108276367
sg32
F0.021500825881958008
sg33
I10
sg34
I24
sa(dp38
g30
I182
sg31
F0.0025489330291748047
sg32
F0.018208980560302734
sg33
I9
sg34
I21
sa(dp39
g30
I142
sg31
F0.002905130386352539
sg32
F0.019670724868774414
sg33
I7
sg34
I18
sa(dp40
g30
I141
sg31
F0.0003020763397216797
sg32
F0.004568338394165039
sg33
I6
sg34
I16
sa(dp41
g30
I108
sg31
F0.003512144088745117
sg32
F0.02247929573059082
sg33
I5
sg34
I15
sa(dp42
g30
I106
sg31
F0.21590709686279297
sg32
F0.02247786521911621
sg33
I5
sg34
I12
sa(dp43
g30
I111
sg31
F0.0002181529998779297
sg32
F0.003400087356567383
sg33
I5
sg34
I11
sa(dp44
g30
I68
sg31
F30.94861912727356
sg32
F23.51645588874817
sg33
I4
sg34
I10
sa(dp45
g30
I70
sg31
F0.0014429092407226562
sg32
F0.007555246353149414
sg33
I4
sg34
I9
sa(dp46
g30
I79
sg31
F0.10373282432556152
sg32
F0.015844106674194336
sg33
I2
sg34
I8
sasS'total_cqs'
p47
I33
ssI4
(dp48
S'iters'
p49
I0
sS'meta'
p50
(lp51
sS'total_cqs'
p52
I1
ssI5
(dp53
S'iters'
p54
I0
sS'meta'
p55
(lp56
sS'total_cqs'
p57
I1
ssI6
(dp58
S'iters'
p59
I3
sS'meta'
p60
(lp61
(dp62
S'objective'
p63
I1
sS'query_time'
p64
F16.063420057296753
sS'comp_time'
p65
F0.006663799285888672
sS'exec_cq'
p66
I4
sS'total_cq'
p67
I5
sa(dp68
g63
I1
sg64
F0.0006840229034423828
sg65
F0.002987384796142578
sg66
I3
sg67
I3
sa(dp69
g63
I1
sg64
F0.00018906593322753906
sg65
F0.0010647773742675781
sg66
I2
sg67
I2
sasS'total_cqs'
p70
I5
ssI7
(dp71
S'iters'
p72
I0
sS'meta'
p73
(lp74
sS'total_cqs'
p75
I1
ssI8
(dp76
S'iters'
p77
I4
sS'meta'
p78
(lp79
(dp80
S'objective'
p81
I11
sS'query_time'
p82
F23.28622603416443
sS'comp_time'
p83
F0.3943898677825928
sS'exec_cq'
p84
I5
sS'total_cq'
p85
I6
sa(dp86
g81
I4
sg82
F0.2485520839691162
sg83
F0.21603894233703613
sg84
I4
sg85
I5
sa(dp87
g81
I4
sg82
F1.7981090545654297
sg83
F1.8871979713439941
sg84
I2
sg85
I3
sa(dp88
g81
I5
sg82
F0.0017828941345214844
sg83
F0.0017042160034179688
sg84
I1
sg85
I2
sasS'total_cqs'
p89
I6
ssI9
(dp90
S'iters'
p91
I4
sS'meta'
p92
(lp93
(dp94
S'objective'
p95
I9
sS'query_time'
p96
F46.20591592788696
sS'comp_time'
p97
F5.69913125038147
sS'exec_cq'
p98
I2
sS'total_cq'
p99
I6
sa(dp100
g95
I1
sg96
F7.904047966003418
sg97
F0.5671501159667969
sg98
I3
sg99
I5
sa(dp101
g95
I2
sg96
F0.041288137435913086
sg97
F0.46163487434387207
sg98
I3
sg99
I3
sa(dp102
g95
I1
sg96
F0.1522839069366455
sg97
F0.4489130973815918
sg98
I2
sg99
I2
sasS'total_cqs'
p103
I6
ssI10
(dp104
S'iters'
p105
I0
sS'meta'
p106
(lp107
sS'total_cqs'
p108
I1
ssI11
(dp109
S'iters'
p110
I0
sS'meta'
p111
(lp112
sS'total_cqs'
p113
I1
ssI12
(dp114
S'iters'
p115
I0
sS'meta'
p116
(lp117
sS'total_cqs'
p118
I1
ssI13
(dp119
S'iters'
p120
I2
sS'meta'
p121
(lp122
(dp123
S'objective'
p124
I26
sS'query_time'
p125
F0.025430917739868164
sS'comp_time'
p126
F0.010522127151489258
sS'exec_cq'
p127
I6
sS'total_cq'
p128
I8
sa(dp129
g124
I29
sg125
F3.886222839355469e-05
sg126
F0.0001494884490966797
sg127
I5
sg128
I7
sasS'total_cqs'
p130
I8
ssI14
(dp131
S'iters'
p132
I3
sS'meta'
p133
(lp134
(dp135
S'objective'
p136
I5
sS'query_time'
p137
F0.9710509777069092
sS'comp_time'
p138
F0.008648157119750977
sS'exec_cq'
p139
I5
sS'total_cq'
p140
I5
sa(dp141
g136
I6
sg137
F0.0007948875427246094
sg138
F0.005082845687866211
sg139
I4
sg140
I4
sa(dp142
g136
I6
sg137
F0.0005228519439697266
sg138
F0.00410771369934082
sg139
I3
sg140
I3
sasS'total_cqs'
p143
I5
ssI16
(dp144
S'iters'
p145
I3
sS'meta'
p146
(lp147
(dp148
S'objective'
p149
I1
sS'query_time'
p150
F1.2610340118408203
sS'comp_time'
p151
F0.012928009033203125
sS'exec_cq'
p152
I4
sS'total_cq'
p153
I5
sa(dp154
g149
I1
sg150
F0.0018410682678222656
sg151
F0.0075380802154541016
sg152
I3
sg153
I3
sa(dp155
g149
I1
sg150
F0.00023603439331054688
sg151
F0.0016679763793945312
sg152
I2
sg153
I2
sasS'total_cqs'
p156
I5
ssI17
(dp157
S'iters'
p158
I0
sS'meta'
p159
(lp160
sS'total_cqs'
p161
I1
ssI18
(dp162
S'iters'
p163
I3
sS'meta'
p164
(lp165
(dp166
S'objective'
p167
I1
sS'query_time'
p168
F0.22210001945495605
sS'comp_time'
p169
F0.0058019161224365234
sS'exec_cq'
p170
I4
sS'total_cq'
p171
I5
sa(dp172
g167
I2
sg168
F5.412101745605469e-05
sg169
F0.0003440380096435547
sg170
I2
sg171
I3
sa(dp173
g167
I1
sg168
F0.05121207237243652
sg169
F0.0002067089080810547
sg170
I1
sg171
I2
sasS'total_cqs'
p174
I5
ssI19
(dp175
S'iters'
p176
I0
sS'meta'
p177
(lp178
sS'total_cqs'
p179
I1
ssI20
(dp180
S'iters'
p181
I6
sS'meta'
p182
(lp183
(dp184
S'objective'
p185
I44
sS'query_time'
p186
F9.013612985610962
sS'comp_time'
p187
F1.1872248649597168
sS'exec_cq'
p188
I6
sS'total_cq'
p189
I12
sa(dp190
g185
I29
sg186
F0.22739720344543457
sg187
F0.9908759593963623
sg188
I4
sg189
I10
sa(dp191
g185
I9
sg186
F4.44661808013916
sg187
F0.4475274085998535
sg188
I4
sg189
I8
sa(dp192
g185
I23
sg186
F0.08389616012573242
sg187
F0.8970062732696533
sg188
I2
sg189
I6
sa(dp193
g185
I19
sg186
F0.035446882247924805
sg187
F0.3967106342315674
sg188
I4
sg189
I5
sa(dp194
g185
I20
sg186
F0.09846115112304688
sg187
F0.0038661956787109375
sg188
I4
sg189
I4
sasS'total_cqs'
p195
I12
ssI21
(dp196
S'iters'
p197
I5
sS'meta'
p198
(lp199
(dp200
S'objective'
p201
I67
sS'query_time'
p202
F29.402212142944336
sS'comp_time'
p203
F0.3232240676879883
sS'exec_cq'
p204
I8
sS'total_cq'
p205
I14
sa(dp206
g201
I34
sg202
F0.010936975479125977
sg203
F0.06741714477539062
sg204
I6
sg205
I12
sa(dp207
g201
I12
sg202
F30.632692098617554
sg203
F2.2083709239959717
sg204
I4
sg205
I8
sa(dp208
g201
I6
sg202
F0.0012879371643066406
sg203
F0.008477210998535156
sg204
I2
sg205
I4
sa(dp209
g201
I7
sg202
F0.014868021011352539
sg203
F0.00012922286987304688
sg204
I1
sg205
I2
sasS'total_cqs'
p210
I14
ssI22
(dp211
S'iters'
p212
I1
sS'meta'
p213
(lp214
(dp215
S'objective'
p216
I1
sS'query_time'
p217
F0.003381967544555664
sS'comp_time'
p218
F0.001615285873413086
sS'exec_cq'
p219
I1
sS'total_cq'
p220
I2
sasS'total_cqs'
p221
I2
ssI23
(dp222
S'iters'
p223
I0
sS'meta'
p224
(lp225
sS'total_cqs'
p226
I1
ssI24
(dp227
S'iters'
p228
I0
sS'meta'
p229
(lp230
sS'total_cqs'
p231
I1
ssI25
(dp232
S'iters'
p233
I4
sS'meta'
p234
(lp235
(dp236
S'objective'
p237
I18
sS'query_time'
p238
F48.47558903694153
sS'comp_time'
p239
F4.907928228378296
sS'exec_cq'
p240
I4
sS'total_cq'
p241
I7
sa(dp242
g237
I1
sg238
F4.9904608726501465
sg239
F0.30146169662475586
sg240
I2
sg241
I5
sa(dp243
g237
I2
sg238
F0.09304976463317871
sg239
F0.14561820030212402
sg240
I2
sg241
I3
sa(dp244
g237
I3
sg238
F0.008101224899291992
sg239
F0.06515359878540039
sg240
I1
sg241
I2
sasS'total_cqs'
p245
I7
ssI26
(dp246
S'iters'
p247
I9
sS'meta'
p248
(lp249
(dp250
S'objective'
p251
I75
sS'query_time'
p252
F22.570981979370117
sS'comp_time'
p253
F0.023849010467529297
sS'exec_cq'
p254
I3
sS'total_cq'
p255
I13
sa(dp256
g251
I51
sg252
F0.14244413375854492
sg253
F0.012051105499267578
sg254
I4
sg255
I12
sa(dp257
g251
I29
sg252
F0.010256052017211914
sg253
F0.0001590251922607422
sg254
I2
sg255
I10
sa(dp258
g251
I38
sg252
F0.0002720355987548828
sg253
F0.002877950668334961
sg254
I2
sg255
I8
sa(dp259
g251
I13
sg252
F3.9466450214385986
sg253
F0.015630483627319336
sg254
I2
sg255
I7
sa(dp260
g251
I6
sg252
F0.023178815841674805
sg253
F0.0016977787017822266
sg254
I1
sg255
I5
sa(dp261
g251
I3
sg252
F0.0014469623565673828
sg253
F0.0012462139129638672
sg254
I1
sg255
I4
sa(dp262
g251
I1
sg252
F0.0035829544067382812
sg253
F0.006090402603149414
sg254
I2
sg255
I3
sa(dp263
g251
I1
sg252
F0.000682830810546875
sg253
F0.003962039947509766
sg254
I1
sg255
I2
sasS'total_cqs'
p264
I13
ssI27
(dp265
S'iters'
p266
I1
sS'meta'
p267
(lp268
(dp269
S'objective'
p270
I1
sS'query_time'
p271
F0.2073822021484375
sS'comp_time'
p272
F0.009035348892211914
sS'exec_cq'
p273
I1
sS'total_cq'
p274
I2
sasS'total_cqs'
p275
I2
ssI28
(dp276
S'iters'
p277
I10
sS'meta'
p278
(lp279
(dp280
S'objective'
p281
I59
sS'query_time'
p282
F1.5207278728485107
sS'comp_time'
p283
F0.10271120071411133
sS'exec_cq'
p284
I6
sS'total_cq'
p285
I14
sa(dp286
g281
I42
sg282
F0.0029931068420410156
sg283
F0.02446579933166504
sg284
I3
sg285
I11
sa(dp287
g281
I38
sg282
F0.006606101989746094
sg283
F0.00016069412231445312
sg284
I2
sg285
I9
sa(dp288
g281
I28
sg282
F0.0024750232696533203
sg283
F0.00011515617370605469
sg284
I1
sg285
I8
sa(dp289
g281
I19
sg282
F0.014528989791870117
sg283
F0.0008220672607421875
sg284
I1
sg285
I7
sa(dp290
g281
I11
sg282
F0.022619009017944336
sg283
F0.0016787052154541016
sg284
I1
sg285
I6
sa(dp291
g281
I4
sg282
F0.019006967544555664
sg283
F0.0008788108825683594
sg284
I1
sg285
I5
sa(dp292
g281
I0
sg282
F0.004642963409423828
sg283
F0.0266268253326416
sg284
I1
sg285
I4
sa(dp293
g281
I0
sg282
F2.09808349609375e-05
sg283
F0.0001437664031982422
sg284
I1
sg285
I3
sa(dp294
g281
I1
sg282
F0.0033740997314453125
sg283
F0.00012803077697753906
sg284
I1
sg285
I2
sasS'total_cqs'
p295
I14
ssI29
(dp296
S'iters'
p297
I1
sS'meta'
p298
(lp299
(dp300
S'objective'
p301
I1
sS'query_time'
p302
F0.005704164505004883
sS'comp_time'
p303
F0.0010530948638916016
sS'exec_cq'
p304
I2
sS'total_cq'
p305
I2
sasS'total_cqs'
p306
I2
ssI30
(dp307
S'iters'
p308
I1
sS'meta'
p309
(lp310
(dp311
S'objective'
p312
I1
sS'query_time'
p313
F0.3808629512786865
sS'comp_time'
p314
F0.0044977664947509766
sS'exec_cq'
p315
I2
sS'total_cq'
p316
I2
sasS'total_cqs'
p317
I2
ssI31
(dp318
S'iters'
p319
I4
sS'meta'
p320
(lp321
(dp322
S'objective'
p323
I15
sS'query_time'
p324
F4.4541730880737305
sS'comp_time'
p325
F0.27956724166870117
sS'exec_cq'
p326
I4
sS'total_cq'
p327
I9
sa(dp328
g323
I6
sg324
F1.4627058506011963
sg325
F0.34408020973205566
sg326
I5
sg327
I7
sa(dp329
g323
I6
sg324
F0.01100301742553711
sg325
F0.04786968231201172
sg326
I3
sg327
I3
sa(dp330
g323
I1
sg324
F0.010477066040039062
sg325
F0.04869484901428223
sg326
I2
sg327
I2
sasS'total_cqs'
p331
I9
ssI32
(dp332
S'iters'
p333
I3
sS'meta'
p334
(lp335
(dp336
S'objective'
p337
I0
sS'query_time'
p338
F21.206938982009888
sS'comp_time'
p339
F4.353086948394775
sS'exec_cq'
p340
I4
sS'total_cq'
p341
I7
sa(dp342
g337
I2
sg338
F1.2086331844329834
sg339
F0.02036595344543457
sg340
I2
sg341
I4
sa(dp343
g337
I4
sg338
F0.5488691329956055
sg339
F1.9055697917938232
sg340
I1
sg341
I2
sasS'total_cqs'
p344
I7
ssI33
(dp345
S'iters'
p346
I1
sS'meta'
p347
(lp348
(dp349
S'objective'
p350
I1
sS'query_time'
p351
F0.02524590492248535
sS'comp_time'
p352
F0.002239704132080078
sS'exec_cq'
p353
I2
sS'total_cq'
p354
I2
sasS'total_cqs'
p355
I2
ssI34
(dp356
S'iters'
p357
I0
sS'meta'
p358
(lp359
sS'total_cqs'
p360
I1
ssI35
(dp361
S'iters'
p362
I3
sS'meta'
p363
(lp364
(dp365
S'objective'
p366
I1
sS'query_time'
p367
F14.339171171188354
sS'comp_time'
p368
F0.2985658645629883
sS'exec_cq'
p369
I4
sS'total_cq'
p370
I5
sa(dp371
g366
I2
sg367
F0.12240099906921387
sg368
F0.07096505165100098
sg369
I2
sg370
I3
sa(dp372
g366
I1
sg367
F0.0006289482116699219
sg368
F0.0034737586975097656
sg369
I1
sg370
I2
sasS'total_cqs'
p373
I5
ssI37
(dp374
S'iters'
p375
I4
sS'meta'
p376
(lp377
(dp378
S'objective'
p379
I39
sS'query_time'
p380
F0.5772790908813477
sS'comp_time'
p381
F0.10150909423828125
sS'exec_cq'
p382
I4
sS'total_cq'
p383
I10
sa(dp384
g379
I29
sg380
F1.153282880783081
sg381
F0.19733810424804688
sg382
I4
sg383
I9
sa(dp385
g379
I26
sg380
F0.004595041275024414
sg381
F0.021666765213012695
sg382
I3
sg383
I8
sa(dp386
g379
I4
sg380
F0.0035631656646728516
sg381
F0.018786191940307617
sg382
I2
sg383
I2
sasS'total_cqs'
p387
I10
ssI38
(dp388
S'iters'
p389
I0
sS'meta'
p390
(lp391
sS'total_cqs'
p392
I1
ssI39
(dp393
S'iters'
p394
I0
sS'meta'
p395
(lp396
sS'total_cqs'
p397
I1
ssI40
(dp398
S'iters'
p399
I1
sS'meta'
p400
(lp401
(dp402
S'objective'
p403
I1
sS'query_time'
p404
F0.005134105682373047
sS'comp_time'
p405
F0.0014193058013916016
sS'exec_cq'
p406
I1
sS'total_cq'
p407
I2
sasS'total_cqs'
p408
I2
ssI41
(dp409
S'iters'
p410
I4
sS'meta'
p411
(lp412
(dp413
S'objective'
p414
I5
sS'query_time'
p415
F11.368834018707275
sS'comp_time'
p416
F2.38083815574646
sS'exec_cq'
p417
I3
sS'total_cq'
p418
I6
sa(dp419
g414
I1
sg415
F0.8155169486999512
sg416
F0.004212856292724609
sg417
I2
sg418
I4
sa(dp420
g414
I1
sg415
F0.0010919570922851562
sg416
F0.0049381256103515625
sg417
I1
sg418
I3
sa(dp421
g414
I1
sg415
F2.5033950805664062e-05
sg416
F0.00013828277587890625
sg417
I1
sg418
I2
sasS'total_cqs'
p422
I6
ssI42
(dp423
S'iters'
p424
I1
sS'meta'
p425
(lp426
(dp427
S'objective'
p428
I1
sS'query_time'
p429
F0.008499860763549805
sS'comp_time'
p430
F0.0014598369598388672
sS'exec_cq'
p431
I1
sS'total_cq'
p432
I2
sasS'total_cqs'
p433
I2
ssI43
(dp434
S'iters'
p435
I0
sS'meta'
p436
(lp437
sS'total_cqs'
p438
I1
ssI44
(dp439
S'iters'
p440
I4
sS'meta'
p441
(lp442
(dp443
S'objective'
p444
I5
sS'query_time'
p445
F1.2746140956878662
sS'comp_time'
p446
F0.203782320022583
sS'exec_cq'
p447
I2
sS'total_cq'
p448
I5
sa(dp449
g444
I4
sg445
F0.21164703369140625
sg446
F0.0016775131225585938
sg447
I2
sg448
I4
sa(dp450
g444
I1
sg445
F0.00010609626770019531
sg446
F0.0003757476806640625
sg447
I1
sg448
I3
sa(dp451
g444
I1
sg445
F6.008148193359375e-05
sg446
F0.00033092498779296875
sg447
I1
sg448
I2
sasS'total_cqs'
p452
I5
ssI45
(dp453
S'iters'
p454
I2
sS'meta'
p455
(lp456
(dp457
S'objective'
p458
I9
sS'query_time'
p459
F0.044554948806762695
sS'comp_time'
p460
F0.01160883903503418
sS'exec_cq'
p461
I3
sS'total_cq'
p462
I5
sa(dp463
g458
I1
sg459
F0.00016307830810546875
sg460
F0.08965301513671875
sg461
I2
sg462
I2
sasS'total_cqs'
p464
I5
ssI46
(dp465
S'iters'
p466
I0
sS'meta'
p467
(lp468
sS'total_cqs'
p469
I1
ssI47
(dp470
S'iters'
p471
I0
sS'meta'
p472
(lp473
sS'total_cqs'
p474
I1
ssI48
(dp475
S'iters'
p476
I1
sS'meta'
p477
(lp478
(dp479
S'objective'
p480
I1
sS'query_time'
p481
F0.19306397438049316
sS'comp_time'
p482
F0.006134510040283203
sS'exec_cq'
p483
I2
sS'total_cq'
p484
I2
sasS'total_cqs'
p485
I2
ssI49
(dp486
S'iters'
p487
I2
sS'meta'
p488
(lp489
(dp490
S'objective'
p491
I1
sS'query_time'
p492
F0.28937482833862305
sS'comp_time'
p493
F0.00581812858581543
sS'exec_cq'
p494
I4
sS'total_cq'
p495
I5
sa(dp496
g491
I6
sg492
F2.9802322387695312e-05
sg493
F0.0002009868621826172
sg494
I2
sg495
I3
sasS'total_cqs'
p497
I5
ssI50
(dp498
S'iters'
p499
I4
sS'meta'
p500
(lp501
(dp502
S'objective'
p503
I5
sS'query_time'
p504
F0.7198290824890137
sS'comp_time'
p505
F0.0031919479370117188
sS'exec_cq'
p506
I5
sS'total_cq'
p507
I5
sa(dp508
g503
I2
sg504
F0.00018405914306640625
sg505
F0.006265878677368164
sg506
I4
sg507
I4
sa(dp509
g503
I0
sg504
F0.0001800060272216797
sg505
F0.0011591911315917969
sg506
I3
sg507
I3
sa(dp510
g503
I1
sg504
F0.0001308917999267578
sg505
F0.0009167194366455078
sg506
I2
sg507
I2
sasS'total_cqs'
p511
I5
ssI51
(dp512
S'iters'
p513
I0
sS'meta'
p514
(lp515
sS'total_cqs'
p516
I1
ssI52
(dp517
S'iters'
p518
I0
sS'meta'
p519
(lp520
sS'total_cqs'
p521
I1
ssI53
(dp522
S'iters'
p523
I0
sS'meta'
p524
(lp525
sS'total_cqs'
p526
I1
ssI55
(dp527
S'iters'
p528
I1
sS'meta'
p529
(lp530
(dp531
S'objective'
p532
I1
sS'query_time'
p533
F24.254551887512207
sS'comp_time'
p534
F3.6565628051757812
sS'exec_cq'
p535
I2
sS'total_cq'
p536
I2
sasS'total_cqs'
p537
I2
ssI56
(dp538
S'iters'
p539
I0
sS'meta'
p540
(lp541
sS'total_cqs'
p542
I1
ssI57
(dp543
S'iters'
p544
I2
sS'meta'
p545
(lp546
(dp547
S'objective'
p548
I0
sS'query_time'
p549
F12.53360891342163
sS'comp_time'
p550
F2.355191469192505
sS'exec_cq'
p551
I2
sS'total_cq'
p552
I3
sa(dp553
g548
I1
sg549
F0.4332129955291748
sg550
F1.916106939315796
sg551
I1
sg552
I2
sasS'total_cqs'
p554
I3
ssI108
(dp555
S'iters'
p556
I0
sS'meta'
p557
(lp558
sS'total_cqs'
p559
I1
ssI109
(dp560
S'iters'
p561
I0
sS'meta'
p562
(lp563
sS'total_cqs'
p564
I1
ssI116
(dp565
S'iters'
p566
I3
sS'meta'
p567
(lp568
(dp569
S'objective'
p570
I171
sS'query_time'
p571
F3.729217052459717
sS'comp_time'
p572
F0.5330219268798828
sS'exec_cq'
p573
I15
sS'total_cq'
p574
I21
sa(dp575
g570
I165
sg571
F0.5908501148223877
sg572
F0.004195690155029297
sg573
I14
sg574
I19
sa(dp576
g570
I16
sg571
F0.0007710456848144531
sg572
F0.003297090530395508
sg573
I2
sg574
I2
sasS'total_cqs'
p577
I21
ssI117
(dp578
S'iters'
p579
I2
sS'meta'
p580
(lp581
(dp582
S'objective'
p583
I11
sS'query_time'
p584
F0.008591175079345703
sS'comp_time'
p585
F0.0017042160034179688
sS'exec_cq'
p586
I3
sS'total_cq'
p587
I5
sa(dp588
g583
I11
sg584
F0.005446910858154297
sg585
F9.131431579589844e-05
sg586
I4
sg587
I4
sasS'total_cqs'
p589
I5
ssI118
(dp590
S'iters'
p591
I0
sS'meta'
p592
(lp593
sS'total_cqs'
p594
I1
ssI122
(dp595
S'iters'
p596
I0
sS'meta'
p597
(lp598
sS'total_cqs'
p599
I1
ss.