(dp0
I1
(dp1
S'iters'
p2
I4
sS'meta'
p3
(lp4
(dp5
S'objective'
p6
I9
sS'query_time'
p7
F24.016492128372192
sS'comp_time'
p8
F0.00021600723266601562
sS'exec_cq'
p9
I1
sS'total_cq'
p10
I6
sa(dp11
g6
I3
sg7
F20.36044406890869
sg8
F9.608268737792969e-05
sg9
I1
sg10
I5
sa(dp12
g6
I0
sg7
F0.005647897720336914
sg8
F7.891654968261719e-05
sg9
I1
sg10
I3
sa(dp13
g6
I1
sg7
F11.385101079940796
sg8
F9.417533874511719e-05
sg9
I1
sg10
I2
sasS'total_cqs'
p14
I6
ssI2
(dp15
S'iters'
p16
I1
sS'meta'
p17
(lp18
(dp19
S'objective'
p20
I19
sS'query_time'
p21
F0.8465979099273682
sS'comp_time'
p22
F8.58306884765625e-05
sS'exec_cq'
p23
I6
sS'total_cq'
p24
I6
sasS'total_cqs'
p25
I6
ssI3
(dp26
S'iters'
p27
I21
sS'meta'
p28
(lp29
(dp30
S'objective'
p31
I457
sS'query_time'
p32
F0.03483414649963379
sS'comp_time'
p33
F8.702278137207031e-05
sS'exec_cq'
p34
I1
sS'total_cq'
p35
I33
sa(dp36
g31
I431
sg32
F0.020084857940673828
sg33
F5.507469177246094e-05
sg34
I1
sg35
I31
sa(dp37
g31
I408
sg32
F0.08158397674560547
sg33
F0.00033783912658691406
sg34
I1
sg35
I29
sa(dp38
g31
I377
sg32
F0.01451420783996582
sg33
F4.601478576660156e-05
sg34
I2
sg35
I28
sa(dp39
g31
I354
sg32
F0.1303708553314209
sg33
F7.486343383789062e-05
sg34
I3
sg35
I26
sa(dp40
g31
I329
sg32
F0.0038509368896484375
sg33
F4.482269287109375e-05
sg34
I3
sg35
I25
sa(dp41
g31
I305
sg32
F49.1655478477478
sg33
F0.00011897087097167969
sg34
I3
sg35
I24
sa(dp42
g31
I254
sg32
F0.062448978424072266
sg33
F6.914138793945312e-05
sg34
I3
sg35
I23
sa(dp43
g31
I246
sg32
F0.011014938354492188
sg33
F5.507469177246094e-05
sg34
I3
sg35
I21
sa(dp44
g31
I225
sg32
F0.039704084396362305
sg33
F7.510185241699219e-05
sg34
I3
sg35
I20
sa(dp45
g31
I205
sg32
F0.003751039505004883
sg33
F4.410743713378906e-05
sg34
I3
sg35
I19
sa(dp46
g31
I156
sg32
F0.32444000244140625
sg33
F0.000125885009765625
sg34
I3
sg35
I18
sa(dp47
g31
I105
sg32
F0.2620971202850342
sg33
F6.604194641113281e-05
sg34
I3
sg35
I16
sa(dp48
g31
I114
sg32
F0.14411020278930664
sg33
F5.817413330078125e-05
sg34
I3
sg35
I13
sa(dp49
g31
I105
sg32
F0.009922027587890625
sg33
F3.886222839355469e-05
sg34
I3
sg35
I12
sa(dp50
g31
I72
sg32
F0.01588296890258789
sg33
F5.1021575927734375e-05
sg34
I3
sg35
I11
sa(dp51
g31
I53
sg32
F0.0028820037841796875
sg33
F3.0994415283203125e-05
sg34
I3
sg35
I8
sa(dp52
g31
I58
sg32
F0.02775406837463379
sg33
F3.504753112792969e-05
sg34
I3
sg35
I6
sa(dp53
g31
I58
sg32
F0.003306865692138672
sg33
F2.9802322387695312e-05
sg34
I3
sg35
I5
sa(dp54
g31
I56
sg32
F0.001291036605834961
sg33
F3.0994415283203125e-05
sg34
I3
sg35
I4
sa(dp55
g31
I57
sg32
F0.15119290351867676
sg33
F4.887580871582031e-05
sg34
I3
sg35
I3
sasS'total_cqs'
p56
I33
ssI4
(dp57
S'iters'
p58
I0
sS'meta'
p59
(lp60
sS'total_cqs'
p61
I1
ssI5
(dp62
S'iters'
p63
I0
sS'meta'
p64
(lp65
sS'total_cqs'
p66
I1
ssI6
(dp67
S'iters'
p68
I2
sS'meta'
p69
(lp70
(dp71
S'objective'
p72
I3
sS'query_time'
p73
F4.771843910217285
sS'comp_time'
p74
F7.700920104980469e-05
sS'exec_cq'
p75
I1
sS'total_cq'
p76
I5
sa(dp77
g72
I4
sg73
F0.4185960292816162
sg74
F7.605552673339844e-05
sg75
I1
sg76
I3
sasS'total_cqs'
p78
I5
ssI7
(dp79
S'iters'
p80
I0
sS'meta'
p81
(lp82
sS'total_cqs'
p83
I1
ssI8
(dp84
S'iters'
p85
I5
sS'meta'
p86
(lp87
(dp88
S'objective'
p89
I9
sS'query_time'
p90
F21.869905948638916
sS'comp_time'
p91
F6.4849853515625e-05
sS'exec_cq'
p92
I1
sS'total_cq'
p93
I6
sa(dp94
g89
I5
sg90
F2.1017210483551025
sg91
F0.0017218589782714844
sg92
I1
sg93
I5
sa(dp95
g89
I2
sg90
F41.694002866744995
sg91
F6.103515625e-05
sg92
I1
sg93
I4
sa(dp96
g89
I0
sg90
F21.27497386932373
sg91
F9.202957153320312e-05
sg92
I1
sg93
I3
sa(dp97
g89
I1
sg90
F20.024576902389526
sg91
F9.703636169433594e-05
sg92
I1
sg93
I2
sasS'total_cqs'
p98
I6
ssI9
(dp99
S'iters'
p100
I5
sS'meta'
p101
(lp102
(dp103
S'objective'
p104
I9
sS'query_time'
p105
F14.684059858322144
sS'comp_time'
p106
F0.00043201446533203125
sS'exec_cq'
p107
I1
sS'total_cq'
p108
I6
sa(dp109
g104
I5
sg105
F18.974279165267944
sg106
F0.00029015541076660156
sg107
I1
sg108
I5
sa(dp110
g104
I2
sg105
F1.1063711643218994
sg106
F0.0005500316619873047
sg107
I1
sg108
I4
sa(dp111
g104
I0
sg105
F0.05702495574951172
sg106
F5.3882598876953125e-05
sg107
I1
sg108
I3
sa(dp112
g104
I1
sg105
F20.01226282119751
sg106
F9.918212890625e-05
sg107
I1
sg108
I2
sasS'total_cqs'
p113
I6
ssI10
(dp114
S'iters'
p115
I0
sS'meta'
p116
(lp117
sS'total_cqs'
p118
I1
ssI11
(dp119
S'iters'
p120
I0
sS'meta'
p121
(lp122
sS'total_cqs'
p123
I1
ssI12
(dp124
S'iters'
p125
I0
sS'meta'
p126
(lp127
sS'total_cqs'
p128
I1
ssI13
(dp129
S'iters'
p130
I2
sS'meta'
p131
(lp132
(dp133
S'objective'
p134
I24
sS'query_time'
p135
F9.15144395828247
sS'comp_time'
p136
F7.104873657226562e-05
sS'exec_cq'
p137
I3
sS'total_cq'
p138
I8
sa(dp139
g134
I28
sg135
F0.0042150020599365234
sg136
F4.696846008300781e-05
sg137
I7
sg138
I7
sasS'total_cqs'
p140
I8
ssI14
(dp141
S'iters'
p142
I3
sS'meta'
p143
(lp144
(dp145
S'objective'
p146
I5
sS'query_time'
p147
F0.24660897254943848
sS'comp_time'
p148
F7.987022399902344e-05
sS'exec_cq'
p149
I1
sS'total_cq'
p150
I5
sa(dp151
g146
I2
sg147
F0.021870136260986328
sg148
F5.412101745605469e-05
sg149
I1
sg150
I4
sa(dp152
g146
I4
sg147
F1.0431091785430908
sg148
F7.796287536621094e-05
sg149
I3
sg150
I3
sasS'total_cqs'
p153
I5
ssI16
(dp154
S'iters'
p155
I4
sS'meta'
p156
(lp157
(dp158
S'objective'
p159
I5
sS'query_time'
p160
F1.5976459980010986
sS'comp_time'
p161
F7.009506225585938e-05
sS'exec_cq'
p162
I1
sS'total_cq'
p163
I5
sa(dp164
g159
I4
sg160
F0.28938889503479004
sg161
F7.82012939453125e-05
sg162
I2
sg163
I4
sa(dp165
g159
I3
sg160
F0.05299782752990723
sg161
F7.295608520507812e-05
sg162
I2
sg163
I3
sa(dp166
g159
I3
sg160
F0.04909801483154297
sg161
F7.104873657226562e-05
sg162
I2
sg163
I2
sasS'total_cqs'
p167
I5
ssI17
(dp168
S'iters'
p169
I0
sS'meta'
p170
(lp171
sS'total_cqs'
p172
I1
ssI18
(dp173
S'iters'
p174
I2
sS'meta'
p175
(lp176
(dp177
S'objective'
p178
I1
sS'query_time'
p179
F0.8888919353485107
sS'comp_time'
p180
F7.486343383789062e-05
sS'exec_cq'
p181
I1
sS'total_cq'
p182
I5
sa(dp183
g178
I5
sg179
F0.6921818256378174
sg180
F6.29425048828125e-05
sg181
I1
sg182
I3
sasS'total_cqs'
p184
I5
ssI19
(dp185
S'iters'
p186
I0
sS'meta'
p187
(lp188
sS'total_cqs'
p189
I1
ssI20
(dp190
S'iters'
p191
I7
sS'meta'
p192
(lp193
(dp194
S'objective'
p195
I54
sS'query_time'
p196
F1.2930738925933838
sS'comp_time'
p197
F9.822845458984375e-05
sS'exec_cq'
p198
I1
sS'total_cq'
p199
I12
sa(dp200
g195
I44
sg196
F5.416225910186768
sg197
F0.00014090538024902344
sg198
I1
sg199
I11
sa(dp201
g195
I29
sg196
F0.011263132095336914
sg197
F3.695487976074219e-05
sg198
I2
sg199
I10
sa(dp202
g195
I18
sg196
F5.598566055297852
sg197
F6.198883056640625e-05
sg198
I3
sg199
I8
sa(dp203
g195
I18
sg196
F0.0036602020263671875
sg197
F4.00543212890625e-05
sg198
I3
sg199
I6
sa(dp204
g195
I18
sg196
F2.8937389850616455
sg197
F9.608268737792969e-05
sg198
I3
sg199
I5
sa(dp205
g195
I19
sg196
F0.09587812423706055
sg197
F7.510185241699219e-05
sg198
I4
sg199
I4
sasS'total_cqs'
p206
I12
ssI21
(dp207
S'iters'
p208
I8
sS'meta'
p209
(lp210
(dp211
S'objective'
p212
I77
sS'query_time'
p213
F20.021960020065308
sS'comp_time'
p214
F9.083747863769531e-05
sS'exec_cq'
p215
I1
sS'total_cq'
p216
I14
sa(dp217
g212
I65
sg213
F0.460644006729126
sg214
F7.200241088867188e-05
sg215
I1
sg216
I13
sa(dp218
g212
I4
sg213
F0.08961176872253418
sg214
F7.104873657226562e-05
sg215
I1
sg216
I12
sa(dp219
g212
I7
sg213
F1.1696500778198242
sg214
F7.104873657226562e-05
sg215
I1
sg216
I8
sa(dp220
g212
I10
sg213
F0.25705909729003906
sg214
F7.486343383789062e-05
sg215
I1
sg216
I6
sa(dp221
g212
I5
sg213
F0.07360410690307617
sg214
F5.793571472167969e-05
sg215
I1
sg216
I5
sa(dp222
g212
I0
sg213
F10.248869180679321
sg214
F0.0004100799560546875
sg215
I1
sg216
I3
sa(dp223
g212
I1
sg213
F0.05370283126831055
sg214
F5.793571472167969e-05
sg215
I1
sg216
I2
sasS'total_cqs'
p224
I14
ssI22
(dp225
S'iters'
p226
I1
sS'meta'
p227
(lp228
(dp229
S'objective'
p230
I1
sS'query_time'
p231
F0.004965066909790039
sS'comp_time'
p232
F4.315376281738281e-05
sS'exec_cq'
p233
I1
sS'total_cq'
p234
I2
sasS'total_cqs'
p235
I2
ssI23
(dp236
S'iters'
p237
I0
sS'meta'
p238
(lp239
sS'total_cqs'
p240
I1
ssI24
(dp241
S'iters'
p242
I0
sS'meta'
p243
(lp244
sS'total_cqs'
p245
I1
ssI25
(dp246
S'iters'
p247
I5
sS'meta'
p248
(lp249
(dp250
S'objective'
p251
I14
sS'query_time'
p252
F24.71969509124756
sS'comp_time'
p253
F8.893013000488281e-05
sS'exec_cq'
p254
I1
sS'total_cq'
p255
I7
sa(dp256
g251
I9
sg252
F24.498672008514404
sg253
F0.0003261566162109375
sg254
I1
sg255
I6
sa(dp257
g251
I5
sg252
F8.018465995788574
sg253
F0.00045800209045410156
sg254
I1
sg255
I5
sa(dp258
g251
I2
sg252
F7.908920049667358
sg253
F9.393692016601562e-05
sg254
I1
sg255
I4
sa(dp259
g251
I4
sg252
F2.0434679985046387
sg253
F6.198883056640625e-05
sg254
I1
sg255
I3
sasS'total_cqs'
p260
I7
ssI26
(dp261
S'iters'
p262
I10
sS'meta'
p263
(lp264
(dp265
S'objective'
p266
I65
sS'query_time'
p267
F0.07111907005310059
sS'comp_time'
p268
F8.0108642578125e-05
sS'exec_cq'
p269
I1
sS'total_cq'
p270
I13
sa(dp271
g266
I54
sg267
F6.6148481369018555
sg268
F8.20159912109375e-05
sg269
I1
sg270
I12
sa(dp272
g266
I30
sg267
F0.07541894912719727
sg268
F6.008148193359375e-05
sg269
I1
sg270
I11
sa(dp273
g266
I18
sg267
F1.8861291408538818
sg268
F5.602836608886719e-05
sg269
I1
sg270
I9
sa(dp274
g266
I15
sg267
F0.036253929138183594
sg268
F5.0067901611328125e-05
sg269
I1
sg270
I7
sa(dp275
g266
I8
sg267
F0.025408029556274414
sg268
F8.20159912109375e-05
sg269
I1
sg270
I6
sa(dp276
g266
I4
sg267
F0.02942204475402832
sg268
F4.1961669921875e-05
sg269
I1
sg270
I5
sa(dp277
g266
I2
sg267
F0.025897979736328125
sg268
F4.1961669921875e-05
sg269
I1
sg270
I4
sa(dp278
g266
I0
sg267
F0.04239511489868164
sg268
F6.389617919921875e-05
sg269
I1
sg270
I3
sa(dp279
g266
I1
sg267
F18.57909107208252
sg268
F0.0005290508270263672
sg269
I1
sg270
I2
sasS'total_cqs'
p280
I13
ssI27
(dp281
S'iters'
p282
I1
sS'meta'
p283
(lp284
(dp285
S'objective'
p286
I1
sS'query_time'
p287
F0.1765458583831787
sS'comp_time'
p288
F8.0108642578125e-05
sS'exec_cq'
p289
I2
sS'total_cq'
p290
I2
sasS'total_cqs'
p291
I2
ssI28
(dp292
S'iters'
p293
I9
sS'meta'
p294
(lp295
(dp296
S'objective'
p297
I77
sS'query_time'
p298
F1.596992015838623
sS'comp_time'
p299
F6.794929504394531e-05
sS'exec_cq'
p300
I1
sS'total_cq'
p301
I14
sa(dp302
g297
I65
sg298
F1.3826320171356201
sg299
F8.106231689453125e-05
sg300
I1
sg301
I13
sa(dp303
g297
I54
sg298
F2.6590001583099365
sg299
F8.320808410644531e-05
sg300
I1
sg301
I12
sa(dp304
g297
I18
sg298
F1.0846049785614014
sg299
F5.1021575927734375e-05
sg300
I1
sg301
I11
sa(dp305
g297
I22
sg298
F0.5160620212554932
sg299
F5.316734313964844e-05
sg300
I1
sg301
I7
sa(dp306
g297
I14
sg298
F0.6831068992614746
sg299
F8.106231689453125e-05
sg300
I1
sg301
I6
sa(dp307
g297
I7
sg298
F0.29378604888916016
sg299
F4.9114227294921875e-05
sg300
I1
sg301
I5
sa(dp308
g297
I3
sg298
F0.17353200912475586
sg299
F7.390975952148438e-05
sg300
I1
sg301
I4
sa(dp309
g297
I7
sg298
F0.2588179111480713
sg299
F3.3855438232421875e-05
sg300
I1
sg301
I3
sasS'total_cqs'
p310
I14
ssI29
(dp311
S'iters'
p312
I1
sS'meta'
p313
(lp314
(dp315
S'objective'
p316
I1
sS'query_time'
p317
F0.004454135894775391
sS'comp_time'
p318
F5.1975250244140625e-05
sS'exec_cq'
p319
I2
sS'total_cq'
p320
I2
sasS'total_cqs'
p321
I2
ssI30
(dp322
S'iters'
p323
I1
sS'meta'
p324
(lp325
(dp326
S'objective'
p327
I1
sS'query_time'
p328
F0.4143500328063965
sS'comp_time'
p329
F8.797645568847656e-05
sS'exec_cq'
p330
I2
sS'total_cq'
p331
I2
sasS'total_cqs'
p332
I2
ssI31
(dp333
S'iters'
p334
I6
sS'meta'
p335
(lp336
(dp337
S'objective'
p338
I15
sS'query_time'
p339
F4.265369176864624
sS'comp_time'
p340
F4.696846008300781e-05
sS'exec_cq'
p341
I1
sS'total_cq'
p342
I9
sa(dp343
g338
I14
sg339
F0.0058879852294921875
sg340
F6.985664367675781e-05
sg341
I1
sg342
I7
sa(dp344
g338
I8
sg339
F4.020751953125
sg340
F7.200241088867188e-05
sg341
I1
sg342
I6
sa(dp345
g338
I1
sg339
F0.6640961170196533
sg340
F6.699562072753906e-05
sg341
I1
sg342
I5
sa(dp346
g338
I2
sg339
F6.597625970840454
sg340
F6.4849853515625e-05
sg341
I1
sg342
I3
sa(dp347
g338
I3
sg339
F3.709639072418213
sg340
F3.0994415283203125e-05
sg341
I1
sg342
I2
sasS'total_cqs'
p348
I9
ssI32
(dp349
S'iters'
p350
I5
sS'meta'
p351
(lp352
(dp353
S'objective'
p354
I14
sS'query_time'
p355
F2.3090460300445557
sS'comp_time'
p356
F0.0012378692626953125
sS'exec_cq'
p357
I1
sS'total_cq'
p358
I7
sa(dp359
g354
I9
sg355
F7.24307107925415
sg356
F0.0002071857452392578
sg357
I1
sg358
I6
sa(dp360
g354
I5
sg355
F7.686895847320557
sg356
F0.00039696693420410156
sg357
I1
sg358
I5
sa(dp361
g354
I2
sg355
F1.496518850326538
sg356
F7.200241088867188e-05
sg357
I1
sg358
I4
sa(dp362
g354
I4
sg355
F1.369246006011963
sg356
F6.604194641113281e-05
sg357
I1
sg358
I3
sasS'total_cqs'
p363
I7
ssI33
(dp364
S'iters'
p365
I1
sS'meta'
p366
(lp367
(dp368
S'objective'
p369
I1
sS'query_time'
p370
F0.03994894027709961
sS'comp_time'
p371
F7.700920104980469e-05
sS'exec_cq'
p372
I2
sS'total_cq'
p373
I2
sasS'total_cqs'
p374
I2
ssI34
(dp375
S'iters'
p376
I0
sS'meta'
p377
(lp378
sS'total_cqs'
p379
I1
ssI35
(dp380
S'iters'
p381
I3
sS'meta'
p382
(lp383
(dp384
S'objective'
p385
I3
sS'query_time'
p386
F5.837573051452637
sS'comp_time'
p387
F8.106231689453125e-05
sS'exec_cq'
p388
I1
sS'total_cq'
p389
I5
sa(dp390
g385
I0
sg386
F2.7773330211639404
sg387
F0.0002951622009277344
sg388
I1
sg389
I3
sa(dp391
g385
I1
sg386
F5.716306924819946
sg387
F0.00011920928955078125
sg388
I1
sg389
I2
sasS'total_cqs'
p392
I5
ssI37
(dp393
S'iters'
p394
I6
sS'meta'
p395
(lp396
(dp397
S'objective'
p398
I35
sS'query_time'
p399
F0.010560035705566406
sS'comp_time'
p400
F5.602836608886719e-05
sS'exec_cq'
p401
I1
sS'total_cq'
p402
I10
sa(dp403
g398
I27
sg399
F0.0064220428466796875
sg400
F4.601478576660156e-05
sg401
I1
sg402
I9
sa(dp404
g398
I20
sg399
F0.6362490653991699
sg400
F0.00010395050048828125
sg401
I1
sg402
I8
sa(dp405
g398
I14
sg399
F0.005735874176025391
sg400
F3.814697265625e-05
sg401
I1
sg402
I7
sa(dp406
g398
I9
sg399
F1.7243781089782715
sg400
F8.797645568847656e-05
sg401
I2
sg402
I6
sa(dp407
g398
I4
sg399
F0.0018308162689208984
sg400
F3.1948089599609375e-05
sg401
I1
sg402
I2
sasS'total_cqs'
p408
I10
ssI38
(dp409
S'iters'
p410
I0
sS'meta'
p411
(lp412
sS'total_cqs'
p413
I1
ssI39
(dp414
S'iters'
p415
I0
sS'meta'
p416
(lp417
sS'total_cqs'
p418
I1
ssI40
(dp419
S'iters'
p420
I1
sS'meta'
p421
(lp422
(dp423
S'objective'
p424
I1
sS'query_time'
p425
F18.61146092414856
sS'comp_time'
p426
F0.018819808959960938
sS'exec_cq'
p427
I1
sS'total_cq'
p428
I2
sasS'total_cqs'
p429
I2
ssI41
(dp430
S'iters'
p431
I5
sS'meta'
p432
(lp433
(dp434
S'objective'
p435
I9
sS'query_time'
p436
F1.773874044418335
sS'comp_time'
p437
F8.58306884765625e-05
sS'exec_cq'
p438
I1
sS'total_cq'
p439
I6
sa(dp440
g435
I5
sg436
F0.2602050304412842
sg437
F9.107589721679688e-05
sg438
I1
sg439
I5
sa(dp441
g435
I2
sg436
F0.2894008159637451
sg437
F8.082389831542969e-05
sg438
I1
sg439
I4
sa(dp442
g435
I0
sg436
F9.284212827682495
sg437
F0.0005118846893310547
sg438
I1
sg439
I3
sa(dp443
g435
I1
sg436
F1.649190902709961
sg437
F8.20159912109375e-05
sg438
I1
sg439
I2
sasS'total_cqs'
p444
I6
ssI42
(dp445
S'iters'
p446
I1
sS'meta'
p447
(lp448
(dp449
S'objective'
p450
I1
sS'query_time'
p451
F19.049488067626953
sS'comp_time'
p452
F0.0002300739288330078
sS'exec_cq'
p453
I1
sS'total_cq'
p454
I2
sasS'total_cqs'
p455
I2
ssI43
(dp456
S'iters'
p457
I0
sS'meta'
p458
(lp459
sS'total_cqs'
p460
I1
ssI44
(dp461
S'iters'
p462
I3
sS'meta'
p463
(lp464
(dp465
S'objective'
p466
I3
sS'query_time'
p467
F1.5740470886230469
sS'comp_time'
p468
F0.00010395050048828125
sS'exec_cq'
p469
I1
sS'total_cq'
p470
I5
sa(dp471
g466
I0
sg467
F1.2527248859405518
sg468
F9.512901306152344e-05
sg469
I1
sg470
I3
sa(dp472
g466
I1
sg467
F0.007693052291870117
sg468
F4.506111145019531e-05
sg469
I1
sg470
I2
sasS'total_cqs'
p473
I5
ssI45
(dp474
S'iters'
p475
I2
sS'meta'
p476
(lp477
(dp478
S'objective'
p479
I5
sS'query_time'
p480
F5.61733603477478
sS'comp_time'
p481
F6.794929504394531e-05
sS'exec_cq'
p482
I1
sS'total_cq'
p483
I5
sa(dp484
g479
I8
sg480
F0.012199878692626953
sg481
F4.792213439941406e-05
sg482
I4
sg483
I4
sasS'total_cqs'
p485
I5
ssI46
(dp486
S'iters'
p487
I0
sS'meta'
p488
(lp489
sS'total_cqs'
p490
I1
ssI47
(dp491
S'iters'
p492
I0
sS'meta'
p493
(lp494
sS'total_cqs'
p495
I1
ssI48
(dp496
S'iters'
p497
I1
sS'meta'
p498
(lp499
(dp500
S'objective'
p501
I1
sS'query_time'
p502
F0.13558292388916016
sS'comp_time'
p503
F6.389617919921875e-05
sS'exec_cq'
p504
I2
sS'total_cq'
p505
I2
sasS'total_cqs'
p506
I2
ssI49
(dp507
S'iters'
p508
I3
sS'meta'
p509
(lp510
(dp511
S'objective'
p512
I1
sS'query_time'
p513
F1.899679183959961
sS'comp_time'
p514
F7.390975952148438e-05
sS'exec_cq'
p515
I1
sS'total_cq'
p516
I5
sa(dp517
g512
I1
sg513
F3.7615909576416016
sg514
F6.914138793945312e-05
sg515
I1
sg516
I3
sa(dp518
g512
I1
sg513
F0.01025700569152832
sg514
F4.1961669921875e-05
sg515
I2
sg516
I2
sasS'total_cqs'
p519
I5
ssI50
(dp520
S'iters'
p521
I4
sS'meta'
p522
(lp523
(dp524
S'objective'
p525
I5
sS'query_time'
p526
F0.20693588256835938
sS'comp_time'
p527
F7.915496826171875e-05
sS'exec_cq'
p528
I1
sS'total_cq'
p529
I5
sa(dp530
g525
I2
sg526
F0.017739057540893555
sg527
F4.601478576660156e-05
sg528
I1
sg529
I4
sa(dp531
g525
I0
sg526
F0.0049610137939453125
sg527
F4.792213439941406e-05
sg528
I1
sg529
I3
sa(dp532
g525
I1
sg526
F0.0025091171264648438
sg527
F4.506111145019531e-05
sg528
I1
sg529
I2
sasS'total_cqs'
p533
I5
ssI51
(dp534
S'iters'
p535
I0
sS'meta'
p536
(lp537
sS'total_cqs'
p538
I1
ssI52
(dp539
S'iters'
p540
I0
sS'meta'
p541
(lp542
sS'total_cqs'
p543
I1
ssI53
(dp544
S'iters'
p545
I0
sS'meta'
p546
(lp547
sS'total_cqs'
p548
I1
ssI55
(dp549
S'iters'
p550
I1
sS'meta'
p551
(lp552
(dp553
S'objective'
p554
I1
sS'query_time'
p555
F24.176331996917725
sS'comp_time'
p556
F6.29425048828125e-05
sS'exec_cq'
p557
I2
sS'total_cq'
p558
I2
sasS'total_cqs'
p559
I2
ssI56
(dp560
S'iters'
p561
I0
sS'meta'
p562
(lp563
sS'total_cqs'
p564
I1
ssI57
(dp565
S'iters'
p566
I2
sS'meta'
p567
(lp568
(dp569
S'objective'
p570
I0
sS'query_time'
p571
F2.3528361320495605
sS'comp_time'
p572
F0.0003418922424316406
sS'exec_cq'
p573
I1
sS'total_cq'
p574
I3
sa(dp575
g570
I1
sg571
F12.042505025863647
sg572
F0.00013399124145507812
sg573
I2
sg574
I2
sasS'total_cqs'
p576
I3
ssI108
(dp577
S'iters'
p578
I0
sS'meta'
p579
(lp580
sS'total_cqs'
p581
I1
ssI109
(dp582
S'iters'
p583
I0
sS'meta'
p584
(lp585
sS'total_cqs'
p586
I1
ssI116
(dp587
S'iters'
p588
I5
sS'meta'
p589
(lp590
(dp591
S'objective'
p592
I165
sS'query_time'
p593
F1.385617971420288
sS'comp_time'
p594
F9.393692016601562e-05
sS'exec_cq'
p595
I2
sS'total_cq'
p596
I21
sa(dp597
g592
I160
sg593
F0.15022802352905273
sg594
F0.00010395050048828125
sg595
I2
sg596
I19
sa(dp598
g592
I151
sg593
F1.2962660789489746
sg594
F0.00011491775512695312
sg595
I6
sg596
I18
sa(dp599
g592
I153
sg593
F0.11601710319519043
sg594
F0.00010514259338378906
sg595
I12
sg596
I17
sa(dp600
g592
I157
sg593
F0.08844280242919922
sg594
F0.00010418891906738281
sg595
I16
sg596
I16
sasS'total_cqs'
p601
I21
ssI117
(dp602
S'iters'
p603
I2
sS'meta'
p604
(lp605
(dp606
S'objective'
p607
I5
sS'query_time'
p608
F0.0073931217193603516
sS'comp_time'
p609
F4.410743713378906e-05
sS'exec_cq'
p610
I1
sS'total_cq'
p611
I5
sa(dp612
g607
I8
sg608
F0.004968881607055664
sg609
F4.410743713378906e-05
sg610
I4
sg611
I4
sasS'total_cqs'
p613
I5
ssI118
(dp614
S'iters'
p615
I0
sS'meta'
p616
(lp617
sS'total_cqs'
p618
I1
ssI122
(dp619
S'iters'
p620
I0
sS'meta'
p621
(lp622
sS'total_cqs'
p623
I1
ss.