(dp0
I1
(dp1
S'iters'
p2
I1
sS'meta'
p3
(lp4
(dp5
S'objective'
p6
I9
sS'query_time'
p7
F24.937612056732178
sS'comp_time'
p8
F20.0930118560791
sS'exec_cq'
p9
I6
sS'total_cq'
p10
I6
sasS'total_cqs'
p11
I6
ssI2
(dp12
S'iters'
p13
I1
sS'meta'
p14
(lp15
(dp16
S'objective'
p17
I9
sS'query_time'
p18
F5.497671127319336
sS'comp_time'
p19
F0.07574272155761719
sS'exec_cq'
p20
I6
sS'total_cq'
p21
I6
sasS'total_cqs'
p22
I6
ssI3
(dp23
S'iters'
p24
I6
sS'meta'
p25
(lp26
(dp27
S'objective'
p28
I419
sS'query_time'
p29
F60.28776502609253
sS'comp_time'
p30
F0.18903493881225586
sS'exec_cq'
p31
I33
sS'total_cq'
p32
I33
sa(dp33
g28
I364
sg29
F0.020776987075805664
sg30
F0.13159632682800293
sg31
I30
sg32
I30
sa(dp34
g28
I331
sg29
F0.008239984512329102
sg30
F0.06602215766906738
sg31
I27
sg32
I27
sa(dp35
g28
I295
sg29
F0.00899505615234375
sg30
F0.04080700874328613
sg31
I24
sg32
I24
sa(dp36
g28
I259
sg29
F0.008465051651000977
sg30
F0.04284501075744629
sg31
I21
sg32
I21
sa(dp37
g28
I232
sg29
F0.008041858673095703
sg30
F0.0641181468963623
sg31
I18
sg32
I18
sasS'total_cqs'
p38
I33
ssI6
(dp39
S'iters'
p40
I2
sS'meta'
p41
(lp42
(dp43
S'objective'
p44
I1
sS'query_time'
p45
F62.32569718360901
sS'comp_time'
p46
F0.008491039276123047
sS'exec_cq'
p47
I5
sS'total_cq'
p48
I5
sa(dp49
g44
I3
sg45
F8.296966552734375e-05
sg46
F41.363389015197754
sg47
I2
sg48
I2
sasS'total_cqs'
p50
I5
ssI8
(dp51
S'iters'
p52
I1
sS'meta'
p53
(lp54
(dp55
S'objective'
p56
I9
sS'query_time'
p57
F40.7337920665741
sS'comp_time'
p58
F14.163904905319214
sS'exec_cq'
p59
I6
sS'total_cq'
p60
I6
sasS'total_cqs'
p61
I6
ssI9
(dp62
S'iters'
p63
I2
sS'meta'
p64
(lp65
(dp66
S'objective'
p67
I1
sS'query_time'
p68
F27.884364128112793
sS'comp_time'
p69
F20.21464490890503
sS'exec_cq'
p70
I6
sS'total_cq'
p71
I6
sa(dp72
g67
I1
sg68
F0.008088111877441406
sg69
F0.07096576690673828
sg70
I2
sg71
I2
sasS'total_cqs'
p73
I6
ssI13
(dp74
S'iters'
p75
I1
sS'meta'
p76
(lp77
(dp78
S'objective'
p79
I20
sS'query_time'
p80
F0.6095290184020996
sS'comp_time'
p81
F0.0002391338348388672
sS'exec_cq'
p82
I8
sS'total_cq'
p83
I8
sasS'total_cqs'
p84
I8
ssI14
(dp85
S'iters'
p86
I3
sS'meta'
p87
(lp88
(dp89
S'objective'
p90
I11
sS'query_time'
p91
F42.197149991989136
sS'comp_time'
p92
F0.004993915557861328
sS'exec_cq'
p93
I5
sS'total_cq'
p94
I5
sa(dp95
g90
I11
sg91
F3.814697265625e-05
sg92
F0.0018990039825439453
sg93
I4
sg94
I4
sa(dp96
g90
I2
sg91
F0.004040241241455078
sg92
F0.09954190254211426
sg93
I3
sg94
I3
sasS'total_cqs'
p97
I5
ssI16
(dp98
S'iters'
p99
I2
sS'meta'
p100
(lp101
(dp102
S'objective'
p103
I3
sS'query_time'
p104
F41.595345973968506
sS'comp_time'
p105
F20.00669288635254
sS'exec_cq'
p106
I5
sS'total_cq'
p107
I5
sa(dp108
g103
I1
sg104
F0.00025582313537597656
sg105
F0.001399993896484375
sg106
I2
sg107
I2
sasS'total_cqs'
p109
I5
ssI18
(dp110
S'iters'
p111
I2
sS'meta'
p112
(lp113
(dp114
S'objective'
p115
I1
sS'query_time'
p116
F10.223154067993164
sS'comp_time'
p117
F0.0005362033843994141
sS'exec_cq'
p118
I5
sS'total_cq'
p119
I5
sa(dp120
g115
I2
sg116
F8.082389831542969e-05
sg117
F0.00021696090698242188
sg118
I3
sg119
I3
sasS'total_cqs'
p121
I5
ssI20
(dp122
S'iters'
p123
I3
sS'meta'
p124
(lp125
(dp126
S'objective'
p127
I38
sS'query_time'
p128
F51.08767914772034
sS'comp_time'
p129
F1.1539480686187744
sS'exec_cq'
p130
I12
sS'total_cq'
p131
I12
sa(dp132
g127
I24
sg128
F0.2583930492401123
sg129
F0.9743747711181641
sg130
I10
sg131
I10
sa(dp133
g127
I17
sg128
F0.17599797248840332
sg129
F0.5954022407531738
sg130
I8
sg131
I8
sasS'total_cqs'
p134
I12
ssI21
(dp135
S'iters'
p136
I3
sS'meta'
p137
(lp138
(dp139
S'objective'
p140
I27
sS'query_time'
p141
F42.76497411727905
sS'comp_time'
p142
F0.24447298049926758
sS'exec_cq'
p143
I14
sS'total_cq'
p144
I14
sa(dp145
g140
I28
sg141
F0.018923044204711914
sg142
F0.12686610221862793
sg143
I10
sg144
I10
sa(dp146
g140
I9
sg141
F0.004691123962402344
sg142
F0.01951909065246582
sg143
I2
sg144
I2
sasS'total_cqs'
p147
I14
ssI22
(dp148
S'iters'
p149
I1
sS'meta'
p150
(lp151
(dp152
S'objective'
p153
I1
sS'query_time'
p154
F0.010214805603027344
sS'comp_time'
p155
F0.00015020370483398438
sS'exec_cq'
p156
I2
sS'total_cq'
p157
I2
sasS'total_cqs'
p158
I2
ssI25
(dp159
S'iters'
p160
I1
sS'meta'
p161
(lp162
(dp163
S'objective'
p164
I14
sS'query_time'
p165
F25.431360960006714
sS'comp_time'
p166
F0.021902084350585938
sS'exec_cq'
p167
I7
sS'total_cq'
p168
I7
sasS'total_cqs'
p169
I7
ssI26
(dp170
S'iters'
p171
I3
sS'meta'
p172
(lp173
(dp174
S'objective'
p175
I49
sS'query_time'
p176
F27.41775107383728
sS'comp_time'
p177
F0.05696392059326172
sS'exec_cq'
p178
I13
sS'total_cq'
p179
I13
sa(dp180
g175
I38
sg176
F0.003693819046020508
sg177
F0.016597986221313477
sg178
I11
sg179
I11
sa(dp181
g175
I28
sg176
F0.0024449825286865234
sg177
F0.01217508316040039
sg178
I9
sg179
I9
sasS'total_cqs'
p182
I13
ssI27
(dp183
S'iters'
p184
I1
sS'meta'
p185
(lp186
(dp187
S'objective'
p188
I1
sS'query_time'
p189
F11.495728015899658
sS'comp_time'
p190
F0.0035169124603271484
sS'exec_cq'
p191
I2
sS'total_cq'
p192
I2
sasS'total_cqs'
p193
I2
ssI28
(dp194
S'iters'
p195
I3
sS'meta'
p196
(lp197
(dp198
S'objective'
p199
I45
sS'query_time'
p200
F25.524002075195312
sS'comp_time'
p201
F0.9335322380065918
sS'exec_cq'
p202
I14
sS'total_cq'
p203
I14
sa(dp204
g199
I27
sg200
F0.0004749298095703125
sg201
F0.6029598712921143
sg202
I11
sg203
I11
sa(dp205
g199
I23
sg200
F0.0004000663757324219
sg201
F2.0937068462371826
sg202
I9
sg203
I9
sasS'total_cqs'
p206
I14
ssI29
(dp207
S'iters'
p208
I1
sS'meta'
p209
(lp210
(dp211
S'objective'
p212
I1
sS'query_time'
p213
F0.013098001480102539
sS'comp_time'
p214
F0.00013303756713867188
sS'exec_cq'
p215
I2
sS'total_cq'
p216
I2
sasS'total_cqs'
p217
I2
ssI30
(dp218
S'iters'
p219
I1
sS'meta'
p220
(lp221
(dp222
S'objective'
p223
I1
sS'query_time'
p224
F20.028995990753174
sS'comp_time'
p225
F0.004760026931762695
sS'exec_cq'
p226
I2
sS'total_cq'
p227
I2
sasS'total_cqs'
p228
I2
ssI31
(dp229
S'iters'
p230
I4
sS'meta'
p231
(lp232
(dp233
S'objective'
p234
I29
sS'query_time'
p235
F20.38495707511902
sS'comp_time'
p236
F0.010460138320922852
sS'exec_cq'
p237
I9
sS'total_cq'
p238
I9
sa(dp239
g234
I23
sg235
F5.4836273193359375e-05
sg236
F0.0057201385498046875
sg237
I7
sg238
I7
sa(dp240
g234
I22
sg235
F3.910064697265625e-05
sg236
F0.004444122314453125
sg237
I6
sg238
I6
sa(dp241
g234
I8
sg235
F0.9358882904052734
sg236
F21.51144313812256
sg237
I5
sg238
I5
sasS'total_cqs'
p242
I9
ssI32
(dp243
S'iters'
p244
I1
sS'meta'
p245
(lp246
(dp247
S'objective'
p248
I14
sS'query_time'
p249
F45.3792028427124
sS'comp_time'
p250
F0.623558759689331
sS'exec_cq'
p251
I7
sS'total_cq'
p252
I7
sasS'total_cqs'
p253
I7
ssI33
(dp254
S'iters'
p255
I1
sS'meta'
p256
(lp257
(dp258
S'objective'
p259
I1
sS'query_time'
p260
F7.361726999282837
sS'comp_time'
p261
F0.00021314620971679688
sS'exec_cq'
p262
I2
sS'total_cq'
p263
I2
sasS'total_cqs'
p264
I2
ssI35
(dp265
S'iters'
p266
I3
sS'meta'
p267
(lp268
(dp269
S'objective'
p270
I1
sS'query_time'
p271
F62.97981405258179
sS'comp_time'
p272
F0.2910807132720947
sS'exec_cq'
p273
I5
sS'total_cq'
p274
I5
sa(dp275
g270
I4
sg271
F0.011070966720581055
sg272
F0.6030709743499756
sg273
I3
sg274
I3
sa(dp276
g270
I4
sg271
F0.0005772113800048828
sg272
F0.9815359115600586
sg273
I2
sg274
I2
sasS'total_cqs'
p277
I5
ssI37
(dp278
S'iters'
p279
I5
sS'meta'
p280
(lp281
(dp282
S'objective'
p283
I43
sS'query_time'
p284
F20.463150024414062
sS'comp_time'
p285
F0.008807897567749023
sS'exec_cq'
p286
I10
sS'total_cq'
p287
I10
sa(dp288
g283
I39
sg284
F6.604194641113281e-05
sg285
F0.003495931625366211
sg286
I9
sg287
I9
sa(dp289
g283
I36
sg284
F4.8160552978515625e-05
sg285
F0.0032699108123779297
sg286
I8
sg287
I8
sa(dp290
g283
I36
sg284
F4.220008850097656e-05
sg285
F0.0031321048736572266
sg286
I7
sg287
I7
sa(dp291
g283
I18
sg284
F1.124830961227417
sg285
F20.843274116516113
sg286
I6
sg287
I6
sasS'total_cqs'
p292
I10
ssI40
(dp293
S'iters'
p294
I1
sS'meta'
p295
(lp296
(dp297
S'objective'
p298
I1
sS'query_time'
p299
F20.02562403678894
sS'comp_time'
p300
F0.0317840576171875
sS'exec_cq'
p301
I2
sS'total_cq'
p302
I2
sasS'total_cqs'
p303
I2
ssI41
(dp304
S'iters'
p305
I3
sS'meta'
p306
(lp307
(dp308
S'objective'
p309
I1
sS'query_time'
p310
F44.49347805976868
sS'comp_time'
p311
F18.905681848526
sS'exec_cq'
p312
I6
sS'total_cq'
p313
I6
sa(dp314
g309
I5
sg310
F0.0010159015655517578
sg311
F3.248492956161499
sg312
I3
sg313
I3
sa(dp315
g309
I4
sg310
F0.0024728775024414062
sg311
F49.625428915023804
sg312
I2
sg313
I2
sasS'total_cqs'
p316
I6
ssI42
(dp317
S'iters'
p318
I1
sS'meta'
p319
(lp320
(dp321
S'objective'
p322
I1
sS'query_time'
p323
F23.826146841049194
sS'comp_time'
p324
F0.0049211978912353516
sS'exec_cq'
p325
I2
sS'total_cq'
p326
I2
sasS'total_cqs'
p327
I2
ssI44
(dp328
S'iters'
p329
I2
sS'meta'
p330
(lp331
(dp332
S'objective'
p333
I3
sS'query_time'
p334
F6.010833978652954
sS'comp_time'
p335
F0.08702421188354492
sS'exec_cq'
p336
I5
sS'total_cq'
p337
I5
sa(dp338
g333
I1
sg334
F0.013451099395751953
sg335
F0.08667492866516113
sg336
I3
sg337
I3
sasS'total_cqs'
p339
I5
ssI45
(dp340
S'iters'
p341
I2
sS'meta'
p342
(lp343
(dp344
S'objective'
p345
I1
sS'query_time'
p346
F1.540714979171753
sS'comp_time'
p347
F0.0008389949798583984
sS'exec_cq'
p348
I5
sS'total_cq'
p349
I5
sa(dp350
g345
I2
sg346
F0.0001277923583984375
sg347
F0.0005049705505371094
sg348
I2
sg349
I2
sasS'total_cqs'
p351
I5
ssI48
(dp352
S'iters'
p353
I1
sS'meta'
p354
(lp355
(dp356
S'objective'
p357
I1
sS'query_time'
p358
F10.233733892440796
sS'comp_time'
p359
F0.005460977554321289
sS'exec_cq'
p360
I2
sS'total_cq'
p361
I2
sasS'total_cqs'
p362
I2
ssI49
(dp363
S'iters'
p364
I2
sS'meta'
p365
(lp366
(dp367
S'objective'
p368
I1
sS'query_time'
p369
F6.814626932144165
sS'comp_time'
p370
F0.0054399967193603516
sS'exec_cq'
p371
I5
sS'total_cq'
p372
I5
sa(dp373
g368
I2
sg369
F2.5987625122070312e-05
sg370
F0.00010514259338378906
sg371
I2
sg372
I2
sasS'total_cqs'
p374
I5
ssI50
(dp375
S'iters'
p376
I4
sS'meta'
p377
(lp378
(dp379
S'objective'
p380
I7
sS'query_time'
p381
F42.18293595314026
sS'comp_time'
p382
F0.004812955856323242
sS'exec_cq'
p383
I5
sS'total_cq'
p384
I5
sa(dp385
g380
I5
sg381
F0.000186920166015625
sg382
F0.0022110939025878906
sg383
I4
sg384
I4
sa(dp386
g380
I4
sg381
F3.0040740966796875e-05
sg382
F0.0010578632354736328
sg383
I3
sg384
I3
sa(dp387
g380
I4
sg381
F2.5033950805664062e-05
sg382
F0.0010907649993896484
sg383
I2
sg384
I2
sasS'total_cqs'
p388
I5
ssI55
(dp389
S'iters'
p390
I1
sS'meta'
p391
(lp392
(dp393
S'objective'
p394
I1
sS'query_time'
p395
F54.6937370300293
sS'comp_time'
p396
F21.368378162384033
sS'exec_cq'
p397
I2
sS'total_cq'
p398
I2
sasS'total_cqs'
p399
I2
ssI57
(dp400
S'iters'
p401
I1
sS'meta'
p402
(lp403
(dp404
S'objective'
p405
I0
sS'query_time'
p406
F21.066131830215454
sS'comp_time'
p407
F0.07958078384399414
sS'exec_cq'
p408
I3
sS'total_cq'
p409
I3
sasS'total_cqs'
p410
I3
ssI116
(dp411
S'iters'
p412
I2
sS'meta'
p413
(lp414
(dp415
S'objective'
p416
I125
sS'query_time'
p417
F35.64199185371399
sS'comp_time'
p418
F0.33160400390625
sS'exec_cq'
p419
I21
sS'total_cq'
p420
I21
sa(dp421
g416
I11
sg417
F0.0015549659729003906
sg418
F0.0041310787200927734
sg419
I3
sg420
I3
sasS'total_cqs'
p422
I21
ssI117
(dp423
S'iters'
p424
I1
sS'meta'
p425
(lp426
(dp427
S'objective'
p428
I5
sS'query_time'
p429
F0.5649681091308594
sS'comp_time'
p430
F0.00015687942504882812
sS'exec_cq'
p431
I5
sS'total_cq'
p432
I5
sasS'total_cqs'
p433
I5
ss.