(dp0
I1
(dp1
S'iters'
p2
I3
sS'meta'
p3
(lp4
(dp5
S'objective'
p6
I7
sS'query_time'
p7
F71.74459600448608
sS'comp_time'
p8
F2.752228021621704
sS'exec_cq'
p9
I6
sS'total_cq'
p10
I6
sa(dp11
g6
I0
sg7
F0.0724029541015625
sg8
F0.9560589790344238
sg9
I4
sg10
I4
sa(dp12
g6
I5
sg7
F0.011898040771484375
sg8
F0.19343328475952148
sg9
I2
sg10
I2
sasS'total_cqs'
p13
I6
ssI2
(dp14
S'iters'
p15
I1
sS'meta'
p16
(lp17
(dp18
S'objective'
p19
I19
sS'query_time'
p20
F0.8975830078125
sS'comp_time'
p21
F0.14305686950683594
sS'exec_cq'
p22
I6
sS'total_cq'
p23
I6
sasS'total_cqs'
p24
I6
ssI3
(dp25
S'iters'
p26
I16
sS'meta'
p27
(lp28
(dp29
S'objective'
p30
I425
sS'query_time'
p31
F27.140460968017578
sS'comp_time'
p32
F0.46108102798461914
sS'exec_cq'
p33
I33
sS'total_cq'
p34
I33
sa(dp35
g30
I369
sg31
F0.041407108306884766
sg32
F0.5307948589324951
sg33
I30
sg34
I30
sa(dp36
g30
I315
sg31
F0.10504817962646484
sg32
F0.36827611923217773
sg33
I27
sg34
I27
sa(dp37
g30
I261
sg31
F0.017998933792114258
sg32
F0.18246078491210938
sg33
I24
sg34
I24
sa(dp38
g30
I235
sg31
F0.00854802131652832
sg32
F0.06144285202026367
sg33
I21
sg34
I21
sa(dp39
g30
I204
sg31
F0.0068340301513671875
sg32
F0.056868791580200195
sg33
I18
sg34
I18
sa(dp40
g30
I176
sg31
F0.007544994354248047
sg32
F0.08044576644897461
sg33
I15
sg34
I15
sa(dp41
g30
I150
sg31
F0.0059659481048583984
sg32
F0.07556009292602539
sg33
I12
sg34
I12
sa(dp42
g30
I125
sg31
F0.005369901657104492
sg32
F0.05098390579223633
sg33
I11
sg34
I11
sa(dp43
g30
I100
sg31
F0.029400110244750977
sg32
F0.05114483833312988
sg33
I10
sg34
I10
sa(dp44
g30
I78
sg31
F0.004514932632446289
sg32
F0.07166194915771484
sg33
I9
sg34
I9
sa(dp45
g30
I56
sg31
F0.002560853958129883
sg32
F0.022003889083862305
sg33
I8
sg34
I8
sa(dp46
g30
I45
sg31
F0.0020551681518554688
sg32
F0.022155046463012695
sg33
I7
sg34
I7
sa(dp47
g30
I38
sg31
F0.0025551319122314453
sg32
F0.021978139877319336
sg33
I6
sg34
I6
sa(dp48
g30
I30
sg31
F0.0019941329956054688
sg32
F0.04409217834472656
sg33
I5
sg34
I5
sa(dp49
g30
I38
sg31
F0.0019350051879882812
sg32
F0.02022385597229004
sg33
I3
sg34
I3
sasS'total_cqs'
p50
I33
ssI4
(dp51
S'iters'
p52
I0
sS'meta'
p53
(lp54
sS'total_cqs'
p55
I1
ssI5
(dp56
S'iters'
p57
I0
sS'meta'
p58
(lp59
sS'total_cqs'
p60
I1
ssI6
(dp61
S'iters'
p62
I3
sS'meta'
p63
(lp64
(dp65
S'objective'
p66
I1
sS'query_time'
p67
F14.997053861618042
sS'comp_time'
p68
F0.006319761276245117
sS'exec_cq'
p69
I5
sS'total_cq'
p70
I5
sa(dp71
g66
I1
sg67
F0.0006051063537597656
sg68
F0.004057884216308594
sg69
I3
sg70
I3
sa(dp72
g66
I1
sg67
F0.0003159046173095703
sg68
F0.003503084182739258
sg69
I2
sg70
I2
sasS'total_cqs'
p73
I5
ssI7
(dp74
S'iters'
p75
I0
sS'meta'
p76
(lp77
sS'total_cqs'
p78
I1
ssI8
(dp79
S'iters'
p80
I5
sS'meta'
p81
(lp82
(dp83
S'objective'
p84
I9
sS'query_time'
p85
F102.94100904464722
sS'comp_time'
p86
F41.92940616607666
sS'exec_cq'
p87
I6
sS'total_cq'
p88
I6
sa(dp89
g84
I5
sg85
F0.029078006744384766
sg86
F1.5354647636413574
sg87
I5
sg88
I5
sa(dp90
g84
I2
sg85
F0.02864980697631836
sg86
F0.3760099411010742
sg87
I4
sg88
I4
sa(dp91
g84
I0
sg85
F3.2901763916015625e-05
sg86
F1.0696179866790771
sg87
I3
sg88
I3
sa(dp92
g84
I1
sg85
F2.9087066650390625e-05
sg86
F0.003643035888671875
sg87
I2
sg88
I2
sasS'total_cqs'
p93
I6
ssI9
(dp94
S'iters'
p95
I3
sS'meta'
p96
(lp97
(dp98
S'objective'
p99
I3
sS'query_time'
p100
F52.26638102531433
sS'comp_time'
p101
F6.731231927871704
sS'exec_cq'
p102
I6
sS'total_cq'
p103
I6
sa(dp104
g99
I0
sg100
F0.9741148948669434
sg101
F6.273263931274414
sg102
I3
sg103
I3
sa(dp105
g99
I4
sg100
F0.00879812240600586
sg101
F0.0634157657623291
sg102
I2
sg103
I2
sasS'total_cqs'
p106
I6
ssI10
(dp107
S'iters'
p108
I0
sS'meta'
p109
(lp110
sS'total_cqs'
p111
I1
ssI11
(dp112
S'iters'
p113
I0
sS'meta'
p114
(lp115
sS'total_cqs'
p116
I1
ssI12
(dp117
S'iters'
p118
I0
sS'meta'
p119
(lp120
sS'total_cqs'
p121
I1
ssI13
(dp122
S'iters'
p123
I2
sS'meta'
p124
(lp125
(dp126
S'objective'
p127
I26
sS'query_time'
p128
F0.009307146072387695
sS'comp_time'
p129
F0.0001850128173828125
sS'exec_cq'
p130
I8
sS'total_cq'
p131
I8
sa(dp132
g127
I29
sg128
F3.790855407714844e-05
sg129
F7.915496826171875e-05
sg130
I7
sg131
I7
sasS'total_cqs'
p133
I8
ssI14
(dp134
S'iters'
p135
I3
sS'meta'
p136
(lp137
(dp138
S'objective'
p139
I7
sS'query_time'
p140
F1.0517380237579346
sS'comp_time'
p141
F0.010046005249023438
sS'exec_cq'
p142
I5
sS'total_cq'
p143
I5
sa(dp144
g139
I5
sg140
F0.0005719661712646484
sg141
F0.0048828125
sg142
I4
sg143
I4
sa(dp145
g139
I6
sg140
F0.0004229545593261719
sg141
F0.00487828254699707
sg142
I3
sg143
I3
sasS'total_cqs'
p146
I5
ssI16
(dp147
S'iters'
p148
I3
sS'meta'
p149
(lp150
(dp151
S'objective'
p152
I1
sS'query_time'
p153
F1.7240979671478271
sS'comp_time'
p154
F0.013025999069213867
sS'exec_cq'
p155
I5
sS'total_cq'
p156
I5
sa(dp157
g152
I2
sg153
F0.00028514862060546875
sg154
F0.002590179443359375
sg155
I3
sg156
I3
sa(dp158
g152
I1
sg153
F4.506111145019531e-05
sg154
F0.0003590583801269531
sg155
I2
sg156
I2
sasS'total_cqs'
p159
I5
ssI17
(dp160
S'iters'
p161
I0
sS'meta'
p162
(lp163
sS'total_cqs'
p164
I1
ssI18
(dp165
S'iters'
p166
I3
sS'meta'
p167
(lp168
(dp169
S'objective'
p170
I1
sS'query_time'
p171
F0.27326512336730957
sS'comp_time'
p172
F0.000453948974609375
sS'exec_cq'
p173
I5
sS'total_cq'
p174
I5
sa(dp175
g170
I1
sg171
F5.888938903808594e-05
sg172
F0.00031304359436035156
sg173
I3
sg174
I3
sa(dp176
g170
I1
sg171
F3.0040740966796875e-05
sg172
F0.00022792816162109375
sg173
I2
sg174
I2
sasS'total_cqs'
p177
I5
ssI19
(dp178
S'iters'
p179
I0
sS'meta'
p180
(lp181
sS'total_cqs'
p182
I1
ssI20
(dp183
S'iters'
p184
I6
sS'meta'
p185
(lp186
(dp187
S'objective'
p188
I44
sS'query_time'
p189
F11.728451013565063
sS'comp_time'
p190
F2.140235185623169
sS'exec_cq'
p191
I12
sS'total_cq'
p192
I12
sa(dp193
g188
I37
sg189
F0.3736729621887207
sg190
F1.807758092880249
sg191
I10
sg192
I10
sa(dp194
g188
I29
sg189
F0.36025094985961914
sg190
F1.5509328842163086
sg191
I8
sg192
I8
sa(dp195
g188
I25
sg189
F0.20419692993164062
sg190
F0.4706687927246094
sg191
I7
sg192
I7
sa(dp196
g188
I26
sg189
F0.0008609294891357422
sg190
F0.005725860595703125
sg191
I5
sg192
I5
sa(dp197
g188
I27
sg189
F0.0006098747253417969
sg190
F0.005971193313598633
sg191
I4
sg192
I4
sasS'total_cqs'
p198
I12
ssI21
(dp199
S'iters'
p200
I7
sS'meta'
p201
(lp202
(dp203
S'objective'
p204
I31
sS'query_time'
p205
F123.11847805976868
sS'comp_time'
p206
F2.2970590591430664
sS'exec_cq'
p207
I14
sS'total_cq'
p208
I14
sa(dp209
g204
I40
sg205
F0.02426910400390625
sg206
F0.4388151168823242
sg207
I10
sg208
I10
sa(dp210
g204
I28
sg205
F0.07367801666259766
sg206
F0.29327988624572754
sg207
I9
sg208
I9
sa(dp211
g204
I13
sg205
F0.030321836471557617
sg206
F0.3963589668273926
sg207
I8
sg208
I8
sa(dp212
g204
I1
sg205
F0.013785839080810547
sg206
F0.17371201515197754
sg207
I5
sg208
I5
sa(dp213
g204
I0
sg205
F0.011554956436157227
sg206
F0.15401482582092285
sg207
I3
sg208
I3
sa(dp214
g204
I5
sg205
F0.008013010025024414
sg206
F0.0639500617980957
sg207
I2
sg208
I2
sasS'total_cqs'
p215
I14
ssI22
(dp216
S'iters'
p217
I1
sS'meta'
p218
(lp219
(dp220
S'objective'
p221
I1
sS'query_time'
p222
F0.0035691261291503906
sS'comp_time'
p223
F0.000202178955078125
sS'exec_cq'
p224
I2
sS'total_cq'
p225
I2
sasS'total_cqs'
p226
I2
ssI23
(dp227
S'iters'
p228
I0
sS'meta'
p229
(lp230
sS'total_cqs'
p231
I1
ssI24
(dp232
S'iters'
p233
I0
sS'meta'
p234
(lp235
sS'total_cqs'
p236
I1
ssI25
(dp237
S'iters'
p238
I4
sS'meta'
p239
(lp240
(dp241
S'objective'
p242
I6
sS'query_time'
p243
F76.58324003219604
sS'comp_time'
p244
F5.336014032363892
sS'exec_cq'
p245
I7
sS'total_cq'
p246
I7
sa(dp247
g242
I1
sg243
F0.8066999912261963
sg244
F4.746354103088379
sg245
I5
sg246
I5
sa(dp248
g242
I3
sg243
F0.001074075698852539
sg244
F0.10775899887084961
sg245
I3
sg246
I3
sa(dp249
g242
I1
sg243
F0.2577691078186035
sg244
F0.013814210891723633
sg245
I2
sg246
I2
sasS'total_cqs'
p250
I7
ssI26
(dp251
S'iters'
p252
I9
sS'meta'
p253
(lp254
(dp255
S'objective'
p256
I51
sS'query_time'
p257
F24.87657904624939
sS'comp_time'
p258
F5.0182929039001465
sS'exec_cq'
p259
I13
sS'total_cq'
p260
I13
sa(dp261
g256
I43
sg257
F0.8104469776153564
sg258
F5.122182846069336
sg259
I11
sg260
I11
sa(dp262
g256
I29
sg257
F0.7989530563354492
sg258
F4.865179061889648
sg259
I9
sg260
I9
sa(dp263
g256
I19
sg257
F0.766848087310791
sg258
F4.954917907714844
sg259
I7
sg260
I7
sa(dp264
g256
I9
sg257
F0.0016460418701171875
sg258
F0.013204097747802734
sg259
I6
sg260
I6
sa(dp265
g256
I2
sg257
F0.0007908344268798828
sg258
F0.007334232330322266
sg259
I5
sg260
I5
sa(dp266
g256
I1
sg257
F0.0006058216094970703
sg258
F0.00545191764831543
sg259
I4
sg260
I4
sa(dp267
g256
I0
sg257
F0.0003020763397216797
sg258
F0.004384040832519531
sg259
I3
sg260
I3
sa(dp268
g256
I1
sg257
F0.00015807151794433594
sg258
F0.0018620491027832031
sg259
I2
sg260
I2
sasS'total_cqs'
p269
I13
ssI27
(dp270
S'iters'
p271
I1
sS'meta'
p272
(lp273
(dp274
S'objective'
p275
I1
sS'query_time'
p276
F0.14138507843017578
sS'comp_time'
p277
F0.009629011154174805
sS'exec_cq'
p278
I2
sS'total_cq'
p279
I2
sasS'total_cqs'
p280
I2
ssI28
(dp281
S'iters'
p282
I7
sS'meta'
p283
(lp284
(dp285
S'objective'
p286
I51
sS'query_time'
p287
F1.8385810852050781
sS'comp_time'
p288
F0.041452884674072266
sS'exec_cq'
p289
I14
sS'total_cq'
p290
I14
sa(dp291
g286
I34
sg287
F0.006185054779052734
sg288
F0.05875802040100098
sg289
I11
sg290
I11
sa(dp292
g286
I22
sg287
F0.0028259754180908203
sg288
F0.028560876846313477
sg289
I7
sg290
I7
sa(dp293
g286
I13
sg287
F0.0024878978729248047
sg288
F0.025263309478759766
sg289
I5
sg290
I5
sa(dp294
g286
I2
sg287
F0.002454042434692383
sg288
F0.02605891227722168
sg289
I4
sg290
I4
sa(dp295
g286
I4
sg287
F0.0024318695068359375
sg288
F0.02536797523498535
sg289
I3
sg290
I3
sa(dp296
g286
I3
sg287
F0.002413034439086914
sg288
F0.04788970947265625
sg289
I2
sg290
I2
sasS'total_cqs'
p297
I14
ssI29
(dp298
S'iters'
p299
I1
sS'meta'
p300
(lp301
(dp302
S'objective'
p303
I1
sS'query_time'
p304
F0.00433802604675293
sS'comp_time'
p305
F0.00014281272888183594
sS'exec_cq'
p306
I2
sS'total_cq'
p307
I2
sasS'total_cqs'
p308
I2
ssI30
(dp309
S'iters'
p310
I1
sS'meta'
p311
(lp312
(dp313
S'objective'
p314
I1
sS'query_time'
p315
F0.32954907417297363
sS'comp_time'
p316
F0.007709026336669922
sS'exec_cq'
p317
I2
sS'total_cq'
p318
I2
sasS'total_cqs'
p319
I2
ssI31
(dp320
S'iters'
p321
I3
sS'meta'
p322
(lp323
(dp324
S'objective'
p325
I19
sS'query_time'
p326
F6.329884052276611
sS'comp_time'
p327
F0.26045989990234375
sS'exec_cq'
p328
I9
sS'total_cq'
p329
I9
sa(dp330
g325
I5
sg326
F0.0071048736572265625
sg327
F0.07125711441040039
sg328
I3
sg329
I3
sa(dp331
g325
I2
sg326
F0.00562596321105957
sg327
F0.04448199272155762
sg328
I2
sg329
I2
sasS'total_cqs'
p332
I9
ssI32
(dp333
S'iters'
p334
I4
sS'meta'
p335
(lp336
(dp337
S'objective'
p338
I2
sS'query_time'
p339
F19.21232795715332
sS'comp_time'
p340
F4.801764965057373
sS'exec_cq'
p341
I7
sS'total_cq'
p342
I7
sa(dp343
g338
I1
sg339
F0.037980079650878906
sg340
F0.5504150390625
sg341
I4
sg342
I4
sa(dp344
g338
I1
sg339
F0.006206989288330078
sg340
F0.03198599815368652
sg341
I3
sg342
I3
sa(dp345
g338
I1
sg339
F0.002315998077392578
sg340
F0.021008968353271484
sg341
I2
sg342
I2
sasS'total_cqs'
p346
I7
ssI33
(dp347
S'iters'
p348
I1
sS'meta'
p349
(lp350
(dp351
S'objective'
p352
I1
sS'query_time'
p353
F0.03396010398864746
sS'comp_time'
p354
F0.0001709461212158203
sS'exec_cq'
p355
I2
sS'total_cq'
p356
I2
sasS'total_cqs'
p357
I2
ssI34
(dp358
S'iters'
p359
I0
sS'meta'
p360
(lp361
sS'total_cqs'
p362
I1
ssI35
(dp363
S'iters'
p364
I3
sS'meta'
p365
(lp366
(dp367
S'objective'
p368
I1
sS'query_time'
p369
F16.562834978103638
sS'comp_time'
p370
F0.465198278427124
sS'exec_cq'
p371
I5
sS'total_cq'
p372
I5
sa(dp373
g368
I2
sg369
F0.02672100067138672
sg370
F0.20812320709228516
sg371
I3
sg372
I3
sa(dp374
g368
I1
sg369
F0.0454411506652832
sg370
F0.09872984886169434
sg371
I2
sg372
I2
sasS'total_cqs'
p375
I5
ssI37
(dp376
S'iters'
p377
I3
sS'meta'
p378
(lp379
(dp380
S'objective'
p381
I23
sS'query_time'
p382
F2.627579927444458
sS'comp_time'
p383
F0.21179676055908203
sS'exec_cq'
p384
I10
sS'total_cq'
p385
I10
sa(dp386
g381
I4
sg382
F0.008134841918945312
sg383
F0.058998823165893555
sg384
I3
sg385
I3
sa(dp387
g381
I4
sg382
F0.0028600692749023438
sg383
F0.020061016082763672
sg384
I2
sg385
I2
sasS'total_cqs'
p388
I10
ssI38
(dp389
S'iters'
p390
I0
sS'meta'
p391
(lp392
sS'total_cqs'
p393
I1
ssI39
(dp394
S'iters'
p395
I0
sS'meta'
p396
(lp397
sS'total_cqs'
p398
I1
ssI40
(dp399
S'iters'
p400
I1
sS'meta'
p401
(lp402
(dp403
S'objective'
p404
I1
sS'query_time'
p405
F17.882642030715942
sS'comp_time'
p406
F4.405059814453125
sS'exec_cq'
p407
I2
sS'total_cq'
p408
I2
sasS'total_cqs'
p409
I2
ssI41
(dp410
S'iters'
p411
I3
sS'meta'
p412
(lp413
(dp414
S'objective'
p415
I1
sS'query_time'
p416
F12.282571077346802
sS'comp_time'
p417
F1.9881072044372559
sS'exec_cq'
p418
I6
sS'total_cq'
p419
I6
sa(dp420
g415
I0
sg416
F0.3052840232849121
sg417
F1.8663809299468994
sg418
I4
sg419
I4
sa(dp421
g415
I3
sg416
F0.0009291172027587891
sg417
F0.006740093231201172
sg418
I2
sg419
I2
sasS'total_cqs'
p422
I6
ssI42
(dp423
S'iters'
p424
I1
sS'meta'
p425
(lp426
(dp427
S'objective'
p428
I1
sS'query_time'
p429
F17.811145067214966
sS'comp_time'
p430
F5.132293224334717
sS'exec_cq'
p431
I2
sS'total_cq'
p432
I2
sasS'total_cqs'
p433
I2
ssI43
(dp434
S'iters'
p435
I0
sS'meta'
p436
(lp437
sS'total_cqs'
p438
I1
ssI44
(dp439
S'iters'
p440
I3
sS'meta'
p441
(lp442
(dp443
S'objective'
p444
I5
sS'query_time'
p445
F1.5431220531463623
sS'comp_time'
p446
F0.1467888355255127
sS'exec_cq'
p447
I5
sS'total_cq'
p448
I5
sa(dp449
g444
I0
sg445
F0.10668683052062988
sg446
F0.11768579483032227
sg447
I3
sg448
I3
sa(dp450
g444
I3
sg445
F0.01225590705871582
sg446
F0.12883305549621582
sg447
I2
sg448
I2
sasS'total_cqs'
p451
I5
ssI45
(dp452
S'iters'
p453
I2
sS'meta'
p454
(lp455
(dp456
S'objective'
p457
I9
sS'query_time'
p458
F0.05126309394836426
sS'comp_time'
p459
F0.0011551380157470703
sS'exec_cq'
p460
I5
sS'total_cq'
p461
I5
sa(dp462
g457
I1
sg458
F0.00013399124145507812
sg459
F0.0007541179656982422
sg460
I2
sg461
I2
sasS'total_cqs'
p463
I5
ssI46
(dp464
S'iters'
p465
I0
sS'meta'
p466
(lp467
sS'total_cqs'
p468
I1
ssI47
(dp469
S'iters'
p470
I0
sS'meta'
p471
(lp472
sS'total_cqs'
p473
I1
ssI48
(dp474
S'iters'
p475
I1
sS'meta'
p476
(lp477
(dp478
S'objective'
p479
I1
sS'query_time'
p480
F0.12544918060302734
sS'comp_time'
p481
F0.008472919464111328
sS'exec_cq'
p482
I2
sS'total_cq'
p483
I2
sasS'total_cqs'
p484
I2
ssI49
(dp485
S'iters'
p486
I3
sS'meta'
p487
(lp488
(dp489
S'objective'
p490
I1
sS'query_time'
p491
F0.22729992866516113
sS'comp_time'
p492
F0.007313966751098633
sS'exec_cq'
p493
I5
sS'total_cq'
p494
I5
sa(dp495
g490
I1
sg491
F0.0003151893615722656
sg492
F0.002435922622680664
sg493
I3
sg494
I3
sa(dp496
g490
I1
sg491
F0.0002491474151611328
sg492
F0.002389192581176758
sg493
I2
sg494
I2
sasS'total_cqs'
p497
I5
ssI50
(dp498
S'iters'
p499
I4
sS'meta'
p500
(lp501
(dp502
S'objective'
p503
I5
sS'query_time'
p504
F0.9255409240722656
sS'comp_time'
p505
F0.0022089481353759766
sS'exec_cq'
p506
I5
sS'total_cq'
p507
I5
sa(dp508
g503
I2
sg504
F0.00020813941955566406
sg505
F0.0052449703216552734
sg506
I4
sg507
I4
sa(dp509
g503
I0
sg504
F0.0001590251922607422
sg505
F0.0016047954559326172
sg506
I3
sg507
I3
sa(dp510
g503
I1
sg504
F0.0001430511474609375
sg505
F0.0018260478973388672
sg506
I2
sg507
I2
sasS'total_cqs'
p511
I5
ssI51
(dp512
S'iters'
p513
I0
sS'meta'
p514
(lp515
sS'total_cqs'
p516
I1
ssI52
(dp517
S'iters'
p518
I0
sS'meta'
p519
(lp520
sS'total_cqs'
p521
I1
ssI53
(dp522
S'iters'
p523
I0
sS'meta'
p524
(lp525
sS'total_cqs'
p526
I1
ssI55
(dp527
S'iters'
p528
I1
sS'meta'
p529
(lp530
(dp531
S'objective'
p532
I1
sS'query_time'
p533
F26.485817193984985
sS'comp_time'
p534
F0.09143495559692383
sS'exec_cq'
p535
I2
sS'total_cq'
p536
I2
sasS'total_cqs'
p537
I2
ssI56
(dp538
S'iters'
p539
I0
sS'meta'
p540
(lp541
sS'total_cqs'
p542
I1
ssI57
(dp543
S'iters'
p544
I2
sS'meta'
p545
(lp546
(dp547
S'objective'
p548
I2
sS'query_time'
p549
F14.255467891693115
sS'comp_time'
p550
F2.8099191188812256
sS'exec_cq'
p551
I3
sS'total_cq'
p552
I3
sa(dp553
g548
I2
sg549
F0.38067078590393066
sg550
F2.014909029006958
sg551
I2
sg552
I2
sasS'total_cqs'
p554
I3
ssI108
(dp555
S'iters'
p556
I0
sS'meta'
p557
(lp558
sS'total_cqs'
p559
I1
ssI109
(dp560
S'iters'
p561
I0
sS'meta'
p562
(lp563
sS'total_cqs'
p564
I1
ssI116
(dp565
S'iters'
p566
I4
sS'meta'
p567
(lp568
(dp569
S'objective'
p570
I191
sS'query_time'
p571
F5.609790802001953
sS'comp_time'
p572
F0.43251681327819824
sS'exec_cq'
p573
I21
sS'total_cq'
p574
I21
sa(dp575
g570
I183
sg571
F0.001828908920288086
sg572
F0.010653972625732422
sg573
I19
sg574
I19
sa(dp576
g570
I2
sg571
F0.0010409355163574219
sg572
F0.00834798812866211
sg573
I3
sg574
I3
sa(dp577
g570
I4
sg571
F0.0006990432739257812
sg572
F0.0048220157623291016
sg573
I2
sg574
I2
sasS'total_cqs'
p578
I21
ssI117
(dp579
S'iters'
p580
I2
sS'meta'
p581
(lp582
(dp583
S'objective'
p584
I5
sS'query_time'
p585
F0.007976055145263672
sS'comp_time'
p586
F0.00020003318786621094
sS'exec_cq'
p587
I5
sS'total_cq'
p588
I5
sa(dp589
g584
I8
sg585
F2.8848648071289062e-05
sg586
F7.724761962890625e-05
sg587
I4
sg588
I4
sasS'total_cqs'
p590
I5
ssI118
(dp591
S'iters'
p592
I0
sS'meta'
p593
(lp594
sS'total_cqs'
p595
I1
ssI122
(dp596
S'iters'
p597
I0
sS'meta'
p598
(lp599
sS'total_cqs'
p600
I1
ss.