(dp0
I1
(dp1
S'iters'
p2
I2
sS'meta'
p3
(lp4
(dp5
S'objective'
p6
I7
sS'query_time'
p7
F1.6536238193511963
sS'comp_time'
p8
F7.700920104980469e-05
sS'exec_cq'
p9
I1
sS'total_cq'
p10
I6
sa(dp11
g6
I5
sg7
F70.09152698516846
sg8
F2.7894973754882812e-05
sg9
I1
sg10
I2
sasS'total_cqs'
p12
I6
ssI2
(dp13
S'iters'
p14
I1
sS'meta'
p15
(lp16
(dp17
S'objective'
p18
I9
sS'query_time'
p19
F0.7293968200683594
sS'comp_time'
p20
F5.91278076171875e-05
sS'exec_cq'
p21
I1
sS'total_cq'
p22
I6
sasS'total_cqs'
p23
I6
ssI3
(dp24
S'iters'
p25
I7
sS'meta'
p26
(lp27
(dp28
S'objective'
p29
I477
sS'query_time'
p30
F0.6763629913330078
sS'comp_time'
p31
F8.893013000488281e-05
sS'exec_cq'
p32
I1
sS'total_cq'
p33
I33
sa(dp34
g29
I455
sg30
F0.0046579837799072266
sg31
F4.38690185546875e-05
sg32
I1
sg33
I30
sa(dp35
g29
I425
sg30
F0.10047507286071777
sg31
F6.29425048828125e-05
sg32
I1
sg33
I29
sa(dp36
g29
I366
sg30
F0.01857900619506836
sg31
F4.315376281738281e-05
sg32
I2
sg33
I28
sa(dp37
g29
I315
sg30
F0.01374197006225586
sg31
F5.1021575927734375e-05
sg32
I2
sg33
I26
sa(dp38
g29
I309
sg30
F52.5406539440155
sg31
F0.00011897087097167969
sg32
I2
sg33
I24
sa(dp39
g29
I284
sg30
F0.17504405975341797
sg31
F7.009506225585938e-05
sg32
I2
sg33
I23
sasS'total_cqs'
p40
I33
ssI4
(dp41
S'iters'
p42
I0
sS'meta'
p43
(lp44
sS'total_cqs'
p45
I1
ssI5
(dp46
S'iters'
p47
I0
sS'meta'
p48
(lp49
sS'total_cqs'
p50
I1
ssI6
(dp51
S'iters'
p52
I2
sS'meta'
p53
(lp54
(dp55
S'objective'
p56
I1
sS'query_time'
p57
F2.5077998638153076
sS'comp_time'
p58
F6.794929504394531e-05
sS'exec_cq'
p59
I1
sS'total_cq'
p60
I5
sa(dp61
g56
I3
sg57
F49.22273087501526
sg58
F6.103515625e-05
sg59
I1
sg60
I2
sasS'total_cqs'
p62
I5
ssI7
(dp63
S'iters'
p64
I0
sS'meta'
p65
(lp66
sS'total_cqs'
p67
I1
ssI8
(dp68
S'iters'
p69
I1
sS'meta'
p70
(lp71
(dp72
S'objective'
p73
I9
sS'query_time'
p74
F32.42841386795044
sS'comp_time'
p75
F0.0001399517059326172
sS'exec_cq'
p76
I1
sS'total_cq'
p77
I6
sasS'total_cqs'
p78
I6
ssI9
(dp79
S'iters'
p80
I2
sS'meta'
p81
(lp82
(dp83
S'objective'
p84
I1
sS'query_time'
p85
F4.295143127441406
sS'comp_time'
p86
F7.700920104980469e-05
sS'exec_cq'
p87
I1
sS'total_cq'
p88
I6
sa(dp89
g84
I2
sg85
F0.006031036376953125
sg86
F4.601478576660156e-05
sg87
I1
sg88
I2
sasS'total_cqs'
p90
I6
ssI10
(dp91
S'iters'
p92
I0
sS'meta'
p93
(lp94
sS'total_cqs'
p95
I1
ssI11
(dp96
S'iters'
p97
I0
sS'meta'
p98
(lp99
sS'total_cqs'
p100
I1
ssI12
(dp101
S'iters'
p102
I0
sS'meta'
p103
(lp104
sS'total_cqs'
p105
I1
ssI13
(dp106
S'iters'
p107
I1
sS'meta'
p108
(lp109
(dp110
S'objective'
p111
I22
sS'query_time'
p112
F0.2691068649291992
sS'comp_time'
p113
F4.696846008300781e-05
sS'exec_cq'
p114
I2
sS'total_cq'
p115
I8
sasS'total_cqs'
p116
I8
ssI14
(dp117
S'iters'
p118
I1
sS'meta'
p119
(lp120
(dp121
S'objective'
p122
I5
sS'query_time'
p123
F0.8899319171905518
sS'comp_time'
p124
F7.700920104980469e-05
sS'exec_cq'
p125
I1
sS'total_cq'
p126
I5
sasS'total_cqs'
p127
I5
ssI16
(dp128
S'iters'
p129
I2
sS'meta'
p130
(lp131
(dp132
S'objective'
p133
I3
sS'query_time'
p134
F1.5239341259002686
sS'comp_time'
p135
F7.510185241699219e-05
sS'exec_cq'
p136
I1
sS'total_cq'
p137
I5
sa(dp138
g133
I1
sg134
F104.44523191452026
sg135
F6.29425048828125e-05
sg136
I2
sg137
I2
sasS'total_cqs'
p139
I5
ssI17
(dp140
S'iters'
p141
I0
sS'meta'
p142
(lp143
sS'total_cqs'
p144
I1
ssI18
(dp145
S'iters'
p146
I2
sS'meta'
p147
(lp148
(dp149
S'objective'
p150
I3
sS'query_time'
p151
F0.38168811798095703
sS'comp_time'
p152
F6.699562072753906e-05
sS'exec_cq'
p153
I1
sS'total_cq'
p154
I5
sa(dp155
g150
I4
sg151
F0.2921910285949707
sg152
F9.298324584960938e-05
sg153
I2
sg154
I2
sasS'total_cqs'
p156
I5
ssI19
(dp157
S'iters'
p158
I0
sS'meta'
p159
(lp160
sS'total_cqs'
p161
I1
ssI20
(dp162
S'iters'
p163
I2
sS'meta'
p164
(lp165
(dp166
S'objective'
p167
I54
sS'query_time'
p168
F5.374403953552246
sS'comp_time'
p169
F9.298324584960938e-05
sS'exec_cq'
p170
I1
sS'total_cq'
p171
I12
sa(dp172
g167
I46
sg168
F0.11140799522399902
sg169
F8.296966552734375e-05
sg170
I2
sg171
I11
sasS'total_cqs'
p173
I12
ssI21
(dp174
S'iters'
p175
I3
sS'meta'
p176
(lp177
(dp178
S'objective'
p179
I57
sS'query_time'
p180
F3.5819618701934814
sS'comp_time'
p181
F9.012222290039062e-05
sS'exec_cq'
p182
I1
sS'total_cq'
p183
I14
sa(dp184
g179
I55
sg180
F26.03380298614502
sg181
F0.0002598762512207031
sg182
I1
sg183
I12
sa(dp185
g179
I44
sg180
F0.021152973175048828
sg181
F6.008148193359375e-05
sg182
I1
sg183
I11
sasS'total_cqs'
p186
I14
ssI22
(dp187
S'iters'
p188
I1
sS'meta'
p189
(lp190
(dp191
S'objective'
p192
I1
sS'query_time'
p193
F0.004271030426025391
sS'comp_time'
p194
F4.100799560546875e-05
sS'exec_cq'
p195
I1
sS'total_cq'
p196
I2
sasS'total_cqs'
p197
I2
ssI23
(dp198
S'iters'
p199
I0
sS'meta'
p200
(lp201
sS'total_cqs'
p202
I1
ssI24
(dp203
S'iters'
p204
I0
sS'meta'
p205
(lp206
sS'total_cqs'
p207
I1
ssI25
(dp208
S'iters'
p209
I1
sS'meta'
p210
(lp211
(dp212
S'objective'
p213
I14
sS'query_time'
p214
F0.3669300079345703
sS'comp_time'
p215
F6.914138793945312e-05
sS'exec_cq'
p216
I1
sS'total_cq'
p217
I7
sasS'total_cqs'
p218
I7
ssI26
(dp219
S'iters'
p220
I3
sS'meta'
p221
(lp222
(dp223
S'objective'
p224
I47
sS'query_time'
p225
F1.8244678974151611
sS'comp_time'
p226
F5.1021575927734375e-05
sS'exec_cq'
p227
I1
sS'total_cq'
p228
I13
sa(dp229
g224
I45
sg225
F5.304995059967041
sg226
F8.296966552734375e-05
sg227
I1
sg228
I11
sa(dp230
g224
I35
sg225
F0.009006977081298828
sg226
F6.794929504394531e-05
sg227
I1
sg228
I10
sasS'total_cqs'
p231
I13
ssI27
(dp232
S'iters'
p233
I1
sS'meta'
p234
(lp235
(dp236
S'objective'
p237
I1
sS'query_time'
p238
F0.34967899322509766
sS'comp_time'
p239
F6.29425048828125e-05
sS'exec_cq'
p240
I1
sS'total_cq'
p241
I2
sasS'total_cqs'
p242
I2
ssI28
(dp243
S'iters'
p244
I3
sS'meta'
p245
(lp246
(dp247
S'objective'
p248
I77
sS'query_time'
p249
F1.203847885131836
sS'comp_time'
p250
F7.796287536621094e-05
sS'exec_cq'
p251
I1
sS'total_cq'
p252
I14
sa(dp253
g248
I21
sg249
F1.1769130229949951
sg250
F8.392333984375e-05
sg251
I1
sg252
I13
sa(dp254
g248
I32
sg249
F0.5893020629882812
sg250
F4.291534423828125e-05
sg251
I1
sg252
I8
sasS'total_cqs'
p255
I14
ssI29
(dp256
S'iters'
p257
I1
sS'meta'
p258
(lp259
(dp260
S'objective'
p261
I1
sS'query_time'
p262
F0.0046880245208740234
sS'comp_time'
p263
F4.792213439941406e-05
sS'exec_cq'
p264
I1
sS'total_cq'
p265
I2
sasS'total_cqs'
p266
I2
ssI30
(dp267
S'iters'
p268
I1
sS'meta'
p269
(lp270
(dp271
S'objective'
p272
I1
sS'query_time'
p273
F0.3763110637664795
sS'comp_time'
p274
F5.4836273193359375e-05
sS'exec_cq'
p275
I1
sS'total_cq'
p276
I2
sasS'total_cqs'
p277
I2
ssI31
(dp278
S'iters'
p279
I3
sS'meta'
p280
(lp281
(dp282
S'objective'
p283
I27
sS'query_time'
p284
F0.011237144470214844
sS'comp_time'
p285
F5.507469177246094e-05
sS'exec_cq'
p286
I1
sS'total_cq'
p287
I9
sa(dp288
g283
I8
sg284
F0.5158708095550537
sg285
F6.604194641113281e-05
sg286
I1
sg287
I8
sa(dp289
g283
I2
sg284
F0.10851287841796875
sg285
F3.2901763916015625e-05
sg286
I1
sg287
I2
sasS'total_cqs'
p290
I9
ssI32
(dp291
S'iters'
p292
I1
sS'meta'
p293
(lp294
(dp295
S'objective'
p296
I14
sS'query_time'
p297
F0.19243693351745605
sS'comp_time'
p298
F7.104873657226562e-05
sS'exec_cq'
p299
I1
sS'total_cq'
p300
I7
sasS'total_cqs'
p301
I7
ssI33
(dp302
S'iters'
p303
I1
sS'meta'
p304
(lp305
(dp306
S'objective'
p307
I1
sS'query_time'
p308
F0.029748916625976562
sS'comp_time'
p309
F6.4849853515625e-05
sS'exec_cq'
p310
I1
sS'total_cq'
p311
I2
sasS'total_cqs'
p312
I2
ssI34
(dp313
S'iters'
p314
I0
sS'meta'
p315
(lp316
sS'total_cqs'
p317
I1
ssI35
(dp318
S'iters'
p319
I1
sS'meta'
p320
(lp321
(dp322
S'objective'
p323
I5
sS'query_time'
p324
F0.29335713386535645
sS'comp_time'
p325
F5.888938903808594e-05
sS'exec_cq'
p326
I1
sS'total_cq'
p327
I5
sasS'total_cqs'
p328
I5
ssI37
(dp329
S'iters'
p330
I2
sS'meta'
p331
(lp332
(dp333
S'objective'
p334
I35
sS'query_time'
p335
F0.010065793991088867
sS'comp_time'
p336
F3.910064697265625e-05
sS'exec_cq'
p337
I1
sS'total_cq'
p338
I10
sa(dp339
g334
I27
sg335
F0.37558913230895996
sg336
F7.414817810058594e-05
sg337
I1
sg338
I9
sasS'total_cqs'
p340
I10
ssI38
(dp341
S'iters'
p342
I0
sS'meta'
p343
(lp344
sS'total_cqs'
p345
I1
ssI39
(dp346
S'iters'
p347
I0
sS'meta'
p348
(lp349
sS'total_cqs'
p350
I1
ssI40
(dp351
S'iters'
p352
I1
sS'meta'
p353
(lp354
(dp355
S'objective'
p356
I1
sS'query_time'
p357
F16.72707486152649
sS'comp_time'
p358
F0.0001690387725830078
sS'exec_cq'
p359
I2
sS'total_cq'
p360
I2
sasS'total_cqs'
p361
I2
ssI41
(dp362
S'iters'
p363
I2
sS'meta'
p364
(lp365
(dp366
S'objective'
p367
I1
sS'query_time'
p368
F7.102781057357788
sS'comp_time'
p369
F6.794929504394531e-05
sS'exec_cq'
p370
I1
sS'total_cq'
p371
I6
sa(dp372
g367
I2
sg368
F73.83551907539368
sg369
F6.794929504394531e-05
sg370
I2
sg371
I2
sasS'total_cqs'
p373
I6
ssI42
(dp374
S'iters'
p375
I1
sS'meta'
p376
(lp377
(dp378
S'objective'
p379
I1
sS'query_time'
p380
F0.012552022933959961
sS'comp_time'
p381
F6.508827209472656e-05
sS'exec_cq'
p382
I1
sS'total_cq'
p383
I2
sasS'total_cqs'
p384
I2
ssI43
(dp385
S'iters'
p386
I0
sS'meta'
p387
(lp388
sS'total_cqs'
p389
I1
ssI44
(dp390
S'iters'
p391
I1
sS'meta'
p392
(lp393
(dp394
S'objective'
p395
I5
sS'query_time'
p396
F0.008793830871582031
sS'comp_time'
p397
F6.008148193359375e-05
sS'exec_cq'
p398
I1
sS'total_cq'
p399
I5
sasS'total_cqs'
p400
I5
ssI45
(dp401
S'iters'
p402
I2
sS'meta'
p403
(lp404
(dp405
S'objective'
p406
I1
sS'query_time'
p407
F0.0449678897857666
sS'comp_time'
p408
F5.793571472167969e-05
sS'exec_cq'
p409
I1
sS'total_cq'
p410
I5
sa(dp411
g406
I3
sg407
F0.5906260013580322
sg408
F3.886222839355469e-05
sg409
I2
sg410
I2
sasS'total_cqs'
p412
I5
ssI46
(dp413
S'iters'
p414
I0
sS'meta'
p415
(lp416
sS'total_cqs'
p417
I1
ssI47
(dp418
S'iters'
p419
I0
sS'meta'
p420
(lp421
sS'total_cqs'
p422
I1
ssI48
(dp423
S'iters'
p424
I1
sS'meta'
p425
(lp426
(dp427
S'objective'
p428
I1
sS'query_time'
p429
F0.1318209171295166
sS'comp_time'
p430
F7.295608520507812e-05
sS'exec_cq'
p431
I1
sS'total_cq'
p432
I2
sasS'total_cqs'
p433
I2
ssI49
(dp434
S'iters'
p435
I1
sS'meta'
p436
(lp437
(dp438
S'objective'
p439
I5
sS'query_time'
p440
F0.1529979705810547
sS'comp_time'
p441
F7.104873657226562e-05
sS'exec_cq'
p442
I1
sS'total_cq'
p443
I5
sasS'total_cqs'
p444
I5
ssI50
(dp445
S'iters'
p446
I1
sS'meta'
p447
(lp448
(dp449
S'objective'
p450
I5
sS'query_time'
p451
F0.7233860492706299
sS'comp_time'
p452
F7.081031799316406e-05
sS'exec_cq'
p453
I1
sS'total_cq'
p454
I5
sasS'total_cqs'
p455
I5
ssI51
(dp456
S'iters'
p457
I0
sS'meta'
p458
(lp459
sS'total_cqs'
p460
I1
ssI52
(dp461
S'iters'
p462
I0
sS'meta'
p463
(lp464
sS'total_cqs'
p465
I1
ssI53
(dp466
S'iters'
p467
I0
sS'meta'
p468
(lp469
sS'total_cqs'
p470
I1
ssI55
(dp471
S'iters'
p472
I1
sS'meta'
p473
(lp474
(dp475
S'objective'
p476
I1
sS'query_time'
p477
F16.06281590461731
sS'comp_time'
p478
F5.793571472167969e-05
sS'exec_cq'
p479
I1
sS'total_cq'
p480
I2
sasS'total_cqs'
p481
I2
ssI56
(dp482
S'iters'
p483
I0
sS'meta'
p484
(lp485
sS'total_cqs'
p486
I1
ssI57
(dp487
S'iters'
p488
I2
sS'meta'
p489
(lp490
(dp491
S'objective'
p492
I0
sS'query_time'
p493
F2.4653971195220947
sS'comp_time'
p494
F0.0012888908386230469
sS'exec_cq'
p495
I1
sS'total_cq'
p496
I3
sa(dp497
g492
I1
sg493
F11.045987129211426
sg494
F9.799003601074219e-05
sg495
I1
sg496
I2
sasS'total_cqs'
p498
I3
ssI108
(dp499
S'iters'
p500
I0
sS'meta'
p501
(lp502
sS'total_cqs'
p503
I1
ssI109
(dp504
S'iters'
p505
I0
sS'meta'
p506
(lp507
sS'total_cqs'
p508
I1
ssI116
(dp509
S'iters'
p510
I2
sS'meta'
p511
(lp512
(dp513
S'objective'
p514
I187
sS'query_time'
p515
F2.6024680137634277
sS'comp_time'
p516
F6.699562072753906e-05
sS'exec_cq'
p517
I5
sS'total_cq'
p518
I21
sa(dp519
g514
I12
sg515
F0.22627592086791992
sg516
F3.0994415283203125e-05
sg517
I1
sg518
I2
sasS'total_cqs'
p520
I21
ssI117
(dp521
S'iters'
p522
I1
sS'meta'
p523
(lp524
(dp525
S'objective'
p526
I5
sS'query_time'
p527
F0.004806041717529297
sS'comp_time'
p528
F4.1961669921875e-05
sS'exec_cq'
p529
I1
sS'total_cq'
p530
I5
sasS'total_cqs'
p531
I5
ssI118
(dp532
S'iters'
p533
I0
sS'meta'
p534
(lp535
sS'total_cqs'
p536
I1
ssI122
(dp537
S'iters'
p538
I0
sS'meta'
p539
(lp540
sS'total_cqs'
p541
I1
ss.