(dp0
I1
(dp1
S'iters'
p2
I3
sS'meta'
p3
(lp4
(dp5
S'objective'
p6
I2
sS'query_time'
p7
F40.523618936538696
sS'total_cq'
p8
I6
sS'comp_time'
p9
F0.6051297187805176
sa(dp10
g6
I0
sg7
F0.20920801162719727
sg8
I4
sg9
F0.24172019958496094
sa(dp11
g6
I0
sg7
F0.016570091247558594
sg8
I2
sg9
F0.009997844696044922
sasS'total_cqs'
p12
I6
ssI2
(dp13
g2
I1
sg3
(lp14
(dp15
g6
I4
sg7
F0.7534608840942383
sg8
I6
sg9
F0.03977084159851074
sasg12
I6
ssI3
(dp16
g2
I15
sg3
(lp17
(dp18
g6
I27
sg7
F16.82419991493225
sg8
I33
sg9
F0.25702714920043945
sa(dp19
g6
I24
sg7
F0.09064698219299316
sg8
I30
sg9
F0.05458498001098633
sa(dp20
g6
I21
sg7
F0.0848391056060791
sg8
I27
sg9
F0.06045079231262207
sa(dp21
g6
I18
sg7
F0.08408689498901367
sg8
I24
sg9
F0.03910207748413086
sa(dp22
g6
I15
sg7
F0.02874588966369629
sg8
I21
sg9
F0.11179089546203613
sa(dp23
g6
I12
sg7
F0.01298379898071289
sg8
I18
sg9
F0.019945144653320312
sa(dp24
g6
I9
sg7
F0.06630992889404297
sg8
I15
sg9
F0.014034271240234375
sa(dp25
g6
I8
sg7
F0.012997865676879883
sg8
I12
sg9
F0.016492366790771484
sa(dp26
g6
I8
sg7
F0.012544870376586914
sg8
I10
sg9
F0.016940832138061523
sa(dp27
g6
I7
sg7
F0.013130903244018555
sg8
I9
sg9
F0.07094621658325195
sa(dp28
g6
I6
sg7
F0.008392095565795898
sg8
I8
sg9
F0.014380693435668945
sa(dp29
g6
I5
sg7
F0.006514072418212891
sg8
I7
sg9
F0.0067059993743896484
sa(dp30
g6
I4
sg7
F0.006992816925048828
sg8
I6
sg9
F0.007938385009765625
sa(dp31
g6
I3
sg7
F0.00591278076171875
sg8
I5
sg9
F0.006928920745849609
sa(dp32
g6
I2
sg7
F0.004540920257568359
sg8
I4
sg9
F0.006276130676269531
sasg12
I33
ssI4
(dp33
g2
I0
sg3
(lp34
sg12
I1
ssI5
(dp35
g2
I0
sg3
(lp36
sg12
I1
ssI6
(dp37
g2
I2
sg3
(lp38
(dp39
g6
I1
sg7
F8.8419029712677
sg8
I5
sg9
F0.0033788681030273438
sa(dp40
g6
I0
sg7
F0.0011489391326904297
sg8
I2
sg9
F0.0006921291351318359
sasg12
I5
ssI7
(dp41
g2
I0
sg3
(lp42
sg12
I1
ssI8
(dp43
g2
I3
sg3
(lp44
(dp45
g6
I4
sg7
F103.19019222259521
sg8
I6
sg9
F0.19249320030212402
sa(dp46
g6
I3
sg7
F0.0401148796081543
sg8
I5
sg9
F0.1885514259338379
sa(dp47
g6
I2
sg7
F0.032851219177246094
sg8
I4
sg9
F0.12878108024597168
sasg12
I6
ssI9
(dp48
g2
I3
sg3
(lp49
(dp50
g6
I0
sg7
F6.632649183273315
sg8
I6
sg9
F0.04867672920227051
sa(dp51
g6
I1
sg7
F0.06646490097045898
sg8
I3
sg9
F0.15233325958251953
sa(dp52
g6
I0
sg7
F0.016766071319580078
sg8
I2
sg9
F0.018463611602783203
sasg12
I6
ssI10
(dp53
g2
I0
sg3
(lp54
sg12
I1
ssI11
(dp55
g2
I0
sg3
(lp56
sg12
I1
ssI12
(dp57
g2
I0
sg3
(lp58
sg12
I1
ssI13
(dp59
g2
I1
sg3
(lp60
(dp61
g6
I6
sg7
F0.019556045532226562
sg8
I8
sg9
F0.0033249855041503906
sasg12
I8
ssI14
(dp62
g2
I1
sg3
(lp63
(dp64
g6
I3
sg7
F0.4653511047363281
sg8
I5
sg9
F0.003671884536743164
sasg12
I5
ssI16
(dp65
g2
I3
sg3
(lp66
(dp67
g6
I1
sg7
F0.6169681549072266
sg8
I5
sg9
F0.006222963333129883
sa(dp68
g6
I1
sg7
F0.03206205368041992
sg8
I3
sg9
F0.00011277198791503906
sa(dp69
g6
I0
sg7
F0.0012400150299072266
sg8
I2
sg9
F0.00015687942504882812
sasg12
I5
ssI17
(dp70
g2
I0
sg3
(lp71
sg12
I1
ssI18
(dp72
g2
I3
sg3
(lp73
(dp74
g6
I1
sg7
F0.11497306823730469
sg8
I5
sg9
F0.0024251937866210938
sa(dp75
g6
I1
sg7
F0.03192400932312012
sg8
I3
sg9
F8.296966552734375e-05
sa(dp76
g6
I0
sg7
F0.0014481544494628906
sg8
I2
sg9
F0.00011515617370605469
sasg12
I5
ssI19
(dp77
g2
I0
sg3
(lp78
sg12
I1
ssI20
(dp79
g2
I5
sg3
(lp80
(dp81
g6
I8
sg7
F9.635017156600952
sg8
I12
sg9
F0.8569810390472412
sa(dp82
g6
I6
sg7
F0.28133606910705566
sg8
I10
sg9
F0.47976016998291016
sa(dp83
g6
I4
sg7
F0.11925315856933594
sg8
I8
sg9
F0.3888568878173828
sa(dp84
g6
I4
sg7
F0.13523006439208984
sg8
I6
sg9
F0.33010268211364746
sa(dp85
g6
I3
sg7
F0.2984778881072998
sg8
I5
sg9
F0.4232308864593506
sasg12
I12
ssI21
(dp86
g2
I4
sg3
(lp87
(dp88
g6
I8
sg7
F133.38172388076782
sg8
I14
sg9
F11.326418161392212
sa(dp89
g6
I5
sg7
F2.0369820594787598
sg8
I11
sg9
F6.1754162311553955
sa(dp90
g6
I4
sg7
F2.8582050800323486
sg8
I8
sg9
F4.435925245285034
sa(dp91
g6
I4
sg7
F0.048406124114990234
sg8
I6
sg9
F0.02345108985900879
sasg12
I14
ssI22
(dp92
g2
I1
sg3
(lp93
(dp94
g6
I0
sg7
F0.003484010696411133
sg8
I2
sg9
F0.00041413307189941406
sasg12
I2
ssI23
(dp95
g2
I0
sg3
(lp96
sg12
I1
ssI24
(dp97
g2
I0
sg3
(lp98
sg12
I1
ssI25
(dp99
g2
I3
sg3
(lp100
(dp101
g6
I3
sg7
F84.02168202400208
sg8
I7
sg9
F5.846114635467529
sa(dp102
g6
I1
sg7
F2.2620198726654053
sg8
I5
sg9
F6.185747146606445
sa(dp103
g6
I1
sg7
F2.437782049179077
sg8
I3
sg9
F4.142592906951904
sasg12
I7
ssI26
(dp104
g2
I8
sg3
(lp105
(dp106
g6
I9
sg7
F17.860455989837646
sg8
I13
sg9
F2.3468899726867676
sa(dp107
g6
I7
sg7
F3.9677398204803467
sg8
I11
sg9
F1.807569980621338
sa(dp108
g6
I5
sg7
F0.8678848743438721
sg8
I9
sg9
F1.8755159378051758
sa(dp109
g6
I5
sg7
F1.0815339088439941
sg8
I7
sg9
F2.4584219455718994
sa(dp110
g6
I4
sg7
F1.0511202812194824
sg8
I6
sg9
F2.4645607471466064
sa(dp111
g6
I3
sg7
F0.9134759902954102
sg8
I5
sg9
F1.911383867263794
sa(dp112
g6
I2
sg7
F0.9808361530303955
sg8
I4
sg9
F1.8736770153045654
sa(dp113
g6
I1
sg7
F0.935905933380127
sg8
I3
sg9
F1.9225711822509766
sasg12
I13
ssI27
(dp114
g2
I1
sg3
(lp115
(dp116
g6
I0
sg7
F0.11444401741027832
sg8
I2
sg9
F0.0011153221130371094
sasg12
I2
ssI28
(dp117
g2
I3
sg3
(lp118
(dp119
g6
I8
sg7
F0.867401123046875
sg8
I14
sg9
F0.015272140502929688
sa(dp120
g6
I7
sg7
F0.007203102111816406
sg8
I11
sg9
F0.005228757858276367
sa(dp121
g6
I7
sg7
F0.0037310123443603516
sg8
I9
sg9
F0.00010800361633300781
sasg12
I14
ssI29
(dp122
g2
I1
sg3
(lp123
(dp124
g6
I0
sg7
F0.007650136947631836
sg8
I2
sg9
F0.0006921291351318359
sasg12
I2
ssI30
(dp125
g2
I1
sg3
(lp126
(dp127
g6
I0
sg7
F0.16445612907409668
sg8
I2
sg9
F0.0014920234680175781
sasg12
I2
ssI31
(dp128
g2
I3
sg3
(lp129
(dp130
g6
I3
sg7
F3.240679979324341
sg8
I9
sg9
F0.06446099281311035
sa(dp131
g6
I1
sg7
F0.11852908134460449
sg8
I3
sg9
F0.012288093566894531
sa(dp132
g6
I0
sg7
F0.00908517837524414
sg8
I2
sg9
F0.009645938873291016
sasg12
I9
ssI32
(dp133
g2
I3
sg3
(lp134
(dp135
g6
I1
sg7
F15.559396982192993
sg8
I7
sg9
F1.8637628555297852
sa(dp136
g6
I0
sg7
F0.8668971061706543
sg8
I4
sg9
F0.004415988922119141
sa(dp137
g6
I0
sg7
F0.2806830406188965
sg8
I2
sg9
F0.23238015174865723
sasg12
I7
ssI33
(dp138
g2
I1
sg3
(lp139
(dp140
g6
I0
sg7
F0.032412052154541016
sg8
I2
sg9
F0.0005970001220703125
sasg12
I2
ssI34
(dp141
g2
I0
sg3
(lp142
sg12
I1
ssI35
(dp143
g2
I2
sg3
(lp144
(dp145
g6
I1
sg7
F10.818403005599976
sg8
I5
sg9
F0.18395018577575684
sa(dp146
g6
I0
sg7
F0.02690410614013672
sg8
I2
sg9
F0.02396535873413086
sasg12
I5
ssI37
(dp147
g2
I2
sg3
(lp148
(dp149
g6
I6
sg7
F1.2832322120666504
sg8
I10
sg9
F0.08457541465759277
sa(dp150
g6
I0
sg7
F0.004121065139770508
sg8
I2
sg9
F0.004213094711303711
sasg12
I10
ssI38
(dp151
g2
I0
sg3
(lp152
sg12
I1
ssI39
(dp153
g2
I0
sg3
(lp154
sg12
I1
ssI40
(dp155
g2
I1
sg3
(lp156
(dp157
g6
I0
sg7
F0.003615856170654297
sg8
I2
sg9
F0.0004360675811767578
sasg12
I2
ssI41
(dp158
g2
I2
sg3
(lp159
(dp160
g6
I2
sg7
F9.181185960769653
sg8
I6
sg9
F0.5292720794677734
sa(dp161
g6
I0
sg7
F0.0014650821685791016
sg8
I2
sg9
F0.0010371208190917969
sasg12
I6
ssI42
(dp162
g2
I1
sg3
(lp163
(dp164
g6
I0
sg7
F0.007944107055664062
sg8
I2
sg9
F0.0004849433898925781
sasg12
I2
ssI43
(dp165
g2
I0
sg3
(lp166
sg12
I1
ssI44
(dp167
g2
I2
sg3
(lp168
(dp169
g6
I1
sg7
F1.1758790016174316
sg8
I5
sg9
F0.028921127319335938
sa(dp170
g6
I1
sg7
F0.037358760833740234
sg8
I3
sg9
F0.1338798999786377
sasg12
I5
ssI45
(dp171
g2
I2
sg3
(lp172
(dp173
g6
I1
sg7
F0.06450104713439941
sg8
I5
sg9
F0.003034353256225586
sa(dp174
g6
I0
sg7
F0.00203704833984375
sg8
I2
sg9
F0.0004119873046875
sasg12
I5
ssI46
(dp175
g2
I0
sg3
(lp176
sg12
I1
ssI47
(dp177
g2
I0
sg3
(lp178
sg12
I1
ssI48
(dp179
g2
I1
sg3
(lp180
(dp181
g6
I0
sg7
F0.0641779899597168
sg8
I2
sg9
F0.00156402587890625
sasg12
I2
ssI49
(dp182
g2
I3
sg3
(lp183
(dp184
g6
I1
sg7
F0.16478300094604492
sg8
I5
sg9
F0.003802776336669922
sa(dp185
g6
I1
sg7
F0.06577801704406738
sg8
I3
sg9
F0.0003387928009033203
sa(dp186
g6
I0
sg7
F0.0013148784637451172
sg8
I2
sg9
F9.894371032714844e-05
sasg12
I5
ssI50
(dp187
g2
I1
sg3
(lp188
(dp189
g6
I3
sg7
F0.36511993408203125
sg8
I5
sg9
F0.0013473033905029297
sasg12
I5
ssI51
(dp190
g2
I0
sg3
(lp191
sg12
I1
ssI52
(dp192
g2
I0
sg3
(lp193
sg12
I1
ssI53
(dp194
g2
I0
sg3
(lp195
sg12
I1
ssI55
(dp196
g2
I1
sg3
(lp197
(dp198
g6
I0
sg7
F22.82362389564514
sg8
I2
sg9
F0.013643980026245117
sasg12
I2
ssI56
(dp199
g2
I0
sg3
(lp200
sg12
I1
ssI57
(dp201
g2
I2
sg3
(lp202
(dp203
g6
I1
sg7
F11.958404064178467
sg8
I3
sg9
F1.223259449005127
sa(dp204
g6
I0
sg7
F0.3583340644836426
sg8
I2
sg9
F0.2574951648712158
sasg12
I3
ssI108
(dp205
g2
I0
sg3
(lp206
sg12
I1
ssI109
(dp207
g2
I0
sg3
(lp208
sg12
I1
ssI116
(dp209
g2
I2
sg3
(lp210
(dp211
g6
I17
sg7
F3.632977247238159
sg8
I21
sg9
F0.19592905044555664
sa(dp212
g6
I0
sg7
F0.0023391246795654297
sg8
I2
sg9
F0.0010230541229248047
sasg12
I21
ssI117
(dp213
g2
I1
sg3
(lp214
(dp215
g6
I3
sg7
F0.014707803726196289
sg8
I5
sg9
F0.001544952392578125
sasg12
I5
ssI118
(dp216
g2
I0
sg3
(lp217
sg12
I1
ssI122
(dp218
g2
I0
sg3
(lp219
sg12
I1
ss.