(dp0
I1
(dp1
S'iters'
p2
I2
sS'meta'
p3
(lp4
(dp5
S'objective'
p6
I1
sS'query_time'
p7
F4.9972450733184814
sS'comp_time'
p8
F0.0001201629638671875
sS'exec_cq'
p9
I1
sS'total_cq'
p10
I6
sa(dp11
g6
I1
sg7
F692.3732030391693
sg8
F0.0011219978332519531
sg9
I1
sg10
I2
sasS'total_cqs'
p12
I6
ssI2
(dp13
S'iters'
p14
I1
sS'meta'
p15
(lp16
(dp17
S'objective'
p18
I9
sS'query_time'
p19
F0.6970810890197754
sS'comp_time'
p20
F7.605552673339844e-05
sS'exec_cq'
p21
I1
sS'total_cq'
p22
I6
sasS'total_cqs'
p23
I6
ssI3
(dp24
S'iters'
p25
I1
sS'meta'
p26
(lp27
(dp28
S'objective'
p29
I495
sS'query_time'
p30
F0.22704315185546875
sS'comp_time'
p31
F0.00011396408081054688
sS'exec_cq'
p32
I1
sS'total_cq'
p33
I33
sasS'total_cqs'
p34
I33
ssI6
(dp35
S'iters'
p36
I3
sS'meta'
p37
(lp38
(dp39
S'objective'
p40
I7
sS'query_time'
p41
F1.7454850673675537
sS'comp_time'
p42
F0.00015306472778320312
sS'exec_cq'
p43
I1
sS'total_cq'
p44
I5
sa(dp45
g40
I7
sg41
F7.274298906326294
sg42
F0.00015401840209960938
sg43
I1
sg44
I3
sa(dp46
g40
I1
sg41
F4.373064994812012
sg42
F8.320808410644531e-05
sg43
I2
sg44
I2
sasS'total_cqs'
p47
I5
ssI8
(dp48
S'iters'
p49
I2
sS'meta'
p50
(lp51
(dp52
S'objective'
p53
I19
sS'query_time'
p54
F42.79254603385925
sS'comp_time'
p55
F0.0002601146697998047
sS'exec_cq'
p56
I3
sS'total_cq'
p57
I6
sa(dp58
g53
I8
sg54
F0.11496496200561523
sg55
F9.989738464355469e-05
sg56
I2
sg57
I5
sasS'total_cqs'
p59
I6
ssI9
(dp60
S'iters'
p61
I1
sS'meta'
p62
(lp63
(dp64
S'objective'
p65
I9
sS'query_time'
p66
F4.830495119094849
sS'comp_time'
p67
F7.605552673339844e-05
sS'exec_cq'
p68
I1
sS'total_cq'
p69
I6
sasS'total_cqs'
p70
I6
ssI13
(dp71
S'iters'
p72
I1
sS'meta'
p73
(lp74
(dp75
S'objective'
p76
I20
sS'query_time'
p77
F0.2253098487854004
sS'comp_time'
p78
F7.82012939453125e-05
sS'exec_cq'
p79
I1
sS'total_cq'
p80
I8
sasS'total_cqs'
p81
I8
ssI14
(dp82
S'iters'
p83
I1
sS'meta'
p84
(lp85
(dp86
S'objective'
p87
I5
sS'query_time'
p88
F0.9722168445587158
sS'comp_time'
p89
F7.390975952148438e-05
sS'exec_cq'
p90
I1
sS'total_cq'
p91
I5
sasS'total_cqs'
p92
I5
ssI16
(dp93
S'iters'
p94
I2
sS'meta'
p95
(lp96
(dp97
S'objective'
p98
I1
sS'query_time'
p99
F3.1457769870758057
sS'comp_time'
p100
F0.00012612342834472656
sS'exec_cq'
p101
I1
sS'total_cq'
p102
I5
sa(dp103
g98
I3
sg99
F105.806391954422
sg100
F9.322166442871094e-05
sg101
I2
sg102
I2
sasS'total_cqs'
p104
I5
ssI18
(dp105
S'iters'
p106
I2
sS'meta'
p107
(lp108
(dp109
S'objective'
p110
I3
sS'query_time'
p111
F0.33958911895751953
sS'comp_time'
p112
F7.987022399902344e-05
sS'exec_cq'
p113
I1
sS'total_cq'
p114
I5
sa(dp115
g110
I4
sg111
F0.2548398971557617
sg112
F8.20159912109375e-05
sg113
I2
sg114
I2
sasS'total_cqs'
p116
I5
ssI20
(dp117
S'iters'
p118
I1
sS'meta'
p119
(lp120
(dp121
S'objective'
p122
I54
sS'query_time'
p123
F0.13582301139831543
sS'comp_time'
p124
F8.511543273925781e-05
sS'exec_cq'
p125
I1
sS'total_cq'
p126
I12
sasS'total_cqs'
p127
I12
ssI21
(dp128
S'iters'
p129
I1
sS'meta'
p130
(lp131
(dp132
S'objective'
p133
I77
sS'query_time'
p134
F0.03073906898498535
sS'comp_time'
p135
F7.581710815429688e-05
sS'exec_cq'
p136
I1
sS'total_cq'
p137
I14
sasS'total_cqs'
p138
I14
ssI22
(dp139
S'iters'
p140
I1
sS'meta'
p141
(lp142
(dp143
S'objective'
p144
I1
sS'query_time'
p145
F0.006181001663208008
sS'comp_time'
p146
F9.202957153320312e-05
sS'exec_cq'
p147
I1
sS'total_cq'
p148
I2
sasS'total_cqs'
p149
I2
ssI25
(dp150
S'iters'
p151
I1
sS'meta'
p152
(lp153
(dp154
S'objective'
p155
I14
sS'query_time'
p156
F0.32334399223327637
sS'comp_time'
p157
F7.104873657226562e-05
sS'exec_cq'
p158
I1
sS'total_cq'
p159
I7
sasS'total_cqs'
p160
I7
ssI26
(dp161
S'iters'
p162
I1
sS'meta'
p163
(lp164
(dp165
S'objective'
p166
I65
sS'query_time'
p167
F0.016670942306518555
sS'comp_time'
p168
F0.00010204315185546875
sS'exec_cq'
p169
I1
sS'total_cq'
p170
I13
sasS'total_cqs'
p171
I13
ssI27
(dp172
S'iters'
p173
I1
sS'meta'
p174
(lp175
(dp176
S'objective'
p177
I1
sS'query_time'
p178
F0.3342311382293701
sS'comp_time'
p179
F7.891654968261719e-05
sS'exec_cq'
p180
I1
sS'total_cq'
p181
I2
sasS'total_cqs'
p182
I2
ssI28
(dp183
S'iters'
p184
I1
sS'meta'
p185
(lp186
(dp187
S'objective'
p188
I77
sS'query_time'
p189
F1.058872938156128
sS'comp_time'
p190
F8.702278137207031e-05
sS'exec_cq'
p191
I1
sS'total_cq'
p192
I14
sasS'total_cqs'
p193
I14
ssI29
(dp194
S'iters'
p195
I1
sS'meta'
p196
(lp197
(dp198
S'objective'
p199
I1
sS'query_time'
p200
F0.0049707889556884766
sS'comp_time'
p201
F6.699562072753906e-05
sS'exec_cq'
p202
I1
sS'total_cq'
p203
I2
sasS'total_cqs'
p204
I2
ssI30
(dp205
S'iters'
p206
I1
sS'meta'
p207
(lp208
(dp209
S'objective'
p210
I1
sS'query_time'
p211
F0.34513306617736816
sS'comp_time'
p212
F6.794929504394531e-05
sS'exec_cq'
p213
I1
sS'total_cq'
p214
I2
sasS'total_cqs'
p215
I2
ssI31
(dp216
S'iters'
p217
I1
sS'meta'
p218
(lp219
(dp220
S'objective'
p221
I27
sS'query_time'
p222
F0.5646040439605713
sS'comp_time'
p223
F9.107589721679688e-05
sS'exec_cq'
p224
I1
sS'total_cq'
p225
I9
sasS'total_cqs'
p226
I9
ssI32
(dp227
S'iters'
p228
I1
sS'meta'
p229
(lp230
(dp231
S'objective'
p232
I14
sS'query_time'
p233
F0.15647101402282715
sS'comp_time'
p234
F7.200241088867188e-05
sS'exec_cq'
p235
I1
sS'total_cq'
p236
I7
sasS'total_cqs'
p237
I7
ssI33
(dp238
S'iters'
p239
I1
sS'meta'
p240
(lp241
(dp242
S'objective'
p243
I1
sS'query_time'
p244
F0.027915000915527344
sS'comp_time'
p245
F7.295608520507812e-05
sS'exec_cq'
p246
I1
sS'total_cq'
p247
I2
sasS'total_cqs'
p248
I2
ssI35
(dp249
S'iters'
p250
I2
sS'meta'
p251
(lp252
(dp253
S'objective'
p254
I7
sS'query_time'
p255
F1.126601219177246
sS'comp_time'
p256
F0.00012111663818359375
sS'exec_cq'
p257
I1
sS'total_cq'
p258
I5
sa(dp259
g254
I1
sg255
F0.10705208778381348
sg256
F8.702278137207031e-05
sg257
I1
sg258
I3
sasS'total_cqs'
p260
I5
ssI37
(dp261
S'iters'
p262
I2
sS'meta'
p263
(lp264
(dp265
S'objective'
p266
I23
sS'query_time'
p267
F0.32332801818847656
sS'comp_time'
p268
F7.724761962890625e-05
sS'exec_cq'
p269
I1
sS'total_cq'
p270
I10
sa(dp271
g266
I4
sg267
F0.09072995185852051
sg268
F8.416175842285156e-05
sg269
I1
sg270
I2
sasS'total_cqs'
p272
I10
ssI40
(dp273
S'iters'
p274
I1
sS'meta'
p275
(lp276
(dp277
S'objective'
p278
I1
sS'query_time'
p279
F15.124608039855957
sS'comp_time'
p280
F0.0004601478576660156
sS'exec_cq'
p281
I2
sS'total_cq'
p282
I2
sasS'total_cqs'
p283
I2
ssI41
(dp284
S'iters'
p285
I2
sS'meta'
p286
(lp287
(dp288
S'objective'
p289
I5
sS'query_time'
p290
F5.858994007110596
sS'comp_time'
p291
F0.00012421607971191406
sS'exec_cq'
p292
I1
sS'total_cq'
p293
I6
sa(dp294
g289
I4
sg290
F66.79210186004639
sg291
F7.200241088867188e-05
sg292
I2
sg293
I2
sasS'total_cqs'
p295
I6
ssI42
(dp296
S'iters'
p297
I1
sS'meta'
p298
(lp299
(dp300
S'objective'
p301
I1
sS'query_time'
p302
F0.015436887741088867
sS'comp_time'
p303
F8.106231689453125e-05
sS'exec_cq'
p304
I1
sS'total_cq'
p305
I2
sasS'total_cqs'
p306
I2
ssI44
(dp307
S'iters'
p308
I1
sS'meta'
p309
(lp310
(dp311
S'objective'
p312
I5
sS'query_time'
p313
F0.009398937225341797
sS'comp_time'
p314
F6.914138793945312e-05
sS'exec_cq'
p315
I1
sS'total_cq'
p316
I5
sasS'total_cqs'
p317
I5
ssI45
(dp318
S'iters'
p319
I2
sS'meta'
p320
(lp321
(dp322
S'objective'
p323
I1
sS'query_time'
p324
F0.039552927017211914
sS'comp_time'
p325
F8.7738037109375e-05
sS'exec_cq'
p326
I1
sS'total_cq'
p327
I5
sa(dp328
g323
I2
sg324
F0.4912121295928955
sg325
F7.081031799316406e-05
sg326
I2
sg327
I2
sasS'total_cqs'
p329
I5
ssI48
(dp330
S'iters'
p331
I1
sS'meta'
p332
(lp333
(dp334
S'objective'
p335
I1
sS'query_time'
p336
F0.13741397857666016
sS'comp_time'
p337
F8.106231689453125e-05
sS'exec_cq'
p338
I1
sS'total_cq'
p339
I2
sasS'total_cqs'
p340
I2
ssI49
(dp341
S'iters'
p342
I2
sS'meta'
p343
(lp344
(dp345
S'objective'
p346
I3
sS'query_time'
p347
F0.04854297637939453
sS'comp_time'
p348
F8.58306884765625e-05
sS'exec_cq'
p349
I1
sS'total_cq'
p350
I5
sa(dp351
g346
I4
sg347
F0.09092402458190918
sg348
F9.107589721679688e-05
sg349
I1
sg350
I2
sasS'total_cqs'
p352
I5
ssI50
(dp353
S'iters'
p354
I1
sS'meta'
p355
(lp356
(dp357
S'objective'
p358
I5
sS'query_time'
p359
F0.689208984375
sS'comp_time'
p360
F8.487701416015625e-05
sS'exec_cq'
p361
I1
sS'total_cq'
p362
I5
sasS'total_cqs'
p363
I5
ssI55
(dp364
S'iters'
p365
I1
sS'meta'
p366
(lp367
(dp368
S'objective'
p369
I1
sS'query_time'
p370
F9.357088088989258
sS'comp_time'
p371
F0.00015211105346679688
sS'exec_cq'
p372
I1
sS'total_cq'
p373
I2
sasS'total_cqs'
p374
I2
ssI57
(dp375
S'iters'
p376
I1
sS'meta'
p377
(lp378
(dp379
S'objective'
p380
I0
sS'query_time'
p381
F10.278354167938232
sS'comp_time'
p382
F7.200241088867188e-05
sS'exec_cq'
p383
I1
sS'total_cq'
p384
I3
sasS'total_cqs'
p385
I3
ssI116
(dp386
S'iters'
p387
I1
sS'meta'
p388
(lp389
(dp390
S'objective'
p391
I189
sS'query_time'
p392
F0.23350811004638672
sS'comp_time'
p393
F0.000102996826171875
sS'exec_cq'
p394
I1
sS'total_cq'
p395
I21
sasS'total_cqs'
p396
I21
ssI117
(dp397
S'iters'
p398
I1
sS'meta'
p399
(lp400
(dp401
S'objective'
p402
I5
sS'query_time'
p403
F0.005527019500732422
sS'comp_time'
p404
F7.009506225585938e-05
sS'exec_cq'
p405
I1
sS'total_cq'
p406
I5
sasS'total_cqs'
p407
I5
ss.